 cemapi

 Timestamp is 5cafb4a4 (Thu Apr 11 14:41:56 2019)

 Preferred load address is 10000000

 Start         Length     Name                   Class
 0001:00000000 00000004H .CRT$XCA                CODE
 0001:00000004 00000004H .CRT$XCL                CODE
 0001:00000008 00000008H .CRT$XCU                CODE
 0001:00000010 00000004H .CRT$XCZ                CODE
 0001:00000014 00000004H .CRT$XIA                CODE
 0001:00000018 00000004H .CRT$XIZ                CODE
 0001:0000001c 00000004H .CRT$XPA                CODE
 0001:00000020 00000004H .CRT$XPZ                CODE
 0001:00000024 00000004H .CRT$XTA                CODE
 0001:00000028 00000004H .CRT$XTZ                CODE
 0001:00000030 00002348H .rdata                  CODE
 0001:00002378 00000023H .rdata$debug            CODE
 0001:0000239c 0001c41cH .text                   CODE
 0001:0001e7b8 00000060H .text$yc                CODE
 0001:0001e818 00000034H .text$yd                CODE
 0001:0001e84c 00000188H .xdata                  CODE
 0001:0001e9d4 00000000H ATL$__a                 CODE
 0001:0001e9d4 00000000H ATL$__z                 CODE
 0001:0001e9d4 0000008cH .idata$2                CODE
 0001:0001ea60 00000014H .idata$3                CODE
 0001:0001ea74 00000208H .idata$4                CODE
 0001:0001ec7c 00000182H .idata$6                CODE
 0001:0001ee00 00000341H .edata                  CODE
 0002:00000000 00000208H .idata$5                DATA
 0002:00000208 0000070cH .data                   DATA
 0002:00000914 0000012cH .bss                    DATA
 0003:00000000 00001970H .pdata                  DATA

  Address         Publics by Value              Rva+Base       Lib:Object

 0000:00000000       ___safe_se_handler_count   00000000     <absolute>
 0000:00000000       ___safe_se_handler_table   00000000     <absolute>
 0001:00000000       __xc_a                     10001000     corelib0:crt0init.obj
 0001:00000010       __xc_z                     10001010     corelib0:crt0init.obj
 0001:00000014       __xi_a                     10001014     corelib0:crt0init.obj
 0001:00000018       __xi_z                     10001018     corelib0:crt0init.obj
 0001:0000001c       __xp_a                     1000101c     corelib0:crt0init.obj
 0001:00000020       __xp_z                     10001020     corelib0:crt0init.obj
 0001:00000024       __xt_a                     10001024     corelib0:crt0init.obj
 0001:00000028       __xt_z                     10001028     corelib0:crt0init.obj
 0001:0000004c       ??_C@_1BA@JIHHIEDE@?$AAT?$AAy?$AAp?$AAe?$AAL?$AAi?$AAb?$AA?$AA@ 1000104c     dllmain.obj
 0001:0000005c       ??_C@_1BC@EAHCMADO@?$AAS?$AAo?$AAf?$AAt?$AAw?$AAa?$AAr?$AAe?$AA?$AA@ 1000105c     dllmain.obj
 0001:00000070       ??_C@_1O@GBFINDKL@?$AAS?$AAY?$AAS?$AAT?$AAE?$AAM?$AA?$AA@ 10001070     dllmain.obj
 0001:00000080       ??_C@_1BC@IBECJAAI@?$AAS?$AAE?$AAC?$AAU?$AAR?$AAI?$AAT?$AAY?$AA?$AA@ 10001080     dllmain.obj
 0001:00000094       ??_C@_17OMAOINJK@?$AAS?$AAA?$AAM?$AA?$AA@ 10001094     dllmain.obj
 0001:0000009c       ??_C@_19HLLLM@?$AAM?$AAi?$AAm?$AAe?$AA?$AA@ 1000109c     dllmain.obj
 0001:000000a8       ??_C@_1BC@MAICEHGI@?$AAH?$AAa?$AAr?$AAd?$AAw?$AAa?$AAr?$AAe?$AA?$AA@ 100010a8     dllmain.obj
 0001:000000bc       ??_C@_1BE@EKPAFMCP@?$AAI?$AAn?$AAt?$AAe?$AAr?$AAf?$AAa?$AAc?$AAe?$AA?$AA@ 100010bc     dllmain.obj
 0001:000000d0       ??_C@_1BC@NKMMNMGL@?$AAF?$AAi?$AAl?$AAe?$AAT?$AAy?$AAp?$AAe?$AA?$AA@ 100010d0     dllmain.obj
 0001:000000e4       ??_C@_1CK@OEKPKBNA@?$AAC?$AAo?$AAm?$AAp?$AAo?$AAn?$AAe?$AAn?$AAt?$AA?5?$AAC?$AAa?$AAt?$AAe?$AAg?$AAo?$AAr?$AAi?$AAe?$AAs?$AA?$AA@ 100010e4     dllmain.obj
 0001:00000110       ??_C@_1M@KANJNLFF@?$AAC?$AAL?$AAS?$AAI?$AAD?$AA?$AA@ 10001110     dllmain.obj
 0001:0000011c       ??_C@_1M@EJNEECMJ@?$AAA?$AAp?$AAp?$AAI?$AAD?$AA?$AA@ 1000111c     dllmain.obj
 0001:00000128       ??_C@_1O@JDLOHAN@?$AAD?$AAe?$AAl?$AAe?$AAt?$AAe?$AA?$AA@ 10001128     dllmain.obj
 0001:00000138       ??_C@_1BC@GCKHIPE@?$AAN?$AAo?$AAR?$AAe?$AAm?$AAo?$AAv?$AAe?$AA?$AA@ 10001138     dllmain.obj
 0001:0000014c       ??_C@_1BI@JFAIJMHL@?$AAF?$AAo?$AAr?$AAc?$AAe?$AAR?$AAe?$AAm?$AAo?$AAv?$AAe?$AA?$AA@ 1000114c     dllmain.obj
 0001:00000164       ??_C@_17LLMMEOJD@?$AAV?$AAa?$AAl?$AA?$AA@ 10001164     dllmain.obj
 0001:0000016c       ??_C@_13OPKGLAFF@?$AAB?$AA?$AA@ 1000116c     dllmain.obj
 0001:00000170       ??_C@_13MKMNOPIJ@?$AAD?$AA?$AA@ 10001170     dllmain.obj
 0001:00000174       ??_C@_13LHMFKAAD@?$AAM?$AA?$AA@ 10001174     dllmain.obj
 0001:00000178       ??_C@_13HADIAKP@?$AAS?$AA?$AA@ 10001178     dllmain.obj
 0001:0000019c       ?rgszNeverDelete@CRegParser@ATL@@1QBQBGB 1000119c     dllmain.obj
 0001:000001cc       ??_C@_1CG@NHIDJFIK@?$AAR?$AAM?$AAD?$AAe?$AAl?$AAe?$AAt?$AAe?$AAU?$AAs?$AAe?$AAL?$AAi?$AAc?$AAe?$AAn?$AAs?$AAe?$AA?$AA@ 100011cc     dllmain.obj
 0001:000001f4       ??_C@_1BE@IAILIEHM@?$AAm?$AAd?$AAd?$AAr?$AAm?$AA?4?$AAD?$AAL?$AAL?$AA?$AA@ 100011f4     dllmain.obj
 0001:00000208       ??_7CComModule@ATL@@6B@    10001208     dllmain.obj
 0001:00000230       _GUID_00000146_0000_0000_c000_000000000046 10001230     dllmain.obj
 0001:00000240       ?map@?1??HKeyFromString@CRegParser@ATL@@KAPAUHKEY__@@PAG@Z@4QBUkeymap@?1??123@KAPAU4@0@Z@B 10001240     dllmain.obj
 0001:00000280       ??_C@_19NCHLBIN@?$AAH?$AAK?$AAC?$AAR?$AA?$AA@ 10001280     dllmain.obj
 0001:0000028c       ??_C@_19JAPAIJDE@?$AAH?$AAK?$AAC?$AAU?$AA?$AA@ 1000128c     dllmain.obj
 0001:00000298       ??_C@_19PEALEEJB@?$AAH?$AAK?$AAL?$AAM?$AA?$AA@ 10001298     dllmain.obj
 0001:000002a4       ??_C@_17PJOJPMPB@?$AAH?$AAK?$AAU?$AA?$AA@ 100012a4     dllmain.obj
 0001:000002ac       ??_C@_1CE@PACHPJFI@?$AAH?$AAK?$AAE?$AAY?$AA_?$AAC?$AAL?$AAA?$AAS?$AAS?$AAE?$AAS?$AA_?$AAR?$AAO?$AAO?$AAT?$AA?$AA@ 100012ac     dllmain.obj
 0001:000002d0       ??_C@_1CE@HLHNCBPM@?$AAH?$AAK?$AAE?$AAY?$AA_?$AAC?$AAU?$AAR?$AAR?$AAE?$AAN?$AAT?$AA_?$AAU?$AAS?$AAE?$AAR?$AA?$AA@ 100012d0     dllmain.obj
 0001:000002f4       ??_C@_1CG@GFBEANJL@?$AAH?$AAK?$AAE?$AAY?$AA_?$AAL?$AAO?$AAC?$AAA?$AAL?$AA_?$AAM?$AAA?$AAC?$AAH?$AAI?$AAN?$AAE?$AA?$AA@ 100012f4     dllmain.obj
 0001:0000031c       ??_C@_1BG@BGODANIO@?$AAH?$AAK?$AAE?$AAY?$AA_?$AAU?$AAS?$AAE?$AAR?$AAS?$AA?$AA@ 1000131c     dllmain.obj
 0001:00000334       ??_C@_11LOCGONAA@?$AA?$AA@ 10001334     dllmain.obj
 0001:00000338       ??_C@_1M@PPPPCDEP@?$AAA?$AAP?$AAP?$AAI?$AAD?$AA?$AA@ 10001338     dllmain.obj
 0001:00000344       ??_7CRegObject@ATL@@6B@    10001344     dllmain.obj
 0001:0000035c       ??_C@_1BE@LJOLIMEM@?$AA?$AN?$AA?6?$AA?7?$AA?$HN?$AA?$AN?$AA?6?$AA?$HN?$AA?$AN?$AA?6?$AA?$AA@ 1000135c     dllmain.obj
 0001:00000370       ??_C@_1EA@NHKLICFA@?$AAH?$AAK?$AAC?$AAU?$AA?$AN?$AA?6?$AA?$HL?$AA?7?$AAS?$AAo?$AAf?$AAt?$AAw?$AAa?$AAr?$AAe?$AA?$AN?$AA?6?$AA?7?$AA?$HL?$AA?$AN?$AA?6?$AA?7?$AA?7?$AAC?$AAl?$AAa?$AAs?$AAs?$AAe?$AAs?$AA?$AA@ 10001370     dllmain.obj
 0001:000003b0       ??_C@_1BC@KAILKFFG@?$AAR?$AAE?$AAG?$AAI?$AAS?$AAT?$AAR?$AAY?$AA?$AA@ 100013b0     dllmain.obj
 0001:000003c4       ??_C@_1BG@JBACFMF@?$AAM?$AAo?$AAd?$AAu?$AAl?$AAe?$AA_?$AAR?$AAa?$AAw?$AA?$AA@ 100013c4     dllmain.obj
 0001:000003dc       ??_C@_1O@MNLDABAF@?$AAM?$AAo?$AAd?$AAu?$AAl?$AAe?$AA?$AA@ 100013dc     dllmain.obj
 0001:000003ec       ??_C@_1CA@OOEGNFML@?$AAM?$AAe?$AAs?$AAs?$AAa?$AAg?$AAe?$AAS?$AAe?$AAr?$AAv?$AAe?$AAr?$AAO?$AAn?$AA?$AA@ 100013ec     precomp.obj
 0001:0000042c       IID_IMAPISession           1000142c     precomp.obj
 0001:0000043c       IID_IMAPITable             1000143c     precomp.obj
 0001:0000044c       IID_IMAPIAdviseSink        1000144c     precomp.obj
 0001:0000045c       IID_IMAPIProp              1000145c     precomp.obj
 0001:0000046c       IID_IMsgStore              1000146c     precomp.obj
 0001:0000047c       IID_IMessage               1000147c     precomp.obj
 0001:0000048c       IID_IAttachment            1000148c     precomp.obj
 0001:0000049c       IID_IMAPIContainer         1000149c     precomp.obj
 0001:000004ac       IID_IMAPIFolder            100014ac     precomp.obj
 0001:000004bc       PS_MAPI                    100014bc     precomp.obj
 0001:000004dc       ??_C@_19KANMDILN@?$AAS?$AAM?$AAT?$AAP?$AA?$AA@ 100014dc     cemapi:mapistub.obj
 0001:000004e8       ??_C@_1DI@GOHKBMFH@?$AAM?$AAi?$AAc?$AAr?$AAo?$AAs?$AAo?$AAf?$AAt?$AA?5?$AAT?$AAe?$AAx?$AAt?$AA?5?$AAS?$AAM?$AAS?$AA?5?$AAP?$AAr?$AAo?$AAt?$AAo?$AAc?$AAo?$AAl?$AA?$AA@ 100014e8     cemapi:mapistub.obj
 0001:00000520       ??_C@_1BO@CHLGCEKM@?$AAS?$AAm?$AAs?$AAS?$AAe?$AAn?$AAd?$AAM?$AAe?$AAs?$AAs?$AAa?$AAg?$AAe?$AA?$AA@ 10001520     cemapi:mapistub.obj
 0001:00000540       ??_C@_1BA@NKAHLHCO@?$AAS?$AAm?$AAs?$AAO?$AAp?$AAe?$AAn?$AA?$AA@ 10001540     cemapi:mapistub.obj
 0001:00000550       ??_C@_1BC@EEOKNDFP@?$AAS?$AAm?$AAs?$AAC?$AAl?$AAo?$AAs?$AAe?$AA?$AA@ 10001550     cemapi:mapistub.obj
 0001:00000564       ??_C@_1CC@CLBEPIOA@?$AA?2?$AAW?$AAi?$AAn?$AAd?$AAo?$AAw?$AAs?$AA?2?$AAS?$AAM?$AAS?$AA?4?$AAD?$AAL?$AAL?$AA?$AA@ 10001564     cemapi:mapistub.obj
 0001:00000588       ??_C@_13PJJBFPED@?$AA?$DL?$AA?$AA@ 10001588     cemapi:mapistub.obj
 0001:0000058c       ??_C@_1BG@OHIKBBLA@?$AAo?$AAu?$AAt?$AAr?$AAe?$AAs?$AA?4?$AAd?$AAl?$AAl?$AA?$AA@ 1000158c     cemapi:Util.obj
 0001:000005a4       _GUID_ad206d2b_7e48_4f09_a3c2_e9455cbc8243 100015a4     cemapi:Util.obj
 0001:000005b4       ??_C@_19HEPLDNLP@?$AA?$CF?$AAs?$AA?$CF?$AAd?$AA?$AA@ 100015b4     cemapi:Util.obj
 0001:00000644       ??_C@_19DOLFOBJP@?$AA?4?$AAd?$AAa?$AAt?$AA?$AA@ 10001644     cemapi:irmutils.obj
 0001:00000650       _GUID_0b0c0eb6_4260_43f2_b6b2_321d850c0b16 10001650     cemapi:MapiProp.obj
 0001:00000660       ??_7MapiProp@@6B@          10001660     cemapi:MapiProp.obj
 0001:0000066c       _GUID_00000000_0000_0000_c000_000000000046 1000166c     cemapi:MapiProp.obj
 0001:0000067c       _GUID_32937f78_0f32_4511_8ffe_18624dfc5d07 1000167c     cemapi:MapiProp.obj
 0001:000007cc       _GUID_6d6d6734_163c_4a0d_a797_0d288a8fdd06 100017cc     cemapi:MapiCtx.obj
 0001:000007dc       _GUID_528728d5_5d7c_4279_afe8_2b70bf35fcf2 100017dc     cemapi:MapiCtx.obj
 0001:000007ec       _GUID_9e3f6142_a5f9_492f_9dbb_955ac289276d 100017ec     cemapi:MapiCtx.obj
 0001:000007fc       ??_7MapiCtx@@6B@           100017fc     cemapi:MapiCtx.obj
 0001:00000810       _GUID_7a0e7d44_b3e3_4d33_909b_1f406be311b5 10001810     cemapi:MapiCtx.obj
 0001:00000820       _GUID_7bbf1b02_1b83_463f_9a8f_55f94e158257 10001820     cemapi:MapiCtx.obj
 0001:00000830       _GUID_41ba813d_25ff_4ad4_b190_eabf0c60dc6d 10001830     cemapi:MapiCtx.obj
 0001:00000840       _GUID_96b73ecc_86d0_413e_9e3a_748560416cf2 10001840     cemapi:MapiCtx.obj
 0001:00000870       ??_7ManagedMAPIAdviseSink@@6B@ 10001870     cemapi:ManagedMAPIAdviseSink.obj
 0001:00000a50       ??_C@_19BCIPOELD@?$AA?$CF?$AAc?$AA?$CF?$AAx?$AA?$AA@ 10001a50     cemapi:MapiStore.obj
 0001:00000a60       ??_7MapiStore@@6B@         10001a60     cemapi:MapiStore.obj
 0001:00000ad0       ??_C@_17PLDCMLHG@?$AAF?$AAW?$AA?3?$AA?$AA@ 10001ad0     cemapi:Propmap.obj
 0001:00000ad8       ??_C@_17ENNNFHDH@?$AAR?$AAE?$AA?3?$AA?$AA@ 10001ad8     cemapi:Propmap.obj
 0001:00000b34       ??_C@_1CO@JBBHNBG@?$AAS?$AAi?$AAn?$AAk?$AA?3?$AA?5?$AAO?$AAn?$AAN?$AAo?$AAt?$AAi?$AAf?$AAy?$AA?5?$AAW?$AAr?$AAa?$AAp?$AAp?$AAe?$AAr?$AA?$AA@ 10001b34     cemapi:perf.obj
 0001:00000b64       ??_C@_1BO@CGICGNMM@?$AAS?$AAi?$AAn?$AAk?$AA?3?$AA?5?$AAO?$AAn?$AAN?$AAo?$AAt?$AAi?$AAf?$AAy?$AA?$AA@ 10001b64     cemapi:perf.obj
 0001:00000b84       ??_C@_1DA@IAHNCLHE@?$AAS?$AAe?$AAs?$AAs?$AAi?$AAo?$AAn?$AA?3?$AA?5?$AAG?$AAe?$AAt?$AAS?$AAt?$AAo?$AAr?$AAe?$AAs?$AAT?$AAa?$AAb?$AAl?$AAe?$AA?$AA@ 10001b84     cemapi:perf.obj
 0001:00000bb4       ??_C@_1BA@NJINDKAC@?$AAR?$AAu?$AAn?$AAR?$AAu?$AAl?$AAe?$AA?$AA@ 10001bb4     cemapi:perf.obj
 0001:00000bc4       ??_C@_1CG@DHADEIIP@?$AAO?$AAp?$AAe?$AAn?$AAS?$AAt?$AAr?$AAe?$AAa?$AAm?$AAP?$AAr?$AAo?$AAp?$AAe?$AAr?$AAt?$AAy?$AA?$AA@ 10001bc4     cemapi:perf.obj
 0001:00000bec       ??_C@_1BI@FDDCNCGH@?$AAD?$AAe?$AAl?$AAe?$AAt?$AAe?$AAP?$AAr?$AAo?$AAp?$AAs?$AA?$AA@ 10001bec     cemapi:perf.obj
 0001:00000c04       ??_C@_1BC@MGDIJJHE@?$AAG?$AAe?$AAt?$AAP?$AAr?$AAo?$AAp?$AAs?$AA?$AA@ 10001c04     cemapi:perf.obj
 0001:00000c18       ??_C@_1BC@ODDDBCGK@?$AAS?$AAe?$AAt?$AAP?$AAr?$AAo?$AAp?$AAs?$AA?$AA@ 10001c18     cemapi:perf.obj
 0001:00000c2c       ??_C@_1CM@NBOCNDIP@?$AAM?$AAs?$AAg?$AA?3?$AA?5?$AAP?$AAo?$AAs?$AAt?$AAP?$AAr?$AAo?$AAc?$AAe?$AAs?$AAs?$AAW?$AAr?$AAi?$AAt?$AAe?$AA?$AA@ 10001c2c     cemapi:perf.obj
 0001:00000c58       ??_C@_1CK@PBEBMDHF@?$AAM?$AAs?$AAg?$AA?3?$AA?5?$AAP?$AAr?$AAe?$AAP?$AAr?$AAo?$AAc?$AAe?$AAs?$AAs?$AAW?$AAr?$AAi?$AAt?$AAe?$AA?$AA@ 10001c58     cemapi:perf.obj
 0001:00000c84       ??_C@_1DE@MCBHMFFP@?$AAM?$AAs?$AAg?$AA?3?$AA?5?$AAU?$AAp?$AAd?$AAa?$AAt?$AAe?$AAR?$AAe?$AAc?$AAi?$AAp?$AAi?$AAe?$AAn?$AAt?$AAT?$AAa?$AAb?$AAl?$AAe?$AA?$AA@ 10001c84     cemapi:perf.obj
 0001:00000cb8       ??_C@_1CG@HFCELILB@?$AAM?$AAs?$AAg?$AA?3?$AA?5?$AAA?$AAd?$AAd?$AAR?$AAe?$AAc?$AAi?$AAp?$AAi?$AAe?$AAn?$AAt?$AAs?$AA?$AA@ 10001cb8     cemapi:perf.obj
 0001:00000ce0       ??_C@_1CM@MBDJIJMM@?$AAM?$AAs?$AAg?$AA?3?$AA?5?$AAD?$AAe?$AAl?$AAe?$AAt?$AAe?$AAR?$AAe?$AAc?$AAi?$AAp?$AAi?$AAe?$AAn?$AAt?$AAs?$AA?$AA@ 10001ce0     cemapi:perf.obj
 0001:00000d0c       ??_C@_1CG@LFLLGMKC@?$AAM?$AAs?$AAg?$AA?3?$AA?5?$AAS?$AAu?$AAb?$AAm?$AAi?$AAt?$AAM?$AAe?$AAs?$AAs?$AAa?$AAg?$AAe?$AA?$AA@ 10001d0c     cemapi:perf.obj
 0001:00000d34       ??_C@_1CM@IJHPKBBM@?$AAM?$AAs?$AAg?$AA?3?$AA?5?$AAM?$AAo?$AAd?$AAi?$AAf?$AAy?$AAR?$AAe?$AAc?$AAi?$AAp?$AAi?$AAe?$AAn?$AAt?$AAs?$AA?$AA@ 10001d34     cemapi:perf.obj
 0001:00000d60       ??_C@_1CI@PNHDKDDH@?$AAM?$AAs?$AAg?$AA?3?$AA?5?$AAG?$AAe?$AAt?$AAA?$AAt?$AAt?$AAa?$AAc?$AAh?$AAT?$AAa?$AAb?$AAl?$AAe?$AA?$AA@ 10001d60     cemapi:perf.obj
 0001:00000d88       ??_C@_1CA@FCHEPAFB@?$AAM?$AAs?$AAg?$AA?3?$AA?5?$AAO?$AAp?$AAe?$AAn?$AAA?$AAt?$AAt?$AAa?$AAc?$AAh?$AA?$AA@ 10001d88     cemapi:perf.obj
 0001:00000da8       ??_C@_1CE@GKDNLDND@?$AAM?$AAs?$AAg?$AA?3?$AA?5?$AAD?$AAe?$AAl?$AAe?$AAt?$AAe?$AAA?$AAt?$AAt?$AAa?$AAc?$AAh?$AA?$AA@ 10001da8     cemapi:perf.obj
 0001:00000dcc       ??_C@_1CE@BMALCJCG@?$AAM?$AAs?$AAg?$AA?3?$AA?5?$AAC?$AAr?$AAe?$AAa?$AAt?$AAe?$AAA?$AAt?$AAt?$AAa?$AAc?$AAh?$AA?$AA@ 10001dcc     cemapi:perf.obj
 0001:00000df0       ??_C@_1CE@KBCECGMJ@?$AAC?$AAt?$AAx?$AA?3?$AA?5?$AAU?$AAp?$AAd?$AAa?$AAt?$AAe?$AAE?$AAx?$AAp?$AAi?$AAr?$AAy?$AA?$AA@ 10001df0     cemapi:perf.obj
 0001:00000e14       ??_C@_1CC@BKMDCMDK@?$AAC?$AAt?$AAx?$AA?3?$AA?5?$AAC?$AAh?$AAe?$AAc?$AAk?$AAE?$AAx?$AAp?$AAi?$AAr?$AAy?$AA?$AA@ 10001e14     cemapi:perf.obj
 0001:00000e38       ??_C@_1CM@DKKEFNJB@?$AAC?$AAt?$AAx?$AA?3?$AA?5?$AAI?$AAn?$AAi?$AAt?$AAE?$AAx?$AAp?$AAi?$AAr?$AAy?$AAT?$AAh?$AAr?$AAe?$AAa?$AAd?$AA?$AA@ 10001e38     cemapi:perf.obj
 0001:00000e64       ??_C@_1DA@MDKMBNKK@?$AAC?$AAt?$AAx?$AA?3?$AA?5?$AAR?$AAe?$AAf?$AAr?$AAe?$AAs?$AAh?$AAR?$AAu?$AAl?$AAe?$AAC?$AAl?$AAi?$AAe?$AAn?$AAt?$AAs?$AA?$AA@ 10001e64     cemapi:perf.obj
 0001:00000e94       ??_C@_1CI@EGBBHDDO@?$AAC?$AAt?$AAx?$AA?3?$AA?5?$AAD?$AAe?$AAl?$AAe?$AAt?$AAe?$AAM?$AAs?$AAg?$AAS?$AAt?$AAo?$AAr?$AAe?$AA?$AA@ 10001e94     cemapi:perf.obj
 0001:00000ebc       ??_C@_1CE@IOBACGGF@?$AAC?$AAt?$AAx?$AA?3?$AA?5?$AAO?$AAp?$AAe?$AAn?$AAM?$AAs?$AAg?$AAS?$AAt?$AAo?$AAr?$AAe?$AA?$AA@ 10001ebc     cemapi:perf.obj
 0001:00000ee0       ??_C@_1DE@HIEMLPFB@?$AAC?$AAt?$AAx?$AA?3?$AA?5?$AAG?$AAe?$AAt?$AAS?$AAt?$AAo?$AAr?$AAe?$AAF?$AAr?$AAo?$AAm?$AAD?$AAa?$AAt?$AAa?$AAb?$AAa?$AAs?$AAe?$AA?$AA@ 10001ee0     cemapi:perf.obj
 0001:00000f14       ??_C@_1CE@GEBLNGDA@?$AAC?$AAt?$AAx?$AA?3?$AA?5?$AAG?$AAe?$AAt?$AAS?$AAt?$AAo?$AAr?$AAe?$AAB?$AAy?$AAI?$AAd?$AA?$AA@ 10001f14     cemapi:perf.obj
 0001:00000f38       ??_C@_1CG@PDFKLEEK@?$AAC?$AAt?$AAx?$AA?3?$AA?5?$AAI?$AAn?$AAi?$AAt?$AAS?$AAt?$AAo?$AAr?$AAe?$AAS?$AAi?$AAn?$AAk?$AA?$AA@ 10001f38     cemapi:perf.obj
 0001:00000f60       ??_C@_1BM@OECAMLIK@?$AAC?$AAt?$AAx?$AA?3?$AA?5?$AAU?$AAn?$AAa?$AAd?$AAv?$AAi?$AAs?$AAe?$AA?$AA@ 10001f60     cemapi:perf.obj
 0001:00000f7c       ??_C@_1BI@PDGCKOLG@?$AAC?$AAt?$AAx?$AA?3?$AA?5?$AAA?$AAd?$AAv?$AAi?$AAs?$AAe?$AA?$AA@ 10001f7c     cemapi:perf.obj
 0001:00000f94       ??_C@_1BO@MIMLHHOO@?$AAC?$AAt?$AAx?$AA?3?$AA?5?$AAO?$AAp?$AAe?$AAn?$AAE?$AAn?$AAt?$AAr?$AAy?$AA?$AA@ 10001f94     cemapi:perf.obj
 0001:00000fb4       ??_C@_1DA@IOJKLAAL@?$AAC?$AAt?$AAx?$AA?3?$AA?5?$AAC?$AAr?$AAe?$AAa?$AAt?$AAe?$AAM?$AAe?$AAs?$AAs?$AAa?$AAg?$AAe?$AAS?$AAt?$AAo?$AAr?$AAe?$AA?$AA@ 10001fb4     cemapi:perf.obj
 0001:00000fe4       ??_C@_1DK@BHAPLGCK@?$AAC?$AAt?$AAx?$AA?3?$AA?5?$AAL?$AAo?$AAa?$AAd?$AAD?$AAe?$AAf?$AAa?$AAu?$AAl?$AAt?$AAM?$AAe?$AAs?$AAs?$AAa?$AAg?$AAe?$AAS?$AAt?$AAo?$AAr?$AAe?$AA?$AA@ 10001fe4     cemapi:perf.obj
 0001:00001020       ??_C@_1CI@GDDJNLIH@?$AAC?$AAt?$AAx?$AA?3?$AA?5?$AAC?$AAr?$AAe?$AAa?$AAt?$AAe?$AAS?$AAM?$AAS?$AAS?$AAt?$AAo?$AAr?$AAe?$AA?$AA@ 10002020     cemapi:perf.obj
 0001:00001048       ??_C@_1DC@KGCOHCMG@?$AAC?$AAt?$AAx?$AA?3?$AA?5?$AAI?$AAn?$AAi?$AAt?$AAA?$AAc?$AAt?$AAi?$AAv?$AAe?$AAS?$AAy?$AAn?$AAc?$AAS?$AAt?$AAo?$AAr?$AAe?$AA?$AA@ 10002048     cemapi:perf.obj
 0001:0000107c       ??_C@_1CO@FPKFNCFJ@?$AAC?$AAt?$AAx?$AA?3?$AA?5?$AAI?$AAn?$AAi?$AAt?$AAM?$AAe?$AAs?$AAs?$AAa?$AAg?$AAe?$AAS?$AAt?$AAo?$AAr?$AAe?$AAs?$AA?$AA@ 1000207c     cemapi:perf.obj
 0001:000010ac       ??_C@_1CI@FICFMDM@?$AAC?$AAt?$AAx?$AA?3?$AA?5?$AAC?$AAr?$AAe?$AAa?$AAt?$AAe?$AAI?$AAn?$AAs?$AAt?$AAa?$AAn?$AAc?$AAe?$AA?$AA@ 100020ac     cemapi:perf.obj
 0001:000010d4       ??_C@_1CG@EOPCCNFP@?$AAC?$AAt?$AAx?$AA?3?$AA?5?$AAC?$AAr?$AAe?$AAa?$AAt?$AAe?$AAS?$AAe?$AAs?$AAs?$AAi?$AAo?$AAn?$AA?$AA@ 100020d4     cemapi:perf.obj
 0001:000010fc       ??_C@_1CK@NIKJNNDJ@?$AAC?$AAt?$AAx?$AA?3?$AA?5?$AAG?$AAe?$AAt?$AAS?$AAt?$AAo?$AAr?$AAe?$AAM?$AAa?$AAn?$AAa?$AAg?$AAe?$AAr?$AA?$AA@ 100020fc     cemapi:perf.obj
 0001:00001128       ??_C@_1BI@BBFGEJKH@?$AAM?$AAA?$AAP?$AAI?$AAL?$AAo?$AAg?$AAo?$AAn?$AAE?$AAx?$AA?$AA@ 10002128     cemapi:perf.obj
 0001:00001140       ??_C@_1DC@DDIJMNJE@?$AAS?$AAt?$AAo?$AAr?$AAe?$AA?3?$AA?5?$AAG?$AAe?$AAt?$AAN?$AAe?$AAx?$AAt?$AAE?$AAx?$AAp?$AAi?$AAr?$AAa?$AAt?$AAi?$AAo?$AAn?$AA?$AA@ 10002140     cemapi:perf.obj
 0001:00001174       ??_C@_1CO@IINHLLJJ@?$AAS?$AAt?$AAo?$AAr?$AAe?$AA?3?$AA?5?$AAC?$AAh?$AAe?$AAc?$AAk?$AAE?$AAx?$AAp?$AAi?$AAr?$AAa?$AAt?$AAi?$AAo?$AAn?$AA?$AA@ 10002174     cemapi:perf.obj
 0001:000011a4       ??_C@_1CA@BACLLENC@?$AAS?$AAt?$AAo?$AAr?$AAe?$AA?3?$AA?5?$AAR?$AAu?$AAn?$AAR?$AAu?$AAl?$AAe?$AAs?$AA?$AA@ 100021a4     cemapi:perf.obj
 0001:000011c4       ??_C@_1CK@NLFBCDEK@?$AAS?$AAt?$AAo?$AAr?$AAe?$AA?3?$AA?5?$AAL?$AAo?$AAa?$AAd?$AAR?$AAu?$AAl?$AAe?$AAs?$AAL?$AAi?$AAs?$AAt?$AA?$AA@ 100021c4     cemapi:perf.obj
 0001:000011f0       ??_C@_1DI@CKMHBHNN@?$AAS?$AAt?$AAo?$AAr?$AAe?$AA?3?$AA?5?$AAC?$AAr?$AAe?$AAa?$AAt?$AAe?$AAS?$AAp?$AAe?$AAc?$AAi?$AAa?$AAl?$AAF?$AAo?$AAl?$AAd?$AAe?$AAr?$AAs?$AA?$AA@ 100021f0     cemapi:perf.obj
 0001:00001228       ??_C@_1CE@GOBJHMBB@?$AAS?$AAt?$AAo?$AAr?$AAe?$AA?3?$AA?5?$AAI?$AAs?$AAA?$AAn?$AAc?$AAe?$AAs?$AAt?$AAo?$AAr?$AA?$AA@ 10002228     cemapi:perf.obj
 0001:0000124c       ??_C@_1CE@MPDOOAHH@?$AAS?$AAt?$AAo?$AAr?$AAe?$AA?5?$AAO?$AAp?$AAe?$AAn?$AAM?$AAe?$AAs?$AAs?$AAa?$AAg?$AAe?$AA?$AA@ 1000224c     cemapi:perf.obj
 0001:00001270       ??_C@_1CC@CKKHKDJB@?$AAS?$AAt?$AAo?$AAr?$AAe?$AA?5?$AAO?$AAp?$AAe?$AAn?$AAF?$AAo?$AAl?$AAd?$AAe?$AAr?$AA?$AA@ 10002270     cemapi:perf.obj
 0001:00001294       ??_C@_1CM@JKEFGLJM@?$AAS?$AAt?$AAo?$AAr?$AAe?$AA?5?$AAG?$AAe?$AAt?$AAI?$AAD?$AAs?$AAF?$AAr?$AAo?$AAm?$AAN?$AAa?$AAm?$AAe?$AAs?$AA?$AA@ 10002294     cemapi:perf.obj
 0001:000012c0       ??_C@_1CG@NLELGIAM@?$AAQ?$AAu?$AAe?$AAr?$AAy?$AAR?$AAo?$AAw?$AAs?$AA?5?$AA?$CI?$AAS?$AAt?$AAo?$AAr?$AAe?$AAs?$AA?$CJ?$AA?$AA@ 100022c0     cemapi:perf.obj
 0001:000012e8       ??_C@_1DE@GKPIIJAM@?$AAQ?$AAu?$AAe?$AAr?$AAy?$AAR?$AAo?$AAw?$AAs?$AA?5?$AA?$CI?$AAS?$AAe?$AAa?$AAr?$AAc?$AAh?$AA?5?$AAF?$AAo?$AAl?$AAd?$AAe?$AAr?$AA?$CJ?$AA?$AA@ 100022e8     cemapi:perf.obj
 0001:0000131c       ??_C@_1DK@CCMOHOOF@?$AAQ?$AAu?$AAe?$AAr?$AAy?$AAR?$AAo?$AAw?$AAs?$AA?5?$AA?$CI?$AAF?$AAo?$AAl?$AAd?$AAe?$AAr?$AA?5?$AAH?$AAi?$AAe?$AAr?$AAa?$AAr?$AAc?$AAh?$AAy?$AA?$CJ?$AA?$AA@ 1000231c     cemapi:perf.obj
 0001:00001358       ??_C@_1DI@FEIMGEHI@?$AAQ?$AAu?$AAe?$AAr?$AAy?$AAR?$AAo?$AAw?$AAs?$AA?5?$AA?$CI?$AAF?$AAo?$AAl?$AAd?$AAe?$AAr?$AA?5?$AAC?$AAo?$AAn?$AAt?$AAe?$AAn?$AAt?$AAs?$AA?$CJ?$AA?$AA@ 10002358     cemapi:perf.obj
 0001:00001390       ??_C@_1CO@OBNODBGN@?$AAQ?$AAu?$AAe?$AAr?$AAy?$AAR?$AAo?$AAw?$AAs?$AA?5?$AA?$CI?$AAR?$AAe?$AAc?$AAi?$AAp?$AAi?$AAe?$AAn?$AAt?$AAs?$AA?$CJ?$AA?$AA@ 10002390     cemapi:perf.obj
 0001:000013c0       ??_C@_1DA@BENDIDOJ@?$AAQ?$AAu?$AAe?$AAr?$AAy?$AAR?$AAo?$AAw?$AAs?$AA?5?$AA?$CI?$AAA?$AAt?$AAt?$AAa?$AAc?$AAh?$AAm?$AAe?$AAn?$AAt?$AAs?$AA?$CJ?$AA?$AA@ 100023c0     cemapi:perf.obj
 0001:000013f0       ??_C@_1CK@IMNMABJI@?$AAF?$AAo?$AAl?$AAd?$AAe?$AAr?$AA?3?$AA?5?$AAC?$AAr?$AAe?$AAa?$AAt?$AAe?$AAF?$AAo?$AAl?$AAd?$AAe?$AAr?$AA?$AA@ 100023f0     cemapi:perf.obj
 0001:0000141c       ??_C@_1CG@KNCFBNEC@?$AAF?$AAo?$AAl?$AAd?$AAe?$AAr?$AA?3?$AA?5?$AAC?$AAo?$AAp?$AAy?$AAF?$AAo?$AAl?$AAd?$AAe?$AAr?$AA?$AA@ 1000241c     cemapi:perf.obj
 0001:00001444       ??_C@_1CK@PKOKJLGN@?$AAF?$AAo?$AAl?$AAd?$AAe?$AAr?$AA?3?$AA?5?$AAD?$AAe?$AAl?$AAe?$AAt?$AAe?$AAF?$AAo?$AAl?$AAd?$AAe?$AAr?$AA?$AA@ 10002444     cemapi:perf.obj
 0001:00001470       ??_C@_1DC@IPNNHINC@?$AAF?$AAo?$AAl?$AAd?$AAe?$AAr?$AA?3?$AA?5?$AAG?$AAe?$AAt?$AAC?$AAo?$AAn?$AAt?$AAe?$AAn?$AAt?$AAs?$AAT?$AAa?$AAb?$AAl?$AAe?$AA?$AA@ 10002470     cemapi:perf.obj
 0001:000014a4       ??_C@_1DE@LMIGIGMD@?$AAF?$AAo?$AAl?$AAd?$AAe?$AAr?$AA?3?$AA?5?$AAG?$AAe?$AAt?$AAH?$AAi?$AAe?$AAr?$AAa?$AAr?$AAc?$AAh?$AAy?$AAT?$AAa?$AAb?$AAl?$AAe?$AA?$AA@ 100024a4     cemapi:perf.obj
 0001:000014d8       ??_C@_1CK@DILGOECC@?$AAF?$AAo?$AAl?$AAd?$AAe?$AAr?$AA?3?$AA?5?$AAC?$AAo?$AAp?$AAy?$AAM?$AAe?$AAs?$AAs?$AAa?$AAg?$AAe?$AAs?$AA?$AA@ 100024d8     cemapi:perf.obj
 0001:00001504       ??_C@_1CO@JMDCDDKO@?$AAF?$AAo?$AAl?$AAd?$AAe?$AAr?$AA?3?$AA?5?$AAD?$AAe?$AAl?$AAe?$AAt?$AAe?$AAM?$AAe?$AAs?$AAs?$AAa?$AAg?$AAe?$AAs?$AA?$AA@ 10002504     cemapi:perf.obj
 0001:00001534       ??_C@_1CM@CGCEDPIB@?$AAF?$AAo?$AAl?$AAd?$AAe?$AAr?$AA?3?$AA?5?$AAC?$AAr?$AAe?$AAa?$AAt?$AAe?$AAM?$AAe?$AAs?$AAs?$AAa?$AAg?$AAe?$AA?$AA@ 10002534     cemapi:perf.obj
 0001:00001560       ??_C@_1CI@KHEJNFKP@?$AAF?$AAo?$AAl?$AAd?$AAe?$AAr?$AA?3?$AA?5?$AAE?$AAm?$AAp?$AAt?$AAy?$AAF?$AAo?$AAl?$AAd?$AAe?$AAr?$AA?$AA@ 10002560     cemapi:perf.obj
 0001:00001588       ??_C@_1BO@GPADPFKA@?$AA?2?$AAm?$AAd?$AAd?$AAc?$AAe?$AAp?$AAe?$AAr?$AAf?$AA?4?$AAl?$AAo?$AAg?$AA?$AA@ 10002588     cemapi:perf.obj
 0001:000015a8       ??_C@_1CE@HEANMLAA@?$AAM?$AAD?$AAP?$AAG?$AA?2?$AAI?$AAn?$AAb?$AAo?$AAx?$AA?2?$AAC?$AAE?$AAM?$AAA?$AAP?$AAI?$AA?$AA@ 100025a8     cemapi:perf.obj
 0001:000015d8       _GUID_5a055da7_95fe_4b16_b9b5_d44faf9e3b07 100025d8     cemapi:MapiMessage.obj
 0001:000015e8       ??_7MapiMessage@@6B@       100025e8     cemapi:MapiMessage.obj
 0001:00001640       ??_7MapiStream@@6B@        10002640     cemapi:MapiStream.obj
 0001:0000167c       ??_7MapiAdviseSink@@6B@    1000267c     cemapi:AdviseSink.obj
 0001:0000168c       _GUID_c980730e_bf57_49c8_82a7_af64aca2764d 1000268c     cemapi:AdviseSink.obj
 0001:000016a0       ??_7MapiSession@@6B@       100026a0     cemapi:MapiSession.obj
 0001:00001700       ??_7MapiFolder@@6B@        10002700     cemapi:MapiFolder.obj
 0001:00001790       ??_7MapiCtxAdviseSink@@6B@ 10002790     cemapi:CtxAdviseSink.obj
 0001:000017a0       ??_C@_1BI@INKCFMC@?$AAS?$AAe?$AAn?$AAd?$AAe?$AAr?$AAE?$AAm?$AAa?$AAi?$AAl?$AA?$AA@ 100027a0     cemapi:RuleClientWrapper.obj
 0001:000017b8       ??_C@_1O@MHFPBPBK@?$AAS?$AAe?$AAn?$AAd?$AAe?$AAr?$AA?$AA@ 100027b8     cemapi:RuleClientWrapper.obj
 0001:000017c8       ??_C@_1BG@POKAMDKO@?$AAS?$AAe?$AAn?$AAd?$AAe?$AAr?$AAN?$AAa?$AAm?$AAe?$AA?$AA@ 100027c8     cemapi:RuleClientWrapper.obj
 0001:000017e0       ??_C@_1BK@COHBDPJK@?$AAM?$AAe?$AAs?$AAs?$AAa?$AAg?$AAe?$AAC?$AAl?$AAa?$AAs?$AAs?$AA?$AA@ 100027e0     cemapi:RuleClientWrapper.obj
 0001:000017fc       ??_C@_19KKDFAFJ@?$AAB?$AAo?$AAd?$AAy?$AA?$AA@ 100027fc     cemapi:RuleClientWrapper.obj
 0001:00001808       ??_C@_1BA@GMIDJHNK@?$AAS?$AAu?$AAb?$AAj?$AAe?$AAc?$AAt?$AA?$AA@ 10002808     cemapi:RuleClientWrapper.obj
 0001:00001818       ??_C@_1BI@EEKPCHLN@?$AAD?$AAi?$AAs?$AAp?$AAl?$AAa?$AAy?$AAN?$AAa?$AAm?$AAe?$AA?$AA@ 10002818     cemapi:RuleClientWrapper.obj
 0001:00001830       ??_C@_1BM@DNGGKIPM@?$AAT?$AAr?$AAa?$AAn?$AAs?$AAp?$AAo?$AAr?$AAt?$AAN?$AAa?$AAm?$AAe?$AA?$AA@ 10002830     cemapi:RuleClientWrapper.obj
 0001:000019f8       ??_7IFilterRule@@6B@       100029f8     cemapi:RuleClientWrapper.obj
 0001:00001a04       ??_7IFilterRuleMatchImpl@@6B@ 10002a04     cemapi:RuleClientWrapper.obj
 0001:00001a10       ??_7CFilterRuleMatchEqualImpl@@6B@ 10002a10     cemapi:RuleClientWrapper.obj
 0001:00001a1c       ??_7CFilterRule@@6B@       10002a1c     cemapi:RuleClientWrapper.obj
 0001:00001a28       ??_7CFilterRuleMatchStartsWithImpl@@6B@ 10002a28     cemapi:RuleClientWrapper.obj
 0001:00001a34       ??_7CFilterRuleMatchEndsWithImpl@@6B@ 10002a34     cemapi:RuleClientWrapper.obj
 0001:00001a40       ??_7CFilterRuleConjunction@@6B@ 10002a40     cemapi:RuleClientWrapper.obj
 0001:00001a4c       ??_C@_17CGIOMN@?$AAa?$AAn?$AAd?$AA?$AA@ 10002a4c     cemapi:RuleClientWrapper.obj
 0001:00001a54       ??_C@_15HGKJILME@?$AAo?$AAr?$AA?$AA@ 10002a54     cemapi:RuleClientWrapper.obj
 0001:00001a5c       ??_C@_17ECEDBIFL@?$AAn?$AAo?$AAt?$AA?$AA@ 10002a5c     cemapi:RuleClientWrapper.obj
 0001:00001a64       ??_7CFilterRuleMatchContainsImpl@@6B@ 10002a64     cemapi:RuleClientWrapper.obj
 0001:00001a70       ??_7CFilterRuleDataProvider@@6B@ 10002a70     cemapi:RuleClientWrapper.obj
 0001:00001a7c       ??_7CMailRuleClientWrapper@@6B@ 10002a7c     cemapi:RuleClientWrapper.obj
 0001:00001a90       ??_7MapiRecipientTable@@6B@ 10002a90     cemapi:RecipientTable.obj
 0001:00001b18       ??_7SearchFolder@@6B@      10002b18     cemapi:SearchFolder.obj
 0001:00001b98       ??_7RootSearchFolder@@6B@  10002b98     cemapi:RootSearchFolder.obj
 0001:00001c18       ??_7MapiRestriction@@6B@   10002c18     cemapi:Restriction.obj
 0001:00001c3c       ??_7MapiPropertyRestriction@@6B@ 10002c3c     cemapi:Restriction.obj
 0001:00001c60       ??_7MapiAndOrRestriction@@6B@ 10002c60     cemapi:Restriction.obj
 0001:00001c84       ??_7MapiBitMaskRestriction@@6B@ 10002c84     cemapi:Restriction.obj
 0001:00001ca8       ??_7MapiAttach@@6B@        10002ca8     cemapi:Attach.obj
 0001:00001ce0       ??_7MapiAttachTable@@6B@   10002ce0     cemapi:AttachTable.obj
 0001:00001d64       _GUID_5370942d_f237_4972_9455_b05691270bbc 10002d64     cemapi:StoreTable.obj
 0001:00001d78       ??_7MapiStoreTable@@6B@    10002d78     cemapi:StoreTable.obj
 0001:00001e00       ??_7MapiMessageTable@@6B@  10002e00     cemapi:MessageTable.obj
 0001:00001e88       ??_7MapiFolderTable@@6B@   10002e88     cemapi:FolderTable.obj
 0001:00001f10       ??_7MapiTable@@6B@         10002f10     cemapi:MapiTable.obj
 0001:00001f98       ??_7MapiSearchTable@@6B@   10002f98     cemapi:SearchTable.obj
 0001:0000201c       ??_7AttachStream@@6B@      1000301c     cemapi:AttachStream.obj
 0001:00002058       CLSID_MIMEEntity           10003058     msglib_mimeaddr:precomp.obj
 0001:00002068       IID_IMIMEMailBox           10003068     msglib_mimeaddr:precomp.obj
 0001:00002098       _GUID_b3c11a6c_7392_446f_9e46_a30689d04a1b 10003098     msglib_mimeaddr:MimeParseAddress.obj
 0001:000020a8       _GUID_67708261_6a1c_4689_b758_dcdbf6aa7dbf 100030a8     msglib_mimeaddr:MimeParseAddress.obj
 0001:000020b8       ??_C@_02IJGONHOJ@To?$AA@   100030b8     msglib_mimeaddr:MimeParseAddress.obj
 0001:000020bc       _GUID_84f8551b_83c6_47fd_8bb1_41b7e12b9df9 100030bc     msglib_mimeaddr:MimeParseAddress.obj
 0001:000020cc       ??_C@_1BA@PDLJKLAK@?$AAM?$AAa?$AAi?$AAl?$AAA?$AAp?$AAi?$AA?$AA@ 100030cc     Mailapiproxy:MailApiProxy.obj
 0001:000020dc       ??_C@_1BA@EONDGCCM@?$AAn?$AAc?$AAa?$AAl?$AAr?$AAp?$AAc?$AA?$AA@ 100030dc     Mailapiproxy:MailApiProxy.obj
 0001:00002308       CLSID_StdGlobalInterfaceTable 10003308     dcomuuid:dcomuuid.obj
 0001:00002318       IID_IStream                10003318     dcomuuid:dcomuuid.obj
 0001:00002328       IID_IUnknown               10003328     dcomuuid:dcomuuid.obj
 0001:00002338       GUID_ATLVer30              10003338     atls:atlbase.obj
 0001:00002348       GUID_ATLVer70              10003348     atls:atlbase.obj
 0001:0000239c       ?_GetProcFromDLL@@YAXPAPAUHINSTANCE__@@PBGPAP6AHXZ1@Z 1000339c f   dllmain.obj
 0001:000023f0       ?RMDeleteUseLicense@@YAJPAG@Z 100033f0 f   dllmain.obj
 0001:00002444       DllMain                    10003444 f   dllmain.obj
 0001:000024c4       ?Init@CComCriticalSection@ATL@@QAAJXZ 100034c4 f i dllmain.obj
 0001:0000251c       ?AtlCallTermFunc@ATL@@YAXPAU_ATL_MODULE70@1@@Z 1000351c f i dllmain.obj
 0001:00002574       ??0CAtlModule@ATL@@QAA@XZ  10003574 f i dllmain.obj
 0001:000025dc       ?Term@CAtlModule@ATL@@QAAXXZ 100035dc f i dllmain.obj
 0001:00002630       ?ocscpy_s@@YA_NPAGIPBG@Z   10003630 f i dllmain.obj
 0001:00002684       ?AtlThrowImpl@ATL@@YAXJ@Z  10003684 f i dllmain.obj
 0001:000026b0       ?AtlCrtErrorCheck@ATL@@YAHH@Z 100036b0 f i dllmain.obj
 0001:00002704       ?AtlHresultFromLastError@ATL@@YAJXZ 10003704 f i dllmain.obj
 0001:00002724       ?AtlHresultFromWin32@ATL@@YAJK@Z 10003724 f i dllmain.obj
 0001:0000273c       ?Lock@CAtlModule@ATL@@UAAJXZ 1000373c f i dllmain.obj
 0001:00002744       ?Unlock@CAtlModule@ATL@@UAAJXZ 10003744 f i dllmain.obj
 0001:0000274c       ?GetLockCount@CAtlModule@ATL@@UAAJXZ 1000374c f i dllmain.obj
 0001:00002754       ?GetGITPtr@CAtlModule@ATL@@UAAJPAPAUIGlobalInterfaceTable@@@Z 10003754 f i dllmain.obj
 0001:000027d0       ?EscapeSingleQuote@CAtlModule@ATL@@SAXPAGIPBG@Z 100037d0 f i dllmain.obj
 0001:0000282c       ?UpdateRegistryFromResourceD@CComModule@ATL@@UAAJPBGHPAU_ATL_REGMAP_ENTRY@2@@Z 1000382c f i dllmain.obj
 0001:00002838       ?UpdateRegistryFromResourceD@CComModule@ATL@@UAAJIHPAU_ATL_REGMAP_ENTRY@2@@Z 10003838 f i dllmain.obj
 0001:00002844       ?Create@CRegKey@ATL@@QAAJPAUHKEY__@@PBGPAGKKPAU_SECURITY_ATTRIBUTES@@PAK@Z 10003844 f i dllmain.obj
 0001:000028e0       ?Open@CRegKey@ATL@@QAAJPAUHKEY__@@PBGK@Z 100038e0 f i dllmain.obj
 0001:0000294c       ?SetStringValue@CRegKey@ATL@@QAAJPBG0K@Z 1000394c f i dllmain.obj
 0001:000029a4       ?SetMultiStringValue@CRegKey@ATL@@QAAJPBG0@Z 100039a4 f i dllmain.obj
 0001:00002a1c       ??0CParseBuffer@CRegParser@ATL@@QAA@H@Z 10003a1c f i dllmain.obj
 0001:00002a74       ?Append@CParseBuffer@CRegParser@ATL@@QAAHPBGH@Z 10003a74 f i dllmain.obj
 0001:00002b68       ?VTFromRegType@CRegParser@ATL@@KAHPBGAAG@Z 10003b68 f i dllmain.obj
 0001:00002c30       ?ChToByte@CRegParser@ATL@@KAEG@Z 10003c30 f i dllmain.obj
 0001:00002c88       ?HKeyFromString@CRegParser@ATL@@KAPAUHKEY__@@PAG@Z 10003c88 f i dllmain.obj
 0001:00002cd8       ?StrChrW@CRegParser@ATL@@KAPAGPAGG@Z 10003cd8 f i dllmain.obj
 0001:00002d20       ?SkipWhiteSpace@CRegParser@ATL@@IAAXXZ 10003d20 f i dllmain.obj
 0001:00002d60       ?NextToken@CRegParser@ATL@@IAAJPAG@Z 10003d60 f i dllmain.obj
 0001:00002ee8       ?CanForceRemoveKey@CRegParser@ATL@@IAAHPBG@Z 10003ee8 f i dllmain.obj
 0001:00002f30       ?HasSubKeys@CRegParser@ATL@@IAAHPAUHKEY__@@@Z 10003f30 f i dllmain.obj
 0001:00002fac       ?SkipAssignment@CRegParser@ATL@@IAAJPAG@Z 10003fac f i dllmain.obj
 0001:00003038       ?RemoveAll@?$CSimpleMap@PAGPAGVCExpansionVectorEqualHelper@ATL@@@ATL@@QAAXXZ 10004038 f i dllmain.obj
 0001:0000307c       ?FindKey@?$CSimpleMap@PAGPAGVCExpansionVectorEqualHelper@ATL@@@ATL@@QBAHABQAG@Z 1000407c f i dllmain.obj
 0001:000030cc       ?FreeHeap@?$CTempBuffer@G$0EAA@VCCRTAllocator@ATL@@@ATL@@AAAXXZ 100040cc f i dllmain.obj
 0001:000030d4       ?FreeHeap@?$CTempBuffer@G$0BAA@VCCRTAllocator@ATL@@@ATL@@AAAXXZ 100040d4 f i dllmain.obj
 0001:000030dc       ?FreeHeap@?$CTempBuffer@E$0BAA@VCCRTAllocator@ATL@@@ATL@@AAAXXZ 100040dc f i dllmain.obj
 0001:000030e4       ?AllocateHeap@?$CTempBuffer@G$0EAA@VCCRTAllocator@ATL@@@ATL@@AAAXI@Z 100040e4 f i dllmain.obj
 0001:00003110       ?AllocateHeap@?$CTempBuffer@G$0BAA@VCCRTAllocator@ATL@@@ATL@@AAAXI@Z 10004110 f i dllmain.obj
 0001:0000313c       ?AllocateHeap@?$CTempBuffer@E$0BAA@VCCRTAllocator@ATL@@@ATL@@AAAXI@Z 1000413c f i dllmain.obj
 0001:00003170       ?RecurseDeleteKey@CRegKey@ATL@@QAAJPBG@Z 10004170 f i dllmain.obj
 0001:0000329c       ?ClearReplacements@CExpansionVector@ATL@@QAAJXZ 1000429c f i dllmain.obj
 0001:0000333c       ?ClearReplacements@CRegObject@ATL@@UAAJXZ 1000433c f i dllmain.obj
 0001:00003368       ?AddCommonRGSReplacements@?$CAtlModuleT@VCComModule@ATL@@@ATL@@UAAJPAUIRegistrarBase@@@Z 10004368 f i dllmain.obj
 0001:00003390       ?Lookup@?$CSimpleMap@PAGPAGVCExpansionVectorEqualHelper@ATL@@@ATL@@QBAPAGABQAG@Z 10004390 f i dllmain.obj
 0001:000033e0       ??_ECComModule@ATL@@UAAPAXI@Z 100043e0 f i dllmain.obj
 0001:000033e0       ??_GCComModule@ATL@@UAAPAXI@Z 100043e0 f i dllmain.obj
 0001:00003410       ??1CRegObject@ATL@@UAA@XZ  10004410 f i dllmain.obj
 0001:0000346c       ?QueryInterface@CRegObject@ATL@@UAAJABU_GUID@@PAPAX@Z 1000446c f i dllmain.obj
 0001:00003478       ?AddRef@CRegObject@ATL@@UAAKXZ 10004478 f i dllmain.obj
 0001:00003480       ?Release@CRegObject@ATL@@UAAKXZ 10004480 f i dllmain.obj
 0001:00003488       ??_ECRegObject@ATL@@UAAPAXI@Z 10004488 f i dllmain.obj
 0001:00003488       ??_GCRegObject@ATL@@UAAPAXI@Z 10004488 f i dllmain.obj
 0001:000034b4       ?PreProcessBuffer@CRegParser@ATL@@QAAJPAGPAPAG@Z 100044b4 f i dllmain.obj
 0001:00003834       ?Add@?$CSimpleMap@PAGPAGVCExpansionVectorEqualHelper@ATL@@@ATL@@QAAHABQAG0@Z 10004834 f i dllmain.obj
 0001:000038c4       ?Allocate@?$CTempBuffer@G$0EAA@VCCRTAllocator@ATL@@@ATL@@QAAPAGI@Z 100048c4 f i dllmain.obj
 0001:00003924       ?Allocate@?$CTempBuffer@G$0BAA@VCCRTAllocator@ATL@@@ATL@@QAAPAGI@Z 10004924 f i dllmain.obj
 0001:00003984       ?Allocate@?$CTempBuffer@E$0BAA@VCCRTAllocator@ATL@@@ATL@@QAAPAEI@Z 10004984 f i dllmain.obj
 0001:000039dc       ?Add@CExpansionVector@ATL@@QAAHPBG0@Z 100049dc f i dllmain.obj
 0001:00003adc       ?AddReplacement@CRegObject@ATL@@UAAJPBG0@Z 10004adc f i dllmain.obj
 0001:00003b44       ?AddValue@CRegParser@ATL@@IAAJAAVCRegKey@2@PBGPAG@Z 10004b44 f i dllmain.obj
 0001:00003e6c       ?RegisterSubkeys@CRegParser@ATL@@IAAJPAGPAUHKEY__@@HH@Z 10004e6c f i dllmain.obj
 0001:00004444       ?RegisterBuffer@CRegParser@ATL@@QAAJPAGH@Z 10005444 f i dllmain.obj
 0001:00004580       ?RegisterFromResource@CRegObject@ATL@@IAAJPBG00H@Z 10005580 f i dllmain.obj
 0001:000046fc       ?UpdateRegistryFromResourceS@CAtlModule@ATL@@QAAJPBGHPAU_ATL_REGMAP_ENTRY@2@@Z 100056fc f i dllmain.obj
 0001:00004950       ?UpdateRegistryFromResourceS@CAtlModule@ATL@@QAAJIHPAU_ATL_REGMAP_ENTRY@2@@Z 10005950 f i dllmain.obj
 0001:00004b70       ?UpdateRegistryFromResourceS@CComModule@ATL@@UAAJPBGHPAU_ATL_REGMAP_ENTRY@2@@Z 10005b70 f i dllmain.obj
 0001:00004b74       ?UpdateRegistryFromResourceS@CComModule@ATL@@UAAJIHPAU_ATL_REGMAP_ENTRY@2@@Z 10005b74 f i dllmain.obj
 0001:00004b78       ?CEMAPILogonEx@@YAJPAPAUIMAPISession@@@Z 10005b78 f   cemapi:mapistub.obj
 0001:00004ba4       ?CEMAPILogoff@@YAJPAPAUIMAPISession@@@Z 10005ba4 f   cemapi:mapistub.obj
 0001:00004bd4       ?IMAPISession_get_MsgStoresTable@@YAJPAUIMAPISession@@PAPAUIMAPITable@@@Z 10005bd4 f   cemapi:mapistub.obj
 0001:00004bf0       ?IMAPITable_get_NextEntryID@@YAJPAUIMAPITable@@PAPAU_CEENTRYID@@PAK@Z 10005bf0 f   cemapi:mapistub.obj
 0001:00004cac       ?IMAPITable_get_NextRecipient@@YAJPAUIMAPITable@@PAPAG11PAKPAPAU_SRowSet@@@Z 10005cac f   cemapi:mapistub.obj
 0001:00004de8       ?IMessage_get_EntryID@@YAJPAUIMessage@@PAPAUENTRYID@@PAK@Z 10005de8 f   cemapi:mapistub.obj
 0001:00004ec4       ?IMAPISession_OpenMsgStore@@YAJPAUIMAPISession@@PAUENTRYID@@KPAPAUIMsgStore@@@Z 10005ec4 f   cemapi:mapistub.obj
 0001:00004efc       ?IMsgStore_get_Folder@@YAJPAUIMsgStore@@KPAPAUIMAPIFolder@@@Z 10005efc f   cemapi:mapistub.obj
 0001:00004fd0       ?IMAPIFolder_CreateMessage@@YAJPAUIMAPIFolder@@KPAPAUIMessage@@@Z 10005fd0 f   cemapi:mapistub.obj
 0001:00004ff0       ?IMAPIFolder_MoveMessage@@YAJPAUIMAPIFolder@@0PAUIMessage@@K@Z 10005ff0 f   cemapi:mapistub.obj
 0001:0000509c       ?IMAPISession_OpenEntry@@YAJPAUIMAPISession@@PAUENTRYID@@KPAKPAPAUIMessage@@@Z 1000609c f   cemapi:mapistub.obj
 0001:000050e4       ?DeleteBodyString@@YAXPAPAG@Z 100060e4 f   cemapi:mapistub.obj
 0001:00005100       ?IMessage_set_Body@@YAJPAUIMAPIProp@@PBG@Z 10006100 f   cemapi:mapistub.obj
 0001:0000519c       ?IMessage_get_GetRecipientTable@@YAJPAUIMessage@@PAPAUIMAPITable@@@Z 1000619c f   cemapi:mapistub.obj
 0001:000051b8       ?IMAPIContainer_get_ContentsTable@@YAJPAUIMAPIContainer@@PAPAUIMAPITable@@@Z 100061b8 f   cemapi:mapistub.obj
 0001:000051d4       ?CreateCeEntryIDCopy@@YAJPAU_CEENTRYID@@KPAPAU1@@Z 100061d4 f   cemapi:mapistub.obj
 0001:0000520c       ?DeleteMapiAllocatedMemory@@YAJPAPAPAX@Z 1000620c f   cemapi:mapistub.obj
 0001:00005214       ?SafeMAPIFreeBuffer@@YAJPAPAU_SPropValue@@@Z 10006214 f   cemapi:mapistub.obj
 0001:0000524c       ?IMAPIProp_get_StringProperty@@YAJPAUIMAPIProp@@KPAPAGPAPAU_SPropValue@@@Z 1000624c f   cemapi:mapistub.obj
 0001:00005274       ?IMAPIProp_set_StringProperty@@YAJPAUIMAPIProp@@KPBG@Z 10006274 f   cemapi:mapistub.obj
 0001:000052bc       ?IMAPIProp_get_DateProperty@@YAJPAUIMAPIProp@@KPAK1111111@Z 100062bc f   cemapi:mapistub.obj
 0001:00005360       ?IMAPIProp_get_LongProperty@@YAJPAUIMAPIProp@@KPAK@Z 10006360 f   cemapi:mapistub.obj
 0001:0000539c       ?IMAPIProp_set_LongProperty@@YAJPAUIMAPIProp@@KK@Z 1000639c f   cemapi:mapistub.obj
 0001:000053e4       ?CountRecipsInString@@YAKPBG@Z 100063e4 f   cemapi:mapistub.obj
 0001:0000541c       ?CEMAPI_AddRecipients@@YAXPAG0KPAU_ADRLIST@@AAPAGAAPAU_SPropValue@@@Z 1000641c f   cemapi:mapistub.obj
 0001:00005620       ?CEMAPI_SetMessageRecipients@@YAJPAUIMessage@@PBG11111@Z 10006620 f   cemapi:mapistub.obj
 0001:000057cc       ?IMessage_SubmitMessage@@YAJPAUIMessage@@@Z 100067cc f   cemapi:mapistub.obj
 0001:000057ec       ?SendSMSMessage@@YAJPBG0I@Z 100067ec f   cemapi:mapistub.obj
 0001:00005a24       ?UnloadSmsDll@@YAJXZ       10006a24 f   cemapi:mapistub.obj
 0001:00005a5c       ?IMAPISession_CompareEntryIDs@@YAJPAUIMAPISession@@KPAUENTRYID@@K1KPAK@Z 10006a5c f   cemapi:mapistub.obj
 0001:00005a90       ?IMessage_delete@@YAJPAUIMAPISession@@PAUIMessage@@PAUENTRYID@@@Z 10006a90 f   cemapi:mapistub.obj
 0001:00005c04       ?RegisterForMapiNativeEvent@@YAJPAUIMAPISession@@PAUHWND__@@PAUENTRYID@@KPAPAVManagedMAPIAdviseSink@@@Z 10006c04 f   cemapi:mapistub.obj
 0001:00005c88       ?CEMAPIComposeMessage@@YAJPBG000000@Z 10006c88 f   cemapi:mapistub.obj
 0001:00005dd4       ?IMessage_get_Body@@YAJPAUIMAPIProp@@PAKPAPAG@Z 10006dd4 f   cemapi:mapistub.obj
 0001:00005f04       ?MAPI_CompareEntryIDs@@YAHKPAUENTRYID@@K0@Z 10006f04 f   cemapi:Util.obj
 0001:00005f60       ?ConvertSpecialDatabasePropertyTagToMapiTag@@YAHKPAK@Z 10006f60 f   cemapi:Util.obj
 0001:00006058       MAPICreateContext          10007058 f   cemapi:Util.obj
 0001:0000605c       ?MapUSFolderTypeToMAPIFolderType@@YAKK@Z 1000705c f   cemapi:Util.obj
 0001:0000615c       ?GetBodyDbIdFromTag@@YAKK@Z 1000715c f   cemapi:Util.obj
 0001:000061d0       ?GetBodyTagFromDbId@@YAKK@Z 100071d0 f   cemapi:Util.obj
 0001:00006244       ?GetBodyPresenceFlagFromTag@@YAKK@Z 10007244 f   cemapi:Util.obj
 0001:000062e4       ?GetBodyTypeIndexFromTag@@YAJK@Z 100072e4 f   cemapi:Util.obj
 0001:000063f8       ?GetResourceInstance@@YAPAUHINSTANCE__@@XZ 100073f8 f   cemapi:Util.obj
 0001:00006424       ?ReleaseResourceInstance@@YAXXZ 10007424 f   cemapi:Util.obj
 0001:0000644c       ?AtlComQIPtrAssign@ATL@@YAPAUIUnknown@@PAPAU2@PAU2@ABU_GUID@@@Z 1000744c f i cemapi:Util.obj
 0001:000064a8       ?GetUlongDatabaseProp@@YAJPAUIUSObject@@KPAK@Z 100074a8 f   cemapi:Util.obj
 0001:00006544       ?ConvertDatabasePropertyTagsToMapiTags@@YAJKPAKPAPAU_SPropTagArray@@@Z 10007544 f   cemapi:Util.obj
 0001:000066f4       ?AdjustUnsignedIntegerProperty@@YAJPAVMapiStore@@PAUIUSObject@@KJ@Z 100076f4 f   cemapi:Util.obj
 0001:0000684c       ?IsBodyTypeTag@@YAHK@Z     1000784c f   cemapi:Util.obj
 0001:00006864       ReadMailVolumeNameEx       10007864 f   cemapi:Util.obj
 0001:00006940       FlushMailStore             10007940 f   cemapi:Util.obj
 0001:000069e8       ?IsSearchFolder@@YAHPAUIMAPIFolder@@@Z 100079e8 f   cemapi:Util.obj
 0001:00006a88       MAPI_RefreshRuleClients    10007a88 f   cemapi:Util.obj
 0001:00006ad4       ?HasSubfolder@@YAJPAUIUSFolder@@PBGPAKPAH@Z 10007ad4 f   cemapi:Util.obj
 0001:00006c84       ?GetAlternativeFolderName@@YAJPBGPAUIUSFolder@@PAPAG@Z 10007c84 f   cemapi:Util.obj
 0001:00006df4       ?IsSearchFolder@@YAHPAUIUSObject@@@Z 10007df4 f   cemapi:Util.obj
 0001:00006ee0       ?_Grow@?$_string_t@G$0BA@U?$char_traits@G@ce@@Vallocator@2@@ce@@IAA_NI@Z 10007ee0 f i cemapi:irmutils.obj
 0001:00006f70       ?AddrefRMLicense@@YAJPAG@Z 10007f70 f   cemapi:irmutils.obj
 0001:000070c0       ?ReleaseRMLicense@@YAJPAG@Z 100080c0 f   cemapi:irmutils.obj
 0001:00007238       ?ReleaseMsgRMLicenseById@@YAXPAU_USPROPVAL@@@Z 10008238 f   cemapi:irmutils.obj
 0001:000072ac       ?assign@?$_string_t@G$0BA@U?$char_traits@G@ce@@Vallocator@2@@ce@@QAA_NPBGII@Z 100082ac f i cemapi:irmutils.obj
 0001:00007314       ?get_lock@?$singleton@V?$free_list@$0GE@Vallocator@ce@@@ce@@$03V?$static_allocator@V?$free_list@$0GE@Vallocator@ce@@@ce@@$03@2@@ce@@KAAAVcritical_section@2@XZ 10008314 f i cemapi:irmutils.obj
 0001:00007370       CacheIRMLicenseId          10008370 f   cemapi:irmutils.obj
 0001:00007590       AssociateAttachmentWithLicense 10008590 f   cemapi:irmutils.obj
 0001:0000782c       MAPIAllocateBuffer         1000882c f   cemapi:mem.obj
 0001:000078ac       MAPIAllocateMore           100088ac f   cemapi:mem.obj
 0001:00007958       MAPIFreeBuffer             10008958 f   cemapi:mem.obj
 0001:000079b0       MAPIAllocateMore_dbg       100089b0 f   cemapi:mem.obj
 0001:000079b4       MAPIAllocateBuffer_dbg     100089b4 f   cemapi:mem.obj
 0001:000079b8       FreeProws                  100089b8 f   cemapi:mem.obj
 0001:00007a68       ?MAPIAllocateBufferInt@@YAJKPAPAXK@Z 10008a68 f   cemapi:mem.obj
 0001:00007b14       ?BuildQuery@MapiProp@@IAAJPAVTRANSLATECTX@@PAU_SPropTagArray@@@Z 10008b14 f   cemapi:MapiProp.obj
 0001:00007b7c       ?ConvertQueryResult@MapiProp@@IAAJPAVTRANSLATECTX@@PAU_SPropTagArray@@PAPAU_SPropValue@@@Z 10008b7c f   cemapi:MapiProp.obj
 0001:00007bfc       CePerfBeginDuration        10008bfc f i cemapi:MapiProp.obj
 0001:00007c70       CePerfEndDuration          10008c70 f i cemapi:MapiProp.obj
 0001:00007cf8       ?GetProps@MapiProp@@UAAJPAU_SPropTagArray@@KPAKPAPAU_SPropValue@@@Z 10008cf8 f   cemapi:MapiProp.obj
 0001:00007eac       ?UpdateFolderUnreadCount@MapiProp@@IAAJPAUIUSFolder@@PAUIUSItem@@@Z 10008eac f   cemapi:MapiProp.obj
 0001:00007f4c       ?GetUSObject@MapiProp@@QAAJPAPAUIUSObject@@@Z 10008f4c f   cemapi:MapiProp.obj
 0001:00007f98       HrGetOneProp               10008f98 f   cemapi:MapiProp.obj
 0001:0000805c       HrSetOneProp               1000905c f   cemapi:MapiProp.obj
 0001:000080a0       ??0MapiProp@@QAA@PAUIUSObject@@PAUPROPHANDLERITEM@@PAVMapiStore@@@Z 100090a0 f   cemapi:MapiProp.obj
 0001:000080f0       ?UpdateLastModificationTime@MapiProp@@IAAJPAVTRANSLATECTX@@@Z 100090f0 f   cemapi:MapiProp.obj
 0001:000081b0       ?DetermineMsgFlagChange@MapiProp@@IAAJK@Z 100091b0 f   cemapi:MapiProp.obj
 0001:00008258       ?UpdateMsgBodyType@MapiProp@@IAAJKH@Z 10009258 f   cemapi:MapiProp.obj
 0001:00008310       ?UpdateMsgBodySize@MapiProp@@IAAJKK@Z 10009310 f   cemapi:MapiProp.obj
 0001:000083dc       ?PostWriteUpdate@MapiProp@@IAAJXZ 100093dc f   cemapi:MapiProp.obj
 0001:000084d8       ?IsEqualObject@?$CComPtrBase@UIUSObject@@@ATL@@QAA_NPAUIUnknown@@@Z 100094d8 f i cemapi:MapiProp.obj
 0001:000085a4       ?DeleteProps@MapiProp@@UAAJPAU_SPropTagArray@@PAPAU_SPropProblemArray@@@Z 100095a4 f   cemapi:MapiProp.obj
 0001:00008754       ?OpenStreamProperty@MapiProp@@QAAJKKPAPAUIStream@@@Z 10009754 f   cemapi:MapiProp.obj
 0001:000088e0       ?BuildWriteRequest@MapiProp@@IAAJPAVTRANSLATECTX@@KPAU_SPropValue@@PAH@Z 100098e0 f   cemapi:MapiProp.obj
 0001:000089b0       ?MoveItemToFolderAsNew@MapiProp@@IAAJPAUIUSItem@@PAUIUSFolder@@@Z 100099b0 f   cemapi:MapiProp.obj
 0001:00008b78       ?RunRule@MapiProp@@IAAJXZ  10009b78 f   cemapi:MapiProp.obj
 0001:00008f08       ?SetProps@MapiProp@@UAAJKPAU_SPropValue@@PAPAU_SPropProblemArray@@@Z 10009f08 f   cemapi:MapiProp.obj
 0001:00009048       MAPIUninitialize           1000a048 f   cemapi:logon.obj
 0001:000090a4       MAPIInitialize             1000a0a4 f   cemapi:logon.obj
 0001:000090d0       MAPILogonEx                1000a0d0 f   cemapi:logon.obj
 0001:0000916c       SetStoreManagerCache       1000a16c f   cemapi:MapiCtx.obj
 0001:000091b8       ?MilliSecondsFromNow@@YAKPBU_FILETIME@@@Z 1000a1b8 f   cemapi:MapiCtx.obj
 0001:00009298       ?QueryInterface@MapiCtx@@UAAJABU_GUID@@PAPAX@Z 1000a298 f   cemapi:MapiCtx.obj
 0001:00009324       ?InternalAddRef@MapiCtx@@QAAKXZ 1000a324 f   cemapi:MapiCtx.obj
 0001:0000932c       ?AddMsgStoreToCache@MapiCtx@@IAAJPAVMapiStore@@@Z 1000a32c f   cemapi:MapiCtx.obj
 0001:00009370       ?RemoveMsgStoreFromCache@MapiCtx@@IAAJPAVMapiStore@@@Z 1000a370 f   cemapi:MapiCtx.obj
 0001:000093e4       ?RemoveMsgStoreFromCache@MapiCtx@@QAAJK@Z 1000a3e4 f   cemapi:MapiCtx.obj
 0001:0000945c       ?NotifyRefreshRuleClients@MapiCtx@@QAAJXZ 1000a45c f   cemapi:MapiCtx.obj
 0001:00009484       ?ExitMessageExpiryThread@MapiCtx@@IAAXXZ 1000a484 f   cemapi:MapiCtx.obj
 0001:000094f4       ?GetStoreManager@MapiCtx@@QAAJPAPAUIUSStoreManager@@@Z 1000a4f4 f   cemapi:MapiCtx.obj
 0001:0000952c       ?PreProcessMessageWrite@MapiCtx@@QAAXPAU_CEENTRYID@@PAKPAPAX@Z 1000a52c f   cemapi:MapiCtx.obj
 0001:00009630       ?PostProcessMessageWrite@MapiCtx@@QAAXPAX@Z 1000a630 f   cemapi:MapiCtx.obj
 0001:00009650       ?AddClientSink@MapiCtx@@IAAJPAVMapiAdviseSink@@@Z 1000a650 f   cemapi:MapiCtx.obj
 0001:00009694       ?RemoveClientSinkById@MapiCtx@@IAAJK@Z 1000a694 f   cemapi:MapiCtx.obj
 0001:00009714       ?GetUSBaseFolderPath@@YAJPAGI@Z 1000a714 f i cemapi:MapiCtx.obj
 0001:00009814       ?GetStoreManagerCache@@YAJPAPAUIUSStoreManager@@@Z 1000a814 f   cemapi:MapiCtx.obj
 0001:000098b4       ?AddRef@MapiCtx@@UAAKXZ    1000a8b4 f   cemapi:MapiCtx.obj
 0001:000098d0       ?CreateSession@MapiCtx@@UAAJPAPAUICEMAPISession@@@Z 1000a8d0 f   cemapi:MapiCtx.obj
 0001:0000997c       ?TranslatePropTags@MapiCtx@@UAAJKKPBKPAK@Z 1000a97c f   cemapi:MapiCtx.obj
 0001:00009a18       ?InitActiveSyncStore@MapiCtx@@IAAJXZ 1000aa18 f   cemapi:MapiCtx.obj
 0001:00009bc4       ?Unadvise@MapiCtx@@QAAJK@Z 1000abc4 f   cemapi:MapiCtx.obj
 0001:00009c44       ?GetNextStore@MapiCtx@@IAAJPAPAXPAPAVMapiStore@@@Z 1000ac44 f   cemapi:MapiCtx.obj
 0001:00009c84       ?RefreshRuleClients@MapiCtx@@QAAJXZ 1000ac84 f   cemapi:MapiCtx.obj
 0001:00009d34       ?CheckForMessageExpiration@MapiCtx@@IAAJXZ 1000ad34 f   cemapi:MapiCtx.obj
 0001:00009de4       ?UpdateStoreMessageExpiration@MapiCtx@@IAAJXZ 1000ade4 f   cemapi:MapiCtx.obj
 0001:00009ed4       ?UpdateAndNotifyMessageExpiration@MapiCtx@@QAAJXZ 1000aed4 f   cemapi:MapiCtx.obj
 0001:00009ef4       ?GetNextGeneration@MapiCtx@@QAAJPAK@Z 1000aef4 f   cemapi:MapiCtx.obj
 0001:00009fb8       ?Cleanup@MapiCtx@@IAAXXZ   1000afb8 f   cemapi:MapiCtx.obj
 0001:0000a078       ??0MapiCtx@@IAA@PAUIUSStoreManager@@@Z 1000b078 f   cemapi:MapiCtx.obj
 0001:0000a110       ??1MapiCtx@@IAA@XZ         1000b110 f   cemapi:MapiCtx.obj
 0001:0000a1d4       ?LoadDefaultMessageStore@MapiCtx@@IAAJXZ 1000b1d4 f   cemapi:MapiCtx.obj
 0001:0000a2c4       ?CreateMsgStore@MapiCtx@@QAAJPBGKPAPAVMapiStore@@@Z 1000b2c4 f   cemapi:MapiCtx.obj
 0001:0000a48c       ?Advise@MapiCtx@@QAAJKPAUENTRYID@@KPAUIMAPIAdviseSink@@PAKK@Z 1000b48c f   cemapi:MapiCtx.obj
 0001:0000a5c4       ?InitStoreSink@MapiCtx@@IAAJXZ 1000b5c4 f   cemapi:MapiCtx.obj
 0001:0000a660       ?GetStoreFromDatabase@MapiCtx@@IAAJKPAPAVMapiStore@@@Z 1000b660 f   cemapi:MapiCtx.obj
 0001:0000a730       ?GetStoreById@MapiCtx@@QAAJKPAPAVMapiStore@@@Z 1000b730 f   cemapi:MapiCtx.obj
 0001:0000a874       ?OpenMsgStore@MapiCtx@@QAAJKPAUENTRYID@@HPAPAVMapiStore@@@Z 1000b874 f   cemapi:MapiCtx.obj
 0001:0000a910       ?DeleteMsgStore@MapiCtx@@QAAJKPAUENTRYID@@@Z 1000b910 f   cemapi:MapiCtx.obj
 0001:0000a9f4       ?MessageExpiryThreadProc@MapiCtx@@KAKPAX@Z 1000b9f4 f   cemapi:MapiCtx.obj
 0001:0000aa90       ?CreateSMSStore@MapiCtx@@IAAJXZ 1000ba90 f   cemapi:MapiCtx.obj
 0001:0000ac20       ?InternalRelease@MapiCtx@@QAAKXZ 1000bc20 f   cemapi:MapiCtx.obj
 0001:0000ac58       ?OpenEntry@MapiCtx@@QAAJKPAUENTRYID@@PBU_GUID@@KPAKPAPAUIUnknown@@@Z 1000bc58 f   cemapi:MapiCtx.obj
 0001:0000ad3c       ?InitMessageExpiryThread@MapiCtx@@IAAJXZ 1000bd3c f   cemapi:MapiCtx.obj
 0001:0000ae2c       ?Release@MapiCtx@@UAAKXZ   1000be2c f   cemapi:MapiCtx.obj
 0001:0000ae58       ?InitMessageStores@MapiCtx@@IAAJXZ 1000be58 f   cemapi:MapiCtx.obj
 0001:0000aeb8       ?Init@MapiCtx@@IAAJXZ      1000beb8 f   cemapi:MapiCtx.obj
 0001:0000af38       ?CreateInstance@MapiCtx@@SAJPAUIUSStoreManager@@PAPAV1@@Z 1000bf38 f   cemapi:MapiCtx.obj
 0001:0000aff4       ?_GetSingletonInstance@MapiCtx@@SAJPAPAV1@@Z 1000bff4 f   cemapi:MapiCtx.obj
 0001:0000b108       ?AddRef@ManagedMAPIAdviseSink@@UAAKXZ 1000c108 f   cemapi:ManagedMAPIAdviseSink.obj
 0001:0000b11c       ?Release@ManagedMAPIAdviseSink@@UAAKXZ 1000c11c f   cemapi:ManagedMAPIAdviseSink.obj
 0001:0000b150       ?OnNotify@ManagedMAPIAdviseSink@@UAAKKPAU_NOTIFICATION@@@Z 1000c150 f   cemapi:ManagedMAPIAdviseSink.obj
 0001:0000b254       ??_EManagedMAPIAdviseSink@@UAAPAXI@Z 1000c254 f i cemapi:ManagedMAPIAdviseSink.obj
 0001:0000b254       ??_GManagedMAPIAdviseSink@@UAAPAXI@Z 1000c254 f i cemapi:ManagedMAPIAdviseSink.obj
 0001:0000b278       ?QueryInterface@ManagedMAPIAdviseSink@@UAAJABU_GUID@@PAPAX@Z 1000c278 f   cemapi:ManagedMAPIAdviseSink.obj
 0001:0000b2f4       ??0ManagedMAPIAdviseSink@@QAA@PAUHWND__@@@Z 1000c2f4 f   cemapi:ManagedMAPIAdviseSink.obj
 0001:0000b310       ?ConvertMRCtoMRCP@@YA?AW4tagMRCACCESS_PRIV@@W4_MRCACCESS@@@Z 1000c310 f   cemapi:MapiStore.obj
 0001:0000b374       ?AddRef@MapiStore@@UAAKXZ  1000c374 f   cemapi:MapiStore.obj
 0001:0000b37c       ?GetProps@MapiStore@@UAAJPAU_SPropTagArray@@KPAKPAPAU_SPropValue@@@Z 1000c37c f   cemapi:MapiStore.obj
 0001:0000b3a4       ?SetProps@MapiStore@@UAAJKPAU_SPropValue@@PAPAU_SPropProblemArray@@@Z 1000c3a4 f   cemapi:MapiStore.obj
 0001:0000b3bc       ?Unadvise@MapiStore@@UAAJK@Z 1000c3bc f   cemapi:MapiStore.obj
 0001:0000b3c4       ?IsSpecialFolder@MapiStore@@QAAHK@Z 1000c3c4 f   cemapi:MapiStore.obj
 0001:0000b3fc       ?DeleteProps@MapiStore@@UAAJPAU_SPropTagArray@@PAPAU_SPropProblemArray@@@Z 1000c3fc f   cemapi:MapiStore.obj
 0001:0000b414       ?OpenProperty@MapiStore@@UAAJKPBU_GUID@@KKPAPAUIUnknown@@@Z 1000c414 f   cemapi:MapiStore.obj
 0001:0000b424       ?AdjustFolderUnreadCount@MapiStore@@QAAJPAUIUSFolder@@J@Z 1000c424 f   cemapi:MapiStore.obj
 0001:0000b434       ?AtlComPtrAssign@ATL@@YAPAUIUnknown@@PAPAU2@PAU2@@Z 1000c434 f i cemapi:MapiStore.obj
 0001:0000b480       ?FreeRulesList@MapiStore@@IAAXXZ 1000c480 f   cemapi:MapiStore.obj
 0001:0000b4c8       ?AddRuleToList@MapiStore@@IAAJPAUIMailRuleClient@@W4tagMRCACCESS_PRIV@@H@Z 1000c4c8 f   cemapi:MapiStore.obj
 0001:0000b564       ?RefreshRuleClients@MapiStore@@QAAJXZ 1000c564 f   cemapi:MapiStore.obj
 0001:0000b57c       ?QueryInterface@MapiStore@@UAAJABU_GUID@@PAPAX@Z 1000c57c f   cemapi:MapiStore.obj
 0001:0000b660       ?GetStoreId@MapiStore@@QAAKXZ 1000c660 f   cemapi:MapiStore.obj
 0001:0000b6b8       ?Flush@MapiStore@@QAAJXZ   1000c6b8 f   cemapi:MapiStore.obj
 0001:0000b6e0       ?GetFolderType@MapiStore@@QAAJPAUIUSFolder@@PAK@Z 1000c6e0 f   cemapi:MapiStore.obj
 0001:0000b794       ?InitFolderProperty@MapiStore@@IAAJPAUIUSFolder@@PAU_USPROPVAL@@@Z 1000c794 f   cemapi:MapiStore.obj
 0001:0000b828       ?StartTransaction@MapiStore@@QAAJXZ 1000c828 f   cemapi:MapiStore.obj
 0001:0000b844       ?EndTransaction@MapiStore@@QAAJH@Z 1000c844 f   cemapi:MapiStore.obj
 0001:0000b85c       ?Delete@MapiStore@@QAAJXZ  1000c85c f   cemapi:MapiStore.obj
 0001:0000b87c       ?GetIdFromName@MapiStore@@IAAJPAU_MAPINAMEID@@PAKK@Z 1000c87c f   cemapi:MapiStore.obj
 0001:0000b9f4       ?UpdateFolderGeneration@MapiStore@@QAAXPAUIUSFolder@@@Z 1000c9f4 f   cemapi:MapiStore.obj
 0001:0000bafc       ?AddRuleClient@MapiStore@@IAAJPAUIMailRuleClient@@H@Z 1000cafc f   cemapi:MapiStore.obj
 0001:0000bb78       ?LoadLegacyRulesList@MapiStore@@IAAJPAG@Z 1000cb78 f   cemapi:MapiStore.obj
 0001:0000bcf4       ?LoadRuleClientWrappers@MapiStore@@IAAJXZ 1000ccf4 f   cemapi:MapiStore.obj
 0001:0000bda8       ?SetMessageExpiration@MapiStore@@QAAJPBU_FILETIME@@@Z 1000cda8 f   cemapi:MapiStore.obj
 0001:0000be38       ?UpdateMessageExpiration@MapiStore@@QAA_KXZ 1000ce38 f   cemapi:MapiStore.obj
 0001:0000beb4       ?Advise@MapiStore@@UAAJKPAUENTRYID@@KPAUIMAPIAdviseSink@@PAK@Z 1000ceb4 f   cemapi:MapiStore.obj
 0001:0000bf04       ?GetIDsFromNames@MapiStore@@UAAJKPAPAU_MAPINAMEID@@KPAPAU_SPropTagArray@@@Z 1000cf04 f   cemapi:MapiStore.obj
 0001:0000c060       ?GetRecipientTable@MapiStore@@UAAJKPAPAUIMAPITable@@@Z 1000d060 f   cemapi:MapiStore.obj
 0001:0000c108       ?GetIPMRootFolder@MapiStore@@QAAJPAPAUIUSFolder@@@Z 1000d108 f   cemapi:MapiStore.obj
 0001:0000c1ec       ?InitFolderProperties@MapiStore@@IAAJPAUIUSFolder@@KPAU_USPROPVAL@@@Z 1000d1ec f   cemapi:MapiStore.obj
 0001:0000c238       ?DeleteSubFolders@MapiStore@@IAAJPAUIUSFolder@@K@Z 1000d238 f   cemapi:MapiStore.obj
 0001:0000c410       ?DeleteMessagesInFolder@MapiStore@@IAAJPAUIUSFolder@@K@Z 1000d410 f   cemapi:MapiStore.obj
 0001:0000c6c4       ?FindObjectFromOid@MapiStore@@QAAJKKPAPAUIUSObject@@@Z 1000d6c4 f   cemapi:MapiStore.obj
 0001:0000c788       ?FindObjectFromMtsId@MapiStore@@IAAJPAGPAPAUIUSObject@@@Z 1000d788 f   cemapi:MapiStore.obj
 0001:0000c910       ?LoadRulesList@MapiStore@@IAAJPAG@Z 1000d910 f   cemapi:MapiStore.obj
 0001:0000c970       ?RunRules@MapiStore@@QAAJPAUIUSItem@@KPAK@Z 1000d970 f   cemapi:MapiStore.obj
 0001:0000ccb4       ?GetNextMessageExpiration@MapiStore@@IAAJPAKPAU_FILETIME@@@Z 1000dcb4 f   cemapi:MapiStore.obj
 0001:0000cf14       ?CreateSpecialFolders@MapiStore@@IAAJPAUIUSFolder@@0KK@Z 1000df14 f   cemapi:MapiStore.obj
 0001:0000d1e0       ?OpenMessage@MapiStore@@IAAJPAU_CEENTRYID@@PAPAVMapiMessage@@@Z 1000e1e0 f   cemapi:MapiStore.obj
 0001:0000d2e0       ?CreateMessage@MapiStore@@QAAJPAUIUSFolder@@KPAPAVMapiMessage@@@Z 1000e2e0 f   cemapi:MapiStore.obj
 0001:0000d4e8       ?GetFolderObjectFromId@MapiStore@@IAAJKPAPAUIUSFolder@@@Z 1000e4e8 f   cemapi:MapiStore.obj
 0001:0000d590       ?EmptyFolder@MapiStore@@QAAJPAUIUSFolder@@K@Z 1000e590 f   cemapi:MapiStore.obj
 0001:0000d5dc       ?DeleteFolder@MapiStore@@QAAJPAUIUSFolder@@K@Z 1000e5dc f   cemapi:MapiStore.obj
 0001:0000d6e0       ?DeleteFolder@MapiStore@@QAAJKK@Z 1000e6e0 f   cemapi:MapiStore.obj
 0001:0000d7a0       ?CopyMoveMessage@MapiStore@@QAAJHPAU_CEENTRYID@@PAUIUSFolder@@PAPAUIUSItem@@@Z 1000e7a0 f   cemapi:MapiStore.obj
 0001:0000d9ac       ??0MapiStore@@IAA@PAUIUSStore@@PAVMapiCtx@@@Z 1000e9ac f   cemapi:MapiStore.obj
 0001:0000da48       ?GetLastError@MapiStore@@UAAJJKPAPAU_MAPIERROR@@@Z 1000ea48 f i cemapi:MapiStore.obj
 0001:0000da54       ?SaveChanges@MapiStore@@UAAJK@Z 1000ea54 f i cemapi:MapiStore.obj
 0001:0000da60       ?GetPropList@MapiStore@@UAAJKPAPAU_SPropTagArray@@@Z 1000ea60 f i cemapi:MapiStore.obj
 0001:0000da6c       ?CopyTo@MapiStore@@UAAJKPBU_GUID@@PAU_SPropTagArray@@KPAUIMAPIProgress@@0PAXKPAPAU_SPropProblemArray@@@Z 1000ea6c f i cemapi:MapiStore.obj
 0001:0000da78       ?CopyProps@MapiStore@@UAAJPAU_SPropTagArray@@KPAUIMAPIProgress@@PBU_GUID@@PAXKPAPAU_SPropProblemArray@@@Z 1000ea78 f i cemapi:MapiStore.obj
 0001:0000da84       ?GetNamesFromIDs@MapiStore@@UAAJPAPAU_SPropTagArray@@PAU_GUID@@KPAKPAPAPAU_MAPINAMEID@@@Z 1000ea84 f i cemapi:MapiStore.obj
 0001:0000da90       ?CompareEntryIDs@MapiStore@@UAAJKPAUENTRYID@@K0KPAK@Z 1000ea90 f i cemapi:MapiStore.obj
 0001:0000da9c       ?SetReceiveFolder@MapiStore@@UAAJPAGKKPAUENTRYID@@@Z 1000ea9c f i cemapi:MapiStore.obj
 0001:0000daa8       ?GetReceiveFolderTable@MapiStore@@UAAJKPAPAUIMAPITable@@@Z 1000eaa8 f i cemapi:MapiStore.obj
 0001:0000dab4       ?StoreLogoff@MapiStore@@UAAJPAK@Z 1000eab4 f i cemapi:MapiStore.obj
 0001:0000dac0       ?AbortSubmit@MapiStore@@UAAJKPAUENTRYID@@K@Z 1000eac0 f i cemapi:MapiStore.obj
 0001:0000dacc       ?GetOutgoingQueue@MapiStore@@UAAJKPAPAUIMAPITable@@@Z 1000eacc f i cemapi:MapiStore.obj
 0001:0000dad8       ?SetLockState@MapiStore@@UAAJPAUIMessage@@K@Z 1000ead8 f i cemapi:MapiStore.obj
 0001:0000dae4       ?FinishedMsg@MapiStore@@UAAJKKPAUENTRYID@@@Z 1000eae4 f i cemapi:MapiStore.obj
 0001:0000daf0       ?NotifyNewMail@MapiStore@@UAAJPAU_NOTIFICATION@@@Z 1000eaf0 f i cemapi:MapiStore.obj
 0001:0000dafc       ??1MapiStore@@QAA@XZ       1000eafc f   cemapi:MapiStore.obj
 0001:0000dbc0       ?InitSpecialFolders@MapiStore@@IAAJXZ 1000ebc0 f   cemapi:MapiStore.obj
 0001:0000dd80       ?DeleteMessage@MapiStore@@QAAJK@Z 1000ed80 f   cemapi:MapiStore.obj
 0001:0000df54       ?CheckForMessageExpiration@MapiStore@@QAAJXZ 1000ef54 f   cemapi:MapiStore.obj
 0001:0000e124       ?Release@MapiStore@@UAAKXZ 1000f124 f   cemapi:MapiStore.obj
 0001:0000e15c       ?Init@MapiStore@@IAAJXZ    1000f15c f   cemapi:MapiStore.obj
 0001:0000e1c4       ?GetSpecialFolderOid@MapiStore@@QAAKK@Z 1000f1c4 f   cemapi:MapiStore.obj
 0001:0000e218       ?IsAncestor@MapiStore@@QAAJPAU_CEENTRYID@@0PAH@Z 1000f218 f   cemapi:MapiStore.obj
 0001:0000e57c       ?IsInsideWasteBasket@MapiStore@@QAAJPAU_CEENTRYID@@PAH@Z 1000f57c f   cemapi:MapiStore.obj
 0001:0000e5f4       ?OpenFolder@MapiStore@@IAAJPAU_CEENTRYID@@PAPAVMapiFolder@@@Z 1000f5f4 f   cemapi:MapiStore.obj
 0001:0000e740       ?MoveFolder@MapiStore@@QAAJKK@Z 1000f740 f   cemapi:MapiStore.obj
 0001:0000eb14       ?MoveMessageToOutbox@MapiStore@@QAAJK@Z 1000fb14 f   cemapi:MapiStore.obj
 0001:0000ec34       ?CreateInstance@MapiStore@@SAJPAUIUSStore@@PAVMapiCtx@@PAPAV1@@Z 1000fc34 f   cemapi:MapiStore.obj
 0001:0000ecd4       ?GetReceiveFolder@MapiStore@@UAAJPAGKPAKPAPAUENTRYID@@PAPAG@Z 1000fcd4 f   cemapi:MapiStore.obj
 0001:0000edb4       ?OpenEntry@MapiStore@@UAAJKPAUENTRYID@@PBU_GUID@@KPAKPAPAUIUnknown@@@Z 1000fdb4 f   cemapi:MapiStore.obj
 0001:0000ef30       ?AttachmentDataHandler@@YAJPAVTRANSLATECTX@@KPAU_SPropValue@@J@Z 1000ff30 f   cemapi:Propmap.obj
 0001:0000ef7c       ?IsSearchFolderHandler@@YAJPAVTRANSLATECTX@@KPAU_SPropValue@@J@Z 1000ff7c f   cemapi:Propmap.obj
 0001:0000efe8       ?SearchFolderUnreadHandler@@YAJPAVTRANSLATECTX@@KPAU_SPropValue@@J@Z 1000ffe8 f   cemapi:Propmap.obj
 0001:0000f050       ??0TRANSLATECTX@@QAA@PAX@Z 10010050 f   cemapi:Propmap.obj
 0001:0000f084       ??1TRANSLATECTX@@QAA@XZ    10010084 f   cemapi:Propmap.obj
 0001:0000f0b8       ?AllocateTempBuf@TRANSLATECTX@@QAAJKPAPAX@Z 100100b8 f   cemapi:Propmap.obj
 0001:0000f104       ??0CRecordQuery@@QAA@XZ    10010104 f   cemapi:Propmap.obj
 0001:0000f144       ??1CRecordQuery@@QAA@XZ    10010144 f   cemapi:Propmap.obj
 0001:0000f168       ?AddProperty@CRecordQuery@@QAAJK@Z 10010168 f   cemapi:Propmap.obj
 0001:0000f240       ?GetProp@CRecordQuery@@QAAJKPAPAU_CEPROPVAL@@W4_GetPropOpts@1@@Z 10010240 f   cemapi:Propmap.obj
 0001:0000f2a4       ?AddPropForWrite@CRecordQuery@@AAAJPAU_CEPROPVAL@@@Z 100102a4 f   cemapi:Propmap.obj
 0001:0000f3cc       ?AddFileTimeProp@CRecordQuery@@QAAJKU_FILETIME@@@Z 100103cc f   cemapi:Propmap.obj
 0001:0000f410       ?AddBodyProp@CRecordQuery@@QAAJKKPAE@Z 10010410 f   cemapi:Propmap.obj
 0001:0000f4b0       ?EncryptData@@YAJPAEKPAPAEPAK@Z 100104b0 f   cemapi:Propmap.obj
 0001:0000f550       ?DecryptData@@YAJPAEKPAPAEPAK@Z 10010550 f   cemapi:Propmap.obj
 0001:0000f5f8       ?EntryIdHandler@@YAJPAVTRANSLATECTX@@KPAU_SPropValue@@J@Z 100105f8 f   cemapi:Propmap.obj
 0001:0000f728       ?SpecialFolderIdHandler@@YAJPAVTRANSLATECTX@@KPAU_SPropValue@@J@Z 10010728 f   cemapi:Propmap.obj
 0001:0000f848       ?StoreEntryIDHandler@@YAJPAVTRANSLATECTX@@KPAU_SPropValue@@J@Z 10010848 f   cemapi:Propmap.obj
 0001:0000f95c       ?WideStringHandler@@YAJPAVTRANSLATECTX@@KPAU_SPropValue@@J@Z 1001095c f   cemapi:Propmap.obj
 0001:0000fab8       ?WideStringEncryptedHandler@@YAJPAVTRANSLATECTX@@KPAU_SPropValue@@J@Z 10010ab8 f   cemapi:Propmap.obj
 0001:0000fc8c       ?BinaryHandler@@YAJPAVTRANSLATECTX@@KPAU_SPropValue@@J@Z 10010c8c f   cemapi:Propmap.obj
 0001:0000fde8       ?GUIDHandler@@YAJPAVTRANSLATECTX@@KPAU_SPropValue@@J@Z 10010de8 f   cemapi:Propmap.obj
 0001:0000ff1c       ?NumberHandler@@YAJKPAVTRANSLATECTX@@KPAU_SPropValue@@J@Z 10010f1c f   cemapi:Propmap.obj
 0001:00010010       ?FileTimeHandler@@YAJPAVTRANSLATECTX@@KPAU_SPropValue@@J@Z 10011010 f   cemapi:Propmap.obj
 0001:000100e4       ?StatusHandler@@YAJPAVTRANSLATECTX@@KPAU_SPropValue@@J@Z 100110e4 f   cemapi:Propmap.obj
 0001:000102d0       ?BodyHandler@@YAJPAVTRANSLATECTX@@KPAU_SPropValue@@J@Z 100112d0 f   cemapi:Propmap.obj
 0001:00010464       ?SenderNameHandler@@YAJPAVTRANSLATECTX@@KPAU_SPropValue@@J@Z 10011464 f   cemapi:Propmap.obj
 0001:000104b4       ?SenderEmailHandler@@YAJPAVTRANSLATECTX@@KPAU_SPropValue@@J@Z 100114b4 f   cemapi:Propmap.obj
 0001:00010698       ?MtsIdHandler@@YAJPAVTRANSLATECTX@@KPAU_SPropValue@@J@Z 10011698 f   cemapi:Propmap.obj
 0001:000107ec       ?SubjectHandler@@YAJPAVTRANSLATECTX@@KPAU_SPropValue@@J@Z 100117ec f   cemapi:Propmap.obj
 0001:00010bc0       ?MessageFlagHandler@@YAJPAVTRANSLATECTX@@KPAU_SPropValue@@J@Z 10011bc0 f   cemapi:Propmap.obj
 0001:00010c94       ?ReadFlagHandler@@YAJPAVTRANSLATECTX@@KPAU_SPropValue@@J@Z 10011c94 f   cemapi:Propmap.obj
 0001:00010d10       ?TableRowIdHandler@@YAJPAVTRANSLATECTX@@KPAU_SPropValue@@J@Z 10011d10 f   cemapi:Propmap.obj
 0001:00010dd8       ?ServiceNameHandler@@YAJPAVTRANSLATECTX@@KPAU_SPropValue@@J@Z 10011dd8 f   cemapi:Propmap.obj
 0001:00010f5c       ?FolderTypeHandler@@YAJPAVTRANSLATECTX@@KPAU_SPropValue@@J@Z 10011f5c f   cemapi:Propmap.obj
 0001:00011028       ?TransportNameHandler@@YAJPAVTRANSLATECTX@@KPAU_SPropValue@@J@Z 10012028 f   cemapi:Propmap.obj
 0001:00011060       ?RecipientParentEntryIdHandler@@YAJPAVTRANSLATECTX@@KPAU_SPropValue@@J@Z 10012060 f   cemapi:Propmap.obj
 0001:00011198       ?SignatureHandler@@YAJPAVTRANSLATECTX@@KPAU_SPropValue@@J@Z 10012198 f   cemapi:Propmap.obj
 0001:00011308       ?RemoteDownloadHandler@@YAJPAVTRANSLATECTX@@KPAU_SPropValue@@J@Z 10012308 f   cemapi:Propmap.obj
 0001:00011384       ?ExecuteQuery@CRecordQuery@@QAAJPAUIUSObject@@@Z 10012384 f   cemapi:Propmap.obj
 0001:00011430       ?ExecuteQuery@CRecordQuery@@QAAJPAUIUSObjectCollection@@@Z 10012430 f   cemapi:Propmap.obj
 0001:000114dc       ?ExecuteWrite@CRecordQuery@@QAAJPAUIUSObject@@@Z 100124dc f   cemapi:Propmap.obj
 0001:00011750       ?DefaultPropHandler@@YAJPAVTRANSLATECTX@@KPAU_SPropValue@@@Z 10012750 f   cemapi:Propmap.obj
 0001:00011864       ?GetPropDbid@@YAJPBUPROPHANDLERITEM@@KPAK@Z 10012864 f   cemapi:Propmap.obj
 0001:0001196c       ?CallPropertyHandler@@YAJPBUPROPHANDLERITEM@@PAVTRANSLATECTX@@KPAU_SPropValue@@@Z 1001296c f   cemapi:Propmap.obj
 0001:00011a24       ?FolderContentCountHandler@@YAJPAVTRANSLATECTX@@KPAU_SPropValue@@J@Z 10012a24 f   cemapi:Propmap.obj
 0001:00011d34       ?FolderNameHandler@@YAJPAVTRANSLATECTX@@KPAU_SPropValue@@J@Z 10012d34 f   cemapi:Propmap.obj
 0001:00011ee4       CePerfOpenSession          10012ee4 f i cemapi:perf.obj
 0001:00011fdc       CePerfCloseSession         10012fdc f i cemapi:perf.obj
 0001:00012078       CePerfRegisterBulk         10013078 f i cemapi:perf.obj
 0001:000120ec       ?MDPGPerfOpenSession@@YAJPAPAXPBG@Z 100130ec f i cemapi:perf.obj
 0001:00012178       ?CemapiPerfOpen@@YAXXZ     10013178 f   cemapi:perf.obj
 0001:000121b0       ?CemapiPerfClose@@YAXXZ    100131b0 f   cemapi:perf.obj
 0001:000121c0       ?AddRef@MapiMessage@@UAAKXZ 100131c0 f   cemapi:MapiMessage.obj
 0001:000121c8       ?QueryInterface@MapiMessage@@UAAJABU_GUID@@PAPAX@Z 100131c8 f   cemapi:MapiMessage.obj
 0001:00012270       ?GetProps@MapiMessage@@UAAJPAU_SPropTagArray@@KPAKPAPAU_SPropValue@@@Z 10013270 f   cemapi:MapiMessage.obj
 0001:00012298       ?DeleteProps@MapiMessage@@UAAJPAU_SPropTagArray@@PAPAU_SPropProblemArray@@@Z 10013298 f   cemapi:MapiMessage.obj
 0001:000122b0       ?OpenProperty@MapiMessage@@UAAJKPBU_GUID@@KKPAPAUIUnknown@@@Z 100132b0 f   cemapi:MapiMessage.obj
 0001:000122c0       ?GetIDsFromNames@MapiMessage@@UAAJKPAPAU_MAPINAMEID@@KPAPAU_SPropTagArray@@@Z 100132c0 f   cemapi:MapiMessage.obj
 0001:000122e8       ?GetDeliveryTime@MapiMessage@@IAAJPAU_FILETIME@@@Z 100132e8 f   cemapi:MapiMessage.obj
 0001:00012388       ?StartTransaction@MapiMessage@@QAAJXZ 10013388 f   cemapi:MapiMessage.obj
 0001:000123a4       ?EndTransaction@MapiMessage@@QAAJH@Z 100133a4 f   cemapi:MapiMessage.obj
 0001:000123c0       ?Init@MapiMessage@@IAAJXZ  100133c0 f   cemapi:MapiMessage.obj
 0001:00012410       ?DeleteRecipients@MapiMessage@@IAAJW4__MIDL___MIDL_itf_unistore_0000_0000_0002@@K@Z 10013410 f   cemapi:MapiMessage.obj
 0001:000124c4       ?RestoreSizeInfo@MapiMessage@@IAAXXZ 100134c4 f   cemapi:MapiMessage.obj
 0001:00012590       ?PersistSizeInfo@MapiMessage@@IAAXXZ 10013590 f   cemapi:MapiMessage.obj
 0001:00012624       ?AddAttachToMsgSize@MapiMessage@@QAAXKK@Z 10013624 f   cemapi:MapiMessage.obj
 0001:000126ac       ?RemoveAttachFromMsgSize@MapiMessage@@QAAXK@Z 100136ac f   cemapi:MapiMessage.obj
 0001:00012724       ?SetMessageSize@MapiMessage@@QAAXKK@Z 10013724 f   cemapi:MapiMessage.obj
 0001:00012760       ?SetBodyType@MapiMessage@@QAAJKH@Z 10013760 f   cemapi:MapiMessage.obj
 0001:0001284c       ?PreProcessWrite@MapiMessage@@IAAXPAKPAPAX@Z 1001384c f   cemapi:MapiMessage.obj
 0001:0001292c       ?CreateAttach@MapiMessage@@UAAJPBU_GUID@@KPAKPAPAUIAttach@@@Z 1001392c f   cemapi:MapiMessage.obj
 0001:00012b10       ?DeleteAttach@MapiMessage@@UAAJKKPAUIMAPIProgress@@K@Z 10013b10 f   cemapi:MapiMessage.obj
 0001:00012c24       ?OpenAttach@MapiMessage@@UAAJKPBU_GUID@@KPAPAUIAttach@@@Z 10013c24 f   cemapi:MapiMessage.obj
 0001:00012dc4       ?GetAttachmentTable@MapiMessage@@UAAJKPAPAUIMAPITable@@@Z 10013dc4 f   cemapi:MapiMessage.obj
 0001:00012e54       ?GetRecipientTable@MapiMessage@@UAAJKPAPAUIMAPITable@@@Z 10013e54 f   cemapi:MapiMessage.obj
 0001:00012f24       ?SubmitMessage@MapiMessage@@UAAJK@Z 10013f24 f   cemapi:MapiMessage.obj
 0001:00012fd4       ?AddRecipients@MapiMessage@@IAAJPAU_SRowSet@@@Z 10013fd4 f   cemapi:MapiMessage.obj
 0001:00013314       ?UpdateSender@MapiMessage@@IAAJPBG0PAU_FILETIME@@@Z 10014314 f   cemapi:MapiMessage.obj
 0001:00013548       ?UpdateDeliveryTime@MapiMessage@@IAAJU_FILETIME@@@Z 10014548 f   cemapi:MapiMessage.obj
 0001:000136b4       ?UpdateRecipientTable@MapiMessage@@IAAJKPAU_SPropValue@@@Z 100146b4 f   cemapi:MapiMessage.obj
 0001:000137cc       ?PostProcessWrite@MapiMessage@@IAAXKPAX@Z 100147cc f   cemapi:MapiMessage.obj
 0001:00013914       ??0MapiMessage@@IAA@PAUIUSItem@@PAVMapiStore@@@Z 10014914 f   cemapi:MapiMessage.obj
 0001:00013988       ?SetReadFlag@MapiMessage@@UAAJK@Z 10014988 f i cemapi:MapiMessage.obj
 0001:00013994       ?GetLastError@MapiMessage@@UAAJJKPAPAU_MAPIERROR@@@Z 10014994 f i cemapi:MapiMessage.obj
 0001:000139a0       ?SaveChanges@MapiMessage@@UAAJK@Z 100149a0 f i cemapi:MapiMessage.obj
 0001:000139ac       ?GetPropList@MapiMessage@@UAAJKPAPAU_SPropTagArray@@@Z 100149ac f i cemapi:MapiMessage.obj
 0001:000139b8       ?CopyTo@MapiMessage@@UAAJKPBU_GUID@@PAU_SPropTagArray@@KPAUIMAPIProgress@@0PAXKPAPAU_SPropProblemArray@@@Z 100149b8 f i cemapi:MapiMessage.obj
 0001:000139c4       ?CopyProps@MapiMessage@@UAAJPAU_SPropTagArray@@KPAUIMAPIProgress@@PBU_GUID@@PAXKPAPAU_SPropProblemArray@@@Z 100149c4 f i cemapi:MapiMessage.obj
 0001:000139d0       ?GetNamesFromIDs@MapiMessage@@UAAJPAPAU_SPropTagArray@@PAU_GUID@@KPAKPAPAPAU_MAPINAMEID@@@Z 100149d0 f i cemapi:MapiMessage.obj
 0001:000139dc       ?CreateInstance@MapiMessage@@SAJPAUIUSItem@@PAVMapiStore@@PAPAV1@@Z 100149dc f   cemapi:MapiMessage.obj
 0001:00013a7c       ?SetProps@MapiMessage@@UAAJKPAU_SPropValue@@PAPAU_SPropProblemArray@@@Z 10014a7c f   cemapi:MapiMessage.obj
 0001:00013bd8       ?ModifyRecipients@MapiMessage@@UAAJKPAU_ADRLIST@@@Z 10014bd8 f   cemapi:MapiMessage.obj
 0001:00013c9c       ??1MapiMessage@@QAA@XZ     10014c9c f   cemapi:MapiMessage.obj
 0001:00013d18       ?Release@MapiMessage@@UAAKXZ 10014d18 f   cemapi:MapiMessage.obj
 0001:00013d50       ?AddRef@MapiStream@@UAAKXZ 10014d50 f   cemapi:MapiStream.obj
 0001:00013d58       ?Release@MapiStream@@UAAKXZ 10014d58 f   cemapi:MapiStream.obj
 0001:00013d90       ?Clone@MapiStream@@UAAJPAPAUIStream@@@Z 10014d90 f   cemapi:MapiStream.obj
 0001:00013d9c       ?QueryInterface@MapiStream@@UAAJABU_GUID@@PAPAX@Z 10014d9c f   cemapi:MapiStream.obj
 0001:00013e34       ?Init@MapiStream@@IAAJXZ   10014e34 f   cemapi:MapiStream.obj
 0001:00013e70       ?Read@MapiStream@@UAAJPAXKPAK@Z 10014e70 f   cemapi:MapiStream.obj
 0001:00013e88       ?Write@MapiStream@@UAAJPBXKPAK@Z 10014e88 f   cemapi:MapiStream.obj
 0001:00013eb0       ?Seek@MapiStream@@UAAJT_LARGE_INTEGER@@KPAT_ULARGE_INTEGER@@@Z 10014eb0 f   cemapi:MapiStream.obj
 0001:00013ee8       ?Stat@MapiStream@@UAAJPAUtagSTATSTG@@K@Z 10014ee8 f   cemapi:MapiStream.obj
 0001:00013f00       ?SetSize@MapiStream@@UAAJT_ULARGE_INTEGER@@@Z 10014f00 f   cemapi:MapiStream.obj
 0001:00013f40       ?Commit@MapiStream@@UAAJK@Z 10014f40 f   cemapi:MapiStream.obj
 0001:00014068       ?CopyTo@MapiStream@@UAAJPAUIStream@@T_ULARGE_INTEGER@@PAT3@2@Z 10015068 f   cemapi:MapiStream.obj
 0001:000140a8       ?Revert@MapiStream@@UAAJXZ 100150a8 f   cemapi:MapiStream.obj
 0001:000140d0       ?LockRegion@MapiStream@@UAAJT_ULARGE_INTEGER@@0K@Z 100150d0 f   cemapi:MapiStream.obj
 0001:00014114       ?UnlockRegion@MapiStream@@UAAJT_ULARGE_INTEGER@@0K@Z 10015114 f   cemapi:MapiStream.obj
 0001:00014158       ??1MapiStream@@MAA@XZ      10015158 f   cemapi:MapiStream.obj
 0001:000141b0       ??0MapiStream@@IAA@PAVMapiMessage@@PAUIStream@@K@Z 100151b0 f   cemapi:MapiStream.obj
 0001:00014220       ??_EMapiStream@@MAAPAXI@Z  10015220 f i cemapi:MapiStream.obj
 0001:00014220       ??_GMapiStream@@MAAPAXI@Z  10015220 f i cemapi:MapiStream.obj
 0001:00014244       ?CreateInstance@MapiStream@@SAJPAVMapiMessage@@PAUIStream@@KPAPAV1@@Z 10015244 f   cemapi:MapiStream.obj
 0001:000142f0       ?AddRef@MapiAdviseSink@@UAAKXZ 100152f0 f   cemapi:AdviseSink.obj
 0001:000142f8       ?IsMapiClientNotification@MapiAdviseSink@@IAAHPBU__MIDL___MIDL_itf_unistore_0000_0000_0009@@@Z 100152f8 f   cemapi:AdviseSink.obj
 0001:00014344       ??1MapiAdviseSink@@IAA@XZ  10015344 f   cemapi:AdviseSink.obj
 0001:00014390       ?QueryInterface@MapiAdviseSink@@UAAJABU_GUID@@PAPAX@Z 10015390 f   cemapi:AdviseSink.obj
 0001:00014428       ??0MapiAdviseSink@@IAA@PAUIUSStoreManager@@PAUIMAPIAdviseSink@@@Z 10015428 f   cemapi:AdviseSink.obj
 0001:00014498       ?Release@MapiAdviseSink@@UAAKXZ 10015498 f   cemapi:AdviseSink.obj
 0001:000144d0       ?CreateInstance@MapiAdviseSink@@SAJPAUIUSStoreManager@@PAUIMAPIAdviseSink@@PAPAV1@@Z 100154d0 f   cemapi:AdviseSink.obj
 0001:00014548       ?BuildNotifyData@MapiAdviseSink@@IAAJPBU__MIDL___MIDL_itf_unistore_0000_0000_0009@@PAU_NOTIFICATION@@PAEH@Z 10015548 f   cemapi:AdviseSink.obj
 0001:00014968       ?Uninit@MapiAdviseSink@@QAAJXZ 10015968 f   cemapi:AdviseSink.obj
 0001:000149b0       ?OnNotify@MapiAdviseSink@@UAAJKKQBQBU__MIDL___MIDL_itf_unistore_0000_0000_0009@@@Z 100159b0 f   cemapi:AdviseSink.obj
 0001:00014c10       ?AddRef@MapiSession@@UAAKXZ 10015c10 f   cemapi:MapiSession.obj
 0001:00014c18       ?QueryInterface@MapiSession@@UAAJABU_GUID@@PAPAX@Z 10015c18 f   cemapi:MapiSession.obj
 0001:00014ca4       ?CreateMsgStore@MapiSession@@UAAJPBGPAPAUIMsgStore@@@Z 10015ca4 f   cemapi:MapiSession.obj
 0001:00014cb4       ?Logoff@MapiSession@@UAAJKKK@Z 10015cb4 f   cemapi:MapiSession.obj
 0001:00014cbc       ?OpenEntry@MapiSession@@UAAJKPAUENTRYID@@PBU_GUID@@KPAKPAPAUIUnknown@@@Z 10015cbc f   cemapi:MapiSession.obj
 0001:00014cec       ?DeleteMsgStore@MapiSession@@UAAJKPAUENTRYID@@@Z 10015cec f   cemapi:MapiSession.obj
 0001:00014cf4       ?Advise@MapiSession@@UAAJKPAUENTRYID@@KPAUIMAPIAdviseSink@@PAK@Z 10015cf4 f   cemapi:MapiSession.obj
 0001:00014d24       ?Unadvise@MapiSession@@UAAJK@Z 10015d24 f   cemapi:MapiSession.obj
 0001:00014d2c       ??1MapiSession@@QAA@XZ     10015d2c f   cemapi:MapiSession.obj
 0001:00014d68       ?GetLastError@MapiSession@@UAAJJKPAPAU_MAPIERROR@@@Z 10015d68 f i cemapi:MapiSession.obj
 0001:00014d74       ?OpenAddressBook@MapiSession@@UAAJKPBU_GUID@@KPAPAUIAddrBook@@@Z 10015d74 f i cemapi:MapiSession.obj
 0001:00014d80       ?OpenProfileSection@MapiSession@@UAAJPAU_MAPIUID@@PBU_GUID@@KPAPAUIProfSect@@@Z 10015d80 f i cemapi:MapiSession.obj
 0001:00014d8c       ?GetStatusTable@MapiSession@@UAAJKPAPAUIMAPITable@@@Z 10015d8c f i cemapi:MapiSession.obj
 0001:00014d98       ?MessageOptions@MapiSession@@UAAJKKPAGPAUIMessage@@@Z 10015d98 f i cemapi:MapiSession.obj
 0001:00014da4       ?QueryDefaultMessageOpt@MapiSession@@UAAJPAGKPAKPAPAU_SPropValue@@@Z 10015da4 f i cemapi:MapiSession.obj
 0001:00014db0       ?EnumAdrTypes@MapiSession@@UAAJKPAKPAPAPAG@Z 10015db0 f i cemapi:MapiSession.obj
 0001:00014dbc       ?QueryIdentity@MapiSession@@UAAJPAKPAPAUENTRYID@@@Z 10015dbc f i cemapi:MapiSession.obj
 0001:00014dc8       ?SetDefaultStore@MapiSession@@UAAJKKPAUENTRYID@@@Z 10015dc8 f i cemapi:MapiSession.obj
 0001:00014dd4       ?AdminServices@MapiSession@@UAAJKPAPAUIMsgServiceAdmin@@@Z 10015dd4 f i cemapi:MapiSession.obj
 0001:00014de0       ?ShowForm@MapiSession@@UAAJKPAUIMsgStore@@PAUIMAPIFolder@@PBU_GUID@@KPAUIMessage@@KKKKPAD@Z 10015de0 f i cemapi:MapiSession.obj
 0001:00014dec       ?PrepareForm@MapiSession@@UAAJPBU_GUID@@PAUIMessage@@PAK@Z 10015dec f i cemapi:MapiSession.obj
 0001:00014df8       ?Init@MapiSession@@QAAJXZ  10015df8 f   cemapi:MapiSession.obj
 0001:00014e08       ?CompareEntryIDs@MapiSession@@UAAJKPAUENTRYID@@K0KPAK@Z 10015e08 f   cemapi:MapiSession.obj
 0001:00014e80       ?OpenMsgStore@MapiSession@@UAAJKKPAUENTRYID@@PBU_GUID@@KPAPAUIMsgStore@@@Z 10015e80 f   cemapi:MapiSession.obj
 0001:00014ef0       ?Release@MapiSession@@UAAKXZ 10015ef0 f   cemapi:MapiSession.obj
 0001:00014f28       ?GetMsgStoresTable@MapiSession@@UAAJKPAPAUIMAPITable@@@Z 10015f28 f   cemapi:MapiSession.obj
 0001:00015018       ??0MapiSession@@QAA@PAVMapiCtx@@@Z 10016018 f   cemapi:MapiSession.obj
 0001:00015058       ?AddRef@MapiFolder@@UAAKXZ 10016058 f   cemapi:MapiFolder.obj
 0001:00015060       ?Release@MapiFolder@@UAAKXZ 10016060 f   cemapi:MapiFolder.obj
 0001:00015098       ?QueryInterface@MapiFolder@@UAAJABU_GUID@@PAPAX@Z 10016098 f   cemapi:MapiFolder.obj
 0001:0001515c       ?OpenEntry@MapiFolder@@UAAJKPAUENTRYID@@PBU_GUID@@KPAKPAPAUIUnknown@@@Z 1001615c f   cemapi:MapiFolder.obj
 0001:00015194       ?GetProps@MapiFolder@@UAAJPAU_SPropTagArray@@KPAKPAPAU_SPropValue@@@Z 10016194 f   cemapi:MapiFolder.obj
 0001:000151bc       ?SetProps@MapiFolder@@UAAJKPAU_SPropValue@@PAPAU_SPropProblemArray@@@Z 100161bc f   cemapi:MapiFolder.obj
 0001:000151d4       ?DeleteProps@MapiFolder@@UAAJPAU_SPropTagArray@@PAPAU_SPropProblemArray@@@Z 100161d4 f   cemapi:MapiFolder.obj
 0001:000151ec       ?OpenProperty@MapiFolder@@UAAJKPBU_GUID@@KKPAPAUIUnknown@@@Z 100161ec f   cemapi:MapiFolder.obj
 0001:000151fc       ?Init@MapiFolder@@MAAJXZ   100161fc f   cemapi:MapiFolder.obj
 0001:0001524c       ?GetContentsTable@MapiFolder@@UAAJKPAPAUIMAPITable@@@Z 1001624c f   cemapi:MapiFolder.obj
 0001:00015290       ?CreateMessage@MapiFolder@@UAAJPBU_GUID@@KPAPAUIMessage@@@Z 10016290 f   cemapi:MapiFolder.obj
 0001:00015318       ?DeleteMessages@MapiFolder@@UAAJPAU_SBinaryArray@@KPAUIMAPIProgress@@K@Z 10016318 f   cemapi:MapiFolder.obj
 0001:000153e8       ?DeleteFolder@MapiFolder@@UAAJKPAUENTRYID@@KPAUIMAPIProgress@@K@Z 100163e8 f   cemapi:MapiFolder.obj
 0001:000154f8       ?EmptyFolder@MapiFolder@@UAAJKPAUIMAPIProgress@@K@Z 100164f8 f   cemapi:MapiFolder.obj
 0001:000155a4       ?CopyFolder@MapiFolder@@UAAJKPAUENTRYID@@PBU_GUID@@PAXPAGKPAUIMAPIProgress@@K@Z 100165a4 f   cemapi:MapiFolder.obj
 0001:00015740       ?CopyMessage@MapiFolder@@IAAJPAU_SBinary@@PAV1@K@Z 10016740 f   cemapi:MapiFolder.obj
 0001:000157a4       ?CopyMessages@MapiFolder@@UAAJPAU_SBinaryArray@@PBU_GUID@@PAXKPAUIMAPIProgress@@K@Z 100167a4 f   cemapi:MapiFolder.obj
 0001:0001587c       ?InternalGetHierarchyTable@MapiFolder@@IAAJKHPAPAUIMAPITable@@@Z 1001687c f   cemapi:MapiFolder.obj
 0001:00015920       ?GetHierarchyTable@MapiFolder@@UAAJKPAPAUIMAPITable@@@Z 10016920 f   cemapi:MapiFolder.obj
 0001:0001592c       ??0MapiFolder@@IAA@PAUIUSFolder@@PAVMapiStore@@@Z 1001692c f   cemapi:MapiFolder.obj
 0001:00015990       ?GetLastError@MapiFolder@@UAAJJKPAPAU_MAPIERROR@@@Z 10016990 f i cemapi:MapiFolder.obj
 0001:0001599c       ?SaveChanges@MapiFolder@@UAAJK@Z 1001699c f i cemapi:MapiFolder.obj
 0001:000159a8       ?GetPropList@MapiFolder@@UAAJKPAPAU_SPropTagArray@@@Z 100169a8 f i cemapi:MapiFolder.obj
 0001:000159b4       ?CopyTo@MapiFolder@@UAAJKPBU_GUID@@PAU_SPropTagArray@@KPAUIMAPIProgress@@0PAXKPAPAU_SPropProblemArray@@@Z 100169b4 f i cemapi:MapiFolder.obj
 0001:000159c0       ?CopyProps@MapiFolder@@UAAJPAU_SPropTagArray@@KPAUIMAPIProgress@@PBU_GUID@@PAXKPAPAU_SPropProblemArray@@@Z 100169c0 f i cemapi:MapiFolder.obj
 0001:000159cc       ?GetNamesFromIDs@MapiFolder@@UAAJPAPAU_SPropTagArray@@PAU_GUID@@KPAKPAPAPAU_MAPINAMEID@@@Z 100169cc f i cemapi:MapiFolder.obj
 0001:000159d8       ?GetIDsFromNames@MapiFolder@@UAAJKPAPAU_MAPINAMEID@@KPAPAU_SPropTagArray@@@Z 100169d8 f i cemapi:MapiFolder.obj
 0001:000159e4       ?SetSearchCriteria@MapiFolder@@UAAJPAU_SRestriction@@PAU_SBinaryArray@@K@Z 100169e4 f i cemapi:MapiFolder.obj
 0001:000159f0       ?GetSearchCriteria@MapiFolder@@UAAJKPAPAU_SRestriction@@PAPAU_SBinaryArray@@PAK@Z 100169f0 f i cemapi:MapiFolder.obj
 0001:000159fc       ?SetReadFlags@MapiFolder@@UAAJPAU_SBinaryArray@@KPAUIMAPIProgress@@K@Z 100169fc f i cemapi:MapiFolder.obj
 0001:00015a08       ?GetMessageStatus@MapiFolder@@UAAJKPAUENTRYID@@KPAK@Z 10016a08 f i cemapi:MapiFolder.obj
 0001:00015a14       ?SetMessageStatus@MapiFolder@@UAAJKPAUENTRYID@@KKPAK@Z 10016a14 f i cemapi:MapiFolder.obj
 0001:00015a20       ?SaveContentsSort@MapiFolder@@UAAJPAU_SSortOrderSet@@K@Z 10016a20 f i cemapi:MapiFolder.obj
 0001:00015a2c       ??1MapiFolder@@UAA@XZ      10016a2c f   cemapi:MapiFolder.obj
 0001:00015aa8       ?CreateInstance@MapiFolder@@SAJPAUIUSFolder@@PAVMapiStore@@PAPAV1@@Z 10016aa8 f   cemapi:MapiFolder.obj
 0001:00015b50       ?InternalCreateFolder@MapiFolder@@IAAJKPAG0PBU_GUID@@KPAPAUIMAPIFolder@@@Z 10016b50 f   cemapi:MapiFolder.obj
 0001:00015d3c       ??_EMapiFolder@@UAAPAXI@Z  10016d3c f i cemapi:MapiFolder.obj
 0001:00015d3c       ??_GMapiFolder@@UAAPAXI@Z  10016d3c f i cemapi:MapiFolder.obj
 0001:00015d60       ?CreateFolder@MapiFolder@@UAAJKPAG0PBU_GUID@@KPAPAUIMAPIFolder@@@Z 10016d60 f   cemapi:MapiFolder.obj
 0001:00015db8       ?AddRef@MapiCtxAdviseSink@@UAAKXZ 10016db8 f   cemapi:CtxAdviseSink.obj
 0001:00015dc0       ?Release@MapiCtxAdviseSink@@UAAKXZ 10016dc0 f   cemapi:CtxAdviseSink.obj
 0001:00015e04       ?QueryInterface@MapiCtxAdviseSink@@UAAJABU_GUID@@PAPAX@Z 10016e04 f   cemapi:CtxAdviseSink.obj
 0001:00015e9c       ?OnNotifyEvent@MapiCtxAdviseSink@@IAAJPBU__MIDL___MIDL_itf_unistore_0000_0000_0009@@H@Z 10016e9c f   cemapi:CtxAdviseSink.obj
 0001:00015f38       ?CreateInstance@MapiCtxAdviseSink@@SAJPAVMapiCtx@@PAPAV1@@Z 10016f38 f   cemapi:CtxAdviseSink.obj
 0001:00015fc0       ?OnNotify@MapiCtxAdviseSink@@UAAJKKQBQBU__MIDL___MIDL_itf_unistore_0000_0000_0009@@@Z 10016fc0 f   cemapi:CtxAdviseSink.obj
 0001:00016028       ??0CSimpleRegEnum@@QAA@H@Z 10017028 f   cemapi:regutil.obj
 0001:00016038       ?Open@CSimpleRegEnum@@QAAJPAUHKEY__@@PBG@Z 10017038 f   cemapi:regutil.obj
 0001:00016090       ?Next@CSimpleRegEnum@@QAAJPAGK@Z 10017090 f   cemapi:regutil.obj
 0001:00016104       ??1CSimpleRegEnum@@QAA@XZ  10017104 f   cemapi:regutil.obj
 0001:0001612c       ?HrRegGetString@@YAJPAUHKEY__@@PBGPAPAG@Z 1001712c f   cemapi:regutil.obj
 0001:000161fc       ?HrRegGetDWORD@@YAJPAUHKEY__@@PBGPAK@Z 100171fc f   cemapi:regutil.obj
 0001:00016264       ??_EIFilterRule@@UAAPAXI@Z 10017264 f i cemapi:RuleClientWrapper.obj
 0001:00016264       ??_GIFilterRule@@UAAPAXI@Z 10017264 f i cemapi:RuleClientWrapper.obj
 0001:00016288       ??_GIFilterRuleMatchImpl@@UAAPAXI@Z 10017288 f i cemapi:RuleClientWrapper.obj
 0001:00016288       ??_EIFilterRuleMatchImpl@@UAAPAXI@Z 10017288 f i cemapi:RuleClientWrapper.obj
 0001:000162ac       ?AddRef@CMailRuleClientWrapper@@UAAKXZ 100172ac f   cemapi:RuleClientWrapper.obj
 0001:000162b4       ?Init@CFilterRuleMatchContainsImpl@@UAAJPAVCFilterEntryData@@@Z 100172b4 f   cemapi:RuleClientWrapper.obj
 0001:000162f0       ?Init@CFilterRuleMatchEqualImpl@@UAAJPAVCFilterEntryData@@@Z 100172f0 f   cemapi:RuleClientWrapper.obj
 0001:00016318       ?Match@CFilterRuleMatchEqualImpl@@UAAJPAU_SPropValue@@PAH@Z 10017318 f   cemapi:RuleClientWrapper.obj
 0001:00016368       ?Init@CFilterRuleMatchXWithImpl@@UAAJPAVCFilterEntryData@@@Z 10017368 f   cemapi:RuleClientWrapper.obj
 0001:000163a4       ?Match@CFilterRuleMatchStartsWithImpl@@UAAJPAU_SPropValue@@PAH@Z 100173a4 f   cemapi:RuleClientWrapper.obj
 0001:000163e0       ?Match@CFilterRuleMatchEndsWithImpl@@UAAJPAU_SPropValue@@PAH@Z 100173e0 f   cemapi:RuleClientWrapper.obj
 0001:0001643c       ??1CFilterRule@@UAA@XZ     1001743c f   cemapi:RuleClientWrapper.obj
 0001:00016484       ?InitRequest@CFilterRule@@UAAJPAUIFilterRuleDataProvider@@@Z 10017484 f   cemapi:RuleClientWrapper.obj
 0001:000164e0       ?MapNameToPropTag@CFilterRule@@CAJPBGPAK@Z 100174e0 f   cemapi:RuleClientWrapper.obj
 0001:00016540       ?FreeRules@CFilterRuleConjunction@@AAAXXZ 10017540 f   cemapi:RuleClientWrapper.obj
 0001:00016590       ?SaveRule@CFilterRuleConjunction@@AAAJPAUIFilterRule@@@Z 10017590 f   cemapi:RuleClientWrapper.obj
 0001:000165d0       ?MapValueToConjunction@CFilterRuleConjunction@@CAJPBGPAW4Conjunction@1@@Z 100175d0 f   cemapi:RuleClientWrapper.obj
 0001:00016674       ?GetProp@CFilterRuleDataProvider@@UAAJKPAPAU_SPropValue@@@Z 10017674 f   cemapi:RuleClientWrapper.obj
 0001:00016688       ?IsSmsAccount@CFilterRuleDataProvider@@UAAHXZ 10017688 f   cemapi:RuleClientWrapper.obj
 0001:00016690       ?FindPropTag@CFilterRuleDataProvider@@AAAHKPAK@Z 10017690 f   cemapi:RuleClientWrapper.obj
 0001:000166e0       ?GrowPropTagArray@CFilterRuleDataProvider@@AAAJXZ 100176e0 f   cemapi:RuleClientWrapper.obj
 0001:00016750       ?Init@CMailRuleClientWrapper@@IAAJPBG@Z 10017750 f   cemapi:RuleClientWrapper.obj
 0001:000167c0       ?QueryInterface@CMailRuleClientWrapper@@UAAJABU_GUID@@PAPAX@Z 100177c0 f   cemapi:RuleClientWrapper.obj
 0001:0001684c       ?OpenBaseKey@CMailRuleClientWrapper@@IAAJPAPAUHKEY__@@@Z 1001784c f   cemapi:RuleClientWrapper.obj
 0001:000168d8       ?OpenFilterKey@CMailRuleClientWrapper@@IAAJPBGPAPAUHKEY__@@@Z 100178d8 f   cemapi:RuleClientWrapper.obj
 0001:00016940       ?LoadBasicSettings@CMailRuleClientWrapper@@IAAJXZ 10017940 f   cemapi:RuleClientWrapper.obj
 0001:00016a00       ?LaunchProcess@CMailRuleClientWrapper@@IAAJXZ 10017a00 f   cemapi:RuleClientWrapper.obj
 0001:00016a70       ?FindRuleClientMsgQueue@CMailRuleClientWrapper@@IAAJPAPAX@Z 10017a70 f   cemapi:RuleClientWrapper.obj
 0001:00016b30       ?GetRuleClientMsgQueue@CMailRuleClientWrapper@@IAAJPAPAX@Z 10017b30 f   cemapi:RuleClientWrapper.obj
 0001:00016bc0       ?NotifyRuleClientMsgQueue@CMailRuleClientWrapper@@IAAJPAXKPAUENTRYID@@@Z 10017bc0 f   cemapi:RuleClientWrapper.obj
 0001:00016c04       ?Fetch@CFilterEntryData@@QAAJPAUHKEY__@@@Z 10017c04 f   cemapi:RuleClientWrapper.obj
 0001:00016cc8       ??_ECFilterRuleMatchContainsImpl@@UAAPAXI@Z 10017cc8 f i cemapi:RuleClientWrapper.obj
 0001:00016cc8       ??_GCFilterRuleMatchContainsImpl@@UAAPAXI@Z 10017cc8 f i cemapi:RuleClientWrapper.obj
 0001:00016cec       ?AdjustStringForCaseSensitivity@CFilterRuleMatchContainsImpl@@IAAPBGPBG@Z 10017cec f   cemapi:RuleClientWrapper.obj
 0001:00016d60       ??_ECFilterRuleMatchEqualImpl@@UAAPAXI@Z 10017d60 f i cemapi:RuleClientWrapper.obj
 0001:00016d60       ??_GCFilterRuleMatchEqualImpl@@UAAPAXI@Z 10017d60 f i cemapi:RuleClientWrapper.obj
 0001:00016d84       ??_GCFilterRule@@UAAPAXI@Z 10017d84 f i cemapi:RuleClientWrapper.obj
 0001:00016d84       ??_ECFilterRule@@UAAPAXI@Z 10017d84 f i cemapi:RuleClientWrapper.obj
 0001:00016da8       ?CreateMatchImplementation@CFilterRule@@AAAJXZ 10017da8 f   cemapi:RuleClientWrapper.obj
 0001:00016ed4       ??_GCFilterRuleMatchStartsWithImpl@@UAAPAXI@Z 10017ed4 f i cemapi:RuleClientWrapper.obj
 0001:00016ed4       ??_ECFilterRuleMatchStartsWithImpl@@UAAPAXI@Z 10017ed4 f i cemapi:RuleClientWrapper.obj
 0001:00016ef8       ??_ECFilterRuleMatchEndsWithImpl@@UAAPAXI@Z 10017ef8 f i cemapi:RuleClientWrapper.obj
 0001:00016ef8       ??_GCFilterRuleMatchEndsWithImpl@@UAAPAXI@Z 10017ef8 f i cemapi:RuleClientWrapper.obj
 0001:00016f1c       ?Match@CFilterRule@@UAAJPAUIFilterRuleDataProvider@@PAH@Z 10017f1c f   cemapi:RuleClientWrapper.obj
 0001:00016fa0       ?EnumChildRules@CFilterRuleConjunction@@AAAJPAUHKEY__@@@Z 10017fa0 f   cemapi:RuleClientWrapper.obj
 0001:00017078       ?InitRequest@CFilterRuleConjunction@@UAAJPAUIFilterRuleDataProvider@@@Z 10018078 f   cemapi:RuleClientWrapper.obj
 0001:000170b8       ?Match@CFilterRuleConjunction@@AAAJPAUIFilterRuleDataProvider@@HHPAH@Z 100180b8 f   cemapi:RuleClientWrapper.obj
 0001:00017138       ??1CFilterRuleDataProvider@@QAA@XZ 10018138 f   cemapi:RuleClientWrapper.obj
 0001:00017174       ?QueryProps@CFilterRuleDataProvider@@QAAJPAUIMAPIProp@@@Z 10018174 f   cemapi:RuleClientWrapper.obj
 0001:00017204       ?AddPropTag@CFilterRuleDataProvider@@AAAJKPAK@Z 10018204 f   cemapi:RuleClientWrapper.obj
 0001:00017254       ?Match@CFilterRuleManager@@QAAJPAUIMAPIProp@@PAH@Z 10018254 f   cemapi:RuleClientWrapper.obj
 0001:000172e4       ?CheckMsgStoreTransport@@YAJPAUIMsgStore@@PBGPAH@Z 100182e4 f   cemapi:RuleClientWrapper.obj
 0001:00017378       ?CreateRuleClient@CMailRuleClientWrapper@@SAJPBGPAPAUIMailRuleClient@@@Z 10018378 f   cemapi:RuleClientWrapper.obj
 0001:00017434       ?Match@CFilterRuleMatchContainsImpl@@UAAJPAU_SPropValue@@PAH@Z 10018434 f   cemapi:RuleClientWrapper.obj
 0001:0001749c       ?Init@CFilterRule@@QAAJPAUHKEY__@@PBG@Z 1001849c f   cemapi:RuleClientWrapper.obj
 0001:000174d8       ??_ECFilterRuleConjunction@@UAAPAXI@Z 100184d8 f i cemapi:RuleClientWrapper.obj
 0001:000174d8       ??_GCFilterRuleConjunction@@UAAPAXI@Z 100184d8 f i cemapi:RuleClientWrapper.obj
 0001:00017514       ?CreateRuleItem@CFilterRuleConjunction@@CAJPAUHKEY__@@PBGPAPAUIFilterRule@@@Z 10018514 f   cemapi:RuleClientWrapper.obj
 0001:000175c0       ?CreateRuleConjunction@CFilterRuleConjunction@@CAJPAUHKEY__@@PBGPAPAUIFilterRule@@@Z 100185c0 f   cemapi:RuleClientWrapper.obj
 0001:0001765c       ?Match@CFilterRuleConjunction@@UAAJPAUIFilterRuleDataProvider@@PAH@Z 1001865c f   cemapi:RuleClientWrapper.obj
 0001:000176cc       ?RequestProp@CFilterRuleDataProvider@@UAAJKPAK@Z 100186cc f   cemapi:RuleClientWrapper.obj
 0001:00017708       ??_GCFilterRuleManager@@QAAPAXI@Z 10018708 f i cemapi:RuleClientWrapper.obj
 0001:00017750       ?LoadRuleHierarchy@CFilterRuleConjunction@@QAAJPAUHKEY__@@@Z 10018750 f   cemapi:RuleClientWrapper.obj
 0001:00017804       ??1CMailRuleClientWrapper@@QAA@XZ 10018804 f   cemapi:RuleClientWrapper.obj
 0001:00017848       ?LoadMessageFilters@CMailRuleClientWrapper@@IAAJPAUIMsgStore@@@Z 10018848 f   cemapi:RuleClientWrapper.obj
 0001:000179a0       ?CheckAccountFilters@CMailRuleClientWrapper@@IAAJPAUIMsgStore@@PAH@Z 100189a0 f   cemapi:RuleClientWrapper.obj
 0001:00017a98       ?CheckMessageFilters@CMailRuleClientWrapper@@IAAJPAUIMsgStore@@KPAUENTRYID@@PAH@Z 10018a98 f   cemapi:RuleClientWrapper.obj
 0001:00017b30       ?Initialize@CMailRuleClientWrapper@@UAAJPAUIMsgStore@@PAW4_MRCACCESS@@@Z 10018b30 f   cemapi:RuleClientWrapper.obj
 0001:00017bc8       ?ProcessMessage@CMailRuleClientWrapper@@UAAJPAUIMsgStore@@KPAUENTRYID@@K1PAKPAW4_MRCHANDLED@@@Z 10018bc8 f   cemapi:RuleClientWrapper.obj
 0001:00017ca4       ?Release@CMailRuleClientWrapper@@UAAKXZ 10018ca4 f   cemapi:RuleClientWrapper.obj
 0001:00017cdc       ?InitTable@MapiRecipientTable@@MAAJXZ 10018cdc f   cemapi:RecipientTable.obj
 0001:00017d70       ?IsSupportedSortProperty@MapiRecipientTable@@MAAHK@Z 10018d70 f   cemapi:RecipientTable.obj
 0001:00017d9c       ?QueryRows@MapiRecipientTable@@UAAJJKPAPAU_SRowSet@@@Z 10018d9c f   cemapi:RecipientTable.obj
 0001:00017dec       ?SeekRow@MapiRecipientTable@@UAAJKJPAJ@Z 10018dec f   cemapi:RecipientTable.obj
 0001:00017e08       ?GetItems@MapiRecipientTable@@MAAJKPAUUS_SORTSPEC@@PAU_USRestriction@@PAPAUIUSObjectCollection@@@Z 10018e08 f   cemapi:RecipientTable.obj
 0001:00017f48       ??0MapiRecipientTable@@IAA@PAVMapiStore@@PAUIUSStore@@PAUIUSItem@@@Z 10018f48 f   cemapi:RecipientTable.obj
 0001:00017fb4       ?QueryExtraProperties@MapiTable@@MAAJXZ 10018fb4 f i cemapi:RecipientTable.obj
 0001:00017fbc       ?SetColumns@MapiRecipientTable@@UAAJPAU_SPropTagArray@@K@Z 10018fbc f i cemapi:RecipientTable.obj
 0001:00017fc8       ?QueryPosition@MapiRecipientTable@@UAAJPAK00@Z 10018fc8 f i cemapi:RecipientTable.obj
 0001:00017fd4       ?GetLastError@CMAPITableStub@@UAAJJKPAPAU_MAPIERROR@@@Z 10018fd4 f i cemapi:RecipientTable.obj
 0001:00017fe0       ?Advise@CMAPITableStub@@UAAJKPAUIMAPIAdviseSink@@PAK@Z 10018fe0 f i cemapi:RecipientTable.obj
 0001:00017fec       ?Unadvise@CMAPITableStub@@UAAJK@Z 10018fec f i cemapi:RecipientTable.obj
 0001:00017ff8       ?GetStatus@CMAPITableStub@@UAAJPAK0@Z 10018ff8 f i cemapi:RecipientTable.obj
 0001:00018004       ?QueryColumns@CMAPITableStub@@UAAJKPAPAU_SPropTagArray@@@Z 10019004 f i cemapi:RecipientTable.obj
 0001:00018010       ?SeekRowApprox@CMAPITableStub@@UAAJKK@Z 10019010 f i cemapi:RecipientTable.obj
 0001:0001801c       ?FindRow@CMAPITableStub@@UAAJPAU_SRestriction@@KK@Z 1001901c f i cemapi:RecipientTable.obj
 0001:00018028       ?CreateBookmark@CMAPITableStub@@UAAJPAK@Z 10019028 f i cemapi:RecipientTable.obj
 0001:00018034       ?FreeBookmark@CMAPITableStub@@UAAJK@Z 10019034 f i cemapi:RecipientTable.obj
 0001:00018040       ?QuerySortOrder@CMAPITableStub@@UAAJPAPAU_SSortOrderSet@@@Z 10019040 f i cemapi:RecipientTable.obj
 0001:0001804c       ?Abort@CMAPITableStub@@UAAJXZ 1001904c f i cemapi:RecipientTable.obj
 0001:00018058       ?ExpandRow@CMAPITableStub@@UAAJKPAEKKPAPAU_SRowSet@@PAK@Z 10019058 f i cemapi:RecipientTable.obj
 0001:00018064       ?CollapseRow@CMAPITableStub@@UAAJKPAEKPAK@Z 10019064 f i cemapi:RecipientTable.obj
 0001:00018070       ?WaitForCompletion@CMAPITableStub@@UAAJKKPAK@Z 10019070 f i cemapi:RecipientTable.obj
 0001:0001807c       ?GetCollapseState@CMAPITableStub@@UAAJKKPAEPAKPAPAE@Z 1001907c f i cemapi:RecipientTable.obj
 0001:00018088       ?SetCollapseState@CMAPITableStub@@UAAJKKPAEPAK@Z 10019088 f i cemapi:RecipientTable.obj
 0001:00018094       ??1MapiRecipientTable@@MAA@XZ 10019094 f i cemapi:RecipientTable.obj
 0001:000180e8       ??_GMapiRecipientTable@@MAAPAXI@Z 100190e8 f i cemapi:RecipientTable.obj
 0001:000180e8       ??_EMapiRecipientTable@@MAAPAXI@Z 100190e8 f i cemapi:RecipientTable.obj
 0001:0001810c       ?CreateInstance@MapiRecipientTable@@SAJPAVMapiStore@@PAUIUSStore@@PAUIUSItem@@PAPAV1@@Z 1001910c f   cemapi:RecipientTable.obj
 0001:000181f0       ?GetHierarchyTable@SearchFolder@@UAAJKPAPAUIMAPITable@@@Z 100191f0 f   cemapi:SearchFolder.obj
 0001:000181fc       ?Init@SearchFolder@@MAAJXZ 100191fc f   cemapi:SearchFolder.obj
 0001:000182d4       ?GetContentsTable@SearchFolder@@UAAJKPAPAUIMAPITable@@@Z 100192d4 f   cemapi:SearchFolder.obj
 0001:00018354       ?GetSearchCriteria@SearchFolder@@UAAJKPAPAU_SRestriction@@PAPAU_SBinaryArray@@PAK@Z 10019354 f   cemapi:SearchFolder.obj
 0001:00018404       ?CreateMessage@SearchFolder@@UAAJPBU_GUID@@KPAPAUIMessage@@@Z 10019404 f i cemapi:SearchFolder.obj
 0001:00018410       ?CopyMessages@SearchFolder@@UAAJPAU_SBinaryArray@@PBU_GUID@@PAXKPAUIMAPIProgress@@K@Z 10019410 f i cemapi:SearchFolder.obj
 0001:0001841c       ?CreateFolder@SearchFolder@@UAAJKPAG0PBU_GUID@@KPAPAUIMAPIFolder@@@Z 1001941c f i cemapi:SearchFolder.obj
 0001:00018428       ?CopyFolder@SearchFolder@@UAAJKPAUENTRYID@@PBU_GUID@@PAXPAGKPAUIMAPIProgress@@K@Z 10019428 f i cemapi:SearchFolder.obj
 0001:00018434       ?DeleteFolder@SearchFolder@@UAAJKPAUENTRYID@@KPAUIMAPIProgress@@K@Z 10019434 f i cemapi:SearchFolder.obj
 0001:00018440       ?EmptyFolder@SearchFolder@@UAAJKPAUIMAPIProgress@@K@Z 10019440 f i cemapi:SearchFolder.obj
 0001:0001844c       ??1SearchFolder@@MAA@XZ    1001944c f   cemapi:SearchFolder.obj
 0001:000184b0       ?CreateInstance@SearchFolder@@SAJPAUIUSFolder@@PAVMapiStore@@PAPAV1@@Z 100194b0 f   cemapi:SearchFolder.obj
 0001:0001856c       ??_GSearchFolder@@MAAPAXI@Z 1001956c f i cemapi:SearchFolder.obj
 0001:0001856c       ??_ESearchFolder@@MAAPAXI@Z 1001956c f i cemapi:SearchFolder.obj
 0001:00018590       ?SetSearchCriteria@SearchFolder@@UAAJPAU_SRestriction@@PAU_SBinaryArray@@K@Z 10019590 f   cemapi:SearchFolder.obj
 0001:000186fc       ?CreateMessage@RootSearchFolder@@UAAJPBU_GUID@@KPAPAUIMessage@@@Z 100196fc f i cemapi:RootSearchFolder.obj
 0001:00018708       ?CopyMessages@RootSearchFolder@@UAAJPAU_SBinaryArray@@PBU_GUID@@PAXKPAUIMAPIProgress@@K@Z 10019708 f i cemapi:RootSearchFolder.obj
 0001:00018714       ?DeleteMessages@RootSearchFolder@@UAAJPAU_SBinaryArray@@KPAUIMAPIProgress@@K@Z 10019714 f i cemapi:RootSearchFolder.obj
 0001:00018720       ?CopyFolder@RootSearchFolder@@UAAJKPAUENTRYID@@PBU_GUID@@PAXPAGKPAUIMAPIProgress@@K@Z 10019720 f i cemapi:RootSearchFolder.obj
 0001:0001872c       ?EmptyFolder@RootSearchFolder@@UAAJKPAUIMAPIProgress@@K@Z 1001972c f i cemapi:RootSearchFolder.obj
 0001:00018738       ??_GRootSearchFolder@@MAAPAXI@Z 10019738 f i cemapi:RootSearchFolder.obj
 0001:00018738       ??_ERootSearchFolder@@MAAPAXI@Z 10019738 f i cemapi:RootSearchFolder.obj
 0001:00018768       ?GetContentsTable@RootSearchFolder@@UAAJKPAPAUIMAPITable@@@Z 10019768 f   cemapi:RootSearchFolder.obj
 0001:00018774       ?GetHierarchyTable@RootSearchFolder@@UAAJKPAPAUIMAPITable@@@Z 10019774 f   cemapi:RootSearchFolder.obj
 0001:00018780       ?CreateInstance@RootSearchFolder@@SAJPAUIUSFolder@@PAVMapiStore@@PAPAV1@@Z 10019780 f   cemapi:RootSearchFolder.obj
 0001:00018834       ?Init@RootSearchFolder@@MAAJXZ 10019834 f   cemapi:RootSearchFolder.obj
 0001:00018884       ?CreateFolder@RootSearchFolder@@UAAJKPAG0PBU_GUID@@KPAPAUIMAPIFolder@@@Z 10019884 f   cemapi:RootSearchFolder.obj
 0001:000188dc       ?DeleteFolder@RootSearchFolder@@UAAJKPAUENTRYID@@KPAUIMAPIProgress@@K@Z 100198dc f   cemapi:RootSearchFolder.obj
 0001:00018930       ?AddAttachment@MessageSize@@QAAHKK@Z 10019930 f   cemapi:MessageSize.obj
 0001:00018974       ?RemoveAttachment@MessageSize@@QAAXJ@Z 10019974 f   cemapi:MessageSize.obj
 0001:000189cc       ?FindAttachment@MessageSize@@QAAXKPAJ@Z 100199cc f   cemapi:MessageSize.obj
 0001:00018a10       ?GetTotal@MessageSize@@QAAKXZ 10019a10 f   cemapi:MessageSize.obj
 0001:00018a64       ?HasAttachments@MessageSize@@QAAHXZ 10019a64 f   cemapi:MessageSize.obj
 0001:00018a78       ?IsValid@MessageSize@@QAAHXZ 10019a78 f   cemapi:MessageSize.obj
 0001:00018a9c       ??_GMapiRestriction@@MAAPAXI@Z 10019a9c f i cemapi:Restriction.obj
 0001:00018a9c       ??_EMapiRestriction@@MAAPAXI@Z 10019a9c f i cemapi:Restriction.obj
 0001:00018ac0       ?AddRef@MapiRestriction@@UAAKXZ 10019ac0 f   cemapi:Restriction.obj
 0001:00018ac8       ?Release@MapiRestriction@@UAAKXZ 10019ac8 f   cemapi:Restriction.obj
 0001:00018b00       ?Cleanup@MapiAndOrRestriction@@IAAXXZ 10019b00 f   cemapi:Restriction.obj
 0001:00018b78       ??1MapiPropertyRestriction@@UAA@XZ 10019b78 f   cemapi:Restriction.obj
 0001:00018bc8       ?QueryInterface@MapiRestriction@@UAAJABU_GUID@@PAPAX@Z 10019bc8 f   cemapi:Restriction.obj
 0001:00018c2c       ??0MapiAndOrRestriction@@QAA@K@Z 10019c2c f   cemapi:Restriction.obj
 0001:00018c68       ?GetMapiRestriction@MapiAndOrRestriction@@UAAJPAU_SRestriction@@PAX@Z 10019c68 f   cemapi:Restriction.obj
 0001:00018d70       ?GetStoreRestriction@MapiAndOrRestriction@@UAAJPAU_USRestriction@@PAX@Z 10019d70 f   cemapi:Restriction.obj
 0001:00018e78       ?WriteToBuffer@MapiAndOrRestriction@@UAAJPAXPAK@Z 10019e78 f   cemapi:Restriction.obj
 0001:00018f90       ??_GMapiPropertyRestriction@@UAAPAXI@Z 10019f90 f i cemapi:Restriction.obj
 0001:00018f90       ??_EMapiPropertyRestriction@@UAAPAXI@Z 10019f90 f i cemapi:Restriction.obj
 0001:00018fb4       ?Init@MapiPropertyRestriction@@UAAJPAU_SRestriction@@@Z 10019fb4 f   cemapi:Restriction.obj
 0001:00019178       ?InitFromBuffer@MapiPropertyRestriction@@UAAJKPAPAX@Z 1001a178 f   cemapi:Restriction.obj
 0001:000192f8       ?WriteToBuffer@MapiPropertyRestriction@@UAAJPAXPAK@Z 1001a2f8 f   cemapi:Restriction.obj
 0001:00019474       ?GetMapiProperty@MapiPropertyRestriction@@IAAJPAU_SPropValue@@PAX@Z 1001a474 f   cemapi:Restriction.obj
 0001:0001960c       ?HandleSpecialProperty@MapiPropertyRestriction@@IAAJPAU_USPROPVAL@@PAX@Z 1001a60c f   cemapi:Restriction.obj
 0001:00019708       ??_GMapiBitMaskRestriction@@UAAPAXI@Z 1001a708 f i cemapi:Restriction.obj
 0001:00019708       ??_EMapiBitMaskRestriction@@UAAPAXI@Z 1001a708 f i cemapi:Restriction.obj
 0001:0001972c       ?Init@MapiBitMaskRestriction@@UAAJPAU_SRestriction@@@Z 1001a72c f   cemapi:Restriction.obj
 0001:00019798       ?InitFromBuffer@MapiBitMaskRestriction@@UAAJKPAPAX@Z 1001a798 f   cemapi:Restriction.obj
 0001:00019860       ?GetMapiRestriction@MapiBitMaskRestriction@@UAAJPAU_SRestriction@@PAX@Z 1001a860 f   cemapi:Restriction.obj
 0001:000198b4       ?GetStoreRestriction@MapiBitMaskRestriction@@UAAJPAU_USRestriction@@PAX@Z 1001a8b4 f   cemapi:Restriction.obj
 0001:00019908       ?WriteToBuffer@MapiBitMaskRestriction@@UAAJPAXPAK@Z 1001a908 f   cemapi:Restriction.obj
 0001:000199a4       ?CreateInstance@MapiRestriction@@SAJPAU_SRestriction@@PAUPROPHANDLERITEM@@PAPAV1@@Z 1001a9a4 f   cemapi:Restriction.obj
 0001:00019b08       ?CreateInstanceFromBuffer@MapiRestriction@@SAJKPAPAXPAUPROPHANDLERITEM@@PAPAV1@@Z 1001ab08 f   cemapi:Restriction.obj
 0001:00019ca0       ??_GMapiAndOrRestriction@@UAAPAXI@Z 1001aca0 f i cemapi:Restriction.obj
 0001:00019ca0       ??_EMapiAndOrRestriction@@UAAPAXI@Z 1001aca0 f i cemapi:Restriction.obj
 0001:00019cdc       ?Init@MapiAndOrRestriction@@UAAJPAU_SRestriction@@@Z 1001acdc f   cemapi:Restriction.obj
 0001:00019dd0       ?InitFromBuffer@MapiAndOrRestriction@@UAAJKPAPAX@Z 1001add0 f   cemapi:Restriction.obj
 0001:00019f5c       ?GetMapiRestriction@MapiPropertyRestriction@@UAAJPAU_SRestriction@@PAX@Z 1001af5c f   cemapi:Restriction.obj
 0001:00019fcc       ?GetStoreProperty@MapiPropertyRestriction@@IAAJPAU_USPROPVAL@@PAX@Z 1001afcc f   cemapi:Restriction.obj
 0001:0001a1ac       ?GetStoreRestriction@MapiPropertyRestriction@@UAAJPAU_USRestriction@@PAX@Z 1001b1ac f   cemapi:Restriction.obj
 0001:0001a22c       ?AddRef@MapiAttach@@UAAKXZ 1001b22c f   cemapi:Attach.obj
 0001:0001a234       ?GetProps@MapiAttach@@UAAJPAU_SPropTagArray@@KPAKPAPAU_SPropValue@@@Z 1001b234 f   cemapi:Attach.obj
 0001:0001a25c       ?SetProps@MapiAttach@@UAAJKPAU_SPropValue@@PAPAU_SPropProblemArray@@@Z 1001b25c f   cemapi:Attach.obj
 0001:0001a274       ?QueryInterface@MapiAttach@@UAAJABU_GUID@@PAPAX@Z 1001b274 f   cemapi:Attach.obj
 0001:0001a328       ?Init@MapiAttach@@IAAJXZ   1001b328 f   cemapi:Attach.obj
 0001:0001a378       ?StartTransaction@MapiAttach@@QAAJXZ 1001b378 f   cemapi:Attach.obj
 0001:0001a380       ?EndTransaction@MapiAttach@@QAAJH@Z 1001b380 f   cemapi:Attach.obj
 0001:0001a388       ?DeleteProps@MapiAttach@@UAAJPAU_SPropTagArray@@PAPAU_SPropProblemArray@@@Z 1001b388 f   cemapi:Attach.obj
 0001:0001a474       ?OpenProperty@MapiAttach@@UAAJKPBU_GUID@@KKPAPAUIUnknown@@@Z 1001b474 f   cemapi:Attach.obj
 0001:0001a564       ??0MapiAttach@@IAA@PAVMapiMessage@@PAUIUSEmbeddedObject@@K@Z 1001b564 f   cemapi:Attach.obj
 0001:0001a5d4       ?GetLastError@MapiAttach@@UAAJJKPAPAU_MAPIERROR@@@Z 1001b5d4 f i cemapi:Attach.obj
 0001:0001a5e0       ?SaveChanges@MapiAttach@@UAAJK@Z 1001b5e0 f i cemapi:Attach.obj
 0001:0001a5ec       ?GetPropList@MapiAttach@@UAAJKPAPAU_SPropTagArray@@@Z 1001b5ec f i cemapi:Attach.obj
 0001:0001a5f8       ?CopyTo@MapiAttach@@UAAJKPBU_GUID@@PAU_SPropTagArray@@KPAUIMAPIProgress@@0PAXKPAPAU_SPropProblemArray@@@Z 1001b5f8 f i cemapi:Attach.obj
 0001:0001a604       ?CopyProps@MapiAttach@@UAAJPAU_SPropTagArray@@KPAUIMAPIProgress@@PBU_GUID@@PAXKPAPAU_SPropProblemArray@@@Z 1001b604 f i cemapi:Attach.obj
 0001:0001a610       ?GetNamesFromIDs@MapiAttach@@UAAJPAPAU_SPropTagArray@@PAU_GUID@@KPAKPAPAPAU_MAPINAMEID@@@Z 1001b610 f i cemapi:Attach.obj
 0001:0001a61c       ?GetIDsFromNames@MapiAttach@@UAAJKPAPAU_MAPINAMEID@@KPAPAU_SPropTagArray@@@Z 1001b61c f i cemapi:Attach.obj
 0001:0001a628       ??1MapiAttach@@IAA@XZ      1001b628 f   cemapi:Attach.obj
 0001:0001a6a0       ?CreateInstance@MapiAttach@@SAJPAVMapiMessage@@PAUIUSEmbeddedObject@@KPAPAV1@@Z 1001b6a0 f   cemapi:Attach.obj
 0001:0001a754       ?Release@MapiAttach@@UAAKXZ 1001b754 f   cemapi:Attach.obj
 0001:0001a78c       ??0MapiAttachTable@@IAA@PAUIUSObjectCollection@@@Z 1001b78c f   cemapi:AttachTable.obj
 0001:0001a7c0       ?IsSupportedSortProperty@MapiTable@@MAAHK@Z 1001b7c0 f i cemapi:AttachTable.obj
 0001:0001a7c8       ?QueryPosition@MapiAttachTable@@UAAJPAK00@Z 1001b7c8 f i cemapi:AttachTable.obj
 0001:0001a7d4       ?Restrict@MapiAttachTable@@UAAJPAU_SRestriction@@K@Z 1001b7d4 f i cemapi:AttachTable.obj
 0001:0001a7e0       ?SortTable@MapiAttachTable@@UAAJPAU_SSortOrderSet@@K@Z 1001b7e0 f i cemapi:AttachTable.obj
 0001:0001a7ec       ?InitTable@MapiAttachTable@@MAAJXZ 1001b7ec f   cemapi:AttachTable.obj
 0001:0001a854       ??_GMapiAttachTable@@UAAPAXI@Z 1001b854 f i cemapi:AttachTable.obj
 0001:0001a854       ??_EMapiAttachTable@@UAAPAXI@Z 1001b854 f i cemapi:AttachTable.obj
 0001:0001a878       ?CreateInstance@MapiAttachTable@@SAJPAUIUSObjectCollection@@PAPAV1@@Z 1001b878 f   cemapi:AttachTable.obj
 0001:0001a91c       ?QueryRows@MapiAttachTable@@UAAJJKPAPAU_SRowSet@@@Z 1001b91c f   cemapi:AttachTable.obj
 0001:0001a96c       ?SeekRow@MapiAttachTable@@UAAJKJPAJ@Z 1001b96c f   cemapi:AttachTable.obj
 0001:0001a988       ?InitTable@MapiStoreTable@@MAAJXZ 1001b988 f   cemapi:StoreTable.obj
 0001:0001a9d8       ?QueryRows@MapiStoreTable@@UAAJJKPAPAU_SRowSet@@@Z 1001b9d8 f   cemapi:StoreTable.obj
 0001:0001aa28       ??0MapiStoreTable@@IAA@PAVMapiCtx@@PAVMapiStore@@PAUIUSObjectCollection@@@Z 1001ba28 f   cemapi:StoreTable.obj
 0001:0001aa80       ?SeekRow@MapiStoreTable@@UAAJKJPAJ@Z 1001ba80 f i cemapi:StoreTable.obj
 0001:0001aa8c       ?QueryPosition@MapiStoreTable@@UAAJPAK00@Z 1001ba8c f i cemapi:StoreTable.obj
 0001:0001aa98       ?SortTable@MapiStoreTable@@UAAJPAU_SSortOrderSet@@K@Z 1001ba98 f i cemapi:StoreTable.obj
 0001:0001aaa4       ?Restrict@MapiStoreTable@@UAAJPAU_SRestriction@@K@Z 1001baa4 f i cemapi:StoreTable.obj
 0001:0001aab0       ??_GMapiStoreTable@@UAAPAXI@Z 1001bab0 f i cemapi:StoreTable.obj
 0001:0001aab0       ??_EMapiStoreTable@@UAAPAXI@Z 1001bab0 f i cemapi:StoreTable.obj
 0001:0001aaf4       ?CreateInstance@MapiStoreTable@@SAJPAVMapiCtx@@PAUIUSObjectCollection@@PAPAV1@@Z 1001baf4 f   cemapi:StoreTable.obj
 0001:0001ac9c       ?UpdateCurrentStore@MapiStoreTable@@MAAJPAUIUSObjectCollection@@@Z 1001bc9c f   cemapi:StoreTable.obj
 0001:0001adb8       ?InitTable@MapiMessageTable@@MAAJXZ 1001bdb8 f   cemapi:MessageTable.obj
 0001:0001ae74       ?QueryExtraProperties@MapiMessageTable@@MAAJXZ 1001be74 f   cemapi:MessageTable.obj
 0001:0001aed4       ?IsSupportedSortProperty@MapiMessageTable@@MAAHK@Z 1001bed4 f   cemapi:MessageTable.obj
 0001:0001af30       ?QueryRows@MapiMessageTable@@UAAJJKPAPAU_SRowSet@@@Z 1001bf30 f   cemapi:MessageTable.obj
 0001:0001af80       ?GetItems@MapiMessageTable@@MAAJKPAUUS_SORTSPEC@@PAU_USRestriction@@PAPAUIUSObjectCollection@@@Z 1001bf80 f   cemapi:MessageTable.obj
 0001:0001afbc       ??0MapiMessageTable@@IAA@PAVMapiStore@@@Z 1001bfbc f   cemapi:MessageTable.obj
 0001:0001aff4       ??_GMapiMessageTable@@MAAPAXI@Z 1001bff4 f i cemapi:MessageTable.obj
 0001:0001aff4       ??_EMapiMessageTable@@MAAPAXI@Z 1001bff4 f i cemapi:MessageTable.obj
 0001:0001b040       ?InitFolder@MapiMessageTable@@IAAJPAUIUSFolder@@@Z 1001c040 f   cemapi:MessageTable.obj
 0001:0001b058       ?CreateInstance@MapiMessageTable@@SAJPAVMapiStore@@PAUIUSFolder@@PAPAV1@@Z 1001c058 f   cemapi:MessageTable.obj
 0001:0001b118       ??0MapiFolderTable@@IAA@PAVMapiStore@@PAUIUSObjectCollection@@H@Z 1001c118 f   cemapi:FolderTable.obj
 0001:0001b154       ?SeekRow@MapiFolderTable@@UAAJKJPAJ@Z 1001c154 f i cemapi:FolderTable.obj
 0001:0001b160       ?QueryPosition@MapiFolderTable@@UAAJPAK00@Z 1001c160 f i cemapi:FolderTable.obj
 0001:0001b16c       ?SortTable@MapiFolderTable@@UAAJPAU_SSortOrderSet@@K@Z 1001c16c f i cemapi:FolderTable.obj
 0001:0001b178       ?Restrict@MapiFolderTable@@UAAJPAU_SRestriction@@K@Z 1001c178 f i cemapi:FolderTable.obj
 0001:0001b184       ?InitTable@MapiFolderTable@@MAAJXZ 1001c184 f   cemapi:FolderTable.obj
 0001:0001b1f8       ?QueryExtraProperties@MapiFolderTable@@MAAJXZ 1001c1f8 f   cemapi:FolderTable.obj
 0001:0001b228       ??_EMapiFolderTable@@UAAPAXI@Z 1001c228 f i cemapi:FolderTable.obj
 0001:0001b228       ??_GMapiFolderTable@@UAAPAXI@Z 1001c228 f i cemapi:FolderTable.obj
 0001:0001b24c       ?CreateInstance@MapiFolderTable@@SAJPAVMapiStore@@PAUIUSObjectCollection@@HPAPAV1@@Z 1001c24c f   cemapi:FolderTable.obj
 0001:0001b304       ?QueryRows@MapiFolderTable@@UAAJJKPAPAU_SRowSet@@@Z 1001c304 f   cemapi:FolderTable.obj
 0001:0001b354       ?AddRef@MapiTable@@UAAKXZ  1001c354 f   cemapi:MapiTable.obj
 0001:0001b35c       ?Release@MapiTable@@UAAKXZ 1001c35c f   cemapi:MapiTable.obj
 0001:0001b394       ?BuildQuery@MapiTable@@IAAJXZ 1001c394 f   cemapi:MapiTable.obj
 0001:0001b434       ?UpdateCurrentStore@MapiTable@@MAAJPAUIUSObjectCollection@@@Z 1001c434 f   cemapi:MapiTable.obj
 0001:0001b43c       ?GetItems@MapiTable@@MAAJKPAUUS_SORTSPEC@@PAU_USRestriction@@PAPAUIUSObjectCollection@@@Z 1001c43c f   cemapi:MapiTable.obj
 0001:0001b448       ??1MapiTable@@MAA@XZ       1001c448 f   cemapi:MapiTable.obj
 0001:0001b4c0       ?InitTable@MapiTable@@MAAJXZ 1001c4c0 f i cemapi:MapiTable.obj
 0001:0001b4c8       ?QueryInterface@MapiTable@@UAAJABU_GUID@@PAPAX@Z 1001c4c8 f   cemapi:MapiTable.obj
 0001:0001b560       ?GetRowCount@MapiTable@@UAAJKPAK@Z 1001c560 f   cemapi:MapiTable.obj
 0001:0001b5bc       ?QueryPosition@MapiTable@@UAAJPAK00@Z 1001c5bc f   cemapi:MapiTable.obj
 0001:0001b5fc       ?SeekRow@MapiTable@@UAAJKJPAJ@Z 1001c5fc f   cemapi:MapiTable.obj
 0001:0001b6ac       ?SortTable@MapiTable@@UAAJPAU_SSortOrderSet@@K@Z 1001c6ac f   cemapi:MapiTable.obj
 0001:0001b7c0       ?SetTagArray@MapiTable@@IAAJPAU_SPropTagArray@@@Z 1001c7c0 f   cemapi:MapiTable.obj
 0001:0001b82c       ?TranslateToSRow@MapiTable@@IAAJPAUIUSObjectCollection@@PAU_SRow@@@Z 1001c82c f   cemapi:MapiTable.obj
 0001:0001b94c       ??_GMapiTable@@MAAPAXI@Z   1001c94c f i cemapi:MapiTable.obj
 0001:0001b94c       ??_EMapiTable@@MAAPAXI@Z   1001c94c f i cemapi:MapiTable.obj
 0001:0001b970       ?SetColumns@MapiTable@@UAAJPAU_SPropTagArray@@K@Z 1001c970 f   cemapi:MapiTable.obj
 0001:0001b9ac       ?QueryRows@MapiTable@@UAAJJKPAPAU_SRowSet@@@Z 1001c9ac f   cemapi:MapiTable.obj
 0001:0001baf4       ??0MapiTable@@IAA@PAVMapiStore@@PAUIUSObjectCollection@@@Z 1001caf4 f   cemapi:MapiTable.obj
 0001:0001bb80       ?InternalRestrict@MapiTable@@IAAJPAU_SRestriction@@K@Z 1001cb80 f   cemapi:MapiTable.obj
 0001:0001bbe4       ?RefreshTable@MapiTable@@MAAJXZ 1001cbe4 f   cemapi:MapiTable.obj
 0001:0001bd2c       ?Restrict@MapiTable@@UAAJPAU_SRestriction@@K@Z 1001cd2c f   cemapi:MapiTable.obj
 0001:0001bd30       ?Restrict@MapiSearchTable@@UAAJPAU_SRestriction@@K@Z 1001cd30 f   cemapi:SearchTable.obj
 0001:0001bd50       ?QueryRows@MapiSearchTable@@UAAJJKPAPAU_SRowSet@@@Z 1001cd50 f   cemapi:SearchTable.obj
 0001:0001bda0       ?GetItems@MapiSearchTable@@MAAJKPAUUS_SORTSPEC@@PAU_USRestriction@@PAPAUIUSObjectCollection@@@Z 1001cda0 f   cemapi:SearchTable.obj
 0001:0001bde4       ?CreateInstance@MapiSearchTable@@SAJPAVMapiStore@@PAU_SRestriction@@PAPAV1@@Z 1001cde4 f   cemapi:SearchTable.obj
 0001:0001bf0c       ??_GMapiSearchTable@@UAAPAXI@Z 1001cf0c f i cemapi:SearchTable.obj
 0001:0001bf0c       ??_EMapiSearchTable@@UAAPAXI@Z 1001cf0c f i cemapi:SearchTable.obj
 0001:0001bf60       ?Commit@AttachStream@@UAAJK@Z 1001cf60 f   cemapi:AttachStream.obj
 0001:0001c094       ??0AttachStream@@IAA@PAVMapiMessage@@PAUIStream@@KPAVMapiAttach@@@Z 1001d094 f   cemapi:AttachStream.obj
 0001:0001c0dc       ??1AttachStream@@MAA@XZ    1001d0dc f   cemapi:AttachStream.obj
 0001:0001c128       ?CreateInstance@AttachStream@@SAJPAVMapiMessage@@PAUIStream@@KPAVMapiAttach@@PAPAV1@@Z 1001d128 f   cemapi:AttachStream.obj
 0001:0001c1ec       ??_EAttachStream@@MAAPAXI@Z 1001d1ec f i cemapi:AttachStream.obj
 0001:0001c1ec       ??_GAttachStream@@MAAPAXI@Z 1001d1ec f i cemapi:AttachStream.obj
 0001:0001c210       ?WideCharToMultiByteHelper@@YAJIPBGPAPAD@Z 1001d210 f   msglib_mimeaddr:ParseAddress.obj
 0001:0001c2cc       ?MultiByteToWideCharHelper@@YAJIPBDPAPAG@Z 1001d2cc f   msglib_mimeaddr:ParseAddress.obj
 0001:0001c37c       ?ParseFirstAddressWithCount@@YAJPBGPAPAG1PAI@Z 1001d37c f   msglib_mimeaddr:ParseAddress.obj
 0001:0001c528       ?ParseAddress@@YAJPBGPAPAG1@Z 1001d528 f   msglib_mimeaddr:ParseAddress.obj
 0001:0001c5c8       FindSenderEmailAlias       1001d5c8 f   msglib_mimeaddr:ParseAddress.obj
 0001:0001c728       ?FreeAddressProps@@YAJPAUtagADDRESSPROPS@@@Z 1001d728 f   msglib_mimeaddr:MimeParseAddress.obj
 0001:0001c770       MimeFreeAddressList        1001d770 f   msglib_mimeaddr:MimeParseAddress.obj
 0001:0001c7ec       MimeParseAddress           1001d7ec f   msglib_mimeaddr:MimeParseAddress.obj
 0001:0001cc38       ?ReplaceChar@@YAXPAGGG@Z   1001dc38 f   msglib_mimeaddr:dupstring.obj
 0001:0001cc74       ?_DupAllocHelper@@YAJPAPAGIPBG@Z 1001dc74 f   msglib_mimeaddr:dupstring.obj
 0001:0001ccd0       ?DupString@@YAJPAPAGPBG@Z  1001dcd0 f   msglib_mimeaddr:dupstring.obj
 0001:0001cd10       ??0XPtrList@@QAA@H@Z       1001dd10 f   msglib_xlist:xlist.obj
 0001:0001cd30       ?RemoveAll@XPtrList@@QAAXXZ 1001dd30 f   msglib_xlist:xlist.obj
 0001:0001cd68       ?NewNode@XPtrList@@AAAPAVXNode@1@PAV21@0@Z 1001dd68 f   msglib_xlist:xlist.obj
 0001:0001cdf0       ?AddTail@XPtrList@@QAAPAXPAX@Z 1001ddf0 f   msglib_xlist:xlist.obj
 0001:0001ce34       ?RemoveAt@XPtrList@@QAAXPAX@Z 1001de34 f   msglib_xlist:xlist.obj
 0001:0001cec4       ??1XPtrList@@QAA@XZ        1001dec4 f   msglib_xlist:xlist.obj
 0001:0001cec8       ?FreeDataChain@CPlex@@QAAXXZ 1001dec8 f   msglib_xlist:plex.obj
 0001:0001ceec       ?Create@CPlex@@SAPAU1@AAPAU1@II@Z 1001deec f   msglib_xlist:plex.obj
 0001:0001cf44       MIDL_user_allocate         1001df44 f   Mailapiproxy:MailApiProxy.obj
 0001:0001cf48       MIDL_user_free             1001df48 f   Mailapiproxy:MailApiProxy.obj
 0001:0001cf4c       ?EnsureServer@@YAJXZ       1001df4c f   Mailapiproxy:MailApiProxy.obj
 0001:0001cfc0       ?MailApiProxyInit@@YAJPBGPAPAX@Z 1001dfc0 f   Mailapiproxy:MailApiProxy.obj
 0001:0001d05c       ?ConvertComposeDataToRemote@@YAJPAU_MAILCOMPOSEFIELDS@@PAU__MIDL___MIDL_itf_MailApiRemote_0000_0000_0001@@@Z 1001e05c f   Mailapiproxy:MailApiProxy.obj
 0001:0001d1c4       ?ValidateComposeData@@YAJPAU_MAILCOMPOSEFIELDS@@@Z 1001e1c4 f   Mailapiproxy:MailApiProxy.obj
 0001:0001d314       MailComposeMessage         1001e314 f   Mailapiproxy:MailApiProxy.obj
 0001:0001d3f8       MailDisplayMessage         1001e3f8 f   Mailapiproxy:MailApiProxy.obj
 0001:0001d4a8       MailSwitchToFolder         1001e4a8 f   Mailapiproxy:MailApiProxy.obj
 0001:0001d568       MailSwitchToAccount        1001e568 f   Mailapiproxy:MailApiProxy.obj
 0001:0001d624       MailSyncMessages           1001e624 f   Mailapiproxy:MailApiProxy.obj
 0001:0001d6e4       MailLaunchNewAccountWizard 1001e6e4 f   Mailapiproxy:MailApiProxy.obj
 0001:0001d754       MailComposeMessageRemote   1001e754 f   Mailapiproxy:MailApiRemote_c.obj
 0001:0001d7ac       MailDisplayMessageRemote   1001e7ac f   Mailapiproxy:MailApiRemote_c.obj
 0001:0001d808       MailSwitchToFolderRemote   1001e808 f   Mailapiproxy:MailApiRemote_c.obj
 0001:0001d864       MailSwitchToAccountRemote  1001e864 f   Mailapiproxy:MailApiRemote_c.obj
 0001:0001d8c0       MailSyncMessagesRemote     1001e8c0 f   Mailapiproxy:MailApiRemote_c.obj
 0001:0001d91c       MailLaunchNewAccountWizardRemote 1001e91c f   Mailapiproxy:MailApiRemote_c.obj
 0001:0001d970       GetProcAddressW            1001e970 f   coredll:COREDLL.dll
 0001:0001d980       LoadLibraryW               1001e980 f   coredll:COREDLL.dll
 0001:0001d990       DeleteCriticalSection      1001e990 f   coredll:COREDLL.dll
 0001:0001d9a0       LeaveCriticalSection       1001e9a0 f   coredll:COREDLL.dll
 0001:0001d9b0       EnterCriticalSection       1001e9b0 f   coredll:COREDLL.dll
 0001:0001d9c0       InitializeCriticalSection  1001e9c0 f   coredll:COREDLL.dll
 0001:0001d9d0       RaiseException             1001e9d0 f   coredll:COREDLL.dll
 0001:0001d9e0       GetLastError               1001e9e0 f   coredll:COREDLL.dll
 0001:0001d9f0       InterlockedIncrement       1001e9f0 f   coredll:COREDLL.dll
 0001:0001da00       InterlockedDecrement       1001ea00 f   coredll:COREDLL.dll
 0001:0001da10       RegDeleteKeyW              1001ea10 f   coredll:COREDLL.dll
 0001:0001da20       RegDeleteValueW            1001ea20 f   coredll:COREDLL.dll
 0001:0001da30       RegCloseKey                1001ea30 f   coredll:COREDLL.dll
 0001:0001da40       RegCreateKeyExW            1001ea40 f   coredll:COREDLL.dll
 0001:0001da50       RegOpenKeyExW              1001ea50 f   coredll:COREDLL.dll
 0001:0001da60       RegSetValueExW             1001ea60 f   coredll:COREDLL.dll
 0001:0001da70       lstrcmpiW                  1001ea70 f   coredll:COREDLL.dll
 0001:0001da80       CharNextW                  1001ea80 f   coredll:COREDLL.dll
 0001:0001da90       RegQueryInfoKeyW           1001ea90 f   coredll:COREDLL.dll
 0001:0001daa0       RegEnumKeyExW              1001eaa0 f   coredll:COREDLL.dll
 0001:0001dab0       FreeLibrary                1001eab0 f   coredll:COREDLL.dll
 0001:0001dac0       MultiByteToWideChar        1001eac0 f   coredll:COREDLL.dll
 0001:0001dad0       SizeofResource             1001ead0 f   coredll:COREDLL.dll
 0001:0001dae0       LoadResource               1001eae0 f   coredll:COREDLL.dll
 0001:0001daf0       FindResourceW              1001eaf0 f   coredll:COREDLL.dll
 0001:0001db00       LoadLibraryExW             1001eb00 f   coredll:COREDLL.dll
 0001:0001db10       GetModuleHandleW           1001eb10 f   coredll:COREDLL.dll
 0001:0001db20       GetModuleFileNameW         1001eb20 f   coredll:COREDLL.dll
 0001:0001db30       FileTimeToSystemTime       1001eb30 f   coredll:COREDLL.dll
 0001:0001db40       StringCchCopyW             1001eb40 f   coredll:COREDLL.dll
 0001:0001db50       LocalFree                  1001eb50 f   coredll:COREDLL.dll
 0001:0001db60       StringCchPrintfW           1001eb60 f   coredll:COREDLL.dll
 0001:0001db70       LocalAlloc                 1001eb70 f   coredll:COREDLL.dll
 0001:0001db80       StringCchLengthW           1001eb80 f   coredll:COREDLL.dll
 0001:0001db90       RegQueryValueExW           1001eb90 f   coredll:COREDLL.dll
 0001:0001dba0       CloseHandle                1001eba0 f   coredll:COREDLL.dll
 0001:0001dbb0       ReleaseMutex               1001ebb0 f   coredll:COREDLL.dll
 0001:0001dbc0       WaitForSingleObject        1001ebc0 f   coredll:COREDLL.dll
 0001:0001dbd0       CreateMutexW               1001ebd0 f   coredll:COREDLL.dll
 0001:0001dbe0       ReadFile                   1001ebe0 f   coredll:COREDLL.dll
 0001:0001dbf0       CreateFileW                1001ebf0 f   coredll:COREDLL.dll
 0001:0001dc00       SystemTimeToFileTime       1001ec00 f   coredll:COREDLL.dll
 0001:0001dc10       GetSystemTime              1001ec10 f   coredll:COREDLL.dll
 0001:0001dc20       EventModify                1001ec20 f   coredll:COREDLL.dll
 0001:0001dc30       SHGetSpecialFolderPath     1001ec30 f   coredll:COREDLL.dll
 0001:0001dc40       LoadStringW                1001ec40 f   coredll:COREDLL.dll
 0001:0001dc50       WaitForMultipleObjects     1001ec50 f   coredll:COREDLL.dll
 0001:0001dc60       CreateThread               1001ec60 f   coredll:COREDLL.dll
 0001:0001dc70       CreateEventW               1001ec70 f   coredll:COREDLL.dll
 0001:0001dc80       InterlockedExchange        1001ec80 f   coredll:COREDLL.dll
 0001:0001dc90       PostMessageW               1001ec90 f   coredll:COREDLL.dll
 0001:0001dca0       CryptProtectData           1001eca0 f   coredll:COREDLL.dll
 0001:0001dcb0       CryptUnprotectData         1001ecb0 f   coredll:COREDLL.dll
 0001:0001dcc0       StringCchCopyNW            1001ecc0 f   coredll:COREDLL.dll
 0001:0001dcd0       StringCchCatW              1001ecd0 f   coredll:COREDLL.dll
 0001:0001dce0       CePerfDLLCleanup           1001ece0 f   coredll:COREDLL.dll
 0001:0001dcf0       CePerfDLLSetup             1001ecf0 f   coredll:COREDLL.dll
 0001:0001dd00       GetSystemTimeAsFileTime    1001ed00 f   coredll:COREDLL.dll
 0001:0001dd10       RegEnumValueW              1001ed10 f   coredll:COREDLL.dll
 0001:0001dd20       StringCchCopyExW           1001ed20 f   coredll:COREDLL.dll
 0001:0001dd30       CreateProcessW             1001ed30 f   coredll:COREDLL.dll
 0001:0001dd40       CloseMsgQueue              1001ed40 f   coredll:COREDLL.dll
 0001:0001dd50       GetMsgQueueInfo            1001ed50 f   coredll:COREDLL.dll
 0001:0001dd60       CreateMsgQueue             1001ed60 f   coredll:COREDLL.dll
 0001:0001dd70       Sleep                      1001ed70 f   coredll:COREDLL.dll
 0001:0001dd80       WriteMsgQueue              1001ed80 f   coredll:COREDLL.dll
 0001:0001dd90       StringCchCopyA             1001ed90 f   coredll:COREDLL.dll
 0001:0001dda0       CoTaskMemAlloc             1001eda0 f   ole32:ole32.dll
 0001:0001ddb0       CoTaskMemRealloc           1001edb0 f   ole32:ole32.dll
 0001:0001ddc0       CoCreateInstance           1001edc0 f   ole32:ole32.dll
 0001:0001ddd0       CoTaskMemFree              1001edd0 f   ole32:ole32.dll
 0001:0001dde0       CoUninitialize             1001ede0 f   ole32:ole32.dll
 0001:0001ddf0       CoInitializeEx             1001edf0 f   ole32:ole32.dll
 0001:0001de00       CoFreeUnusedLibraries      1001ee00 f   ole32:ole32.dll
 0001:0001de10       CLSIDFromString            1001ee10 f   ole32:ole32.dll
 0001:0001de20       VarUI4FromStr              1001ee20 f   oleaut32:OLEAUT32.dll
 0001:0001de30       UMul                       1001ee30 f   ossvcs:ossvcs.dll
 0001:0001de40       WatsonReportFault          1001ee40 f   ossvcs:ossvcs.dll
 0001:0001de50       SafeWideCharToMultiByte    1001ee50 f   ossvcs:ossvcs.dll
 0001:0001de60       SafeMultiByteToWideChar    1001ee60 f   ossvcs:ossvcs.dll
 0001:0001de70       PathCombineW               1001ee70 f   shlwapi:shlwapi.dll
 0001:0001de80       CheckPhoneFeatureLevel     1001ee80 f   CEaygshell:CEAYGSHELL.dll
 0001:0001de90       RpcBindingFree             1001ee90 f   rpcrt4:RPCRT4.dll
 0001:0001dea0       RpcStringFreeW             1001eea0 f   rpcrt4:RPCRT4.dll
 0001:0001deb0       RpcBindingFromStringBindingW 1001eeb0 f   rpcrt4:RPCRT4.dll
 0001:0001dec0       RpcStringBindingComposeW   1001eec0 f   rpcrt4:RPCRT4.dll
 0001:0001ded0       NdrClientCall2             1001eed0 f   rpcrt4:RPCRT4.dll
 0001:0001dee0       AtlRawDllMain              1001eee0 f   atls:atlbase.obj
 0001:0001df68       ??1CAtlBaseModule@ATL@@QAA@XZ 1001ef68 f   atls:atlbase.obj
 0001:0001dfa0       ??0CAtlBaseModule@ATL@@QAA@XZ 1001efa0 f   atls:atlbase.obj
 0001:0001e12c       _DllMainCRTStartup         1001f12c f   corelib0:pegdmain.obj
 0001:0001e158       __GSHandlerCheckCommon     1001f158 f   corelib0:gshandler.obj
 0001:0001e194       __GSHandlerCheck           1001f194 f   corelib0:gshandler.obj
 0001:0001e1b4       __security_init_cookie     1001f1b4 f   corelib0:seccinit.obj
 0001:0001e200       __security_check_cookie    1001f200 f   corelib0:armsecgs.obj
 0001:0001e210       __gsfailure                1001f210     corelib0:armsecgs.obj
 0001:0001e25c       _onexit                    1001f25c f   corelib0:onexit.obj
 0001:0001e3e0       atexit                     1001f3e0 f   corelib0:onexit.obj
 0001:0001e4e0       _cexit                     1001f4e0 f   corelib0:cexit.obj
 0001:0001e4f0       _initterm                  1001f4f0 f   corelib0:crt0dat.obj
 0001:0001e51c       _cinit                     1001f51c f   corelib0:crt0dat.obj
 0001:0001e57c       __crt_ExitProcess          1001f57c f   corelib0:exitproc_proxy.obj
 0001:0001e588       memset                     1001f588 f   corelib1:COREDLL.dll
 0001:0001e598       __C_specific_handler       1001f598 f   corelib1:COREDLL.dll
 0001:0001e5a8       ??3@YAXPAX@Z               1001f5a8 f   corelib1:COREDLL.dll
 0001:0001e5b8       wcsstr                     1001f5b8 f   corelib1:COREDLL.dll
 0001:0001e5c8       wcslen                     1001f5c8 f   corelib1:COREDLL.dll
 0001:0001e5d8       malloc                     1001f5d8 f   corelib1:COREDLL.dll
 0001:0001e5e8       free                       1001f5e8 f   corelib1:COREDLL.dll
 0001:0001e5f8       memcpy_s                   1001f5f8 f   corelib1:COREDLL.dll
 0001:0001e608       wcsncpy_s                  1001f608 f   corelib1:COREDLL.dll
 0001:0001e618       _recalloc                  1001f618 f   corelib1:COREDLL.dll
 0001:0001e628       ??2@YAPAXI@Z               1001f628 f   corelib1:COREDLL.dll
 0001:0001e638       memcpy                     1001f638 f   corelib1:COREDLL.dll
 0001:0001e648       wcstok_s                   1001f648 f   corelib1:COREDLL.dll
 0001:0001e658       wcsncmp                    1001f658 f   corelib1:COREDLL.dll
 0001:0001e668       memcmp                     1001f668 f   corelib1:COREDLL.dll
 0001:0001e678       wcschr                     1001f678 f   corelib1:COREDLL.dll
 0001:0001e688       memmove                    1001f688 f   corelib1:COREDLL.dll
 0001:0001e698       ??_V@YAXPAX@Z              1001f698 f   corelib1:COREDLL.dll
 0001:0001e6a8       wcscmp                     1001f6a8 f   corelib1:COREDLL.dll
 0001:0001e6b8       ??_U@YAPAXI@Z              1001f6b8 f   corelib1:COREDLL.dll
 0001:0001e6c8       _purecall                  1001f6c8 f   corelib1:COREDLL.dll
 0001:0001e6d8       strlen                     1001f6d8 f   corelib1:COREDLL.dll
 0001:0001e6e8       towlower                   1001f6e8 f   corelib1:COREDLL.dll
 0001:0001e6f8       iswctype                   1001f6f8 f   corelib1:COREDLL.dll
 0001:0001e708       _wcslwr_s                  1001f708 f   corelib1:COREDLL.dll
 0001:0001e718       _wcsicmp                   1001f718 f   corelib1:COREDLL.dll
 0001:0001e728       _wcsnicmp                  1001f728 f   corelib1:COREDLL.dll
 0001:0001e738       _stricmp                   1001f738 f   corelib1:COREDLL.dll
 0001:0001e748       realloc                    1001f748 f   corelib1:COREDLL.dll
 0001:0001e758       _XcptFilter                1001f758 f   corelib1:COREDLL.dll
 0001:0001e768       __security_gen_cookie2     1001f768 f   corelib1:COREDLL.dll
 0001:0001e778       __report_gsfailure         1001f778 f   corelib1:COREDLL.dll
 0001:0001e788       _msize                     1001f788 f   corelib1:COREDLL.dll
 0001:0001e798       InterlockedCompareExchange 1001f798 f   coredll:COREDLL.dll
 0001:0001e7a8       TerminateProcess           1001f7a8 f   coredll:COREDLL.dll
 0001:0001e834       ??__Fcs@?1??get_lock@?$singleton@V?$free_list@$0GE@Vallocator@ce@@@ce@@$03V?$static_allocator@V?$free_list@$0GE@Vallocator@ce@@@ce@@$03@2@@ce@@KAAAVcritical_section@2@XZ@YAXXZ 1001f834 f i cemapi:irmutils.obj
 0001:0001e9d4       __IMPORT_DESCRIPTOR_COREDLL 1001f9d4     coredll:COREDLL.dll
 0001:0001e9e8       __IMPORT_DESCRIPTOR_ole32  1001f9e8     ole32:ole32.dll
 0001:0001e9fc       __IMPORT_DESCRIPTOR_OLEAUT32 1001f9fc     oleaut32:OLEAUT32.dll
 0001:0001ea10       __IMPORT_DESCRIPTOR_ossvcs 1001fa10     ossvcs:ossvcs.dll
 0001:0001ea24       __IMPORT_DESCRIPTOR_shlwapi 1001fa24     shlwapi:shlwapi.dll
 0001:0001ea38       __IMPORT_DESCRIPTOR_CEAYGSHELL 1001fa38     CEaygshell:CEAYGSHELL.dll
 0001:0001ea4c       __IMPORT_DESCRIPTOR_RPCRT4 1001fa4c     rpcrt4:RPCRT4.dll
 0001:0001ea60       __NULL_IMPORT_DESCRIPTOR   1001fa60     coredll:COREDLL.dll
 0002:00000000       __imp_CheckPhoneFeatureLevel 10021000     CEaygshell:CEAYGSHELL.dll
 0002:00000004       \177CEAYGSHELL_NULL_THUNK_DATA 10021004     CEaygshell:CEAYGSHELL.dll
 0002:00000008       __imp_DeleteCriticalSection 10021008     coredll:COREDLL.dll
 0002:0000000c       __imp_LeaveCriticalSection 1002100c     coredll:COREDLL.dll
 0002:00000010       __imp_EnterCriticalSection 10021010     coredll:COREDLL.dll
 0002:00000014       __imp_InitializeCriticalSection 10021014     coredll:COREDLL.dll
 0002:00000018       __imp_RaiseException       10021018     coredll:COREDLL.dll
 0002:0000001c       __imp_GetLastError         1002101c     coredll:COREDLL.dll
 0002:00000020       __imp_InterlockedIncrement 10021020     coredll:COREDLL.dll
 0002:00000024       __imp_InterlockedDecrement 10021024     coredll:COREDLL.dll
 0002:00000028       __imp_RegDeleteKeyW        10021028     coredll:COREDLL.dll
 0002:0000002c       __imp_RegDeleteValueW      1002102c     coredll:COREDLL.dll
 0002:00000030       __imp_RegCloseKey          10021030     coredll:COREDLL.dll
 0002:00000034       __imp_RegCreateKeyExW      10021034     coredll:COREDLL.dll
 0002:00000038       __imp_RegOpenKeyExW        10021038     coredll:COREDLL.dll
 0002:0000003c       __imp_RegSetValueExW       1002103c     coredll:COREDLL.dll
 0002:00000040       __imp_lstrcmpiW            10021040     coredll:COREDLL.dll
 0002:00000044       __imp_CharNextW            10021044     coredll:COREDLL.dll
 0002:00000048       __imp_RegQueryInfoKeyW     10021048     coredll:COREDLL.dll
 0002:0000004c       __imp_RegEnumKeyExW        1002104c     coredll:COREDLL.dll
 0002:00000050       __imp_FreeLibrary          10021050     coredll:COREDLL.dll
 0002:00000054       __imp_MultiByteToWideChar  10021054     coredll:COREDLL.dll
 0002:00000058       __imp_SizeofResource       10021058     coredll:COREDLL.dll
 0002:0000005c       __imp_LoadResource         1002105c     coredll:COREDLL.dll
 0002:00000060       __imp_FindResourceW        10021060     coredll:COREDLL.dll
 0002:00000064       __imp_LoadLibraryExW       10021064     coredll:COREDLL.dll
 0002:00000068       __imp_GetModuleHandleW     10021068     coredll:COREDLL.dll
 0002:0000006c       __imp_GetModuleFileNameW   1002106c     coredll:COREDLL.dll
 0002:00000070       __imp_FileTimeToSystemTime 10021070     coredll:COREDLL.dll
 0002:00000074       __imp_StringCchCopyW       10021074     coredll:COREDLL.dll
 0002:00000078       __imp_LocalFree            10021078     coredll:COREDLL.dll
 0002:0000007c       __imp_StringCchPrintfW     1002107c     coredll:COREDLL.dll
 0002:00000080       __imp_LocalAlloc           10021080     coredll:COREDLL.dll
 0002:00000084       __imp_StringCchLengthW     10021084     coredll:COREDLL.dll
 0002:00000088       __imp_RegQueryValueExW     10021088     coredll:COREDLL.dll
 0002:0000008c       __imp_CloseHandle          1002108c     coredll:COREDLL.dll
 0002:00000090       __imp_ReleaseMutex         10021090     coredll:COREDLL.dll
 0002:00000094       __imp_WaitForSingleObject  10021094     coredll:COREDLL.dll
 0002:00000098       __imp_CreateMutexW         10021098     coredll:COREDLL.dll
 0002:0000009c       __imp_ReadFile             1002109c     coredll:COREDLL.dll
 0002:000000a0       __imp_CreateFileW          100210a0     coredll:COREDLL.dll
 0002:000000a4       __imp_SystemTimeToFileTime 100210a4     coredll:COREDLL.dll
 0002:000000a8       __imp_GetSystemTime        100210a8     coredll:COREDLL.dll
 0002:000000ac       __imp_EventModify          100210ac     coredll:COREDLL.dll
 0002:000000b0       __imp_LoadLibraryW         100210b0     coredll:COREDLL.dll
 0002:000000b4       __imp_LoadStringW          100210b4     coredll:COREDLL.dll
 0002:000000b8       __imp_WaitForMultipleObjects 100210b8     coredll:COREDLL.dll
 0002:000000bc       __imp_CreateThread         100210bc     coredll:COREDLL.dll
 0002:000000c0       __imp_CreateEventW         100210c0     coredll:COREDLL.dll
 0002:000000c4       __imp_InterlockedExchange  100210c4     coredll:COREDLL.dll
 0002:000000c8       __imp_PostMessageW         100210c8     coredll:COREDLL.dll
 0002:000000cc       __imp_CryptProtectData     100210cc     coredll:COREDLL.dll
 0002:000000d0       __imp_CryptUnprotectData   100210d0     coredll:COREDLL.dll
 0002:000000d4       __imp_StringCchCopyNW      100210d4     coredll:COREDLL.dll
 0002:000000d8       __imp_StringCchCatW        100210d8     coredll:COREDLL.dll
 0002:000000dc       __imp_CePerfDLLCleanup     100210dc     coredll:COREDLL.dll
 0002:000000e0       __imp_CePerfDLLSetup       100210e0     coredll:COREDLL.dll
 0002:000000e4       __imp_GetSystemTimeAsFileTime 100210e4     coredll:COREDLL.dll
 0002:000000e8       __imp_RegEnumValueW        100210e8     coredll:COREDLL.dll
 0002:000000ec       __imp_StringCchCopyExW     100210ec     coredll:COREDLL.dll
 0002:000000f0       __imp_CreateProcessW       100210f0     coredll:COREDLL.dll
 0002:000000f4       __imp_CloseMsgQueue        100210f4     coredll:COREDLL.dll
 0002:000000f8       __imp_GetMsgQueueInfo      100210f8     coredll:COREDLL.dll
 0002:000000fc       __imp_CreateMsgQueue       100210fc     coredll:COREDLL.dll
 0002:00000100       __imp_Sleep                10021100     coredll:COREDLL.dll
 0002:00000104       __imp_WriteMsgQueue        10021104     coredll:COREDLL.dll
 0002:00000108       __imp_StringCchCopyA       10021108     coredll:COREDLL.dll
 0002:0000010c       __imp_TerminateProcess     1002110c     coredll:COREDLL.dll
 0002:00000110       __imp_InterlockedCompareExchange 10021110     coredll:COREDLL.dll
 0002:00000114       __imp__msize               10021114     corelib1:COREDLL.dll
 0002:00000118       __imp___report_gsfailure   10021118     corelib1:COREDLL.dll
 0002:0000011c       __imp___security_gen_cookie2 1002111c     corelib1:COREDLL.dll
 0002:00000120       __imp__XcptFilter          10021120     corelib1:COREDLL.dll
 0002:00000124       __imp_realloc              10021124     corelib1:COREDLL.dll
 0002:00000128       __imp__stricmp             10021128     corelib1:COREDLL.dll
 0002:0000012c       __imp__wcsnicmp            1002112c     corelib1:COREDLL.dll
 0002:00000130       __imp__wcsicmp             10021130     corelib1:COREDLL.dll
 0002:00000134       __imp__wcslwr_s            10021134     corelib1:COREDLL.dll
 0002:00000138       __imp_iswctype             10021138     corelib1:COREDLL.dll
 0002:0000013c       __imp_towlower             1002113c     corelib1:COREDLL.dll
 0002:00000140       __imp_strlen               10021140     corelib1:COREDLL.dll
 0002:00000144       __imp__purecall            10021144     corelib1:COREDLL.dll
 0002:00000148       __imp___rt_sdiv64by64      10021148     corelib1:COREDLL.dll
 0002:0000014c       __imp_SHGetSpecialFolderPath 1002114c     coredll:COREDLL.dll
 0002:00000150       __imp_GetProcAddressW      10021150     coredll:COREDLL.dll
 0002:00000154       __imp_??_U@YAPAXI@Z        10021154     corelib1:COREDLL.dll
 0002:00000158       __imp_wcscmp               10021158     corelib1:COREDLL.dll
 0002:0000015c       __imp_??_V@YAXPAX@Z        1002115c     corelib1:COREDLL.dll
 0002:00000160       __imp_memmove              10021160     corelib1:COREDLL.dll
 0002:00000164       __imp_wcschr               10021164     corelib1:COREDLL.dll
 0002:00000168       __imp_memcmp               10021168     corelib1:COREDLL.dll
 0002:0000016c       __imp_memset               1002116c     corelib1:COREDLL.dll
 0002:00000170       __imp___C_specific_handler 10021170     corelib1:COREDLL.dll
 0002:00000174       __imp_??3@YAXPAX@Z         10021174     corelib1:COREDLL.dll
 0002:00000178       __imp_wcsstr               10021178     corelib1:COREDLL.dll
 0002:0000017c       __imp_wcslen               1002117c     corelib1:COREDLL.dll
 0002:00000180       __imp_malloc               10021180     corelib1:COREDLL.dll
 0002:00000184       __imp_free                 10021184     corelib1:COREDLL.dll
 0002:00000188       __imp_memcpy_s             10021188     corelib1:COREDLL.dll
 0002:0000018c       __imp_wcsncpy_s            1002118c     corelib1:COREDLL.dll
 0002:00000190       __imp__recalloc            10021190     corelib1:COREDLL.dll
 0002:00000194       __imp_??2@YAPAXI@Z         10021194     corelib1:COREDLL.dll
 0002:00000198       __imp_memcpy               10021198     corelib1:COREDLL.dll
 0002:0000019c       __imp_wcstok_s             1002119c     corelib1:COREDLL.dll
 0002:000001a0       __imp_wcsncmp              100211a0     corelib1:COREDLL.dll
 0002:000001a4       \177COREDLL_NULL_THUNK_DATA 100211a4     coredll:COREDLL.dll
 0002:000001a8       __imp_VarUI4FromStr        100211a8     oleaut32:OLEAUT32.dll
 0002:000001ac       \177OLEAUT32_NULL_THUNK_DATA 100211ac     oleaut32:OLEAUT32.dll
 0002:000001b0       __imp_RpcBindingFromStringBindingW 100211b0     rpcrt4:RPCRT4.dll
 0002:000001b4       __imp_RpcStringFreeW       100211b4     rpcrt4:RPCRT4.dll
 0002:000001b8       __imp_RpcBindingFree       100211b8     rpcrt4:RPCRT4.dll
 0002:000001bc       __imp_NdrClientCall2       100211bc     rpcrt4:RPCRT4.dll
 0002:000001c0       __imp_RpcStringBindingComposeW 100211c0     rpcrt4:RPCRT4.dll
 0002:000001c4       \177RPCRT4_NULL_THUNK_DATA 100211c4     rpcrt4:RPCRT4.dll
 0002:000001c8       __imp_CoInitializeEx       100211c8     ole32:ole32.dll
 0002:000001cc       __imp_CoTaskMemAlloc       100211cc     ole32:ole32.dll
 0002:000001d0       __imp_CoTaskMemRealloc     100211d0     ole32:ole32.dll
 0002:000001d4       __imp_CoCreateInstance     100211d4     ole32:ole32.dll
 0002:000001d8       __imp_CoTaskMemFree        100211d8     ole32:ole32.dll
 0002:000001dc       __imp_CLSIDFromString      100211dc     ole32:ole32.dll
 0002:000001e0       __imp_CoFreeUnusedLibraries 100211e0     ole32:ole32.dll
 0002:000001e4       __imp_CoUninitialize       100211e4     ole32:ole32.dll
 0002:000001e8       \177ole32_NULL_THUNK_DATA  100211e8     ole32:ole32.dll
 0002:000001ec       __imp_SafeWideCharToMultiByte 100211ec     ossvcs:ossvcs.dll
 0002:000001f0       __imp_UMul                 100211f0     ossvcs:ossvcs.dll
 0002:000001f4       __imp_WatsonReportFault    100211f4     ossvcs:ossvcs.dll
 0002:000001f8       __imp_SafeMultiByteToWideChar 100211f8     ossvcs:ossvcs.dll
 0002:000001fc       \177ossvcs_NULL_THUNK_DATA 100211fc     ossvcs:ossvcs.dll
 0002:00000200       __imp_PathCombineW         10021200     shlwapi:shlwapi.dll
 0002:00000204       \177shlwapi_NULL_THUNK_DATA 10021204     shlwapi:shlwapi.dll
 0002:00000210       ?rgMsgStorePropHandlerMap@@3PAUPROPHANDLERITEM@@A 10021210     cemapi:MapiStore.obj
 0002:000002b8       ?rgpszSubjPrefixes@@3PAPAGA 100212b8     cemapi:Propmap.obj
 0002:000002c8       ?g_rgPerfItems@@3PAU_CEPERF_BASIC_ITEM_DESCRIPTOR@@A 100212c8     cemapi:perf.obj
 0002:000006c8       ?rgMsgPropHandlerMap@@3PAUPROPHANDLERITEM@@A 100216c8     cemapi:MapiMessage.obj
 0002:00000768       ?rgFldrPropHandlerMap@@3PAUPROPHANDLERITEM@@A 10021768     cemapi:MapiFolder.obj
 0002:000007d4       ?rgRecipientPropHandlerMap@@3PAUPROPHANDLERITEM@@A 100217d4     cemapi:RecipientTable.obj
 0002:000007f8       ?rgSearchFldrPropHandlerMap@@3PAUPROPHANDLERITEM@@A 100217f8     cemapi:SearchFolder.obj
 0002:00000858       ?rgRootSearchFldrPropHandlerMap@@3PAUPROPHANDLERITEM@@A 10021858     cemapi:RootSearchFolder.obj
 0002:000008b8       ?rgAttachPropHandlerMap@@3PAUPROPHANDLERITEM@@A 100218b8     cemapi:Attach.obj
 0002:000008e4       ?c_szMailApiEndPoint@@3PBGB 100218e4     Mailapiproxy:MailApiProxy.obj
 0002:000008ec       ?c_chAttachmentSeparator@@3GA 100218ec     Mailapiproxy:MailApiProxy.obj
 0002:00000904       MailApiRemote_v1_0_c_ifspec 10021904     Mailapiproxy:MailApiRemote_c.obj
 0002:00000908       _pRawDllMain               10021908     atls:atlbase.obj
 0002:0000090c       __security_cookie          1002190c     corelib0:seccinit.obj
 0002:00000910       __security_cookie_complement 10021910     corelib0:seccinit.obj
 0002:00000914       ?g_csSingleton@@3UCRITICAL_SECTION@@A 10021914     dllmain.obj
 0002:00000928       ?ghInst@@3PAUHINSTANCE__@@A 10021928     dllmain.obj
 0002:0000092c       ?ghInstRes@@3PAUHINSTANCE__@@A 1002192c     dllmain.obj
 0002:00000930       ?g_pCtxSingleton@@3PAVMapiCtx@@A 10021930     dllmain.obj
 0002:00000934       ?g_hinstMddrm@@3PAUHINSTANCE__@@A 10021934     dllmain.obj
 0002:00000938       ?_Module@@3VCComModule@ATL@@A 10021938     dllmain.obj
 0002:00000964       ?m_bInitFailed@CAtlBaseModule@ATL@@2_NA 10021964     dllmain.obj
 0002:00000965       ?_AtlRegisterPerUser@ATL@@3_NA 10021965     dllmain.obj
 0002:00000968       ?_pAtlModule@ATL@@3PAVCAtlModule@1@A 10021968     dllmain.obj
 0002:0000096c       ?_pModule@ATL@@3PAVCComModule@1@A 1002196c     dllmain.obj
 0002:00000974       ??_B?1??VTFromRegType@CRegParser@ATL@@KAHPBGAAG@Z@51 10021974     dllmain.obj
 0002:00000978       ?map@?1??VTFromRegType@CRegParser@ATL@@KAHPBGAAG@Z@4QBUtypemap@?1??123@KAH01@Z@B 10021978     dllmain.obj
 0002:00000998       __@@_PchSym_@00@UygUDBFDUkirezgvUzkkhUlfgollpUxvnzkrUwooUlyqUzineHUivgzroUkivxlnkOlyq@cemapi 10021998     precomp.obj
 0002:000009ac       ??_B?1??get_lock@?$singleton@V?$free_list@$0GE@Vallocator@ce@@@ce@@$03V?$static_allocator@V?$free_list@$0GE@Vallocator@ce@@@ce@@$03@2@@ce@@KAAAVcritical_section@2@XZ@51 100219ac     cemapi:irmutils.obj
 0002:000009b0       ?cs@?1??get_lock@?$singleton@V?$free_list@$0GE@Vallocator@ce@@@ce@@$03V?$static_allocator@V?$free_list@$0GE@Vallocator@ce@@@ce@@$03@2@@ce@@KAAAVcritical_section@3@XZ@4V43@A 100219b0     cemapi:irmutils.obj
 0002:000009c4       ?_factory@?$singleton@V?$free_list@$0GE@Vallocator@ce@@@ce@@$03V?$static_allocator@V?$free_list@$0GE@Vallocator@ce@@@ce@@$03@2@@ce@@1Ulock_factory@12@A 100219c4     cemapi:irmutils.obj
 0002:000009c8       ?g_lMapiRefCount@@3JA      100219c8     cemapi:logon.obj
 0002:000009cc       ?g_pStoreManager@@3PAUIUSStoreManager@@A 100219cc     cemapi:MapiCtx.obj
 0002:000009d0       __@@_PchSym_@00@UygUDBFDUkirezgvUzkkhUlfgollpUxvnzkrUoryUlyqUzineHUivgzroUhgwzucOlyq@cemapi 100219d0     cemapi:stdafx.obj
 0002:000009dc       ?ghPerfSession@@3PAXA      100219dc     cemapi:perf.obj
 0002:000009e0       pCePerfInternal            100219e0     cemapi:perf.obj
 0002:000009e4       __@@_PchSym_@00@UygUDBFDUkirezgvUzkkhUlfgollpUhszivwUnhtoryhUnrnvzwwiUlyqUzineHUivgzroUkivxlnkOlyq@msglib_mimeaddr 100219e4     msglib_mimeaddr:precomp.obj
 0002:000009e8       __afxForceAtlRawDllMain    100219e8     atls:atlbase.obj
 0002:000009ec       ?_AtlModuleInstance@ATL@@3PAUHINSTANCE__@@A 100219ec     atls:atlbase.obj
 0002:000009f0       ?_AtlBaseModule@ATL@@3VCAtlBaseModule@1@A 100219f0     atls:atlbase.obj
 0002:00000a24       ?_pAtlRawDllMain@@3P6AHPAXK0@ZA 10021a24     atls:atlbase.obj
 0002:00000a28       __@@_PchSym_@00@UxsvozmCBUlgsvihUzgoJUhixUzgohUlyqUzineHUivgzroUhgwzucOlyq@atls 10021a28     atls:stdafx.obj
 0002:00000a2c       _exitflag                  10021a2c     corelib0:cexit.obj
 0002:00000a30       MailApiRemote_IfHandle     10021a30     <common>
 0002:00000a34       __onexitend                10021a34     <common>
 0002:00000a38       __onexitbegin              10021a38     <common>
 0002:00000a3c       g_pcsExit                  10021a3c     <common>

 entry point at        0001:0001e12c

 Static symbols

 0001:0001e03c       _DllMainCRTStartupHelper   1001f03c f   corelib0:pegdmain.obj
 0001:0001e3f8       doexit                     1001f3f8 f   corelib0:cexit.obj
 0001:0001e7b8       ??__E_Module@@YAXXZ        1001f7b8 f   dllmain.obj
 0001:0001e7f4       ??__E?_factory@?$singleton@V?$free_list@$0GE@Vallocator@ce@@@ce@@$03V?$static_allocator@V?$free_list@$0GE@Vallocator@ce@@@ce@@$03@2@@ce@@1Ulock_factory@12@A@@YAXXZ 1001f7f4 f   cemapi:irmutils.obj
 0001:0001e7f8       ??__E_AtlBaseModule@ATL@@YAXXZ 1001f7f8 f   atls:atlbase.obj
 0001:0001e818       ??__F_Module@@YAXXZ        1001f818 f   dllmain.obj
 0001:0001e840       ??__F_AtlBaseModule@ATL@@YAXXZ 1001f840 f   atls:atlbase.obj

 Exports

  ordinal    name

       20    ?CEMAPILogonEx@@YAJPAPAUIMAPISession@@@Z (long __cdecl CEMAPILogonEx(struct IMAPISession * *))
       21    ?CEMAPILogoff@@YAJPAPAUIMAPISession@@@Z (long __cdecl CEMAPILogoff(struct IMAPISession * *))
       22    ?CEMAPI_SetMessageRecipients@@YAJPAUIMessage@@PBG11111@Z (long __cdecl CEMAPI_SetMessageRecipients(struct IMessage *,unsigned short const *,unsigned short const *,unsigned short const *,unsigned short const *,unsigned short const *,unsigned short const *))
       23    ?IMAPISession_get_MsgStoresTable@@YAJPAUIMAPISession@@PAPAUIMAPITable@@@Z (long __cdecl IMAPISession_get_MsgStoresTable(struct IMAPISession *,struct IMAPITable * *))
       24    ?IMAPISession_OpenMsgStore@@YAJPAUIMAPISession@@PAUENTRYID@@KPAPAUIMsgStore@@@Z (long __cdecl IMAPISession_OpenMsgStore(struct IMAPISession *,struct ENTRYID *,unsigned long,struct IMsgStore * *))
       25    ?IMAPISession_OpenEntry@@YAJPAUIMAPISession@@PAUENTRYID@@KPAKPAPAUIMessage@@@Z (long __cdecl IMAPISession_OpenEntry(struct IMAPISession *,struct ENTRYID *,unsigned long,unsigned long *,struct IMessage * *))
       26    ?IMAPISession_CompareEntryIDs@@YAJPAUIMAPISession@@KPAUENTRYID@@K1KPAK@Z (long __cdecl IMAPISession_CompareEntryIDs(struct IMAPISession *,unsigned long,struct ENTRYID *,unsigned long,struct ENTRYID *,unsigned long,unsigned long *))
       27    ?IMAPITable_get_NextEntryID@@YAJPAUIMAPITable@@PAPAU_CEENTRYID@@PAK@Z (long __cdecl IMAPITable_get_NextEntryID(struct IMAPITable *,struct _CEENTRYID * *,unsigned long *))
       28    ?IMAPITable_get_NextRecipient@@YAJPAUIMAPITable@@PAPAG11PAKPAPAU_SRowSet@@@Z (long __cdecl IMAPITable_get_NextRecipient(struct IMAPITable *,unsigned short * *,unsigned short * *,unsigned short * *,unsigned long *,struct _SRowSet * *))
       29    ?IMsgStore_get_Folder@@YAJPAUIMsgStore@@KPAPAUIMAPIFolder@@@Z (long __cdecl IMsgStore_get_Folder(struct IMsgStore *,unsigned long,struct IMAPIFolder * *))
       30    ?IMAPIFolder_CreateMessage@@YAJPAUIMAPIFolder@@KPAPAUIMessage@@@Z (long __cdecl IMAPIFolder_CreateMessage(struct IMAPIFolder *,unsigned long,struct IMessage * *))
       31    ?IMAPIFolder_MoveMessage@@YAJPAUIMAPIFolder@@0PAUIMessage@@K@Z (long __cdecl IMAPIFolder_MoveMessage(struct IMAPIFolder *,struct IMAPIFolder *,struct IMessage *,unsigned long))
       32    ?IMessage_SubmitMessage@@YAJPAUIMessage@@@Z (long __cdecl IMessage_SubmitMessage(struct IMessage *))
       33    ?IMessage_get_EntryID@@YAJPAUIMessage@@PAPAUENTRYID@@PAK@Z (long __cdecl IMessage_get_EntryID(struct IMessage *,struct ENTRYID * *,unsigned long *))
       34    ?IMessage_get_Body@@YAJPAUIMAPIProp@@PAKPAPAG@Z (long __cdecl IMessage_get_Body(struct IMAPIProp *,unsigned long *,unsigned short * *))
       35    ?IMessage_set_Body@@YAJPAUIMAPIProp@@PBG@Z (long __cdecl IMessage_set_Body(struct IMAPIProp *,unsigned short const *))
       36    ?IMessage_get_GetRecipientTable@@YAJPAUIMessage@@PAPAUIMAPITable@@@Z (long __cdecl IMessage_get_GetRecipientTable(struct IMessage *,struct IMAPITable * *))
       37    ?IMessage_delete@@YAJPAUIMAPISession@@PAUIMessage@@PAUENTRYID@@@Z (long __cdecl IMessage_delete(struct IMAPISession *,struct IMessage *,struct ENTRYID *))
       38    ?IMAPIProp_get_StringProperty@@YAJPAUIMAPIProp@@KPAPAGPAPAU_SPropValue@@@Z (long __cdecl IMAPIProp_get_StringProperty(struct IMAPIProp *,unsigned long,unsigned short * *,struct _SPropValue * *))
       39    ?IMAPIProp_set_StringProperty@@YAJPAUIMAPIProp@@KPBG@Z (long __cdecl IMAPIProp_set_StringProperty(struct IMAPIProp *,unsigned long,unsigned short const *))
       40    ?IMAPIProp_get_DateProperty@@YAJPAUIMAPIProp@@KPAK1111111@Z (long __cdecl IMAPIProp_get_DateProperty(struct IMAPIProp *,unsigned long,unsigned long *,unsigned long *,unsigned long *,unsigned long *,unsigned long *,unsigned long *,unsigned long *,unsigned long *))
       41    ?IMAPIProp_get_LongProperty@@YAJPAUIMAPIProp@@KPAK@Z (long __cdecl IMAPIProp_get_LongProperty(struct IMAPIProp *,unsigned long,unsigned long *))
       42    ?IMAPIProp_set_LongProperty@@YAJPAUIMAPIProp@@KK@Z (long __cdecl IMAPIProp_set_LongProperty(struct IMAPIProp *,unsigned long,unsigned long))
       43    ?IMAPIContainer_get_ContentsTable@@YAJPAUIMAPIContainer@@PAPAUIMAPITable@@@Z (long __cdecl IMAPIContainer_get_ContentsTable(struct IMAPIContainer *,struct IMAPITable * *))
       44    ?CreateCeEntryIDCopy@@YAJPAU_CEENTRYID@@KPAPAU1@@Z (long __cdecl CreateCeEntryIDCopy(struct _CEENTRYID *,unsigned long,struct _CEENTRYID * *))
       45    ?DeleteMapiAllocatedMemory@@YAJPAPAPAX@Z (long __cdecl DeleteMapiAllocatedMemory(void * * *))
       46    ?SafeMAPIFreeBuffer@@YAJPAPAU_SPropValue@@@Z (long __cdecl SafeMAPIFreeBuffer(struct _SPropValue * *))
       47    ?DeleteBodyString@@YAXPAPAG@Z (void __cdecl DeleteBodyString(unsigned short * *))
       48    ?SendSMSMessage@@YAJPBG0I@Z (long __cdecl SendSMSMessage(unsigned short const *,unsigned short const *,unsigned int))
       49    ?UnloadSmsDll@@YAJXZ (long __cdecl UnloadSmsDll(void))
       50    ?RegisterForMapiNativeEvent@@YAJPAUIMAPISession@@PAUHWND__@@PAUENTRYID@@KPAPAVManagedMAPIAdviseSink@@@Z (long __cdecl RegisterForMapiNativeEvent(struct IMAPISession *,struct HWND__ *,struct ENTRYID *,unsigned long,class ManagedMAPIAdviseSink * *))
       51    ?MAPI_CompareEntryIDs@@YAHKPAUENTRYID@@K0@Z (int __cdecl MAPI_CompareEntryIDs(unsigned long,struct ENTRYID *,unsigned long,struct ENTRYID *))
               exported name: MAPI_CompareEntryIDs
       52    MAPIAllocateBuffer_dbg
       53    MAPIAllocateMore_dbg
       54    ?CEMAPIComposeMessage@@YAJPBG000000@Z (long __cdecl CEMAPIComposeMessage(unsigned short const *,unsigned short const *,unsigned short const *,unsigned short const *,unsigned short const *,unsigned short const *,unsigned short const *))
       55    CacheIRMLicenseId
       56    AssociateAttachmentWithLicense
       57    FlushMailStore
       58    FreeProws
       59    HrGetOneProp
       60    HrSetOneProp
       61    MAPIAllocateBuffer
       62    MAPIAllocateMore
       63    MAPICreateContext
       64    MAPIFreeBuffer
       65    MAPIInitialize
       66    MAPILogonEx
       67    MAPIUninitialize
       68    MAPI_RefreshRuleClients
       69    MailComposeMessage
       70    MailDisplayMessage
       71    MailLaunchNewAccountWizard
       72    MailSwitchToAccount
       73    MailSwitchToFolder
       74    MailSyncMessages
       75    ReadMailVolumeNameEx
       76    SetStoreManagerCache
