 ceshell

 Timestamp is 618b15bc (Tue Nov 09 17:43:40 2021)

 Preferred load address is 10000000

 Start         Length     Name                   Class
 0001:00000000 00000004H .CRT$XCA                CODE
 0001:00000004 00000018H .CRT$XCU                CODE
 0001:0000001c 00000004H .CRT$XCZ                CODE
 0001:00000020 00000004H .CRT$XIA                CODE
 0001:00000024 00000004H .CRT$XIZ                CODE
 0001:00000028 00000004H .CRT$XPA                CODE
 0001:0000002c 00000004H .CRT$XPZ                CODE
 0001:00000030 00000004H .CRT$XTA                CODE
 0001:00000034 00000004H .CRT$XTZ                CODE
 0001:00000040 0000244eH .rdata                  CODE
 0001:00002490 00000024H .rdata$debug            CODE
 0001:000024b4 0003c3a0H .text                   CODE
 0001:0003e854 000000a0H .text$yc                CODE
 0001:0003e8f4 0000004cH .text$yd                CODE
 0001:0003e940 000002c8H .xdata                  CODE
 0001:0003ec08 00000078H .idata$2                CODE
 0001:0003ec80 00000014H .idata$3                CODE
 0001:0003ec94 000005fcH .idata$4                CODE
 0001:0003f290 000003aaH .idata$6                CODE
 0001:0003f640 00000495H .edata                  CODE
 0002:00000000 000005fcH .idata$5                DATA
 0002:00000600 0000055cH .data                   DATA
 0002:00000b60 00000ae4H .bss                    DATA
 0003:00000000 00002250H .pdata                  DATA
 0004:00000000 0000160cH .rsrc$01                DATA
 0004:00001610 00010610H .rsrc$02                DATA

  Address         Publics by Value              Rva+Base       Lib:Object

 0000:00000000       ___safe_se_handler_table   00000000     <absolute>
 0000:00000000       ___safe_se_handler_count   00000000     <absolute>
 0001:00000000       __xc_a                     10001000     corelib0:crt0init.obj
 0001:0000001c       __xc_z                     1000101c     corelib0:crt0init.obj
 0001:00000020       __xi_a                     10001020     corelib0:crt0init.obj
 0001:00000024       __xi_z                     10001024     corelib0:crt0init.obj
 0001:00000028       __xp_a                     10001028     corelib0:crt0init.obj
 0001:0000002c       __xp_z                     1000102c     corelib0:crt0init.obj
 0001:00000030       __xt_a                     10001030     corelib0:crt0init.obj
 0001:00000034       __xt_z                     10001034     corelib0:crt0init.obj
 0001:0000005c       IID_IShellBrowser          1000105c     ceshapi:thunks.obj
 0001:0000006c       IID_IShellView             1000106c     ceshapi:thunks.obj
 0001:0000007c       IID_IContextMenu           1000107c     ceshapi:thunks.obj
 0001:0000008c       IID_IShellFolder           1000108c     ceshapi:thunks.obj
 0001:0000009c       IID_IPersistFolder         1000109c     ceshapi:thunks.obj
 0001:000000ac       IID_IShellDetails          100010ac     ceshapi:thunks.obj
 0001:000000bc       IID_IEnumIDList            100010bc     ceshapi:thunks.obj
 0001:000000cc       IID_IShellListView         100010cc     ceshapi:thunks.obj
 0001:000000dc       IID_IShellChangeNotify     100010dc     ceshapi:thunks.obj
 0001:000000ec       CLSID_CEShellBitBucket     100010ec     ceshapi:api.obj
 0001:000000fc       CLSID_CEShellDesktop       100010fc     ceshapi:api.obj
 0001:0000010c       CLSID_CEShellDrives        1000110c     ceshapi:api.obj
 0001:0000011c       CLSID_CEShellNetwork       1000111c     ceshapi:api.obj
 0001:0000012c       CLSID_CEShellZIP           1000112c     ceshapi:api.obj
 0001:0000013c       IID_IEnumFilter            1000113c     ceshapi:api.obj
 0001:0000014c       IID_IEnumFilterEx          1000114c     ceshapi:api.obj
 0001:0000015c       IID_IShellListViewEx       1000115c     ceshapi:api.obj
 0001:0000016c       SID_QIClientSite           1000116c     ceshapi:api.obj
 0001:0000017c       CLSID_StartFolder          1000117c     ceshapi:api.obj
 0001:0000018c       ??_C@_1BK@EPNJBMEE@?$AAs?$AAh?$AAe?$AAl?$AAl?$AAr?$AAe?$AAs?$AA?4?$AAd?$AAl?$AAl?$AA?$AA@ 1000118c     ceshapi:api.obj
 0001:000001a8       ??_C@_13FPGAJAPJ@?$AA?2?$AA?$AA@ 100011a8     ceshapi:api.obj
 0001:000001ac       ??_C@_1CC@PBBBHBAH@?$AAG?$AAe?$AAt?$AAD?$AAa?$AAt?$AAa?$AAD?$AAi?$AAr?$AAe?$AAc?$AAt?$AAo?$AAr?$AAy?$AA?$AA@ 100011ac     ceshapi:api.obj
 0001:000001d0       ??_C@_1BG@KOHEIBDA@?$AAo?$AAs?$AAs?$AAv?$AAc?$AAs?$AA?4?$AAd?$AAl?$AAl?$AA?$AA@ 100011d0     ceshapi:api.obj
 0001:000001e8       ??_C@_11LOCGONAA@?$AA?$AA@ 100011e8     ceshapi:api.obj
 0001:000001ec       ??_C@_13NEIAEHFG@?$AA?$CC?$AA?$AA@ 100011ec     ceshapi:api.obj
 0001:000001f0       ??_C@_19BEHMAPDG@?$AA?4?$AAl?$AAn?$AAk?$AA?$AA@ 100011f0     ceshapi:api.obj
 0001:000001fc       ??_C@_19CFMCKEMN@?$AA?2?$AA?$CK?$AA?4?$AA?$CK?$AA?$AA@ 100011fc     ceshapi:api.obj
 0001:00000238       ??_7IDropTarget@@6B@       10001238     ceshapi:drag.obj
 0001:00000254       ??_7CNullDropTarget@@6B@   10001254     ceshapi:drag.obj
 0001:00000270       ??_C@_1BO@CDANOBEI@?$AAD?$AAr?$AAa?$AAg?$AAC?$AAa?$AAp?$AAt?$AAu?$AAr?$AAe?$AAW?$AAn?$AAd?$AA?$AA@ 10001270     ceshapi:drag.obj
 0001:00000290       ??_C@_13JOFGPIOO@?$AA?4?$AA?$AA@ 10001290     ceshapi:browse.obj
 0001:00000294       ??_C@_13HOIJIPNN@?$AA?5?$AA?$AA@ 10001294     ceshapi:shortcut.obj
 0001:00000298       ??_C@_1BG@HINDONOE@?$AAS?$AAe?$AAl?$AAe?$AAc?$AAt?$AAI?$AAc?$AAo?$AAn?$AA?$AA@ 10001298     ceshapi:shortcut.obj
 0001:000002b0       ??_C@_15FBMLFFBN@?$AA?$CF?$AA1?$AA?$AA@ 100012b0     ceshapi:shortcut.obj
 0001:000002b8       ??_C@_1BI@IDMJHIIF@?$AAD?$AAe?$AAf?$AAa?$AAu?$AAl?$AAt?$AAI?$AAc?$AAo?$AAn?$AA?$AA@ 100012b8     ceshapi:shortcut.obj
 0001:000002d0       ??_C@_1EC@JMOJPOPA@?$AAS?$AAO?$AAF?$AAT?$AAW?$AAA?$AAR?$AAE?$AA?2?$AAM?$AAi?$AAc?$AAr?$AAo?$AAs?$AAo?$AAf?$AAt?$AA?2?$AAI?$AAn?$AAt?$AAe?$AAr?$AAn?$AAa?$AAt?$AAi?$AAo?$AAn?$AAa?$AAl@ 100012d0     ceshapi:shortcut.obj
 0001:00000314       ??_C@_17DNCLJFIF@?$AAA?$AAC?$AAP?$AA?$AA@ 10001314     ceshapi:shortcut.obj
 0001:0000031c       ??_C@_17ENEANJDH@?$AA?5?$AA?$CF?$AAs?$AA?$AA@ 1000131c     ceshapi:shortcut.obj
 0001:00000324       ??_C@_1BA@PJEPLMPO@?$AA?$CF?$AAd?$AA?$CD?$AA?$CC?$AA?$CF?$AAs?$AA?$CC?$AA?$AA@ 10001324     ceshapi:shortcut.obj
 0001:00000334       ??_C@_1BI@EEKPCHLN@?$AAD?$AAi?$AAs?$AAp?$AAl?$AAa?$AAy?$AAN?$AAa?$AAm?$AAe?$AA?$AA@ 10001334     ceshapi:shortcut.obj
 0001:0000034c       ??_C@_1BC@MCAABAB@?$AAC?$AAL?$AAS?$AAI?$AAD?$AA?2?$AA?$CF?$AAs?$AA?$AA@ 1000134c     ceshapi:shortcut.obj
 0001:00000360       ?LOCKED_FOLDERS@CFileOperation@@1QBIB 10001360     ceshapi:shfileop.obj
 0001:00000380       ?PROTECTED_FOLDERS@CFileOperation@@1QBIB 10001380     ceshapi:shfileop.obj
 0001:00000388       ?LONGEST_PATH@CFileOperation@@2KB 10001388     ceshapi:shfileop.obj
 0001:0000038c       ?m_cdwShowProgressThreshold@CProgressUI@@1KB 1000138c     ceshapi:shfileop.obj
 0001:00000390       ?SHOW_PROGRESS_THRESHOLD@CCalculateTotalSize@@1_KB 10001390     ceshapi:shfileop.obj
 0001:00000398       ??_7CCalculateTotalSize@@6B@ 10001398     ceshapi:shfileop.obj
 0001:000003a4       ??_7WalkAction@CDirectoryWalker@@6B@ 100013a4     ceshapi:shfileop.obj
 0001:000003ac       ??_7CFileOperation@@6B@    100013ac     ceshapi:shfileop.obj
 0001:000003c0       ??_7CRename@@6B@           100013c0     ceshapi:shfileop.obj
 0001:000003d4       ??_7CProgressUI@@6B@       100013d4     ceshapi:shfileop.obj
 0001:00000410       ??_C@_19LJDFFCJJ@?$AA?$CF?$AAs?$AA?$CF?$AAs?$AA?$AA@ 10001410     ceshapi:shfileop.obj
 0001:00000420       ??_C@_1EG@GCMJLFBA@?$AAA?$AAn?$AA?5?$AAu?$AAn?$AAk?$AAn?$AAo?$AAw?$AAn?$AA?5?$AAe?$AAr?$AAr?$AAo?$AAr?$AA?5?$AAo?$AAc?$AAc?$AAu?$AAr?$AAe?$AAd?$AA?5?$AA?$CI?$AA0?$AAx?$AA?$CF?$AA8?$AA?4?$AA8@ 10001420     ceshapi:shfileop.obj
 0001:00000468       ??_7CWalkingFileOperation@@6BCFileOperation@@@ 10001468     ceshapi:shfileop.obj
 0001:00000488       ??_7CWalkingFileOperation@@6BWalkAction@CDirectoryWalker@@@ 10001488     ceshapi:shfileop.obj
 0001:00000490       ??_C@_1CM@MCKGNODI@?$AAL?$AAo?$AAc?$AAa?$AAl?$AAi?$AAz?$AAe?$AAd?$AAR?$AAe?$AAs?$AAo?$AAu?$AAr?$AAc?$AAe?$AAN?$AAa?$AAm?$AAe?$AA?$AA@ 10001490     ceshapi:shfileop.obj
 0001:000004bc       ??_C@_1CE@IEGIIGGF@?$AA?$FL?$AA?4?$AAS?$AAh?$AAe?$AAl?$AAl?$AAC?$AAl?$AAa?$AAs?$AAs?$AAI?$AAn?$AAf?$AAo?$AA?$FN?$AA?$AA@ 100014bc     ceshapi:shfileop.obj
 0001:000004e0       ??_C@_1BI@IBKJFPKC@?$AAd?$AAe?$AAs?$AAk?$AAt?$AAo?$AAp?$AA?4?$AAi?$AAn?$AAi?$AA?$AA@ 100014e0     ceshapi:shfileop.obj
 0001:000004f8       ??_C@_15PKPONJIK@?$AA?2?$AA?$CK?$AA?$AA@ 100014f8     ceshapi:shfileop.obj
 0001:00000500       ??_7CCopyMove@@6BCFileOperation@@@ 10001500     ceshapi:shfileop.obj
 0001:00000524       ??_7CCopyMove@@6BWalkAction@CDirectoryWalker@@@ 10001524     ceshapi:shfileop.obj
 0001:0000052c       ??_7CDelete@@6BCFileOperation@@@ 1000152c     ceshapi:shfileop.obj
 0001:0000054c       ??_7CDelete@@6BWalkAction@CDirectoryWalker@@@ 1000154c     ceshapi:shfileop.obj
 0001:00000554       ??_7CCopy@@6BCFileOperation@@@ 10001554     ceshapi:shfileop.obj
 0001:00000578       ??_7CCopy@@6BWalkAction@CDirectoryWalker@@@ 10001578     ceshapi:shfileop.obj
 0001:00000580       ??_7CMove@@6BCFileOperation@@@ 10001580     ceshapi:shfileop.obj
 0001:000005a4       ??_7CMove@@6BWalkAction@CDirectoryWalker@@@ 100015a4     ceshapi:shfileop.obj
 0001:000005ac       CGID_CEShell               100015ac     ceshapi:fileopen.obj
 0001:00000688       ?s_szDesktopCLSID@FileOpenDlg_t@@1QBGB 10001688     ceshapi:fileopen.obj
 0001:000006d8       ?s_szBitBucketCLSID@FileOpenDlg_t@@1QBGB 100016d8     ceshapi:fileopen.obj
 0001:00000728       ?s_RegGUIDs@FileOpenDlg_t@@1QBGB 10001728     ceshapi:fileopen.obj
 0001:000007ac       ?s_RegDisplayName@FileOpenDlg_t@@1QBGB 100017ac     ceshapi:fileopen.obj
 0001:000007c8       ??_7FileOpenDlg_t@@6BIShellBrowser@@@ 100017c8     ceshapi:fileopen.obj
 0001:00000810       ??_7FileOpenDlg_t@@6BIOleCommandTarget@@@ 10001810     ceshapi:fileopen.obj
 0001:00000824       ??_C@_1BG@PFFEMDMJ@?$AAS?$AAi?$AAp?$AAG?$AAe?$AAt?$AAI?$AAn?$AAf?$AAo?$AA?$AA@ 10001824     ceshapi:fileopen.obj
 0001:0000083c       ??_C@_1BI@CJKPFBEK@?$AAc?$AAo?$AAr?$AAe?$AAd?$AAl?$AAl?$AA?4?$AAd?$AAl?$AAl?$AA?$AA@ 1000183c     ceshapi:fileopen.obj
 0001:00000854       ??_C@_1CK@BIJMMNGJ@?$AA?2?$AAw?$AAi?$AAn?$AAd?$AAo?$AAw?$AAs?$AA?2?$AAp?$AAe?$AAg?$AAh?$AAe?$AAl?$AAp?$AA?4?$AAe?$AAx?$AAe?$AA?$AA@ 10001854     ceshapi:fileopen.obj
 0001:00000880       ??_C@_1O@FHBGLCIO@?$AAC?$AAL?$AAS?$AAI?$AAD?$AA?2?$AA?$AA@ 10001880     ceshapi:fileopen.obj
 0001:000008f4       ??_C@_1O@ELLBDENI@?$AAS?$AAT?$AAA?$AAT?$AAI?$AAC?$AA?$AA@ 100018f4     ceshapi:fileopen.obj
 0001:00000904       ??_C@_17ECHFBE@?$AA?$CK?$AA?4?$AA?$CK?$AA?$AA@ 10001904     ceshapi:fileopen.obj
 0001:0000090c       ??_C@_15EAECJAPL@?$AA?$CK?$AA?$DP?$AA?$AA@ 1000190c     ceshapi:fileopen.obj
 0001:00000914       ??_C@_1O@MNPJHIFF@?$AA?1?$AA?3?$AA?$CC?$AA?$DM?$AA?$DO?$AA?$HM?$AA?$AA@ 10001914     ceshapi:fileopen.obj
 0001:00000924       ??_C@_1M@DFKENGJN@?$AA?$CF?$AAs?$AA?2?$AA?$CF?$AAs?$AA?$AA@ 10001924     ceshapi:fileopen.obj
 0001:00000930       ??_C@_15HEEKGCFC@?$AA?3?$AA?3?$AA?$AA@ 10001930     ceshapi:fileopen.obj
 0001:00000938       ??_C@_1BA@GOLMHEEM@?$AAS?$AAI?$AAP?$AAP?$AAR?$AAE?$AAF?$AA?$AA@ 10001938     ceshapi:fileopen.obj
 0001:00000948       ??_C@_1BA@NGKEOGJG@?$AAp?$AAe?$AAg?$AAh?$AAe?$AAl?$AAp?$AA?$AA@ 10001948     ceshapi:fileopen.obj
 0001:00000958       ??_C@_1DO@DGPHGJLL@?$AAf?$AAi?$AAl?$AAe?$AA?3?$AAw?$AAi?$AAn?$AAc?$AAe?$AA?4?$AAh?$AAt?$AAm?$AA?$CD?$AAO?$AAp?$AAe?$AAn?$AA_?$AAd?$AAi?$AAa?$AAl?$AAo?$AAg?$AA_?$AAb?$AAo?$AAx?$AA?$AA@ 10001958     ceshapi:fileopen.obj
 0001:00000998       ??_C@_1EE@JKCMNHGB@?$AAf?$AAi?$AAl?$AAe?$AA?3?$AAw?$AAi?$AAn?$AAc?$AAe?$AA?4?$AAh?$AAt?$AAm?$AA?$CD?$AAS?$AAa?$AAv?$AAe?$AA_?$AAA?$AAs?$AA_?$AAd?$AAi?$AAa?$AAl?$AAo?$AAg?$AA_?$AAb?$AAo@ 10001998     ceshapi:fileopen.obj
 0001:000009dc       ??_C@_19FJELMPGJ@?$AAB?$AAO?$AAO?$AAL?$AA?$AA@ 100019dc     ceshapi:fileopen.obj
 0001:00000a20       ??_C@_19PJLAHDGG@?$AA?4?$AAt?$AAt?$AAe?$AA?$AA@ 10001a20     ceshapi:font.obj
 0001:00000a2c       ??_7CShellMalloc@@6B@      10001a2c     ceshapi:malloc.obj
 0001:00000a50       ?HIBERNATE_FREEZE_CACHE@CIconCache@@1KB 10001a50     ceshapi:iconcache.obj
 0001:00000a54       ?LCID_ENGLISH@CIconCache@@1KB 10001a54     ceshapi:iconcache.obj
 0001:00000a58       ??_C@_1BI@IGBINLPG@?$AAc?$AAe?$AAs?$AAh?$AAe?$AAl?$AAl?$AA?4?$AAd?$AAl?$AAl?$AA?$AA@ 10001a58     ceshapi:iconcache.obj
 0001:00000a70       ??_C@_1CA@GCJCCFHN@?$AAS?$AAe?$AAl?$AAe?$AAc?$AAt?$AAI?$AAc?$AAo?$AAn?$AAI?$AAn?$AAd?$AAe?$AAx?$AA?$AA@ 10001a70     ceshapi:iconcache.obj
 0001:00000a90       ??_C@_1BE@DJANMP@?$AAI?$AAc?$AAo?$AAn?$AAI?$AAn?$AAd?$AAe?$AAx?$AA?$AA@ 10001a90     ceshapi:iconcache.obj
 0001:00000aa4       ??_C@_1BC@POAHOBOE@?$AAI?$AAc?$AAo?$AAn?$AAF?$AAi?$AAl?$AAe?$AA?$AA@ 10001aa4     ceshapi:iconcache.obj
 0001:00000ab8       ??_C@_1BA@MKGMBMD@?$AAA?$AAl?$AAt?$AAI?$AAc?$AAo?$AAn?$AA?$AA@ 10001ab8     ceshapi:iconcache.obj
 0001:00000ac8       ??_C@_1BA@LLGMNHOD@?$AAR?$AAe?$AAs?$AAt?$AAo?$AAr?$AAe?$AA?$AA@ 10001ac8     ceshapi:undo.obj
 0001:00000b28       ??_7CShellClassFactory@@6B@ 10001b28     ceshui:ceshellcf.obj
 0001:00000b3c       ?TYPE_MASK@CEItemID@@2KB   10001b3c     ceshui:idlist.obj
 0001:00000b40       ?TYPE_UNKNOWN@CEItemID@@2KB 10001b40     ceshui:idlist.obj
 0001:00000b44       ?TYPE_NAMESPACE@CEItemID@@2KB 10001b44     ceshui:idlist.obj
 0001:00000b48       ?TYPE_FILESYSTEM@CEItemID@@2KB 10001b48     ceshui:idlist.obj
 0001:00000b4c       ?ATTRIBUTES_MASK@CEItemID@@2KB 10001b4c     ceshui:idlist.obj
 0001:00000b50       ?ATTRIBUTES_UNKNOWN@CEItemID@@2KB 10001b50     ceshui:idlist.obj
 0001:00000b54       ?ATTRIBUTES_FILE@CEItemID@@2KB 10001b54     ceshui:idlist.obj
 0001:00000b58       ?ATTRIBUTES_LINK@CEItemID@@2KB 10001b58     ceshui:idlist.obj
 0001:00000b5c       ?ATTRIBUTES_IMAGE@CEItemID@@2KB 10001b5c     ceshui:idlist.obj
 0001:00000b60       ?ATTRIBUTES_DIRECTORY@CEItemID@@2KB 10001b60     ceshui:idlist.obj
 0001:00000b64       ?ATTRIBUTES_EXECUTABLE@CEItemID@@2KB 10001b64     ceshui:idlist.obj
 0001:00000b68       ?ATTRIBUTES_MOUNTPOINT@CEItemID@@2KB 10001b68     ceshui:idlist.obj
 0001:00000b6c       ?ATTRIBUTES_INROM@CEItemID@@2KB 10001b6c     ceshui:idlist.obj
 0001:00000b70       ?ATTRIBUTES_READONLY@CEItemID@@2KB 10001b70     ceshui:idlist.obj
 0001:00000b74       ?CACHE_MASK@CEItemID@@2KB  10001b74     ceshui:idlist.obj
 0001:00000b78       ?CACHE_EMPTY@CEItemID@@2KB 10001b78     ceshui:idlist.obj
 0001:00000b7c       ?CACHE_LASTWRITETIME@CEItemID@@2KB 10001b7c     ceshui:idlist.obj
 0001:00000b80       ?CACHE_SIZE@CEItemID@@2KB  10001b80     ceshui:idlist.obj
 0001:00000b84       ?CACHE_VOID@CEItemID@@2KB  10001b84     ceshui:idlist.obj
 0001:00000b88       ?DESKTOP@UserSettings@@1QBGB 10001b88     ceshui:usersettings.obj
 0001:00000bb4       ?EXPLORER@UserSettings@@1QBGB 10001bb4     ceshui:usersettings.obj
 0001:00000bc8       ?EXPLORER_SETTINGS@UserSettings@@2QBGB 10001bc8     ceshui:usersettings.obj
 0001:00000c28       ?BACKGROUND_IMAGE_LOCATION@UserSettings@@1QBGB 10001c28     ceshui:usersettings.obj
 0001:00000c3c       ?LISTVIEW_STYLE@UserSettings@@1QBGB 10001c3c     ceshui:usersettings.obj
 0001:00000c50       ?RECYCLE_BIN_PERCENTAGE@UserSettings@@1QBGB 10001c50     ceshui:usersettings.obj
 0001:00000c70       ?SHOW_FILE_NAME@UserSettings@@2QBGB 10001c70     ceshui:usersettings.obj
 0001:00000c8c       ?SHOW_FILE_TYPE@UserSettings@@2QBGB 10001c8c     ceshui:usersettings.obj
 0001:00000ca8       ?SHOW_FILE_SIZE@UserSettings@@2QBGB 10001ca8     ceshui:usersettings.obj
 0001:00000cc4       ?SHOW_DATE_MODIFIED@UserSettings@@2QBGB 10001cc4     ceshui:usersettings.obj
 0001:00000ce8       ?SHOW_EXTENSIONS@UserSettings@@1QBGB 10001ce8     ceshui:usersettings.obj
 0001:00000cf8       ?SHOW_HIDDEN_FILES@UserSettings@@1QBGB 10001cf8     ceshui:usersettings.obj
 0001:00000d08       ?SHOW_OVERLAY_MASK@UserSettings@@1QBGB 10001d08     ceshui:usersettings.obj
 0001:00000d28       ?SHOW_SYSTEM_FILES@UserSettings@@1QBGB 10001d28     ceshui:usersettings.obj
 0001:00000d38       ?TILE_BACKGROUND_IMAGE@UserSettings@@1QBGB 10001d38     ceshui:usersettings.obj
 0001:00000d44       ?USE_2ND_CLIPBOARD@UserSettings@@1QBGB 10001d44     ceshui:usersettings.obj
 0001:00000d64       ?USE_COMPATIBLE_BACKGROUND_IMAGE@UserSettings@@1QBGB 10001d64     ceshui:usersettings.obj
 0001:00000d90       ?USE_DRAG_DROP@UserSettings@@1QBGB 10001d90     ceshui:usersettings.obj
 0001:00000da8       ?USE_RECYCLE_BIN@UserSettings@@1QBGB 10001da8     ceshui:usersettings.obj
 0001:00000dc4       ?DEFAULT_LISTVIEW_STYLE@UserSettings@@1KB 10001dc4     ceshui:usersettings.obj
 0001:00000dc8       ?DEFAULT_RECYCLE_BIN_SIZE@UserSettings@@1KB 10001dc8     ceshui:usersettings.obj
 0001:00000dcc       ?DEFAULT_SHOW_FILE_NAME@UserSettings@@1HB 10001dcc     ceshui:usersettings.obj
 0001:00000dd0       ?DEFAULT_SHOW_EXTENSIONS@UserSettings@@1HB 10001dd0     ceshui:usersettings.obj
 0001:00000dd4       ?DEFAULT_SHOW_HIDDEN_FILES@UserSettings@@1HB 10001dd4     ceshui:usersettings.obj
 0001:00000dd8       ?DEFAULT_SHOW_FILE_SIZE@UserSettings@@1HB 10001dd8     ceshui:usersettings.obj
 0001:00000ddc       ?DEFAULT_SHOW_DATE_MODIFIED@UserSettings@@1HB 10001ddc     ceshui:usersettings.obj
 0001:00000de0       ?DEFAULT_SHOW_FILE_TYPE@UserSettings@@1HB 10001de0     ceshui:usersettings.obj
 0001:00000de4       ?DEFAULT_SHOW_OVERLAY_MASK@UserSettings@@1HB 10001de4     ceshui:usersettings.obj
 0001:00000de8       ?DEFAULT_SHOW_SYSTEM_FILES@UserSettings@@1HB 10001de8     ceshui:usersettings.obj
 0001:00000dec       ?DEFAULT_TILE_BACKGROUND_IMAGE@UserSettings@@1HB 10001dec     ceshui:usersettings.obj
 0001:00000df0       ?DEFAULT_USE_2ND_CLIPBOARD@UserSettings@@1HB 10001df0     ceshui:usersettings.obj
 0001:00000df4       ?DEFAULT_USE_COMPATIBLE_BACKGROUND_IMAGE@UserSettings@@1HB 10001df4     ceshui:usersettings.obj
 0001:00000df8       ?DEFAULT_USE_DRAG_DROP@UserSettings@@1HB 10001df8     ceshui:usersettings.obj
 0001:00000dfc       ??_C@_17JHAPGMHF@?$AA?3?$AA?3?$AA?$HL?$AA?$AA@ 10001dfc     ceshui:folderutils.obj
 0001:00000e04       ??_C@_1CK@BIEIJCIK@?$AA?$FL?$AAL?$AAo?$AAc?$AAa?$AAl?$AAi?$AAz?$AAe?$AAd?$AAF?$AAi?$AAl?$AAe?$AAN?$AAa?$AAm?$AAe?$AAs?$AA?$FN?$AA?$AA@ 10001e04     ceshui:folderutils.obj
 0001:00000e30       ??_C@_1M@OGLPPGPN@?$AA?$CF?$AAI?$AA6?$AA4?$AAu?$AA?$AA@ 10001e30     ceshui:shelldialogs.obj
 0001:00000e3c       ??_C@_19MNDKMKJC@?$AA?$CF?$AA0?$AA2?$AAd?$AA?$AA@ 10001e3c     ceshui:shelldialogs.obj
 0001:00000e48       ??_C@_15KNBIKKIN@?$AA?$CF?$AAd?$AA?$AA@ 10001e48     ceshui:shelldialogs.obj
 0001:00000e50       ??_C@_15JOGBDECP@?$AA?0?$AA?5?$AA?$AA@ 10001e50     ceshui:shelldialogs.obj
 0001:00000e58       ??_C@_1BA@ENINOPGK@?$AA?$CF?$AAs?$AA?5?$AA?$CI?$AA?$CF?$AAs?$AA?$CJ?$AA?$AA@ 10001e58     ceshui:shelldialogs.obj
 0001:00000e68       ??_C@_1BG@GLFMBHGH@?$AA?$CF?$AAs?$AA?$AN?$AA?6?$AA?$CF?$AAs?$AA?0?$AA?5?$AA?$CF?$AAs?$AA?$AA@ 10001e68     ceshui:shelldialogs.obj
 0001:00000e80       ??_C@_1BM@GNCNIGIG@?$AA?$CF?$AAs?$AA?$AN?$AA?6?$AA?$CF?$AAs?$AA?5?$AA?$CF?$AAs?$AA?0?$AA?5?$AA?$CF?$AAs?$AA?$AA@ 10001e80     ceshui:shelldialogs.obj
 0001:00000e9c       ??_C@_17LGKOMLJ@?$AA?4?$AA?4?$AA?4?$AA?$AA@ 10001e9c     ceshui:shelldialogs.obj
 0001:00000ea4       ?NOTIFY_FILTER@FileChangeNotify@@0KB 10001ea4     ceshui:filechangemgr.obj
 0001:00000ea8       ?NOTIFY_BUFFER_MAX@FileChangeNotify@@0KB 10001ea8     ceshui:filechangemgr.obj
 0001:00000eac       ??_7FileChangeNotify@@6B@  10001eac     ceshui:filechangemgr.obj
 0001:00000ec4       IID_IImagingFactory        10001ec4     ceshui:drivesfolder.obj
 0001:00000ed4       CLSID_ImagingFactory       10001ed4     ceshui:drivesfolder.obj
 0001:00000ee4       ??_7CDrivesFolder@@6BIShellFolder@@@ 10001ee4     ceshui:drivesfolder.obj
 0001:00000f18       ??_7CDrivesFolder@@6BIShellDetails@@@ 10001f18     ceshui:drivesfolder.obj
 0001:00000f2c       ??_7CDrivesFolder@@6BIPersistFolder@@@ 10001f2c     ceshui:drivesfolder.obj
 0001:00000f40       ??_7IShellDetails@@6B@     10001f40     ceshui:drivesfolder.obj
 0001:00000f58       ??_7ZipFolder@@6BIShellFolder@@@ 10001f58     ceshui:ZipFolder.obj
 0001:00000fa4       ??_7ZipFolder@@6BIShellDetails@@@ 10001fa4     ceshui:ZipFolder.obj
 0001:00000fb8       ??_7ZipFolder@@6BIPersistFolder@@@ 10001fb8     ceshui:ZipFolder.obj
 0001:00000fd0       ??_7CStartFolder@@6BIShellFolder@@@ 10001fd0     ceshui:startfolder.obj
 0001:0000101c       ??_7CStartFolder@@6BIShellDetails@@@ 1000201c     ceshui:startfolder.obj
 0001:00001030       ??_7CStartFolder@@6BIPersistFolder@@@ 10002030     ceshui:startfolder.obj
 0001:00001048       ??_C@_1EG@OEJJOGBF@?$AAS?$AAo?$AAf?$AAt?$AAw?$AAa?$AAr?$AAe?$AA?2?$AAM?$AAi?$AAc?$AAr?$AAo?$AAs?$AAo?$AAf?$AAt?$AA?2?$AAS?$AAh?$AAe?$AAl?$AAl?$AA?2?$AAS?$AAt?$AAa?$AAr?$AAt?$AAM?$AAe@ 10002048     ceshui:startfolder.obj
 0001:00001090       ??_C@_1M@PJMPBMAL@?$AAO?$AAr?$AAd?$AAe?$AAr?$AA?$AA@ 10002090     ceshui:startfolder.obj
 0001:0000109c       ??_7CNetworkFolder@@6BIShellFolder@@@ 1000209c     ceshui:netfolder.obj
 0001:000010d0       ??_7CNetworkFolder@@6BIPersistFolder@@@ 100020d0     ceshui:netfolder.obj
 0001:000010e4       ??_7CDesktopFolder@@6BIShellFolder@@@ 100020e4     ceshui:deskfolder.obj
 0001:00001118       ??_7CDesktopFolder@@6BIShellDetails@@@ 10002118     ceshui:deskfolder.obj
 0001:0000112c       ??_7CDesktopFolder@@6BIPersistFolder@@@ 1000212c     ceshui:deskfolder.obj
 0001:00001140       ??_C@_1BE@NKLACFNC@?$AAs?$AAh?$AAe?$AAl?$AAl?$AA?3?$AA?3?$AA?3?$AA?$HL?$AA?$AA@ 10002140     ceshui:deskfolder.obj
 0001:00001158       ??_7CFileFolder@@6BIShellFolder@@@ 10002158     ceshui:filefolder.obj
 0001:000011a0       ??_7CFileFolder@@6BIShellDetails@@@ 100021a0     ceshui:filefolder.obj
 0001:000011b4       ??_7CFileFolder@@6BIPersistFolder@@@ 100021b4     ceshui:filefolder.obj
 0001:000011c8       ??_C@_1CI@JMDKJINL@?$AAS?$AAH?$AAE?$AAL?$AAL?$AA_?$AAD?$AAA?$AAT?$AAA?$AA_?$AAT?$AAR?$AAA?$AAN?$AAS?$AAF?$AAE?$AAR?$AA?$AA@ 100021c8     ceshui:filefolder.obj
 0001:000011f0       ??_C@_1EO@LPCPAGIG@?$AA?$HL?$AA9?$AAd?$AA5?$AA0?$AA1?$AA5?$AA3?$AA3?$AA?9?$AAb?$AA3?$AA2?$AA0?$AA?9?$AA4?$AA7?$AA1?$AA3?$AA?9?$AAb?$AAa?$AA2?$AA8?$AA?9?$AAf?$AA5?$AA2?$AAc?$AA0?$AAf?$AAa@ 100021f0     ceshui:defshellview.obj
 0001:00001240       ?AUTOSIZE@ColumnDetails@CDefShellView@@2HB 10002240     ceshui:defshellview.obj
 0001:00001244       ?FILL@ColumnDetails@CDefShellView@@2HB 10002244     ceshui:defshellview.obj
 0001:00001248       ?WC_DEFSHELLVIEW@CDefShellView@@1QBGB 10002248     ceshui:defshellview.obj
 0001:00001264       ?IN_LABEL_EDIT@CDefShellView@@1IB 10002264     ceshui:defshellview.obj
 0001:00001268       ?IN_REFRESH@CDefShellView@@1IB 10002268     ceshui:defshellview.obj
 0001:0000126c       ?BACK_ENABLED@CDefShellView@@1IB 1000226c     ceshui:defshellview.obj
 0001:00001270       ?FWD_ENABLED@CDefShellView@@1IB 10002270     ceshui:defshellview.obj
 0001:00001274       ?SORT_DECENDING@CDefShellView@@1IB 10002274     ceshui:defshellview.obj
 0001:00001278       ?IN_LABEL_APPLY@CDefShellView@@1IB 10002278     ceshui:defshellview.obj
 0001:0000127c       ?PERSIST_VIEWMODE@CDefShellView@@1IB 1000227c     ceshui:defshellview.obj
 0001:00001280       ?SVM_CHANGENOTIFYEVENT@CDefShellView@@1IB 10002280     ceshui:defshellview.obj
 0001:00001284       ?SVM_SELECTIONCHANGED@CDefShellView@@1IB 10002284     ceshui:defshellview.obj
 0001:00001288       ?SVM_BROWSEOBJECT@CDefShellView@@1IB 10002288     ceshui:defshellview.obj
 0001:0000128c       ?s_szUserSpecifiedItem@CDefShellView@@1QBGB 1000228c     ceshui:defshellview.obj
 0001:00001290       ??_7IEnumFilter@@6B@       10002290     ceshui:defshellview.obj
 0001:000012a0       ??_C@_1BG@MBAMAOHI@?$AAc?$AAt?$AAl?$AAp?$AAn?$AAl?$AA?4?$AAe?$AAx?$AAe?$AA?$AA@ 100022a0     ceshui:defshellview.obj
 0001:000012b8       ??_C@_1BG@COALCEMK@?$AAP?$AAr?$AAo?$AAp?$AAe?$AAr?$AAt?$AAi?$AAe?$AAs?$AA?$AA@ 100022b8     ceshui:defshellview.obj
 0001:000012d0       ??_C@_17CMJHEBMJ@?$AA?2?$AA?2?$AA?$CK?$AA?$AA@ 100022d0     ceshui:defshellview.obj
 0001:000012d8       ??_C@_15ELOONFKJ@?$AA?3?$AA?5?$AA?$AA@ 100022d8     ceshui:defshellview.obj
 0001:000012e0       ??_C@_19LIJGBOL@?$AAT?$AAO?$AAD?$AAO?$AA?$AA@ 100022e0     ceshui:defshellview.obj
 0001:000012ec       ??_7IShellChangeNotify@@6B@ 100022ec     ceshui:defshellview.obj
 0001:000012fc       ??_7IDropSource@@6B@       100022fc     ceshui:defshellview.obj
 0001:00001310       ??_7IEnumFilterEx@@6B@     10002310     ceshui:defshellview.obj
 0001:00001328       ??_7IShellListViewEx@@6B@  10002328     ceshui:defshellview.obj
 0001:00001358       ??_7CDefShellView@@6BIShellView@@@ 10002358     ceshui:defshellview.obj
 0001:00001438       ??_7CDefShellView@@6BIOleCommandTarget@@@ 10002438     ceshui:defshellview.obj
 0001:0000144c       ??_7CDefShellView@@6BIOleInPlaceActiveObject@@@ 1000244c     ceshui:defshellview.obj
 0001:00001474       ??_7CDefShellView@@6BIShellChangeNotify@@@ 10002474     ceshui:defshellview.obj
 0001:00001484       ??_7CDefShellView@@6BIDropSource@@@ 10002484     ceshui:defshellview.obj
 0001:00001498       ??_7CDefShellView@@6BIDropTarget@@@ 10002498     ceshui:defshellview.obj
 0001:000014b4       ??_7CDefShellView@@6BIEnumFilterEx@@@ 100024b4     ceshui:defshellview.obj
 0001:000014cc       ??_7CDefShellView@@6BIShellListViewEx@@@ 100024cc     ceshui:defshellview.obj
 0001:000014f8       ??_C@_1EA@BFBEBPBN@?$AAw?$AAi?$AAn?$AAc?$AAe?$AA?4?$AAh?$AAt?$AAm?$AA?$CD?$AAW?$AAi?$AAn?$AAd?$AAo?$AAw?$AAs?$AA_?$AAE?$AAx?$AAp?$AAl?$AAo?$AAr?$AAe?$AAr?$AA_?$AAH?$AAe?$AAl?$AAp?$AA?$AA@ 100024f8     ceshui:defshellview.obj
 0001:00001538       ??_7IOleInPlaceActiveObject@@6B@ 10002538     ceshui:defshellview.obj
 0001:00001560       ??_C@_1BO@CCEKNIIA@?$AAE?$AAx?$AAp?$AAl?$AAo?$AAr?$AAe?$AAr?$AA?2?$AAS?$AAt?$AAa?$AAr?$AAt?$AA?$AA@ 10002560     ceshui:nsenum.obj
 0001:00001580       ??_C@_1CK@NBJJBODF@?$AAE?$AAx?$AAp?$AAl?$AAo?$AAr?$AAe?$AAr?$AA?2?$AAM?$AAy?$AA?5?$AAC?$AAo?$AAm?$AAp?$AAu?$AAt?$AAe?$AAr?$AA?$AA@ 10002580     ceshui:nsenum.obj
 0001:000015ac       ??_C@_1CC@PIFDOLHL@?$AAE?$AAx?$AAp?$AAl?$AAo?$AAr?$AAe?$AAr?$AA?2?$AAD?$AAe?$AAs?$AAk?$AAt?$AAo?$AAp?$AA?$AA@ 100025ac     ceshui:nsenum.obj
 0001:000015d0       ??_7CNameSpaceEnum@@6BIEnumIDList@@@ 100025d0     ceshui:nsenum.obj
 0001:000015ec       ??_7CNameSpaceEnum@@6BIEnumFilterEx@@@ 100025ec     ceshui:nsenum.obj
 0001:00001604       ??_7ZipFileSystemEnum@@6BIEnumIDList@@@ 10002604     ceshui:ZipFileSystemEnum.obj
 0001:00001620       ??_7ZipFileSystemEnum@@6BIEnumFilter@@@ 10002620     ceshui:ZipFileSystemEnum.obj
 0001:00001630       ??_7ZipFileInfo@ZipFileSystemEnum@@6B@ 10002630     ceshui:ZipFileSystemEnum.obj
 0001:0000163c       ?s_szREGShellSettings@CStartShellView@@0QBGB 1000263c     ceshui:startshellview.obj
 0001:00001670       ?s_szREGHasKeyboard@CStartShellView@@0QBGB 10002670     ceshui:startshellview.obj
 0001:00001688       ??_C@_1BM@DHELOIIL@?$AAS?$AAH?$AAG?$AAe?$AAt?$AAS?$AAy?$AAs?$AAC?$AAo?$AAl?$AAo?$AAr?$AA?$AA@ 10002688     ceshui:startshellview.obj
 0001:000016a8       ??_7CStartShellView@@6BIShellView@@@ 100026a8     ceshui:startshellview.obj
 0001:00001788       ??_7CStartShellView@@6BIOleCommandTarget@@@ 10002788     ceshui:startshellview.obj
 0001:0000179c       ??_7CStartShellView@@6BIOleInPlaceActiveObject@@@ 1000279c     ceshui:startshellview.obj
 0001:000017c4       ??_7CStartShellView@@6BIShellChangeNotify@@@ 100027c4     ceshui:startshellview.obj
 0001:000017d4       ??_7CStartShellView@@6BIDropSource@@@ 100027d4     ceshui:startshellview.obj
 0001:000017e8       ??_7CStartShellView@@6BIDropTarget@@@ 100027e8     ceshui:startshellview.obj
 0001:00001804       ??_7CStartShellView@@6BIEnumFilterEx@@@ 10002804     ceshui:startshellview.obj
 0001:0000181c       ??_7CStartShellView@@6BIShellListViewEx@@@ 1000281c     ceshui:startshellview.obj
 0001:00001848       ??_C@_1BK@NAKKEEKA@?$AAc?$AAo?$AAm?$AAm?$AAc?$AAt?$AAr?$AAl?$AA?4?$AAd?$AAl?$AAl?$AA?$AA@ 10002848     ceshui:startshellview.obj
 0001:00001864       ?m_szDesktopIni@CFileSystemEnum@@0QBGB 10002864     ceshui:fsenum.obj
 0001:0000187c       ??_7CFileSystemEnum@@6BIEnumIDList@@@ 1000287c     ceshui:fsenum.obj
 0001:00001898       ??_7CFileSystemEnum@@6BIEnumFilterEx@@@ 10002898     ceshui:fsenum.obj
 0001:000018b0       ?WC_DESKTOPVIEW@CDesktopView@@1QBGB 100028b0     ceshui:desktopview.obj
 0001:000018e0       ??_7CDesktopView@@6BIShellView@@@ 100028e0     ceshui:desktopview.obj
 0001:000019c4       ??_7CDesktopView@@6BIOleCommandTarget@@@ 100029c4     ceshui:desktopview.obj
 0001:000019d8       ??_7CDesktopView@@6BIOleInPlaceActiveObject@@@ 100029d8     ceshui:desktopview.obj
 0001:00001a00       ??_7CDesktopView@@6BIShellChangeNotify@@@ 10002a00     ceshui:desktopview.obj
 0001:00001a10       ??_7CDesktopView@@6BIDropSource@@@ 10002a10     ceshui:desktopview.obj
 0001:00001a24       ??_7CDesktopView@@6BIDropTarget@@@ 10002a24     ceshui:desktopview.obj
 0001:00001a40       ??_7CDesktopView@@6BIEnumFilterEx@@@ 10002a40     ceshui:desktopview.obj
 0001:00001a58       ??_7CDesktopView@@6BIShellListViewEx@@@ 10002a58     ceshui:desktopview.obj
 0001:00001a84       ??_C@_1BA@PICGEGJB@?$AAD?$AAI?$AAS?$AAP?$AAL?$AAA?$AAY?$AA?$AA@ 10002a84     ceshui:desktopview.obj
 0001:00001a94       ??_C@_19KEAKPOCH@?$AA?4?$AA2?$AAb?$AAp?$AA?$AA@ 10002a94     ceshui:desktopview.obj
 0001:00001aa0       ??_C@_1BM@GNBCOHIC@?$AAc?$AAp?$AAl?$AAm?$AAa?$AAi?$AAn?$AA?4?$AAc?$AAp?$AAl?$AA?0?$AA7?$AA?$AA@ 10002aa0     ceshui:desktopview.obj
 0001:00001abc       ??_C@_1BE@OLJKPLPN@?$AAH?$AAH?$AAT?$AAa?$AAs?$AAk?$AAB?$AAa?$AAr?$AA?$AA@ 10002abc     ceshui:desktopview.obj
 0001:00001ad0       ??_7CFileSystemDropTarget@@6B@ 10002ad0     ceshui:fsdrop.obj
 0001:00001af0       ??_7CNetworkRootView@@6BIShellView@@@ 10002af0     ceshui:netrootview.obj
 0001:00001bd4       ??_7CNetworkRootView@@6BIOleCommandTarget@@@ 10002bd4     ceshui:netrootview.obj
 0001:00001be8       ??_7CNetworkRootView@@6BIOleInPlaceActiveObject@@@ 10002be8     ceshui:netrootview.obj
 0001:00001c10       ??_7CNetworkRootView@@6BIShellChangeNotify@@@ 10002c10     ceshui:netrootview.obj
 0001:00001c20       ??_7CNetworkRootView@@6BIDropSource@@@ 10002c20     ceshui:netrootview.obj
 0001:00001c34       ??_7CNetworkRootView@@6BIDropTarget@@@ 10002c34     ceshui:netrootview.obj
 0001:00001c50       ??_7CNetworkRootView@@6BIEnumFilterEx@@@ 10002c50     ceshui:netrootview.obj
 0001:00001c68       ??_7CNetworkRootView@@6BIShellListViewEx@@@ 10002c68     ceshui:netrootview.obj
 0001:00001c94       ?CONTAINS_NAMESPACE_OBJECT@ShellDataTransfer@@2KB 10002c94     ceshui:datatrans.obj
 0001:00001c98       ?CONTAINS_COPY_DATA@ShellDataTransfer@@2KB 10002c98     ceshui:datatrans.obj
 0001:00001c9c       ?CONTAINS_CUT_DATA@ShellDataTransfer@@2KB 10002c9c     ceshui:datatrans.obj
 0001:00001ca0       ?RENAME_ON_COLLISION@ShellDataTransfer@@2KB 10002ca0     ceshui:datatrans.obj
 0001:00001ca4       ?NO_UNDO@ShellDataTransfer@@2KB 10002ca4     ceshui:datatrans.obj
 0001:00001ca8       ??_7CShellDataObject@@6B@  10002ca8     ceshui:datatrans.obj
 0001:00001cd8       ??_C@_1M@ELNLAPLA@?$AAp?$AAr?$AAi?$AAn?$AAt?$AA?$AA@ 10002cd8     ceshui:filemenu.obj
 0001:00001ce4       ??_C@_19LELMJPKF@?$AAe?$AAd?$AAi?$AAt?$AA?$AA@ 10002ce4     ceshui:filemenu.obj
 0001:00001cf0       ??_C@_19BDAJEHDN@?$AAo?$AAp?$AAe?$AAn?$AA?$AA@ 10002cf0     ceshui:filemenu.obj
 0001:00001cfc       ??_C@_1O@DMKCDJLF@?$AA?2?$AAS?$AAh?$AAe?$AAl?$AAl?$AA?$AA@ 10002cfc     ceshui:filemenu.obj
 0001:00001d0c       ??_7CFileMenu@@6B@         10002d0c     ceshui:filemenu.obj
 0001:00001d24       ?s_ScrollInterval@AutoScroll_t@@1HB 10002d24     ceshui:shelllistview.obj
 0001:00001d28       ?s_MinScrollVelocity@AutoScroll_t@@1HB 10002d28     ceshui:shelllistview.obj
 0001:00001d30       ??_7CShellListView@@6B@    10002d30     ceshui:shelllistview.obj
 0001:00001e28       ??_C@_1BM@FEGPDFAG@?$AAS?$AAy?$AAs?$AAL?$AAi?$AAs?$AAt?$AAV?$AAi?$AAe?$AAw?$AA3?$AA2?$AA?$AA@ 10002e28     ceshui:shelllistview.obj
 0001:00001e44       ?s_iKeyTSTAR@CGridListView@@1HB 10002e44     ceshui:gridlistview.obj
 0001:00001e48       ?s_iKeyTPOUND@CGridListView@@1HB 10002e48     ceshui:gridlistview.obj
 0001:00001e4c       ?s_bCutConstantAlpha@CGridListView@@1EB 10002e4c     ceshui:gridlistview.obj
 0001:00001e50       ??_7CGridListView@@6B@     10002e50     ceshui:gridlistview.obj
 0001:00001f48       ??_7TaskbarList_t@@6B@     10002f48     taskbarlist:taskbarlist.obj
 0001:00001f6c       ??_C@_1BE@OCKILLDG@?$AAS?$AAH?$AAE?$AAL?$AAL?$AAH?$AAO?$AAO?$AAK?$AA?$AA@ 10002f6c     taskbarlist:taskbarlist.obj
 0001:00001f80       ??_C@_13LBAGMAIH@?$AA?6?$AA?$AA@ 10002f80     folderattributes:iniutil.obj
 0001:00001f84       ??_C@_15HPOENKKJ@?$AAr?$AA?$CL?$AA?$AA@ 10002f84     folderattributes:iniutil.obj
 0001:00001f8c       ??_C@_13BPINEIPE@?$AAr?$AA?$AA@ 10002f8c     folderattributes:iniutil.obj
 0001:00001f90       ??_C@_1BI@LCJLCPGF@?$AAR?$AAe?$AAc?$AAy?$AAc?$AAl?$AAe?$AA?5?$AAB?$AAi?$AAn?$AA?$AA@ 10002f90     ceshuistd:properties.obj
 0001:00001fa8       ?g_fRecycleBinIsAvailable@@3HB 10002fa8     ceshrecbin:recbin.obj
 0001:00001fac       ?BITBUCKET@CRecycleBin@@0QBGB 10002fac     ceshrecbin:recbin.obj
 0001:00001fc0       ?DBVOLUMENAME@CRecycleBin@@0QBGB 10002fc0     ceshrecbin:recbin.obj
 0001:00001fdc       ?EXPLORER@CRecycleBin@@0QBGB 10002fdc     ceshrecbin:recbin.obj
 0001:00001ff0       ?RECYCLEINFO@CRecycleBin@@0QBGB 10002ff0     ceshrecbin:recbin.obj
 0001:00002008       ?RECYCLE_BIN_ENABLEDBFILE@CRecycleBin@@0QBGB 10003008     ceshrecbin:recbin.obj
 0001:00002038       ?RECYCLE_BIN_FLUSH@CRecycleBin@@0QBGB 10003038     ceshrecbin:recbin.obj
 0001:00002058       ??_7CRecycleBin@@6BIShellRecycleBin@@@ 10003058     ceshrecbin:recbin.obj
 0001:000020b0       ??_7CRecycleBin@@6BIEnumIDList@@@ 100030b0     ceshrecbin:recbin.obj
 0001:000020cc       ??_C@_1BA@FKJEBGCL@?$AA?$CF?$AAs?$AA?2?$AAt?$AAk?$AA?$CF?$AAx?$AA?$AA@ 100030cc     ceshrecbin:recbin.obj
 0001:000020dc       ??_C@_1O@CFJIAAME@?$AAD?$AAi?$AAa?$AAl?$AAo?$AAg?$AA?$AA@ 100030dc     ceshrecbin:recbin.obj
 0001:000020ec       ??_C@_19CBCNDKNF@?$AA?$CF?$AAd?$AA?$CF?$AA?$CF?$AA?$AA@ 100030ec     ceshrecbin:recbinprop.obj
 0001:000020f8       ??_7CRecycleBinFolder@@6BIShellFolder@@@ 100030f8     ceshrecbin:recyclefolder.obj
 0001:0000212c       ??_7CRecycleBinFolder@@6BIShellDetails@@@ 1000312c     ceshrecbin:recyclefolder.obj
 0001:00002140       ??_7CRecycleBinFolder@@6BIPersistFolder@@@ 10003140     ceshrecbin:recyclefolder.obj
 0001:00002154       ??_7CRecycleBinMenu@@6B@   10003154     ceshrecbin:recbinmenu.obj
 0001:0000216c       ??_7CRecBinDropTarget@@6B@ 1000316c     ceshrecbin:recbindrop.obj
 0001:000021b8       ??_7CRecycleBinView@@6BIShellView@@@ 100031b8     ceshrecbin:recbinview.obj
 0001:00002298       ??_7CRecycleBinView@@6BIOleCommandTarget@@@ 10003298     ceshrecbin:recbinview.obj
 0001:000022ac       ??_7CRecycleBinView@@6BIOleInPlaceActiveObject@@@ 100032ac     ceshrecbin:recbinview.obj
 0001:000022d4       ??_7CRecycleBinView@@6BIShellChangeNotify@@@ 100032d4     ceshrecbin:recbinview.obj
 0001:000022e4       ??_7CRecycleBinView@@6BIDropSource@@@ 100032e4     ceshrecbin:recbinview.obj
 0001:000022f8       ??_7CRecycleBinView@@6BIDropTarget@@@ 100032f8     ceshrecbin:recbinview.obj
 0001:00002314       ??_7CRecycleBinView@@6BIEnumFilterEx@@@ 10003314     ceshrecbin:recbinview.obj
 0001:0000232c       ??_7CRecycleBinView@@6BIShellListViewEx@@@ 1000332c     ceshrecbin:recbinview.obj
 0001:00002358       ?m_dwThreadDeathTimeout@CHandleArray@@1KB 10003358     handlearray:handlearray.obj
 0001:0000235c       ??_7CNotifiable@@6B@       1000335c     handlearray:handlearray.obj
 0001:00002374       IID_IMalloc                10003374     uuid:dcomuuid.obj
 0001:00002384       IID_IPersist               10003384     uuid:dcomuuid.obj
 0001:00002394       IID_IDataObject            10003394     uuid:dcomuuid.obj
 0001:000023a4       IID_IOleControlSite        100033a4     uuid:dcomuuid.obj
 0001:000023b4       IID_IOleWindow             100033b4     uuid:dcomuuid.obj
 0001:000023c4       IID_IOleInPlaceUIWindow    100033c4     uuid:dcomuuid.obj
 0001:000023d4       IID_IOleInPlaceActiveObject 100033d4     uuid:dcomuuid.obj
 0001:000023e4       IID_IDropSource            100033e4     uuid:dcomuuid.obj
 0001:000023f4       IID_IDropTarget            100033f4     uuid:dcomuuid.obj
 0001:00002404       IID_IUnknown               10003404     uuid:dcomuuid.obj
 0001:00002414       IID_IClassFactory          10003414     uuid:dcomuuid.obj
 0001:00002424       IID_IOleCommandTarget      10003424     uuid:dcomuuid.obj
 0001:00002434       IID_IServiceProvider       10003434     uuid:dcomuuid.obj
 0001:00002444       IID_ITaskbarList           10003444     uuid:shelluuid.obj
 0001:00002454       IID_ITaskbarList2          10003454     uuid:shelluuid.obj
 0001:00002464       CLSID_TaskbarList          10003464     uuid:shelluuid.obj
 0001:00002474       ??_C@_1BK@HMCKJION@?$AAa?$AAy?$AAg?$AAs?$AAh?$AAe?$AAl?$AAl?$AA?4?$AAd?$AAl?$AAl?$AA?$AA@ 10003474     aygutils:utils.obj
 0001:000024b4       PathIsRestrictedEx         100034b4 f   ceshapi:thunks.obj
 0001:000024b8       PathIsRestricted           100034b8 f   ceshapi:thunks.obj
 0001:000024bc       SHIsFileOperationRestrictedEx 100034bc f   ceshapi:thunks.obj
 0001:000024c0       SHIsFileOperationRestricted 100034c0 f   ceshapi:thunks.obj
 0001:000024c4       SHIsRestrictedProcess      100034c4 f   ceshapi:thunks.obj
 0001:000024c8       ?SHGetCEString@@YAJKQAG@Z  100034c8 f   ceshapi:thunks.obj
 0001:000024cc       ?SHUnpackDirID@@YAJPAGK0@Z 100034cc f   ceshapi:thunks.obj
 0001:000024d0       SHCanonicalizePath         100034d0 f   ceshapi:thunks.obj
 0001:000025f0       ?GetHInstance@@YAPAUHINSTANCE__@@XZ 100035f0 f i ceshapi:api.obj
 0001:00002640       SHGetDocumentsFolder       10003640 f   ceshapi:api.obj
 0001:0000277c       SHGetMalloc                1000377c f   ceshapi:api.obj
 0001:000027cc       SHGetSpecialFolderLocation 100037cc f   ceshapi:api.obj
 0001:00002944       SHBindToParent             10003944 f   ceshapi:api.obj
 0001:00002ae4       StrRetToBufW               10003ae4 f   ceshapi:api.obj
 0001:00002bdc       ?GetFileNameAndAttributes@@YAJPBGPAU_SHFILEINFOW@@IK@Z 10003bdc f   ceshapi:api.obj
 0001:00002d74       ?GetNamespaceNameAndAttributes@@YAJPBGPAU_SHFILEINFOW@@I@Z 10003d74 f   ceshapi:api.obj
 0001:00002f88       SHShowOutOfMemory          10003f88 f   ceshapi:api.obj
 0001:00002ff0       SHBindToObject             10003ff0 f   ceshapi:api.obj
 0001:000030b0       ?SHLoadDIBitmapBrush@@YAPAUHBRUSH__@@PBG@Z 100040b0 f   ceshapi:api.obj
 0001:000031ac       SHGetPathFromIDList        100041ac f   ceshapi:api.obj
 0001:000032d8       SHGetFileInfo              100042d8 f   ceshapi:api.obj
 0001:00003604       SHAddToRecentDocs          10004604 f   ceshapi:api.obj
 0001:000037c8       ?get_lock@?$singleton@V?$free_list@$0GE@Vallocator@ce@@@ce@@$03V?$static_allocator@V?$free_list@$0GE@Vallocator@ce@@@ce@@$03@2@@ce@@KAAAVcritical_section@2@XZ 100047c8 f i ceshapi:api.obj
 0001:0000381c       ?AddTail@CList@@QAAPAUtagLISTOBJ@@PAU2@@Z 1000481c f i ceshapi:drag.obj
 0001:00003884       ?Disconnect@CList@@QAAPAUtagLISTOBJ@@PAU2@@Z 10004884 f i ceshapi:drag.obj
 0001:0000390c       ??1CDropTargetList@@QAA@XZ 1000490c f   ceshapi:drag.obj
 0001:000039cc       ?GetControlKeysState@@YAGH@Z 100049cc f   ceshapi:drag.obj
 0001:00003a1c       ?DragDrop_WndProc@@YAJPAUHWND__@@IIJ@Z 10004a1c f   ceshapi:drag.obj
 0001:00003a34       ?HandleMessages@CDragOperation@@QAAHXZ 10004a34 f   ceshapi:drag.obj
 0001:00003cf0       ?HandleFeedBack@CDragOperation@@QAAHJ@Z 10004cf0 f   ceshapi:drag.obj
 0001:00003d5c       ?DragOver@CDragOperation@@QAAHXZ 10004d5c f   ceshapi:drag.obj
 0001:00003e30       ?CompleteDrop@CDragOperation@@QAAJXZ 10004e30 f   ceshapi:drag.obj
 0001:00003fbc       ?QueryInterface@CNullDropTarget@@UAAJABU_GUID@@PAPAX@Z 10004fbc f   ceshapi:drag.obj
 0001:0000402c       ?AddRef@CNullDropTarget@@UAAKXZ 1000502c f   ceshapi:drag.obj
 0001:00004040       ?Release@CNullDropTarget@@UAAKXZ 10005040 f   ceshapi:drag.obj
 0001:00004068       ?DragEnter@CNullDropTarget@@UAAJPAUIDataObject@@KU_POINTL@@PAK@Z 10005068 f   ceshapi:drag.obj
 0001:0000409c       ?DragOver@CNullDropTarget@@UAAJKU_POINTL@@PAK@Z 1000509c f   ceshapi:drag.obj
 0001:000040d0       ?DragLeave@CNullDropTarget@@UAAJXZ 100050d0 f   ceshapi:drag.obj
 0001:000040e4       ?Drop@CNullDropTarget@@UAAJPAUIDataObject@@KU_POINTL@@PAK@Z 100050e4 f   ceshapi:drag.obj
 0001:000040fc       ?DropTarget_SubClassProc@@YAJPAUHWND__@@IIJ@Z 100050fc f   ceshapi:drag.obj
 0001:0000425c       ?AddDropTarget@CDropTargetList@@QAAHPAUHWND__@@PAUIDropTarget@@@Z 1000525c f   ceshapi:drag.obj
 0001:000042dc       ?RemoveDropTarget@CDropTargetList@@QAAHPAUHWND__@@@Z 100052dc f   ceshapi:drag.obj
 0001:0000433c       ?UpdateTarget@CDragOperation@@QAAHXZ 1000533c f   ceshapi:drag.obj
 0001:00004558       RegisterDragDrop           10005558 f   ceshapi:drag.obj
 0001:00004604       RevokeDragDrop             10005604 f   ceshapi:drag.obj
 0001:00004684       ??0CDragOperation@@QAA@PAUIDataObject@@PAUIDropSource@@KPAKAAJ@Z 10005684 f   ceshapi:drag.obj
 0001:00004784       DoDragDrop                 10005784 f   ceshapi:drag.obj
 0001:000048e0       ?_BFSFGetIDListFromTreeItem@@YAPFAU_ITEMIDLIST@@PAUHWND__@@PAU_TREEITEM@@@Z 100058e0 f   ceshapi:browse.obj
 0001:00004a10       ?_BFSFUpdateISHCache@@YAPFAU_ITEMIDLIST@@PAU_bfsf@@PAU_TREEITEM@@PFAU1@@Z 10005a10 f   ceshapi:browse.obj
 0001:00004b4c       ?_BFSFAddItemToTree@@YAPAU_TREEITEM@@PAUHWND__@@PAU1@PFAU_ITEMIDLIST@@H@Z 10005b4c f   ceshapi:browse.obj
 0001:00004ba8       ?_BFSFTreeCompare@@YAHJJJ@Z 10005ba8 f   ceshapi:browse.obj
 0001:00004bdc       ?_BFSFFindItem@@YAPAU_TREEITEM@@PAUHWND__@@PFAU_ITEMIDLIST@@@Z 10005bdc f   ceshapi:browse.obj
 0001:00004ca4       ?_BFSFSelectPidl@@YAHPAU_bfsf@@PFBU_ITEMIDLIST@@@Z 10005ca4 f   ceshapi:browse.obj
 0001:00004e2c       ?_BFSFHandleSelChanged@@YAXPAU_bfsf@@PAUtagNMTREEVIEWW@@@Z 10005e2c f   ceshapi:browse.obj
 0001:00004efc       ?_BFSFGetDisplayInfo@@YAXPAU_bfsf@@PAUtagTVDISPINFOW@@@Z 10005efc f   ceshapi:browse.obj
 0001:00005114       ?_BrowseForFolderOnBFSFCommand@@YAXPAU_bfsf@@HPAUHWND__@@I@Z 10006114 f   ceshapi:browse.obj
 0001:00005378       ?_BFSFSort@@YAXPAU_bfsf@@PAU_TREEITEM@@PAUIShellFolder@@@Z 10006378 f   ceshapi:browse.obj
 0001:000053d8       ?_BFSFHandleItemExpanding@@YAHPAU_bfsf@@PAUtagNMTREEVIEWW@@@Z 100063d8 f   ceshapi:browse.obj
 0001:00005628       ?_BFSFSetSelection@@YAHPAU_bfsf@@HJ@Z 10006628 f   ceshapi:browse.obj
 0001:00005704       ?_BrowseForFolderOnBFSFInitDlg@@YAHPAUHWND__@@0J@Z 10006704 f   ceshapi:browse.obj
 0001:00005a30       ?_BrowseForFolderBFSFDlgProc@@YAHPAUHWND__@@IIJ@Z 10006a30 f   ceshapi:browse.obj
 0001:00005bec       SHBrowseForFolder          10006bec f   ceshapi:browse.obj
 0001:00005cd0       ?Shortcut_SplitArgs@@YAXPAGPAPAG@Z 10006cd0 f   ceshapi:shortcut.obj
 0001:00005d48       ?Shortcut_FixRegisteredAppInfoTarget@@YAHPAGI@Z 10006d48 f   ceshapi:shortcut.obj
 0001:00005e78       ?Shortcut_GetIconsFromArgs@@YAHPAG0IPAPAG10I@Z 10006e78 f   ceshapi:shortcut.obj
 0001:00006028       ?Shortcut_GetTargetEx@@YAHPBGPAGIPAPAG21IH@Z 10007028 f   ceshapi:shortcut.obj
 0001:00006388       SHGetShortcutTarget        10007388 f   ceshapi:shortcut.obj
 0001:000063b8       SHGetShortcutTargetEx      100073b8 f   ceshapi:shortcut.obj
 0001:000063e8       SHGetShortcutTargetClassName 100073e8 f   ceshapi:shortcut.obj
 0001:00006428       SHGetShortcutTargetI       10007428 f   ceshapi:shortcut.obj
 0001:0000645c       ?Shortcut_Write@@YAHPAXPBG@Z 1000745c f   ceshapi:shortcut.obj
 0001:000067a8       ?Shortcut_CreateEx@@YAHPBG00PAGPAKKH@Z 100077a8 f   ceshapi:shortcut.obj
 0001:00006a60       SHCreateShortcut           10007a60 f   ceshapi:shortcut.obj
 0001:00006b50       SHCreateShortcutEx         10007b50 f   ceshapi:shortcut.obj
 0001:00006c28       ??_ECCalculateTotalSize@@UAAPAXI@Z 10007c28 f i ceshapi:shfileop.obj
 0001:00006c28       ??_GCCalculateTotalSize@@UAAPAXI@Z 10007c28 f i ceshapi:shfileop.obj
 0001:00006c4c       ??_ECFileOperation@@UAAPAXI@Z 10007c4c f i ceshapi:shfileop.obj
 0001:00006c4c       ??_GCFileOperation@@UAAPAXI@Z 10007c4c f i ceshapi:shfileop.obj
 0001:00006c70       ?SHFO_ERR_INROM@CRename@@MAAIXZ 10007c70 f i ceshapi:shfileop.obj
 0001:00006c78       ?TraverseBack@CDirectoryWalker@@SAPBGPBGK@Z 10007c78 f   ceshapi:shfileop.obj
 0001:00006d70       ?FindParentDirectory@CDirectoryWalker@@SAHPBGPAGI@Z 10007d70 f   ceshapi:shfileop.obj
 0001:00006e40       ?PathIsVolumeRoot@CDirectoryWalker@@SAHPBG@Z 10007e40 f   ceshapi:shfileop.obj
 0001:00006f08       ?doDirectoryAction@CCalculateTotalSize@@UAAJW4WalkReason@WalkAction@CDirectoryWalker@@PBG@Z 10007f08 f   ceshapi:shfileop.obj
 0001:00006f30       ?doFileAction@CCalculateTotalSize@@UAAJPBGAAU_WIN32_FIND_DATAW@@@Z 10007f30 f   ceshapi:shfileop.obj
 0001:00006f8c       ??0CProgressUI@@IAA@XZ     10007f8c f   ceshapi:shfileop.obj
 0001:00006fbc       ?dialogProc@CProgressUI@@MAAHPAUHWND__@@IIJ@Z 10007fbc f   ceshapi:shfileop.obj
 0001:000070c8       ?_dialogThread@CProgressUI@@KAKPAX@Z 100080c8 f   ceshapi:shfileop.obj
 0001:000070dc       ?_dialogProc@CProgressUI@@KAHPAUHWND__@@IIJ@Z 100080dc f   ceshapi:shfileop.obj
 0001:00007154       ?createDialog@CProgressUI@@UAAXPAUHWND__@@@Z 10008154 f   ceshapi:shfileop.obj
 0001:00007194       ?destroyDialog@CProgressUI@@UAAXXZ 10008194 f   ceshapi:shfileop.obj
 0001:000071fc       ?showDialog@CProgressUI@@UAAXXZ 100081fc f   ceshapi:shfileop.obj
 0001:000072dc       ?hideDialog@CProgressUI@@UAAXXZ 100082dc f   ceshapi:shfileop.obj
 0001:00007310       ?isVisible@CProgressUI@@UAAHXZ 10008310 f   ceshapi:shfileop.obj
 0001:00007330       ?replaceCachedString@CProgressUI@@MAAXPAPAGPBG@Z 10008330 f   ceshapi:shfileop.obj
 0001:000073dc       ?setTitleString@CProgressUI@@UAAXPBG@Z 100083dc f   ceshapi:shfileop.obj
 0001:0000742c       ?setInfoString@CProgressUI@@UAAXPBG@Z 1000842c f   ceshapi:shfileop.obj
 0001:0000747c       ?setProgressPercent@CProgressUI@@UAAXK@Z 1000847c f   ceshapi:shfileop.obj
 0001:000074a4       ?setTimeInfoString@CProgressUI@@UAAXPBG@Z 100084a4 f   ceshapi:shfileop.obj
 0001:000074cc       ?calculateTimeRemaining@CProgressUI@@MAA_KK@Z 100084cc f   ceshapi:shfileop.obj
 0001:00007584       ?updateProgress@CProgressUI@@UAAXK@Z 10008584 f   ceshapi:shfileop.obj
 0001:0000770c       ?validate@CFileOperation@@MAAJXZ 1000870c f   ceshapi:shfileop.obj
 0001:00007748       ?doSpecialFolderCheck@CFileOperation@@IAAJPBG@Z 10008748 f   ceshapi:shfileop.obj
 0001:0000796c       ?showError@CFileOperation@@MAAXJ@Z 1000896c f   ceshapi:shfileop.obj
 0001:000079f0       ?execute@CFileOperation@@QAAJPAU_SHFILEOPSTRUCTW@@@Z 100089f0 f   ceshapi:shfileop.obj
 0001:00007b04       ??0CWalkingFileOperation@@QAA@XZ 10008b04 f   ceshapi:shfileop.obj
 0001:00007b68       ?validate@CWalkingFileOperation@@MAAJXZ 10008b68 f   ceshapi:shfileop.obj
 0001:00007c68       ?setCurrentFrom@CWalkingFileOperation@@MAAJPBG@Z 10008c68 f   ceshapi:shfileop.obj
 0001:00007cd4       ?ProgressCallback@CCopyMove@@KAKT_LARGE_INTEGER@@000KKPAX11@Z 10008cd4 f   ceshapi:shfileop.obj
 0001:00007da8       ?GetUniquePathName@CCopyMove@@MAAJPBG00PAGI@Z 10008da8 f   ceshapi:shfileop.obj
 0001:00008024       ?createDirectory@CCopyMove@@IAAJPBGH@Z 10009024 f   ceshapi:shfileop.obj
 0001:0000840c       ?confirmTo@CCopyMove@@IAAJPBGPAGI@Z 1000940c f   ceshapi:shfileop.obj
 0001:000085fc       ?validate@CCopyMove@@MAAJXZ 100095fc f   ceshapi:shfileop.obj
 0001:0000874c       ?setCurrentFrom@CCopyMove@@MAAJPBG@Z 1000974c f   ceshapi:shfileop.obj
 0001:00008b78       ?buildTo@CCopyMove@@IBAJPAGKPBG@Z 10009b78 f   ceshapi:shfileop.obj
 0001:00008d10       ?doDirectoryAction@CCopy@@UAAJW4WalkReason@WalkAction@CDirectoryWalker@@PBG@Z 10009d10 f   ceshapi:shfileop.obj
 0001:00008e48       ?doFileAction@CCopy@@UAAJPBGAAU_WIN32_FIND_DATAW@@@Z 10009e48 f   ceshapi:shfileop.obj
 0001:00009138       ?showError@CCopy@@MAAXJ@Z  1000a138 f   ceshapi:shfileop.obj
 0001:000094a4       ?setCurrentFrom@CMove@@MAAJPBG@Z 1000a4a4 f   ceshapi:shfileop.obj
 0001:000094f4       ?doDirectoryAction@CMove@@UAAJW4WalkReason@WalkAction@CDirectoryWalker@@PBG@Z 1000a4f4 f   ceshapi:shfileop.obj
 0001:00009664       ?doFileAction@CMove@@UAAJPBGAAU_WIN32_FIND_DATAW@@@Z 1000a664 f   ceshapi:shfileop.obj
 0001:00009b54       ?showError@CMove@@MAAXJ@Z  1000ab54 f   ceshapi:shfileop.obj
 0001:00009ec0       ?validate@CDelete@@MAAJXZ  1000aec0 f   ceshapi:shfileop.obj
 0001:0000a14c       ?setCurrentFrom@CDelete@@MAAJPBG@Z 1000b14c f   ceshapi:shfileop.obj
 0001:0000a19c       ?doDirectoryAction@CDelete@@UAAJW4WalkReason@WalkAction@CDirectoryWalker@@PBG@Z 1000b19c f   ceshapi:shfileop.obj
 0001:0000a330       ?doFileAction@CDelete@@UAAJPBGAAU_WIN32_FIND_DATAW@@@Z 1000b330 f   ceshapi:shfileop.obj
 0001:0000a748       ?showError@CDelete@@MAAXJ@Z 1000b748 f   ceshapi:shfileop.obj
 0001:0000aab4       ?validate@CRename@@MAAJXZ  1000bab4 f   ceshapi:shfileop.obj
 0001:0000ad7c       ?showError@CRename@@MAAXJ@Z 1000bd7c f   ceshapi:shfileop.obj
 0001:0000b13c       ?doOperation@CRename@@MAAJXZ 1000c13c f   ceshapi:shfileop.obj
 0001:0000b2e0       ??_GCRename@@UAAPAXI@Z     1000c2e0 f i ceshapi:shfileop.obj
 0001:0000b2e0       ??_ECRename@@UAAPAXI@Z     1000c2e0 f i ceshapi:shfileop.obj
 0001:0000b30c       ?Walk@CDirectoryWalker@@SAJPAGIPAUWalkAction@1@@Z 1000c30c f   ceshapi:shfileop.obj
 0001:0000b570       ??1CProgressUI@@UAA@XZ     1000c570 f   ceshapi:shfileop.obj
 0001:0000b5e4       ?dialogThread@CProgressUI@@MAAKXZ 1000c5e4 f   ceshapi:shfileop.obj
 0001:0000b6ec       ??1CWalkingFileOperation@@UAA@XZ 1000c6ec f   ceshapi:shfileop.obj
 0001:0000b760       ?initialize@CWalkingFileOperation@@MAAJXZ 1000c760 f   ceshapi:shfileop.obj
 0001:0000b924       ?doOperation@CWalkingFileOperation@@MAAJXZ 1000c924 f   ceshapi:shfileop.obj
 0001:0000ba1c       ?initialize@CCopyMove@@MAAJXZ 1000ca1c f   ceshapi:shfileop.obj
 0001:0000bb3c       ?doOperation@CDelete@@MAAJXZ 1000cb3c f   ceshapi:shfileop.obj
 0001:0000bb7c       ??1CCopyMove@@UAA@XZ       1000cb7c f i ceshapi:shfileop.obj
 0001:0000bbb8       ??_GCCopyMove@@UAAPAXI@Z   1000cbb8 f i ceshapi:shfileop.obj
 0001:0000bbb8       ??_ECCopyMove@@UAAPAXI@Z   1000cbb8 f i ceshapi:shfileop.obj
 0001:0000bbdc       ?SHFO_ERR_INROM@CDelete@@MAAIXZ 1000cbdc f i ceshapi:shfileop.obj
 0001:0000bbe4       ?SHFO_PROGRESS_PREPARING@CDelete@@MAAIXZ 1000cbe4 f i ceshapi:shfileop.obj
 0001:0000bbec       ??1CDelete@@UAA@XZ         1000cbec f i ceshapi:shfileop.obj
 0001:0000bc38       ??_ECDelete@@UAAPAXI@Z     1000cc38 f i ceshapi:shfileop.obj
 0001:0000bc38       ??_GCDelete@@UAAPAXI@Z     1000cc38 f i ceshapi:shfileop.obj
 0001:0000bc5c       ?SHFO_ERR_INROM@CCopy@@MAAIXZ 1000cc5c f i ceshapi:shfileop.obj
 0001:0000bc64       ?SHFO_PROGRESS_PREPARING@CCopy@@MAAIXZ 1000cc64 f i ceshapi:shfileop.obj
 0001:0000bc6c       ?SHFO_ERR_INROM@CMove@@MAAIXZ 1000cc6c f i ceshapi:shfileop.obj
 0001:0000bc74       ?SHFO_PROGRESS_PREPARING@CMove@@MAAIXZ 1000cc74 f i ceshapi:shfileop.obj
 0001:0000bc7c       ??_GCProgressUI@@UAAPAXI@Z 1000cc7c f i ceshapi:shfileop.obj
 0001:0000bc7c       ??_ECProgressUI@@UAAPAXI@Z 1000cc7c f i ceshapi:shfileop.obj
 0001:0000bca0       ??_GCWalkingFileOperation@@UAAPAXI@Z 1000cca0 f i ceshapi:shfileop.obj
 0001:0000bca0       ??_ECWalkingFileOperation@@UAAPAXI@Z 1000cca0 f i ceshapi:shfileop.obj
 0001:0000bcc4       SHFileOperationW           1000ccc4 f   ceshapi:shfileop.obj
 0001:0000be34       ??_ECCopy@@UAAPAXI@Z       1000ce34 f i ceshapi:shfileop.obj
 0001:0000be34       ??_GCCopy@@UAAPAXI@Z       1000ce34 f i ceshapi:shfileop.obj
 0001:0000be58       ??_GCMove@@UAAPAXI@Z       1000ce58 f i ceshapi:shfileop.obj
 0001:0000be58       ??_ECMove@@UAAPAXI@Z       1000ce58 f i ceshapi:shfileop.obj
 0001:0000be7c       ?GetDPIHInstance@@YAPAUHINSTANCE__@@XZ 1000ce7c f i ceshapi:fileopen.obj
 0001:0000bec4       ?ContextSensitiveHelp@FileOpenDlg_t@@UAAJH@Z 1000cec4 f i ceshapi:fileopen.obj
 0001:0000bed0       ?EnableModelessSB@FileOpenDlg_t@@UAAJH@Z 1000ced0 f i ceshapi:fileopen.obj
 0001:0000bedc       ?GetControlWindow@FileOpenDlg_t@@UAAJIPAPAUHWND__@@@Z 1000cedc f i ceshapi:fileopen.obj
 0001:0000bee8       ?GetViewStateStream@FileOpenDlg_t@@UAAJKPAPAUIStream@@@Z 1000cee8 f i ceshapi:fileopen.obj
 0001:0000bef4       ?InsertMenusSB@FileOpenDlg_t@@UAAJPAUHMENU__@@PAUtagOleMenuGroupWidths@@@Z 1000cef4 f i ceshapi:fileopen.obj
 0001:0000bf00       ?OnViewWindowActive@FileOpenDlg_t@@UAAJPAUIShellView@@@Z 1000cf00 f i ceshapi:fileopen.obj
 0001:0000bf0c       ?QueryActiveShellView@FileOpenDlg_t@@UAAJPAPAUIShellView@@@Z 1000cf0c f i ceshapi:fileopen.obj
 0001:0000bf18       ?RemoveMenusSB@FileOpenDlg_t@@UAAJPAUHMENU__@@@Z 1000cf18 f i ceshapi:fileopen.obj
 0001:0000bf24       ?SendControlMsg@FileOpenDlg_t@@UAAJIIIJPAJ@Z 1000cf24 f i ceshapi:fileopen.obj
 0001:0000bf30       ?SetMenuSB@FileOpenDlg_t@@UAAJPAUHMENU__@@PAXPAUHWND__@@@Z 1000cf30 f i ceshapi:fileopen.obj
 0001:0000bf3c       ?SetStatusTextSB@FileOpenDlg_t@@UAAJPBG@Z 1000cf3c f i ceshapi:fileopen.obj
 0001:0000bf48       ?SetToolbarItems@FileOpenDlg_t@@UAAJPAU_TBBUTTON@@II@Z 1000cf48 f i ceshapi:fileopen.obj
 0001:0000bf54       ?TranslateAcceleratorSB@FileOpenDlg_t@@UAAJPAUtagMSG@@G@Z 1000cf54 f i ceshapi:fileopen.obj
 0001:0000bf60       ?QueryStatus@FileOpenDlg_t@@UAAJPBU_GUID@@KQAU_tagOLECMD@@PAU_tagOLECMDTEXT@@@Z 1000cf60 f i ceshapi:fileopen.obj
 0001:0000bf6c       ?CenterWindowSIPAware@FileOpenDlg_t@@IAAHPAUHWND__@@H@Z 1000cf6c f   ceshapi:fileopen.obj
 0001:0000c09c       ?BUTTONSIZE@@YAHPBU_TBBUTTON@@HH@Z 1000d09c f i ceshapi:fileopen.obj
 0001:0000c0fc       ?DestroyActiveView@FileOpenDlg_t@@IAAXXZ 1000d0fc f   ceshapi:fileopen.obj
 0001:0000c20c       ?DrawPathBanner@FileOpenDlg_t@@IAAXPAUHDC__@@PAUtagRECT@@@Z 1000d20c f   ceshapi:fileopen.obj
 0001:0000c3cc       ?HaveSIP@FileOpenDlg_t@@IAAHXZ 1000d3cc f   ceshapi:fileopen.obj
 0001:0000c418       ?InitFilterBox@FileOpenDlg_t@@IAAKXZ 1000d418 f   ceshapi:fileopen.obj
 0001:0000c574       ?InitGlobals@FileOpenDlg_t@@IAAHXZ 1000d574 f   ceshapi:fileopen.obj
 0001:0000c6d0       ?IsBrowsableItem@FileOpenDlg_t@@IAAHPAUIShellFolder@@PFBU_ITEMIDLIST@@PAPFAU3@@Z 1000d6d0 f   ceshapi:fileopen.obj
 0001:0000c8dc       ?NavigateToFolder@FileOpenDlg_t@@IAAJPBG@Z 1000d8dc f   ceshapi:fileopen.obj
 0001:0000ca60       ?NotifyTypeChange@FileOpenDlg_t@@IAAHXZ 1000da60 f   ceshapi:fileopen.obj
 0001:0000caf4       ?ProcessDots@FileOpenDlg_t@@IAAHPBGPAG0@Z 1000daf4 f   ceshapi:fileopen.obj
 0001:0000ccfc       ?SetDefaultExtension@FileOpenDlg_t@@IAAHXZ 1000dcfc f   ceshapi:fileopen.obj
 0001:0000cdf4       ?UnInitGlobals@FileOpenDlg_t@@IAAXXZ 1000ddf4 f   ceshapi:fileopen.obj
 0001:0000ce90       ?UpdateToolbar@FileOpenDlg_t@@IAAXPAUHWND__@@@Z 1000de90 f   ceshapi:fileopen.obj
 0001:0000cf74       ?StaticSubclassProc@FileOpenDlg_t@@KAJPAUHWND__@@IIJ@Z 1000df74 f   ceshapi:fileopen.obj
 0001:0000d0e4       ?TTAddRef@FileOpenDlg_t@@KAKH@Z 1000e0e4 f   ceshapi:fileopen.obj
 0001:0000d178       ?TTRelease@FileOpenDlg_t@@KAKXZ 1000e178 f   ceshapi:fileopen.obj
 0001:0000d1ac       ?QueryInterface@FileOpenDlg_t@@UAAJABU_GUID@@PAPAX@Z 1000e1ac f   ceshapi:fileopen.obj
 0001:0000d26c       ?AddRef@FileOpenDlg_t@@UAAKXZ 1000e26c f   ceshapi:fileopen.obj
 0001:0000d280       ?GetWindow@FileOpenDlg_t@@UAAJPAPAUHWND__@@@Z 1000e280 f   ceshapi:fileopen.obj
 0001:0000d29c       ?Exec@FileOpenDlg_t@@UAAJPBU_GUID@@KKPAUtagVARIANT@@1@Z 1000e29c f   ceshapi:fileopen.obj
 0001:0000d2e4       ?FindNameInClassesRoot@FileOpenDlg_t@@KAHPBG0I@Z 1000e2e4 f   ceshapi:fileopen.obj
 0001:0000d41c       ?GetParsingName@FileOpenDlg_t@@KAHPBGPAGPAI@Z 1000e41c f   ceshapi:fileopen.obj
 0001:0000d83c       ?QueryInterface@FileOpenDlg_t@@W3AAJABU_GUID@@PAPAX@Z 1000e83c f i ceshapi:fileopen.obj
 0001:0000d844       ?AddRef@FileOpenDlg_t@@W3AAKXZ 1000e844 f i ceshapi:fileopen.obj
 0001:0000d84c       ?CreateCommandBar@FileOpenDlg_t@@IAAHXZ 1000e84c f   ceshapi:fileopen.obj
 0001:0000db30       ?HandleListViewNotify@FileOpenDlg_t@@IAAHIJPAJ@Z 1000eb30 f   ceshapi:fileopen.obj
 0001:0000dd90       ?HandleOK@FileOpenDlg_t@@IAAHXZ 1000ed90 f   ceshapi:fileopen.obj
 0001:0000e878       ?InitDialog@FileOpenDlg_t@@IAAHPAUHWND__@@@Z 1000f878 f   ceshapi:fileopen.obj
 0001:0000ead8       ?ViewSubclassProc@FileOpenDlg_t@@KAJPAUHWND__@@IIJ@Z 1000fad8 f   ceshapi:fileopen.obj
 0001:0000eb98       ?Release@FileOpenDlg_t@@UAAKXZ 1000fb98 f   ceshapi:fileopen.obj
 0001:0000ebdc       ?Release@FileOpenDlg_t@@W3AAKXZ 1000fbdc f i ceshapi:fileopen.obj
 0001:0000ebe4       ?ActivatePendingView@FileOpenDlg_t@@IAAXXZ 1000fbe4 f   ceshapi:fileopen.obj
 0001:0000ed90       ?HandleCommand@FileOpenDlg_t@@IAAHIJ@Z 1000fd90 f   ceshapi:fileopen.obj
 0001:0000f11c       ?DlgProc@FileOpenDlg_t@@KAHPAUHWND__@@IIJ@Z 1001011c f   ceshapi:fileopen.obj
 0001:0000f480       ?BrowseObject@FileOpenDlg_t@@UAAJPFBU_ITEMIDLIST@@I@Z 10010480 f   ceshapi:fileopen.obj
 0001:0000f7c8       ??0FileOpenDlg_t@@QAA@H@Z  100107c8 f   ceshapi:fileopen.obj
 0001:0000f834       ?Run@FileOpenDlg_t@@QAAHPAUtagOFNW@@@Z 10010834 f   ceshapi:fileopen.obj
 0001:0000fbc8       SHGetOpenFileName          10010bc8 f   ceshapi:fileopen.obj
 0001:0000fc54       SHSetSystemEUDCFont        10010c54 f   ceshapi:font.obj
 0001:0000fd54       SHRemoveFontResource       10010d54 f   ceshapi:font.obj
 0001:0000ff0c       ?QueryInterface@CShellMalloc@@UAAJABU_GUID@@PAPAX@Z 10010f0c f   ceshapi:malloc.obj
 0001:0000ff9c       ?AddRef@CShellMalloc@@UAAKXZ 10010f9c f   ceshapi:malloc.obj
 0001:0000ffb0       ?Alloc@CShellMalloc@@UAAPAXK@Z 10010fb0 f   ceshapi:malloc.obj
 0001:0000ffb8       ?Realloc@CShellMalloc@@UAAPAXPAXK@Z 10010fb8 f   ceshapi:malloc.obj
 0001:0000ffcc       ?Free@CShellMalloc@@UAAXPAX@Z 10010fcc f   ceshapi:malloc.obj
 0001:0000ffd4       ?GetSize@CShellMalloc@@UAAKPAX@Z 10010fd4 f   ceshapi:malloc.obj
 0001:0000ffdc       ?DidAlloc@CShellMalloc@@UAAHPAX@Z 10010fdc f   ceshapi:malloc.obj
 0001:0000ffe4       ?HeapMinimize@CShellMalloc@@UAAXXZ 10010fe4 f   ceshapi:malloc.obj
 0001:0000ffe8       ?Release@CShellMalloc@@UAAKXZ 10010fe8 f   ceshapi:malloc.obj
 0001:00010020       ??0CShellMalloc@@QAA@XZ    10011020 f   ceshapi:malloc.obj
 0001:00010038       ?DPI_ExtractIconEx@@YAPAUHICON__@@PBGHPAPAU1@1I@Z 10011038 f i ceshapi:iconcache.obj
 0001:000100a8       ??1CacheInfo@CIconCache@@QAA@XZ 100110a8 f   ceshapi:iconcache.obj
 0001:000100ec       ??0CIconCache@@QAA@XZ      100110ec f   ceshapi:iconcache.obj
 0001:00010184       ?GetDefaultImageIndex@CIconCache@@IBAHPBGKI@Z 10011184 f   ceshapi:iconcache.obj
 0001:00010318       ?GetSystemImageList@CIconCache@@QBAPAU_IMAGELIST@@I@Z 10011318 f   ceshapi:iconcache.obj
 0001:00010340       ?ExtractIcon@CIconCache@@IBAHPBGHPAPAUHICON__@@1@Z 10011340 f   ceshapi:iconcache.obj
 0001:000104c4       ?RebuildSystemImageList@CIconCache@@QAAHXZ 100114c4 f   ceshapi:iconcache.obj
 0001:00010658       ?GetFileWriteTime@CIconCache@@IAA?AU_FILETIME@@PBG@Z 10011658 f   ceshapi:iconcache.obj
 0001:000106a8       ?EmptyCache@CIconCache@@QAAHW4IC_EMPTYCACHEOPTIONS@1@@Z 100116a8 f   ceshapi:iconcache.obj
 0001:000107a8       ?CacheItemInfo@CIconCache@@IAAPAUCacheInfo@1@PBG00U_FILETIME@@@Z 100117a8 f   ceshapi:iconcache.obj
 0001:000111ec       ?GetItemInfo@CIconCache@@IAAPAUCacheInfo@1@PBGI00@Z 100121ec f   ceshapi:iconcache.obj
 0001:000113a8       ?GetType@CIconCache@@QAAHPBGKIPAGI@Z 100123a8 f   ceshapi:iconcache.obj
 0001:000114e8       ??1CIconCache@@QAA@XZ      100124e8 f   ceshapi:iconcache.obj
 0001:0001152c       ?GetImageIndex@CIconCache@@QAAHPBGKI@Z 1001252c f   ceshapi:iconcache.obj
 0001:000116ac       ?AddHead@CList@@QAAPAUtagLISTOBJ@@PAU2@@Z 100126ac f i ceshapi:undo.obj
 0001:00011714       ??0CShellUndo@@QAA@XZ      10012714 f   ceshapi:undo.obj
 0001:0001175c       ??1CShellUndo@@QAA@XZ      1001275c f   ceshapi:undo.obj
 0001:00011790       ?AddItem@CShellUndo@@QAAIPBG0@Z 10012790 f   ceshapi:undo.obj
 0001:000119c0       ?Close@CShellUndo@@QAAIXZ  100129c0 f   ceshapi:undo.obj
 0001:00011a0c       ?HasData@CShellUndo@@QAAHXZ 10012a0c f   ceshapi:undo.obj
 0001:00011a58       ?Undo@CShellUndo@@QAAIPAUHWND__@@@Z 10012a58 f   ceshapi:undo.obj
 0001:00011ef8       ?Clear@CShellUndo@@QAAIXZ  10012ef8 f   ceshapi:undo.obj
 0001:00011f4c       ?Open@CShellUndo@@QAAIH@Z  10012f4c f   ceshapi:undo.obj
 0001:00011fd0       HIDPI_InitScaling          10012fd0 f i ceshui:ceshell.obj
 0001:00012028       ?InitializeCEShell@@YAJXZ  10013028 f   ceshui:ceshell.obj
 0001:000120b4       ?UninitializeCEShell@@YAXXZ 100130b4 f   ceshui:ceshell.obj
 0001:00012140       DestroyShellObjects        10013140 f   ceshui:ceshell.obj
 0001:0001229c       InitializeShellObjects     1001329c f   ceshui:ceshell.obj
 0001:0001245c       DllMain                    1001345c f   ceshui:ceshell.obj
 0001:00012498       DllCanUnloadNow            10013498 f   ceshui:ceshellcf.obj
 0001:000124a0       ?QueryInterface@CShellClassFactory@@UAAJABU_GUID@@PAPAX@Z 100134a0 f   ceshui:ceshellcf.obj
 0001:00012530       ?AddRef@CShellClassFactory@@UAAKXZ 10013530 f   ceshui:ceshellcf.obj
 0001:00012544       ?CreateInstance@CShellClassFactory@@UAAJPAUIUnknown@@ABU_GUID@@PAPAX@Z 10013544 f   ceshui:ceshellcf.obj
 0001:00012790       ?LockServer@CShellClassFactory@@UAAJH@Z 10013790 f   ceshui:ceshellcf.obj
 0001:00012798       ?Release@CShellClassFactory@@UAAKXZ 10013798 f   ceshui:ceshellcf.obj
 0001:000127d0       DllGetClassObject          100137d0 f   ceshui:ceshellcf.obj
 0001:00012948       SHGetDesktopFolder         10013948 f   ceshui:api.obj
 0001:000129a0       ILFree                     100139a0 f   ceshui:idlist.obj
 0001:000129b0       ILNext                     100139b0 f   ceshui:idlist.obj
 0001:000129e8       ILIsEqual                  100139e8 f   ceshui:idlist.obj
 0001:00012a58       ILIsParent                 10013a58 f   ceshui:idlist.obj
 0001:00012b70       ?Create@CEItemID@@SAJKPBG0PAPAV1@@Z 10013b70 f   ceshui:idlist.obj
 0001:00012ca0       ?FillCache@CEItemID@@SAJPBU_FILETIME@@PBT_ULARGE_INTEGER@@QAXPAV1@@Z 10013ca0 f   ceshui:idlist.obj
 0001:00012d10       ??0NameSpaceCache_t@CEItemIDList@@QAA@XZ 10013d10 f   ceshui:idlist.obj
 0001:00012dd0       ??1NameSpaceCache_t@CEItemIDList@@QAA@XZ 10013dd0 f   ceshui:idlist.obj
 0001:00012e08       ?Get@NameSpaceCache_t@CEItemIDList@@QAAPFAU_ITEMIDLIST@@ABU_GUID@@@Z 10013e08 f   ceshui:idlist.obj
 0001:00012e7c       ?Cache@NameSpaceCache_t@CEItemIDList@@QAAXABU_GUID@@PFBU_ITEMIDLIST@@@Z 10013e7c f   ceshui:idlist.obj
 0001:00012eec       ?Create@CEItemIDList@@YAJPBGPAPFAU_ITEMIDLIST@@@Z 10013eec f   ceshui:idlist.obj
 0001:00012f08       ?Create@CEItemIDList@@YAJABU_GUID@@PAPFAU_ITEMIDLIST@@@Z 10013f08 f   ceshui:idlist.obj
 0001:0001308c       ?CacheFileData@CEItemIDList@@YAJAAU_WIN32_FIND_DATAW@@PFAU_ITEMIDLIST@@@Z 1001408c f   ceshui:idlist.obj
 0001:000130c8       ?CacheFileData@CEItemIDList@@YAJPBGPFAU_ITEMIDLIST@@@Z 100140c8 f   ceshui:idlist.obj
 0001:00013154       ?CacheVoid@CEItemIDList@@YAJPAXPFAU_ITEMIDLIST@@@Z 10014154 f   ceshui:idlist.obj
 0001:00013168       ?GetDisplayName@CEItemIDList@@YAPBGPFBU_ITEMIDLIST@@@Z 10014168 f   ceshui:idlist.obj
 0001:00013180       ?GetParsingName@CEItemIDList@@YAPBGPFBU_ITEMIDLIST@@@Z 10014180 f   ceshui:idlist.obj
 0001:00013194       ?IsNameSpaceType@CEItemIDList@@YAHPFBU_ITEMIDLIST@@@Z 10014194 f   ceshui:idlist.obj
 0001:000131b0       ?IsFileSystemType@CEItemIDList@@YAHPFBU_ITEMIDLIST@@@Z 100141b0 f   ceshui:idlist.obj
 0001:000131cc       ?IsDirectory@CEItemIDList@@YAHPFBU_ITEMIDLIST@@@Z 100141cc f   ceshui:idlist.obj
 0001:000131d8       ?IsExecutable@CEItemIDList@@YAHPFBU_ITEMIDLIST@@@Z 100141d8 f   ceshui:idlist.obj
 0001:000131e4       ?IsImage@CEItemIDList@@YAHPFBU_ITEMIDLIST@@@Z 100141e4 f   ceshui:idlist.obj
 0001:000131f0       ?IsLink@CEItemIDList@@YAHPFBU_ITEMIDLIST@@@Z 100141f0 f   ceshui:idlist.obj
 0001:000131fc       ?IsMountPoint@CEItemIDList@@YAHPFBU_ITEMIDLIST@@@Z 100141fc f   ceshui:idlist.obj
 0001:00013208       ?IsInROM@CEItemIDList@@YAHPFBU_ITEMIDLIST@@@Z 10014208 f   ceshui:idlist.obj
 0001:00013214       ?IsReadOnly@CEItemIDList@@YAHPFBU_ITEMIDLIST@@@Z 10014214 f   ceshui:idlist.obj
 0001:00013228       ?IsEqualToCLSID@CEItemIDList@@YAHPFBU_ITEMIDLIST@@ABU_GUID@@@Z 10014228 f   ceshui:idlist.obj
 0001:000132d8       ?AreEquivalent@CEItemIDList@@YAHPFBU_ITEMIDLIST@@0@Z 100142d8 f   ceshui:idlist.obj
 0001:00013350       ?HasLastWriteTimeCached@CEItemIDList@@YAHPFBU_ITEMIDLIST@@@Z 10014350 f   ceshui:idlist.obj
 0001:0001335c       ?HasSizeCached@CEItemIDList@@YAHPFBU_ITEMIDLIST@@@Z 1001435c f   ceshui:idlist.obj
 0001:00013368       ?HasVoidCached@CEItemIDList@@YAHPFBU_ITEMIDLIST@@@Z 10014368 f   ceshui:idlist.obj
 0001:00013374       ?_Grow@?$_string_t@G$0BA@U?$char_traits@G@ce@@Vallocator@2@@ce@@IAA_NI@Z 10014374 f i ceshui:idlist.obj
 0001:00013404       ?_Buynode@?$list@V?$_string_t@G$0BA@U?$char_traits@G@ce@@Vallocator@2@@ce@@Vallocator@2@@ce@@IAAPAU?$_ListNode@V?$_string_t@G$0BA@U?$char_traits@G@ce@@Vallocator@2@@ce@@@list_impl@2@PAU342@@Z 10014404 f i ceshui:idlist.obj
 0001:00013450       ILFindChild                10014450 f   ceshui:idlist.obj
 0001:000134b4       ?Update@NameSpaceCache_t@CEItemIDList@@QAAXPFBU_ITEMIDLIST@@@Z 100144b4 f   ceshui:idlist.obj
 0001:00013524       ?UpdateDisplayName@CEItemIDList@@YAJPBGPAPFAU_ITEMIDLIST@@@Z 10014524 f   ceshui:idlist.obj
 0001:00013734       ?GetLastWriteTime@CEItemIDList@@YAPBU_FILETIME@@PFBU_ITEMIDLIST@@@Z 10014734 f   ceshui:idlist.obj
 0001:00013748       ?GetSize@CEItemIDList@@YAPBT_ULARGE_INTEGER@@PFBU_ITEMIDLIST@@@Z 10014748 f   ceshui:idlist.obj
 0001:0001375c       ?GetVoid@CEItemIDList@@YAQAXPFBU_ITEMIDLIST@@@Z 1001475c f   ceshui:idlist.obj
 0001:00013770       ?hash_function@?$hash_traits@V?$_string_t@G$0BA@U?$char_traits@G@ce@@Vallocator@2@@ce@@@ce@@QBAIABV?$_string_t@G$0BA@U?$char_traits@G@ce@@Vallocator@2@@2@@Z 10014770 f i ceshui:idlist.obj
 0001:000137bc       ?erase@?$list@V?$_string_t@G$0BA@U?$char_traits@G@ce@@Vallocator@2@@ce@@Vallocator@2@@ce@@QAA?AV?$iterator@V?$_string_t@G$0BA@U?$char_traits@G@ce@@Vallocator@2@@ce@@@list_impl@2@V342@@Z 100147bc f i ceshui:idlist.obj
 0001:0001382c       ?assign@?$_string_t@G$0BA@U?$char_traits@G@ce@@Vallocator@2@@ce@@QAA_NPBGII@Z 1001482c f i ceshui:idlist.obj
 0001:00013894       ?erase@?$list@V?$_string_t@G$0BA@U?$char_traits@G@ce@@Vallocator@2@@ce@@Vallocator@2@@ce@@QAA?AV?$iterator@V?$_string_t@G$0BA@U?$char_traits@G@ce@@Vallocator@2@@ce@@@list_impl@2@V342@0@Z 10014894 f i ceshui:idlist.obj
 0001:000138ec       ?erase@?$vector@U?$pair@V?$iterator@V?$_string_t@G$0BA@U?$char_traits@G@ce@@Vallocator@2@@ce@@@list_impl@ce@@I@std@@Vallocator@ce@@U?$exponential_growth@$09@4@@ce@@QAAPAU?$pair@V?$iterator@V?$_string_t@G$0BA@U?$char_traits@G@ce@@Vallocator@2@@ce@@@list_impl@ce@@I@std@@PAU34@0@Z 100148ec f i ceshui:idlist.obj
 0001:00013950       ?erase@?$vector@U?$pair@V?$iterator@V?$_string_t@G$0BA@U?$char_traits@G@ce@@Vallocator@2@@ce@@@list_impl@ce@@I@std@@V?$reference_allocator@Vallocator@ce@@@details@ce@@U?$exponential_growth@$09@5@@ce@@QAAPAU?$pair@V?$iterator@V?$_string_t@G$0BA@U?$char_traits@G@ce@@Vallocator@2@@ce@@@list_impl@ce@@I@std@@PAU34@0@Z 10014950 f i ceshui:idlist.obj
 0001:000139b4       ??$?8G$0BA@$0BA@U?$char_traits@G@ce@@Vallocator@1@V21@@ce@@YA_NABV?$_string_t@G$0BA@U?$char_traits@G@ce@@Vallocator@2@@0@0@Z 100149b4 f i ceshui:idlist.obj
 0001:00013a00       ??0?$_string_t@G$0BA@U?$char_traits@G@ce@@Vallocator@2@@ce@@QAA@ABV01@@Z 10014a00 f i ceshui:idlist.obj
 0001:00013a48       ?clear@?$hash@V?$hash_set_traits@V?$_string_t@G$0BA@U?$char_traits@G@ce@@Vallocator@2@@ce@@U?$hash_traits@V?$_string_t@G$0BA@U?$char_traits@G@ce@@Vallocator@2@@ce@@@2@Vallocator@2@@details@ce@@@details@ce@@QAAXXZ 10014a48 f i ceshui:idlist.obj
 0001:00013a98       ??0?$_string_t@G$0BA@U?$char_traits@G@ce@@Vallocator@2@@ce@@QAA@PBG@Z 10014a98 f i ceshui:idlist.obj
 0001:00013b08       ??$insert@V?$_string_t@G$0BA@U?$char_traits@G@ce@@Vallocator@2@@ce@@@?$list@V?$_string_t@G$0BA@U?$char_traits@G@ce@@Vallocator@2@@ce@@Vallocator@2@@ce@@QAA?AV?$iterator@V?$_string_t@G$0BA@U?$char_traits@G@ce@@Vallocator@2@@ce@@@list_impl@1@V231@ABV?$_string_t@G$0BA@U?$char_traits@G@ce@@Vallocator@2@@1@@Z 10014b08 f i ceshui:idlist.obj
 0001:00013b58       ?ClearCache@ImageTypeCache_t@CEItemIDList@@QAAXXZ 10014b58 f   ceshui:idlist.obj
 0001:00013b80       ??1?$hash@V?$hash_set_traits@V?$_string_t@G$0BA@U?$char_traits@G@ce@@Vallocator@2@@ce@@U?$hash_traits@V?$_string_t@G$0BA@U?$char_traits@G@ce@@Vallocator@2@@ce@@@2@Vallocator@2@@details@ce@@@details@ce@@QAA@XZ 10014b80 f i ceshui:idlist.obj
 0001:00013bc0       ?_Insert_dispatch@?$vector@U?$pair@V?$iterator@V?$_string_t@G$0BA@U?$char_traits@G@ce@@Vallocator@2@@ce@@@list_impl@ce@@I@std@@Vallocator@ce@@U?$exponential_growth@$09@4@@ce@@AAA_NPAU?$pair@V?$iterator@V?$_string_t@G$0BA@U?$char_traits@G@ce@@Vallocator@2@@ce@@@list_impl@ce@@I@std@@IABU34@ABUtrue_type@detail@2@@Z 10014bc0 f i ceshui:idlist.obj
 0001:00013e08       ??1ImageTypeCache_t@CEItemIDList@@QAA@XZ 10014e08 f   ceshui:idlist.obj
 0001:00013e48       ??0ImageTypeCache_t@CEItemIDList@@QAA@XZ 10014e48 f   ceshui:idlist.obj
 0001:00013ecc       ?resize@?$vector@U?$pair@V?$iterator@V?$_string_t@G$0BA@U?$char_traits@G@ce@@Vallocator@2@@ce@@@list_impl@ce@@I@std@@Vallocator@ce@@U?$exponential_growth@$09@4@@ce@@QAA_NIABU?$pair@V?$iterator@V?$_string_t@G$0BA@U?$char_traits@G@ce@@Vallocator@2@@ce@@@list_impl@ce@@I@std@@@Z 10014ecc f i ceshui:idlist.obj
 0001:00013f28       ?_ready@?$hash@V?$hash_set_traits@V?$_string_t@G$0BA@U?$char_traits@G@ce@@Vallocator@2@@ce@@U?$hash_traits@V?$_string_t@G$0BA@U?$char_traits@G@ce@@Vallocator@2@@ce@@@2@Vallocator@2@@details@ce@@@details@ce@@IAA_NXZ 10014f28 f i ceshui:idlist.obj
 0001:00013f80       ?insert@?$hash@V?$hash_set_traits@V?$_string_t@G$0BA@U?$char_traits@G@ce@@Vallocator@2@@ce@@U?$hash_traits@V?$_string_t@G$0BA@U?$char_traits@G@ce@@Vallocator@2@@ce@@@2@Vallocator@2@@details@ce@@@details@ce@@QAA?AV?$iterator@V?$_string_t@G$0BA@U?$char_traits@G@ce@@Vallocator@2@@ce@@@list_impl@3@ABV?$_string_t@G$0BA@U?$char_traits@G@ce@@Vallocator@2@@3@@Z 10014f80 f i ceshui:idlist.obj
 0001:00014054       ?find@?$hash@V?$hash_set_traits@V?$_string_t@G$0BA@U?$char_traits@G@ce@@Vallocator@2@@ce@@U?$hash_traits@V?$_string_t@G$0BA@U?$char_traits@G@ce@@Vallocator@2@@ce@@@2@Vallocator@2@@details@ce@@@details@ce@@QAA?AV?$iterator@V?$_string_t@G$0BA@U?$char_traits@G@ce@@Vallocator@2@@ce@@@list_impl@3@ABV?$_string_t@G$0BA@U?$char_traits@G@ce@@Vallocator@2@@3@@Z 10015054 f i ceshui:idlist.obj
 0001:000140dc       ?Add@ImageTypeCache_t@CEItemIDList@@QAAHPBGH@Z 100150dc f   ceshui:idlist.obj
 0001:0001414c       ?IsImageType@ImageTypeCache_t@CEItemIDList@@QAAHPBG@Z 1001514c f   ceshui:idlist.obj
 0001:000142ac       ?UpdateAttributes@CEItemIDList@@YAJPBGKPAPFAU_ITEMIDLIST@@@Z 100152ac f   ceshui:idlist.obj
 0001:000144a4       ?UpdateAttributes@CEItemIDList@@YAJPBGPAPFAU_ITEMIDLIST@@@Z 100154a4 f   ceshui:idlist.obj
 0001:000144b8       ?UpdateAttributes@CEItemIDList@@YAJPFBU_ITEMIDLIST@@PAPFAU2@@Z 100154b8 f   ceshui:idlist.obj
 0001:00014540       ?GetBOOL@UserSettings@@KAHPAUHKEY__@@PBGH@Z 10015540 f   ceshui:usersettings.obj
 0001:00014598       ?GetDWORD@UserSettings@@KAKPAUHKEY__@@PBGK@Z 10015598 f   ceshui:usersettings.obj
 0001:000145f0       ?GetSZ@UserSettings@@KAHPAUHKEY__@@PBGPAGI1@Z 100155f0 f   ceshui:usersettings.obj
 0001:000146a8       ?GetDWORD@UserSettings@@KAKPAUHKEY__@@PBG1K@Z 100156a8 f   ceshui:usersettings.obj
 0001:0001472c       ?SetBOOL@UserSettings@@KAHPAUHKEY__@@PBG1H@Z 1001572c f   ceshui:usersettings.obj
 0001:000147c0       ?SetDWORD@UserSettings@@KAHPAUHKEY__@@PBG1K@Z 100157c0 f   ceshui:usersettings.obj
 0001:00014854       ?GetBackgroundImageLocation@UserSettings@@SAHPAGI@Z 10015854 f   ceshui:usersettings.obj
 0001:00014874       ?GetListviewStyle@UserSettings@@SAKXZ 10015874 f   ceshui:usersettings.obj
 0001:000148c0       ?GetRecycleBinSize@UserSettings@@SAKXZ 100158c0 f   ceshui:usersettings.obj
 0001:000148d0       ?GetShowFileName@UserSettings@@SAHXZ 100158d0 f   ceshui:usersettings.obj
 0001:000148e0       ?GetShowExtensions@UserSettings@@SAHXZ 100158e0 f   ceshui:usersettings.obj
 0001:000148f0       ?GetShowHiddenFiles@UserSettings@@SAHXZ 100158f0 f   ceshui:usersettings.obj
 0001:00014900       ?GetShowFileSize@UserSettings@@SAHXZ 10015900 f   ceshui:usersettings.obj
 0001:00014910       ?GetShowDateModified@UserSettings@@SAHXZ 10015910 f   ceshui:usersettings.obj
 0001:00014920       ?GetShowFileType@UserSettings@@SAHXZ 10015920 f   ceshui:usersettings.obj
 0001:00014930       ?GetShowSystemFiles@UserSettings@@SAHXZ 10015930 f   ceshui:usersettings.obj
 0001:00014940       ?GetTileBackgroundImage@UserSettings@@SAHXZ 10015940 f   ceshui:usersettings.obj
 0001:00014950       ?GetUse2ndClipboard@UserSettings@@SAHXZ 10015950 f   ceshui:usersettings.obj
 0001:00014960       ?GetUseCompatibleBackgroundImage@UserSettings@@SAHXZ 10015960 f   ceshui:usersettings.obj
 0001:00014970       ?GetUseDragDrop@UserSettings@@SAHXZ 10015970 f   ceshui:usersettings.obj
 0001:00014980       ?GetUseRecycleBin@UserSettings@@SAHXZ 10015980 f   ceshui:usersettings.obj
 0001:00014990       ?GetShowOverlayMask@UserSettings@@SAHXZ 10015990 f   ceshui:usersettings.obj
 0001:000149a0       ?SetListviewStyle@UserSettings@@SAHK@Z 100159a0 f   ceshui:usersettings.obj
 0001:000149e4       ?SetRecycleBinSize@UserSettings@@SAHK@Z 100159e4 f   ceshui:usersettings.obj
 0001:00014a18       ?SetShowExtensions@UserSettings@@SAHH@Z 10015a18 f   ceshui:usersettings.obj
 0001:00014a4c       ?SetShowHiddenFiles@UserSettings@@SAHH@Z 10015a4c f   ceshui:usersettings.obj
 0001:00014a80       ?SetShowSystemFiles@UserSettings@@SAHH@Z 10015a80 f   ceshui:usersettings.obj
 0001:00014ab4       ?SetUseRecycleBin@UserSettings@@SAHH@Z 10015ab4 f   ceshui:usersettings.obj
 0001:00014b08       ?Query@UserSettings@@SAXXZ 10015b08 f   ceshui:usersettings.obj
 0001:00014d40       ?FolderOptionsDlgProc@UserSettings@@KAHPAUHWND__@@IIJ@Z 10015d40 f   ceshui:usersettings.obj
 0001:00014eb4       ?ShowFolderOptions@UserSettings@@SAXXZ 10015eb4 f   ceshui:usersettings.obj
 0001:00014f30       ?NormalizeAndVerifyFileName@@YAJPBGPAGI@Z 10015f30 f   ceshui:folderutils.obj
 0001:00014fc0       ?CreateCustomFileTypeDescription@@YAJPBGPAGI@Z 10015fc0 f   ceshui:folderutils.obj
 0001:000150e0       ?PathFileExistsWithAttributes@@YAHPAGK@Z 100160e0 f   ceshui:folderutils.obj
 0001:0001512c       ?IsNamespace@@YAHPBG@Z     1001612c f   ceshui:folderutils.obj
 0001:0001514c       ?GetLocalizedNameDBString@@YAHPBGPAGI@Z 1001614c f   ceshui:folderutils.obj
 0001:00015264       ?GetDesktopIniFile@@YAJPBGPAGI@Z 10016264 f   ceshui:folderutils.obj
 0001:000152e0       ?_Grow@?$_string_t@G$0BA@U?$i_char_traits@G@ce@@Vallocator@2@@ce@@IAA_NI@Z 100162e0 f i ceshui:folderutils.obj
 0001:00015370       ?_Buynode@?$list@U?$pair@V?$_string_t@G$0BA@U?$i_char_traits@G@ce@@Vallocator@2@@ce@@V12@@std@@Vallocator@ce@@@ce@@IAAPAU?$_ListNode@U?$pair@V?$_string_t@G$0BA@U?$i_char_traits@G@ce@@Vallocator@2@@ce@@V12@@std@@@list_impl@2@PAU342@@Z 10016370 f i ceshui:folderutils.obj
 0001:000153bc       ?_Buynode@?$list@U?$pair@V?$_string_t@G$0BA@U?$i_char_traits@G@ce@@Vallocator@2@@ce@@PAVNameCache_t@@@std@@Vallocator@ce@@@ce@@IAAPAU?$_ListNode@U?$pair@V?$_string_t@G$0BA@U?$i_char_traits@G@ce@@Vallocator@2@@ce@@PAVNameCache_t@@@std@@@list_impl@2@PAU342@@Z 100163bc f i ceshui:folderutils.obj
 0001:00015408       ??1_buffer@?$_string_t@G$0BA@U?$i_char_traits@G@ce@@Vallocator@2@@ce@@QAA@XZ 10016408 f i ceshui:folderutils.obj
 0001:00015458       ?hash_function@?$hash_traits@V?$_string_t@G$0BA@U?$i_char_traits@G@ce@@Vallocator@2@@ce@@@ce@@QBAIABV?$_string_t@G$0BA@U?$i_char_traits@G@ce@@Vallocator@2@@2@@Z 10016458 f i ceshui:folderutils.obj
 0001:000154a4       ?erase@?$list@U?$pair@V?$_string_t@G$0BA@U?$i_char_traits@G@ce@@Vallocator@2@@ce@@V12@@std@@Vallocator@ce@@@ce@@QAA?AV?$iterator@U?$pair@V?$_string_t@G$0BA@U?$i_char_traits@G@ce@@Vallocator@2@@ce@@V12@@std@@@list_impl@2@V342@@Z 100164a4 f i ceshui:folderutils.obj
 0001:00015524       ?erase@?$list@U?$pair@V?$_string_t@G$0BA@U?$i_char_traits@G@ce@@Vallocator@2@@ce@@PAVNameCache_t@@@std@@Vallocator@ce@@@ce@@QAA?AV?$iterator@U?$pair@V?$_string_t@G$0BA@U?$i_char_traits@G@ce@@Vallocator@2@@ce@@PAVNameCache_t@@@std@@@list_impl@2@V342@@Z 10016524 f i ceshui:folderutils.obj
 0001:00015594       ?assign@?$_string_t@G$0BA@U?$i_char_traits@G@ce@@Vallocator@2@@ce@@QAA_NPBGII@Z 10016594 f i ceshui:folderutils.obj
 0001:000155fc       ?erase@?$list@U?$pair@V?$_string_t@G$0BA@U?$i_char_traits@G@ce@@Vallocator@2@@ce@@V12@@std@@Vallocator@ce@@@ce@@QAA?AV?$iterator@U?$pair@V?$_string_t@G$0BA@U?$i_char_traits@G@ce@@Vallocator@2@@ce@@V12@@std@@@list_impl@2@V342@0@Z 100165fc f i ceshui:folderutils.obj
 0001:00015654       ?erase@?$list@U?$pair@V?$_string_t@G$0BA@U?$i_char_traits@G@ce@@Vallocator@2@@ce@@PAVNameCache_t@@@std@@Vallocator@ce@@@ce@@QAA?AV?$iterator@U?$pair@V?$_string_t@G$0BA@U?$i_char_traits@G@ce@@Vallocator@2@@ce@@PAVNameCache_t@@@std@@@list_impl@2@V342@0@Z 10016654 f i ceshui:folderutils.obj
 0001:000156ac       ?erase@?$vector@U?$pair@V?$iterator@U?$pair@V?$_string_t@G$0BA@U?$i_char_traits@G@ce@@Vallocator@2@@ce@@V12@@std@@@list_impl@ce@@I@std@@Vallocator@ce@@U?$exponential_growth@$09@4@@ce@@QAAPAU?$pair@V?$iterator@U?$pair@V?$_string_t@G$0BA@U?$i_char_traits@G@ce@@Vallocator@2@@ce@@V12@@std@@@list_impl@ce@@I@std@@PAU34@0@Z 100166ac f i ceshui:folderutils.obj
 0001:00015710       ?erase@?$vector@U?$pair@V?$iterator@U?$pair@V?$_string_t@G$0BA@U?$i_char_traits@G@ce@@Vallocator@2@@ce@@PAVNameCache_t@@@std@@@list_impl@ce@@I@std@@Vallocator@ce@@U?$exponential_growth@$09@4@@ce@@QAAPAU?$pair@V?$iterator@U?$pair@V?$_string_t@G$0BA@U?$i_char_traits@G@ce@@Vallocator@2@@ce@@PAVNameCache_t@@@std@@@list_impl@ce@@I@std@@PAU34@0@Z 10016710 f i ceshui:folderutils.obj
 0001:00015774       ??0?$_string_t@G$0BA@U?$i_char_traits@G@ce@@Vallocator@2@@ce@@QAA@ABV01@@Z 10016774 f i ceshui:folderutils.obj
 0001:000157bc       ?erase@?$vector@U?$pair@V?$iterator@U?$pair@V?$_string_t@G$0BA@U?$i_char_traits@G@ce@@Vallocator@2@@ce@@V12@@std@@@list_impl@ce@@I@std@@V?$reference_allocator@Vallocator@ce@@@details@ce@@U?$exponential_growth@$09@5@@ce@@QAAPAU?$pair@V?$iterator@U?$pair@V?$_string_t@G$0BA@U?$i_char_traits@G@ce@@Vallocator@2@@ce@@V12@@std@@@list_impl@ce@@I@std@@PAU34@0@Z 100167bc f i ceshui:folderutils.obj
 0001:00015820       ?erase@?$vector@U?$pair@V?$iterator@U?$pair@V?$_string_t@G$0BA@U?$i_char_traits@G@ce@@Vallocator@2@@ce@@PAVNameCache_t@@@std@@@list_impl@ce@@I@std@@V?$reference_allocator@Vallocator@ce@@@details@ce@@U?$exponential_growth@$09@5@@ce@@QAAPAU?$pair@V?$iterator@U?$pair@V?$_string_t@G$0BA@U?$i_char_traits@G@ce@@Vallocator@2@@ce@@PAVNameCache_t@@@std@@@list_impl@ce@@I@std@@PAU34@0@Z 10016820 f i ceshui:folderutils.obj
 0001:00015884       ??$?8G$0BA@$0BA@U?$i_char_traits@G@ce@@Vallocator@1@V21@@ce@@YA_NABV?$_string_t@G$0BA@U?$i_char_traits@G@ce@@Vallocator@2@@0@0@Z 10016884 f i ceshui:folderutils.obj
 0001:000158d0       ?clear@?$hash@V?$hash_map_traits@V?$_string_t@G$0BA@U?$i_char_traits@G@ce@@Vallocator@2@@ce@@V12@U?$hash_traits@V?$_string_t@G$0BA@U?$i_char_traits@G@ce@@Vallocator@2@@ce@@@2@Vallocator@2@@details@ce@@@details@ce@@QAAXXZ 100168d0 f i ceshui:folderutils.obj
 0001:00015920       ?clear@?$hash@V?$hash_map_traits@V?$_string_t@G$0BA@U?$i_char_traits@G@ce@@Vallocator@2@@ce@@PAVNameCache_t@@U?$hash_traits@V?$_string_t@G$0BA@U?$i_char_traits@G@ce@@Vallocator@2@@ce@@@2@Vallocator@2@@details@ce@@@details@ce@@QAAXXZ 10016920 f i ceshui:folderutils.obj
 0001:00015970       ??0?$_string_t@G$0BA@U?$i_char_traits@G@ce@@Vallocator@2@@ce@@QAA@PBG@Z 10016970 f i ceshui:folderutils.obj
 0001:000159e0       ??$insert@U?$pair@V?$_string_t@G$0BA@U?$i_char_traits@G@ce@@Vallocator@2@@ce@@V12@@std@@@?$list@U?$pair@V?$_string_t@G$0BA@U?$i_char_traits@G@ce@@Vallocator@2@@ce@@V12@@std@@Vallocator@ce@@@ce@@QAA?AV?$iterator@U?$pair@V?$_string_t@G$0BA@U?$i_char_traits@G@ce@@Vallocator@2@@ce@@V12@@std@@@list_impl@1@V231@ABU?$pair@V?$_string_t@G$0BA@U?$i_char_traits@G@ce@@Vallocator@2@@ce@@V12@@std@@@Z 100169e0 f i ceshui:folderutils.obj
 0001:00015a3c       ??$insert@U?$pair@V?$_string_t@G$0BA@U?$i_char_traits@G@ce@@Vallocator@2@@ce@@PAVNameCache_t@@@std@@@?$list@U?$pair@V?$_string_t@G$0BA@U?$i_char_traits@G@ce@@Vallocator@2@@ce@@PAVNameCache_t@@@std@@Vallocator@ce@@@ce@@QAA?AV?$iterator@U?$pair@V?$_string_t@G$0BA@U?$i_char_traits@G@ce@@Vallocator@2@@ce@@PAVNameCache_t@@@std@@@list_impl@1@V231@ABU?$pair@V?$_string_t@G$0BA@U?$i_char_traits@G@ce@@Vallocator@2@@ce@@PAVNameCache_t@@@std@@@Z 10016a3c f i ceshui:folderutils.obj
 0001:00015a94       ??1?$hash@V?$hash_map_traits@V?$_string_t@G$0BA@U?$i_char_traits@G@ce@@Vallocator@2@@ce@@V12@U?$hash_traits@V?$_string_t@G$0BA@U?$i_char_traits@G@ce@@Vallocator@2@@ce@@@2@Vallocator@2@@details@ce@@@details@ce@@QAA@XZ 10016a94 f i ceshui:folderutils.obj
 0001:00015ad4       ??1?$hash@V?$hash_map_traits@V?$_string_t@G$0BA@U?$i_char_traits@G@ce@@Vallocator@2@@ce@@PAVNameCache_t@@U?$hash_traits@V?$_string_t@G$0BA@U?$i_char_traits@G@ce@@Vallocator@2@@ce@@@2@Vallocator@2@@details@ce@@@details@ce@@QAA@XZ 10016ad4 f i ceshui:folderutils.obj
 0001:00015b14       ?_Insert_dispatch@?$vector@U?$pair@V?$iterator@U?$pair@V?$_string_t@G$0BA@U?$i_char_traits@G@ce@@Vallocator@2@@ce@@V12@@std@@@list_impl@ce@@I@std@@Vallocator@ce@@U?$exponential_growth@$09@4@@ce@@AAA_NPAU?$pair@V?$iterator@U?$pair@V?$_string_t@G$0BA@U?$i_char_traits@G@ce@@Vallocator@2@@ce@@V12@@std@@@list_impl@ce@@I@std@@IABU34@ABUtrue_type@detail@2@@Z 10016b14 f i ceshui:folderutils.obj
 0001:00015d5c       ?_Insert_dispatch@?$vector@U?$pair@V?$iterator@U?$pair@V?$_string_t@G$0BA@U?$i_char_traits@G@ce@@Vallocator@2@@ce@@PAVNameCache_t@@@std@@@list_impl@ce@@I@std@@Vallocator@ce@@U?$exponential_growth@$09@4@@ce@@AAA_NPAU?$pair@V?$iterator@U?$pair@V?$_string_t@G$0BA@U?$i_char_traits@G@ce@@Vallocator@2@@ce@@PAVNameCache_t@@@std@@@list_impl@ce@@I@std@@IABU34@ABUtrue_type@detail@2@@Z 10016d5c f i ceshui:folderutils.obj
 0001:00015fa4       ??1NameCache_t@@QAA@XZ     10016fa4 f   ceshui:folderutils.obj
 0001:00015fd4       ?ClearCache@FolderCache_t@@QAAXXZ 10016fd4 f   ceshui:folderutils.obj
 0001:0001602c       ??0NameCache_t@@QAA@XZ     1001702c f   ceshui:folderutils.obj
 0001:0001607c       ??0FolderCache_t@@QAA@XZ   1001707c f   ceshui:folderutils.obj
 0001:000160cc       ?resize@?$vector@U?$pair@V?$iterator@U?$pair@V?$_string_t@G$0BA@U?$i_char_traits@G@ce@@Vallocator@2@@ce@@V12@@std@@@list_impl@ce@@I@std@@Vallocator@ce@@U?$exponential_growth@$09@4@@ce@@QAA_NIABU?$pair@V?$iterator@U?$pair@V?$_string_t@G$0BA@U?$i_char_traits@G@ce@@Vallocator@2@@ce@@V12@@std@@@list_impl@ce@@I@std@@@Z 100170cc f i ceshui:folderutils.obj
 0001:00016128       ?resize@?$vector@U?$pair@V?$iterator@U?$pair@V?$_string_t@G$0BA@U?$i_char_traits@G@ce@@Vallocator@2@@ce@@PAVNameCache_t@@@std@@@list_impl@ce@@I@std@@Vallocator@ce@@U?$exponential_growth@$09@4@@ce@@QAA_NIABU?$pair@V?$iterator@U?$pair@V?$_string_t@G$0BA@U?$i_char_traits@G@ce@@Vallocator@2@@ce@@PAVNameCache_t@@@std@@@list_impl@ce@@I@std@@@Z 10017128 f i ceshui:folderutils.obj
 0001:00016184       ?_ready@?$hash@V?$hash_map_traits@V?$_string_t@G$0BA@U?$i_char_traits@G@ce@@Vallocator@2@@ce@@V12@U?$hash_traits@V?$_string_t@G$0BA@U?$i_char_traits@G@ce@@Vallocator@2@@ce@@@2@Vallocator@2@@details@ce@@@details@ce@@IAA_NXZ 10017184 f i ceshui:folderutils.obj
 0001:000161dc       ?_ready@?$hash@V?$hash_map_traits@V?$_string_t@G$0BA@U?$i_char_traits@G@ce@@Vallocator@2@@ce@@PAVNameCache_t@@U?$hash_traits@V?$_string_t@G$0BA@U?$i_char_traits@G@ce@@Vallocator@2@@ce@@@2@Vallocator@2@@details@ce@@@details@ce@@IAA_NXZ 100171dc f i ceshui:folderutils.obj
 0001:00016234       ?find@?$hash@V?$hash_map_traits@V?$_string_t@G$0BA@U?$i_char_traits@G@ce@@Vallocator@2@@ce@@V12@U?$hash_traits@V?$_string_t@G$0BA@U?$i_char_traits@G@ce@@Vallocator@2@@ce@@@2@Vallocator@2@@details@ce@@@details@ce@@QAA?AV?$iterator@U?$pair@V?$_string_t@G$0BA@U?$i_char_traits@G@ce@@Vallocator@2@@ce@@V12@@std@@@list_impl@3@ABV?$_string_t@G$0BA@U?$i_char_traits@G@ce@@Vallocator@2@@3@@Z 10017234 f i ceshui:folderutils.obj
 0001:000162bc       ?find@?$hash@V?$hash_map_traits@V?$_string_t@G$0BA@U?$i_char_traits@G@ce@@Vallocator@2@@ce@@PAVNameCache_t@@U?$hash_traits@V?$_string_t@G$0BA@U?$i_char_traits@G@ce@@Vallocator@2@@ce@@@2@Vallocator@2@@details@ce@@@details@ce@@QAA?AV?$iterator@U?$pair@V?$_string_t@G$0BA@U?$i_char_traits@G@ce@@Vallocator@2@@ce@@PAVNameCache_t@@@std@@@list_impl@3@ABV?$_string_t@G$0BA@U?$i_char_traits@G@ce@@Vallocator@2@@3@@Z 100172bc f i ceshui:folderutils.obj
 0001:00016344       ?insert@?$hash@V?$hash_map_traits@V?$_string_t@G$0BA@U?$i_char_traits@G@ce@@Vallocator@2@@ce@@V12@U?$hash_traits@V?$_string_t@G$0BA@U?$i_char_traits@G@ce@@Vallocator@2@@ce@@@2@Vallocator@2@@details@ce@@@details@ce@@QAA?AV?$iterator@U?$pair@V?$_string_t@G$0BA@U?$i_char_traits@G@ce@@Vallocator@2@@ce@@V12@@std@@@list_impl@3@ABU?$pair@V?$_string_t@G$0BA@U?$i_char_traits@G@ce@@Vallocator@2@@ce@@V12@@std@@@Z 10017344 f i ceshui:folderutils.obj
 0001:00016418       ?insert@?$hash@V?$hash_map_traits@V?$_string_t@G$0BA@U?$i_char_traits@G@ce@@Vallocator@2@@ce@@PAVNameCache_t@@U?$hash_traits@V?$_string_t@G$0BA@U?$i_char_traits@G@ce@@Vallocator@2@@ce@@@2@Vallocator@2@@details@ce@@@details@ce@@QAA?AV?$iterator@U?$pair@V?$_string_t@G$0BA@U?$i_char_traits@G@ce@@Vallocator@2@@ce@@PAVNameCache_t@@@std@@@list_impl@3@ABU?$pair@V?$_string_t@G$0BA@U?$i_char_traits@G@ce@@Vallocator@2@@ce@@PAVNameCache_t@@@std@@@Z 10017418 f i ceshui:folderutils.obj
 0001:000164f4       ?GetName@NameCache_t@@QAAHPBGPAGI@Z 100174f4 f   ceshui:folderutils.obj
 0001:0001660c       ?GetNameCache@FolderCache_t@@QAAPAVNameCache_t@@PBG@Z 1001760c f   ceshui:folderutils.obj
 0001:000166bc       ?insert@?$hash_map@V?$_string_t@G$0BA@U?$i_char_traits@G@ce@@Vallocator@2@@ce@@V12@U?$hash_traits@V?$_string_t@G$0BA@U?$i_char_traits@G@ce@@Vallocator@2@@ce@@@2@Vallocator@2@@ce@@QAA?AV?$iterator@U?$pair@V?$_string_t@G$0BA@U?$i_char_traits@G@ce@@Vallocator@2@@ce@@V12@@std@@@list_impl@2@ABV?$_string_t@G$0BA@U?$i_char_traits@G@ce@@Vallocator@2@@2@0@Z 100176bc f i ceshui:folderutils.obj
 0001:00016744       ?insert@?$hash_map@V?$_string_t@G$0BA@U?$i_char_traits@G@ce@@Vallocator@2@@ce@@PAVNameCache_t@@U?$hash_traits@V?$_string_t@G$0BA@U?$i_char_traits@G@ce@@Vallocator@2@@ce@@@2@Vallocator@2@@ce@@QAA?AV?$iterator@U?$pair@V?$_string_t@G$0BA@U?$i_char_traits@G@ce@@Vallocator@2@@ce@@PAVNameCache_t@@@std@@@list_impl@2@ABV?$_string_t@G$0BA@U?$i_char_traits@G@ce@@Vallocator@2@@2@ABQAVNameCache_t@@@Z 10017744 f i ceshui:folderutils.obj
 0001:000167b0       ?AddName@NameCache_t@@QAAHPBG0@Z 100177b0 f   ceshui:folderutils.obj
 0001:00016848       ?AddPath@FolderCache_t@@QAAPAVNameCache_t@@PBG@Z 10017848 f   ceshui:folderutils.obj
 0001:0001695c       ?AddDisplayName@FolderCache_t@@QAAHPBG00@Z 1001795c f   ceshui:folderutils.obj
 0001:000169ac       ?GetDisplayName@FolderCache_t@@QAAHPBG0PAGI@Z 100179ac f   ceshui:folderutils.obj
 0001:00016a04       ?ReadINIFile@FolderCache_t@@QAAHPBG@Z 10017a04 f   ceshui:folderutils.obj
 0001:00016b88       ?GetLocalizedName@@YAJPBG0PAGI@Z 10017b88 f   ceshui:folderutils.obj
 0001:00016cb4       ?GetLocalizedDirectoryName@@YAJPBGPAGI@Z 10017cb4 f   ceshui:folderutils.obj
 0001:00016ccc       ?GetLocalizedFileName@@YAJPBGPAGI@Z 10017ccc f   ceshui:folderutils.obj
 0001:00016d6c       ?ShowPathError@ShellDialogs@@SAJPAUHWND__@@PBG11I@Z 10017d6c f   ceshui:shelldialogs.obj
 0001:00016ec8       ?Move@Confirm@ShellDialogs@@SAJPBGPAUHWND__@@HPAH@Z 10017ec8 f   ceshui:shelldialogs.obj
 0001:00017074       ?Rename@Confirm@ShellDialogs@@SAJPBG0PAUHWND__@@PAH@Z 10018074 f   ceshui:shelldialogs.obj
 0001:00017258       ?Delete@Confirm@ShellDialogs@@SAJPBGPAUHWND__@@HHHPAH@Z 10018258 f   ceshui:shelldialogs.obj
 0001:00017540       ?DeleteMultiple@Confirm@ShellDialogs@@SAJKPAUHWND__@@HPAH@Z 10018540 f   ceshui:shelldialogs.obj
 0001:0001767c       ?DeleteForRecycleBin@Confirm@ShellDialogs@@SAJPBGPAUHWND__@@HPAH@Z 1001867c f   ceshui:shelldialogs.obj
 0001:00017854       ?Merge@Confirm@ShellDialogs@@SAJPBGPAUHWND__@@HPAH@Z 10018854 f   ceshui:shelldialogs.obj
 0001:00017980       ?ULargeToBuffer@ShellFormat@@SAHT_ULARGE_INTEGER@@PAGI@Z 10018980 f   ceshui:shelldialogs.obj
 0001:00017a9c       ?FileTimeInfo@ShellFormat@@SAHPBGPAGI@Z 10018a9c f   ceshui:shelldialogs.obj
 0001:00017be8       ?FileSizeShort@ShellFormat@@SAHT_ULARGE_INTEGER@@PAGI@Z 10018be8 f   ceshui:shelldialogs.obj
 0001:00017e38       ?FolderStatus@ShellFormat@@SAHIIPAGI@Z 10018e38 f   ceshui:shelldialogs.obj
 0001:00017ee4       ?FormatDateTime@ShellFormat@@SAHPBU_FILETIME@@KPAGI@Z 10018ee4 f   ceshui:shelldialogs.obj
 0001:000180c4       ?ObjectProperties@Properties@ShellDialogs@@SAXPFBU_ITEMIDLIST@@PAUIShellFolder@@PAUIShellView@@PAPFBU3@I@Z 100190c4 f   ceshui:shelldialogs.obj
 0001:000181e4       ?FolderObjectProperties@Properties@ShellDialogs@@SAXPFBU_ITEMIDLIST@@PAUIShellFolder@@@Z 100191e4 f   ceshui:shelldialogs.obj
 0001:00018268       ?HideDlgItem@Properties@ShellDialogs@@KAXPAUHWND__@@H@Z 10019268 f   ceshui:shelldialogs.obj
 0001:00018280       ?NeedsEllipses@Properties@ShellDialogs@@KAHPAUHDC__@@PBGPAUtagRECT@@PAHH@Z 10019280 f   ceshui:shelldialogs.obj
 0001:000183a4       ?GetDiskSpace@GeneralPropData@Properties@ShellDialogs@@QAAXXZ 100193a4 f   ceshui:shelldialogs.obj
 0001:00018558       ?GetLocation@Properties@ShellDialogs@@KAXPFBU_ITEMIDLIST@@PAG@Z 10019558 f   ceshui:shelldialogs.obj
 0001:00018724       ?ShowFileError@ShellDialogs@@SAJPAUHWND__@@PBG11I@Z 10019724 f   ceshui:shelldialogs.obj
 0001:00018774       ?DlgProc@Confirm@ShellDialogs@@KAHPAUHWND__@@IIJ@Z 10019774 f   ceshui:shelldialogs.obj
 0001:000187f4       ?FileInfo@ShellFormat@@SAHPBGPAGI@Z 100197f4 f   ceshui:shelldialogs.obj
 0001:00018998       ?UpdateAttributes@Properties@ShellDialogs@@KAJPAUIShellFolder@@PFBU_ITEMIDLIST@@KK@Z 10019998 f   ceshui:shelldialogs.obj
 0001:00018ab8       ?SetDlgItemTextEllipses@Properties@ShellDialogs@@KAHPAUHWND__@@HPAG@Z 10019ab8 f   ceshui:shelldialogs.obj
 0001:00018c04       ?ShowRenameError@ShellDialogs@@SAJPAUHWND__@@PBG1@Z 10019c04 f   ceshui:shelldialogs.obj
 0001:00018d04       ?Replace@Confirm@ShellDialogs@@SAJPBG0PAUHWND__@@PAH@Z 10019d04 f   ceshui:shelldialogs.obj
 0001:00018efc       ??0FileChangeNotify@@QAA@PAUIShellChangeNotify@@@Z 10019efc f   ceshui:filechangemgr.obj
 0001:00018f3c       ??1FileChangeNotify@@UAA@XZ 10019f3c f   ceshui:filechangemgr.obj
 0001:00018f74       ?Initialize@FileChangeNotify@@QAAJPBG@Z 10019f74 f   ceshui:filechangemgr.obj
 0001:00018fa8       ?GetWaitObject@FileChangeNotify@@UAAPAXXZ 10019fa8 f   ceshui:filechangemgr.obj
 0001:00018fb0       ?GetWaitTimeout@FileChangeNotify@@UAAKK@Z 10019fb0 f   ceshui:filechangemgr.obj
 0001:00018fb8       ?Refresh@FileChangeNotify@@UAAJXZ 10019fb8 f   ceshui:filechangemgr.obj
 0001:00018fe0       ?Notify@FileChangeNotify@@UAAJK@Z 10019fe0 f   ceshui:filechangemgr.obj
 0001:00019254       ?Timeout@FileChangeNotify@@UAAJK@Z 1001a254 f   ceshui:filechangemgr.obj
 0001:00019260       ??0FileChangeManager@@QAA@XZ 1001a260 f   ceshui:filechangemgr.obj
 0001:00019274       ??1FileChangeManager@@QAA@XZ 1001a274 f   ceshui:filechangemgr.obj
 0001:00019278       ?RefreshAllViews@FileChangeManager@@QAAXXZ 1001a278 f   ceshui:filechangemgr.obj
 0001:0001927c       ?AddWatch@FileChangeManager@@QAAIPBGPAUIShellChangeNotify@@@Z 1001a27c f   ceshui:filechangemgr.obj
 0001:00019310       ?RemoveWatch@FileChangeManager@@QAAHI@Z 1001a310 f   ceshui:filechangemgr.obj
 0001:00019328       ??_GFileChangeNotify@@UAAPAXI@Z 1001a328 f i ceshui:filechangemgr.obj
 0001:00019328       ??_EFileChangeNotify@@UAAPAXI@Z 1001a328 f i ceshui:filechangemgr.obj
 0001:0001934c       ??1CDrivesFolder@@QAA@XZ   1001a34c f   ceshui:drivesfolder.obj
 0001:00019388       ?QueryInterface@CDrivesFolder@@UAAJABU_GUID@@PAPAX@Z 1001a388 f   ceshui:drivesfolder.obj
 0001:00019494       ?AddRef@CDrivesFolder@@UAAKXZ 1001a494 f   ceshui:drivesfolder.obj
 0001:000194b0       ?BindToObject@CDrivesFolder@@UAAJPFBU_ITEMIDLIST@@PAUIBindCtx@@ABU_GUID@@PAPAX@Z 1001a4b0 f   ceshui:drivesfolder.obj
 0001:000196f4       ?BindToStorage@CDrivesFolder@@UAAJPFBU_ITEMIDLIST@@PAUIBindCtx@@ABU_GUID@@PAPAX@Z 1001a6f4 f   ceshui:drivesfolder.obj
 0001:00019700       ?CompareIDs@CDrivesFolder@@UAAJJPFBU_ITEMIDLIST@@0@Z 1001a700 f   ceshui:drivesfolder.obj
 0001:00019938       ?CreateViewObject@CDrivesFolder@@UAAJPAUHWND__@@ABU_GUID@@PAPAX@Z 1001a938 f   ceshui:drivesfolder.obj
 0001:00019aa8       ?EnumObjects@CDrivesFolder@@UAAJPAUHWND__@@KPAPAUIEnumIDList@@@Z 1001aaa8 f   ceshui:drivesfolder.obj
 0001:00019b5c       ?GetAttributesOf@CDrivesFolder@@UAAJIPAPFBU_ITEMIDLIST@@PAK@Z 1001ab5c f   ceshui:drivesfolder.obj
 0001:00019c70       ?GetDisplayNameOf@CDrivesFolder@@UAAJPFBU_ITEMIDLIST@@KPAU_STRRET@@@Z 1001ac70 f   ceshui:drivesfolder.obj
 0001:00019dec       ?GetUIObjectOf@CDrivesFolder@@UAAJPAUHWND__@@IPAPFBU_ITEMIDLIST@@ABU_GUID@@PAIPAPAX@Z 1001adec f   ceshui:drivesfolder.obj
 0001:00019f4c       ?ParseDisplayName@CDrivesFolder@@UAAJPAUHWND__@@PAUIBindCtx@@PAGPAKPAPFAU_ITEMIDLIST@@3@Z 1001af4c f   ceshui:drivesfolder.obj
 0001:0001a2f8       ?SetNameOf@CDrivesFolder@@UAAJPAUHWND__@@PFBU_ITEMIDLIST@@PBGKPAPFAU3@@Z 1001b2f8 f   ceshui:drivesfolder.obj
 0001:0001a41c       ?ColumnClick@CDrivesFolder@@UAAJI@Z 1001b41c f   ceshui:drivesfolder.obj
 0001:0001a424       ?GetDetailsOf@CDrivesFolder@@UAAJPFBU_ITEMIDLIST@@IPAU_SHELLDETAILS@@@Z 1001b424 f   ceshui:drivesfolder.obj
 0001:0001a548       ?GetClassID@CDrivesFolder@@UAAJPAU_GUID@@@Z 1001b548 f   ceshui:drivesfolder.obj
 0001:0001a554       ?Initialize@CDrivesFolder@@UAAJPFBU_ITEMIDLIST@@@Z 1001b554 f   ceshui:drivesfolder.obj
 0001:0001a55c       ?AddRef@CDrivesFolder@@W3AAKXZ 1001b55c f i ceshui:drivesfolder.obj
 0001:0001a564       ?AddRef@CDrivesFolder@@W7AAKXZ 1001b564 f i ceshui:drivesfolder.obj
 0001:0001a56c       ?QueryInterface@CDrivesFolder@@W3AAJABU_GUID@@PAPAX@Z 1001b56c f i ceshui:drivesfolder.obj
 0001:0001a574       ?QueryInterface@CDrivesFolder@@W7AAJABU_GUID@@PAPAX@Z 1001b574 f i ceshui:drivesfolder.obj
 0001:0001a57c       ?Release@CDrivesFolder@@UAAKXZ 1001b57c f   ceshui:drivesfolder.obj
 0001:0001a5b0       ?Release@CDrivesFolder@@W3AAKXZ 1001b5b0 f i ceshui:drivesfolder.obj
 0001:0001a5b8       ?Release@CDrivesFolder@@W7AAKXZ 1001b5b8 f i ceshui:drivesfolder.obj
 0001:0001a5c0       ??0CDrivesFolder@@QAA@XZ   1001b5c0 f   ceshui:drivesfolder.obj
 0001:0001a650       ??0ZipFolder@@QAA@XZ       1001b650 f   ceshui:ZipFolder.obj
 0001:0001a6e0       ??1ZipFolder@@UAA@XZ       1001b6e0 f   ceshui:ZipFolder.obj
 0001:0001a7d8       ?EnumObjects@ZipFolder@@UAAJPAUHWND__@@KPAPAUIEnumIDList@@@Z 1001b7d8 f   ceshui:ZipFolder.obj
 0001:0001a8a8       ?BindToObject@ZipFolder@@UAAJPFBU_ITEMIDLIST@@PAUIBindCtx@@ABU_GUID@@PAPAX@Z 1001b8a8 f   ceshui:ZipFolder.obj
 0001:0001aac0       ?SetNameOf@ZipFolder@@UAAJPAUHWND__@@PFBU_ITEMIDLIST@@PBGKPAPFAU3@@Z 1001bac0 f   ceshui:ZipFolder.obj
 0001:0001aacc       ?Initialize@ZipFolder@@UAAJPFBU_ITEMIDLIST@@@Z 1001bacc f   ceshui:ZipFolder.obj
 0001:0001aad4       ?AddRef@CFileFolder@@W7AAKXZ 1001bad4 f i ceshui:ZipFolder.obj
 0001:0001aadc       ?QueryInterface@CFileFolder@@W3AAJABU_GUID@@PAPAX@Z 1001badc f i ceshui:ZipFolder.obj
 0001:0001aae4       ?QueryInterface@CFileFolder@@W7AAJABU_GUID@@PAPAX@Z 1001bae4 f i ceshui:ZipFolder.obj
 0001:0001aaec       ?Release@CFileFolder@@W3AAKXZ 1001baec f i ceshui:ZipFolder.obj
 0001:0001aaf4       ?Release@CFileFolder@@W7AAKXZ 1001baf4 f i ceshui:ZipFolder.obj
 0001:0001aafc       ?AddRef@CFileFolder@@W3AAKXZ 1001bafc f i ceshui:ZipFolder.obj
 0001:0001ab04       ??_EZipFolder@@UAAPAXI@Z   1001bb04 f i ceshui:ZipFolder.obj
 0001:0001ab04       ??_GZipFolder@@UAAPAXI@Z   1001bb04 f i ceshui:ZipFolder.obj
 0001:0001ab28       ?CreateEnum@ZipFolder@@UAAJPAVZipFileSystemEnum@@PFBU_ITEMIDLIST@@@Z 1001bb28 f   ceshui:ZipFolder.obj
 0001:0001ac20       ?GetOrder@CSpecTbl@CStartFolder@@QAAIPBG@Z 1001bc20 f   ceshui:startfolder.obj
 0001:0001ad20       ??0CStartFolder@@QAA@XZ    1001bd20 f   ceshui:startfolder.obj
 0001:0001adb8       ?GetPath@CStartFolder@@MBAPAGPAIK@Z 1001bdb8 f   ceshui:startfolder.obj
 0001:0001af00       ?TreatAsUNC@CStartFolder@@UAAJH@Z 1001bf00 f   ceshui:startfolder.obj
 0001:0001af08       ?BindToObject@CStartFolder@@UAAJPFBU_ITEMIDLIST@@PAUIBindCtx@@ABU_GUID@@PAPAX@Z 1001bf08 f   ceshui:startfolder.obj
 0001:0001b058       ?CompareIDs@CStartFolder@@UAAJJPFBU_ITEMIDLIST@@0@Z 1001c058 f   ceshui:startfolder.obj
 0001:0001b258       ?CreateViewObject@CStartFolder@@UAAJPAUHWND__@@ABU_GUID@@PAPAX@Z 1001c258 f   ceshui:startfolder.obj
 0001:0001b418       ?EnumObjects@CStartFolder@@UAAJPAUHWND__@@KPAPAUIEnumIDList@@@Z 1001c418 f   ceshui:startfolder.obj
 0001:0001b4fc       ?SortItems@CSpecTbl@CStartFolder@@IAAXPAUSPECITEM@12@0@Z 1001c4fc f   ceshui:startfolder.obj
 0001:0001b640       ?Release@CSpecTbl@CStartFolder@@QAAKXZ 1001c640 f   ceshui:startfolder.obj
 0001:0001b698       ?CreateTbl@CSpecTbl@CStartFolder@@IAAJXZ 1001c698 f   ceshui:startfolder.obj
 0001:0001b824       ??1CStartFolder@@UAA@XZ    1001c824 f   ceshui:startfolder.obj
 0001:0001b870       ??0CSpecTbl@CStartFolder@@QAA@XZ 1001c870 f   ceshui:startfolder.obj
 0001:0001b8a0       ??_ECStartFolder@@UAAPAXI@Z 1001c8a0 f i ceshui:startfolder.obj
 0001:0001b8a0       ??_GCStartFolder@@UAAPAXI@Z 1001c8a0 f i ceshui:startfolder.obj
 0001:0001b8cc       ?GetSpecOrder@CStartFolder@@MAAIPFBU_ITEMIDLIST@@@Z 1001c8cc f   ceshui:startfolder.obj
 0001:0001b9e8       ?ShowNetworkError@CNetworkFolder@@IAAXJPAG@Z 1001c9e8 f   ceshui:netfolder.obj
 0001:0001ba64       ?QueryInterface@CNetworkFolder@@UAAJABU_GUID@@PAPAX@Z 1001ca64 f   ceshui:netfolder.obj
 0001:0001bb24       ?AddRef@CNetworkFolder@@UAAKXZ 1001cb24 f   ceshui:netfolder.obj
 0001:0001bb38       ?BindToObject@CNetworkFolder@@UAAJPFBU_ITEMIDLIST@@PAUIBindCtx@@ABU_GUID@@PAPAX@Z 1001cb38 f   ceshui:netfolder.obj
 0001:0001bcbc       ?BindToStorage@CNetworkFolder@@UAAJPFBU_ITEMIDLIST@@PAUIBindCtx@@ABU_GUID@@PAPAX@Z 1001ccbc f   ceshui:netfolder.obj
 0001:0001bcc8       ?CompareIDs@CNetworkFolder@@UAAJJPFBU_ITEMIDLIST@@0@Z 1001ccc8 f   ceshui:netfolder.obj
 0001:0001bcd4       ?CreateViewObject@CNetworkFolder@@UAAJPAUHWND__@@ABU_GUID@@PAPAX@Z 1001ccd4 f   ceshui:netfolder.obj
 0001:0001bce0       ?EnumObjects@CNetworkFolder@@UAAJPAUHWND__@@KPAPAUIEnumIDList@@@Z 1001cce0 f   ceshui:netfolder.obj
 0001:0001bcec       ?GetAttributesOf@CNetworkFolder@@UAAJIPAPFBU_ITEMIDLIST@@PAK@Z 1001ccec f   ceshui:netfolder.obj
 0001:0001bd0c       ?GetDisplayNameOf@CNetworkFolder@@UAAJPFBU_ITEMIDLIST@@KPAU_STRRET@@@Z 1001cd0c f   ceshui:netfolder.obj
 0001:0001bdb4       ?GetUIObjectOf@CNetworkFolder@@UAAJPAUHWND__@@IPAPFBU_ITEMIDLIST@@ABU_GUID@@PAIPAPAX@Z 1001cdb4 f   ceshui:netfolder.obj
 0001:0001bdc0       ?ParseDisplayName@CNetworkFolder@@UAAJPAUHWND__@@PAUIBindCtx@@PAGPAKPAPFAU_ITEMIDLIST@@3@Z 1001cdc0 f   ceshui:netfolder.obj
 0001:0001c050       ?SetNameOf@CNetworkFolder@@UAAJPAUHWND__@@PFBU_ITEMIDLIST@@PBGKPAPFAU3@@Z 1001d050 f   ceshui:netfolder.obj
 0001:0001c05c       ?GetClassID@CNetworkFolder@@UAAJPAU_GUID@@@Z 1001d05c f   ceshui:netfolder.obj
 0001:0001c068       ?Initialize@CNetworkFolder@@UAAJPFBU_ITEMIDLIST@@@Z 1001d068 f   ceshui:netfolder.obj
 0001:0001c074       ?QueryInterface@CNetworkFolder@@W3AAJABU_GUID@@PAPAX@Z 1001d074 f i ceshui:netfolder.obj
 0001:0001c07c       ?AddRef@CNetworkFolder@@W3AAKXZ 1001d07c f i ceshui:netfolder.obj
 0001:0001c084       ?Release@CNetworkFolder@@UAAKXZ 1001d084 f   ceshui:netfolder.obj
 0001:0001c0c8       ?Release@CNetworkFolder@@W3AAKXZ 1001d0c8 f i ceshui:netfolder.obj
 0001:0001c0d0       ??0CNetworkFolder@@QAA@XZ  1001d0d0 f   ceshui:netfolder.obj
 0001:0001c0f4       ??1CDesktopFolder@@QAA@XZ  1001d0f4 f   ceshui:deskfolder.obj
 0001:0001c130       ?CreateRootPidl@CDesktopFolder@@CAPFAU_ITEMIDLIST@@XZ 1001d130 f   ceshui:deskfolder.obj
 0001:0001c164       ?GetDesktop@CDesktopFolder@@AAAJPAPFAU_ITEMIDLIST@@PAPAUIShellFolder@@@Z 1001d164 f   ceshui:deskfolder.obj
 0001:0001c2a0       ?QueryInterface@CDesktopFolder@@UAAJABU_GUID@@PAPAX@Z 1001d2a0 f   ceshui:deskfolder.obj
 0001:0001c3ac       ?AddRef@CDesktopFolder@@UAAKXZ 1001d3ac f   ceshui:deskfolder.obj
 0001:0001c3c8       ?BindToObject@CDesktopFolder@@UAAJPFBU_ITEMIDLIST@@PAUIBindCtx@@ABU_GUID@@PAPAX@Z 1001d3c8 f   ceshui:deskfolder.obj
 0001:0001c594       ?BindToStorage@CDesktopFolder@@UAAJPFBU_ITEMIDLIST@@PAUIBindCtx@@ABU_GUID@@PAPAX@Z 1001d594 f   ceshui:deskfolder.obj
 0001:0001c5a0       ?CompareIDs@CDesktopFolder@@UAAJJPFBU_ITEMIDLIST@@0@Z 1001d5a0 f   ceshui:deskfolder.obj
 0001:0001c804       ?CreateViewObject@CDesktopFolder@@UAAJPAUHWND__@@ABU_GUID@@PAPAX@Z 1001d804 f   ceshui:deskfolder.obj
 0001:0001c9a4       ?EnumObjects@CDesktopFolder@@UAAJPAUHWND__@@KPAPAUIEnumIDList@@@Z 1001d9a4 f   ceshui:deskfolder.obj
 0001:0001ca6c       ?GetAttributesOf@CDesktopFolder@@UAAJIPAPFBU_ITEMIDLIST@@PAK@Z 1001da6c f   ceshui:deskfolder.obj
 0001:0001cb94       ?GetDisplayNameOf@CDesktopFolder@@UAAJPFBU_ITEMIDLIST@@KPAU_STRRET@@@Z 1001db94 f   ceshui:deskfolder.obj
 0001:0001cd38       ?GetUIObjectOf@CDesktopFolder@@UAAJPAUHWND__@@IPAPFBU_ITEMIDLIST@@ABU_GUID@@PAIPAPAX@Z 1001dd38 f   ceshui:deskfolder.obj
 0001:0001d020       ?ParseDisplayName@CDesktopFolder@@UAAJPAUHWND__@@PAUIBindCtx@@PAGPAKPAPFAU_ITEMIDLIST@@3@Z 1001e020 f   ceshui:deskfolder.obj
 0001:0001d374       ?SetNameOf@CDesktopFolder@@UAAJPAUHWND__@@PFBU_ITEMIDLIST@@PBGKPAPFAU3@@Z 1001e374 f   ceshui:deskfolder.obj
 0001:0001d4c0       ?ColumnClick@CDesktopFolder@@UAAJI@Z 1001e4c0 f   ceshui:deskfolder.obj
 0001:0001d4c8       ?GetDetailsOf@CDesktopFolder@@UAAJPFBU_ITEMIDLIST@@IPAU_SHELLDETAILS@@@Z 1001e4c8 f   ceshui:deskfolder.obj
 0001:0001d5d8       ?GetClassID@CDesktopFolder@@UAAJPAU_GUID@@@Z 1001e5d8 f   ceshui:deskfolder.obj
 0001:0001d5e4       ?Initialize@CDesktopFolder@@UAAJPFBU_ITEMIDLIST@@@Z 1001e5e4 f   ceshui:deskfolder.obj
 0001:0001d5f0       ?AddRef@CDesktopFolder@@W3AAKXZ 1001e5f0 f i ceshui:deskfolder.obj
 0001:0001d5f8       ?AddRef@CDesktopFolder@@W7AAKXZ 1001e5f8 f i ceshui:deskfolder.obj
 0001:0001d600       ?QueryInterface@CDesktopFolder@@W3AAJABU_GUID@@PAPAX@Z 1001e600 f i ceshui:deskfolder.obj
 0001:0001d608       ?QueryInterface@CDesktopFolder@@W7AAJABU_GUID@@PAPAX@Z 1001e608 f i ceshui:deskfolder.obj
 0001:0001d610       ?Release@CDesktopFolder@@UAAKXZ 1001e610 f   ceshui:deskfolder.obj
 0001:0001d644       ?Release@CDesktopFolder@@W3AAKXZ 1001e644 f i ceshui:deskfolder.obj
 0001:0001d64c       ?Release@CDesktopFolder@@W7AAKXZ 1001e64c f i ceshui:deskfolder.obj
 0001:0001d654       ??0CDesktopFolder@@QAA@XZ  1001e654 f   ceshui:deskfolder.obj
 0001:0001d6a8       ??1CFileFolder@@UAA@XZ     1001e6a8 f   ceshui:filefolder.obj
 0001:0001d700       ?GetPath@CFileFolder@@MBAPAGPAIK@Z 1001e700 f   ceshui:filefolder.obj
 0001:0001d860       ?GetType@CFileFolder@@MAAPBGPFBU_ITEMIDLIST@@PAGK@Z 1001e860 f   ceshui:filefolder.obj
 0001:0001d91c       ?InitializeNoVerify@CFileFolder@@UAAJPFBU_ITEMIDLIST@@@Z 1001e91c f   ceshui:filefolder.obj
 0001:0001d970       ?TreatAsUNC@CFileFolder@@UAAJH@Z 1001e970 f   ceshui:filefolder.obj
 0001:0001d9cc       ?QueryInterface@CFileFolder@@UAAJABU_GUID@@PAPAX@Z 1001e9cc f   ceshui:filefolder.obj
 0001:0001dad8       ?AddRef@CFileFolder@@UAAKXZ 1001ead8 f   ceshui:filefolder.obj
 0001:0001dae0       ?Release@CFileFolder@@UAAKXZ 1001eae0 f   ceshui:filefolder.obj
 0001:0001db18       ?BindToStorage@CFileFolder@@UAAJPFBU_ITEMIDLIST@@PAUIBindCtx@@ABU_GUID@@PAPAX@Z 1001eb18 f   ceshui:filefolder.obj
 0001:0001db2c       ?CompareIDs@CFileFolder@@UAAJJPFBU_ITEMIDLIST@@0@Z 1001eb2c f   ceshui:filefolder.obj
 0001:0001dfbc       ?CreateViewObject@CFileFolder@@UAAJPAUHWND__@@ABU_GUID@@PAPAX@Z 1001efbc f   ceshui:filefolder.obj
 0001:0001e21c       ?EnumObjects@CFileFolder@@UAAJPAUHWND__@@KPAPAUIEnumIDList@@@Z 1001f21c f   ceshui:filefolder.obj
 0001:0001e308       ?GetAttributesOf@CFileFolder@@UAAJIPAPFBU_ITEMIDLIST@@PAK@Z 1001f308 f   ceshui:filefolder.obj
 0001:0001e62c       ?GetDisplayNameOf@CFileFolder@@UAAJPFBU_ITEMIDLIST@@KPAU_STRRET@@@Z 1001f62c f   ceshui:filefolder.obj
 0001:0001e8c4       ?ParseDisplayName@CFileFolder@@UAAJPAUHWND__@@PAUIBindCtx@@PAGPAKPAPFAU_ITEMIDLIST@@3@Z 1001f8c4 f   ceshui:filefolder.obj
 0001:0001eb6c       ?SetNameOf@CFileFolder@@UAAJPAUHWND__@@PFBU_ITEMIDLIST@@PBGKPAPFAU3@@Z 1001fb6c f   ceshui:filefolder.obj
 0001:0001ee74       ?ColumnClick@CFileFolder@@UAAJI@Z 1001fe74 f   ceshui:filefolder.obj
 0001:0001ee84       ?GetDetailsOf@CFileFolder@@UAAJPFBU_ITEMIDLIST@@IPAU_SHELLDETAILS@@@Z 1001fe84 f   ceshui:filefolder.obj
 0001:0001f38c       ?GetClassID@CFileFolder@@UAAJPAU_GUID@@@Z 1002038c f   ceshui:filefolder.obj
 0001:0001f398       ?Initialize@CFileFolder@@UAAJPFBU_ITEMIDLIST@@@Z 10020398 f   ceshui:filefolder.obj
 0001:0001f484       ??_GCFileFolder@@UAAPAXI@Z 10020484 f i ceshui:filefolder.obj
 0001:0001f484       ??_ECFileFolder@@UAAPAXI@Z 10020484 f i ceshui:filefolder.obj
 0001:0001f4b0       ?GetUIObjectOf@CFileFolder@@UAAJPAUHWND__@@IPAPFBU_ITEMIDLIST@@ABU_GUID@@PAIPAPAX@Z 100204b0 f   ceshui:filefolder.obj
 0001:0001f8c0       ??0CFileFolder@@QAA@XZ     100208c0 f   ceshui:filefolder.obj
 0001:0001f928       ?BindToObject@CFileFolder@@UAAJPFBU_ITEMIDLIST@@PAUIBindCtx@@ABU_GUID@@PAPAX@Z 10020928 f   ceshui:filefolder.obj
 0001:0001fb9c       ??BCShellListView@@QBAPAUHWND__@@XZ 10020b9c f i ceshui:defshellview.obj
 0001:0001fbe0       ?DetailsOfToColumn@CDefShellView@@IBAHI@Z 10020be0 f i ceshui:defshellview.obj
 0001:0001fc28       ??1ChangeNotifyEventData@CDefShellView@@QAA@XZ 10020c28 f   ceshui:defshellview.obj
 0001:0001fc44       ?Initialize@ColumnDetails@CDefShellView@@QAAXIHHI@Z 10020c44 f   ceshui:defshellview.obj
 0001:0001fcb0       ?WndProc@CDefShellView@@KAJPAUHWND__@@IIJ@Z 10020cb0 f   ceshui:defshellview.obj
 0001:00020080       ?TTAddRef@CDefShellView@@KAKXZ 10021080 f   ceshui:defshellview.obj
 0001:000200d8       ?TTRelease@CDefShellView@@KAKXZ 100210d8 f   ceshui:defshellview.obj
 0001:00020114       ?FSAddRef@CDefShellView@@KAKXZ 10021114 f   ceshui:defshellview.obj
 0001:000202b0       ?FSRelease@CDefShellView@@KAKXZ 100212b0 f   ceshui:defshellview.obj
 0001:00020318       ?AllowEditCommand@CDefShellView@@MAAHXZ 10021318 f   ceshui:defshellview.obj
 0001:0002033c       ?ApplyColumnWidths@CDefShellView@@MAAXXZ 1002133c f   ceshui:defshellview.obj
 0001:0002042c       ?ApplyLabelEdit@CDefShellView@@MAAJPAUtagLVDISPINFOW@@@Z 1002142c f   ceshui:defshellview.obj
 0001:00020614       ?BeginLabelEdit@CDefShellView@@MAAJPAUtagLVDISPINFOW@@@Z 10021614 f   ceshui:defshellview.obj
 0001:000206e8       ?Create@CDefShellView@@MAAJPAUHWND__@@KK@Z 100216e8 f   ceshui:defshellview.obj
 0001:000209fc       ?CreateShellListView@CDefShellView@@MAAPAVCShellListView@@I@Z 100219fc f   ceshui:defshellview.obj
 0001:00020a44       ?DoContextMenu@CDefShellView@@MAAXU_POINTL@@@Z 10021a44 f   ceshui:defshellview.obj
 0001:00020cac       ?DoDismissFolder@CDefShellView@@MAAXXZ 10021cac f   ceshui:defshellview.obj
 0001:00020d5c       ?DoDragDrop@CDefShellView@@MAAJPAUtagNMLISTVIEW@@@Z 10021d5c f   ceshui:defshellview.obj
 0001:00020ec0       ?DoNewFolder@CDefShellView@@MAAXXZ 10021ec0 f   ceshui:defshellview.obj
 0001:00021098       ?DoProperties@CDefShellView@@MAAXXZ 10022098 f   ceshui:defshellview.obj
 0001:00021318       ?GetDisplayInfo@CDefShellView@@MAAXPAUtagLVDISPINFOW@@@Z 10022318 f   ceshui:defshellview.obj
 0001:0002147c       ?GetIconIndex@CDefShellView@@MAAHPFAU_ITEMIDLIST@@@Z 1002247c f   ceshui:defshellview.obj
 0001:00021630       ?GetProperties@CDefShellView@@MAAJABU_GUID@@PAGK@Z 10022630 f   ceshui:defshellview.obj
 0001:00021738       ?HandleHibernate@CDefShellView@@MAAJXZ 10022738 f   ceshui:defshellview.obj
 0001:00021790       ?HandleBrowseObject@CDefShellView@@MAAJPFBU_ITEMIDLIST@@I@Z 10022790 f   ceshui:defshellview.obj
 0001:0002180c       ?HandleChangeNotify@CDefShellView@@MAAJPAUChangeNotifyEventData@1@@Z 1002280c f   ceshui:defshellview.obj
 0001:00021f28       ?HandleInitMenuPopup@CDefShellView@@MAAJPAUHMENU__@@PAUPopupMenuInfo@1@@Z 10022f28 f   ceshui:defshellview.obj
 0001:00022210       ?HandleSelectionChange@CDefShellView@@MAAJXZ 10023210 f   ceshui:defshellview.obj
 0001:00022370       ?HandleSettingChange@CDefShellView@@MAAJKPBG@Z 10023370 f   ceshui:defshellview.obj
 0001:00022414       ?HandleSysColorChange@CDefShellView@@MAAXXZ 10023414 f   ceshui:defshellview.obj
 0001:000224a4       ?InitializeStatusBar@CDefShellView@@MAAXXZ 100234a4 f   ceshui:defshellview.obj
 0001:00022610       ?LoadDefaultColumnDetails@CDefShellView@@MAAXXZ 10023610 f   ceshui:defshellview.obj
 0001:000228dc       ?LoadColumnDetails@CDefShellView@@MAAXXZ 100238dc f   ceshui:defshellview.obj
 0001:00022a80       ?LoadPopupMenuTemplate@CDefShellView@@MAAPAUHMENU__@@XZ 10023a80 f   ceshui:defshellview.obj
 0001:00022a94       ?MakeEditableOnAdd@CDefShellView@@MAAXPFBU_ITEMIDLIST@@@Z 10023a94 f   ceshui:defshellview.obj
 0001:00022ac4       ?MergeSubMenu@CDefShellView@@MAAHPAUHMENU__@@PAUtagINSMENUDATA@@HH@Z 10023ac4 f   ceshui:defshellview.obj
 0001:00022b60       ?Resize@CDefShellView@@MAAXKK@Z 10023b60 f   ceshui:defshellview.obj
 0001:00022b98       ?ResizeFillColumn@CDefShellView@@MAAXXZ 10023b98 f   ceshui:defshellview.obj
 0001:00022c54       ?SetViewMode@CDefShellView@@MAAHI@Z 10023c54 f   ceshui:defshellview.obj
 0001:00022e3c       ?UpdateBrowserMenus@CDefShellView@@MAAHI@Z 10023e3c f   ceshui:defshellview.obj
 0001:0002320c       ?UpdateBrowserToolbar@CDefShellView@@MAAHI@Z 1002420c f   ceshui:defshellview.obj
 0001:00023300       ?UpdateCurrentDropTarget@CDefShellView@@MAAXKU_POINTL@@PAK@Z 10024300 f   ceshui:defshellview.obj
 0001:000234ec       ?UpdateStatusBar@CDefShellView@@MAAXPAPFBU_ITEMIDLIST@@I@Z 100244ec f   ceshui:defshellview.obj
 0001:00023788       ?UpdateUndoMenuItem@CDefShellView@@MAAXPAUHMENU__@@@Z 10024788 f   ceshui:defshellview.obj
 0001:00023854       ?IsUserAddedItem@CDefShellView@@KAHPFBU_ITEMIDLIST@@@Z 10024854 f   ceshui:defshellview.obj
 0001:00023898       ?QueryInterface@CDefShellView@@UAAJABU_GUID@@PAPAX@Z 10024898 f   ceshui:defshellview.obj
 0001:00023ab8       ?AddRef@CDefShellView@@UAAKXZ 10024ab8 f   ceshui:defshellview.obj
 0001:00023acc       ?ContextSensitiveHelp@CDefShellView@@UAAJH@Z 10024acc f   ceshui:defshellview.obj
 0001:00023ad8       ?GetWindow@CDefShellView@@UAAJPAPAUHWND__@@@Z 10024ad8 f   ceshui:defshellview.obj
 0001:00023af4       ?AddPropertySheetPages@CDefShellView@@UAAJKP6AHPAU_PSP@@J@ZJ@Z 10024af4 f   ceshui:defshellview.obj
 0001:00023b08       ?CreateViewWindow@CDefShellView@@UAAJPAUIShellView@@PBUtagFOLDERSETTINGS@@PAUIShellBrowser@@PAUtagRECT@@PAPAUHWND__@@@Z 10024b08 f   ceshui:defshellview.obj
 0001:00023f28       ?DestroyViewWindow@CDefShellView@@UAAJXZ 10024f28 f   ceshui:defshellview.obj
 0001:00024130       ?EnableModeless@CDefShellView@@UAAJH@Z 10025130 f   ceshui:defshellview.obj
 0001:0002413c       ?GetCurrentInfo@CDefShellView@@UAAJPAUtagFOLDERSETTINGS@@@Z 1002513c f   ceshui:defshellview.obj
 0001:00024164       ?GetItemObject@CDefShellView@@UAAJIABU_GUID@@PAPAX@Z 10025164 f   ceshui:defshellview.obj
 0001:00024184       ?SaveViewState@CDefShellView@@UAAJXZ 10025184 f   ceshui:defshellview.obj
 0001:00024190       ?SelectItem@CDefShellView@@UAAJPFBU_ITEMIDLIST@@I@Z 10025190 f   ceshui:defshellview.obj
 0001:00024224       ?TranslateAcceleratorW@CDefShellView@@UAAJPAUtagMSG@@@Z 10025224 f   ceshui:defshellview.obj
 0001:000243f4       ?UIActivate@CDefShellView@@UAAJI@Z 100253f4 f   ceshui:defshellview.obj
 0001:00024424       ?QueryStatus@CDefShellView@@UAAJPBU_GUID@@KQAU_tagOLECMD@@PAU_tagOLECMDTEXT@@@Z 10025424 f   ceshui:defshellview.obj
 0001:00024b5c       ?Exec@CDefShellView@@UAAJPBU_GUID@@KKPAUtagVARIANT@@1@Z 10025b5c f   ceshui:defshellview.obj
 0001:00024bdc       ?OnFrameWindowActivate@CDefShellView@@UAAJH@Z 10025bdc f   ceshui:defshellview.obj
 0001:00024c08       ?OnDocWindowActivate@CDefShellView@@UAAJH@Z 10025c08 f   ceshui:defshellview.obj
 0001:00024c14       ?ResizeBorder@CDefShellView@@UAAJPBUtagRECT@@PAUIOleInPlaceUIWindow@@H@Z 10025c14 f   ceshui:defshellview.obj
 0001:00024c20       ?OnChange@CDefShellView@@UAAJJPFBU_ITEMIDLIST@@0@Z 10025c20 f   ceshui:defshellview.obj
 0001:00024d04       ?QueryContinueDrag@CDefShellView@@UAAJHK@Z 10025d04 f   ceshui:defshellview.obj
 0001:00024d28       ?GiveFeedback@CDefShellView@@UAAJK@Z 10025d28 f   ceshui:defshellview.obj
 0001:00024d54       ?DragEnter@CDefShellView@@UAAJPAUIDataObject@@KU_POINTL@@PAK@Z 10025d54 f   ceshui:defshellview.obj
 0001:00024f60       ?DragOver@CDefShellView@@UAAJKU_POINTL@@PAK@Z 10025f60 f   ceshui:defshellview.obj
 0001:000250ec       ?DragLeave@CDefShellView@@UAAJXZ 100260ec f   ceshui:defshellview.obj
 0001:00025178       ?Drop@CDefShellView@@UAAJPAUIDataObject@@KU_POINTL@@PAK@Z 10026178 f   ceshui:defshellview.obj
 0001:0002535c       ?SetFilterString@CDefShellView@@UAAJPBG@Z 1002635c f   ceshui:defshellview.obj
 0001:00025440       ?SetCustomFilter@CDefShellView@@UAAJPAUICustomEnumFilter@@@Z 10026440 f   ceshui:defshellview.obj
 0001:00025488       ?GetFocusedItem@CDefShellView@@UAAJPAH@Z 10026488 f   ceshui:defshellview.obj
 0001:00025504       ?EnablePersistentViewMode@CDefShellView@@UAAJH@Z 10026504 f   ceshui:defshellview.obj
 0001:00025520       ?GetSelectedItems@CDefShellView@@UAAJPAPAPFBU_ITEMIDLIST@@PAI@Z 10026520 f   ceshui:defshellview.obj
 0001:00025580       ?SelectItem@CDefShellView@@UAAJHK@Z 10026580 f   ceshui:defshellview.obj
 0001:0002568c       ?SetColumnWidths@CDefShellView@@UAAJPAHH@Z 1002668c f   ceshui:defshellview.obj
 0001:000257a8       ?AddItem@CDefShellView@@UAAJPBGKH@Z 100267a8 f   ceshui:defshellview.obj
 0001:00025854       ?GetUserItemID@CDefShellView@@UAAJPFBU_ITEMIDLIST@@PAK@Z 10026854 f   ceshui:defshellview.obj
 0001:000258b0       ?EnableWrapSelection@CDefShellView@@UAAJH@Z 100268b0 f   ceshui:defshellview.obj
 0001:000258c8       ?GetEnumIDList@CDefShellView@@IAAJPAPAUIEnumIDList@@W4tagENUMERATOR_TYPE@@@Z 100268c8 f   ceshui:defshellview.obj
 0001:0002598c       ??1CDefShellView@@QAA@XZ   1002698c f   ceshui:defshellview.obj
 0001:00025af0       ?GetDefaultSelection@CDefShellView@@MBAHXZ 10026af0 f i ceshui:defshellview.obj
 0001:00025af8       ?QueryInterface@CDefShellView@@W3AAJABU_GUID@@PAPAX@Z 10026af8 f i ceshui:defshellview.obj
 0001:00025b00       ?AddRef@CDefShellView@@WM@AAKXZ 10026b00 f i ceshui:defshellview.obj
 0001:00025b08       ?QueryInterface@CDefShellView@@W7AAJABU_GUID@@PAPAX@Z 10026b08 f i ceshui:defshellview.obj
 0001:00025b10       ?AddRef@CDefShellView@@WBA@AAKXZ 10026b10 f i ceshui:defshellview.obj
 0001:00025b18       ?QueryInterface@CDefShellView@@WM@AAJABU_GUID@@PAPAX@Z 10026b18 f i ceshui:defshellview.obj
 0001:00025b20       ?AddRef@CDefShellView@@WBE@AAKXZ 10026b20 f i ceshui:defshellview.obj
 0001:00025b28       ?QueryInterface@CDefShellView@@WBA@AAJABU_GUID@@PAPAX@Z 10026b28 f i ceshui:defshellview.obj
 0001:00025b30       ?ContextSensitiveHelp@CDefShellView@@W7AAJH@Z 10026b30 f i ceshui:defshellview.obj
 0001:00025b38       ?AddRef@CDefShellView@@WBI@AAKXZ 10026b38 f i ceshui:defshellview.obj
 0001:00025b40       ?QueryInterface@CDefShellView@@WBE@AAJABU_GUID@@PAPAX@Z 10026b40 f i ceshui:defshellview.obj
 0001:00025b48       ?AddRef@CDefShellView@@WBM@AAKXZ 10026b48 f i ceshui:defshellview.obj
 0001:00025b50       ?GetWindow@CDefShellView@@W7AAJPAPAUHWND__@@@Z 10026b50 f i ceshui:defshellview.obj
 0001:00025b58       ?QueryInterface@CDefShellView@@WBI@AAJABU_GUID@@PAPAX@Z 10026b58 f i ceshui:defshellview.obj
 0001:00025b60       ?TranslateAcceleratorW@CDefShellView@@W7AAJPAUtagMSG@@@Z 10026b60 f i ceshui:defshellview.obj
 0001:00025b68       ?QueryInterface@CDefShellView@@WBM@AAJABU_GUID@@PAPAX@Z 10026b68 f i ceshui:defshellview.obj
 0001:00025b70       ?AddRef@CDefShellView@@W3AAKXZ 10026b70 f i ceshui:defshellview.obj
 0001:00025b78       ?EnableModeless@CDefShellView@@W7AAJH@Z 10026b78 f i ceshui:defshellview.obj
 0001:00025b80       ?AddRef@CDefShellView@@W7AAKXZ 10026b80 f i ceshui:defshellview.obj
 0001:00025b88       ?CompareItems@CDefShellView@@KAHJJJ@Z 10026b88 f   ceshui:defshellview.obj
 0001:00025c08       ?Destroy@CDefShellView@@MAAXXZ 10026c08 f   ceshui:defshellview.obj
 0001:00025d3c       ?HandleCommand@CDefShellView@@MAAJKPAUtagVARIANT@@@Z 10026d3c f   ceshui:defshellview.obj
 0001:000267d4       ?HandleNotify@CDefShellView@@MAAJPAUtagNMHDR@@@Z 100277d4 f   ceshui:defshellview.obj
 0001:00026c18       ?PerformAction@CDefShellView@@MAAJW4OLECMDID@@K@Z 10027c18 f   ceshui:defshellview.obj
 0001:000271a0       ?Refresh@CDefShellView@@UAAJXZ 100281a0 f   ceshui:defshellview.obj
 0001:000273ac       ?TestFindCriteria@CDefShellView@@UAAJPBG@Z 100283ac f   ceshui:defshellview.obj
 0001:000274c8       ?Release@CDefShellView@@UAAKXZ 100284c8 f   ceshui:defshellview.obj
 0001:000274fc       ?Release@CDefShellView@@WBE@AAKXZ 100284fc f i ceshui:defshellview.obj
 0001:00027504       ?Release@CDefShellView@@WBI@AAKXZ 10028504 f i ceshui:defshellview.obj
 0001:0002750c       ?Release@CDefShellView@@WBM@AAKXZ 1002850c f i ceshui:defshellview.obj
 0001:00027514       ?Release@CDefShellView@@W3AAKXZ 10028514 f i ceshui:defshellview.obj
 0001:0002751c       ?Release@CDefShellView@@W7AAKXZ 1002851c f i ceshui:defshellview.obj
 0001:00027524       ?Release@CDefShellView@@WM@AAKXZ 10028524 f i ceshui:defshellview.obj
 0001:0002752c       ?Release@CDefShellView@@WBA@AAKXZ 1002852c f i ceshui:defshellview.obj
 0001:0002753c       ??0CDefShellView@@QAA@PAUIShellFolder@@PFBU_ITEMIDLIST@@@Z 1002853c f   ceshui:defshellview.obj
 0001:00027854       ?Initialize@CNameSpaceEnum@@QAAHABU_GUID@@PFBU_ITEMIDLIST@@@Z 10028854 f   ceshui:nsenum.obj
 0001:000278c0       ?Close@CNameSpaceEnum@@QAAXXZ 100288c0 f   ceshui:nsenum.obj
 0001:00027908       ?QueryInterface@CNameSpaceEnum@@UAAJABU_GUID@@PAPAX@Z 10028908 f   ceshui:nsenum.obj
 0001:000279e4       ?AddRef@CNameSpaceEnum@@UAAKXZ 100289e4 f   ceshui:nsenum.obj
 0001:000279f8       ?Clone@CNameSpaceEnum@@UAAJPAPAUIEnumIDList@@@Z 100289f8 f   ceshui:nsenum.obj
 0001:00027a0c       ?Next@CNameSpaceEnum@@UAAJKPAPFAU_ITEMIDLIST@@PAK@Z 10028a0c f   ceshui:nsenum.obj
 0001:00027ba4       ?Reset@CNameSpaceEnum@@UAAJXZ 10028ba4 f   ceshui:nsenum.obj
 0001:00027d08       ?Skip@CNameSpaceEnum@@UAAJK@Z 10028d08 f   ceshui:nsenum.obj
 0001:00027d14       ?SetFilterString@CNameSpaceEnum@@UAAJPBG@Z 10028d14 f   ceshui:nsenum.obj
 0001:00027db4       ?TestFindCriteria@CNameSpaceEnum@@UAAJPBG@Z 10028db4 f   ceshui:nsenum.obj
 0001:00027e3c       ?SetCustomFilter@CNameSpaceEnum@@UAAJPAUICustomEnumFilter@@@Z 10028e3c f   ceshui:nsenum.obj
 0001:00027ec0       ??1CNameSpaceEnum@@QAA@XZ  10028ec0 f   ceshui:nsenum.obj
 0001:00027ef8       ?AddRef@CNameSpaceEnum@@W3AAKXZ 10028ef8 f i ceshui:nsenum.obj
 0001:00027f00       ?QueryInterface@CNameSpaceEnum@@W3AAJABU_GUID@@PAPAX@Z 10028f00 f i ceshui:nsenum.obj
 0001:00027f08       ??0CNameSpaceEnum@@QAA@K@Z 10028f08 f   ceshui:nsenum.obj
 0001:00027f78       ?Release@CNameSpaceEnum@@UAAKXZ 10028f78 f   ceshui:nsenum.obj
 0001:00027fac       ?Release@CNameSpaceEnum@@W3AAKXZ 10028fac f i ceshui:nsenum.obj
 0001:00027fb4       ?QueryInterface@ZipFileInfo@ZipFileSystemEnum@@UAAJABU_GUID@@PAPAX@Z 10028fb4 f   ceshui:ZipFileSystemEnum.obj
 0001:00027fc0       ?AddRef@ZipFileInfo@ZipFileSystemEnum@@UAAKXZ 10028fc0 f   ceshui:ZipFileSystemEnum.obj
 0001:00028044       ?Release@ZipFileInfo@ZipFileSystemEnum@@UAAKXZ 10029044 f   ceshui:ZipFileSystemEnum.obj
 0001:000280c4       ?ZipTimeToFileTime@ZipFileSystemEnum@@AAAJGGPAU_FILETIME@@@Z 100290c4 f   ceshui:ZipFileSystemEnum.obj
 0001:00028150       ?ZipFileAttributesToFileAttributes@ZipFileSystemEnum@@AAAJKPAK@Z 10029150 f   ceshui:ZipFileSystemEnum.obj
 0001:000281c4       ?FindParentOfFile@ZipFileSystemEnum@@AAAJPAGPAPAVZipFileInfo@1@@Z 100291c4 f   ceshui:ZipFileSystemEnum.obj
 0001:000282d8       ?ZipNameToFileName@ZipFileSystemEnum@@AAAJPBGPAGK@Z 100292d8 f   ceshui:ZipFileSystemEnum.obj
 0001:00028324       ??1ZipFileSystemEnum@@QAA@XZ 10029324 f   ceshui:ZipFileSystemEnum.obj
 0001:00028430       ?QueryInterface@ZipFileSystemEnum@@UAAJABU_GUID@@PAPAX@Z 10029430 f   ceshui:ZipFileSystemEnum.obj
 0001:000284f0       ?AddRef@ZipFileSystemEnum@@UAAKXZ 100294f0 f   ceshui:ZipFileSystemEnum.obj
 0001:00028500       ?Next@ZipFileSystemEnum@@UAAJKPAPFAU_ITEMIDLIST@@PAK@Z 10029500 f   ceshui:ZipFileSystemEnum.obj
 0001:000286ac       ?Skip@ZipFileSystemEnum@@UAAJK@Z 100296ac f   ceshui:ZipFileSystemEnum.obj
 0001:000286b8       ?Reset@ZipFileSystemEnum@@UAAJXZ 100296b8 f   ceshui:ZipFileSystemEnum.obj
 0001:000286fc       ?Clone@ZipFileSystemEnum@@UAAJPAPAUIEnumIDList@@@Z 100296fc f   ceshui:ZipFileSystemEnum.obj
 0001:00028708       ?SetFilterString@ZipFileSystemEnum@@UAAJPBG@Z 10029708 f   ceshui:ZipFileSystemEnum.obj
 0001:00028714       ?AddRef@ZipFileSystemEnum@@W3AAKXZ 10029714 f i ceshui:ZipFileSystemEnum.obj
 0001:0002871c       ?QueryInterface@ZipFileSystemEnum@@W3AAJABU_GUID@@PAPAX@Z 1002971c f i ceshui:ZipFileSystemEnum.obj
 0001:0002872c       ?ParseZipFile@ZipFileSystemEnum@@AAAJPAEK@Z 1002972c f   ceshui:ZipFileSystemEnum.obj
 0001:00028ad0       ?ParseFile@ZipFileSystemEnum@@AAAJPBG@Z 10029ad0 f   ceshui:ZipFileSystemEnum.obj
 0001:00028bb8       ??0ZipFileSystemEnum@@QAA@XZ 10029bb8 f   ceshui:ZipFileSystemEnum.obj
 0001:00028c44       ?Initialize@ZipFileSystemEnum@@QAAJPAV1@PFBU_ITEMIDLIST@@PBG@Z 10029c44 f   ceshui:ZipFileSystemEnum.obj
 0001:00028dcc       ?Release@ZipFileSystemEnum@@UAAKXZ 10029dcc f   ceshui:ZipFileSystemEnum.obj
 0001:00028e04       ?Release@ZipFileSystemEnum@@W3AAKXZ 10029e04 f i ceshui:ZipFileSystemEnum.obj
 0001:00028e0c       ??0CStartShellView@@QAA@PAUIShellFolder@@PFBU_ITEMIDLIST@@@Z 10029e0c f   ceshui:startshellview.obj
 0001:00028eb8       ?DoContextMenu@CStartShellView@@MAAXU_POINTL@@@Z 10029eb8 f   ceshui:startshellview.obj
 0001:00028ec8       ?GetDefaultSelection@CStartShellView@@MBAHXZ 10029ec8 f   ceshui:startshellview.obj
 0001:00028ef0       ?HandleInitMenuPopup@CStartShellView@@MAAJPAUHMENU__@@PAUPopupMenuInfo@CDefShellView@@@Z 10029ef0 f   ceshui:startshellview.obj
 0001:00028f10       ?IsKeyboardAttached@CStartShellView@@AAAHXZ 10029f10 f   ceshui:startshellview.obj
 0001:00028f60       ?SetListViewColors@CStartShellView@@AAAXXZ 10029f60 f   ceshui:startshellview.obj
 0001:00029004       ?SelectScrollView@CStartShellView@@AAAXXZ 1002a004 f   ceshui:startshellview.obj
 0001:0002905c       ?Create@CStartShellView@@MAAJPAUHWND__@@KK@Z 1002a05c f   ceshui:startshellview.obj
 0001:0002908c       ?HandleSettingChange@CStartShellView@@MAAJKPBG@Z 1002a08c f   ceshui:startshellview.obj
 0001:000290c4       ?HandleSysColorChange@CStartShellView@@MAAXXZ 1002a0c4 f   ceshui:startshellview.obj
 0001:000290dc       ??1CFileSystemEnum@@QAA@XZ 1002a0dc f   ceshui:fsenum.obj
 0001:00029168       ?Initialize@CFileSystemEnum@@QAAHPFBU_ITEMIDLIST@@@Z 1002a168 f   ceshui:fsenum.obj
 0001:00029314       ?MeetsFindCriteria@CFileSystemEnum@@AAAHPAU_WIN32_FIND_DATAW@@@Z 1002a314 f   ceshui:fsenum.obj
 0001:000294d8       ?QueryInterface@CFileSystemEnum@@UAAJABU_GUID@@PAPAX@Z 1002a4d8 f   ceshui:fsenum.obj
 0001:000295b4       ?AddRef@CFileSystemEnum@@UAAKXZ 1002a5b4 f   ceshui:fsenum.obj
 0001:000295c8       ?Clone@CFileSystemEnum@@UAAJPAPAUIEnumIDList@@@Z 1002a5c8 f   ceshui:fsenum.obj
 0001:000295dc       ?Next@CFileSystemEnum@@UAAJKPAPFAU_ITEMIDLIST@@PAK@Z 1002a5dc f   ceshui:fsenum.obj
 0001:00029704       ?Reset@CFileSystemEnum@@UAAJXZ 1002a704 f   ceshui:fsenum.obj
 0001:00029710       ?Skip@CFileSystemEnum@@UAAJK@Z 1002a710 f   ceshui:fsenum.obj
 0001:0002971c       ?SetFilterString@CFileSystemEnum@@UAAJPBG@Z 1002a71c f   ceshui:fsenum.obj
 0001:00029808       ?TestFindCriteria@CFileSystemEnum@@UAAJPBG@Z 1002a808 f   ceshui:fsenum.obj
 0001:000298a4       ?SetCustomFilter@CFileSystemEnum@@UAAJPAUICustomEnumFilter@@@Z 1002a8a4 f   ceshui:fsenum.obj
 0001:000298ec       ?QueryInterface@CFileSystemEnum@@W3AAJABU_GUID@@PAPAX@Z 1002a8ec f i ceshui:fsenum.obj
 0001:000298f4       ?AddRef@CFileSystemEnum@@W3AAKXZ 1002a8f4 f i ceshui:fsenum.obj
 0001:000298fc       ?Release@CFileSystemEnum@@UAAKXZ 1002a8fc f   ceshui:fsenum.obj
 0001:00029930       ?Release@CFileSystemEnum@@W3AAKXZ 1002a930 f i ceshui:fsenum.obj
 0001:00029938       ??0CFileSystemEnum@@QAA@KK@Z 1002a938 f   ceshui:fsenum.obj
 0001:000299a8       ??0CDesktopView@@QAA@PAUIShellFolder@@PFBU_ITEMIDLIST@@@Z 1002a9a8 f   ceshui:desktopview.obj
 0001:00029a28       ?ConvertImageToScreenRes@CDesktopView@@IAAPAUHBITMAP__@@PAU2@@Z 1002aa28 f   ceshui:desktopview.obj
 0001:00029c08       ?InitImaging@CDesktopView@@IAAXXZ 1002ac08 f   ceshui:desktopview.obj
 0001:00029c68       ?UnInitImaging@CDesktopView@@IAAXXZ 1002ac68 f   ceshui:desktopview.obj
 0001:00029ca8       ?IsDecoderAvailable@CDesktopView@@IAAHPBG@Z 1002aca8 f   ceshui:desktopview.obj
 0001:00029db8       ?LoadDIBitmapBrush@CDesktopView@@IAAPAUHBRUSH__@@PBG@Z 1002adb8 f   ceshui:desktopview.obj
 0001:00029eb8       ?PaintBackground@CDesktopView@@IBAXPAUHDC__@@@Z 1002aeb8 f   ceshui:desktopview.obj
 0001:0002a174       ?DoProperties@CDesktopView@@MAAXXZ 1002b174 f   ceshui:desktopview.obj
 0001:0002a220       ?GetDisplayInfo@CDesktopView@@MAAXPAUtagLVDISPINFOW@@@Z 1002b220 f   ceshui:desktopview.obj
 0001:0002a28c       ?HandleCommand@CDesktopView@@MAAJKPAUtagVARIANT@@@Z 1002b28c f   ceshui:desktopview.obj
 0001:0002a2e4       ?HandleInitMenuPopup@CDesktopView@@MAAJPAUHMENU__@@PAUPopupMenuInfo@CDefShellView@@@Z 1002b2e4 f   ceshui:desktopview.obj
 0001:0002a360       ?HandleSettingChange@CDesktopView@@MAAJKPBG@Z 1002b360 f   ceshui:desktopview.obj
 0001:0002a740       ?HandleSysColorChange@CDesktopView@@MAAXXZ 1002b740 f   ceshui:desktopview.obj
 0001:0002a7d0       ?InitializeStatusBar@CDesktopView@@MAAXXZ 1002b7d0 f   ceshui:desktopview.obj
 0001:0002a85c       ?PerformAction@CDesktopView@@MAAJW4OLECMDID@@K@Z 1002b85c f   ceshui:desktopview.obj
 0001:0002a9a0       ?Resize@CDesktopView@@MAAXKK@Z 1002b9a0 f   ceshui:desktopview.obj
 0001:0002a9d4       ?UpdateBrowserMenus@CDesktopView@@MAAHI@Z 1002b9d4 f   ceshui:desktopview.obj
 0001:0002a9f0       ?UpdateBrowserToolbar@CDesktopView@@MAAHI@Z 1002b9f0 f   ceshui:desktopview.obj
 0001:0002aa68       ?QueryStatus@CDesktopView@@UAAJPBU_GUID@@KQAU_tagOLECMD@@PAU_tagOLECMDTEXT@@@Z 1002ba68 f   ceshui:desktopview.obj
 0001:0002aafc       ??1CDesktopView@@UAA@XZ    1002bafc f   ceshui:desktopview.obj
 0001:0002ab80       ?SubclassProc@CDesktopView@@KAJPAUHWND__@@IIJ@Z 1002bb80 f   ceshui:desktopview.obj
 0001:0002ac68       ?CreateViewWindow@CDesktopView@@UAAJPAUIShellView@@PBUtagFOLDERSETTINGS@@PAUIShellBrowser@@PAUtagRECT@@PAPAUHWND__@@@Z 1002bc68 f   ceshui:desktopview.obj
 0001:0002af60       ??_ECDesktopView@@UAAPAXI@Z 1002bf60 f i ceshui:desktopview.obj
 0001:0002af60       ??_GCDesktopView@@UAAPAXI@Z 1002bf60 f i ceshui:desktopview.obj
 0001:0002af84       ?Initialize@CFileSystemDropTarget@@QAAHPBG@Z 1002bf84 f   ceshui:fsdrop.obj
 0001:0002afcc       ?QueryInterface@CFileSystemDropTarget@@UAAJABU_GUID@@PAPAX@Z 1002bfcc f   ceshui:fsdrop.obj
 0001:0002b05c       ?AddRef@CFileSystemDropTarget@@UAAKXZ 1002c05c f   ceshui:fsdrop.obj
 0001:0002b070       ?Release@CFileSystemDropTarget@@UAAKXZ 1002c070 f   ceshui:fsdrop.obj
 0001:0002b0a0       ?DragEnter@CFileSystemDropTarget@@UAAJPAUIDataObject@@KU_POINTL@@PAK@Z 1002c0a0 f   ceshui:fsdrop.obj
 0001:0002b25c       ?DragOver@CFileSystemDropTarget@@UAAJKU_POINTL@@PAK@Z 1002c25c f   ceshui:fsdrop.obj
 0001:0002b288       ?DragLeave@CFileSystemDropTarget@@UAAJXZ 1002c288 f   ceshui:fsdrop.obj
 0001:0002b2a0       ?Drop@CFileSystemDropTarget@@UAAJPAUIDataObject@@KU_POINTL@@PAK@Z 1002c2a0 f   ceshui:fsdrop.obj
 0001:0002b508       ??0CFileSystemDropTarget@@QAA@XZ 1002c508 f   ceshui:fsdrop.obj
 0001:0002b528       ??0CNetworkRootView@@QAA@PAUIShellFolder@@PFBU_ITEMIDLIST@@@Z 1002c528 f   ceshui:netrootview.obj
 0001:0002b594       ??1CNetworkRootView@@UAA@XZ 1002c594 f   ceshui:netrootview.obj
 0001:0002b5f8       ?HandleInitMenuPopup@CNetworkRootView@@MAAJPAUHMENU__@@PAUPopupMenuInfo@CDefShellView@@@Z 1002c5f8 f   ceshui:netrootview.obj
 0001:0002b69c       ?InitializeStatusBar@CNetworkRootView@@MAAXXZ 1002c69c f   ceshui:netrootview.obj
 0001:0002b714       ?UpdateBrowserToolbar@CNetworkRootView@@MAAHI@Z 1002c714 f   ceshui:netrootview.obj
 0001:0002b7a8       ?QueryStatus@CNetworkRootView@@UAAJPBU_GUID@@KQAU_tagOLECMD@@PAU_tagOLECMDTEXT@@@Z 1002c7a8 f   ceshui:netrootview.obj
 0001:0002b904       ??_GCNetworkRootView@@UAAPAXI@Z 1002c904 f i ceshui:netrootview.obj
 0001:0002b904       ??_ECNetworkRootView@@UAAPAXI@Z 1002c904 f i ceshui:netrootview.obj
 0001:0002b928       ??0ShellDataTransfer@@QAA@XZ 1002c928 f   ceshui:datatrans.obj
 0001:0002b94c       ?TransferLinkData@ShellDataTransfer@@KAHPAUTransferToData@1@@Z 1002c94c f   ceshui:datatrans.obj
 0001:0002bb64       ?TransferFileOpData@ShellDataTransfer@@KAHPAUTransferToData@1@@Z 1002cb64 f   ceshui:datatrans.obj
 0001:0002bf08       ?Free@ShellDataTransfer@@QAAXXZ 1002cf08 f   ceshui:datatrans.obj
 0001:0002bfa0       ?Clone@ShellDataTransfer@@QAAPAV1@XZ 1002cfa0 f   ceshui:datatrans.obj
 0001:0002c0a0       ?Pack@ShellDataTransfer@@SAPAXPAV1@@Z 1002d0a0 f   ceshui:datatrans.obj
 0001:0002c20c       ?Unpack@ShellDataTransfer@@SAHPAXPAV1@@Z 1002d20c f   ceshui:datatrans.obj
 0001:0002c324       ??1CShellDataObject@@QAA@XZ 1002d324 f   ceshui:datatrans.obj
 0001:0002c348       ?QueryInterface@CShellDataObject@@UAAJABU_GUID@@PAPAX@Z 1002d348 f   ceshui:datatrans.obj
 0001:0002c3d0       ?AddRef@CShellDataObject@@UAAKXZ 1002d3d0 f   ceshui:datatrans.obj
 0001:0002c3e4       ?GetData@CShellDataObject@@UAAJPAUtagFORMATETC@@PAUtagSTGMEDIUM@@@Z 1002d3e4 f   ceshui:datatrans.obj
 0001:0002c43c       ?GetDataHere@CShellDataObject@@UAAJPAUtagFORMATETC@@PAUtagSTGMEDIUM@@@Z 1002d43c f   ceshui:datatrans.obj
 0001:0002c448       ?QueryGetData@CShellDataObject@@UAAJPAUtagFORMATETC@@@Z 1002d448 f   ceshui:datatrans.obj
 0001:0002c4cc       ?GetCanonicalFormatEtc@CShellDataObject@@UAAJPAUtagFORMATETC@@0@Z 1002d4cc f   ceshui:datatrans.obj
 0001:0002c4d8       ?SetData@CShellDataObject@@UAAJPAUtagFORMATETC@@PAUtagSTGMEDIUM@@H@Z 1002d4d8 f   ceshui:datatrans.obj
 0001:0002c590       ?EnumFormatEtc@CShellDataObject@@UAAJKPAPAUIEnumFORMATETC@@@Z 1002d590 f   ceshui:datatrans.obj
 0001:0002c59c       ?DAdvise@CShellDataObject@@UAAJPAUtagFORMATETC@@KPAUIAdviseSink@@PAK@Z 1002d59c f   ceshui:datatrans.obj
 0001:0002c5a8       ?DUnadvise@CShellDataObject@@UAAJK@Z 1002d5a8 f   ceshui:datatrans.obj
 0001:0002c5b4       ?EnumDAdvise@CShellDataObject@@UAAJPAPAUIEnumSTATDATA@@@Z 1002d5b4 f   ceshui:datatrans.obj
 0001:0002c5c0       ?FileOperationThread@CShellClipboard@@KAKPAX@Z 1002d5c0 f   ceshui:datatrans.obj
 0001:0002c648       ?RegisterShellClipboardFormat@CShellClipboard@@SAIXZ 1002d648 f   ceshui:datatrans.obj
 0001:0002c684       ?TransferToThread@ShellDataTransfer@@KAKPAX@Z 1002d684 f   ceshui:datatrans.obj
 0001:0002c6f0       ?TransferTo@ShellDataTransfer@@QAAHW4OperationType@1@PBG@Z 1002d6f0 f   ceshui:datatrans.obj
 0001:0002c84c       ?Release@CShellDataObject@@UAAKXZ 1002d84c f   ceshui:datatrans.obj
 0001:0002c898       ?ClearClipboardData@CShellClipboard@@KAXXZ 1002d898 f   ceshui:datatrans.obj
 0001:0002c9c4       ?SetClipboardData2@CShellClipboard@@KAXXZ 1002d9c4 f   ceshui:datatrans.obj
 0001:0002cc3c       ?GetContentType@CShellClipboard@@SAKXZ 1002dc3c f   ceshui:datatrans.obj
 0001:0002ccbc       ?HandleEscape@CShellClipboard@@SAXPAUHWND__@@@Z 1002dcbc f   ceshui:datatrans.obj
 0001:0002cd58       ?HasData@CShellClipboard@@SAHXZ 1002dd58 f   ceshui:datatrans.obj
 0001:0002cdcc       ?ShouldHiliteAsCut@CShellClipboard@@SAHPAUHWND__@@PFBU_ITEMIDLIST@@@Z 1002ddcc f   ceshui:datatrans.obj
 0001:0002cee4       ??0CShellDataObject@@QAA@XZ 1002dee4 f   ceshui:datatrans.obj
 0001:0002cf04       ?SetClipboardData@CShellClipboard@@KAHPAUHWND__@@PAUIShellFolder@@IPAPFBU_ITEMIDLIST@@K@Z 1002df04 f   ceshui:datatrans.obj
 0001:0002d08c       ?Cut@CShellClipboard@@SAHPAUHWND__@@PAUIShellFolder@@IPAPFBU_ITEMIDLIST@@@Z 1002e08c f   ceshui:datatrans.obj
 0001:0002d0c4       ?Copy@CShellClipboard@@SAHPAUHWND__@@PAUIShellFolder@@IPAPFBU_ITEMIDLIST@@@Z 1002e0c4 f   ceshui:datatrans.obj
 0001:0002d104       ?Paste@CShellClipboard@@SAHPAUHWND__@@PFBU_ITEMIDLIST@@H@Z 1002e104 f   ceshui:datatrans.obj
 0001:0002d604       ?Destroy@CFileMenu@@QAAXXZ 1002e604 f   ceshui:filemenu.obj
 0001:0002d6e8       ?Initialize@CFileMenu@@QAAHPAUIShellFolder@@IPAPFBU_ITEMIDLIST@@@Z 1002e6e8 f   ceshui:filemenu.obj
 0001:0002d7d4       ?QueryInterface@CFileMenu@@UAAJABU_GUID@@PAPAX@Z 1002e7d4 f   ceshui:filemenu.obj
 0001:0002d864       ?AddRef@CFileMenu@@UAAKXZ  1002e864 f   ceshui:filemenu.obj
 0001:0002d878       ?GetCommandString@CFileMenu@@UAAJIIPAIPADI@Z 1002e878 f   ceshui:filemenu.obj
 0001:0002d88c       ?InvokeCommand@CFileMenu@@UAAJPAU_CMINVOKECOMMANDINFO@@@Z 1002e88c f   ceshui:filemenu.obj
 0001:0002da3c       ?QueryContextMenu@CFileMenu@@UAAJPAUHMENU__@@IIII@Z 1002ea3c f   ceshui:filemenu.obj
 0001:0002df98       ??0CFileMenu@@QAA@XZ       1002ef98 f   ceshui:filemenu.obj
 0001:0002dfc8       ?Release@CFileMenu@@UAAKXZ 1002efc8 f   ceshui:filemenu.obj
 0001:0002e008       ??0CShellListView@@QAA@XZ  1002f008 f   ceshui:shelllistview.obj
 0001:0002e040       ?GetListView@CShellListView@@UBAPAVListView_t@@XZ 1002f040 f i ceshui:shelllistview.obj
 0001:0002e048       ?HandleDeleteItem@CShellListView@@UAAXH@Z 1002f048 f i ceshui:shelllistview.obj
 0001:0002e04c       ?HandleItemChanged@CShellListView@@UAAXHI@Z 1002f04c f i ceshui:shelllistview.obj
 0001:0002e050       ?SetHighlightColors@CShellListView@@UAAXKK@Z 1002f050 f i ceshui:shelllistview.obj
 0001:0002e054       ?SetScrollView@CShellListView@@UAAXH@Z 1002f054 f i ceshui:shelllistview.obj
 0001:0002e058       ?AppendColumn@CShellListView@@UAAHPBGHH@Z 1002f058 f   ceshui:shelllistview.obj
 0001:0002e104       ?Arrange@CShellListView@@UBAXXZ 1002f104 f   ceshui:shelllistview.obj
 0001:0002e11c       ?BeginDrag@CShellListView@@UAAHPAUtagNMLISTVIEW@@@Z 1002f11c f   ceshui:shelllistview.obj
 0001:0002e4c4       ?Clear@CShellListView@@UAAHXZ 1002f4c4 f   ceshui:shelllistview.obj
 0001:0002e4dc       ?DragLeave@CShellListView@@UAAXXZ 1002f4dc f   ceshui:shelllistview.obj
 0001:0002e55c       ?DeselectAll@CShellListView@@UAAXXZ 1002f55c f   ceshui:shelllistview.obj
 0001:0002e5c0       ?DropTo@CShellListView@@UAAXU_POINTL@@@Z 1002f5c0 f   ceshui:shelllistview.obj
 0001:0002e718       ?EndDrag@CShellListView@@UAAXXZ 1002f718 f   ceshui:shelllistview.obj
 0001:0002e788       ?FindItemFromPidl@CShellListView@@UBAHPFBU_ITEMIDLIST@@@Z 1002f788 f   ceshui:shelllistview.obj
 0001:0002e83c       ?GetCenterItem@CShellListView@@UBAHXZ 1002f83c f   ceshui:shelllistview.obj
 0001:0002e868       ?GetColumnCount@CShellListView@@UBAKXZ 1002f868 f   ceshui:shelllistview.obj
 0001:0002e870       ?GetContextMenuPoint@CShellListView@@UBAJXZ 1002f870 f   ceshui:shelllistview.obj
 0001:0002e964       ?GetItemCount@CShellListView@@UBAIXZ 1002f964 f   ceshui:shelllistview.obj
 0001:0002e97c       ?GetItemImageIndex@CShellListView@@UBAHPFBU_ITEMIDLIST@@@Z 1002f97c f   ceshui:shelllistview.obj
 0001:0002e9f4       ?GetItemPidl@CShellListView@@UBAPFBU_ITEMIDLIST@@H@Z 1002f9f4 f   ceshui:shelllistview.obj
 0001:0002ea58       ?GetItemPidl@CShellListView@@UBAPFBU_ITEMIDLIST@@PFBU2@@Z 1002fa58 f   ceshui:shelllistview.obj
 0001:0002ead0       ?GetPidlAt@CShellListView@@UBAPFBU_ITEMIDLIST@@U_POINTL@@@Z 1002fad0 f   ceshui:shelllistview.obj
 0001:0002ebf0       ?GetSelected@CShellListView@@UBAPAPFBU_ITEMIDLIST@@PAI@Z 1002fbf0 f   ceshui:shelllistview.obj
 0001:0002ecfc       ?GiveFeedback@CShellListView@@UAAHK@Z 1002fcfc f   ceshui:shelllistview.obj
 0001:0002ed70       ?HandleAdjustPage@CShellListView@@UAAJH@Z 1002fd70 f   ceshui:shelllistview.obj
 0001:0002ed78       ?HandleBeginLabelEdit@CShellListView@@UAAXPAUtagLVDISPINFOW@@@Z 1002fd78 f   ceshui:shelllistview.obj
 0001:0002ed88       ?HandleEndLabelEdit@CShellListView@@UAAXPAUtagLVDISPINFOW@@@Z 1002fd88 f   ceshui:shelllistview.obj
 0001:0002eda8       ?HandleEscape@CShellListView@@UAAXXZ 1002fda8 f   ceshui:shelllistview.obj
 0001:0002ede8       ?HiliteCurrentTarget@CShellListView@@UAAXXZ 1002fde8 f   ceshui:shelllistview.obj
 0001:0002ee90       ?IsAutoArrangeEnabled@CShellListView@@UBAHXZ 1002fe90 f   ceshui:shelllistview.obj
 0001:0002eeac       ?IsNextPageCmdEnabled@CShellListView@@UBAHXZ 1002feac f   ceshui:shelllistview.obj
 0001:0002ef1c       ?IsPrevPageCmdEnabled@CShellListView@@UBAHXZ 1002ff1c f   ceshui:shelllistview.obj
 0001:0002ef6c       ?InvalidateItemColumn@CShellListView@@UAAXPFBU_ITEMIDLIST@@H@Z 1002ff6c f   ceshui:shelllistview.obj
 0001:0002eff4       ?InvalidateItemIcon@CShellListView@@UAAXPFBU_ITEMIDLIST@@@Z 1002fff4 f   ceshui:shelllistview.obj
 0001:0002f070       ?OnSetFocus@CShellListView@@UAAXXZ 10030070 f   ceshui:shelllistview.obj
 0001:0002f0f0       ?Populate@CShellListView@@UAAHPAUIEnumIDList@@@Z 100300f0 f   ceshui:shelllistview.obj
 0001:0002f2cc       ?AddItem@CShellListView@@UAAHPFBU_ITEMIDLIST@@PBGH@Z 100302cc f   ceshui:shelllistview.obj
 0001:0002f330       ?ReflectAdd@CShellListView@@UAAHPFBU_ITEMIDLIST@@@Z 10030330 f   ceshui:shelllistview.obj
 0001:0002f3e8       ?ReflectRemove@CShellListView@@UAAHPFBU_ITEMIDLIST@@@Z 100303e8 f   ceshui:shelllistview.obj
 0001:0002f4e4       ?SetIconSpacing@CShellListView@@UAAXKK@Z 100304e4 f   ceshui:shelllistview.obj
 0001:0002f5b8       ?Resize@CShellListView@@UAAXKK@Z 100305b8 f   ceshui:shelllistview.obj
 0001:0002f63c       ?RenameItem@CShellListView@@UAAXH@Z 1003063c f   ceshui:shelllistview.obj
 0001:0002f654       ?RenameSelected@CShellListView@@UAAXXZ 10030654 f   ceshui:shelllistview.obj
 0001:0002f6f0       ?SelectAll@CShellListView@@UAAXXZ 100306f0 f   ceshui:shelllistview.obj
 0001:0002f754       ?SetColumnWidth@CShellListView@@UAAXHH@Z 10030754 f   ceshui:shelllistview.obj
 0001:0002f79c       ?SetColors@CShellListView@@UAAXKKK@Z 1003079c f   ceshui:shelllistview.obj
 0001:0002f7f8       ?SetItemState@CShellListView@@UAAXHII@Z 100307f8 f   ceshui:shelllistview.obj
 0001:0002f860       ?SetRedraw@CShellListView@@UAAXH@Z 10030860 f   ceshui:shelllistview.obj
 0001:0002f8e0       ?SetViewMode@CShellListView@@UAAII@Z 100308e0 f   ceshui:shelllistview.obj
 0001:0002f98c       ?ShowSelectedAsCut@CShellListView@@UAAXXZ 1003098c f   ceshui:shelllistview.obj
 0001:0002fa40       ?SnapToGrid@CShellListView@@UBAXXZ 10030a40 f   ceshui:shelllistview.obj
 0001:0002fa58       ?Sort@CShellListView@@UAAXP6AHJJJ@ZJ@Z 10030a58 f   ceshui:shelllistview.obj
 0001:0002faa4       ?ToggleAutoArrange@CShellListView@@UAAXH@Z 10030aa4 f   ceshui:shelllistview.obj
 0001:0002fae4       ?UpdateItemPidl@CShellListView@@UAAHPFBU_ITEMIDLIST@@0@Z 10030ae4 f   ceshui:shelllistview.obj
 0001:0002fbb0       ?EnableWrapSelection@CShellListView@@UAAJH@Z 10030bb0 f   ceshui:shelllistview.obj
 0001:0002fbbc       ?StepSelection@CShellListView@@QAAJH@Z 10030bbc f   ceshui:shelllistview.obj
 0001:0002fcb8       ?HandleKeyPress@CShellListView@@UAAJG@Z 10030cb8 f   ceshui:shelllistview.obj
 0001:0002fcf0       ?EnableRedraw@CShellListView@@QAAXH@Z 10030cf0 f   ceshui:shelllistview.obj
 0001:0002fcf8       ?AddSample@AutoScroll_t@@IAA_NPBU_POINTL@@K@Z 10030cf8 f   ceshui:shelllistview.obj
 0001:0002fd6c       ?CurrentVelocity@AutoScroll_t@@IAAHXZ 10030d6c f   ceshui:shelllistview.obj
 0001:0002fe58       ?CanScroll@AutoScroll_t@@KA_NPAUHWND__@@W4Direction_t@1@@Z 10030e58 f   ceshui:shelllistview.obj
 0001:0002fee4       ?DragScrollDirection@AutoScroll_t@@KAXPAUHWND__@@PBU_POINTL@@PA_N222@Z 10030ee4 f   ceshui:shelllistview.obj
 0001:000300d4       ?AutoScroll@AutoScroll_t@@QAA_NPAUHWND__@@PBU_POINTL@@@Z 100310d4 f   ceshui:shelllistview.obj
 0001:00030264       ??1ListView_t@@QAA@XZ      10031264 f   ceshui:shelllistview.obj
 0001:0003028c       ?DragEnter@CShellListView@@UAAXU_POINTL@@@Z 1003128c f   ceshui:shelllistview.obj
 0001:000302b8       ?DragOver@CShellListView@@UAAHU_POINTL@@PAH@Z 100312b8 f   ceshui:shelllistview.obj
 0001:00030440       ??0ListView_t@@QAA@PAUHWND__@@@Z 10031440 f   ceshui:shelllistview.obj
 0001:0003044c       ?Release@ListView_t@@QAAKXZ 1003144c f   ceshui:shelllistview.obj
 0001:000304a0       ?Create@CShellListView@@UAAHPAUHWND__@@I@Z 100314a0 f   ceshui:shelllistview.obj
 0001:000306dc       ?Destroy@CShellListView@@UAAXXZ 100316dc f   ceshui:shelllistview.obj
 0001:00030754       ?SetListView@CShellListView@@UAAXPAVListView_t@@@Z 10031754 f   ceshui:shelllistview.obj
 0001:000307a0       ??1CShellListView@@UAA@XZ  100317a0 f   ceshui:shelllistview.obj
 0001:000307c0       ??_GCShellListView@@UAAPAXI@Z 100317c0 f i ceshui:shelllistview.obj
 0001:000307c0       ??_ECShellListView@@UAAPAXI@Z 100317c0 f i ceshui:shelllistview.obj
 0001:000307f8       ?Initialize@IconLoaderData@CIconLoader@@QAAJPBGPFAU_ITEMIDLIST@@@Z 100317f8 f   ceshui:iconloader.obj
 0001:000308c8       ?FreeIcon@CIconLoader@@QAAJPFBU_ITEMIDLIST@@@Z 100318c8 f   ceshui:iconloader.obj
 0001:00030908       ?Initialize@CIconLoader@@QAAJPAUHWND__@@@Z 10031908 f   ceshui:iconloader.obj
 0001:00030954       ?SetThumbnailSize@CIconLoader@@QAAJPAUHWND__@@@Z 10031954 f   ceshui:iconloader.obj
 0001:0003097c       ?_Buynode@?$list@PAUIconLoaderData@CIconLoader@@Vallocator@ce@@@ce@@IAAPAU?$_ListNode@PAUIconLoaderData@CIconLoader@@@list_impl@2@PAU342@@Z 1003197c f i ceshui:iconloader.obj
 0001:000309c8       ?erase@?$list@PAUIconLoaderData@CIconLoader@@Vallocator@ce@@@ce@@QAA?AV?$iterator@PAUIconLoaderData@CIconLoader@@@list_impl@2@V342@@Z 100319c8 f i ceshui:iconloader.obj
 0001:00030a24       ?erase@?$list@PAUIconLoaderData@CIconLoader@@Vallocator@ce@@@ce@@QAA?AV?$iterator@PAUIconLoaderData@CIconLoader@@@list_impl@2@V342@0@Z 10031a24 f i ceshui:iconloader.obj
 0001:00030a7c       ??$insert@PAUIconLoaderData@CIconLoader@@@?$list@PAUIconLoaderData@CIconLoader@@Vallocator@ce@@@ce@@QAA?AV?$iterator@PAUIconLoaderData@CIconLoader@@@list_impl@1@V231@ABQAUIconLoaderData@CIconLoader@@@Z 10031a7c f i ceshui:iconloader.obj
 0001:00030acc       ?LoaderThread@CIconLoader@@KAKPAX@Z 10031acc f   ceshui:iconloader.obj
 0001:00030bf0       ??0CIconLoader@@QAA@PAUIShellChangeNotify@@@Z 10031bf0 f   ceshui:iconloader.obj
 0001:00030c3c       ??1CIconLoader@@QAA@XZ     10031c3c f   ceshui:iconloader.obj
 0001:00030d2c       ?EnqueueItem@CIconLoader@@IAAJPAUIconLoaderData@1@@Z 10031d2c f   ceshui:iconloader.obj
 0001:00030de0       ?LoadIconW@CIconLoader@@QAAJPBGPFAU_ITEMIDLIST@@@Z 10031de0 f   ceshui:iconloader.obj
 0001:00030e7c       ?Destroy@CGridListView@@MAAXXZ 10031e7c f   ceshui:gridlistview.obj
 0001:00030ed4       ?DestroyMemDC@CGridListView@@IAAXXZ 10031ed4 f   ceshui:gridlistview.obj
 0001:00030f10       ?FillRectColor@CGridListView@@IAAXPAUHDC__@@PAUtagRECT@@K@Z 10031f10 f   ceshui:gridlistview.obj
 0001:00030f6c       ?GetCenterItem@CGridListView@@MBAHXZ 10031f6c f   ceshui:gridlistview.obj
 0001:00031010       ?InvalidateItem@CGridListView@@IAAXHH@Z 10032010 f   ceshui:gridlistview.obj
 0001:00031090       ?IsNextPageCmdEnabled@CGridListView@@MBAHXZ 10032090 f   ceshui:gridlistview.obj
 0001:000310ec       ?IsPrevPageCmdEnabled@CGridListView@@MBAHXZ 100320ec f   ceshui:gridlistview.obj
 0001:00031110       ?OnButtonDown@CGridListView@@IAAJIIJ@Z 10032110 f   ceshui:gridlistview.obj
 0001:00031254       ?OnChar@CGridListView@@IAAJG@Z 10032254 f   ceshui:gridlistview.obj
 0001:00031298       ?OnKeyDown@CGridListView@@IAAJH@Z 10032298 f   ceshui:gridlistview.obj
 0001:00031770       ?PrepareMemDC@CGridListView@@IAAJXZ 10032770 f   ceshui:gridlistview.obj
 0001:000318b4       ?SetIconSpacing@CGridListView@@MAAXKK@Z 100328b4 f   ceshui:gridlistview.obj
 0001:00031b4c       ?SetColors@CGridListView@@MAAXKKK@Z 10032b4c f   ceshui:gridlistview.obj
 0001:00031b6c       ?SetHighlightColors@CGridListView@@MAAXKK@Z 10032b6c f   ceshui:gridlistview.obj
 0001:00031b78       ?SetItemInfo@CGridListView@@IAAXXZ 10032b78 f   ceshui:gridlistview.obj
 0001:00031c54       ?SetItemState@CGridListView@@MAAXHII@Z 10032c54 f   ceshui:gridlistview.obj
 0001:00031d04       ?SetLayoutInfo@CGridListView@@IAAXHH@Z 10032d04 f   ceshui:gridlistview.obj
 0001:00031e58       ?SetScrollView@CGridListView@@MAAXH@Z 10032e58 f   ceshui:gridlistview.obj
 0001:00031f14       ?UpdateLabelEditPos@CGridListView@@IAAXXZ 10032f14 f   ceshui:gridlistview.obj
 0001:00031f60       ??0CGridListView@@QAA@XZ   10032f60 f   ceshui:gridlistview.obj
 0001:00032058       ?CheckCachedThumbnailInfo@CGridListView@@IAAXXZ 10033058 f   ceshui:gridlistview.obj
 0001:00032130       ?DrawItem@CGridListView@@IAAJPAUHDC__@@HH@Z 10033130 f   ceshui:gridlistview.obj
 0001:00032530       ?HandleAdjustPage@CGridListView@@MAAJH@Z 10033530 f   ceshui:gridlistview.obj
 0001:000326b4       ?HandleBeginLabelEdit@CGridListView@@MAAXPAUtagLVDISPINFOW@@@Z 100336b4 f   ceshui:gridlistview.obj
 0001:000326cc       ?HandleDeleteItem@CGridListView@@MAAXH@Z 100336cc f   ceshui:gridlistview.obj
 0001:000326e0       ?HandleItemChanged@CGridListView@@MAAXHI@Z 100336e0 f   ceshui:gridlistview.obj
 0001:00032710       ?OnPaint@CGridListView@@IAAJXZ 10033710 f   ceshui:gridlistview.obj
 0001:00032978       ?Resize@CGridListView@@MAAXKK@Z 10033978 f   ceshui:gridlistview.obj
 0001:000329d0       ?SetViewMode@CGridListView@@MAAII@Z 100339d0 f   ceshui:gridlistview.obj
 0001:00032a94       ?WindowProc@CGridListView@@IAAJPAUHWND__@@IIJ@Z 10033a94 f   ceshui:gridlistview.obj
 0001:00032c1c       ?_WindowProc@CGridListView@@KAJPAUHWND__@@IIJ@Z 10033c1c f   ceshui:gridlistview.obj
 0001:00032c6c       ??_GCGridListView@@UAAPAXI@Z 10033c6c f i ceshui:gridlistview.obj
 0001:00032c6c       ??_ECGridListView@@UAAPAXI@Z 10033c6c f i ceshui:gridlistview.obj
 0001:00032ca4       ?Create@CGridListView@@MAAHPAUHWND__@@I@Z 10033ca4 f   ceshui:gridlistview.obj
 0001:00032e44       ?ComputeRect@CThumbnailCache@@IAAJPAUtagTHUMBNAILINFO@@HH@Z 10033e44 f   ceshui:thumbnailcache.obj
 0001:00032f78       ?SetThumbnailSize@CThumbnailCache@@QAAXPAUHWND__@@@Z 10033f78 f   ceshui:thumbnailcache.obj
 0001:00033074       ?erase@?$vector@PAUtagTHUMBNAILINFO@@Vallocator@ce@@U?$exponential_growth@$09@3@@ce@@QAAPAPAUtagTHUMBNAILINFO@@PAPAU3@0@Z 10034074 f i ceshui:thumbnailcache.obj
 0001:000330cc       ?erase@?$vector@PAUtagTHUMBNAILINFO@@V?$reference_allocator@Vallocator@ce@@@details@ce@@U?$exponential_growth@$09@4@@ce@@QAAPAPAUtagTHUMBNAILINFO@@PAPAU3@0@Z 100340cc f i ceshui:thumbnailcache.obj
 0001:00033124       ?DeleteItem@CThumbnailCache@@QAAJPAUtagTHUMBNAILINFO@@@Z 10034124 f   ceshui:thumbnailcache.obj
 0001:000331c4       ?FreeCache@CThumbnailCache@@QAAXXZ 100341c4 f   ceshui:thumbnailcache.obj
 0001:00033250       ??0CThumbnailCache@@QAA@PAUHWND__@@@Z 10034250 f   ceshui:thumbnailcache.obj
 0001:000332b0       ??1CThumbnailCache@@QAA@XZ 100342b0 f   ceshui:thumbnailcache.obj
 0001:000332e0       ?_Insert_dispatch@?$vector@PAUtagTHUMBNAILINFO@@Vallocator@ce@@U?$exponential_growth@$09@3@@ce@@AAA_NPAPAUtagTHUMBNAILINFO@@IABQAU3@ABUtrue_type@detail@2@@Z 100342e0 f i ceshui:thumbnailcache.obj
 0001:00033500       ?insert@?$vector@PAUtagTHUMBNAILINFO@@Vallocator@ce@@U?$exponential_growth@$09@3@@ce@@QAAPAPAUtagTHUMBNAILINFO@@PAPAU3@ABQAU3@@Z 10034500 f i ceshui:thumbnailcache.obj
 0001:00033554       ?GetItem@CThumbnailCache@@QAAPAUtagTHUMBNAILINFO@@PBG@Z 10034554 f   ceshui:thumbnailcache.obj
 0001:00033764       ?GetTaskbarWindow@TaskbarList_t@@IAAPAUHWND__@@XZ 10034764 f   taskbarlist:taskbarlist.obj
 0001:000337a8       ?QueryInterface@TaskbarList_t@@UAAJABU_GUID@@PAPAX@Z 100347a8 f   taskbarlist:taskbarlist.obj
 0001:00033848       ?AddRef@TaskbarList_t@@UAAKXZ 10034848 f   taskbarlist:taskbarlist.obj
 0001:0003385c       ?HrInit@TaskbarList_t@@UAAJXZ 1003485c f   taskbarlist:taskbarlist.obj
 0001:00033878       ?AddTab@TaskbarList_t@@UAAJPAUHWND__@@@Z 10034878 f   taskbarlist:taskbarlist.obj
 0001:000338e4       ?DeleteTab@TaskbarList_t@@UAAJPAUHWND__@@@Z 100348e4 f   taskbarlist:taskbarlist.obj
 0001:00033950       ?ActivateTab@TaskbarList_t@@UAAJPAUHWND__@@@Z 10034950 f   taskbarlist:taskbarlist.obj
 0001:000339d0       ?SetActiveAlt@TaskbarList_t@@UAAJPAUHWND__@@@Z 100349d0 f   taskbarlist:taskbarlist.obj
 0001:00033a38       ?MarkFullscreenWindow@TaskbarList_t@@UAAJPAUHWND__@@H@Z 10034a38 f   taskbarlist:taskbarlist.obj
 0001:00033aa4       ?Release@TaskbarList_t@@UAAKXZ 10034aa4 f   taskbarlist:taskbarlist.obj
 0001:00033adc       ??0TaskbarList_t@@QAA@XZ   10034adc f   taskbarlist:taskbarlist.obj
 0001:00033b1c       ??0CIniFileReader@@QAA@XZ  10034b1c f   folderattributes:iniutil.obj
 0001:00033b28       ?Close@CIniFileReader@@QAAXXZ 10034b28 f   folderattributes:iniutil.obj
 0001:00033b58       ?GetNext@CIniFileReader@@QAAJPAGI0I@Z 10034b58 f   folderattributes:iniutil.obj
 0001:00033cd8       ?NextSection@CIniFileReader@@QAAJXZ 10034cd8 f   folderattributes:iniutil.obj
 0001:00033d88       ?Reset@CIniFileReader@@QAAJXZ 10034d88 f   folderattributes:iniutil.obj
 0001:00033dc8       ?WriteIni@@YAHPBG0PAGI0@Z  10034dc8 f   folderattributes:iniutil.obj
 0001:000342d8       ??1CIniFileReader@@QAA@XZ  100352d8 f   folderattributes:iniutil.obj
 0001:00034308       ?GotoSection@CIniFileReader@@QAAJPBG@Z 10035308 f   folderattributes:iniutil.obj
 0001:000343b8       ?Open@CIniFileReader@@QAAJPBG0@Z 100353b8 f   folderattributes:iniutil.obj
 0001:0003444c       ?ReadIni@@YAHPBG0PAGI0@Z   1003544c f   folderattributes:iniutil.obj
 0001:0003452c       ?CreateInstance@CProgressUI@@SAPAV1@XZ 1003552c f   ceshuistd:ProgressUI.obj
 0001:0003454c       ?DoDialog@Confirm@ShellDialogs@@KAJHPAUHWND__@@PAV12@PAH@Z 1003554c f   ceshuistd:uiplatform.obj
 0001:000345b4       ?InitDialog@Confirm@ShellDialogs@@IAAXPAUHWND__@@@Z 100355b4 f   ceshuistd:uiplatform.obj
 0001:00034a10       ?DestroyIcons@Confirm@ShellDialogs@@KAXPAUHWND__@@@Z 10035a10 f   ceshuistd:uiplatform.obj
 0001:00034a8c       ?GeneralPropDlgProc@Properties@ShellDialogs@@KAHPAUHWND__@@IIJ@Z 10035a8c f   ceshuistd:properties.obj
 0001:00034fec       ?ShortcutPropDlgProc@Properties@ShellDialogs@@KAHPAUHWND__@@IIJ@Z 10035fec f   ceshuistd:properties.obj
 0001:000351e8       ?ObjectPropertiesThread@Properties@ShellDialogs@@KAKPAX@Z 100361e8 f   ceshuistd:properties.obj
 0001:00035ee0       ?FolderObjectPropertiesThread@Properties@ShellDialogs@@KAKPAX@Z 10036ee0 f   ceshuistd:properties.obj
 0001:00036210       ?CreateGlobalRecycleBin@@YAJXZ 10037210 f   ceshrecbin:factory.obj
 0001:00036288       ?DestroyGlobalRecycleBin@@YAJXZ 10037288 f   ceshrecbin:factory.obj
 0001:000362c4       ?CreateRecycleBinShellFolder@@YAJPAPAUIShellFolder@@@Z 100372c4 f   ceshrecbin:factory.obj
 0001:0003631c       ?CreateRecycleBinContextMenu@@YAJPAPAUIContextMenu@@@Z 1003731c f   ceshrecbin:factory.obj
 0001:00036374       ?CreateRecycleBinDropTarget@@YAJPAPAUIDropTarget@@@Z 10037374 f   ceshrecbin:factory.obj
 0001:00036404       ?GlobalInit@CRecycleBin@@SAXXZ 10037404 f   ceshrecbin:recbin.obj
 0001:00036460       ?GlobalCleanup@CRecycleBin@@SAXXZ 10037460 f   ceshrecbin:recbin.obj
 0001:000364f8       ?EndRecycle@CRecycleBin@@UAAXXZ 100374f8 f   ceshrecbin:recbin.obj
 0001:0003655c       ?CanAddFile@CRecycleBin@@AAAHPAXPA_K@Z 1003755c f   ceshrecbin:recbin.obj
 0001:0003663c       ?DeleteDatabase@CRecycleBin@@AAAIXZ 1003763c f   ceshrecbin:recbin.obj
 0001:000367e4       ?GetDBVolume@CRecycleBin@@AAAHPAU_CEGUID@@@Z 100377e4 f   ceshrecbin:recbin.obj
 0001:00036914       ?GetDWORD@CRecycleBin@@AAAKPAUHKEY__@@PBG1K@Z 10037914 f   ceshrecbin:recbin.obj
 0001:000369a8       ?GetFileInfo@CRecycleBin@@AAAKPBGPAGIPAU_FILETIME@@@Z 100379a8 f   ceshrecbin:recbin.obj
 0001:00036b14       ?GetTempFileNameW@CRecycleBin@@AAAIKPBGPAPAG@Z 10037b14 f   ceshrecbin:recbin.obj
 0001:00036c04       ?GetUsedRecycleBinSize@CRecycleBin@@AAAKPA_K@Z 10037c04 f   ceshrecbin:recbin.obj
 0001:00036cb0       ?MeetsFindCriteria@CRecycleBin@@AAAHXZ 10037cb0 f   ceshrecbin:recbin.obj
 0001:00036cf0       ?Notify@CRecycleBin@@AAAHXZ 10037cf0 f   ceshrecbin:recbin.obj
 0001:00036d38       ?OpenDatabase@CRecycleBin@@AAAIXZ 10037d38 f   ceshrecbin:recbin.obj
 0001:00036fa4       ?DeleteAll@CRecycleBin@@UAAJH@Z 10037fa4 f   ceshrecbin:recbin.obj
 0001:0003731c       ?DeleteFileFolder@CRecycleBin@@UAAJPFBU_ITEMIDLIST@@@Z 1003831c f   ceshrecbin:recbin.obj
 0001:00037534       ?GetBitBucketPath@CRecycleBin@@UBAPBGXZ 10038534 f   ceshrecbin:recbin.obj
 0001:00037548       ?GetFileDateDel@CRecycleBin@@UAAHPFBU_ITEMIDLIST@@PAU_FILETIME@@@Z 10038548 f   ceshrecbin:recbin.obj
 0001:00037634       ?GetFileOrigLoc@CRecycleBin@@UAAPAGPFBU_ITEMIDLIST@@@Z 10038634 f   ceshrecbin:recbin.obj
 0001:000377b8       ?GetFileOrigName@CRecycleBin@@UAAPAGPFBU_ITEMIDLIST@@@Z 100387b8 f   ceshrecbin:recbin.obj
 0001:00037930       ?GetFileSize@CRecycleBin@@UAAHPFBU_ITEMIDLIST@@PA_K@Z 10038930 f   ceshrecbin:recbin.obj
 0001:00037a7c       ?GetPercentage@CRecycleBin@@UAAIXZ 10038a7c f   ceshrecbin:recbin.obj
 0001:00037a8c       ?Initialize@CRecycleBin@@UAAXXZ 10038a8c f   ceshrecbin:recbin.obj
 0001:00037ad0       ?IsEmpty@CRecycleBin@@UAAHXZ 10038ad0 f   ceshrecbin:recbin.obj
 0001:00037b20       ?IsFull@CRecycleBin@@UAAHXZ 10038b20 f   ceshrecbin:recbin.obj
 0001:00037bd4       ?RestoreFile@CRecycleBin@@UAAJPFBU_ITEMIDLIST@@@Z 10038bd4 f   ceshrecbin:recbin.obj
 0001:00037f08       ?RestoreAll@CRecycleBin@@UAAJXZ 10038f08 f   ceshrecbin:recbin.obj
 0001:00038228       ?SetDesktopNotify@CRecycleBin@@UAAXPAUIShellChangeNotify@@@Z 10039228 f   ceshrecbin:recbin.obj
 0001:00038264       ?SetPercentage@CRecycleBin@@UAAHI@Z 10039264 f   ceshrecbin:recbin.obj
 0001:000382c4       ?StoreSize@CRecycleBin@@UAA_KXZ 100392c4 f   ceshrecbin:recbin.obj
 0001:00038358       ?QueryInterface@CRecycleBin@@UAAJABU_GUID@@PAPAX@Z 10039358 f   ceshrecbin:recbin.obj
 0001:000383f8       ?AddRef@CRecycleBin@@UAAKXZ 100393f8 f   ceshrecbin:recbin.obj
 0001:0003840c       ?Clone@CRecycleBin@@UAAJPAPAUIEnumIDList@@@Z 1003940c f   ceshrecbin:recbin.obj
 0001:00038418       ?Next@CRecycleBin@@UAAJKPAPFAU_ITEMIDLIST@@PAK@Z 10039418 f   ceshrecbin:recbin.obj
 0001:000384f4       ?Reset@CRecycleBin@@UAAJXZ 100394f4 f   ceshrecbin:recbin.obj
 0001:00038500       ?Skip@CRecycleBin@@UAAJK@Z 10039500 f   ceshrecbin:recbin.obj
 0001:0003850c       ?AddRef@CRecycleBin@@W3AAKXZ 1003950c f i ceshrecbin:recbin.obj
 0001:00038514       ?QueryInterface@CRecycleBin@@W3AAJABU_GUID@@PAPAX@Z 10039514 f i ceshrecbin:recbin.obj
 0001:0003851c       ?AddRecord@CRecycleBin@@AAAIPBG0@Z 1003951c f   ceshrecbin:recbin.obj
 0001:00038684       ?GetDBType@CRecycleBin@@AAAJXZ 10039684 f   ceshrecbin:recbin.obj
 0001:000387cc       ?GetTypeAndInit@CRecycleBin@@AAAJXZ 100397cc f   ceshrecbin:recbin.obj
 0001:00038854       ?AddFileFolder@CRecycleBin@@UAAJPBGPAPFAU_ITEMIDLIST@@@Z 10039854 f   ceshrecbin:recbin.obj
 0001:00038c90       ?Release@CRecycleBin@@UAAKXZ 10039c90 f   ceshrecbin:recbin.obj
 0001:00038cd4       ?Release@CRecycleBin@@W3AAKXZ 10039cd4 f i ceshrecbin:recbin.obj
 0001:00038cdc       ??0CRecycleBin@@QAA@K@Z    10039cdc f   ceshrecbin:recbin.obj
 0001:00038d48       ?BeginRecycle@CRecycleBin@@UAAXK@Z 10039d48 f   ceshrecbin:recbin.obj
 0001:00038d6c       ?RecBinPropDlgProc@Properties@ShellDialogs@@KAHPAUHWND__@@IIJ@Z 10039d6c f   ceshrecbin:recbinprop.obj
 0001:00039154       ?RecBinSheetCallback@Properties@ShellDialogs@@KAHPAUHWND__@@IJ@Z 1003a154 f   ceshrecbin:recbinprop.obj
 0001:0003916c       ?RecycleBinWarnDlgProc@ShellDialogs@@SAHPAUHWND__@@IIJ@Z 1003a16c f   ceshrecbin:recbinprop.obj
 0001:00039234       ?RecycleBinPropertiesThread@Properties@ShellDialogs@@KAKPAX@Z 1003a234 f   ceshrecbin:recbinprop.obj
 0001:00039488       ?RecycleBinProperties@Properties@ShellDialogs@@SAXXZ 1003a488 f   ceshrecbin:recbinprop.obj
 0001:00039538       ?QueryInterface@CRecycleBinFolder@@UAAJABU_GUID@@PAPAX@Z 1003a538 f   ceshrecbin:recyclefolder.obj
 0001:00039628       ?AddRef@CRecycleBinFolder@@UAAKXZ 1003a628 f   ceshrecbin:recyclefolder.obj
 0001:0003963c       ?BindToObject@CRecycleBinFolder@@UAAJPFBU_ITEMIDLIST@@PAUIBindCtx@@ABU_GUID@@PAPAX@Z 1003a63c f   ceshrecbin:recyclefolder.obj
 0001:00039648       ?BindToStorage@CRecycleBinFolder@@UAAJPFBU_ITEMIDLIST@@PAUIBindCtx@@ABU_GUID@@PAPAX@Z 1003a648 f   ceshrecbin:recyclefolder.obj
 0001:0003965c       ?CompareIDs@CRecycleBinFolder@@UAAJJPFBU_ITEMIDLIST@@0@Z 1003a65c f   ceshrecbin:recyclefolder.obj
 0001:000399ec       ?CreateViewObject@CRecycleBinFolder@@UAAJPAUHWND__@@ABU_GUID@@PAPAX@Z 1003a9ec f   ceshrecbin:recyclefolder.obj
 0001:00039b6c       ?EnumObjects@CRecycleBinFolder@@UAAJPAUHWND__@@KPAPAUIEnumIDList@@@Z 1003ab6c f   ceshrecbin:recyclefolder.obj
 0001:00039c1c       ?GetAttributesOf@CRecycleBinFolder@@UAAJIPAPFBU_ITEMIDLIST@@PAK@Z 1003ac1c f   ceshrecbin:recyclefolder.obj
 0001:00039d6c       ?GetDisplayNameOf@CRecycleBinFolder@@UAAJPFBU_ITEMIDLIST@@KPAU_STRRET@@@Z 1003ad6c f   ceshrecbin:recyclefolder.obj
 0001:00039f80       ?GetUIObjectOf@CRecycleBinFolder@@UAAJPAUHWND__@@IPAPFBU_ITEMIDLIST@@ABU_GUID@@PAIPAPAX@Z 1003af80 f   ceshrecbin:recyclefolder.obj
 0001:0003a078       ?ParseDisplayName@CRecycleBinFolder@@UAAJPAUHWND__@@PAUIBindCtx@@PAGPAKPAPFAU_ITEMIDLIST@@3@Z 1003b078 f   ceshrecbin:recyclefolder.obj
 0001:0003a084       ?SetNameOf@CRecycleBinFolder@@UAAJPAUHWND__@@PFBU_ITEMIDLIST@@PBGKPAPFAU3@@Z 1003b084 f   ceshrecbin:recyclefolder.obj
 0001:0003a090       ?ColumnClick@CRecycleBinFolder@@UAAJI@Z 1003b090 f   ceshrecbin:recyclefolder.obj
 0001:0003a098       ?GetDetailsOf@CRecycleBinFolder@@UAAJPFBU_ITEMIDLIST@@IPAU_SHELLDETAILS@@@Z 1003b098 f   ceshrecbin:recyclefolder.obj
 0001:0003a454       ?GetClassID@CRecycleBinFolder@@UAAJPAU_GUID@@@Z 1003b454 f   ceshrecbin:recyclefolder.obj
 0001:0003a460       ?Initialize@CRecycleBinFolder@@UAAJPFBU_ITEMIDLIST@@@Z 1003b460 f   ceshrecbin:recyclefolder.obj
 0001:0003a46c       ?AddRef@CRecycleBinFolder@@W3AAKXZ 1003b46c f i ceshrecbin:recyclefolder.obj
 0001:0003a474       ?AddRef@CRecycleBinFolder@@W7AAKXZ 1003b474 f i ceshrecbin:recyclefolder.obj
 0001:0003a47c       ?QueryInterface@CRecycleBinFolder@@W3AAJABU_GUID@@PAPAX@Z 1003b47c f i ceshrecbin:recyclefolder.obj
 0001:0003a484       ?QueryInterface@CRecycleBinFolder@@W7AAJABU_GUID@@PAPAX@Z 1003b484 f i ceshrecbin:recyclefolder.obj
 0001:0003a48c       ?Release@CRecycleBinFolder@@UAAKXZ 1003b48c f   ceshrecbin:recyclefolder.obj
 0001:0003a4d8       ?Release@CRecycleBinFolder@@W3AAKXZ 1003b4d8 f i ceshrecbin:recyclefolder.obj
 0001:0003a4e0       ?Release@CRecycleBinFolder@@W7AAKXZ 1003b4e0 f i ceshrecbin:recyclefolder.obj
 0001:0003a4e8       ??0CRecycleBinFolder@@QAA@XZ 1003b4e8 f   ceshrecbin:recyclefolder.obj
 0001:0003a520       ?QueryInterface@CRecycleBinMenu@@UAAJABU_GUID@@PAPAX@Z 1003b520 f   ceshrecbin:recbinmenu.obj
 0001:0003a5b0       ?AddRef@CRecycleBinMenu@@UAAKXZ 1003b5b0 f   ceshrecbin:recbinmenu.obj
 0001:0003a5c4       ?GetCommandString@CRecycleBinMenu@@UAAJIIPAIPADI@Z 1003b5c4 f   ceshrecbin:recbinmenu.obj
 0001:0003a5d0       ?InvokeCommand@CRecycleBinMenu@@UAAJPAU_CMINVOKECOMMANDINFO@@@Z 1003b5d0 f   ceshrecbin:recbinmenu.obj
 0001:0003a664       ?QueryContextMenu@CRecycleBinMenu@@UAAJPAUHMENU__@@IIII@Z 1003b664 f   ceshrecbin:recbinmenu.obj
 0001:0003a728       ?Release@CRecycleBinMenu@@UAAKXZ 1003b728 f   ceshrecbin:recbinmenu.obj
 0001:0003a760       ??0CRecycleBinMenu@@QAA@XZ 1003b760 f   ceshrecbin:recbinmenu.obj
 0001:0003a780       ??1CRecBinDropTarget@@QAA@XZ 1003b780 f   ceshrecbin:recbindrop.obj
 0001:0003a7b8       ?Initialize@CRecBinDropTarget@@QAAHXZ 1003b7b8 f   ceshrecbin:recbindrop.obj
 0001:0003a8a4       ?QueryInterface@CRecBinDropTarget@@UAAJABU_GUID@@PAPAX@Z 1003b8a4 f   ceshrecbin:recbindrop.obj
 0001:0003a934       ?AddRef@CRecBinDropTarget@@UAAKXZ 1003b934 f   ceshrecbin:recbindrop.obj
 0001:0003a950       ?DragEnter@CRecBinDropTarget@@UAAJPAUIDataObject@@KU_POINTL@@PAK@Z 1003b950 f   ceshrecbin:recbindrop.obj
 0001:0003ab10       ?DragOver@CRecBinDropTarget@@UAAJKU_POINTL@@PAK@Z 1003bb10 f   ceshrecbin:recbindrop.obj
 0001:0003ab3c       ?DragLeave@CRecBinDropTarget@@UAAJXZ 1003bb3c f   ceshrecbin:recbindrop.obj
 0001:0003ab4c       ?Drop@CRecBinDropTarget@@UAAJPAUIDataObject@@KU_POINTL@@PAK@Z 1003bb4c f   ceshrecbin:recbindrop.obj
 0001:0003ac88       ?Release@CRecBinDropTarget@@UAAKXZ 1003bc88 f   ceshrecbin:recbindrop.obj
 0001:0003acbc       ??0CRecBinDropTarget@@QAA@XZ 1003bcbc f   ceshrecbin:recbindrop.obj
 0001:0003ace0       ??0CRecycleBinView@@QAA@PAUIShellFolder@@PFBU_ITEMIDLIST@@@Z 1003bce0 f   ceshrecbin:recbinview.obj
 0001:0003ad54       ?HandleCommand@CRecycleBinView@@MAAJKPAUtagVARIANT@@@Z 1003bd54 f   ceshrecbin:recbinview.obj
 0001:0003b090       ?HandleInitMenuPopup@CRecycleBinView@@MAAJPAUHMENU__@@PAUPopupMenuInfo@CDefShellView@@@Z 1003c090 f   ceshrecbin:recbinview.obj
 0001:0003b178       ?InitializeStatusBar@CRecycleBinView@@MAAXXZ 1003c178 f   ceshrecbin:recbinview.obj
 0001:0003b1f0       ?LoadColumnDetails@CRecycleBinView@@MAAXXZ 1003c1f0 f   ceshrecbin:recbinview.obj
 0001:0003b428       ?LoadPopupMenuTemplate@CRecycleBinView@@MAAPAUHMENU__@@XZ 1003c428 f   ceshrecbin:recbinview.obj
 0001:0003b43c       ?PerformAction@CRecycleBinView@@MAAJW4OLECMDID@@K@Z 1003c43c f   ceshrecbin:recbinview.obj
 0001:0003b510       ?UpdateBrowserMenus@CRecycleBinView@@MAAHI@Z 1003c510 f   ceshrecbin:recbinview.obj
 0001:0003b6e0       ?UpdateCurrentDropTarget@CRecycleBinView@@MAAXKU_POINTL@@PAK@Z 1003c6e0 f   ceshrecbin:recbinview.obj
 0001:0003b81c       ?CreateViewWindow@CRecycleBinView@@UAAJPAUIShellView@@PBUtagFOLDERSETTINGS@@PAUIShellBrowser@@PAUtagRECT@@PAPAUHWND__@@@Z 1003c81c f   ceshrecbin:recbinview.obj
 0001:0003b894       ?QueryStatus@CRecycleBinView@@UAAJPBU_GUID@@KQAU_tagOLECMD@@PAU_tagOLECMDTEXT@@@Z 1003c894 f   ceshrecbin:recbinview.obj
 0001:0003ba2c       ?QueryContinueDrag@CRecycleBinView@@UAAJHK@Z 1003ca2c f   ceshrecbin:recbinview.obj
 0001:0003ba38       ?GiveFeedback@CRecycleBinView@@UAAJK@Z 1003ca38 f   ceshrecbin:recbinview.obj
 0001:0003ba44       ?HandleChangeNotify@CRecycleBinView@@MAAJPAUChangeNotifyEventData@CDefShellView@@@Z 1003ca44 f   ceshrecbin:recbinview.obj
 0001:0003bae4       StringCchLengthW           1003cae4 f   coredll:COREDLL.dll
 0001:0003baf4       __GetUserKData             1003caf4 f   coredll:COREDLL.dll
 0001:0003bb04       LoadLibraryExW             1003cb04 f   coredll:COREDLL.dll
 0001:0003bb14       InitializeCriticalSection  1003cb14 f   coredll:COREDLL.dll
 0001:0003bb24       DeleteCriticalSection      1003cb24 f   coredll:COREDLL.dll
 0001:0003bb34       FreeLibrary                1003cb34 f   coredll:COREDLL.dll
 0001:0003bb44       SHGetSpecialFolderPath     1003cb44 f   coredll:COREDLL.dll
 0001:0003bb54       StringCchCopyW             1003cb54 f   coredll:COREDLL.dll
 0001:0003bb64       GetFileAttributesW         1003cb64 f   coredll:COREDLL.dll
 0001:0003bb74       lstrcmpW                   1003cb74 f   coredll:COREDLL.dll
 0001:0003bb84       GetProcAddressW            1003cb84 f   coredll:COREDLL.dll
 0001:0003bb94       LoadLibraryW               1003cb94 f   coredll:COREDLL.dll
 0001:0003bba4       GetLastError               1003cba4 f   coredll:COREDLL.dll
 0001:0003bbb4       GetProcessVersion          1003cbb4 f   coredll:COREDLL.dll
 0001:0003bbc4       MessageBoxW                1003cbc4 f   coredll:COREDLL.dll
 0001:0003bbd4       LoadStringW                1003cbd4 f   coredll:COREDLL.dll
 0001:0003bbe4       WaitForAPIReady            1003cbe4 f   coredll:COREDLL.dll
 0001:0003bbf4       CloseHandle                1003cbf4 f   coredll:COREDLL.dll
 0001:0003bc04       VirtualFree                1003cc04 f   coredll:COREDLL.dll
 0001:0003bc14       CreateDIBPatternBrushPt    1003cc14 f   coredll:COREDLL.dll
 0001:0003bc24       VirtualAlloc               1003cc24 f   coredll:COREDLL.dll
 0001:0003bc34       ReadFile                   1003cc34 f   coredll:COREDLL.dll
 0001:0003bc44       GetFileSize                1003cc44 f   coredll:COREDLL.dll
 0001:0003bc54       CreateFileW                1003cc54 f   coredll:COREDLL.dll
 0001:0003bc64       SetLastError               1003cc64 f   coredll:COREDLL.dll
 0001:0003bc74       ImageList_GetIcon          1003cc74 f   coredll:COREDLL.dll
 0001:0003bc84       InterlockedCompareExchange 1003cc84 f   coredll:COREDLL.dll
 0001:0003bc94       StringCbCatW               1003cc94 f   coredll:COREDLL.dll
 0001:0003bca4       StringCbCatExW             1003cca4 f   coredll:COREDLL.dll
 0001:0003bcb4       LeaveCriticalSection       1003ccb4 f   coredll:COREDLL.dll
 0001:0003bcc4       EnterCriticalSection       1003ccc4 f   coredll:COREDLL.dll
 0001:0003bcd4       LocalFree                  1003ccd4 f   coredll:COREDLL.dll
 0001:0003bce4       GetAsyncKeyState           1003cce4 f   coredll:COREDLL.dll
 0001:0003bcf4       DefWindowProcW             1003ccf4 f   coredll:COREDLL.dll
 0001:0003bd04       DestroyWindow              1003cd04 f   coredll:COREDLL.dll
 0001:0003bd14       ReleaseCapture             1003cd14 f   coredll:COREDLL.dll
 0001:0003bd24       KillTimer                  1003cd24 f   coredll:COREDLL.dll
 0001:0003bd34       PostQuitMessage            1003cd34 f   coredll:COREDLL.dll
 0001:0003bd44       DispatchMessageW           1003cd44 f   coredll:COREDLL.dll
 0001:0003bd54       PeekMessageW               1003cd54 f   coredll:COREDLL.dll
 0001:0003bd64       SetTimer                   1003cd64 f   coredll:COREDLL.dll
 0001:0003bd74       ImageList_DragMove         1003cd74 f   coredll:COREDLL.dll
 0001:0003bd84       SendMessageW               1003cd84 f   coredll:COREDLL.dll
 0001:0003bd94       SetWindowLongW             1003cd94 f   coredll:COREDLL.dll
 0001:0003bda4       ImageList_DragEnter        1003cda4 f   coredll:COREDLL.dll
 0001:0003bdb4       ImageList_DragLeave        1003cdb4 f   coredll:COREDLL.dll
 0001:0003bdc4       CallWindowProcW            1003cdc4 f   coredll:COREDLL.dll
 0001:0003bdd4       LocalAlloc                 1003cdd4 f   coredll:COREDLL.dll
 0001:0003bde4       GetParent                  1003cde4 f   coredll:COREDLL.dll
 0001:0003bdf4       WindowFromPoint            1003cdf4 f   coredll:COREDLL.dll
 0001:0003be04       IsWindow                   1003ce04 f   coredll:COREDLL.dll
 0001:0003be14       SetCapture                 1003ce14 f   coredll:COREDLL.dll
 0001:0003be24       CreateWindowExW            1003ce24 f   coredll:COREDLL.dll
 0001:0003be34       RegisterClassW             1003ce34 f   coredll:COREDLL.dll
 0001:0003be44       LoadCursorW                1003ce44 f   coredll:COREDLL.dll
 0001:0003be54       GetClassInfoW              1003ce54 f   coredll:COREDLL.dll
 0001:0003be64       EnableWindow               1003ce64 f   coredll:COREDLL.dll
 0001:0003be74       GetDlgItem                 1003ce74 f   coredll:COREDLL.dll
 0001:0003be84       SetWindowTextW             1003ce84 f   coredll:COREDLL.dll
 0001:0003be94       EndDialog                  1003ce94 f   coredll:COREDLL.dll
 0001:0003bea4       CompareStringW             1003cea4 f   coredll:COREDLL.dll
 0001:0003beb4       GetWindowTextW             1003ceb4 f   coredll:COREDLL.dll
 0001:0003bec4       GetDlgItemTextW            1003cec4 f   coredll:COREDLL.dll
 0001:0003bed4       GetWindowLongW             1003ced4 f   coredll:COREDLL.dll
 0001:0003bee4       GetSystemMetrics           1003cee4 f   coredll:COREDLL.dll
 0001:0003bef4       SetWindowPos               1003cef4 f   coredll:COREDLL.dll
 0001:0003bf04       ShowWindow                 1003cf04 f   coredll:COREDLL.dll
 0001:0003bf14       MapWindowPoints            1003cf14 f   coredll:COREDLL.dll
 0001:0003bf24       GetClientRect              1003cf24 f   coredll:COREDLL.dll
 0001:0003bf34       SetDlgItemTextW            1003cf34 f   coredll:COREDLL.dll
 0001:0003bf44       SetCursor                  1003cf44 f   coredll:COREDLL.dll
 0001:0003bf54       DialogBoxIndirectParamW    1003cf54 f   coredll:COREDLL.dll
 0001:0003bf64       LoadResource               1003cf64 f   coredll:COREDLL.dll
 0001:0003bf74       FindResourceW              1003cf74 f   coredll:COREDLL.dll
 0001:0003bf84       StringCchCatExW            1003cf84 f   coredll:COREDLL.dll
 0001:0003bf94       StringCchCatW              1003cf94 f   coredll:COREDLL.dll
 0001:0003bfa4       RegCloseKey                1003cfa4 f   coredll:COREDLL.dll
 0001:0003bfb4       RegQueryValueExW           1003cfb4 f   coredll:COREDLL.dll
 0001:0003bfc4       RegOpenKeyExW              1003cfc4 f   coredll:COREDLL.dll
 0001:0003bfd4       MultiByteToWideChar        1003cfd4 f   coredll:COREDLL.dll
 0001:0003bfe4       SetFilePointer             1003cfe4 f   coredll:COREDLL.dll
 0001:0003bff4       SetEndOfFile               1003cff4 f   coredll:COREDLL.dll
 0001:0003c004       WriteFile                  1003d004 f   coredll:COREDLL.dll
 0001:0003c014       WideCharToMultiByte        1003d014 f   coredll:COREDLL.dll
 0001:0003c024       StringCchPrintfW           1003d024 f   coredll:COREDLL.dll
 0001:0003c034       CopyFileW                  1003d034 f   coredll:COREDLL.dll
 0001:0003c044       EventModify                1003d044 f   coredll:COREDLL.dll
 0001:0003c054       PostMessageW               1003d054 f   coredll:COREDLL.dll
 0001:0003c064       WaitForSingleObject        1003d064 f   coredll:COREDLL.dll
 0001:0003c074       CreateEventW               1003d074 f   coredll:COREDLL.dll
 0001:0003c084       CreateThread               1003d084 f   coredll:COREDLL.dll
 0001:0003c094       IsWindowVisible            1003d094 f   coredll:COREDLL.dll
 0001:0003c0a4       GetTickCount               1003d0a4 f   coredll:COREDLL.dll
 0001:0003c0b4       StringCchPrintfExW         1003d0b4 f   coredll:COREDLL.dll
 0001:0003c0c4       FormatMessageW             1003d0c4 f   coredll:COREDLL.dll
 0001:0003c0d4       CreateDirectoryW           1003d0d4 f   coredll:COREDLL.dll
 0001:0003c0e4       DeleteFileW                1003d0e4 f   coredll:COREDLL.dll
 0001:0003c0f4       SetFileAttributesW         1003d0f4 f   coredll:COREDLL.dll
 0001:0003c104       StringCchCopyExW           1003d104 f   coredll:COREDLL.dll
 0001:0003c114       CopyFileExW                1003d114 f   coredll:COREDLL.dll
 0001:0003c124       RemoveDirectoryW           1003d124 f   coredll:COREDLL.dll
 0001:0003c134       MoveFileW                  1003d134 f   coredll:COREDLL.dll
 0001:0003c144       FindClose                  1003d144 f   coredll:COREDLL.dll
 0001:0003c154       FindFirstFileW             1003d154 f   coredll:COREDLL.dll
 0001:0003c164       FindNextFileW              1003d164 f   coredll:COREDLL.dll
 0001:0003c174       GetMessageW                1003d174 f   coredll:COREDLL.dll
 0001:0003c184       TranslateMessage           1003d184 f   coredll:COREDLL.dll
 0001:0003c194       IsDialogMessageW           1003d194 f   coredll:COREDLL.dll
 0001:0003c1a4       CreateDialogIndirectParamW 1003d1a4 f   coredll:COREDLL.dll
 0001:0003c1b4       GetDiskFreeSpaceExW        1003d1b4 f   coredll:COREDLL.dll
 0001:0003c1c4       LoadImageW                 1003d1c4 f   coredll:COREDLL.dll
 0001:0003c1d4       SystemParametersInfoW      1003d1d4 f   coredll:COREDLL.dll
 0001:0003c1e4       GetWindowRect              1003d1e4 f   coredll:COREDLL.dll
 0001:0003c1f4       ReleaseDC                  1003d1f4 f   coredll:COREDLL.dll
 0001:0003c204       DrawTextW                  1003d204 f   coredll:COREDLL.dll
 0001:0003c214       DrawIconEx                 1003d214 f   coredll:COREDLL.dll
 0001:0003c224       Polyline                   1003d224 f   coredll:COREDLL.dll
 0001:0003c234       GetStockObject             1003d234 f   coredll:COREDLL.dll
 0001:0003c244       SetBkMode                  1003d244 f   coredll:COREDLL.dll
 0001:0003c254       SetTextColor               1003d254 f   coredll:COREDLL.dll
 0001:0003c264       GetSysColor                1003d264 f   coredll:COREDLL.dll
 0001:0003c274       SelectObject               1003d274 f   coredll:COREDLL.dll
 0001:0003c284       FillRect                   1003d284 f   coredll:COREDLL.dll
 0001:0003c294       CopyRect                   1003d294 f   coredll:COREDLL.dll
 0001:0003c2a4       GetDC                      1003d2a4 f   coredll:COREDLL.dll
 0001:0003c2b4       CreateSolidBrush           1003d2b4 f   coredll:COREDLL.dll
 0001:0003c2c4       CreateFontIndirectW        1003d2c4 f   coredll:COREDLL.dll
 0001:0003c2d4       GetObjectW                 1003d2d4 f   coredll:COREDLL.dll
 0001:0003c2e4       DeleteObject               1003d2e4 f   coredll:COREDLL.dll
 0001:0003c2f4       DestroyIcon                1003d2f4 f   coredll:COREDLL.dll
 0001:0003c304       EndPaint                   1003d304 f   coredll:COREDLL.dll
 0001:0003c314       ExtTextOutW                1003d314 f   coredll:COREDLL.dll
 0001:0003c324       BeginPaint                 1003d324 f   coredll:COREDLL.dll
 0001:0003c334       RegEnumValueW              1003d334 f   coredll:COREDLL.dll
 0001:0003c344       DeleteDC                   1003d344 f   coredll:COREDLL.dll
 0001:0003c354       GetTextExtentExPointW      1003d354 f   coredll:COREDLL.dll
 0001:0003c364       CreateCompatibleDC         1003d364 f   coredll:COREDLL.dll
 0001:0003c374       SetFocus                   1003d374 f   coredll:COREDLL.dll
 0001:0003c384       StringCchCopyNW            1003d384 f   coredll:COREDLL.dll
 0001:0003c394       CreateProcessW             1003d394 f   coredll:COREDLL.dll
 0001:0003c3a4       UpdateWindow               1003d3a4 f   coredll:COREDLL.dll
 0001:0003c3b4       SendDlgItemMessageW        1003d3b4 f   coredll:COREDLL.dll
 0001:0003c3c4       RegSetValueExW             1003d3c4 f   coredll:COREDLL.dll
 0001:0003c3d4       RegCreateKeyExW            1003d3d4 f   coredll:COREDLL.dll
 0001:0003c3e4       EnableEUDC                 1003d3e4 f   coredll:COREDLL.dll
 0001:0003c3f4       StringCbCopyNW             1003d3f4 f   coredll:COREDLL.dll
 0001:0003c404       RemoveFontResourceW        1003d404 f   coredll:COREDLL.dll
 0001:0003c414       LocalReAlloc               1003d414 f   coredll:COREDLL.dll
 0001:0003c424       LocalSize                  1003d424 f   coredll:COREDLL.dll
 0001:0003c434       ExtractIconExW             1003d434 f   coredll:COREDLL.dll
 0001:0003c444       ImageList_Create           1003d444 f   coredll:COREDLL.dll
 0001:0003c454       ImageList_SetOverlayImage  1003d454 f   coredll:COREDLL.dll
 0001:0003c464       ImageList_ReplaceIcon      1003d464 f   coredll:COREDLL.dll
 0001:0003c474       ImageList_GetIconSize      1003d474 f   coredll:COREDLL.dll
 0001:0003c484       ImageList_Remove           1003d484 f   coredll:COREDLL.dll
 0001:0003c494       GlobalMemoryStatus         1003d494 f   coredll:COREDLL.dll
 0001:0003c4a4       GetFileAttributesExW       1003d4a4 f   coredll:COREDLL.dll
 0001:0003c4b4       ImageList_GetImageCount    1003d4b4 f   coredll:COREDLL.dll
 0001:0003c4c4       CharUpperBuffW             1003d4c4 f   coredll:COREDLL.dll
 0001:0003c4d4       CompareFileTime            1003d4d4 f   coredll:COREDLL.dll
 0001:0003c4e4       ImageList_Destroy          1003d4e4 f   coredll:COREDLL.dll
 0001:0003c4f4       GetDeviceCaps              1003d4f4 f   coredll:COREDLL.dll
 0001:0003c504       CeUnmountDBVol             1003d504 f   coredll:COREDLL.dll
 0001:0003c514       CeOpenDatabaseEx           1003d514 f   coredll:COREDLL.dll
 0001:0003c524       CeMountDBVol               1003d524 f   coredll:COREDLL.dll
 0001:0003c534       StringCbLengthW            1003d534 f   coredll:COREDLL.dll
 0001:0003c544       SetForegroundWindow        1003d544 f   coredll:COREDLL.dll
 0001:0003c554       CeReadRecordProps          1003d554 f   coredll:COREDLL.dll
 0001:0003c564       CeSeekDatabase             1003d564 f   coredll:COREDLL.dll
 0001:0003c574       GetUserDefaultUILanguage   1003d574 f   coredll:COREDLL.dll
 0001:0003c584       SHLoadIndirectString       1003d584 f   coredll:COREDLL.dll
 0001:0003c594       wsprintfW                  1003d594 f   coredll:COREDLL.dll
 0001:0003c5a4       GetNumberFormatW           1003d5a4 f   coredll:COREDLL.dll
 0001:0003c5b4       GetLocaleInfoW             1003d5b4 f   coredll:COREDLL.dll
 0001:0003c5c4       GetTimeFormatW             1003d5c4 f   coredll:COREDLL.dll
 0001:0003c5d4       GetDateFormatW             1003d5d4 f   coredll:COREDLL.dll
 0001:0003c5e4       FileTimeToSystemTime       1003d5e4 f   coredll:COREDLL.dll
 0001:0003c5f4       FileTimeToLocalFileTime    1003d5f4 f   coredll:COREDLL.dll
 0001:0003c604       StringCbPrintfW            1003d604 f   coredll:COREDLL.dll
 0001:0003c614       FindCloseChangeNotification 1003d614 f   coredll:COREDLL.dll
 0001:0003c624       FindFirstChangeNotificationW 1003d624 f   coredll:COREDLL.dll
 0001:0003c634       FindNextChangeNotification 1003d634 f   coredll:COREDLL.dll
 0001:0003c644       CeGetFileNotificationInfo  1003d644 f   coredll:COREDLL.dll
 0001:0003c654       InterlockedIncrement       1003d654 f   coredll:COREDLL.dll
 0001:0003c664       InterlockedDecrement       1003d664 f   coredll:COREDLL.dll
 0001:0003c674       CeOidGetInfo               1003d674 f   coredll:COREDLL.dll
 0001:0003c684       RegisterClipboardFormatW   1003d684 f   coredll:COREDLL.dll
 0001:0003c694       GetMenuItemInfoW           1003d694 f   coredll:COREDLL.dll
 0001:0003c6a4       MessageBeep                1003d6a4 f   coredll:COREDLL.dll
 0001:0003c6b4       DestroyMenu                1003d6b4 f   coredll:COREDLL.dll
 0001:0003c6c4       TrackPopupMenuEx           1003d6c4 f   coredll:COREDLL.dll
 0001:0003c6d4       SetMenuItemInfoW           1003d6d4 f   coredll:COREDLL.dll
 0001:0003c6e4       GetSubMenu                 1003d6e4 f   coredll:COREDLL.dll
 0001:0003c6f4       ShellExecuteEx             1003d6f4 f   coredll:COREDLL.dll
 0001:0003c704       CheckMenuItem              1003d704 f   coredll:COREDLL.dll
 0001:0003c714       EnableMenuItem             1003d714 f   coredll:COREDLL.dll
 0001:0003c724       LoadMenuW                  1003d724 f   coredll:COREDLL.dll
 0001:0003c734       AppendMenuW                1003d734 f   coredll:COREDLL.dll
 0001:0003c744       InsertMenuW                1003d744 f   coredll:COREDLL.dll
 0001:0003c754       InvalidateRect             1003d754 f   coredll:COREDLL.dll
 0001:0003c764       RemoveMenu                 1003d764 f   coredll:COREDLL.dll
 0001:0003c774       CreateMenu                 1003d774 f   coredll:COREDLL.dll
 0001:0003c784       TranslateAcceleratorW      1003d784 f   coredll:COREDLL.dll
 0001:0003c794       GetKeyState                1003d794 f   coredll:COREDLL.dll
 0001:0003c7a4       GetMessagePos              1003d7a4 f   coredll:COREDLL.dll
 0001:0003c7b4       SizeofResource             1003d7b4 f   coredll:COREDLL.dll
 0001:0003c7c4       LoadAcceleratorsW          1003d7c4 f   coredll:COREDLL.dll
 0001:0003c7d4       SystemTimeToFileTime       1003d7d4 f   coredll:COREDLL.dll
 0001:0003c7e4       UnmapViewOfFile            1003d7e4 f   coredll:COREDLL.dll
 0001:0003c7f4       MapViewOfFile              1003d7f4 f   coredll:COREDLL.dll
 0001:0003c804       CreateFileMappingW         1003d804 f   coredll:COREDLL.dll
 0001:0003c814       BitBlt                     1003d814 f   coredll:COREDLL.dll
 0001:0003c824       PatBlt                     1003d824 f   coredll:COREDLL.dll
 0001:0003c834       CreatePatternBrush         1003d834 f   coredll:COREDLL.dll
 0001:0003c844       SetBrushOrgEx              1003d844 f   coredll:COREDLL.dll
 0001:0003c854       CreateCompatibleBitmap     1003d854 f   coredll:COREDLL.dll
 0001:0003c864       CreateDCW                  1003d864 f   coredll:COREDLL.dll
 0001:0003c874       CharUpperW                 1003d874 f   coredll:COREDLL.dll
 0001:0003c884       GetSysColorBrush           1003d884 f   coredll:COREDLL.dll
 0001:0003c894       ExcludeClipRect            1003d894 f   coredll:COREDLL.dll
 0001:0003c8a4       SelectClipRgn              1003d8a4 f   coredll:COREDLL.dll
 0001:0003c8b4       CreateRectRgnIndirect      1003d8b4 f   coredll:COREDLL.dll
 0001:0003c8c4       OffsetRect                 1003d8c4 f   coredll:COREDLL.dll
 0001:0003c8d4       SetRect                    1003d8d4 f   coredll:COREDLL.dll
 0001:0003c8e4       SetBkColor                 1003d8e4 f   coredll:COREDLL.dll
 0001:0003c8f4       FindWindowW                1003d8f4 f   coredll:COREDLL.dll
 0001:0003c904       SHLoadDIBitmap             1003d904 f   coredll:COREDLL.dll
 0001:0003c914       MoveWindow                 1003d914 f   coredll:COREDLL.dll
 0001:0003c924       UnregisterClassW           1003d924 f   coredll:COREDLL.dll
 0001:0003c934       GetActiveWindow            1003d934 f   coredll:COREDLL.dll
 0001:0003c944       EmptyClipboard             1003d944 f   coredll:COREDLL.dll
 0001:0003c954       CloseClipboard             1003d954 f   coredll:COREDLL.dll
 0001:0003c964       GetWindowThreadProcessId   1003d964 f   coredll:COREDLL.dll
 0001:0003c974       GetClipboardData           1003d974 f   coredll:COREDLL.dll
 0001:0003c984       OpenClipboard              1003d984 f   coredll:COREDLL.dll
 0001:0003c994       SetClipboardData           1003d994 f   coredll:COREDLL.dll
 0001:0003c9a4       EnumClipboardFormats       1003d9a4 f   coredll:COREDLL.dll
 0001:0003c9b4       GetClipboardDataAlloc      1003d9b4 f   coredll:COREDLL.dll
 0001:0003c9c4       RegEnumKeyExW              1003d9c4 f   coredll:COREDLL.dll
 0001:0003c9d4       RegQueryInfoKeyW           1003d9d4 f   coredll:COREDLL.dll
 0001:0003c9e4       ImageList_BeginDrag        1003d9e4 f   coredll:COREDLL.dll
 0001:0003c9f4       ScreenToClient             1003d9f4 f   coredll:COREDLL.dll
 0001:0003ca04       ImageList_EndDrag          1003da04 f   coredll:COREDLL.dll
 0001:0003ca14       ImageList_SetDragCursorImage 1003da14 f   coredll:COREDLL.dll
 0001:0003ca24       GetCursorPos               1003da24 f   coredll:COREDLL.dll
 0001:0003ca34       GetScrollInfo              1003da34 f   coredll:COREDLL.dll
 0001:0003ca44       PtInRect                   1003da44 f   coredll:COREDLL.dll
 0001:0003ca54       InflateRect                1003da54 f   coredll:COREDLL.dll
 0001:0003ca64       ImageList_DragShowNolock   1003da64 f   coredll:COREDLL.dll
 0001:0003ca74       GetExitCodeThread          1003da74 f   coredll:COREDLL.dll
 0001:0003ca84       CreateDIBSection           1003da84 f   coredll:COREDLL.dll
 0001:0003ca94       ImageList_Draw             1003da94 f   coredll:COREDLL.dll
 0001:0003caa4       AlphaBlend                 1003daa4 f   coredll:COREDLL.dll
 0001:0003cab4       RegisterWindowMessageW     1003dab4 f   coredll:COREDLL.dll
 0001:0003cac4       StringCchCopyNExW          1003dac4 f   coredll:COREDLL.dll
 0001:0003cad4       LoadIconW                  1003dad4 f   coredll:COREDLL.dll
 0001:0003cae4       CeDeleteDatabaseEx         1003dae4 f   coredll:COREDLL.dll
 0001:0003caf4       Sleep                      1003daf4 f   coredll:COREDLL.dll
 0001:0003cb04       CeReadRecordPropsEx        1003db04 f   coredll:COREDLL.dll
 0001:0003cb14       CeSeekDatabaseEx           1003db14 f   coredll:COREDLL.dll
 0001:0003cb24       Random                     1003db24 f   coredll:COREDLL.dll
 0001:0003cb34       CeCreateDatabaseEx2        1003db34 f   coredll:COREDLL.dll
 0001:0003cb44       CeOpenDatabaseEx2          1003db44 f   coredll:COREDLL.dll
 0001:0003cb54       CeDeleteRecord             1003db54 f   coredll:COREDLL.dll
 0001:0003cb64       GetSystemMemoryDivision    1003db64 f   coredll:COREDLL.dll
 0001:0003cb74       CeFlushDBVol               1003db74 f   coredll:COREDLL.dll
 0001:0003cb84       CeWriteRecordProps         1003db84 f   coredll:COREDLL.dll
 0001:0003cb94       LocalFileTimeToFileTime    1003db94 f   coredll:COREDLL.dll
 0001:0003cba4       GetLocalTime               1003dba4 f   coredll:COREDLL.dll
 0001:0003cbb4       ??0CNotifiable@@QAA@XZ     1003dbb4 f   handlearray:handlearray.obj
 0001:0003cbcc       ??1CNotifiable@@UAA@XZ     1003dbcc f   handlearray:handlearray.obj
 0001:0003cbdc       ?Release@CNotifiable@@QAAKXZ 1003dbdc f   handlearray:handlearray.obj
 0001:0003cc14       ??0CHandleArray@@QAA@XZ    1003dc14 f   handlearray:handlearray.obj
 0001:0003cc58       ??1CHandleArray@@QAA@XZ    1003dc58 f   handlearray:handlearray.obj
 0001:0003cce4       ?ProcessNotifications@CHandleArray@@IAAXXZ 1003dce4 f   handlearray:handlearray.obj
 0001:0003cefc       ??_GCNotifiable@@UAAPAXI@Z 1003defc f i handlearray:handlearray.obj
 0001:0003cefc       ??_ECNotifiable@@UAAPAXI@Z 1003defc f i handlearray:handlearray.obj
 0001:0003cf20       ?ThreadProc@CHandleArray@@KAKPAX@Z 1003df20 f   handlearray:handlearray.obj
 0001:0003cf30       ?Add@CHandleArray@@QAAJPAVCNotifiable@@@Z 1003df30 f   handlearray:handlearray.obj
 0001:0003d044       ?Remove@CHandleArray@@QAAJPAVCNotifiable@@@Z 1003e044 f   handlearray:handlearray.obj
 0001:0003d11c       ?RefreshAll@CHandleArray@@QAAJXZ 1003e11c f   handlearray:handlearray.obj
 0001:0003d19c       CoTaskMemFree              1003e19c f   ole32:ole32.dll
 0001:0003d1ac       StringFromCLSID            1003e1ac f   ole32:ole32.dll
 0001:0003d1bc       CLSIDFromString            1003e1bc f   ole32:ole32.dll
 0001:0003d1cc       CoGetClassObject           1003e1cc f   ole32:ole32.dll
 0001:0003d1dc       CoCreateInstance           1003e1dc f   ole32:ole32.dll
 0001:0003d1ec       CoInitializeEx             1003e1ec f   ole32:ole32.dll
 0001:0003d1fc       CoUninitialize             1003e1fc f   ole32:ole32.dll
 0001:0003d20c       VariantClear               1003e20c f   oleaut32:OLEAUT32.dll
 0001:0003d21c       SysAllocString             1003e21c f   oleaut32:OLEAUT32.dll
 0001:0003d22c       VariantInit                1003e22c f   oleaut32:OLEAUT32.dll
 0001:0003d23c       PathFindExtensionW         1003e23c f   shlwapi:shlwapi.dll
 0001:0003d24c       PathFindFileNameW          1003e24c f   shlwapi:shlwapi.dll
 0001:0003d25c       PathFileExistsW            1003e25c f   shlwapi:shlwapi.dll
 0001:0003d26c       PathRemoveExtensionW       1003e26c f   shlwapi:shlwapi.dll
 0001:0003d27c       PathRemoveArgsW            1003e27c f   shlwapi:shlwapi.dll
 0001:0003d28c       PathGetArgsW               1003e28c f   shlwapi:shlwapi.dll
 0001:0003d29c       PathIsDirectoryW           1003e29c f   shlwapi:shlwapi.dll
 0001:0003d2ac       PathAddBackslashW          1003e2ac f   shlwapi:shlwapi.dll
 0001:0003d2bc       PathRemoveFileSpecW        1003e2bc f   shlwapi:shlwapi.dll
 0001:0003d2cc       PathCompactPathW           1003e2cc f   shlwapi:shlwapi.dll
 0001:0003d2dc       PathRemoveBlanksW          1003e2dc f   shlwapi:shlwapi.dll
 0001:0003d2ec       PathIsUNCServerShareW      1003e2ec f   shlwapi:shlwapi.dll
 0001:0003d2fc       PathCombineW               1003e2fc f   shlwapi:shlwapi.dll
 0001:0003d30c       PathRemoveBackslashW       1003e30c f   shlwapi:shlwapi.dll
 0001:0003d31c       PathMatchSpecW             1003e31c f   shlwapi:shlwapi.dll
 0001:0003d32c       InitCommonControlsEx       1003e32c f   commctrl:commctrl.dll
 0001:0003d33c       CommandBar_AddAdornments   1003e33c f   commctrl:commctrl.dll
 0001:0003d34c       CommandBar_AddBitmap       1003e34c f   commctrl:commctrl.dll
 0001:0003d35c       CommandBar_InsertControl   1003e35c f   commctrl:commctrl.dll
 0001:0003d36c       CommandBar_Create          1003e36c f   commctrl:commctrl.dll
 0001:0003d37c       CommandBar_Height          1003e37c f   commctrl:commctrl.dll
 0001:0003d38c       PropertySheetW             1003e38c f   commctrl:commctrl.dll
 0001:0003d39c       ?ILFindLast@@YAPFAU_ITEMIDLIST@@PFBU1@@Z 1003e39c f   shcore:shcore.dll
 0001:0003d3ac       ?ILCopy@@YAPFAU_ITEMIDLIST@@PFBU1@I@Z 1003e3ac f   shcore:shcore.dll
 0001:0003d3bc       ?ILCount@@YAKPFBU_ITEMIDLIST@@@Z 1003e3bc f   shcore:shcore.dll
 0001:0003d3cc       PathRemoveTrailingSlashes  1003e3cc f   shcore:shcore.dll
 0001:0003d3dc       PathIsLink                 1003e3dc f   shcore:shcore.dll
 0001:0003d3ec       PathIsGUID                 1003e3ec f   shcore:shcore.dll
 0001:0003d3fc       ?ILConcatenate@@YAPFAU_ITEMIDLIST@@PFBU1@0@Z 1003e3fc f   shcore:shcore.dll
 0001:0003d40c       ?ILRemoveLast@@YAHPFAU_ITEMIDLIST@@@Z 1003e40c f   shcore:shcore.dll
 0001:0003d41c       PathRemoveQuotesAndArgs    1003e41c f   shcore:shcore.dll
 0001:0003d42c       PathMakeUniqueNameEx       1003e42c f   shcore:shcore.dll
 0001:0003d43c       PathIsValidPath            1003e43c f   shcore:shcore.dll
 0001:0003d44c       PathIsValidFileName        1003e44c f   shcore:shcore.dll
 0001:0003d45c       PathIsSameDevice           1003e45c f   shcore:shcore.dll
 0001:0003d46c       PathIsExtension            1003e46c f   shcore:shcore.dll
 0001:0003d47c       PathIsExe                  1003e47c f   shcore:shcore.dll
 0001:0003d48c       PathIsNandFlash            1003e48c f   shcore:shcore.dll
 0001:0003d49c       PathIsRemovableDevice      1003e49c f   shcore:shcore.dll
 0001:0003d4ac       PathFindRootDevice         1003e4ac f   shcore:shcore.dll
 0001:0003d4bc       PathIsLocal                1003e4bc f   shcore:shcore.dll
 0001:0003d4cc       PathIsImage                1003e4cc f   shcore:shcore.dll
 0001:0003d4dc       PathMakeUniqueName         1003e4dc f   shcore:shcore.dll
 0001:0003d4ec       ?ILSize@@YAIPFBU_ITEMIDLIST@@I@Z 1003e4ec f   shcore:shcore.dll
 0001:0003d4fc       ?InitializeAygUtils@@YAHXZ 1003e4fc f   aygutils:utils.obj
 0001:0003d520       ?UnInitializeAygUtils@@YAHXZ 1003e520 f   aygutils:utils.obj
 0001:0003d544       ?LoadAygshellLibrary@@YAHXZ 1003e544 f   aygutils:utils.obj
 0001:0003d5bc       ?FreeAygshellLibrary@@YAHXZ 1003e5bc f   aygutils:utils.obj
 0001:0003d62c       ?AygInitDialog@@YAHPAUHWND__@@K@Z 1003e62c f   aygutils:utils.obj
 0001:0003d6d0       ?AygInitExtraControls@@YAHXZ 1003e6d0 f   aygutils:utils.obj
 0001:0003d754       ?AygAddSipprefControl@@YAHPAUHWND__@@@Z 1003e754 f   aygutils:utils.obj
 0001:0003d7ec       ?AygDPI_ExtractIconEx@@YAJPBGHPAPAUHICON__@@1I1@Z 1003e7ec f   aygutils:utils.obj
 0001:0003d8b4       ?AygDPI_LoadLibraryResEx@@YAJPBGKPAPAUHINSTANCE__@@@Z 1003e8b4 f   aygutils:utils.obj
 0001:0003d93c       ?AygDrawFocusRectColor@@YAHPAUHDC__@@PBUtagRECT@@I@Z 1003e93c f   aygutils:utils.obj
 0001:0003d9cc       ?AygSHGetCEString@@YAJKQAG@Z 1003e9cc f   aygutils:utils.obj
 0001:0003da58       ?AygGetRegisteredAppInfo@@YAHPAGKPAUREGISTEREDAPPINFO@@@Z 1003ea58 f   aygutils:utils.obj
 0001:0003dadc       ?AygFreeRegisteredAppInfo@@YAHPAUREGISTEREDAPPINFO@@@Z 1003eadc f   aygutils:utils.obj
 0001:0003db50       ?AygPathIsRestricted@@YAHPBG@Z 1003eb50 f   aygutils:utils.obj
 0001:0003dbc4       ?AygPathIsRestrictedEx@@YAHPBGH@Z 1003ebc4 f   aygutils:utils.obj
 0001:0003dc40       ?AygSHCreateMenuBar@@YAHPAUtagSHMENUBARINFO@@@Z 1003ec40 f   aygutils:utils.obj
 0001:0003dcb4       ?AygSHIsFileOperationRestricted@@YAHPBG0@Z 1003ecb4 f   aygutils:utils.obj
 0001:0003dd30       ?AygSHIsFileOperationRestrictedEx@@YAHPBG0H@Z 1003ed30 f   aygutils:utils.obj
 0001:0003ddb4       ?AygSHIsRestrictedProcess@@YAHPBG@Z 1003edb4 f   aygutils:utils.obj
 0001:0003de28       ?AygSHSendBackToFocusWindow@@YAXIIJ@Z 1003ee28 f   aygutils:utils.obj
 0001:0003de94       ?AygSHStretchIcon@@YAJPAPAUHICON__@@HHPAH@Z 1003ee94 f   aygutils:utils.obj
 0001:0003df3c       ?AygSHUnpackDirID@@YAJPAGK0@Z 1003ef3c f   aygutils:utils.obj
 0001:0003e0c8       _DllMainCRTStartup         1003f0c8 f   corelib0:pegdmain.obj
 0001:0003e0f4       __GSHandlerCheckCommon     1003f0f4 f   corelib0:gshandler.obj
 0001:0003e130       __GSHandlerCheck           1003f130 f   corelib0:gshandler.obj
 0001:0003e150       __security_init_cookie     1003f150 f   corelib0:seccinit.obj
 0001:0003e19c       __security_check_cookie    1003f19c f   corelib0:armsecgs.obj
 0001:0003e1ac       __gsfailure                1003f1ac     corelib0:armsecgs.obj
 0001:0003e1f8       _onexit                    1003f1f8 f   corelib0:onexit.obj
 0001:0003e37c       atexit                     1003f37c f   corelib0:onexit.obj
 0001:0003e47c       _cexit                     1003f47c f   corelib0:cexit.obj
 0001:0003e48c       _initterm                  1003f48c f   corelib0:crt0dat.obj
 0001:0003e4b8       _cinit                     1003f4b8 f   corelib0:crt0dat.obj
 0001:0003e518       __crt_ExitProcess          1003f518 f   corelib0:exitproc_proxy.obj
 0001:0003e524       _wcsicmp                   1003f524 f   corelib1:COREDLL.dll
 0001:0003e534       ??2@YAPAXI@Z               1003f534 f   corelib1:COREDLL.dll
 0001:0003e544       mbstowcs                   1003f544 f   corelib1:COREDLL.dll
 0001:0003e554       memset                     1003f554 f   corelib1:COREDLL.dll
 0001:0003e564       ??3@YAXPAX@Z               1003f564 f   corelib1:COREDLL.dll
 0001:0003e574       wcscpy                     1003f574 f   corelib1:COREDLL.dll
 0001:0003e584       memcmp                     1003f584 f   corelib1:COREDLL.dll
 0001:0003e594       __C_specific_handler       1003f594 f   corelib1:COREDLL.dll
 0001:0003e5a4       memcpy                     1003f5a4 f   corelib1:COREDLL.dll
 0001:0003e5b4       _purecall                  1003f5b4 f   corelib1:COREDLL.dll
 0001:0003e5c4       wcscpy_s                   1003f5c4 f   corelib1:COREDLL.dll
 0001:0003e5d4       wcscmp                     1003f5d4 f   corelib1:COREDLL.dll
 0001:0003e5e4       wcslen                     1003f5e4 f   corelib1:COREDLL.dll
 0001:0003e5f4       strlen                     1003f5f4 f   corelib1:COREDLL.dll
 0001:0003e604       wcschr                     1003f604 f   corelib1:COREDLL.dll
 0001:0003e614       ??_U@YAPAXI@Z              1003f614 f   corelib1:COREDLL.dll
 0001:0003e624       ??_V@YAXPAX@Z              1003f624 f   corelib1:COREDLL.dll
 0001:0003e634       _wcsnicmp                  1003f634 f   corelib1:COREDLL.dll
 0001:0003e644       wcspbrk                    1003f644 f   corelib1:COREDLL.dll
 0001:0003e654       wcsrchr                    1003f654 f   corelib1:COREDLL.dll
 0001:0003e664       wcscat                     1003f664 f   corelib1:COREDLL.dll
 0001:0003e674       _wtol                      1003f674 f   corelib1:COREDLL.dll
 0001:0003e684       swprintf                   1003f684 f   corelib1:COREDLL.dll
 0001:0003e694       memmove                    1003f694 f   corelib1:COREDLL.dll
 0001:0003e6a4       wcsstr                     1003f6a4 f   corelib1:COREDLL.dll
 0001:0003e6b4       _wtoi                      1003f6b4 f   corelib1:COREDLL.dll
 0001:0003e6c4       wcsncpy                    1003f6c4 f   corelib1:COREDLL.dll
 0001:0003e6d4       wcsncmp                    1003f6d4 f   corelib1:COREDLL.dll
 0001:0003e6e4       wcsncpy_s                  1003f6e4 f   corelib1:COREDLL.dll
 0001:0003e6f4       fclose                     1003f6f4 f   corelib1:COREDLL.dll
 0001:0003e704       fseek                      1003f704 f   corelib1:COREDLL.dll
 0001:0003e714       fgetws                     1003f714 f   corelib1:COREDLL.dll
 0001:0003e724       ftell                      1003f724 f   corelib1:COREDLL.dll
 0001:0003e734       _fileno                    1003f734 f   corelib1:COREDLL.dll
 0001:0003e744       fputws                     1003f744 f   corelib1:COREDLL.dll
 0001:0003e754       fsetpos                    1003f754 f   corelib1:COREDLL.dll
 0001:0003e764       feof                       1003f764 f   corelib1:COREDLL.dll
 0001:0003e774       fgetpos                    1003f774 f   corelib1:COREDLL.dll
 0001:0003e784       _wfopen                    1003f784 f   corelib1:COREDLL.dll
 0001:0003e794       _ultow                     1003f794 f   corelib1:COREDLL.dll
 0001:0003e7a4       _XcptFilter                1003f7a4 f   corelib1:COREDLL.dll
 0001:0003e7b4       __security_gen_cookie2     1003f7b4 f   corelib1:COREDLL.dll
 0001:0003e7c4       __report_gsfailure         1003f7c4 f   corelib1:COREDLL.dll
 0001:0003e7d4       free                       1003f7d4 f   corelib1:COREDLL.dll
 0001:0003e7e4       malloc                     1003f7e4 f   corelib1:COREDLL.dll
 0001:0003e7f4       realloc                    1003f7f4 f   corelib1:COREDLL.dll
 0001:0003e804       _msize                     1003f804 f   corelib1:COREDLL.dll
 0001:0003e814       WaitForMultipleObjects     1003f814 f   coredll:COREDLL.dll
 0001:0003e824       DrawFocusRect              1003f824 f   coredll:COREDLL.dll
 0001:0003e834       InterlockedExchange        1003f834 f   coredll:COREDLL.dll
 0001:0003e844       TerminateProcess           1003f844 f   coredll:COREDLL.dll
 0001:0003e8f4       ??__Fcs@?1??get_lock@?$singleton@V?$free_list@$0GE@Vallocator@ce@@@ce@@$03V?$static_allocator@V?$free_list@$0GE@Vallocator@ce@@@ce@@$03@2@@ce@@KAAAVcritical_section@2@XZ@YAXXZ 1003f8f4 f i ceshapi:api.obj
 0001:0003ec08       __IMPORT_DESCRIPTOR_COREDLL 1003fc08     coredll:COREDLL.dll
 0001:0003ec1c       __IMPORT_DESCRIPTOR_ole32  1003fc1c     ole32:ole32.dll
 0001:0003ec30       __IMPORT_DESCRIPTOR_OLEAUT32 1003fc30     oleaut32:OLEAUT32.dll
 0001:0003ec44       __IMPORT_DESCRIPTOR_shlwapi 1003fc44     shlwapi:shlwapi.dll
 0001:0003ec58       __IMPORT_DESCRIPTOR_commctrl 1003fc58     commctrl:commctrl.dll
 0001:0003ec6c       __IMPORT_DESCRIPTOR_shcore 1003fc6c     shcore:shcore.dll
 0001:0003ec80       __NULL_IMPORT_DESCRIPTOR   1003fc80     coredll:COREDLL.dll
 0002:00000000       __imp_StringCchLengthW     10041000     coredll:COREDLL.dll
 0002:00000004       __imp___GetUserKData       10041004     coredll:COREDLL.dll
 0002:00000008       __imp_LoadLibraryExW       10041008     coredll:COREDLL.dll
 0002:0000000c       __imp_InitializeCriticalSection 1004100c     coredll:COREDLL.dll
 0002:00000010       __imp_DeleteCriticalSection 10041010     coredll:COREDLL.dll
 0002:00000014       __imp_FreeLibrary          10041014     coredll:COREDLL.dll
 0002:00000018       __imp_SHGetSpecialFolderPath 10041018     coredll:COREDLL.dll
 0002:0000001c       __imp_StringCchCopyW       1004101c     coredll:COREDLL.dll
 0002:00000020       __imp_GetFileAttributesW   10041020     coredll:COREDLL.dll
 0002:00000024       __imp_lstrcmpW             10041024     coredll:COREDLL.dll
 0002:00000028       __imp_GetProcAddressW      10041028     coredll:COREDLL.dll
 0002:0000002c       __imp_LoadLibraryW         1004102c     coredll:COREDLL.dll
 0002:00000030       __imp_GetLastError         10041030     coredll:COREDLL.dll
 0002:00000034       __imp_GetProcessVersion    10041034     coredll:COREDLL.dll
 0002:00000038       __imp_MessageBoxW          10041038     coredll:COREDLL.dll
 0002:0000003c       __imp_LoadStringW          1004103c     coredll:COREDLL.dll
 0002:00000040       __imp_WaitForAPIReady      10041040     coredll:COREDLL.dll
 0002:00000044       __imp_CloseHandle          10041044     coredll:COREDLL.dll
 0002:00000048       __imp_VirtualFree          10041048     coredll:COREDLL.dll
 0002:0000004c       __imp_CreateDIBPatternBrushPt 1004104c     coredll:COREDLL.dll
 0002:00000050       __imp_VirtualAlloc         10041050     coredll:COREDLL.dll
 0002:00000054       __imp_ReadFile             10041054     coredll:COREDLL.dll
 0002:00000058       __imp_GetFileSize          10041058     coredll:COREDLL.dll
 0002:0000005c       __imp_CreateFileW          1004105c     coredll:COREDLL.dll
 0002:00000060       __imp_SetLastError         10041060     coredll:COREDLL.dll
 0002:00000064       __imp_ImageList_GetIcon    10041064     coredll:COREDLL.dll
 0002:00000068       __imp_InterlockedCompareExchange 10041068     coredll:COREDLL.dll
 0002:0000006c       __imp_StringCbCatW         1004106c     coredll:COREDLL.dll
 0002:00000070       __imp_StringCbCatExW       10041070     coredll:COREDLL.dll
 0002:00000074       __imp_LeaveCriticalSection 10041074     coredll:COREDLL.dll
 0002:00000078       __imp_EnterCriticalSection 10041078     coredll:COREDLL.dll
 0002:0000007c       __imp_LocalFree            1004107c     coredll:COREDLL.dll
 0002:00000080       __imp_GetAsyncKeyState     10041080     coredll:COREDLL.dll
 0002:00000084       __imp_DefWindowProcW       10041084     coredll:COREDLL.dll
 0002:00000088       __imp_DestroyWindow        10041088     coredll:COREDLL.dll
 0002:0000008c       __imp_ReleaseCapture       1004108c     coredll:COREDLL.dll
 0002:00000090       __imp_KillTimer            10041090     coredll:COREDLL.dll
 0002:00000094       __imp_PostQuitMessage      10041094     coredll:COREDLL.dll
 0002:00000098       __imp_DispatchMessageW     10041098     coredll:COREDLL.dll
 0002:0000009c       __imp_PeekMessageW         1004109c     coredll:COREDLL.dll
 0002:000000a0       __imp_SetTimer             100410a0     coredll:COREDLL.dll
 0002:000000a4       __imp_ImageList_DragMove   100410a4     coredll:COREDLL.dll
 0002:000000a8       __imp_SendMessageW         100410a8     coredll:COREDLL.dll
 0002:000000ac       __imp_SetWindowLongW       100410ac     coredll:COREDLL.dll
 0002:000000b0       __imp_ImageList_DragEnter  100410b0     coredll:COREDLL.dll
 0002:000000b4       __imp_ImageList_DragLeave  100410b4     coredll:COREDLL.dll
 0002:000000b8       __imp_CallWindowProcW      100410b8     coredll:COREDLL.dll
 0002:000000bc       __imp_LocalAlloc           100410bc     coredll:COREDLL.dll
 0002:000000c0       __imp_GetParent            100410c0     coredll:COREDLL.dll
 0002:000000c4       __imp_WindowFromPoint      100410c4     coredll:COREDLL.dll
 0002:000000c8       __imp_IsWindow             100410c8     coredll:COREDLL.dll
 0002:000000cc       __imp_SetCapture           100410cc     coredll:COREDLL.dll
 0002:000000d0       __imp_CreateWindowExW      100410d0     coredll:COREDLL.dll
 0002:000000d4       __imp_RegisterClassW       100410d4     coredll:COREDLL.dll
 0002:000000d8       __imp_LoadCursorW          100410d8     coredll:COREDLL.dll
 0002:000000dc       __imp_GetClassInfoW        100410dc     coredll:COREDLL.dll
 0002:000000e0       __imp_EnableWindow         100410e0     coredll:COREDLL.dll
 0002:000000e4       __imp_GetDlgItem           100410e4     coredll:COREDLL.dll
 0002:000000e8       __imp_SetWindowTextW       100410e8     coredll:COREDLL.dll
 0002:000000ec       __imp_EndDialog            100410ec     coredll:COREDLL.dll
 0002:000000f0       __imp_CompareStringW       100410f0     coredll:COREDLL.dll
 0002:000000f4       __imp_GetWindowTextW       100410f4     coredll:COREDLL.dll
 0002:000000f8       __imp_GetDlgItemTextW      100410f8     coredll:COREDLL.dll
 0002:000000fc       __imp_GetWindowLongW       100410fc     coredll:COREDLL.dll
 0002:00000100       __imp_GetSystemMetrics     10041100     coredll:COREDLL.dll
 0002:00000104       __imp_SetWindowPos         10041104     coredll:COREDLL.dll
 0002:00000108       __imp_ShowWindow           10041108     coredll:COREDLL.dll
 0002:0000010c       __imp_MapWindowPoints      1004110c     coredll:COREDLL.dll
 0002:00000110       __imp_GetClientRect        10041110     coredll:COREDLL.dll
 0002:00000114       __imp_SetDlgItemTextW      10041114     coredll:COREDLL.dll
 0002:00000118       __imp_SetCursor            10041118     coredll:COREDLL.dll
 0002:0000011c       __imp_DialogBoxIndirectParamW 1004111c     coredll:COREDLL.dll
 0002:00000120       __imp_LoadResource         10041120     coredll:COREDLL.dll
 0002:00000124       __imp_FindResourceW        10041124     coredll:COREDLL.dll
 0002:00000128       __imp_StringCchCatExW      10041128     coredll:COREDLL.dll
 0002:0000012c       __imp_StringCchCatW        1004112c     coredll:COREDLL.dll
 0002:00000130       __imp_RegCloseKey          10041130     coredll:COREDLL.dll
 0002:00000134       __imp_RegQueryValueExW     10041134     coredll:COREDLL.dll
 0002:00000138       __imp_RegOpenKeyExW        10041138     coredll:COREDLL.dll
 0002:0000013c       __imp_MultiByteToWideChar  1004113c     coredll:COREDLL.dll
 0002:00000140       __imp_SetFilePointer       10041140     coredll:COREDLL.dll
 0002:00000144       __imp_SetEndOfFile         10041144     coredll:COREDLL.dll
 0002:00000148       __imp_WriteFile            10041148     coredll:COREDLL.dll
 0002:0000014c       __imp_WideCharToMultiByte  1004114c     coredll:COREDLL.dll
 0002:00000150       __imp_StringCchPrintfW     10041150     coredll:COREDLL.dll
 0002:00000154       __imp_CopyFileW            10041154     coredll:COREDLL.dll
 0002:00000158       __imp_EventModify          10041158     coredll:COREDLL.dll
 0002:0000015c       __imp_PostMessageW         1004115c     coredll:COREDLL.dll
 0002:00000160       __imp_WaitForSingleObject  10041160     coredll:COREDLL.dll
 0002:00000164       __imp_CreateEventW         10041164     coredll:COREDLL.dll
 0002:00000168       __imp_CreateThread         10041168     coredll:COREDLL.dll
 0002:0000016c       __imp_IsWindowVisible      1004116c     coredll:COREDLL.dll
 0002:00000170       __imp_GetTickCount         10041170     coredll:COREDLL.dll
 0002:00000174       __imp_StringCchPrintfExW   10041174     coredll:COREDLL.dll
 0002:00000178       __imp_FormatMessageW       10041178     coredll:COREDLL.dll
 0002:0000017c       __imp_CreateDirectoryW     1004117c     coredll:COREDLL.dll
 0002:00000180       __imp_DeleteFileW          10041180     coredll:COREDLL.dll
 0002:00000184       __imp_SetFileAttributesW   10041184     coredll:COREDLL.dll
 0002:00000188       __imp_StringCchCopyExW     10041188     coredll:COREDLL.dll
 0002:0000018c       __imp_CopyFileExW          1004118c     coredll:COREDLL.dll
 0002:00000190       __imp_RemoveDirectoryW     10041190     coredll:COREDLL.dll
 0002:00000194       __imp_MoveFileW            10041194     coredll:COREDLL.dll
 0002:00000198       __imp_FindClose            10041198     coredll:COREDLL.dll
 0002:0000019c       __imp_FindFirstFileW       1004119c     coredll:COREDLL.dll
 0002:000001a0       __imp_FindNextFileW        100411a0     coredll:COREDLL.dll
 0002:000001a4       __imp_GetMessageW          100411a4     coredll:COREDLL.dll
 0002:000001a8       __imp_TranslateMessage     100411a8     coredll:COREDLL.dll
 0002:000001ac       __imp_IsDialogMessageW     100411ac     coredll:COREDLL.dll
 0002:000001b0       __imp_CreateDialogIndirectParamW 100411b0     coredll:COREDLL.dll
 0002:000001b4       __imp_GetDiskFreeSpaceExW  100411b4     coredll:COREDLL.dll
 0002:000001b8       __imp_LoadImageW           100411b8     coredll:COREDLL.dll
 0002:000001bc       __imp_SystemParametersInfoW 100411bc     coredll:COREDLL.dll
 0002:000001c0       __imp_GetWindowRect        100411c0     coredll:COREDLL.dll
 0002:000001c4       __imp_ReleaseDC            100411c4     coredll:COREDLL.dll
 0002:000001c8       __imp_DrawTextW            100411c8     coredll:COREDLL.dll
 0002:000001cc       __imp_DrawIconEx           100411cc     coredll:COREDLL.dll
 0002:000001d0       __imp_Polyline             100411d0     coredll:COREDLL.dll
 0002:000001d4       __imp_GetStockObject       100411d4     coredll:COREDLL.dll
 0002:000001d8       __imp_SetBkMode            100411d8     coredll:COREDLL.dll
 0002:000001dc       __imp_SetTextColor         100411dc     coredll:COREDLL.dll
 0002:000001e0       __imp_GetSysColor          100411e0     coredll:COREDLL.dll
 0002:000001e4       __imp_SelectObject         100411e4     coredll:COREDLL.dll
 0002:000001e8       __imp_FillRect             100411e8     coredll:COREDLL.dll
 0002:000001ec       __imp_CopyRect             100411ec     coredll:COREDLL.dll
 0002:000001f0       __imp_GetDC                100411f0     coredll:COREDLL.dll
 0002:000001f4       __imp_CreateSolidBrush     100411f4     coredll:COREDLL.dll
 0002:000001f8       __imp_CreateFontIndirectW  100411f8     coredll:COREDLL.dll
 0002:000001fc       __imp_GetObjectW           100411fc     coredll:COREDLL.dll
 0002:00000200       __imp_DeleteObject         10041200     coredll:COREDLL.dll
 0002:00000204       __imp_DestroyIcon          10041204     coredll:COREDLL.dll
 0002:00000208       __imp_EndPaint             10041208     coredll:COREDLL.dll
 0002:0000020c       __imp_ExtTextOutW          1004120c     coredll:COREDLL.dll
 0002:00000210       __imp_BeginPaint           10041210     coredll:COREDLL.dll
 0002:00000214       __imp_RegEnumValueW        10041214     coredll:COREDLL.dll
 0002:00000218       __imp_DeleteDC             10041218     coredll:COREDLL.dll
 0002:0000021c       __imp_GetTextExtentExPointW 1004121c     coredll:COREDLL.dll
 0002:00000220       __imp_CreateCompatibleDC   10041220     coredll:COREDLL.dll
 0002:00000224       __imp_SetFocus             10041224     coredll:COREDLL.dll
 0002:00000228       __imp_StringCchCopyNW      10041228     coredll:COREDLL.dll
 0002:0000022c       __imp_CreateProcessW       1004122c     coredll:COREDLL.dll
 0002:00000230       __imp_UpdateWindow         10041230     coredll:COREDLL.dll
 0002:00000234       __imp_SendDlgItemMessageW  10041234     coredll:COREDLL.dll
 0002:00000238       __imp_RegSetValueExW       10041238     coredll:COREDLL.dll
 0002:0000023c       __imp_RegCreateKeyExW      1004123c     coredll:COREDLL.dll
 0002:00000240       __imp_EnableEUDC           10041240     coredll:COREDLL.dll
 0002:00000244       __imp_StringCbCopyNW       10041244     coredll:COREDLL.dll
 0002:00000248       __imp_RemoveFontResourceW  10041248     coredll:COREDLL.dll
 0002:0000024c       __imp_LocalReAlloc         1004124c     coredll:COREDLL.dll
 0002:00000250       __imp_LocalSize            10041250     coredll:COREDLL.dll
 0002:00000254       __imp_ExtractIconExW       10041254     coredll:COREDLL.dll
 0002:00000258       __imp_ImageList_Create     10041258     coredll:COREDLL.dll
 0002:0000025c       __imp_ImageList_SetOverlayImage 1004125c     coredll:COREDLL.dll
 0002:00000260       __imp_ImageList_ReplaceIcon 10041260     coredll:COREDLL.dll
 0002:00000264       __imp_ImageList_GetIconSize 10041264     coredll:COREDLL.dll
 0002:00000268       __imp_ImageList_Remove     10041268     coredll:COREDLL.dll
 0002:0000026c       __imp_GlobalMemoryStatus   1004126c     coredll:COREDLL.dll
 0002:00000270       __imp_GetFileAttributesExW 10041270     coredll:COREDLL.dll
 0002:00000274       __imp_ImageList_GetImageCount 10041274     coredll:COREDLL.dll
 0002:00000278       __imp_CharUpperBuffW       10041278     coredll:COREDLL.dll
 0002:0000027c       __imp_CompareFileTime      1004127c     coredll:COREDLL.dll
 0002:00000280       __imp_ImageList_Destroy    10041280     coredll:COREDLL.dll
 0002:00000284       __imp_GetDeviceCaps        10041284     coredll:COREDLL.dll
 0002:00000288       __imp_CeUnmountDBVol       10041288     coredll:COREDLL.dll
 0002:0000028c       __imp_CeOpenDatabaseEx     1004128c     coredll:COREDLL.dll
 0002:00000290       __imp_CeMountDBVol         10041290     coredll:COREDLL.dll
 0002:00000294       __imp_StringCbLengthW      10041294     coredll:COREDLL.dll
 0002:00000298       __imp_SetForegroundWindow  10041298     coredll:COREDLL.dll
 0002:0000029c       __imp_CeReadRecordProps    1004129c     coredll:COREDLL.dll
 0002:000002a0       __imp_CeSeekDatabase       100412a0     coredll:COREDLL.dll
 0002:000002a4       __imp_GetUserDefaultUILanguage 100412a4     coredll:COREDLL.dll
 0002:000002a8       __imp_SHLoadIndirectString 100412a8     coredll:COREDLL.dll
 0002:000002ac       __imp_wsprintfW            100412ac     coredll:COREDLL.dll
 0002:000002b0       __imp_GetNumberFormatW     100412b0     coredll:COREDLL.dll
 0002:000002b4       __imp_GetLocaleInfoW       100412b4     coredll:COREDLL.dll
 0002:000002b8       __imp_GetTimeFormatW       100412b8     coredll:COREDLL.dll
 0002:000002bc       __imp_GetDateFormatW       100412bc     coredll:COREDLL.dll
 0002:000002c0       __imp_FileTimeToSystemTime 100412c0     coredll:COREDLL.dll
 0002:000002c4       __imp_FileTimeToLocalFileTime 100412c4     coredll:COREDLL.dll
 0002:000002c8       __imp_StringCbPrintfW      100412c8     coredll:COREDLL.dll
 0002:000002cc       __imp_FindCloseChangeNotification 100412cc     coredll:COREDLL.dll
 0002:000002d0       __imp_FindFirstChangeNotificationW 100412d0     coredll:COREDLL.dll
 0002:000002d4       __imp_FindNextChangeNotification 100412d4     coredll:COREDLL.dll
 0002:000002d8       __imp_CeGetFileNotificationInfo 100412d8     coredll:COREDLL.dll
 0002:000002dc       __imp_InterlockedIncrement 100412dc     coredll:COREDLL.dll
 0002:000002e0       __imp_InterlockedDecrement 100412e0     coredll:COREDLL.dll
 0002:000002e4       __imp_CeOidGetInfo         100412e4     coredll:COREDLL.dll
 0002:000002e8       __imp_RegisterClipboardFormatW 100412e8     coredll:COREDLL.dll
 0002:000002ec       __imp_GetMenuItemInfoW     100412ec     coredll:COREDLL.dll
 0002:000002f0       __imp_MessageBeep          100412f0     coredll:COREDLL.dll
 0002:000002f4       __imp_DestroyMenu          100412f4     coredll:COREDLL.dll
 0002:000002f8       __imp_TrackPopupMenuEx     100412f8     coredll:COREDLL.dll
 0002:000002fc       __imp_SetMenuItemInfoW     100412fc     coredll:COREDLL.dll
 0002:00000300       __imp_GetSubMenu           10041300     coredll:COREDLL.dll
 0002:00000304       __imp_ShellExecuteEx       10041304     coredll:COREDLL.dll
 0002:00000308       __imp_CheckMenuItem        10041308     coredll:COREDLL.dll
 0002:0000030c       __imp_EnableMenuItem       1004130c     coredll:COREDLL.dll
 0002:00000310       __imp_LoadMenuW            10041310     coredll:COREDLL.dll
 0002:00000314       __imp_AppendMenuW          10041314     coredll:COREDLL.dll
 0002:00000318       __imp_InsertMenuW          10041318     coredll:COREDLL.dll
 0002:0000031c       __imp_InvalidateRect       1004131c     coredll:COREDLL.dll
 0002:00000320       __imp_RemoveMenu           10041320     coredll:COREDLL.dll
 0002:00000324       __imp_CreateMenu           10041324     coredll:COREDLL.dll
 0002:00000328       __imp_TranslateAcceleratorW 10041328     coredll:COREDLL.dll
 0002:0000032c       __imp_GetKeyState          1004132c     coredll:COREDLL.dll
 0002:00000330       __imp_GetMessagePos        10041330     coredll:COREDLL.dll
 0002:00000334       __imp_SizeofResource       10041334     coredll:COREDLL.dll
 0002:00000338       __imp_LoadAcceleratorsW    10041338     coredll:COREDLL.dll
 0002:0000033c       __imp_SystemTimeToFileTime 1004133c     coredll:COREDLL.dll
 0002:00000340       __imp_UnmapViewOfFile      10041340     coredll:COREDLL.dll
 0002:00000344       __imp_MapViewOfFile        10041344     coredll:COREDLL.dll
 0002:00000348       __imp_CreateFileMappingW   10041348     coredll:COREDLL.dll
 0002:0000034c       __imp_BitBlt               1004134c     coredll:COREDLL.dll
 0002:00000350       __imp_PatBlt               10041350     coredll:COREDLL.dll
 0002:00000354       __imp_CreatePatternBrush   10041354     coredll:COREDLL.dll
 0002:00000358       __imp_SetBrushOrgEx        10041358     coredll:COREDLL.dll
 0002:0000035c       __imp_CreateCompatibleBitmap 1004135c     coredll:COREDLL.dll
 0002:00000360       __imp_CreateDCW            10041360     coredll:COREDLL.dll
 0002:00000364       __imp_CharUpperW           10041364     coredll:COREDLL.dll
 0002:00000368       __imp_GetSysColorBrush     10041368     coredll:COREDLL.dll
 0002:0000036c       __imp_ExcludeClipRect      1004136c     coredll:COREDLL.dll
 0002:00000370       __imp_SelectClipRgn        10041370     coredll:COREDLL.dll
 0002:00000374       __imp_CreateRectRgnIndirect 10041374     coredll:COREDLL.dll
 0002:00000378       __imp_OffsetRect           10041378     coredll:COREDLL.dll
 0002:0000037c       __imp_SetRect              1004137c     coredll:COREDLL.dll
 0002:00000380       __imp_SetBkColor           10041380     coredll:COREDLL.dll
 0002:00000384       __imp_FindWindowW          10041384     coredll:COREDLL.dll
 0002:00000388       __imp_SHLoadDIBitmap       10041388     coredll:COREDLL.dll
 0002:0000038c       __imp_MoveWindow           1004138c     coredll:COREDLL.dll
 0002:00000390       __imp_UnregisterClassW     10041390     coredll:COREDLL.dll
 0002:00000394       __imp_GetActiveWindow      10041394     coredll:COREDLL.dll
 0002:00000398       __imp_EmptyClipboard       10041398     coredll:COREDLL.dll
 0002:0000039c       __imp_CloseClipboard       1004139c     coredll:COREDLL.dll
 0002:000003a0       __imp_GetWindowThreadProcessId 100413a0     coredll:COREDLL.dll
 0002:000003a4       __imp_GetClipboardData     100413a4     coredll:COREDLL.dll
 0002:000003a8       __imp_OpenClipboard        100413a8     coredll:COREDLL.dll
 0002:000003ac       __imp_SetClipboardData     100413ac     coredll:COREDLL.dll
 0002:000003b0       __imp_EnumClipboardFormats 100413b0     coredll:COREDLL.dll
 0002:000003b4       __imp_GetClipboardDataAlloc 100413b4     coredll:COREDLL.dll
 0002:000003b8       __imp_RegEnumKeyExW        100413b8     coredll:COREDLL.dll
 0002:000003bc       __imp_RegQueryInfoKeyW     100413bc     coredll:COREDLL.dll
 0002:000003c0       __imp_ImageList_BeginDrag  100413c0     coredll:COREDLL.dll
 0002:000003c4       __imp_ScreenToClient       100413c4     coredll:COREDLL.dll
 0002:000003c8       __imp_ImageList_EndDrag    100413c8     coredll:COREDLL.dll
 0002:000003cc       __imp_ImageList_SetDragCursorImage 100413cc     coredll:COREDLL.dll
 0002:000003d0       __imp_GetCursorPos         100413d0     coredll:COREDLL.dll
 0002:000003d4       __imp_GetScrollInfo        100413d4     coredll:COREDLL.dll
 0002:000003d8       __imp_PtInRect             100413d8     coredll:COREDLL.dll
 0002:000003dc       __imp_InflateRect          100413dc     coredll:COREDLL.dll
 0002:000003e0       __imp_ImageList_DragShowNolock 100413e0     coredll:COREDLL.dll
 0002:000003e4       __imp_GetExitCodeThread    100413e4     coredll:COREDLL.dll
 0002:000003e8       __imp_CreateDIBSection     100413e8     coredll:COREDLL.dll
 0002:000003ec       __imp_ImageList_Draw       100413ec     coredll:COREDLL.dll
 0002:000003f0       __imp_AlphaBlend           100413f0     coredll:COREDLL.dll
 0002:000003f4       __imp_RegisterWindowMessageW 100413f4     coredll:COREDLL.dll
 0002:000003f8       __imp_StringCchCopyNExW    100413f8     coredll:COREDLL.dll
 0002:000003fc       __imp_LoadIconW            100413fc     coredll:COREDLL.dll
 0002:00000400       __imp_CeDeleteDatabaseEx   10041400     coredll:COREDLL.dll
 0002:00000404       __imp_Sleep                10041404     coredll:COREDLL.dll
 0002:00000408       __imp_CeReadRecordPropsEx  10041408     coredll:COREDLL.dll
 0002:0000040c       __imp_CeSeekDatabaseEx     1004140c     coredll:COREDLL.dll
 0002:00000410       __imp_Random               10041410     coredll:COREDLL.dll
 0002:00000414       __imp_CeCreateDatabaseEx2  10041414     coredll:COREDLL.dll
 0002:00000418       __imp_CeOpenDatabaseEx2    10041418     coredll:COREDLL.dll
 0002:0000041c       __imp_CeDeleteRecord       1004141c     coredll:COREDLL.dll
 0002:00000420       __imp_GetSystemMemoryDivision 10041420     coredll:COREDLL.dll
 0002:00000424       __imp_CeFlushDBVol         10041424     coredll:COREDLL.dll
 0002:00000428       __imp_CeWriteRecordProps   10041428     coredll:COREDLL.dll
 0002:0000042c       __imp_LocalFileTimeToFileTime 1004142c     coredll:COREDLL.dll
 0002:00000430       __imp_GetLocalTime         10041430     coredll:COREDLL.dll
 0002:00000434       __imp_InterlockedExchange  10041434     coredll:COREDLL.dll
 0002:00000438       __imp_DrawFocusRect        10041438     coredll:COREDLL.dll
 0002:0000043c       __imp_WaitForMultipleObjects 1004143c     coredll:COREDLL.dll
 0002:00000440       __imp__msize               10041440     corelib1:COREDLL.dll
 0002:00000444       __imp_realloc              10041444     corelib1:COREDLL.dll
 0002:00000448       __imp_malloc               10041448     corelib1:COREDLL.dll
 0002:0000044c       __imp_free                 1004144c     corelib1:COREDLL.dll
 0002:00000450       __imp___report_gsfailure   10041450     corelib1:COREDLL.dll
 0002:00000454       __imp___security_gen_cookie2 10041454     corelib1:COREDLL.dll
 0002:00000458       __imp__XcptFilter          10041458     corelib1:COREDLL.dll
 0002:0000045c       __imp__ultow               1004145c     corelib1:COREDLL.dll
 0002:00000460       __imp__wfopen              10041460     corelib1:COREDLL.dll
 0002:00000464       __imp_fgetpos              10041464     corelib1:COREDLL.dll
 0002:00000468       __imp_feof                 10041468     corelib1:COREDLL.dll
 0002:0000046c       __imp_fsetpos              1004146c     corelib1:COREDLL.dll
 0002:00000470       __imp_fputws               10041470     corelib1:COREDLL.dll
 0002:00000474       __imp__fileno              10041474     corelib1:COREDLL.dll
 0002:00000478       __imp_ftell                10041478     corelib1:COREDLL.dll
 0002:0000047c       __imp_fgetws               1004147c     corelib1:COREDLL.dll
 0002:00000480       __imp_fseek                10041480     corelib1:COREDLL.dll
 0002:00000484       __imp_fclose               10041484     corelib1:COREDLL.dll
 0002:00000488       __imp___rt_udiv            10041488     corelib1:COREDLL.dll
 0002:0000048c       __imp___rt_sdiv            1004148c     corelib1:COREDLL.dll
 0002:00000490       __imp_wcsncpy_s            10041490     corelib1:COREDLL.dll
 0002:00000494       __imp_wcsncmp              10041494     corelib1:COREDLL.dll
 0002:00000498       __imp_wcsncpy              10041498     corelib1:COREDLL.dll
 0002:0000049c       __imp__wtoi                1004149c     corelib1:COREDLL.dll
 0002:000004a0       __imp_wcsstr               100414a0     corelib1:COREDLL.dll
 0002:000004a4       __imp_memmove              100414a4     corelib1:COREDLL.dll
 0002:000004a8       __imp_swprintf             100414a8     corelib1:COREDLL.dll
 0002:000004ac       __imp__wtol                100414ac     corelib1:COREDLL.dll
 0002:000004b0       __imp_wcscat               100414b0     corelib1:COREDLL.dll
 0002:000004b4       __imp_wcsrchr              100414b4     corelib1:COREDLL.dll
 0002:000004b8       __imp_wcspbrk              100414b8     corelib1:COREDLL.dll
 0002:000004bc       __imp__wcsnicmp            100414bc     corelib1:COREDLL.dll
 0002:000004c0       __imp___rt_udiv64by64      100414c0     corelib1:COREDLL.dll
 0002:000004c4       __imp_??_V@YAXPAX@Z        100414c4     corelib1:COREDLL.dll
 0002:000004c8       __imp_??_U@YAPAXI@Z        100414c8     corelib1:COREDLL.dll
 0002:000004cc       __imp_wcschr               100414cc     corelib1:COREDLL.dll
 0002:000004d0       __imp_strlen               100414d0     corelib1:COREDLL.dll
 0002:000004d4       __imp_wcslen               100414d4     corelib1:COREDLL.dll
 0002:000004d8       __imp_wcscmp               100414d8     corelib1:COREDLL.dll
 0002:000004dc       __imp_wcscpy_s             100414dc     corelib1:COREDLL.dll
 0002:000004e0       __imp__purecall            100414e0     corelib1:COREDLL.dll
 0002:000004e4       __imp_memcpy               100414e4     corelib1:COREDLL.dll
 0002:000004e8       __imp___C_specific_handler 100414e8     corelib1:COREDLL.dll
 0002:000004ec       __imp_memcmp               100414ec     corelib1:COREDLL.dll
 0002:000004f0       __imp_wcscpy               100414f0     corelib1:COREDLL.dll
 0002:000004f4       __imp_??3@YAXPAX@Z         100414f4     corelib1:COREDLL.dll
 0002:000004f8       __imp_memset               100414f8     corelib1:COREDLL.dll
 0002:000004fc       __imp_mbstowcs             100414fc     corelib1:COREDLL.dll
 0002:00000500       __imp_??2@YAPAXI@Z         10041500     corelib1:COREDLL.dll
 0002:00000504       __imp__wcsicmp             10041504     corelib1:COREDLL.dll
 0002:00000508       __imp_TerminateProcess     10041508     coredll:COREDLL.dll
 0002:0000050c       \177COREDLL_NULL_THUNK_DATA 1004150c     coredll:COREDLL.dll
 0002:00000510       __imp_SysAllocString       10041510     oleaut32:OLEAUT32.dll
 0002:00000514       __imp_VariantInit          10041514     oleaut32:OLEAUT32.dll
 0002:00000518       __imp_VariantClear         10041518     oleaut32:OLEAUT32.dll
 0002:0000051c       \177OLEAUT32_NULL_THUNK_DATA 1004151c     oleaut32:OLEAUT32.dll
 0002:00000520       __imp_InitCommonControlsEx 10041520     commctrl:commctrl.dll
 0002:00000524       __imp_CommandBar_AddAdornments 10041524     commctrl:commctrl.dll
 0002:00000528       __imp_CommandBar_AddBitmap 10041528     commctrl:commctrl.dll
 0002:0000052c       __imp_CommandBar_InsertControl 1004152c     commctrl:commctrl.dll
 0002:00000530       __imp_CommandBar_Create    10041530     commctrl:commctrl.dll
 0002:00000534       __imp_CommandBar_Height    10041534     commctrl:commctrl.dll
 0002:00000538       __imp_PropertySheetW       10041538     commctrl:commctrl.dll
 0002:0000053c       \177commctrl_NULL_THUNK_DATA 1004153c     commctrl:commctrl.dll
 0002:00000540       __imp_CoInitializeEx       10041540     ole32:ole32.dll
 0002:00000544       __imp_CoCreateInstance     10041544     ole32:ole32.dll
 0002:00000548       __imp_CoGetClassObject     10041548     ole32:ole32.dll
 0002:0000054c       __imp_CLSIDFromString      1004154c     ole32:ole32.dll
 0002:00000550       __imp_StringFromCLSID      10041550     ole32:ole32.dll
 0002:00000554       __imp_CoTaskMemFree        10041554     ole32:ole32.dll
 0002:00000558       __imp_CoUninitialize       10041558     ole32:ole32.dll
 0002:0000055c       \177ole32_NULL_THUNK_DATA  1004155c     ole32:ole32.dll
 0002:00000560       __imp_?ILCopy@@YAPFAU_ITEMIDLIST@@PFBU1@I@Z 10041560     shcore:shcore.dll
 0002:00000564       __imp_?ILFindLast@@YAPFAU_ITEMIDLIST@@PFBU1@@Z 10041564     shcore:shcore.dll
 0002:00000568       __imp_PathIsValidPath      10041568     shcore:shcore.dll
 0002:0000056c       __imp_PathIsValidFileName  1004156c     shcore:shcore.dll
 0002:00000570       __imp_PathIsSameDevice     10041570     shcore:shcore.dll
 0002:00000574       __imp_?ILCount@@YAKPFBU_ITEMIDLIST@@@Z 10041574     shcore:shcore.dll
 0002:00000578       __imp_PathIsExe            10041578     shcore:shcore.dll
 0002:0000057c       __imp_PathIsNandFlash      1004157c     shcore:shcore.dll
 0002:00000580       __imp_PathIsRemovableDevice 10041580     shcore:shcore.dll
 0002:00000584       __imp_PathRemoveTrailingSlashes 10041584     shcore:shcore.dll
 0002:00000588       __imp_PathIsLink           10041588     shcore:shcore.dll
 0002:0000058c       __imp_PathIsGUID           1004158c     shcore:shcore.dll
 0002:00000590       __imp_?ILConcatenate@@YAPFAU_ITEMIDLIST@@PFBU1@0@Z 10041590     shcore:shcore.dll
 0002:00000594       __imp_?ILRemoveLast@@YAHPFAU_ITEMIDLIST@@@Z 10041594     shcore:shcore.dll
 0002:00000598       __imp_PathFindRootDevice   10041598     shcore:shcore.dll
 0002:0000059c       __imp_PathRemoveQuotesAndArgs 1004159c     shcore:shcore.dll
 0002:000005a0       __imp_PathIsExtension      100415a0     shcore:shcore.dll
 0002:000005a4       __imp_PathMakeUniqueNameEx 100415a4     shcore:shcore.dll
 0002:000005a8       __imp_PathIsLocal          100415a8     shcore:shcore.dll
 0002:000005ac       __imp_PathIsImage          100415ac     shcore:shcore.dll
 0002:000005b0       __imp_PathMakeUniqueName   100415b0     shcore:shcore.dll
 0002:000005b4       __imp_?ILSize@@YAIPFBU_ITEMIDLIST@@I@Z 100415b4     shcore:shcore.dll
 0002:000005b8       \177shcore_NULL_THUNK_DATA 100415b8     shcore:shcore.dll
 0002:000005bc       __imp_PathFileExistsW      100415bc     shlwapi:shlwapi.dll
 0002:000005c0       __imp_PathFindFileNameW    100415c0     shlwapi:shlwapi.dll
 0002:000005c4       __imp_PathFindExtensionW   100415c4     shlwapi:shlwapi.dll
 0002:000005c8       __imp_PathRemoveExtensionW 100415c8     shlwapi:shlwapi.dll
 0002:000005cc       __imp_PathRemoveArgsW      100415cc     shlwapi:shlwapi.dll
 0002:000005d0       __imp_PathGetArgsW         100415d0     shlwapi:shlwapi.dll
 0002:000005d4       __imp_PathIsDirectoryW     100415d4     shlwapi:shlwapi.dll
 0002:000005d8       __imp_PathAddBackslashW    100415d8     shlwapi:shlwapi.dll
 0002:000005dc       __imp_PathRemoveFileSpecW  100415dc     shlwapi:shlwapi.dll
 0002:000005e0       __imp_PathCompactPathW     100415e0     shlwapi:shlwapi.dll
 0002:000005e4       __imp_PathIsUNCServerShareW 100415e4     shlwapi:shlwapi.dll
 0002:000005e8       __imp_PathCombineW         100415e8     shlwapi:shlwapi.dll
 0002:000005ec       __imp_PathRemoveBackslashW 100415ec     shlwapi:shlwapi.dll
 0002:000005f0       __imp_PathMatchSpecW       100415f0     shlwapi:shlwapi.dll
 0002:000005f4       __imp_PathRemoveBlanksW    100415f4     shlwapi:shlwapi.dll
 0002:000005f8       \177shlwapi_NULL_THUNK_DATA 100415f8     shlwapi:shlwapi.dll
 0002:00000600       ?g_hLanguageDB@@3PAXA      10041600     ceshui:ceshell.obj
 0002:00000620       ?dpCurSettings@@3U_DBGPARAM@@A 10041620     ceshui:ceshell.obj
 0002:00000a64       ?dwRecycleBinSize@UserSettings@@1KA 10041a64     ceshui:usersettings.obj
 0002:00000a68       ?fShowOverlayMask@UserSettings@@1HA 10041a68     ceshui:usersettings.obj
 0002:00000a6c       ?fUseCompatibleBackgroundImage@UserSettings@@1HA 10041a6c     ceshui:usersettings.obj
 0002:00000a70       ?fUseDragDrop@UserSettings@@1HA 10041a70     ceshui:usersettings.obj
 0002:00000b2c       ?s_CurrentUndoStr@CDefShellView@@1IA 10041b2c     ceshui:defshellview.obj
 0002:00000b48       ?m_cPopulateItemInterval@CShellListView@@1HA 10041b48     ceshui:shelllistview.obj
 0002:00000b4c       ?s_fUseLongFileDate@ShellFormat@@1HA 10041b4c     ceshuistd:uiplatform.obj
 0002:00000b50       ?m_fFlushVolume@CRecycleBin@@0HA 10041b50     ceshrecbin:recbin.obj
 0002:00000b54       __security_cookie          10041b54     corelib0:seccinit.obj
 0002:00000b58       __security_cookie_complement 10041b58     corelib0:seccinit.obj
 0002:00000b60       ??_B?1??get_lock@?$singleton@V?$free_list@$0GE@Vallocator@ce@@@ce@@$03V?$static_allocator@V?$free_list@$0GE@Vallocator@ce@@@ce@@$03@2@@ce@@KAAAVcritical_section@2@XZ@51 10041b60     ceshapi:api.obj
 0002:00000b64       ?cs@?1??get_lock@?$singleton@V?$free_list@$0GE@Vallocator@ce@@@ce@@$03V?$static_allocator@V?$free_list@$0GE@Vallocator@ce@@@ce@@$03@2@@ce@@KAAAVcritical_section@3@XZ@4V43@A 10041b64     ceshapi:api.obj
 0002:00000b78       ?_factory@?$singleton@V?$free_list@$0GE@Vallocator@ce@@@ce@@$03V?$static_allocator@V?$free_list@$0GE@Vallocator@ce@@@ce@@$03@2@@ce@@1Ulock_factory@12@A 10041b78     ceshapi:api.obj
 0002:00000b7c       ?hwndCurrent@@3PAUHWND__@@A 10041b7c     ceshapi:drag.obj
 0002:00000b80       ?lpfnCurrent@@3P6AJPAUHWND__@@IIJ@ZA 10041b80     ceshapi:drag.obj
 0002:00000b84       ?g_pDropTargetList@@3PAVCDropTargetList@@A 10041b84     ceshapi:drag.obj
 0002:00000b88       ?s_TTRefCount@FileOpenDlg_t@@1KA 10041b88     ceshapi:fileopen.obj
 0002:00000b8c       ?s_pwszTooltips@FileOpenDlg_t@@1PAPAGA 10041b8c     ceshapi:fileopen.obj
 0002:00000b9c       ?pIconCache@CIconCache@@2PAV1@A 10041b9c     ceshapi:iconcache.obj
 0002:00000ba0       ?g_cs@@3UCRITICAL_SECTION@@A 10041ba0     ceshui:ceshell.obj
 0002:00000bb4       ?g_guidNameLangVol@@3U_CEGUID@@A 10041bb4     ceshui:ceshell.obj
 0002:00000bc4       g_HIDPI_LogPixelsY         10041bc4     ceshui:ceshell.obj
 0002:00000bc8       g_HIDPI_LogPixelsX         10041bc8     ceshui:ceshell.obj
 0002:00000bcc       ?HINST_THISDLL@@3PAUHINSTANCE__@@A 10041bcc     ceshui:ceshell.obj
 0002:00000bd0       ?_HINST_CESHELL@@3PAUHINSTANCE__@@A 10041bd0     ceshui:ceshell.obj
 0002:00000bd4       ?_HINST_CESHELLDPI@@3PAUHINSTANCE__@@A 10041bd4     ceshui:ceshell.obj
 0002:00000bd8       ?g_pShellMalloc@@3PAUIMalloc@@A 10041bd8     ceshui:ceshell.obj
 0002:00000bdc       ?g_pFileChangeManager@@3PAVFileChangeManager@@A 10041bdc     ceshui:ceshell.obj
 0002:00000be0       ?g_pUndo@@3PAVCShellUndo@@A 10041be0     ceshui:ceshell.obj
 0002:00000be4       ?g_pRecBin@@3PAVIShellRecycleBin@@A 10041be4     ceshui:ceshell.obj
 0002:00000be8       ?g_dwRefCount@@3KA         10041be8     ceshui:ceshell.obj
 0002:00000bec       ?g_fCEShellInitialized@@3HA 10041bec     ceshui:ceshell.obj
 0002:00000bf0       ?ImageTypeCache@CEItemIDList@@3VImageTypeCache_t@1@A 10041bf0     ceshui:idlist.obj
 0002:00000c48       ?NameSpaceCache@CEItemIDList@@3VNameSpaceCache_t@1@A 10041c48     ceshui:idlist.obj
 0002:00000c98       ?szBackgoundImageLocation@UserSettings@@1PAGA 10041c98     ceshui:usersettings.obj
 0002:00000ea0       ?fShowFileName@UserSettings@@1HA 10041ea0     ceshui:usersettings.obj
 0002:00000ea4       ?fShowExtensions@UserSettings@@1HA 10041ea4     ceshui:usersettings.obj
 0002:00000ea8       ?fShowHiddenFiles@UserSettings@@1HA 10041ea8     ceshui:usersettings.obj
 0002:00000eac       ?fShowFileSize@UserSettings@@1HA 10041eac     ceshui:usersettings.obj
 0002:00000eb0       ?fShowDateModified@UserSettings@@1HA 10041eb0     ceshui:usersettings.obj
 0002:00000eb4       ?fShowFileType@UserSettings@@1HA 10041eb4     ceshui:usersettings.obj
 0002:00000eb8       ?fShowSystemFiles@UserSettings@@1HA 10041eb8     ceshui:usersettings.obj
 0002:00000ebc       ?fTileBackgroundImage@UserSettings@@1HA 10041ebc     ceshui:usersettings.obj
 0002:00000ec0       ?fUse2ndClipboard@UserSettings@@1HA 10041ec0     ceshui:usersettings.obj
 0002:00000ec4       ?hFolderOptionsDlg@UserSettings@@1PAUHWND__@@A 10041ec4     ceshui:usersettings.obj
 0002:00000ec8       ?fUseRecycleBin@UserSettings@@1HA 10041ec8     ceshui:usersettings.obj
 0002:00000ecc       ?FolderCache@@3VFolderCache_t@@A 10041ecc     ceshui:folderutils.obj
 0002:00000f00       ?hRecBinPropDlg@Properties@ShellDialogs@@1PAUHWND__@@A 10041f00     ceshui:shelldialogs.obj
 0002:00000f04       ?m_psfDrivesDirectory@CDrivesFolder@@2PAUIShellFolder@@A 10041f04     ceshui:drivesfolder.obj
 0002:00000f08       ?m_pSpecTbl@CStartFolder@@1PAVCSpecTbl@1@A 10041f08     ceshui:startfolder.obj
 0002:00000f0c       ?s_TTRefCount@CDefShellView@@1KA 10041f0c     ceshui:defshellview.obj
 0002:00000f10       ?s_pszTooltips@CDefShellView@@1PAPAGA 10041f10     ceshui:defshellview.obj
 0002:00000f28       ?s_FSRefCount@CDefShellView@@1KA 10041f28     ceshui:defshellview.obj
 0002:00000f2c       ?s_pszDRootName@CDefShellView@@1PAGA 10041f2c     ceshui:defshellview.obj
 0002:00000f30       ?s_hDRootIcon@CDefShellView@@1PAUHICON__@@A 10041f30     ceshui:defshellview.obj
 0002:00000f34       ?s_pFileMenuData@CDefShellView@@1PAUtagINSMENUDATA@@A 10041f34     ceshui:defshellview.obj
 0002:00000f38       ?s_pEditMenuData@CDefShellView@@1PAUtagINSMENUDATA@@A 10041f38     ceshui:defshellview.obj
 0002:00000f3c       ?s_pViewMenuData@CDefShellView@@1PAUtagINSMENUDATA@@A 10041f3c     ceshui:defshellview.obj
 0002:00000f40       ?s_pGoMenuData@CDefShellView@@1PAUtagINSMENUDATA@@A 10041f40     ceshui:defshellview.obj
 0002:00000f44       ?s_cFileMenuData@CDefShellView@@1HA 10041f44     ceshui:defshellview.obj
 0002:00000f48       ?s_cEditMenuData@CDefShellView@@1HA 10041f48     ceshui:defshellview.obj
 0002:00000f4c       ?s_cViewMenuData@CDefShellView@@1HA 10041f4c     ceshui:defshellview.obj
 0002:00000f50       ?s_cGoMenuData@CDefShellView@@1HA 10041f50     ceshui:defshellview.obj
 0002:00000f54       ?s_pMenuOffset@CDefShellView@@1PAUtagMENUOFFSET@@A 10041f54     ceshui:defshellview.obj
 0002:00000f58       ?m_uFormat@CShellClipboard@@1IA 10041f58     ceshui:datatrans.obj
 0002:00000f5c       ?m_pDragData@CShellListView@@1PAUDragData@1@A 10041f5c     ceshui:shelllistview.obj
 0002:00000f60       ?s_pImagingFactory@CThumbnailCache@@1PAUIImagingFactory@@A 10041f60     ceshui:thumbnailcache.obj
 0002:00000f68       ?m_cs@CRecycleBin@@0UCRITICAL_SECTION@@A 10041f68     ceshrecbin:recbin.obj
 0002:00000f7c       ?m_pidlBitBucket@CRecycleBin@@0PFAU_ITEMIDLIST@@FA 10041f7c     ceshrecbin:recbin.obj
 0002:00000f80       ?m_fcsInit@CRecycleBin@@0HA 10041f80     ceshrecbin:recbin.obj
 0002:00000f84       ?m_fMounted@CRecycleBin@@0HA 10041f84     ceshrecbin:recbin.obj
 0002:00000f88       ?m_hDB@CRecycleBin@@0PAXA  10041f88     ceshrecbin:recbin.obj
 0002:00000f8c       ?m_oid@CRecycleBin@@0KA    10041f8c     ceshrecbin:recbin.obj
 0002:00000f90       ?m_guid@CRecycleBin@@0U_CEGUID@@A 10041f90     ceshrecbin:recbin.obj
 0002:00000fa0       ?m_dwPercentage@CRecycleBin@@0IA 10041fa0     ceshrecbin:recbin.obj
 0002:00000fa4       ?m_pscnDesktop@CRecycleBin@@0PAUIShellChangeNotify@@A 10041fa4     ceshrecbin:recbin.obj
 0002:00000fa8       ?m_szBitBucketPath@CRecycleBin@@2PAGA 10041fa8     ceshrecbin:recbin.obj
 0002:000011b0       ?m_szCSIDLProfile@CRecycleBin@@0PAGA 100421b0     ceshrecbin:recbin.obj
 0002:000013b8       ?m_szFindFile@CRecycleBin@@0PAGA 100423b8     ceshrecbin:recbin.obj
 0002:000015c0       ?m_iNotObjectStore@CRecycleBin@@2IA 100425c0     ceshrecbin:recbin.obj
 0002:000015c4       ?g_csAygshell@@3UCRITICAL_SECTION@@A 100425c4     aygutils:utils.obj
 0002:000015d8       ?g_hInstAygshell@@3PAUHINSTANCE__@@A 100425d8     aygutils:utils.obj
 0002:000015dc       ?g_bCalledSHInitExtraControls@@3HA 100425dc     aygutils:utils.obj
 0002:000015e0       ?g_bLoadedAygshellLibrary@@3HA 100425e0     aygutils:utils.obj
 0002:000015e4       ?g_iAygshellRefCount@@3HA  100425e4     aygutils:utils.obj
 0002:000015e8       ?g_bInitialized@@3HA       100425e8     aygutils:utils.obj
 0002:00001630       _exitflag                  10042630     corelib0:cexit.obj
 0002:00001634       __onexitend                10042634     <common>
 0002:00001638       __onexitbegin              10042638     <common>
 0002:0000163c       g_pcsExit                  1004263c     <common>
 0002:00001640       _pRawDllMain               10042640     <common>

 entry point at        0001:0003e0c8

 Static symbols

 0001:0003dfd8       _DllMainCRTStartupHelper   1003efd8 f   corelib0:pegdmain.obj
 0001:0003e394       doexit                     1003f394 f   corelib0:cexit.obj
 0001:0003e854       ??__E?_factory@?$singleton@V?$free_list@$0GE@Vallocator@ce@@@ce@@$03V?$static_allocator@V?$free_list@$0GE@Vallocator@ce@@@ce@@$03@2@@ce@@1Ulock_factory@12@A@@YAXXZ 1003f854 f   ceshapi:api.obj
 0001:0003e858       ??__EdpCurSettings@@YAXXZ  1003f858 f   ceshui:ceshell.obj
 0001:0003e878       ??__ENameSpaceCache@CEItemIDList@@YAXXZ 1003f878 f   ceshui:idlist.obj
 0001:0003e898       ??__EImageTypeCache@CEItemIDList@@YAXXZ 1003f898 f   ceshui:idlist.obj
 0001:0003e8b8       ??__E?fUseRecycleBin@UserSettings@@1HA@@YAXXZ 1003f8b8 f   ceshui:usersettings.obj
 0001:0003e8d4       ??__EFolderCache@@YAXXZ    1003f8d4 f   ceshui:folderutils.obj
 0001:0003e900       ??__FNameSpaceCache@CEItemIDList@@YAXXZ 1003f900 f   ceshui:idlist.obj
 0001:0003e90c       ??__FImageTypeCache@CEItemIDList@@YAXXZ 1003f90c f   ceshui:idlist.obj
 0001:0003e918       ??__FFolderCache@@YAXXZ    1003f918 f   ceshui:folderutils.obj
