 commctrl

 Timestamp is 618b152d (Tue Nov 09 17:41:17 2021)

 Preferred load address is 10000000

 Start         Length     Name                   Class
 0001:00000000 00000004H .CRT$XCA                CODE
 0001:00000004 00000008H .CRT$XCU                CODE
 0001:0000000c 00000004H .CRT$XCZ                CODE
 0001:00000010 00000004H .CRT$XIA                CODE
 0001:00000014 00000004H .CRT$XIZ                CODE
 0001:00000018 00000004H .CRT$XPA                CODE
 0001:0000001c 00000004H .CRT$XPZ                CODE
 0001:00000020 00000004H .CRT$XTA                CODE
 0001:00000024 00000004H .CRT$XTZ                CODE
 0001:00000030 00001008H .rdata                  CODE
 0001:00001038 00000025H .rdata$debug            CODE
 0001:00001060 0005ecccH .text                   CODE
 0001:0005fd2c 00000008H .text$yc                CODE
 0001:0005fd34 00000018H .text$yd                CODE
 0001:0005fd4c 000001d4H .xdata                  CODE
 0001:0005ff20 00000014H .idata$2                CODE
 0001:0005ff34 00000014H .idata$3                CODE
 0001:0005ff48 00000558H .idata$4                CODE
 0001:000604a0 0000000cH .idata$6                CODE
 0001:000604b0 0000080eH .edata                  CODE
 0002:00000000 00000558H .idata$5                DATA
 0002:00000558 00000024H .data                   DATA
 0002:00000580 00000560H .bss                    DATA
 0003:00000000 000029b8H .pdata                  DATA
 0004:00000000 00000160H .rsrc$01                DATA
 0004:00000160 000002a8H .rsrc$02                DATA

  Address         Publics by Value              Rva+Base       Lib:Object

 0000:00000000       ___safe_se_handler_count   00000000     <absolute>
 0000:00000000       ___safe_se_handler_table   00000000     <absolute>
 0001:00000000       __xc_a                     10001000     corelib0:crt0init.obj
 0001:0000000c       __xc_z                     1000100c     corelib0:crt0init.obj
 0001:00000010       __xi_a                     10001010     corelib0:crt0init.obj
 0001:00000014       __xi_z                     10001014     corelib0:crt0init.obj
 0001:00000018       __xp_a                     10001018     corelib0:crt0init.obj
 0001:0000001c       __xp_z                     1000101c     corelib0:crt0init.obj
 0001:00000020       __xt_a                     10001020     corelib0:crt0init.obj
 0001:00000024       __xt_z                     10001024     corelib0:crt0init.obj
 0001:00000064       ??_7CLink@@6B@             10001064     commctrl_ALL:link.obj
 0001:00000098       _GUID_4440306e_d79a_48d0_88e6_a42692279bfb 10001098     commctrl_ALL:link.obj
 0001:000000a8       _GUID_d6d2fbae_f116_458c_8c34_03569877a2d2 100010a8     commctrl_ALL:link.obj
 0001:000000b8       ?pfnListView_DrawItem@@3QBQ6AHPAULVDRAWITEM@@@ZB 100010b8     commctrl_ALL:listview.obj
 0001:000000c8       ?pfnListView_ApproximateViewRect@@3QBQ6AKPAU_LV@@HHH@ZB 100010c8     commctrl_ALL:listview.obj
 0001:000000d8       ?pfnListView_UpdateScrollBars@@3QBQ6AXPAU_LV@@@ZB 100010d8     commctrl_ALL:listview.obj
 0001:000000e8       ?pfnListView_ItemHitTest@@3QBQ6AHPAU_LV@@HHPAI@ZB 100010e8     commctrl_ALL:listview.obj
 0001:000000f8       ?pfnListView_OnScroll@@3QBQ6AXPAU_LV@@IHI@ZB 100010f8     commctrl_ALL:listview.obj
 0001:00000108       ?pfnListView_Scroll2@@3QBQ6AXPAU_LV@@HHI@ZB 10001108     commctrl_ALL:listview.obj
 0001:00000118       ?pfnListView_GetScrollUnitsPerLine@@3QBQ6AHPAU_LV@@I@ZB 10001118     commctrl_ALL:listview.obj
 0001:00000128       ?pfnListView_RecomputeEx@@3QBQ6AHPAU_LV@@PAU_DPA@@HH@ZB 10001128     commctrl_ALL:listview.obj
 0001:00000138       ??_C@_1DA@OJJBJDBF@?$AAU?$AAs?$AAe?$AAL?$AAo?$AAn?$AAg?$AAD?$AAe?$AAl?$AAa?$AAy?$AAF?$AAo?$AAr?$AAG?$AAe?$AAs?$AAt?$AAu?$AAr?$AAe?$AAs?$AA?$AA@ 10001138     commctrl_ALL:listview.obj
 0001:00000168       ??_C@_1CI@NHPOBCKF@?$AAS?$AAY?$AAS?$AAT?$AAE?$AAM?$AA?2?$AAG?$AAW?$AAE?$AA?2?$AAC?$AAo?$AAm?$AAm?$AAc?$AAt?$AAr?$AAl?$AA?$AA@ 10001168     commctrl_ALL:listview.obj
 0001:00000190       ??_C@_13COJANIEC@?$AA0?$AA?$AA@ 10001190     commctrl_ALL:listview.obj
 0001:000001d4       ??_C@_1CC@KPOKNCMJ@?$AAt?$AAo?$AAo?$AAl?$AAt?$AAi?$AAp?$AAs?$AA_?$AAc?$AAl?$AAa?$AAs?$AAs?$AA3?$AA2?$AA?$AA@ 100011d4     commctrl_ALL:listview.obj
 0001:000001f8       ??_C@_11LOCGONAA@?$AA?$AA@ 100011f8     commctrl_ALL:cmdbar.obj
 0001:000001fc       ??_C@_1CA@BPIDFFJM@?$AAT?$AAo?$AAo?$AAl?$AAb?$AAa?$AAr?$AAW?$AAi?$AAn?$AAd?$AAo?$AAw?$AA3?$AA2?$AA?$AA@ 100011fc     commctrl_ALL:cmdbar.obj
 0001:0000021c       ??_C@_1BM@IAMNGHGL@?$AAR?$AAe?$AAB?$AAa?$AAr?$AAW?$AAi?$AAn?$AAd?$AAo?$AAw?$AA3?$AA2?$AA?$AA@ 1000121c     commctrl_ALL:cmdbar.obj
 0001:00000238       ??_C@_1BC@DIEHAPBP@?$AAc?$AAo?$AAm?$AAb?$AAo?$AAb?$AAo?$AAx?$AA?$AA@ 10001238     commctrl_ALL:cmdbar.obj
 0001:0000024c       ??_C@_19IBCFILMC@?$AAM?$AAe?$AAn?$AAu?$AA?$AA@ 1000124c     commctrl_ALL:cmdbar.obj
 0001:00000258       ??_C@_1BI@EFNHDFLI@?$AAA?$AAT?$AAL?$AA?3?$AAL?$AAI?$AAS?$AAT?$AAB?$AAO?$AAX?$AA?$AA@ 10001258     commctrl_ALL:
 0001:00000270       ??_C@_1BI@LNCCCIJH@?$AAW?$AAC?$AAE?$AA_?$AAL?$AAI?$AAS?$AAT?$AAB?$AAO?$AAX?$AA?$AA@ 10001270     commctrl_ALL:
 0001:00000288       ??_C@_1BC@PNHNAJML@?$AAA?$AAT?$AAL?$AA?3?$AAE?$AAD?$AAI?$AAT?$AA?$AA@ 10001288     commctrl_ALL:
 0001:0000029c       ??_C@_1BC@NINLMLOF@?$AAW?$AAC?$AAE?$AA_?$AAE?$AAD?$AAI?$AAT?$AA?$AA@ 1000129c     commctrl_ALL:
 0001:000002b0       ??_C@_1BA@ENEDHJIL@?$AAC?$AAA?$AAP?$AAE?$AAD?$AAI?$AAT?$AA?$AA@ 100012b0     commctrl_ALL:
 0001:000002f4       ??_C@_1O@BKDPMMJJ@?$AA0?$AAx?$AA?$CF?$AA0?$AA4?$AAX?$AA?$AA@ 100012f4     commctrl_ALL:
 0001:00000304       ??_C@_1O@GNPNAMOC@?$AA0?$AAx?$AA?$CF?$AA0?$AA8?$AAX?$AA?$AA@ 10001304     commctrl_ALL:
 0001:00000314       ??_C@_15EFLNJKHH@?$AA?$CF?$AAu?$AA?$AA@ 10001314     commctrl_ALL:
 0001:0000031c       ??_C@_17EDCBBOLI@?$AAA?$AAV?$AAI?$AA?$AA@ 1000131c     commctrl_ALL:animate.obj
 0001:00000324       ??_C@_1BK@JHCNDHNB@?$AAS?$AAy?$AAs?$AAA?$AAn?$AAi?$AAm?$AAa?$AAt?$AAe?$AA3?$AA2?$AA?$AA@ 10001324     commctrl_ALL:animate.obj
 0001:00000340       ??_C@_1BC@KEOJOCDI@?$AAf?$AAC?$AAa?$AAp?$AAE?$AAd?$AAi?$AAt?$AA?$AA@ 10001340     commctrl_ALL:gcontrol.obj
 0001:00000358       ??_C@_1EE@LBEIBKHD@?$AAS?$AAo?$AAf?$AAt?$AAw?$AAa?$AAr?$AAe?$AA?2?$AAM?$AAi?$AAc?$AAr?$AAo?$AAs?$AAo?$AAf?$AAt?$AA?2?$AAS?$AAh?$AAe?$AAl?$AAl?$AA?2?$AAC?$AAo?$AAn?$AAt?$AAr?$AAo?$AAl@ 10001358     commctrl_ALL:gcontrol.obj
 0001:0000039c       ??_C@_19LELMJPKF@?$AAe?$AAd?$AAi?$AAt?$AA?$AA@ 1000139c     commctrl_ALL:gcontrol.obj
 0001:000003a8       ??_C@_1BM@EEMMBLEB@?$AAI?$AAn?$AAi?$AAt?$AAL?$AAi?$AAn?$AAk?$AAC?$AAl?$AAa?$AAs?$AAs?$AA?$AA@ 100013a8     commctrl_ALL:commctrl.obj
 0001:000003c4       ??_C@_1CG@JDDPKHGL@?$AAI?$AAn?$AAi?$AAt?$AAL?$AAa?$AAb?$AAe?$AAl?$AAE?$AAd?$AAi?$AAt?$AAC?$AAl?$AAa?$AAs?$AAs?$AA?$AA@ 100013c4     commctrl_ALL:commctrl.obj
 0001:000003ec       ??_C@_1CG@KGGDAILC@?$AAI?$AAn?$AAi?$AAt?$AAB?$AAo?$AAx?$AAS?$AAe?$AAl?$AAe?$AAc?$AAt?$AAC?$AAl?$AAa?$AAs?$AAs?$AA?$AA@ 100013ec     commctrl_ALL:commctrl.obj
 0001:00000414       ??_C@_1BG@HBDGHHJE@?$AAI?$AAn?$AAi?$AAt?$AAS?$AAB?$AAE?$AAd?$AAi?$AAt?$AA?$AA@ 10001414     commctrl_ALL:commctrl.obj
 0001:0000042c       ??_C@_1BK@JLGBLJFD@?$AAI?$AAn?$AAi?$AAt?$AAT?$AAT?$AAB?$AAu?$AAt?$AAt?$AAo?$AAn?$AA?$AA@ 1000142c     commctrl_ALL:commctrl.obj
 0001:00000448       ??_C@_1BK@BOMNFJEK@?$AAI?$AAn?$AAi?$AAt?$AAT?$AAT?$AAS?$AAt?$AAa?$AAt?$AAi?$AAc?$AA?$AA@ 10001448     commctrl_ALL:commctrl.obj
 0001:00000464       ??_C@_1BI@GAGLKDIP@?$AAI?$AAn?$AAi?$AAt?$AAC?$AAa?$AAp?$AAE?$AAd?$AAi?$AAt?$AA?$AA@ 10001464     commctrl_ALL:commctrl.obj
 0001:0000047c       ??_C@_1CA@MBCGPMLF@?$AAI?$AAn?$AAi?$AAt?$AAD?$AAa?$AAt?$AAe?$AAC?$AAl?$AAa?$AAs?$AAs?$AAe?$AAs?$AA?$AA@ 1000147c     commctrl_ALL:commctrl.obj
 0001:0000049c       ??_C@_1CC@COIFEDMP@?$AAI?$AAn?$AAi?$AAt?$AAA?$AAn?$AAi?$AAm?$AAa?$AAt?$AAe?$AAC?$AAl?$AAa?$AAs?$AAs?$AA?$AA@ 1000149c     commctrl_ALL:commctrl.obj
 0001:000004c0       ??_C@_1CE@DCNGNOM@?$AAI?$AAn?$AAi?$AAt?$AAP?$AAr?$AAo?$AAg?$AAr?$AAe?$AAs?$AAs?$AAC?$AAl?$AAa?$AAs?$AAs?$AA?$AA@ 100014c0     commctrl_ALL:commctrl.obj
 0001:000004e4       ??_C@_1CA@GEPBHDJE@?$AAI?$AAn?$AAi?$AAt?$AAU?$AAp?$AAD?$AAo?$AAw?$AAn?$AAC?$AAl?$AAa?$AAs?$AAs?$AA?$AA@ 100014e4     commctrl_ALL:commctrl.obj
 0001:00000504       ??_C@_1BK@DICNLHBN@?$AAI?$AAn?$AAi?$AAt?$AAT?$AAr?$AAa?$AAc?$AAk?$AAB?$AAa?$AAr?$AA?$AA@ 10001504     commctrl_ALL:commctrl.obj
 0001:00000520       ??_C@_1BA@PCGCICKF@?$AAT?$AAV?$AA_?$AAI?$AAn?$AAi?$AAt?$AA?$AA@ 10001520     commctrl_ALL:commctrl.obj
 0001:00000530       ??_C@_1BC@NPHPKOJJ@?$AAT?$AAa?$AAb?$AA_?$AAI?$AAn?$AAi?$AAt?$AA?$AA@ 10001530     commctrl_ALL:commctrl.obj
 0001:00000544       ??_C@_1BI@GNCJHEKD@?$AAH?$AAe?$AAa?$AAd?$AAe?$AAr?$AA_?$AAI?$AAn?$AAi?$AAt?$AA?$AA@ 10001544     commctrl_ALL:commctrl.obj
 0001:0000055c       ??_C@_1BM@IKDAIGE@?$AAL?$AAi?$AAs?$AAt?$AAV?$AAi?$AAe?$AAw?$AA_?$AAI?$AAn?$AAi?$AAt?$AA?$AA@ 1000155c     commctrl_ALL:commctrl.obj
 0001:00000578       ??_C@_1CA@DMIHHEPC@?$AAI?$AAn?$AAi?$AAt?$AAS?$AAt?$AAa?$AAt?$AAu?$AAs?$AAC?$AAl?$AAa?$AAs?$AAs?$AA?$AA@ 10001578     commctrl_ALL:commctrl.obj
 0001:00000598       ??_C@_1CE@BMNNFEHD@?$AAI?$AAn?$AAi?$AAt?$AAT?$AAo?$AAo?$AAl?$AAT?$AAi?$AAp?$AAs?$AAC?$AAl?$AAa?$AAs?$AAs?$AA?$AA@ 10001598     commctrl_ALL:commctrl.obj
 0001:000005bc       ??_C@_1BO@IJOONAIH@?$AAI?$AAn?$AAi?$AAt?$AAR?$AAe?$AAB?$AAa?$AAr?$AAC?$AAl?$AAa?$AAs?$AAs?$AA?$AA@ 100015bc     commctrl_ALL:commctrl.obj
 0001:000005dc       ??_C@_1CC@KKGKIEFJ@?$AAI?$AAn?$AAi?$AAt?$AAT?$AAo?$AAo?$AAl?$AAb?$AAa?$AAr?$AAC?$AAl?$AAa?$AAs?$AAs?$AA?$AA@ 100015dc     commctrl_ALL:commctrl.obj
 0001:000006a0       g_rgchMCName               100016a0     commctrl_ALL:monthcal.obj
 0001:000006bc       g_rgchDTPName              100016bc     commctrl_ALL:monthcal.obj
 0001:000006f8       ??_C@_19JPCMAAHP@?$AAy?$AAy?$AAy?$AAy?$AA?$AA@ 100016f8     commctrl_ALL:monthcal.obj
 0001:00000704       ??_C@_1BI@IHOPDDGN@?$AAW?$AAe?$AAe?$AAk?$AAN?$AAu?$AAm?$AAb?$AAe?$AAr?$AAs?$AA?$AA@ 10001704     commctrl_ALL:monthcal.obj
 0001:0000071c       ??_C@_1DE@LFEOLJHF@?$AAS?$AAy?$AAs?$AAt?$AAe?$AAm?$AA?2?$AAM?$AAi?$AAc?$AAr?$AAo?$AAs?$AAo?$AAf?$AAt?$AA?2?$AAC?$AAa?$AAl?$AAe?$AAn?$AAd?$AAa?$AAr?$AA?$AA@ 1000171c     commctrl_ALL:monthcal.obj
 0001:00000750       ??_C@_1M@MOFLFCEC@?$AA?$CF?$AAs?$AA?5?$AA?$CF?$AAs?$AA?$AA@ 10001750     commctrl_ALL:monthcal.obj
 0001:0000075c       ??_C@_19FBKLJMA@?$AA0?$AA0?$AA0?$AA0?$AA?$AA@ 1000175c     commctrl_ALL:monthcal.obj
 0001:00000768       ??_C@_15KNBIKKIN@?$AA?$CF?$AAd?$AA?$AA@ 10001768     commctrl_ALL:monthcal.obj
 0001:00000770       ??_C@_15GJBMHDEE@?$AAd?$AAd?$AA?$AA@ 10001770     commctrl_ALL:monthcal.obj
 0001:00000778       ??_C@_1O@BJFFPPHH@?$AA?$CF?$AA?$CF?$AA0?$AA?$CF?$AAd?$AAd?$AA?$AA@ 10001778     commctrl_ALL:monthcal.obj
 0001:00000788       ??_C@_1CA@LJGANONB@?$AAm?$AAs?$AAc?$AAt?$AAl?$AAs?$AA_?$AAu?$AAp?$AAd?$AAo?$AAw?$AAn?$AA3?$AA2?$AA?$AA@ 10001788     commctrl_ALL:monthcal.obj
 0001:000007a8       ??_C@_19KFAJFECL@?$AAE?$AAD?$AAI?$AAT?$AA?$AA@ 100017a8     commctrl_ALL:monthcal.obj
 0001:000007b4       ??_C@_19BPBBFFPH@?$AAM?$AAM?$AAM?$AAM?$AA?$AA@ 100017b4     commctrl_ALL:monthcal.obj
 0001:000007c0       ??_C@_1CE@JBBPKOBF@?$AAS?$AAy?$AAs?$AAD?$AAa?$AAt?$AAe?$AAT?$AAi?$AAm?$AAe?$AAP?$AAi?$AAc?$AAk?$AA3?$AA2?$AA?$AA@ 100017c0     commctrl_ALL:monthcal.obj
 0001:000007e4       ??_C@_1O@NEOKOKBN@?$AAs?$AAb?$AAe?$AAd?$AAi?$AAt?$AA?$AA@ 100017e4     commctrl_ALL:sbedit.obj
 0001:000007f4       ??_C@_1O@KPNLMGP@?$AAb?$AAu?$AAt?$AAt?$AAo?$AAn?$AA?$AA@ 100017f4     commctrl_ALL:btnctl.obj
 0001:00000804       ??_C@_1BC@PLFDBNNG@?$AAT?$AAT?$AAB?$AAU?$AAT?$AAT?$AAO?$AAN?$AA?$AA@ 10001804     commctrl_ALL:btnctl.obj
 0001:00000818       ??_C@_1O@IPFBFMHG@?$AAs?$AAt?$AAa?$AAt?$AAi?$AAc?$AA?$AA@ 10001818     commctrl_ALL:statctl.obj
 0001:00000828       ??_C@_1BC@HOPPPNMP@?$AAT?$AAT?$AAS?$AAT?$AAA?$AAT?$AAI?$AAC?$AA?$AA@ 10001828     commctrl_ALL:statctl.obj
 0001:0000083c       ?c_szToolTips@ToolTipsMgr_t@@1QBGB 1000183c     commctrl_ALL:tooltips.obj
 0001:00000878       ??_C@_1BA@LMBBEFG@?$AAR?$AAi?$AAc?$AAh?$AAI?$AAn?$AAk?$AA?$AA@ 10001878     commctrl_ALL:prsht.obj
 0001:00000888       ??_C@_1BI@EPKGCBCD@?$AAr?$AAi?$AAc?$AAh?$AAi?$AAn?$AAk?$AA?4?$AAd?$AAl?$AAl?$AA?$AA@ 10001888     commctrl_ALL:prsht.obj
 0001:000008bc       ??_C@_1DC@ODLLCLL@?$AAS?$AAo?$AAf?$AAt?$AAw?$AAa?$AAr?$AAe?$AA?2?$AAM?$AAi?$AAc?$AAr?$AAo?$AAs?$AAo?$AAf?$AAt?$AA?2?$AAC?$AAo?$AAl?$AAo?$AAr?$AA?$AA@ 100018bc     commctrl_ALL:shutil.obj
 0001:000008f0       ??_C@_1BA@FIPEHLGK@?$AAS?$AAH?$AAC?$AAo?$AAl?$AAo?$AAr?$AA?$AA@ 100018f0     commctrl_ALL:shutil.obj
 0001:00000900       ??_C@_1CC@MBEGPNOA@?$AAS?$AAH?$AAS?$AAy?$AAs?$AAC?$AAo?$AAl?$AAo?$AAr?$AA_?$AAM?$AAu?$AAt?$AAe?$AAx?$AA?$AA@ 10001900     commctrl_ALL:shutil.obj
 0001:00000924       ??_C@_1CE@CPKEHBPJ@?$AAS?$AAH?$AAS?$AAy?$AAs?$AAC?$AAo?$AAl?$AAo?$AAr?$AA_?$AAM?$AAe?$AAm?$AAM?$AAa?$AAp?$AA?$AA@ 10001924     commctrl_ALL:shutil.obj
 0001:00000948       ??_C@_1BC@OKCMIBNP@?$AAS?$AAH?$AAM?$AAe?$AAt?$AAr?$AAi?$AAc?$AA?$AA@ 10001948     commctrl_ALL:shutil.obj
 0001:0000095c       ??_C@_1DE@JALHFJFK@?$AAS?$AAo?$AAf?$AAt?$AAw?$AAa?$AAr?$AAe?$AA?2?$AAM?$AAi?$AAc?$AAr?$AAo?$AAs?$AAo?$AAf?$AAt?$AA?2?$AAM?$AAe?$AAt?$AAr?$AAi?$AAc?$AA?$AA@ 1000195c     commctrl_ALL:shutil.obj
 0001:00000990       ??_C@_1CE@OEDHLPKF@?$AAS?$AAH?$AAS?$AAy?$AAs?$AAM?$AAe?$AAt?$AAr?$AAi?$AAc?$AA_?$AAM?$AAu?$AAt?$AAe?$AAx?$AA?$AA@ 10001990     commctrl_ALL:shutil.obj
 0001:000009b4       ??_C@_1CG@DKHIMPHE@?$AAS?$AAH?$AAS?$AAy?$AAs?$AAM?$AAe?$AAt?$AAr?$AAi?$AAc?$AA_?$AAM?$AAe?$AAm?$AAM?$AAa?$AAp?$AA?$AA@ 100019b4     commctrl_ALL:shutil.obj
 0001:000009dc       ??_C@_1CC@HCKBPHP@?$AAS?$AAH?$AAM?$AAi?$AAr?$AAr?$AAo?$AAr?$AAG?$AAr?$AAa?$AAd?$AAi?$AAe?$AAn?$AAt?$AA?$AA@ 100019dc     commctrl_ALL:shutil.obj
 0001:00000a00       ??_C@_1BO@ONBCMHFO@?$AAL?$AAo?$AAg?$AAi?$AAc?$AAa?$AAl?$AAP?$AAi?$AAx?$AAe?$AAl?$AAs?$AAY?$AA?$AA@ 10001a00     commctrl_ALL:cutils.obj
 0001:00000a20       ??_C@_1CG@NPAKAMEF@?$AAS?$AAY?$AAS?$AAT?$AAE?$AAM?$AA?2?$AAG?$AAW?$AAE?$AA?2?$AAD?$AAi?$AAs?$AAp?$AAl?$AAa?$AAy?$AA?$AA@ 10001a20     commctrl_ALL:cutils.obj
 0001:00000a48       ??_C@_1BO@FFKOKADL@?$AAL?$AAo?$AAg?$AAi?$AAc?$AAa?$AAl?$AAP?$AAi?$AAx?$AAe?$AAl?$AAs?$AAX?$AA?$AA@ 10001a48     commctrl_ALL:cutils.obj
 0001:00000a68       ??_C@_19FKHPFJKK@?$AAC?$AAE?$AAU?$AAX?$AA?$AA@ 10001a68     commctrl_ALL:cutils.obj
 0001:00000a74       ??_C@_1BK@CCALBDFD@?$AAH?$AAI?$AA_?$AAR?$AAE?$AAS?$AA_?$AAA?$AAW?$AAA?$AAR?$AAE?$AA?$AA@ 10001a74     commctrl_ALL:cutils.obj
 0001:00000a90       ??_C@_1O@KODDBGPN@?$AAC?$AAY?$AAD?$AAr?$AAa?$AAg?$AA?$AA@ 10001a90     commctrl_ALL:cutils.obj
 0001:00000aa0       ??_C@_1O@DFJGFKJC@?$AAC?$AAX?$AAD?$AAr?$AAa?$AAg?$AA?$AA@ 10001aa0     commctrl_ALL:cutils.obj
 0001:00000ab0       ??_C@_1EA@CJGLIMIH@?$AAS?$AAY?$AAS?$AAT?$AAE?$AAM?$AA?2?$AAG?$AAW?$AAE?$AA?2?$AAC?$AAo?$AAm?$AAm?$AAc?$AAt?$AAr?$AAl?$AA?2?$AAD?$AAr?$AAa?$AAg?$AAM?$AAe?$AAt?$AAr?$AAi?$AAc?$AAs?$AA?$AA@ 10001ab0     commctrl_ALL:cutils.obj
 0001:00000af0       c_szNULL                   10001af0     commctrl_ALL:cstrings.obj
 0001:00000af4       c_szSpace                  10001af4     commctrl_ALL:cstrings.obj
 0001:00000af8       c_szTabControlClass        10001af8     commctrl_ALL:cstrings.obj
 0001:00000b18       c_szListViewClass          10001b18     commctrl_ALL:cstrings.obj
 0001:00000b34       c_szHeaderClass            10001b34     commctrl_ALL:cstrings.obj
 0001:00000b4c       c_szTreeViewClass          10001b4c     commctrl_ALL:cstrings.obj
 0001:00000b68       c_szStatusClass            10001b68     commctrl_ALL:cstrings.obj
 0001:00000b90       c_szSToolTipsClass         10001b90     commctrl_ALL:cstrings.obj
 0001:00000bb4       c_szToolbarClass           10001bb4     commctrl_ALL:cstrings.obj
 0001:00000bd4       c_szReBarClass             10001bd4     commctrl_ALL:cstrings.obj
 0001:00000bf0       c_szEllipses               10001bf0     commctrl_ALL:cstrings.obj
 0001:00000bf8       c_szShell                  10001bf8     commctrl_ALL:cstrings.obj
 0001:00000c04       c_szEdit                   10001c04     commctrl_ALL:cstrings.obj
 0001:00000c10       c_szListbox                10001c10     commctrl_ALL:cstrings.obj
 0001:00000c20       c_szSelect                 10001c20     commctrl_ALL:cstrings.obj
 0001:00000c34       s_szUpdownClass            10001c34     commctrl_ALL:cstrings.obj
 0001:00000c54       s_szSTrackBarClass         10001c54     commctrl_ALL:cstrings.obj
 0001:00000c78       s_szPROGRESS_CLASS         10001c78     commctrl_ALL:cstrings.obj
 0001:00000c9c       c_szCC32Subclass           10001c9c     commctrl_ALL:cstrings.obj
 0001:00000cc0       c_szBoxSelectClass         10001cc0     commctrl_ALL:cstrings.obj
 0001:00000cd4       c_szLabelEditClass         10001cd4     commctrl_ALL:cstrings.obj
 0001:00000ce8       c_szLinkClass              10001ce8     commctrl_ALL:cstrings.obj
 0001:00000cf8       ??_C@_1CG@JIGANMHK@?$AA?2?$AAw?$AAi?$AAn?$AAd?$AAo?$AAw?$AAs?$AA?2?$AAs?$AAt?$AAd?$AAs?$AAm?$AA?4?$AAb?$AAm?$AAp?$AA?$AA@ 10001cf8     commctrl_ALL:toolbarview.obj
 0001:00000d20       ??_C@_1CG@DMBAJNGJ@?$AA?2?$AAw?$AAi?$AAn?$AAd?$AAo?$AAw?$AAs?$AA?2?$AAs?$AAt?$AAd?$AAs?$AAm?$AA?4?$AA2?$AAb?$AAp?$AA?$AA@ 10001d20     commctrl_ALL:toolbarview.obj
 0001:00000d48       ??_C@_1CI@BPMNHPHK@?$AA?2?$AAw?$AAi?$AAn?$AAd?$AAo?$AAw?$AAs?$AA?2?$AAv?$AAi?$AAe?$AAw?$AAs?$AAm?$AA?4?$AAb?$AAm?$AAp?$AA?$AA@ 10001d48     commctrl_ALL:toolbarview.obj
 0001:00000d70       ??_C@_1CI@LLLNDOGJ@?$AA?2?$AAw?$AAi?$AAn?$AAd?$AAo?$AAw?$AAs?$AA?2?$AAv?$AAi?$AAe?$AAw?$AAs?$AAm?$AA?4?$AA2?$AAb?$AAp?$AA?$AA@ 10001d70     commctrl_ALL:toolbarview.obj
 0001:00000d98       ??_C@_1CG@LJPDJJBL@?$AA?2?$AAw?$AAi?$AAn?$AAd?$AAo?$AAw?$AAs?$AA?2?$AAc?$AAl?$AAo?$AAs?$AAe?$AA?4?$AA2?$AAb?$AAp?$AA?$AA@ 10001d98     commctrl_ALL:toolbarview.obj
 0001:00000dc0       ??_C@_1CA@CAAAJKBC@?$AA?2?$AAw?$AAi?$AAn?$AAd?$AAo?$AAw?$AAs?$AA?2?$AAo?$AAk?$AA?4?$AA2?$AAb?$AAp?$AA?$AA@ 10001dc0     commctrl_ALL:toolbarview.obj
 0001:00000de0       gc_fCanBePixelDoubled      10001de0     commctrl_ALL:cutils_hpc.obj
 0001:00000de4       ??_C@_1BK@HMCKJION@?$AAa?$AAy?$AAg?$AAs?$AAh?$AAe?$AAl?$AAl?$AA?4?$AAd?$AAl?$AAl?$AA?$AA@ 10001de4     commctrl_ALL:aygutils.obj
 0001:00000e00       ??_C@_1BC@FLKEPMOK@?$AAQ?$AAI?$AAS?$AAe?$AAa?$AAr?$AAc?$AAh?$AA?$AA@ 10001e00     commctrl_ALL:dllload.obj
 0001:00000e14       ??_C@_1BI@BBABAIPH@?$AAs?$AAh?$AAl?$AAw?$AAa?$AAp?$AAi?$AA?4?$AAD?$AAL?$AAL?$AA?$AA@ 10001e14     commctrl_ALL:dllload.obj
 0001:00000e2c       ??_C@_1BC@MCKFBOJC@?$AAS?$AAt?$AAr?$AAS?$AAt?$AAr?$AAI?$AAW?$AA?$AA@ 10001e2c     commctrl_ALL:dllload.obj
 0001:00000e50       ??_C@_15PMOCCNJK@?$AA?$DN?$AA?$CC?$AA?$AA@ 10001e50     commctrl_ALL:markup.obj
 0001:00000e58       ??_C@_13FNCBLAIF@?$AAa?$AA?$AA@ 10001e58     commctrl_ALL:markup.obj
 0001:00000e60       ??_7CMarkup@@6B@           10001e60     commctrl_ALL:markup.obj
 0001:00000edc       ??_C@_15HCBMMKJC@?$AAI?$AAD?$AA?$AA@ 10001edc     commctrl_ALL:markup.obj
 0001:00000ee4       ??_C@_19GHPBLIFI@?$AAH?$AAR?$AAE?$AAF?$AA?$AA@ 10001ee4     commctrl_ALL:markup.obj
 0001:00000ef0       ??_C@_15BOCNKGNC@?$AA?$DM?$AAA?$AA?$AA@ 10001ef0     commctrl_ALL:markup.obj
 0001:00000ef8       ??_C@_19JKBMNDJO@?$AA?$DM?$AA?1?$AAA?$AA?$DO?$AA?$AA@ 10001ef8     commctrl_ALL:markup.obj
 0001:00000f04       ?s_minCount@SelRange_t@@1FB 10001f04     commctrl_ALL:selrange.obj
 0001:00000f08       ?s_growSize@SelRange_t@@1FB 10001f08     commctrl_ALL:selrange.obj
 0001:00000f0c       ?s_countSelRangesNone@SelRange_t@@1FB 10001f0c     commctrl_ALL:selrange.obj
 0001:00000f78       ??_7IMonthCalUI@@6B@       10001f78     commctrl_ALL:monthcalgdi.obj
 0001:00000f9c       ??_7MonthCalGDI@@6B@       10001f9c     commctrl_ALL:monthcalgdi.obj
 0001:00000fc0       ??_7IProgressBarUI@@6B@    10001fc0     commctrl_ALL:progressgdi.obj
 0001:00000fd0       ??_7ProgressBarGDI@@6B@    10001fd0     commctrl_ALL:progressgdi.obj
 0001:00000fe0       ??_7ITrackBarUI@@6B@       10001fe0     commctrl_ALL:trackbargdi.obj
 0001:0000100c       ??_7TrackBarGDI@@6B@       1000200c     commctrl_ALL:trackbargdi.obj
 0001:00001060       ?safeIntSAdd@@YAHHHPAH@Z   10002060 f i commctrl_ALL:toolbar.obj
 0001:000010a4       ?HeightWithString@@YAHPAUTBSTATE@@H@Z 100020a4 f   commctrl_ALL:toolbar.obj
 0001:000010dc       ?TBGetDrawTextFlags@@YAIPAUTBSTATE@@I@Z 100020dc f   commctrl_ALL:toolbar.obj
 0001:00001114       ?PatB@@YAXPAUHDC__@@HHHHK@Z 10002114 f   commctrl_ALL:toolbar.obj
 0001:00001184       ?TB_DrawTextWithEllipses@@YAHPAUHDC__@@PBGHPAUtagRECT@@I@Z 10002184 f   commctrl_ALL:toolbar.obj
 0001:00001294       ?DrawString@@YAXPAUTBSTATE@@PAUHDC__@@HHHHPAGH@Z 10002294 f   commctrl_ALL:toolbar.obj
 0001:00001434       ?TB_StrForButton@@YAPAGPAUTBSTATE@@PAU_TBBUTTONDATA@@@Z 10002434 f   commctrl_ALL:toolbar.obj
 0001:0000146c       ?CreateMask@@YAXPAUTBSTATE@@PAU_TBBUTTONDATA@@HHHHH@Z 1000246c f   commctrl_ALL:toolbar.obj
 0001:00001658       ?DrawBlankButton@@YAXPAUHDC__@@HHHHIK@Z 10002658 f   commctrl_ALL:toolbar.obj
 0001:000016d0       ?CheckMonoMask@@YAHPAUTBSTATE@@HH@Z 100026d0 f   commctrl_ALL:toolbar.obj
 0001:00001764       ?TB_OnSysColorChange@@YAXPAUTBSTATE@@@Z 10002764 f   commctrl_ALL:toolbar.obj
 0001:000017a4       InitializeMonoDC           100027a4 f   commctrl_ALL:toolbar.obj
 0001:000017e0       ReleaseMonoDC              100027e0 f   commctrl_ALL:toolbar.obj
 0001:00001818       ?TB_OnEraseBkgnd@@YAXPAUTBSTATE@@PAUHDC__@@@Z 10002818 f   commctrl_ALL:toolbar.obj
 0001:000018c4       ?CountRows@@YAHPAUTBSTATE@@@Z 100028c4 f   commctrl_ALL:toolbar.obj
 0001:00001904       PositionFromID             10002904 f   commctrl_ALL:toolbar.obj
 0001:0000194c       ?DestroyStrings@@YAXPAUTBSTATE@@@Z 1000294c f   commctrl_ALL:toolbar.obj
 0001:000019cc       ?MapToStandardBitmaps@@YAHPAPAUHINSTANCE__@@PAIPAH@Z 100029cc f   commctrl_ALL:toolbar.obj
 0001:00001a84       ?TBAddBitmapToImageList@@YAHPAUTBSTATE@@PAUTBBMINFO@@@Z 10002a84 f   commctrl_ALL:toolbar.obj
 0001:00001cb8       ?TBBuildImageList@@YAXPAUTBSTATE@@@Z 10002cb8 f   commctrl_ALL:toolbar.obj
 0001:00001d28       ?TBLoadImages@@YAHPAUTBSTATE@@HPAUHINSTANCE__@@@Z 10002d28 f   commctrl_ALL:toolbar.obj
 0001:00001dcc       ?ReplaceBitmap@@YAHPAUTBSTATE@@PAUTBREPLACEBITMAP@@@Z 10002dcc f   commctrl_ALL:toolbar.obj
 0001:00001e7c       TBInputStruct              10002e7c f   commctrl_ALL:toolbar.obj
 0001:00001ed0       TBOutputStruct             10002ed0 f   commctrl_ALL:toolbar.obj
 0001:00001f34       ?TB_OnDestroy@@YAXPAUTBSTATE@@@Z 10002f34 f   commctrl_ALL:toolbar.obj
 0001:0000204c       ?TB_OnSetCmdID@@YAXPAUTBSTATE@@PAU_TBBUTTONDATA@@I@Z 1000304c f   commctrl_ALL:toolbar.obj
 0001:000020e4       ?TB_OnGetButtonInfo@@YAJPAUTBSTATE@@HPAUTBBUTTONINFOW@@@Z 100030e4 f   commctrl_ALL:toolbar.obj
 0001:0000219c       ?CalcButtonWidth@@YAIPAUHDC__@@PAUTBSTATE@@PAU_TBBUTTONDATA@@@Z 1000319c f   commctrl_ALL:toolbar.obj
 0001:000022e4       ?TBWidthOfButton@@YAHPAUTBSTATE@@PAU_TBBUTTONDATA@@PAUHDC__@@@Z 100032e4 f   commctrl_ALL:toolbar.obj
 0001:0000250c       ?GetItemRect@@YAHPAUTBSTATE@@IPAUtagRECT@@@Z 1000350c f   commctrl_ALL:toolbar.obj
 0001:00002604       ?InvalidateButton@@YAXPAUTBSTATE@@PAU_TBBUTTONDATA@@H@Z 10003604 f   commctrl_ALL:toolbar.obj
 0001:00002654       TBHitTest                  10003654 f   commctrl_ALL:toolbar.obj
 0001:00002784       ?WrapToolbar@@YAXPAUTBSTATE@@HPAUtagRECT@@PAH@Z 10003784 f   commctrl_ALL:toolbar.obj
 0001:00002a80       ?BoxIt@@YAHPAUTBSTATE@@HHPAUtagRECT@@@Z 10003a80 f   commctrl_ALL:toolbar.obj
 0001:00002b98       ?MakeGroupConsistant@@YAXPAUTBSTATE@@H@Z 10003b98 f   commctrl_ALL:toolbar.obj
 0001:00002c9c       FlushToolTipsMgr           10003c9c f   commctrl_ALL:toolbar.obj
 0001:00002d54       ?TBAutoSize@@YAXPAUTBSTATE@@@Z 10003d54 f   commctrl_ALL:toolbar.obj
 0001:00002e58       ?TB_OnSetImage@@YAJPAUTBSTATE@@PAU_TBBUTTONDATA@@H@Z 10003e58 f   commctrl_ALL:toolbar.obj
 0001:00002ee8       ?TB_OnSetState@@YAXPAUTBSTATE@@PAU_TBBUTTONDATA@@EH@Z 10003ee8 f   commctrl_ALL:toolbar.obj
 0001:00002f44       ?TB_GetItemDropDownRect@@YAXPAUTBSTATE@@IPAUtagRECT@@@Z 10003f44 f   commctrl_ALL:toolbar.obj
 0001:00002f90       ?TBToggleDropDown@@YAHPAUTBSTATE@@HH@Z 10003f90 f   commctrl_ALL:toolbar.obj
 0001:000030b0       ?TBSelectRange@@YAXPAUTBSTATE@@HH@Z 100040b0 f   commctrl_ALL:toolbar.obj
 0001:000031c4       ?TBRecalcDeadSpace@@YAXPAUTBSTATE@@@Z 100041c4 f   commctrl_ALL:toolbar.obj
 0001:00003298       DrawFace                   10004298 f   commctrl_ALL:toolbar.obj
 0001:000035f0       DrawButton                 100045f0 f   commctrl_ALL:toolbar.obj
 0001:00003e18       ?GrowToolbar@@YAHPAUTBSTATE@@HHH@Z 10004e18 f   commctrl_ALL:toolbar.obj
 0001:00003fcc       ?SetBitmapSize@@YAHPAUTBSTATE@@HH@Z 10004fcc f   commctrl_ALL:toolbar.obj
 0001:00004078       ?ToolbarPaint@@YAXPAUTBSTATE@@PAUHDC__@@@Z 10005078 f   commctrl_ALL:toolbar.obj
 0001:00004488       ?AddBitmap@@YAHPAUTBSTATE@@HPAUHINSTANCE__@@I@Z 10005488 f   commctrl_ALL:toolbar.obj
 0001:00004748       DeleteButton               10005748 f   commctrl_ALL:toolbar.obj
 0001:0000490c       ?TBRecalc@@YAHPAUTBSTATE@@@Z 1000590c f   commctrl_ALL:toolbar.obj
 0001:00004ce8       ?TBChangeFont@@YAHPAUTBSTATE@@IPAUHFONT__@@@Z 10005ce8 f   commctrl_ALL:toolbar.obj
 0001:00004e08       ?AddStrings@@YAHPAUTBSTATE@@IJ@Z 10005e08 f   commctrl_ALL:toolbar.obj
 0001:00004fe8       InsertButtons              10005fe8 f   commctrl_ALL:toolbar.obj
 0001:00005354       ?TBSetStyle@@YAXPAUTBSTATE@@K@Z 10006354 f   commctrl_ALL:toolbar.obj
 0001:000053f0       ?TB_OnSetButtonInfo@@YAJPAUTBSTATE@@HPAUTBBUTTONINFOW@@@Z 100063f0 f   commctrl_ALL:toolbar.obj
 0001:000055a0       ?ToolbarWndProc@@YAJPAUHWND__@@IIJ@Z 100065a0 f   commctrl_ALL:toolbar.obj
 0001:000068d4       CreateToolbarEx            100078d4 f   commctrl_ALL:toolbar.obj
 0001:00006a08       ?CreateToolbar@@YAPAUHWND__@@PAU1@KIHPAUHINSTANCE__@@IPBU_TBBUTTON@@H@Z 10007a08 f   commctrl_ALL:toolbar.obj
 0001:00006a5c       InitToolbarClass           10007a5c f   commctrl_ALL:toolbar.obj
 0001:00006b18       ?xxx_DSA_Create@@YAPAU_DSA@@HH@Z 10007b18 f   commctrl_ALL:da.obj
 0001:00006b1c       ?xxx_DSA_Destroy@@YAHPAU_DSA@@@Z 10007b1c f   commctrl_ALL:da.obj
 0001:00006b20       ?xxx_DSA_EnumCallback@@YAXPAU_DSA@@P6AHPAX1@Z1@Z 10007b20 f   commctrl_ALL:da.obj
 0001:00006b24       ?xxx_DSA_DestroyCallback@@YAXPAU_DSA@@P6AHPAX1@Z1@Z 10007b24 f   commctrl_ALL:da.obj
 0001:00006b28       ?xxx_DSA_GetItem@@YAHPAU_DSA@@HPAX@Z 10007b28 f   commctrl_ALL:da.obj
 0001:00006b2c       ?xxx_DSA_GetItemPtr@@YAPAXPAU_DSA@@H@Z 10007b2c f   commctrl_ALL:da.obj
 0001:00006b30       ?xxx_DSA_SetItem@@YAHPAU_DSA@@HPAX@Z 10007b30 f   commctrl_ALL:da.obj
 0001:00006b34       ?xxx_DSA_SetRange@@YAHPAU_DSA@@HHPAX@Z 10007b34 f   commctrl_ALL:da.obj
 0001:00006b38       ?xxx_DSA_InsertItem@@YAHPAU_DSA@@HPAX@Z 10007b38 f   commctrl_ALL:da.obj
 0001:00006b3c       ?xxx_DSA_DeleteItem@@YAHPAU_DSA@@H@Z 10007b3c f   commctrl_ALL:da.obj
 0001:00006b40       ?xxx_DSA_Search@@YAHPAU_DSA@@PAXHP6AH11J@ZJI@Z 10007b40 f   commctrl_ALL:da.obj
 0001:00006b64       ?xxx_DSA_Clone@@YAPAU_DSA@@PAU1@0@Z 10007b64 f   commctrl_ALL:da.obj
 0001:00006b68       ?xxx_DSA_DeleteAllItems@@YAHPAU_DSA@@@Z 10007b68 f   commctrl_ALL:da.obj
 0001:00006b6c       ?xxx_DSA_Sort@@YAHPAU_DSA@@P6AHPAX1J@ZJ@Z 10007b6c f   commctrl_ALL:da.obj
 0001:00006b70       ?xxx_DPA_Create@@YAPAU_DPA@@H@Z 10007b70 f   commctrl_ALL:da.obj
 0001:00006b74       ?xxx_DPA_Destroy@@YAHPAU_DPA@@@Z 10007b74 f   commctrl_ALL:da.obj
 0001:00006b78       ?xxx_DPA_GetPtr@@YAPAXPAU_DPA@@H@Z 10007b78 f   commctrl_ALL:da.obj
 0001:00006b7c       ?xxx_DPA_GetPtrIndex@@YAHPAU_DPA@@PAX@Z 10007b7c f   commctrl_ALL:da.obj
 0001:00006b80       ?xxx_DPA_Grow@@YAHPAU_DPA@@H@Z 10007b80 f   commctrl_ALL:da.obj
 0001:00006b84       ?xxx_DPA_SetPtr@@YAHPAU_DPA@@HPAX@Z 10007b84 f   commctrl_ALL:da.obj
 0001:00006b88       ?xxx_DPA_InsertPtr@@YAHPAU_DPA@@HPAX@Z 10007b88 f   commctrl_ALL:da.obj
 0001:00006b8c       ?xxx_DPA_DeletePtr@@YAPAXPAU_DPA@@H@Z 10007b8c f   commctrl_ALL:da.obj
 0001:00006b90       ?xxx_DPA_DeleteAllPtrs@@YAHPAU_DPA@@@Z 10007b90 f   commctrl_ALL:da.obj
 0001:00006b94       ?xxx_DPA_DestroyCallback@@YAXPAU_DPA@@P6AHPAX1@Z1@Z 10007b94 f   commctrl_ALL:da.obj
 0001:00006b98       ?xxx_DPA_Sort@@YAHPAU_DPA@@P6AHPAX1J@ZJ@Z 10007b98 f   commctrl_ALL:da.obj
 0001:00006b9c       ?xxx_DPA_Search@@YAHPAU_DPA@@PAXHP6AH11J@ZJI@Z 10007b9c f   commctrl_ALL:da.obj
 0001:00006bc0       Str_GetPtrW                10007bc0 f   commctrl_ALL:da.obj
 0001:00006c3c       Str_SetPtrW                10007c3c f   commctrl_ALL:da.obj
 0001:00006cf8       ?NewFont@StatusBar_t@@IAAXPAUHFONT__@@H@Z 10007cf8 f   commctrl_ALL:status.obj
 0001:00006e00       ?OnWmDestroy@StatusBar_t@@IAAXXZ 10007e00 f   commctrl_ALL:status.obj
 0001:00006e80       ?DrawStatusTextEx@StatusBar_t@@KAXPAUHDC__@@PBUtagRECT@@PBGKPAUSTRINGINFO@@I@Z 10007e80 f   commctrl_ALL:status.obj
 0001:00007334       ?OnSbGetRect@StatusBar_t@@IAAHHPAUtagRECT@@@Z 10008334 f   commctrl_ALL:status.obj
 0001:0000746c       ?OnWmPaint@StatusBar_t@@IAAXPAUHDC__@@PAUSTRINGINFO@@HH@Z 1000846c f   commctrl_ALL:status.obj
 0001:00007900       ?SetStatusText@StatusBar_t@@IAAHPAUSTRINGINFO@@IPBG@Z 10008900 f   commctrl_ALL:status.obj
 0001:00007a34       ?OnSbSetParts@StatusBar_t@@IAAHHPAH@Z 10008a34 f   commctrl_ALL:status.obj
 0001:00007b4c       ?OnSbSetText@StatusBar_t@@IAAHIPBG@Z 10008b4c f   commctrl_ALL:status.obj
 0001:00007bec       ?OnSbGetText@StatusBar_t@@IAAJIPAGHH@Z 10008bec f   commctrl_ALL:status.obj
 0001:00007c98       CreateStatusWindowW        10008c98 f   commctrl_ALL:status.obj
 0001:00007dbc       ?OnWmCreate@StatusBar_t@@IAAJPAUHWND__@@PAUtagCREATESTRUCTW@@@Z 10008dbc f   commctrl_ALL:status.obj
 0001:00007e98       ?DrawStatusTextW@@YAXPAUHDC__@@PBUtagRECT@@PBGI@Z 10008e98 f   commctrl_ALL:status.obj
 0001:00007ec0       ?WndProc@StatusBar_t@@SAJPAUHWND__@@IIJ@Z 10008ec0 f   commctrl_ALL:status.obj
 0001:00008658       InitStatusClass            10009658 f   commctrl_ALL:status.obj
 0001:000086f8       ??0Header_t@@QAA@XZ        100096f8 f   commctrl_ALL:header.obj
 0001:00008768       ?GetItemOrder@Header_t@@IAAHH@Z 10009768 f   commctrl_ALL:header.obj
 0001:000087f0       ?ItemOrderToIndex@Header_t@@IAAHH@Z 100097f0 f   commctrl_ALL:header.obj
 0001:0000882c       ?InitOrderArray@Header_t@@IAAPAU_DSA@@XZ 1000982c f   commctrl_ALL:header.obj
 0001:000088cc       ?ShiftItems@Header_t@@IAAXHH@Z 100098cc f   commctrl_ALL:header.obj
 0001:00008920       ?SetItemOrder@Header_t@@IAAXHH@Z 10009920 f   commctrl_ALL:header.obj
 0001:00008a14       ?OnHdmGetOrderArray@Header_t@@IAAJHPAH@Z 10009a14 f   commctrl_ALL:header.obj
 0001:00008a80       ?OnHdmSetOrderArray@Header_t@@IAAJHPAH@Z 10009a80 f   commctrl_ALL:header.obj
 0001:00008b00       ?NotifyChangeToParentWnd@Header_t@@IAAHHHPBU_HD_ITEMW@@@Z 10009b00 f   commctrl_ALL:header.obj
 0001:00008b44       ?NotifyParentWnd@Header_t@@IAAHHHH@Z 10009b44 f   commctrl_ALL:header.obj
 0001:00008b88       ?NewFont@Header_t@@IAAXPAUHFONT__@@@Z 10009b88 f   commctrl_ALL:header.obj
 0001:00008c7c       ?OnWmCreate@Header_t@@IAAJPAUtagCREATESTRUCTW@@@Z 10009c7c f   commctrl_ALL:header.obj
 0001:00008d04       ?DestroyItemCallback@Header_t@@KAHPAX0@Z 10009d04 f   commctrl_ALL:header.obj
 0001:00008d20       ?OnWmDestroy@Header_t@@IAAXXZ 10009d20 f   commctrl_ALL:header.obj
 0001:00008d6c       ?HitTest@Header_t@@IAAHHHPAI@Z 10009d6c f   commctrl_ALL:header.obj
 0001:00008ef0       ?OnWmSetCursor@Header_t@@IAAHPAUHWND__@@II@Z 10009ef0 f   commctrl_ALL:header.obj
 0001:00008f78       ?DrawDivider@Header_t@@IAAXH@Z 10009f78 f   commctrl_ALL:header.obj
 0001:00008fdc       ?OnWmContextMenu@Header_t@@IAAXIJ@Z 10009fdc f   commctrl_ALL:header.obj
 0001:000090e0       ?IsTracking@Header_t@@IAAHXZ 1000a0e0 f   commctrl_ALL:header.obj
 0001:00009120       ?OnWmSetFont@Header_t@@IAAXPAUHFONT__@@H@Z 1000a120 f   commctrl_ALL:header.obj
 0001:00009158       ?OnHdmInsertItem@Header_t@@IAAHHPBU_HD_ITEMW@@@Z 1000a158 f   commctrl_ALL:header.obj
 0001:00009420       ?OnHdmGetItem@Header_t@@IAAHHPAU_HD_ITEMW@@@Z 1000a420 f   commctrl_ALL:header.obj
 0001:000095f8       ?OnHdmLayout@Header_t@@IAAHPAU_HD_LAYOUT@@@Z 1000a5f8 f   commctrl_ALL:header.obj
 0001:00009690       ?OnHdmGetItemRect@Header_t@@IAAHHPAUtagRECT@@@Z 1000a690 f   commctrl_ALL:header.obj
 0001:000096e0       ?InvalidateItem@Header_t@@IAAXHI@Z 1000a6e0 f   commctrl_ALL:header.obj
 0001:00009754       ?DrawBitmap@Header_t@@KAHPAUHDC__@@PAU_IMAGELIST@@PAU_HD_ITEMW@@PAUtagRECT@@HI3@Z 1000a754 f   commctrl_ALL:header.obj
 0001:00009a54       ?DrawItem@Header_t@@IAAXPAUHDC__@@HHPAUtagRECT@@I@Z 1000aa54 f   commctrl_ALL:header.obj
 0001:0000a47c       ?OnHdmCreateDragImage@Header_t@@IAAPAU_IMAGELIST@@H@Z 1000b47c f   commctrl_ALL:header.obj
 0001:0000a7a8       ??1Header_t@@QAA@XZ        1000b7a8 f   commctrl_ALL:header.obj
 0001:0000a7e4       ?SetHotItem@Header_t@@IAAXH@Z 1000b7e4 f   commctrl_ALL:header.obj
 0001:0000a81c       ?OnWmLButtonDown@Header_t@@IAAXHHHI@Z 1000b81c f   commctrl_ALL:header.obj
 0001:0000aa54       ?StartDrag@Header_t@@IAAXHHH@Z 1000ba54 f   commctrl_ALL:header.obj
 0001:0000ab0c       ?GetDividerRect@Header_t@@IAAXHPAUtagRECT@@@Z 1000bb0c f   commctrl_ALL:header.obj
 0001:0000ab88       ?OnHdmDeleteItem@Header_t@@IAAHH@Z 1000bb88 f   commctrl_ALL:header.obj
 0001:0000ad08       ?OnHdmSetItem@Header_t@@IAAHHPBU_HD_ITEMW@@@Z 1000bd08 f   commctrl_ALL:header.obj
 0001:0000af8c       ?Draw@Header_t@@IAAXPAUHDC__@@PAUtagRECT@@@Z 1000bf8c f   commctrl_ALL:header.obj
 0001:0000b1c4       ?OnWmPaint@Header_t@@IAAXPAUHDC__@@@Z 1000c1c4 f   commctrl_ALL:header.obj
 0001:0000b238       ?InvalidateDivider@Header_t@@IAAXH@Z 1000c238 f   commctrl_ALL:header.obj
 0001:0000b27c       ?SetHotDivider@Header_t@@IAAXH@Z 1000c27c f   commctrl_ALL:header.obj
 0001:0000b2dc       ?OnHdmSetHotDivider@Header_t@@IAAJHJ@Z 1000c2dc f   commctrl_ALL:header.obj
 0001:0000b408       ?MoveDrag@Header_t@@IAAXHH@Z 1000c408 f   commctrl_ALL:header.obj
 0001:0000b450       ?OnWmMouseMove@Header_t@@IAAXHHI@Z 1000c450 f   commctrl_ALL:header.obj
 0001:0000b6b4       ?OnWmLButtonUp@Header_t@@IAAXHHI@Z 1000c6b4 f   commctrl_ALL:header.obj
 0001:0000b858       ?WndProc@Header_t@@SAJPAUHWND__@@IIJ@Z 1000c858 f   commctrl_ALL:header.obj
 0001:0000bd88       ?Header_Init@@YAHPAUHINSTANCE__@@@Z 1000cd88 f   commctrl_ALL:header.obj
 0001:0000be28       ??1CLink@@UAA@XZ           1000ce28 f   commctrl_ALL:link.obj
 0001:0000be78       ?QueryInterface@CLink@@UAAJABU_GUID@@PAPAX@Z 1000ce78 f   commctrl_ALL:link.obj
 0001:0000be8c       ?AddRef@CLink@@UAAKXZ      1000ce8c f   commctrl_ALL:link.obj
 0001:0000be94       ?Release@CLink@@UAAKXZ     1000ce94 f   commctrl_ALL:link.obj
 0001:0000becc       ?GetState@CLink@@UAAJKI@Z  1000cecc f   commctrl_ALL:link.obj
 0001:0000bf10       ?OnCustomDraw@CLink@@UAAJKPAUHDC__@@PBUtagRECT@@KHIPAJ@Z 1000cf10 f   commctrl_ALL:link.obj
 0001:0000bfb0       ?CustomDrawText@CLink@@UAAJPAUHDC__@@PBGHPAUtagRECT@@IH@Z 1000cfb0 f   commctrl_ALL:link.obj
 0001:0000c064       ?InvalidateRect@CLink@@UAAJKPBUtagRECT@@@Z 1000d064 f   commctrl_ALL:link.obj
 0001:0000c090       ?GetItem@CLink@@AAAJPAUtagLITEM@@@Z 1000d090 f   commctrl_ALL:link.obj
 0001:0000c184       ?SendNotify@CLink@@ABAJIHH@Z 1000d184 f   commctrl_ALL:link.obj
 0001:0000c280       ?UpdateTabstop@CLink@@AAAXXZ 1000d280 f   commctrl_ALL:link.obj
 0001:0000c2c4       ?EnableAll@CLink@@AAAXH@Z  1000d2c4 f   commctrl_ALL:link.obj
 0001:0000c344       ?_HandleWM_UPDATEUISTATE@@YAHIJPAI@Z 1000d344 f   commctrl_ALL:link.obj
 0001:0000c380       ??_ECLink@@UAAPAXI@Z       1000d380 f i commctrl_ALL:link.obj
 0001:0000c380       ??_GCLink@@UAAPAXI@Z       1000d380 f i commctrl_ALL:link.obj
 0001:0000c3a4       ?Initialize@CLink@@AAAJXZ  1000d3a4 f   commctrl_ALL:link.obj
 0001:0000c3d8       ?Notify@CLink@@UAAJKHH@Z   1000d3d8 f   commctrl_ALL:link.obj
 0001:0000c434       ?PaintTransparent@CLink@@AAAXPAUHDC__@@PBUtagRECT@@1@Z 1000d434 f   commctrl_ALL:link.obj
 0001:0000c62c       ?SetItem@CLink@@AAAJPBUtagLITEM@@@Z 1000d62c f   commctrl_ALL:link.obj
 0001:0000c72c       ?get_lock@?$singleton@V?$free_list@$0GE@Vallocator@ce@@@ce@@$03V?$static_allocator@V?$free_list@$0GE@Vallocator@ce@@@ce@@$03@2@@ce@@KAAAVcritical_section@2@XZ 1000d72c f i commctrl_ALL:link.obj
 0001:0000c780       ??0CLink@@QAA@XZ           1000d780 f   commctrl_ALL:link.obj
 0001:0000c7fc       ?Paint@CLink@@AAAXPAUHDC__@@PBUtagRECT@@1@Z 1000d7fc f   commctrl_ALL:link.obj
 0001:0000c99c       ?WndProc@CLink@@CAJPAUHWND__@@IIJ@Z 1000d99c f   commctrl_ALL:link.obj
 0001:0000d4f8       ?InitLinkClass@@YAHPAUHINSTANCE__@@@Z 1000e4f8 f   commctrl_ALL:link.obj
 0001:0000d598       ?ListView_NotifyCacheHint@@YAHPAU_LV@@HH@Z 1000e598 f   commctrl_ALL:listview.obj
 0001:0000d5e0       ?ListView_RequestFindItem@@YAHPAU_LV@@PBUtagLVFINDINFOW@@H@Z 1000e5e0 f   commctrl_ALL:listview.obj
 0001:0000d618       ?ListView_SendChange@@YAHPAU_LV@@HHHIIIJ@Z 1000e618 f   commctrl_ALL:listview.obj
 0001:0000d684       ?ListView_SendODChange@@YAHPAU_LV@@HHII@Z 1000e684 f   commctrl_ALL:listview.obj
 0001:0000d6cc       ?ListView_Notify@@YAHPAU_LV@@HHH@Z 1000e6cc f   commctrl_ALL:listview.obj
 0001:0000d74c       ?ListView_GetEmptyText@@YAHPAU_LV@@@Z 1000e74c f   commctrl_ALL:listview.obj
 0001:0000d7e0       ?ListView_SortCallback@@YAHPAX0J@Z 1000e7e0 f   commctrl_ALL:listview.obj
 0001:0000d894       ?ListView_VerifyGroupIdIsUnique@@YAHPAU_LV@@H@Z 1000e894 f   commctrl_ALL:listview.obj
 0001:0000d8a8       ?ListView_GetOffsetItemPosition@@YAXPAU_LV@@PAU_LISTITEM@@PAUtagPOINT@@@Z 1000e8a8 f   commctrl_ALL:listview.obj
 0001:0000d944       ?ListView_SortAllColumns@@YAHPAU_LV@@PAU_LVSortInfo@@@Z 1000e944 f   commctrl_ALL:listview.obj
 0001:0000db60       ?ListView_OnApproximateViewRect@@YAKPAU_LV@@HHH@Z 1000eb60 f   commctrl_ALL:listview.obj
 0001:0000dbc4       ?ListView_OnSortItems@@YAHPAU_LV@@JP6AHJJJ@Z@Z 1000ebc4 f   commctrl_ALL:listview.obj
 0001:0000dcd0       ?ListView_OnHelp@@YAJPAU_LV@@PAUtagHELPINFO@@@Z 1000ecd0 f   commctrl_ALL:listview.obj
 0001:0000dd28       ?ListView_OnSetIconSpacing@@YAKPAU_LV@@J@Z 1000ed28 f   commctrl_ALL:listview.obj
 0001:0000de1c       ?EqualRects@@YAHPAUtagRECT@@0H@Z 1000ee1c f   commctrl_ALL:listview.obj
 0001:0000de6c       ?ListView_FindWorkArea@@YAHPAU_LV@@UtagPOINT@@PAF@Z 1000ee6c f   commctrl_ALL:listview.obj
 0001:0000dee8       ?ListView_OnGetWorkAreas@@YAXPAU_LV@@HPAUtagRECT@@@Z 1000eee8 f   commctrl_ALL:listview.obj
 0001:0000df58       ?ListView_IsItemUnfolded@@YAHPAU_LV@@H@Z 1000ef58 f   commctrl_ALL:listview.obj
 0001:0000df98       ?ListView_IsItemUnfoldedPtr@@YAHPAU_LV@@PAU_LISTITEM@@@Z 1000ef98 f   commctrl_ALL:listview.obj
 0001:0000dfd4       ?ListView_OnSetGroupInfo@@YAHPAU_LV@@HPAUtagLVGROUP@@@Z 1000efd4 f   commctrl_ALL:listview.obj
 0001:0000e034       ?ListView_OnGetGroupInfo@@YAHPAU_LV@@HPAUtagLVGROUP@@@Z 1000f034 f   commctrl_ALL:listview.obj
 0001:0000e078       ?ListView_FindFirstVisibleGroup@@YAPAVCListGroup@@PAU_LV@@@Z 1000f078 f   commctrl_ALL:listview.obj
 0001:0000e080       ?ListView_OnGetGroupMetrics@@YAJPAU_LV@@PAUtagLVGROUPMETRICS@@@Z 1000f080 f   commctrl_ALL:listview.obj
 0001:0000e0f0       ?ListView_OnMapIndexToID@@YAKPAU_LV@@I@Z 1000f0f0 f   commctrl_ALL:listview.obj
 0001:0000e138       ?ListView_OnMapIdToIndex@@YAKPAU_LV@@I@Z 1000f138 f   commctrl_ALL:listview.obj
 0001:0000e1f0       ?ListView_InvalidateEntireRegion@@YAXPAU_LV@@@Z 1000f1f0 f   commctrl_ALL:listview.obj
 0001:0000e224       ?ListView_OnSetBkColor@@YAHPAU_LV@@K@Z 1000f224 f   commctrl_ALL:listview.obj
 0001:0000e2dc       ?InitBrushOrg@@YAXPAU_LV@@PAUHDC__@@@Z 1000f2dc f   commctrl_ALL:listview.obj
 0001:0000e32c       ?ListView_InvalidateRegion@@YAXPAU_LV@@PAUHRGN__@@@Z 1000f32c f   commctrl_ALL:listview.obj
 0001:0000e36c       ?LVSeeThruScroll@@YAXPAU_LV@@PAUtagRECT@@@Z 1000f36c f   commctrl_ALL:listview.obj
 0001:0000e480       ?ListView_DrawBackground@@YAXPAU_LV@@PAUHDC__@@PAUtagRECT@@@Z 1000f480 f   commctrl_ALL:listview.obj
 0001:0000e868       ?ListView_OnEraseBkgnd@@YAHPAU_LV@@PAUHDC__@@@Z 1000f868 f   commctrl_ALL:listview.obj
 0001:0000e8bc       ?ListView_OnCommand@@YAXPAU_LV@@HPAUHWND__@@I@Z 1000f8bc f   commctrl_ALL:listview.obj
 0001:0000e978       ?ListView_MoveToTopZOrder@@YAXPAU_LV@@H@Z 1000f978 f   commctrl_ALL:listview.obj
 0001:0000e9d4       ?ListView_ComputeCYItemSize@@YAHPAU_LV@@@Z 1000f9d4 f   commctrl_ALL:listview.obj
 0001:0000ea34       ?ListView_InvalidateCachedLabelSizes@@YAXPAU_LV@@@Z 1000fa34 f   commctrl_ALL:listview.obj
 0001:0000eaec       ?ListView_OnHitTest@@YAHPAU_LV@@PAUtagLVHITTESTINFO@@@Z 1000faec f   commctrl_ALL:listview.obj
 0001:0000ec50       ?CanScroll@@YAHPAU_LV@@HH@Z 1000fc50 f   commctrl_ALL:listview.obj
 0001:0000ecd4       ?GetBaseScrollDeltas@@YAXPAU_LV@@PAH1@Z 1000fcd4 f   commctrl_ALL:listview.obj
 0001:0000ed34       ?ListView_DrawFocusRect@@YAXPAU_LV@@PAUHDC__@@PAUtagRECT@@@Z 1000fd34 f   commctrl_ALL:listview.obj
 0001:0000ed88       ?ListView_RBeginMarquee@@YAHPAU_LV@@HHPAUtagLVHITTESTINFO@@@Z 1000fd88 f   commctrl_ALL:listview.obj
 0001:0000ee1c       ?LoadLongDelayKeyValue@@YAHXZ 1000fe1c f   commctrl_ALL:listview.obj
 0001:0000eec0       ?ListView_CancelPendingTimer@@YAHPAU_LV@@IH@Z 1000fec0 f   commctrl_ALL:listview.obj
 0001:0000ef00       ?ListView_SetupPendingNameEdit@@YAXPAU_LV@@@Z 1000ff00 f   commctrl_ALL:listview.obj
 0001:0000ef30       ?ListView_OnHVScroll@@YAXPAU_LV@@IHH@Z 1000ff30 f   commctrl_ALL:listview.obj
 0001:0000eff4       ?ListView_ValidateOneScrollParam@@YAHPAU_LV@@HH@Z 1000fff4 f   commctrl_ALL:listview.obj
 0001:0000f074       ?ListView_ValidateScrollParams@@YAHPAU_LV@@PAH1@Z 10010074 f   commctrl_ALL:listview.obj
 0001:0000f1b0       ?ListView_UpdateScrollBars@@YAXPAU_LV@@@Z 100101b0 f   commctrl_ALL:listview.obj
 0001:0000f234       ?ListView_OnGetImageList@@YAPAU_IMAGELIST@@PAU_LV@@H@Z 10010234 f   commctrl_ALL:listview.obj
 0001:0000f274       ?ListView_OnSetImageList@@YAPAU_IMAGELIST@@PAU_LV@@PAU1@H@Z 10010274 f   commctrl_ALL:listview.obj
 0001:0000f4cc       ?ListView_GetDispInfo@@YAXPAU_LV@@PAUtagLVDISPINFOW@@@Z 100104cc f   commctrl_ALL:listview.obj
 0001:0000f524       ?ListView_OnGetItem@@YAHPAU_LV@@PAUtagLVITEMW@@@Z 10010524 f   commctrl_ALL:listview.obj
 0001:0000fa68       ?ListView_OnGetItemState@@YAIPAU_LV@@HI@Z 10010a68 f   commctrl_ALL:listview.obj
 0001:0000faac       ?ListView_OnGetItemText@@YAHPAU_LV@@HPAUtagLVITEMW@@@Z 10010aac f   commctrl_ALL:listview.obj
 0001:0000faec       ?ListView_ReleaseBkImage@@YAXPAU_LV@@@Z 10010aec f   commctrl_ALL:listview.obj
 0001:0000fb2c       ?ListView_OnSetBkImage@@YAHPAU_LV@@PAUtagLVBKIMAGEW@@@Z 10010b2c f   commctrl_ALL:listview.obj
 0001:0000fc04       ?ListView_OnGetBkImage@@YAHPAU_LV@@PAUtagLVBKIMAGEW@@@Z 10010c04 f   commctrl_ALL:listview.obj
 0001:0000fc80       ?ListView_FreeSubItem@@YAXPAU_LISTSUBITEM@@@Z 10010c80 f   commctrl_ALL:listview.obj
 0001:0000fca4       ?ListView_FreeItem@@YAHPAU_LV@@PAU_LISTITEM@@@Z 10010ca4 f   commctrl_ALL:listview.obj
 0001:0000fcec       ?ListView_OnDeleteAllItems@@YAHPAU_LV@@H@Z 10010cec f   commctrl_ALL:listview.obj
 0001:0000fee0       ?ListView_CompareString@@YAHPAU_LV@@HPBGIH@Z 10010ee0 f   commctrl_ALL:listview.obj
 0001:0000ffc4       ?ListView_GetRects@@YAHPAU_LV@@HIPAUtagRECT@@111@Z 10010fc4 f   commctrl_ALL:listview.obj
 0001:00010284       ?ListView_GetRectsOwnerData@@YAXPAU_LV@@HPAUtagRECT@@111PAU_LISTITEM@@@Z 10011284 f   commctrl_ALL:listview.obj
 0001:000103f0       ?ListView_InvalidateItemEx@@YAXPAU_LV@@HHII@Z 100113f0 f   commctrl_ALL:listview.obj
 0001:00010618       ?LV_IsItemOnViewEdge@@YAIPAU_LV@@PAU_LISTITEM@@@Z 10011618 f   commctrl_ALL:listview.obj
 0001:000106d4       ?LV_AdjustViewRectOnMove@@YAXPAU_LV@@PAU_LISTITEM@@HH@Z 100116d4 f   commctrl_ALL:listview.obj
 0001:00010884       ?ListView_OnSetItemPosition@@YAHPAU_LV@@HHH@Z 10011884 f   commctrl_ALL:listview.obj
 0001:00010a8c       ?ListView_OnGetItemPosition@@YAHPAU_LV@@HPAUtagPOINT@@@Z 10011a8c f   commctrl_ALL:listview.obj
 0001:00010b64       ?ListView_OnGetOrigin@@YAHPAU_LV@@PAUtagPOINT@@@Z 10011b64 f   commctrl_ALL:listview.obj
 0001:00010ba0       ?ListView_OnGetStringWidth@@YAHPAU_LV@@PBGPAUHDC__@@@Z 10011ba0 f   commctrl_ALL:listview.obj
 0001:00010c50       ?ListView_ISetColumnWidth@@YAHPAU_LV@@HHH@Z 10011c50 f   commctrl_ALL:listview.obj
 0001:00010d44       ?_SetColumnWidthAndPreserveScrollPos@@YAXPAU_LV@@H@Z 10011d44 f   commctrl_ALL:listview.obj
 0001:00010da0       ?ListView_MaybeResizeColumns@@YAHPAU_LV@@HH@Z 10011da0 f   commctrl_ALL:listview.obj
 0001:00010e2c       ?ListView_DrawItem@@YAHPAULVDRAWITEM@@@Z 10011e2c f   commctrl_ALL:listview.obj
 0001:00011060       SHDrawTextCommon           10012060 f   commctrl_ALL:listview.obj
 0001:000115b0       ?ListView_OnGetTopIndex@@YAHPAU_LV@@@Z 100125b0 f   commctrl_ALL:listview.obj
 0001:0001162c       ?ListView_OnGetCountPerPage@@YAHPAU_LV@@@Z 1001262c f   commctrl_ALL:listview.obj
 0001:000116b4       ?ListView_UnfoldRects@@YAHPAU_LV@@HPAUtagRECT@@111@Z 100126b4 f   commctrl_ALL:listview.obj
 0001:000117a0       ListView_SetItemSpacing    100127a0 f   commctrl_ALL:listview.obj
 0001:000117e0       ?ListView_UpdateGradient@@YAHPAU_LV@@@Z 100127e0 f   commctrl_ALL:listview.obj
 0001:0001188c       ?ListView_NULLRecomputeEx@@YAHPAU_LV@@PAU_DPA@@HH@Z 1001288c f   commctrl_ALL:listview.obj
 0001:0001189c       ?ListView_EnableWindow@@YAXPAU_LV@@H@Z 1001289c f   commctrl_ALL:listview.obj
 0001:0001190c       ?LV_OnShowWindow@@YAXPAU_LV@@H@Z 1001290c f   commctrl_ALL:listview.obj
 0001:0001197c       ?ListView_OnSetImageSize@@YAHPAU_LV@@HH@Z 1001297c f   commctrl_ALL:listview.obj
 0001:00011a1c       ?ListView_BullyIconsOnWorkarea@@YAXPAU_LV@@PAU_DPA@@@Z 10012a1c f   commctrl_ALL:listview.obj
 0001:00011ce0       ?ListView_OnSetWorkAreas@@YAXPAU_LV@@HPAUtagRECT@@@Z 10012ce0 f   commctrl_ALL:listview.obj
 0001:00012058       ?ListView_GetUnfoldedRect@@YAHPAU_LV@@HPAUtagRECT@@@Z 10013058 f   commctrl_ALL:listview.obj
 0001:000120ac       ?ListView_OnSetGroupMetrics@@YAJPAU_LV@@PAUtagLVGROUPMETRICS@@@Z 100130ac f   commctrl_ALL:listview.obj
 0001:00012188       ?ListView_OnEnableGroupView@@YAJPAU_LV@@H@Z 10013188 f   commctrl_ALL:listview.obj
 0001:000122bc       ?ListView_GetFirstFullyVisibleItem@@YAHPAU_LV@@@Z 100132bc f   commctrl_ALL:listview.obj
 0001:00012388       ?ListView_OnNCDestroy@@YAXPAU_LV@@@Z 10013388 f   commctrl_ALL:listview.obj
 0001:00012490       ?ListView_OnWindowPosChanged@@YAXPAU_LV@@PBUtagWINDOWPOS@@@Z 10013490 f   commctrl_ALL:listview.obj
 0001:00012604       ?ListView_InvalidateSelectedOwnerData@@YAXPAU_LV@@@Z 10013604 f   commctrl_ALL:listview.obj
 0001:00012790       ?ListView_TypeChange@@YAXPAU_LV@@K@Z 10013790 f   commctrl_ALL:listview.obj
 0001:00012904       ?ScrollDetect@@YAXPAU_LV@@UtagPOINT@@PAH2@Z 10013904 f   commctrl_ALL:listview.obj
 0001:00012ae4       ?ListView_OnScroll@@YAHPAU_LV@@HH@Z 10013ae4 f   commctrl_ALL:listview.obj
 0001:00012bc0       ?ListView_OnEnsureVisible@@YAHPAU_LV@@HH@Z 10013bc0 f   commctrl_ALL:listview.obj
 0001:00012e04       ?ListView_OnSetFont@@YAXPAU_LV@@PAUHFONT__@@H@Z 10013e04 f   commctrl_ALL:listview.obj
 0001:00013088       ?ListView_LRInvalidateBelow@@YAXPAU_LV@@HH@Z 10014088 f   commctrl_ALL:listview.obj
 0001:00013258       ?ListView_IInvalidateBelow@@YAXPAU_LV@@H@Z 10014258 f   commctrl_ALL:listview.obj
 0001:00013320       ?ListView_OnUpdate@@YAXPAU_LV@@H@Z 10014320 f   commctrl_ALL:listview.obj
 0001:0001337c       ?ListView_IFindNearestItem@@YAHPAU_LV@@HHI@Z 1001437c f   commctrl_ALL:listview.obj
 0001:00013724       ?ListView_Arrow@@YAHPAU_LV@@HI@Z 10014724 f   commctrl_ALL:listview.obj
 0001:00013be8       ?ListView_OnGetNextItem@@YAHPAU_LV@@HI@Z 10014be8 f   commctrl_ALL:listview.obj
 0001:00013d80       ?ListView_OnFindItem@@YAHPAU_LV@@HPBUtagLVFINDINFOW@@@Z 10014d80 f   commctrl_ALL:listview.obj
 0001:00013f10       ?ListView_OnGetItemRect@@YAHPAU_LV@@HPAUtagRECT@@@Z 10014f10 f   commctrl_ALL:listview.obj
 0001:00013fc4       ?ListView_OnRedrawItems@@YAHPAU_LV@@HH@Z 10014fc4 f   commctrl_ALL:listview.obj
 0001:00014038       SHDrawText                 10015038 f   commctrl_ALL:listview.obj
 0001:00014080       ?ListView_OnCreateDragImage@@YAPAU_IMAGELIST@@PAU_LV@@HPAUtagPOINT@@@Z 10015080 f   commctrl_ALL:listview.obj
 0001:0001446c       ?ListView_InvalidateFoldedItem@@YAXPAU_LV@@HHI@Z 1001546c f   commctrl_ALL:listview.obj
 0001:00014500       ?ListView_SetScrollInfo@@YAHPAU_LV@@HPAUtagSCROLLINFO@@H@Z 10015500 f   commctrl_ALL:listview.obj
 0001:00014590       ?ListView_OnSetItemCount@@YAHPAU_LV@@HK@Z 10015590 f   commctrl_ALL:listview.obj
 0001:000147cc       ?ListView_IsItemUnfolded2@@YAHPAU_LV@@HPAGH@Z 100157cc f   commctrl_ALL:listview.obj
 0001:0001491c       ?ListView_OnSetInfoTip@@YAJPAU_LV@@PBUtagLVSETINFOTIP@@@Z 1001591c f   commctrl_ALL:listview.obj
 0001:00014a84       ?ListView_OnNotify@@YAJPAU_LV@@IPAUtagNMHDR@@@Z 10015a84 f   commctrl_ALL:listview.obj
 0001:00014e54       ?ListView_OnSettingChange@@YAXPAU_LV@@IJ@Z 10015e54 f   commctrl_ALL:listview.obj
 0001:00014ee0       ?ListView_OnCreate@@YAHPAU_LV@@PAUtagCREATESTRUCTW@@@Z 10015ee0 f   commctrl_ALL:listview.obj
 0001:000151f8       ?ListView_OnDestroy@@YAXPAU_LV@@@Z 100161f8 f   commctrl_ALL:listview.obj
 0001:000152d4       ?ListView_RedrawSelection@@YAXPAU_LV@@@Z 100162d4 f   commctrl_ALL:listview.obj
 0001:000153f8       ?ListView_OnSetFocus@@YAXPAU_LV@@PAUHWND__@@@Z 100163f8 f   commctrl_ALL:listview.obj
 0001:00015484       ?ListView_DeselectAll@@YAXPAU_LV@@H@Z 10016484 f   commctrl_ALL:listview.obj
 0001:00015594       ?ListView_OnStyleChanged@@YAXPAU_LV@@IPAUtagSTYLESTRUCT@@@Z 10016594 f   commctrl_ALL:listview.obj
 0001:00015780       ?LVRecognizeGesture@@YAKHPAU_LV@@PAUtagSHRGI@@H@Z 10016780 f   commctrl_ALL:listview.obj
 0001:00015894       ?ListView_OnSetRedraw@@YAXPAU_LV@@H@Z 10016894 f   commctrl_ALL:listview.obj
 0001:00015af4       ?ListView_OnSetItem@@YAHPAU_LV@@PBUtagLVITEMW@@@Z 10016af4 f   commctrl_ALL:listview.obj
 0001:00016104       ?ListView_OnSetItemState@@YAHPAU_LV@@HII@Z 10017104 f   commctrl_ALL:listview.obj
 0001:00016588       ?ListView_OnSetItemText@@YAHPAU_LV@@HHPBG@Z 10017588 f   commctrl_ALL:listview.obj
 0001:000165cc       ?ListView_CreateItem@@YAPAU_LISTITEM@@PAU_LV@@PBUtagLVITEMW@@@Z 100175cc f   commctrl_ALL:listview.obj
 0001:000166f8       ?ListView_OnInsertItem@@YAHPAU_LV@@PBUtagLVITEMW@@@Z 100176f8 f   commctrl_ALL:listview.obj
 0001:00016b68       ?ListView_OnDeleteItem@@YAHPAU_LV@@H@Z 10017b68 f   commctrl_ALL:listview.obj
 0001:00016fb8       ?ListView_Redraw@@YAXPAU_LV@@PAUHDC__@@PAUtagRECT@@@Z 10017fb8 f   commctrl_ALL:listview.obj
 0001:000174f0       ?ListView_InitCheckBoxes@@YAXPAU_LV@@H@Z 100184f0 f   commctrl_ALL:listview.obj
 0001:00017560       ?ListView_ExtendedStyleChange@@YAKPAU_LV@@KK@Z 10018560 f   commctrl_ALL:listview.obj
 0001:000176b8       ?ListView_OnPaint@@YAXPAU_LV@@PAUHDC__@@@Z 100186b8 f   commctrl_ALL:listview.obj
 0001:00017990       ?ListView_OnKillFocus@@YAXPAU_LV@@PAUHWND__@@@Z 10018990 f   commctrl_ALL:listview.obj
 0001:00017acc       ?ListView_ToggleSelection@@YAXPAU_LV@@H@Z 10018acc f   commctrl_ALL:listview.obj
 0001:00017b00       ?ListView_DoDisjointSelection@@YAXPAU_LV@@H@Z 10018b00 f   commctrl_ALL:listview.obj
 0001:00017b80       ?ListView_SetFocusSel@@YAHPAU_LV@@HHHH@Z 10018b80 f   commctrl_ALL:listview.obj
 0001:00017c94       ?ListView_OnChar@@YAXPAU_LV@@IH@Z 10018c94 f   commctrl_ALL:listview.obj
 0001:00017f04       ?ListView_DragSelect@@YAXPAU_LV@@HH@Z 10018f04 f   commctrl_ALL:listview.obj
 0001:00018630       ?ListView_HandleStateIconClick@@YAXPAU_LV@@H@Z 10019630 f   commctrl_ALL:listview.obj
 0001:00018688       ?ListView_ToggleItemCheckBox@@YAXPAU_LV@@H@Z 10019688 f   commctrl_ALL:listview.obj
 0001:000186a0       ?ListView_OnTimer@@YAXPAU_LV@@I@Z 100196a0 f   commctrl_ALL:listview.obj
 0001:00018750       ?ListView_OnContextMenu@@YAXPAU_LV@@IJ@Z 10019750 f   commctrl_ALL:listview.obj
 0001:00018850       ?ListView_SelectRangeTo@@YAXPAU_LV@@HH@Z 10019850 f   commctrl_ALL:listview.obj
 0001:00018dd8       ?ListView_OnKey@@YAXPAU_LV@@IHHI@Z 10019dd8 f   commctrl_ALL:listview.obj
 0001:00019184       ?ListView_ButtonSelect@@YAXPAU_LV@@HIH@Z 1001a184 f   commctrl_ALL:listview.obj
 0001:0001920c       ?ListView_HandleMouse@@YAXPAU_LV@@HHHIH@Z 1001a20c f   commctrl_ALL:listview.obj
 0001:00019a50       ?ListView_WndProc@@YAJPAUHWND__@@IIJ@Z 1001aa50 f   commctrl_ALL:listview.obj
 0001:0001afac       ?ListView_Init@@YAHPAUHINSTANCE__@@@Z 1001bfac f   commctrl_ALL:listview.obj
 0001:0001b04c       ?TV_SendBeginDrag@@YAHPAU_TREE@@HPAU_TREEITEM@@HH@Z 1001c04c f   commctrl_ALL:treeview.obj
 0001:0001b098       ?TV_SendItemExpand@@YAHPAU_TREE@@HPAU_TREEITEM@@I@Z 1001c098 f   commctrl_ALL:treeview.obj
 0001:0001b124       ?TV_SendSelChange@@YAHPAU_TREE@@HPAU_TREEITEM@@1I@Z 1001c124 f   commctrl_ALL:treeview.obj
 0001:0001b19c       ?TV_GetPrevVisItem@@YAPAU_TREEITEM@@PAU1@@Z 1001c19c f   commctrl_ALL:treeview.obj
 0001:0001b210       ?TV_GetNextVisItem@@YAPAU_TREEITEM@@PAU1@@Z 1001c210 f   commctrl_ALL:treeview.obj
 0001:0001b250       ?TV_CheckHit@@YAPAU_TREEITEM@@PAU_TREE@@HHPAI@Z 1001c250 f   commctrl_ALL:treeview.obj
 0001:0001b414       ?ITEM_OFFSET@@YAHPAU_TREE@@PAU_TREEITEM@@@Z 1001c414 f   commctrl_ALL:treeview.obj
 0001:0001b444       ?TV_GetItemRect@@YAHPAU_TREE@@PAU_TREEITEM@@PAUtagRECT@@H@Z 1001c444 f   commctrl_ALL:treeview.obj
 0001:0001b554       ?TV_OnSetRedraw@@YAXPAU_TREE@@H@Z 1001c554 f   commctrl_ALL:treeview.obj
 0001:0001b5c8       ?TV_EndWatch@@YAHPAU_TREE@@PAUTVWATCHEDITEM@@@Z 1001c5c8 f   commctrl_ALL:treeview.obj
 0001:0001b61c       ?TV_ExpandParents@@YAXPAU_TREE@@PAU_TREEITEM@@H@Z 1001c61c f   commctrl_ALL:treeview.obj
 0001:0001b660       ?TV_EnsureVisible@@YAHPAU_TREE@@PAU_TREEITEM@@@Z 1001c660 f   commctrl_ALL:treeview.obj
 0001:0001b684       ?TV_ExpandOnSelChange@@YAXPAU_TREE@@PAU_TREEITEM@@1@Z 1001c684 f   commctrl_ALL:treeview.obj
 0001:0001b844       ?BetweenItems@@YAHPAU_TREE@@PAU_TREEITEM@@11@Z 1001c844 f   commctrl_ALL:treeview.obj
 0001:0001b884       ?TV_SetIndent@@YAXPAU_TREE@@I@Z 1001c884 f   commctrl_ALL:treeview.obj
 0001:0001b908       ?TV_SetItemHeight@@YAXPAU_TREE@@@Z 1001c908 f   commctrl_ALL:treeview.obj
 0001:0001b978       ?TV_CreateBoldFont@@YAXPAU_TREE@@@Z 1001c978 f   commctrl_ALL:treeview.obj
 0001:0001b9d8       ?TV_GetNextItem@@YAPAU_TREEITEM@@PAU_TREE@@PAU1@I@Z 1001c9d8 f   commctrl_ALL:treeview.obj
 0001:0001bac8       ?TV_SizeWnd@@YAHPAU_TREE@@II@Z 1001cac8 f   commctrl_ALL:treeview.obj
 0001:0001bb34       ?TV_OnContextMenu@@YAXPAU_TREE@@IJ@Z 1001cb34 f   commctrl_ALL:treeview.obj
 0001:0001bbf8       ?TV_OnGetItem@@YAHPAU_TREE@@PAUtagTVITEMW@@@Z 1001cbf8 f   commctrl_ALL:treeview.obj
 0001:0001bc30       ?TV_SetEditSize@@YAXPAU_TREE@@H@Z 1001cc30 f   commctrl_ALL:treeview.obj
 0001:0001bcd4       ?TV_CancelEditTimer@@YAXPAU_TREE@@@Z 1001ccd4 f   commctrl_ALL:treeview.obj
 0001:0001bd04       ?TV_InvalidateItem@@YAXPAU_TREE@@PAU_TREEITEM@@I@Z 1001cd04 f   commctrl_ALL:treeview.obj
 0001:0001bd54       ?TV_SelectItem@@YAHPAU_TREE@@IPAU_TREEITEM@@II@Z 1001cd54 f   commctrl_ALL:treeview.obj
 0001:0001bfd8       ?TV_Expand@@YAHPAU_TREE@@IPAU_TREEITEM@@H@Z 1001cfd8 f   commctrl_ALL:treeview.obj
 0001:0001c328       ?TV_OnChar@@YAXPAU_TREE@@IH@Z 1001d328 f   commctrl_ALL:treeview.obj
 0001:0001c53c       ?TV_OnSetFont@@YAXPAU_TREE@@PAUHFONT__@@H@Z 1001d53c f   commctrl_ALL:treeview.obj
 0001:0001c6e8       ?TV_SetItem@@YAHPAU_TREE@@PBUtagTVITEMW@@@Z 1001d6e8 f   commctrl_ALL:treeview.obj
 0001:0001c9e0       ?TV_OnWinIniChange@@YAXPAU_TREE@@I@Z 1001d9e0 f   commctrl_ALL:treeview.obj
 0001:0001ca24       ?TV_DismissEdit@@YAHPAU_TREE@@H@Z 1001da24 f   commctrl_ALL:treeview.obj
 0001:0001cbf8       ?TV_SetItemRecurse@@YAXPAU_TREE@@PAU_TREEITEM@@PAUtagTVITEMW@@@Z 1001dbf8 f   commctrl_ALL:treeview.obj
 0001:0001cc44       ?TV_DoExpandRecurse@@YAXPAU_TREE@@PAU_TREEITEM@@H@Z 1001dc44 f   commctrl_ALL:treeview.obj
 0001:0001cc94       ?TV_ExpandRecurse@@YAXPAU_TREE@@PAU_TREEITEM@@H@Z 1001dc94 f   commctrl_ALL:treeview.obj
 0001:0001cce4       ?TV_HandleStateIconClick@@YAXPAU_TREE@@PAU_TREEITEM@@@Z 1001dce4 f   commctrl_ALL:treeview.obj
 0001:0001cd94       ?TV_ButtonDown@@YAXPAU_TREE@@IIHHI@Z 1001dd94 f   commctrl_ALL:treeview.obj
 0001:0001d14c       ?TV_Command@@YAXPAU_TREE@@HPAUHWND__@@I@Z 1001e14c f   commctrl_ALL:treeview.obj
 0001:0001d1e8       ?TV_InitCheckBoxes@@YAXPAU_TREE@@@Z 1001e1e8 f   commctrl_ALL:treeview.obj
 0001:0001d26c       ?TV_OnStyleChanged@@YAXPAU_TREE@@IPAUtagSTYLESTRUCT@@@Z 1001e26c f   commctrl_ALL:treeview.obj
 0001:0001d324       ?TV_EditWndProc@@YAJPAUHWND__@@IIJ@Z 1001e324 f   commctrl_ALL:treeview.obj
 0001:0001d62c       ?TV_EditLabel@@YAPAUHWND__@@PAU_TREE@@PAU_TREEITEM@@PAG@Z 1001e62c f   commctrl_ALL:treeview.obj
 0001:0001d7a8       ?TV_KeyDown@@YAHPAU_TREE@@IK@Z 1001e7a8 f   commctrl_ALL:treeview.obj
 0001:0001db34       ?TV_SetImageList@@YAPAU_IMAGELIST@@PAU_TREE@@PAU1@H@Z 1001eb34 f   commctrl_ALL:treeview.obj
 0001:0001dc74       ?TV_Timer@@YAJPAU_TREE@@I@Z 1001ec74 f   commctrl_ALL:treeview.obj
 0001:0001dd10       ?TV_WndProc@@YAJPAUHWND__@@IIJ@Z 1001ed10 f   commctrl_ALL:treeview.obj
 0001:0001e8fc       ?TV_Init@@YAHPAUHINSTANCE__@@@Z 1001f8fc f   commctrl_ALL:treeview.obj
 0001:0001e99c       GetMessageTime             1001f99c f   commctrl_ALL:stub.obj
 0001:0001e9a0       Stub_SystemParametersInfo  1001f9a0 f   commctrl_ALL:stub.obj
 0001:0001ea68       CallMsgFilter              1001fa68 f   commctrl_ALL:stub.obj
 0001:0001ea70       InvertRect                 1001fa70 f   commctrl_ALL:stub.obj
 0001:0001eb94       SendItemNotify             1001fb94 f   commctrl_ALL:stub.obj
 0001:0001ebe4       InitDitherBrush            1001fbe4 f   commctrl_ALL:stub.obj
 0001:0001eccc       TerminateDitherBrush       1001fccc f   commctrl_ALL:stub.obj
 0001:0001ecfc       CenterWindow               1001fcfc f   commctrl_ALL:stub.obj
 0001:0001ee5c       CreateColorBitmap          1001fe5c f   commctrl_ALL:stub.obj
 0001:0001ee98       ChildOfActiveWindow        1001fe98 f   commctrl_ALL:stub.obj
 0001:0001eed8       _RectVisible               1001fed8 f   commctrl_ALL:stub.obj
 0001:0001eee0       _IsZoomed                  1001fee0 f   commctrl_ALL:stub.obj
 0001:0001eef0       ?CommandBar_GetParent@@YAPAUHWND__@@PAU1@@Z 1001fef0 f   commctrl_ALL:cmdbar.obj
 0001:0001ef5c       CommandBar_Create          1001ff5c f   commctrl_ALL:cmdbar.obj
 0001:0001eff8       CommandBar_AddBitmap       1001fff8 f   commctrl_ALL:cmdbar.obj
 0001:0001f044       CommandBar_AlignAdornments 10020044 f   commctrl_ALL:cmdbar.obj
 0001:0001f1cc       CommandBar_GetItemWindow   100201cc f   commctrl_ALL:cmdbar.obj
 0001:0001f234       CommandBar_AdjustItems     10020234 f   commctrl_ALL:cmdbar.obj
 0001:0001f2d8       CommandBar_CalcDeadSpace   100202d8 f   commctrl_ALL:cmdbar.obj
 0001:0001f328       CommandBar_Height          10020328 f   commctrl_ALL:cmdbar.obj
 0001:0001f368       IsCommandBarMessage        10020368 f   commctrl_ALL:cmdbar.obj
 0001:0001f370       CommandBands_Create        10020370 f   commctrl_ALL:cmdbar.obj
 0001:0001f43c       ?CommandBands_InsertBands@@YAHPAUHWND__@@IPAUHINSTANCE__@@IPAUtagREBARBANDINFOW@@@Z 1002043c f   commctrl_ALL:cmdbar.obj
 0001:0001f5ac       CommandBands_GetCommandBar 100205ac f   commctrl_ALL:cmdbar.obj
 0001:0001f5fc       CommandBands_AddAdornments 100205fc f   commctrl_ALL:cmdbar.obj
 0001:0001fa6c       CommandBands_GetRestoreInformation 10020a6c f   commctrl_ALL:cmdbar.obj
 0001:0001fb40       CommandBar_InsertComboBox  10020b40 f   commctrl_ALL:cmdbar.obj
 0001:0001fd00       CommandBar_InsertControl   10020d00 f   commctrl_ALL:cmdbar.obj
 0001:0001fedc       CommandBar_InsertMenubarEx 10020edc f   commctrl_ALL:cmdbar.obj
 0001:00020048       CommandBar_DrawMenuBar     10021048 f   commctrl_ALL:cmdbar.obj
 0001:00020174       CommandBar_GetMenu         10021174 f   commctrl_ALL:cmdbar.obj
 0001:00020208       CommandBar_AddAdornments   10021208 f   commctrl_ALL:cmdbar.obj
 0001:00020464       CommandBands_AddBands      10021464 f   commctrl_ALL:cmdbar.obj
 0001:0002048c       CommandBar_Show            1002148c f   commctrl_ALL:cmdbar.obj
 0001:00020518       CommandBar_InsertMenubar   10021518 f   commctrl_ALL:cmdbar.obj
 0001:0002051c       CommandBands_Show          1002151c f   commctrl_ALL:cmdbar.obj
 0001:00020594       DestroyPropertySheetPage   10021594 f   commctrl_ALL:prsht1.obj
 0001:00020674       ?_CreatePageDialog@@YAPAUHWND__@@PAU_PSP@@PAU1@PAUDLGTEMPLATE@@@Z 10021674 f   commctrl_ALL:prsht1.obj
 0001:00020784       CreatePropertySheetPageW   10021784 f   commctrl_ALL:prsht1.obj
 0001:00020950       ?GetDlgTemplateSizeHelper@@YAKPBUDLGTEMPLATE@@@Z 10021950 f   commctrl_ALL:prsht1.obj
 0001:00020a50       ?GetPageInfoEx@@YAHPAU_PSP@@PAUPAGEINFOEX@@K@Z 10021a50 f   commctrl_ALL:prsht1.obj
 0001:00020dcc       ?CreatePage@@YAPAUHWND__@@PAU_PSP@@PAU1@@Z 10021dcc f   commctrl_ALL:prsht1.obj
 0001:00020ed4       ?IsHierarchyWindowPclEnabled@@YAHPAUHWND__@@@Z 10021ed4 f i commctrl_ALL:
 0001:00020f20       IsEdit                     10021f20 f   commctrl_ALL:
 0001:00020fa4       IsListbox                  10021fa4 f   commctrl_ALL:
 0001:00021020       ??0UpDown_t@@AAA@XZ        10022020 f   commctrl_ALL:
 0001:00021094       ?IsGoodBuddy@UpDown_t@@AAAXXZ 10022094 f   commctrl_ALL:
 0001:000210dc       ?UnAnchor@UpDown_t@@AAAXXZ 100220dc f   commctrl_ALL:
 0001:0002116c       ?Anchor@UpDown_t@@AAAXXZ   1002216c f   commctrl_ALL:
 0001:000213cc       ?Compare@UpDown_t@@AAAHHHI@Z 100223cc f   commctrl_ALL:
 0001:00021424       ?Nudge@UpDown_t@@AAAHXZ    10022424 f   commctrl_ALL:
 0001:0002154c       ?Squish@UpDown_t@@AAAXII@Z 1002254c f   commctrl_ALL:
 0001:00021638       ?GetThousands@UpDown_t@@AAAXPAG@Z 10022638 f   commctrl_ALL:
 0001:00021674       ?GetGrouping@UpDown_t@@AAAIXZ 10022674 f   commctrl_ALL:
 0001:0002171c       ?GetInt@UpDown_t@@AAAJPAH@Z 1002271c f   commctrl_ALL:
 0001:000218fc       ?SetInt@UpDown_t@@AAAXH@Z  100228fc f   commctrl_ALL:
 0001:00021ba0       ?Bump@UpDown_t@@AAAXXZ     10022ba0 f   commctrl_ALL:
 0001:00021df4       ?OnWmPaint@UpDown_t@@AAAXPAUHDC__@@@Z 10022df4 f   commctrl_ALL:
 0001:00022354       ?OnUdmSetBase@UpDown_t@@AAAII@Z 10023354 f   commctrl_ALL:
 0001:000223b4       CreateUpDownControl        100233b4 f   commctrl_ALL:
 0001:0002247c       ?HitTest@UpDown_t@@AAAIHH@Z 1002347c f   commctrl_ALL:
 0001:00022510       ?Invalidate@UpDown_t@@AAAXIH@Z 10023510 f   commctrl_ALL:
 0001:000225a0       ?OnWmMouseMove@UpDown_t@@AAAXK@Z 100235a0 f   commctrl_ALL:
 0001:000225f8       ?ArrowKeyProc@UpDown_t@@CAJPAUHWND__@@IIJIK@Z 100235f8 f   commctrl_ALL:
 0001:000227b0       ?SetBuddy@UpDown_t@@AAAJPAUHWND__@@@Z 100237b0 f   commctrl_ALL:
 0001:000229c8       ?WndProc@UpDown_t@@CAJPAUHWND__@@IIJ@Z 100239c8 f   commctrl_ALL:
 0001:0002335c       InitUpDownClass            1002435c f   commctrl_ALL:
 0001:000233fc       ??0Animation_t@@QAA@XZ     100243fc f   commctrl_ALL:animate.obj
 0001:00023460       ?OnWmPaint@Animation_t@@IAAXPAUHDC__@@@Z 10024460 f   commctrl_ALL:animate.obj
 0001:00023504       ?OnAcmStop@Animation_t@@IAAHXZ 10024504 f   commctrl_ALL:animate.obj
 0001:00023544       ?OnWmTimer@Animation_t@@IAAHXZ 10024544 f   commctrl_ALL:animate.obj
 0001:00023620       ?OnAcmOpen@Animation_t@@IAAHPAUHINSTANCE__@@PBGI@Z 10024620 f   commctrl_ALL:animate.obj
 0001:000239a4       ?OnAcmPlay@Animation_t@@IAAHHHH@Z 100249a4 f   commctrl_ALL:animate.obj
 0001:00023a8c       ?OnWmCreate@Animation_t@@IAAXPAUHWND__@@PAUtagCREATESTRUCTW@@@Z 10024a8c f   commctrl_ALL:animate.obj
 0001:00023acc       ?WndProc@Animation_t@@SAJPAUHWND__@@IIJ@Z 10024acc f   commctrl_ALL:animate.obj
 0001:00023d88       InitAnimateClass           10024d88 f   commctrl_ALL:animate.obj
 0001:00023e28       ?CapEditWndProc@@YAJPAUHWND__@@IIJ@Z 10024e28 f   commctrl_ALL:gcontrol.obj
 0001:00023f84       IsCapEditAvailable         10024f84 f   commctrl_ALL:gcontrol.obj
 0001:00024040       InitCapEdit                10025040 f   commctrl_ALL:gcontrol.obj
 0001:000240f0       ?_ProcessDetach@@YAXPAX@Z  100250f0 f   commctrl_ALL:commctrl.obj
 0001:000241f8       InitCommonControlsEx       100251f8 f   commctrl_ALL:commctrl.obj
 0001:000242c8       InitCommonControls         100252c8 f   commctrl_ALL:commctrl.obj
 0001:000242f8       CC_InitIfNecessary         100252f8 f   commctrl_ALL:commctrl.obj
 0001:000242fc       DllEntry                   100252fc f   commctrl_ALL:commctrl.obj
 0001:0002436c       ?EditFullWidthConversionSubclassProc@@YAJPAUHWND__@@IIJ@Z 1002536c f   commctrl_ALL:monthcal.obj
 0001:000243e4       ?MCInsertMarkers@@YAXPAGIPBG@Z 100253e4 f   commctrl_ALL:monthcal.obj
 0001:000244cc       ?MCRemoveMarkers@@YAXPAGIPAUMONTHMETRICS@@@Z 100254cc f   commctrl_ALL:monthcal.obj
 0001:00024558       ?CalDateToday@@YAHPAUCALDATETIME@@@Z 10025558 f   commctrl_ALL:monthcal.obj
 0001:000245b8       ?MCInitColorArray@@YAXPAK@Z 100255b8 f   commctrl_ALL:monthcal.obj
 0001:00024618       ?MCHandleEraseBkgnd@@YAHPAUtagMONTHCAL@@PAUHDC__@@@Z 10025618 f   commctrl_ALL:monthcal.obj
 0001:00024650       ?MCGetDateFormatWithTempYear@@YAHPAUtagCALENDARTYPE@@PAUCALDATETIME@@PBGIPAGI@Z 10025650 f   commctrl_ALL:monthcal.obj
 0001:000246f0       ?MCUpdateEditYear@@YAXPAUtagMONTHCAL@@@Z 100256f0 f   commctrl_ALL:monthcal.obj
 0001:0002475c       ?MCNcCreateHandler@@YAJPAUHWND__@@@Z 1002575c f   commctrl_ALL:monthcal.obj
 0001:000247e0       ?MCGetWeekNumberMethod@@YAHXZ 100257e0 f   commctrl_ALL:monthcal.obj
 0001:00024860       ?MCDrawTodayCircle@@YAXPAUtagMONTHCAL@@PAUHDC__@@PAUtagRECT@@@Z 10025860 f   commctrl_ALL:monthcal.obj
 0001:000248d4       ?MCInvalidateMonthDays@@YAXPAUtagMONTHCAL@@@Z 100258d4 f   commctrl_ALL:monthcal.obj
 0001:00024a18       ?MCGetTodayBtnRect@@YAXPAUtagMONTHCAL@@PAUtagRECT@@@Z 10025a18 f   commctrl_ALL:monthcal.obj
 0001:00024b0c       ?MCGetNoneBtnRect@@YAXPAUtagMONTHCAL@@PAUtagRECT@@@Z 10025b0c f   commctrl_ALL:monthcal.obj
 0001:00024be8       ?MCPaintArrowBtn@@YAXPAUtagMONTHCAL@@PAUHDC__@@HH@Z 10025be8 f   commctrl_ALL:monthcal.obj
 0001:00024c50       ?GetCalendarDateFormat@@YAHKKQAUCALDATETIME@@PBGPAGH@Z 10025c50 f   commctrl_ALL:monthcal.obj
 0001:00024cd8       ?MCGetMonthFormat@@YAXPAUtagMONTHCAL@@PAUCALDATETIME@@PAGIPAUMONTHMETRICS@@@Z 10025cd8 f   commctrl_ALL:monthcal.obj
 0001:00024d34       ?MCIsSelectedDayMoYr@@YAHPAUtagMONTHCAL@@HHH@Z 10025d34 f   commctrl_ALL:monthcal.obj
 0001:00024dd0       ?MCRecomputeSizing@@YAXPAUtagMONTHCAL@@PAUtagRECT@@@Z 10025dd0 f   commctrl_ALL:monthcal.obj
 0001:000250ec       ?MCUpdateMonthNamePos@@YAXPAUtagMONTHCAL@@@Z 100260ec f   commctrl_ALL:monthcal.obj
 0001:000252f4       ?MCUpdateDayState@@YAXPAUtagMONTHCAL@@@Z 100262f4 f   commctrl_ALL:monthcal.obj
 0001:000253f0       ?MCNotifySelChange@@YAXPAUtagMONTHCAL@@I@Z 100263f0 f   commctrl_ALL:monthcal.obj
 0001:000254c4       ?MCGetOffsetForYrMo@@YAHPAUtagMONTHCAL@@HH@Z 100264c4 f   commctrl_ALL:monthcal.obj
 0001:000254fc       ?MCGetRcForMonth@@YAXPAUtagMONTHCAL@@HPAUtagRECT@@@Z 100264fc f   commctrl_ALL:monthcal.obj
 0001:000255e4       ?FGetOffsetForPt@@YAHPAUtagMONTHCAL@@UtagPOINT@@PAH@Z 100265e4 f   commctrl_ALL:monthcal.obj
 0001:000256b0       ?FGetRowColForRelPt@@YAHPAUtagMONTHCAL@@UtagPOINT@@PAH2@Z 100266b0 f   commctrl_ALL:monthcal.obj
 0001:00025734       ?GetYrMoForOffset@@YAXPAUtagMONTHCAL@@HPAI11@Z 10026734 f   commctrl_ALL:monthcal.obj
 0001:000257b8       ?FGetDateForPt@@YAHPAUtagMONTHCAL@@UtagPOINT@@PAUCALDATETIME@@PAH33PAUtagRECT@@@Z 100267b8 f   commctrl_ALL:monthcal.obj
 0001:00025970       ?MCInvalidateDates@@YAXPAUtagMONTHCAL@@PAUCALDATETIME@@1@Z 10026970 f   commctrl_ALL:monthcal.obj
 0001:00025bb4       ?MCHandleMultiSelect@@YAXPAUtagMONTHCAL@@PAUCALDATETIME@@@Z 10026bb4 f   commctrl_ALL:monthcal.obj
 0001:00025e04       ?MCGetTitleRcsForOffset@@YAXPAUtagMONTHCAL@@HPAUtagRECT@@1@Z 10026e04 f   commctrl_ALL:monthcal.obj
 0001:00025ea4       ?MCDPAEnumCallback@@YAHPAX0@Z 10026ea4 f   commctrl_ALL:monthcal.obj
 0001:00025ecc       ?MCFreeCalendarInfo@@YAXPAUtagCALENDARTYPE@@@Z 10026ecc f   commctrl_ALL:monthcal.obj
 0001:00025f20       ?MCGetCalendarInfo@@YAXPAUtagCALENDARTYPE@@@Z 10026f20 f   commctrl_ALL:monthcal.obj
 0001:00025f94       ?MCIsDateStringRTL@@YAHG@Z 10026f94 f   commctrl_ALL:monthcal.obj
 0001:00025ff4       ?SECGetMaxEraLength@@YAHPAUtagCALENDARTYPE@@PAUHDC__@@PAUtagSIZE@@@Z 10026ff4 f   commctrl_ALL:monthcal.obj
 0001:00026090       ?SECParseFormat@@YAHPAUtagDATEPICK@@PAUtagSUBEDITCONTROL@@PBG@Z 10027090 f   commctrl_ALL:monthcal.obj
 0001:00026a54       ?InvalidateScrollRect@@YAXPAUHWND__@@PAUtagRECT@@H@Z 10027a54 f   commctrl_ALL:monthcal.obj
 0001:00026ab0       ?SECFindNextFocus@@YAHPAUtagDATEPICK@@H@Z 10027ab0 f   commctrl_ALL:monthcal.obj
 0001:00026b58       ?SECGetYearValue@@YAIPAUtagDATEPICK@@I@Z 10027b58 f   commctrl_ALL:monthcal.obj
 0001:00026bc4       ?SECAdjustByEra@@YAIPAUtagDATEPICK@@I@Z 10027bc4 f   commctrl_ALL:monthcal.obj
 0001:00026c04       ?SECAdjustByType@@YAIPAUtagDATEPICK@@PAUtagSUBEDIT@@I@Z 10027c04 f   commctrl_ALL:monthcal.obj
 0001:00026cc0       ?SECInvalidate@@YAXPAUtagSUBEDITCONTROL@@H@Z 10027cc0 f   commctrl_ALL:monthcal.obj
 0001:00026dec       ?SECIncrementEra@@YAIPAUtagSUBEDITCONTROL@@PAUtagSUBEDIT@@H@Z 10027dec f   commctrl_ALL:monthcal.obj
 0001:00026f28       ?SECIncrementSubedit@@YAHPAUtagSUBEDITCONTROL@@H@Z 10027f28 f   commctrl_ALL:monthcal.obj
 0001:00027030       ?HasAMPMSection@@YAHPAUtagSUBEDITCONTROL@@@Z 10028030 f   commctrl_ALL:monthcal.obj
 0001:00027074       ?SECIsNumeric@@YAHPBUtagSUBEDIT@@@Z 10028074 f   commctrl_ALL:monthcal.obj
 0001:000270fc       ?SECSubeditFromPt@@YAHPAUtagSUBEDITCONTROL@@UtagPOINT@@@Z 100280fc f   commctrl_ALL:monthcal.obj
 0001:0002715c       ?SECGetSystemtime@@YAXPAUtagSUBEDITCONTROL@@PAUCALDATETIME@@@Z 1002815c f   commctrl_ALL:monthcal.obj
 0001:00027178       ?DTMP_OnGetFormat@@YAJPAUtagDATEPICK@@IPAG@Z 10028178 f   commctrl_ALL:monthcal.obj
 0001:0002730c       ?DPValidateYear@@YAXPAUtagDATEPICK@@@Z 1002830c f   commctrl_ALL:monthcal.obj
 0001:000273c0       ?DPDestroyHandler@@YAXPAUHWND__@@IJ@Z 100283c0 f   commctrl_ALL:monthcal.obj
 0001:00027420       ?DPHandleLocaleChange@@YAXPAUtagDATEPICK@@@Z 10028420 f   commctrl_ALL:monthcal.obj
 0001:00027530       ?DPHandleSetFont@@YAXPAUtagDATEPICK@@PAUHFONT__@@H@Z 10028530 f   commctrl_ALL:monthcal.obj
 0001:00027598       ?_RecomputeMonthCalRect@@YAXPAUtagDATEPICK@@PAUtagRECT@@1@Z 10028598 f   commctrl_ALL:monthcal.obj
 0001:00027720       ?DPRecomputeSizing@@YAXPAUtagDATEPICK@@PAUtagRECT@@@Z 10028720 f   commctrl_ALL:monthcal.obj
 0001:000279b8       ?DPNotifyDateChange@@YAXPAUtagDATEPICK@@@Z 100289b8 f   commctrl_ALL:monthcal.obj
 0001:00027b0c       ?DPSetDate@@YAHPAUtagDATEPICK@@PAUCALDATETIME@@H@Z 10028b0c f   commctrl_ALL:monthcal.obj
 0001:00027bbc       ?MCHandleHitTest@@YAJPAUtagMONTHCAL@@PAUMCHITTESTINFO@@@Z 10028bbc f   commctrl_ALL:monthcal.obj
 0001:00027f48       ?MCCalcSizes@@YAXPAUtagMONTHCAL@@@Z 10028f48 f   commctrl_ALL:monthcal.obj
 0001:00028560       ?MCHandleSetFont@@YAXPAUtagMONTHCAL@@PAUHFONT__@@H@Z 10029560 f   commctrl_ALL:monthcal.obj
 0001:0002864c       ?MCPaintMonth@@YAXPAUtagMONTHCAL@@PAUHDC__@@PAUtagRECT@@HHHHHPAUHBRUSH__@@@Z 1002964c f   commctrl_ALL:monthcal.obj
 0001:00029060       ?MCNcDestroyHandler@@YAXPAUHWND__@@PAUtagMONTHCAL@@IJ@Z 1002a060 f   commctrl_ALL:monthcal.obj
 0001:0002910c       ?MCUpdateToday@@YAXPAUtagMONTHCAL@@@Z 1002a10c f   commctrl_ALL:monthcal.obj
 0001:000291a4       ?FUpdateRcDayCur@@YAHPAUtagMONTHCAL@@UtagPOINT@@@Z 1002a1a4 f   commctrl_ALL:monthcal.obj
 0001:00029284       ?MCGetRcForDay@@YAXPAUtagMONTHCAL@@HHPAUtagRECT@@@Z 1002a284 f   commctrl_ALL:monthcal.obj
 0001:00029334       ?MCSetToday@@YAXPAUtagMONTHCAL@@PAUCALDATETIME@@@Z 1002a334 f   commctrl_ALL:monthcal.obj
 0001:000294cc       ?MCMouseMove@@YAJPAUtagMONTHCAL@@IJ@Z 1002a4cc f   commctrl_ALL:monthcal.obj
 0001:000296c8       ?SEGetTimeDateFormat@@YAXPAUtagSUBEDIT@@PAUtagSUBEDITCONTROL@@PAGK@Z 1002a6c8 f   commctrl_ALL:monthcal.obj
 0001:000298f4       ?SECRecomputeSizing@@YAXPAUtagSUBEDITCONTROL@@PAUtagRECT@@PAUHDC__@@@Z 1002a8f4 f   commctrl_ALL:monthcal.obj
 0001:00029bc4       ?SECSetSubeditValue@@YAXPAUtagDATEPICK@@PAUtagSUBEDIT@@IH@Z 1002abc4 f   commctrl_ALL:monthcal.obj
 0001:00029c78       ?SECSaveResetSubeditEdit@@YAXPAUtagDATEPICK@@H@Z 1002ac78 f   commctrl_ALL:monthcal.obj
 0001:00029ccc       ?SECDrawSubedits@@YAXPAUHDC__@@PAUtagSUBEDITCONTROL@@HHH@Z 1002accc f   commctrl_ALL:monthcal.obj
 0001:0002a064       ?DPNcCreateHandler@@YAJPAUHWND__@@@Z 1002b064 f   commctrl_ALL:monthcal.obj
 0001:0002a0a4       ?DPCreateHandler@@YAJPAUtagDATEPICK@@PAUHWND__@@PAUtagCREATESTRUCTW@@@Z 1002b0a4 f   commctrl_ALL:monthcal.obj
 0001:0002a33c       ?DPOnStyleChanged@@YAJPAUtagDATEPICK@@IPAUtagSTYLESTRUCT@@@Z 1002b33c f   commctrl_ALL:monthcal.obj
 0001:0002a390       ?DPPaint@@YAXPAUtagDATEPICK@@PAUHDC__@@@Z 1002b390 f   commctrl_ALL:monthcal.obj
 0001:0002a544       ?MCPaint@@YAXPAUtagMONTHCAL@@PAUHDC__@@@Z 1002b544 f   commctrl_ALL:monthcal.obj
 0001:0002aaac       ?MCUpdateRcDayCur@@YAXPAUtagMONTHCAL@@PAUCALDATETIME@@@Z 1002baac f   commctrl_ALL:monthcal.obj
 0001:0002aae4       ?SECSetCurSubed@@YAXPAUtagDATEPICK@@H@Z 1002bae4 f   commctrl_ALL:monthcal.obj
 0001:0002ac68       ?SECHandleKeydown@@YAHPAUtagDATEPICK@@IJ@Z 1002bc68 f   commctrl_ALL:monthcal.obj
 0001:0002ae98       ?SECHandleChar@@YAHPAUtagDATEPICK@@G@Z 1002be98 f   commctrl_ALL:monthcal.obj
 0001:0002b310       ?SECEdit@@YAHPAUtagDATEPICK@@PAGH@Z 1002c310 f   commctrl_ALL:monthcal.obj
 0001:0002b6a4       ?DTM_OnSetFormat@@YAJPAUtagDATEPICK@@PBG@Z 1002c6a4 f   commctrl_ALL:monthcal.obj
 0001:0002b750       ?DPHandleSECEdit@@YAXPAUtagDATEPICK@@@Z 1002c750 f   commctrl_ALL:monthcal.obj
 0001:0002b890       ?DPLButtonDown@@YAJPAUtagDATEPICK@@IJ@Z 1002c890 f   commctrl_ALL:monthcal.obj
 0001:0002ba9c       ?DPHandleKeydown@@YAJPAUtagDATEPICK@@IJ@Z 1002ca9c f   commctrl_ALL:monthcal.obj
 0001:0002bca4       ?DPHandleChar@@YAJPAUtagDATEPICK@@IJ@Z 1002cca4 f   commctrl_ALL:monthcal.obj
 0001:0002bdc4       ?MonthCal_OnPaint@@YAXPAUtagMONTHCAL@@PAUHDC__@@@Z 1002cdc4 f   commctrl_ALL:monthcal.obj
 0001:0002be24       ?MCOnStyleChanged@@YAJPAUtagMONTHCAL@@IPAUtagSTYLESTRUCT@@@Z 1002ce24 f   commctrl_ALL:monthcal.obj
 0001:0002bedc       ?MCUpdateStartEndDates@@YAXPAUtagMONTHCAL@@PAUCALDATETIME@@@Z 1002cedc f   commctrl_ALL:monthcal.obj
 0001:0002c1e4       ?FIncrStartMonth@@YAHPAUtagMONTHCAL@@HH@Z 1002d1e4 f   commctrl_ALL:monthcal.obj
 0001:0002c30c       ?MCIncrStartMonth@@YAHPAUtagMONTHCAL@@HH@Z 1002d30c f   commctrl_ALL:monthcal.obj
 0001:0002c328       ?FScrollIntoView@@YAHPAUtagMONTHCAL@@@Z 1002d328 f   commctrl_ALL:monthcal.obj
 0001:0002c3fc       ?DatePickWndProc@@YAJPAUHWND__@@IIJ@Z 1002d3fc f   commctrl_ALL:monthcal.obj
 0001:0002d464       ?UpdateLocaleInfo@@YAHPAUtagMONTHCAL@@PAUtagLOCALEINFO@@@Z 1002e464 f   commctrl_ALL:monthcal.obj
 0001:0002d7e8       ?MCCreateHandler@@YAJPAUtagMONTHCAL@@PAUHWND__@@PAUtagCREATESTRUCTW@@@Z 1002e7e8 f   commctrl_ALL:monthcal.obj
 0001:0002d9a4       ?MCSizeHandler@@YAJPAUtagMONTHCAL@@PAUtagRECT@@@Z 1002e9a4 f   commctrl_ALL:monthcal.obj
 0001:0002da5c       ?MCSetDate@@YAHPAUtagMONTHCAL@@PAUCALDATETIME@@@Z 1002ea5c f   commctrl_ALL:monthcal.obj
 0001:0002daf4       ?MCGotoToday@@YAXPAUtagMONTHCAL@@@Z 1002eaf4 f   commctrl_ALL:monthcal.obj
 0001:0002dbb8       ?MCLButtonDown@@YAJPAUtagMONTHCAL@@IJ@Z 1002ebb8 f   commctrl_ALL:monthcal.obj
 0001:0002e780       ?MCLButtonUp@@YAJPAUtagMONTHCAL@@IJ@Z 1002f780 f   commctrl_ALL:monthcal.obj
 0001:0002e9e4       ?MonthCalWndProc@@YAJPAUHWND__@@IIJ@Z 1002f9e4 f   commctrl_ALL:monthcal.obj
 0001:0002faf8       InitDateClasses            10030af8 f   commctrl_ALL:monthcal.obj
 0001:0002fbe0       ?UpdatePosition@ProgressBar_t@@AAAHHH@Z 10030be0 f   commctrl_ALL:progress.obj
 0001:0002fcbc       ?Progress_SetMarqueeTimer@ProgressBar_t@@AAAXH@Z 10030cbc f   commctrl_ALL:progress.obj
 0001:0002fd58       ?CheckMarqueeTimer@ProgressBar_t@@AAAXXZ 10030d58 f   commctrl_ALL:progress.obj
 0001:0002fd8c       ?Progress_TimerProc@ProgressBar_t@@AAAXI@Z 10030d8c f   commctrl_ALL:progress.obj
 0001:0002fdc0       ?OnCreate@ProgressBar_t@@CAJPAUHWND__@@PAUtagCREATESTRUCTW@@@Z 10030dc0 f   commctrl_ALL:progress.obj
 0001:0002fec0       ?ProgressWndProc@ProgressBar_t@@SAJPAUHWND__@@IIJ@Z 10030ec0 f   commctrl_ALL:progress.obj
 0001:00030238       InitProgressClass          10031238 f   commctrl_ALL:progress.obj
 0001:000302e0       ?RBInvalidateRect@@YAHPAUtagREBAR@@PAUtagRECT@@@Z 100312e0 f   commctrl_ALL:rebar.obj
 0001:00030314       ?RBBGetHeight@@YAIPAUtagREBAR@@PAUtagREBARBAND@@@Z 10031314 f   commctrl_ALL:rebar.obj
 0001:0003039c       ?RBGetRowCount@@YAIPAUtagREBAR@@@Z 1003139c f   commctrl_ALL:rebar.obj
 0001:000303d8       ?RBGetLineHeight@@YAIPAUtagREBAR@@II@Z 100313d8 f   commctrl_ALL:rebar.obj
 0001:0003044c       ?RBResizeChildren@@YAXPAUtagREBAR@@PAUtagREBARBAND@@1@Z 1003144c f   commctrl_ALL:rebar.obj
 0001:00030560       ?RBMoveBand@@YAHPAUtagREBAR@@II@Z 10031560 f   commctrl_ALL:rebar.obj
 0001:00030670       ?RBResizeNow@@YAXPAUtagREBAR@@@Z 10031670 f   commctrl_ALL:rebar.obj
 0001:00030738       ?RBSetRedraw@@YAHPAUtagREBAR@@H@Z 10031738 f   commctrl_ALL:rebar.obj
 0001:00030798       ?RBTileBlt@@YAXPAUtagREBAR@@PAUtagREBARBAND@@IIIIPAUHDC__@@2@Z 10031798 f   commctrl_ALL:rebar.obj
 0001:00030998       ?RBEraseBkgnd@@YAHPAUtagREBAR@@PAUHDC__@@H@Z 10031998 f   commctrl_ALL:rebar.obj
 0001:00030d08       ?RBGetBarInfo@@YAHPAUtagREBAR@@PAUtagREBARINFO@@@Z 10031d08 f   commctrl_ALL:rebar.obj
 0001:00030d44       ?RBGetBandInfo@@YAHPAUtagREBAR@@IPAUtagREBARBANDINFOW@@@Z 10031d44 f   commctrl_ALL:rebar.obj
 0001:00030ee4       ?RBValidateBandInfo@@YAHPAPAUtagREBARBANDINFOW@@PAU1@@Z 10031ee4 f   commctrl_ALL:rebar.obj
 0001:00030f24       ?RBReallocBands@@YAHPAUtagREBAR@@I@Z 10031f24 f   commctrl_ALL:rebar.obj
 0001:00030f6c       ?RBGetFirstInRow@@YAPAUtagREBARBAND@@PAUtagREBAR@@PAU1@@Z 10031f6c f   commctrl_ALL:rebar.obj
 0001:00030fa0       ?RBGetLastInRow@@YAPAUtagREBARBAND@@PAUtagREBAR@@PAU1@H@Z 10031fa0 f   commctrl_ALL:rebar.obj
 0001:00030ff8       ?RBCountBands@@YAHPAUtagREBAR@@I@Z 10031ff8 f   commctrl_ALL:rebar.obj
 0001:00031034       ?RBEnumBand@@YAPAUtagREBARBAND@@PAUtagREBAR@@HI@Z 10032034 f   commctrl_ALL:rebar.obj
 0001:00031078       ?RBMinX@@YAHPAUtagREBAR@@PAUtagREBARBAND@@@Z 10032078 f   commctrl_ALL:rebar.obj
 0001:000310d4       ?RBGetNextVisible@@YAPAUtagREBARBAND@@PAUtagREBAR@@PAU1@@Z 100320d4 f   commctrl_ALL:rebar.obj
 0001:00031108       ?RBSetRestore@@YAXPAUtagREBAR@@PAUtagREBARBAND@@@Z 10032108 f   commctrl_ALL:rebar.obj
 0001:00031188       ?RBSetDragWrapAround@@YAXPAUtagREBAR@@@Z 10032188 f   commctrl_ALL:rebar.obj
 0001:000311d4       ?RBSendNotify@@YAJPAUtagREBAR@@IH@Z 100321d4 f   commctrl_ALL:rebar.obj
 0001:00031234       ?RBIDToIndex@@YAJPAUtagREBAR@@I@Z 10032234 f   commctrl_ALL:rebar.obj
 0001:000312a8       ?RBGetRowHeight@@YAJPAUtagREBAR@@I@Z 100322a8 f   commctrl_ALL:rebar.obj
 0001:00031328       ?RBBandsAtMinHeight@@YAHPAUtagREBAR@@@Z 10032328 f   commctrl_ALL:rebar.obj
 0001:00031394       ?RBGetBandBorders@@YAJPAUtagREBAR@@IPAUtagRECT@@@Z 10032394 f   commctrl_ALL:rebar.obj
 0001:00031430       ?RBCanBandMove@@YAHPAUtagREBAR@@PAUtagREBARBAND@@@Z 10032430 f   commctrl_ALL:rebar.obj
 0001:000314a8       ?RBRecalc@@YAIPAUtagREBAR@@@Z 100324a8 f   commctrl_ALL:rebar.obj
 0001:00031918       ?RBResize@@YAXPAUtagREBAR@@H@Z 10032918 f   commctrl_ALL:rebar.obj
 0001:00031990       ?RBDrawBand@@YAXPAUtagREBAR@@PAUtagREBARBAND@@PAUHDC__@@@Z 10032990 f   commctrl_ALL:rebar.obj
 0001:00031d80       ?RBPaint@@YAXPAUtagREBAR@@PAUHDC__@@@Z 10032d80 f   commctrl_ALL:rebar.obj
 0001:00031e60       ?_RBHitTest@@YAHPAUtagREBAR@@PAU_RB_HITTESTINFO@@HH@Z 10032e60 f   commctrl_ALL:rebar.obj
 0001:00031fdc       ?RBHitTest@@YAHPAUtagREBAR@@PAU_RB_HITTESTINFO@@@Z 10032fdc f   commctrl_ALL:rebar.obj
 0001:00032014       ?RBMaxX@@YAHPAUtagREBAR@@PAUtagREBARBAND@@@Z 10033014 f   commctrl_ALL:rebar.obj
 0001:000320c0       ?RBSetBandPos@@YAHPAUtagREBAR@@PAUtagREBARBAND@@H@Z 100330c0 f   commctrl_ALL:rebar.obj
 0001:00032330       ?RBMakeNewRow@@YAHPAUtagREBAR@@PAUtagREBARBAND@@H@Z 10033330 f   commctrl_ALL:rebar.obj
 0001:0003263c       ?RBDragBand@@YAXPAUtagREBAR@@HH@Z 1003363c f   commctrl_ALL:rebar.obj
 0001:000329a0       ?RBGrowBand@@YAHPAUtagREBAR@@PAUtagREBARBAND@@HH@Z 100339a0 f   commctrl_ALL:rebar.obj
 0001:00032a74       ?RBSizeBandsToRect@@YAHPAUtagREBAR@@PAUtagRECT@@@Z 10033a74 f   commctrl_ALL:rebar.obj
 0001:00032c10       ?RBSizeBandToRowHeight@@YAXPAUtagREBAR@@HI@Z 10033c10 f   commctrl_ALL:rebar.obj
 0001:00032c5c       ?RBSizeBandsToRowHeight@@YAXPAUtagREBAR@@@Z 10033c5c f   commctrl_ALL:rebar.obj
 0001:00032cd4       ?RBBCalcMinWidth@@YAXPAUtagREBAR@@PAUtagREBARBAND@@@Z 10033cd4 f   commctrl_ALL:rebar.obj
 0001:00032eac       ?RBBCalcTextExtent@@YAHPAUtagREBAR@@PAUtagREBARBAND@@PAUHDC__@@@Z 10033eac f   commctrl_ALL:rebar.obj
 0001:00032fa0       ?RBSetFont@@YAHPAUtagREBAR@@IPAUHFONT__@@@Z 10033fa0 f   commctrl_ALL:rebar.obj
 0001:000330f4       ?RBSetBarInfo@@YAHPAUtagREBAR@@PAUtagREBARINFO@@@Z 100340f4 f   commctrl_ALL:rebar.obj
 0001:000331cc       ?RBRecalcFirst@@YAHHPAUtagREBAR@@PAUtagREBARBAND@@@Z 100341cc f   commctrl_ALL:rebar.obj
 0001:000332ac       ?RBShowBand@@YAHPAUtagREBAR@@IH@Z 100342ac f   commctrl_ALL:rebar.obj
 0001:00033364       ?RBMaximizeBand@@YAHPAUtagREBAR@@PAUtagREBARBAND@@H@Z 10034364 f   commctrl_ALL:rebar.obj
 0001:000334e0       ?ToggleRowSmartLabels@@YAXPAUtagREBAR@@PAUtagREBARBAND@@H@Z 100344e0 f   commctrl_ALL:rebar.obj
 0001:00033688       ?ToggleSmartLabels@@YAXPAUtagREBAR@@H@Z 10034688 f   commctrl_ALL:rebar.obj
 0001:000336d8       ?RBOnBeginDrag@@YAXPAUtagREBAR@@I@Z 100346d8 f   commctrl_ALL:rebar.obj
 0001:00033738       ?RBOnStyleChanged@@YAXPAUtagREBAR@@IPAUtagSTYLESTRUCT@@@Z 10034738 f   commctrl_ALL:rebar.obj
 0001:000337dc       ?RBSetBandInfo@@YAHPAUtagREBAR@@IPAUtagREBARBANDINFOW@@@Z 100347dc f   commctrl_ALL:rebar.obj
 0001:00033ce8       ?RBMinimizeBand@@YAHPAUtagREBAR@@PAUtagREBARBAND@@@Z 10034ce8 f   commctrl_ALL:rebar.obj
 0001:00033d84       ?RBRestoreBands@@YAXPAUtagREBAR@@PAUtagREBARBAND@@@Z 10034d84 f   commctrl_ALL:rebar.obj
 0001:00033df4       ?RBToggleBand@@YAXPAUtagREBAR@@@Z 10034df4 f   commctrl_ALL:rebar.obj
 0001:00033f18       ?RBSizeBarToRect@@YAJPAUtagREBAR@@PAUtagRECT@@@Z 10034f18 f   commctrl_ALL:rebar.obj
 0001:0003411c       ?RBAutoSize@@YAXPAUtagREBAR@@@Z 1003511c f   commctrl_ALL:rebar.obj
 0001:0003417c       ?RBDeleteBand@@YAHPAUtagREBAR@@I@Z 1003517c f   commctrl_ALL:rebar.obj
 0001:000342b4       ?RBInsertBand@@YAHPAUtagREBAR@@IPAUtagREBARBANDINFOW@@@Z 100352b4 f   commctrl_ALL:rebar.obj
 0001:0003449c       ?RBDestroy@@YAHPAUtagREBAR@@@Z 1003549c f   commctrl_ALL:rebar.obj
 0001:00034554       ?ReBarWndProc@@YAJPAUHWND__@@IIJ@Z 10035554 f   commctrl_ALL:rebar.obj
 0001:00035334       InitReBarClass             10036334 f   commctrl_ALL:rebar.obj
 0001:000353f4       InitSBEdit                 100363f4 f   commctrl_ALL:sbedit.obj
 0001:000354d4       ?TTBtnWndProc@@YAJPAUHWND__@@IIJ@Z 100364d4 f   commctrl_ALL:btnctl.obj
 0001:00035540       InitTTButton               10036540 f   commctrl_ALL:btnctl.obj
 0001:000355d4       TT_GetPtrFromString        100365d4 f   commctrl_ALL:statctl.obj
 0001:0003562c       TT_Kill                    1003662c f   commctrl_ALL:statctl.obj
 0001:0003567c       ?TT_GetSize@@YAHPAUHWND__@@PAGPAUtagSIZE@@@Z 1003667c f   commctrl_ALL:statctl.obj
 0001:0003579c       TT_Create                  1003679c f   commctrl_ALL:statctl.obj
 0001:00035990       TTSCommonWndProc           10036990 f   commctrl_ALL:statctl.obj
 0001:00035d10       ?TTStaticWndProc@@YAJPAUHWND__@@IIJ@Z 10036d10 f   commctrl_ALL:statctl.obj
 0001:00035d3c       InitTTStatic               10036d3c f   commctrl_ALL:statctl.obj
 0001:00035de0       ?GetCursorRect@ToolTipsMgr_t@@KAXPAUtagRECT@@@Z 10036de0 f   commctrl_ALL:tooltips.obj
 0001:00035e18       ?NewFont@ToolTipsMgr_t@@IAAXPAUHFONT__@@@Z 10036e18 f   commctrl_ALL:tooltips.obj
 0001:00035ed8       ?PopBubble@ToolTipsMgr_t@@IAAXXZ 10036ed8 f   commctrl_ALL:tooltips.obj
 0001:00035fc0       ?SetTimer@ToolTipsMgr_t@@IAAXH@Z 10036fc0 f   commctrl_ALL:tooltips.obj
 0001:00036094       ?ToolHasMoved@ToolTipsMgr_t@@IAAHXZ 10037094 f   commctrl_ALL:tooltips.obj
 0001:00036138       ?FindTool@ToolTipsMgr_t@@IAAPAUtagTOOLINFOW@@PAU2@@Z 10037138 f   commctrl_ALL:tooltips.obj
 0001:000361c8       ?UnsubclassHwnd@ToolTipsMgr_t@@KAXPAUHWND__@@0H@Z 100371c8 f   commctrl_ALL:tooltips.obj
 0001:00036250       ?SubclassProc@ToolTipsMgr_t@@KAJPAUHWND__@@IIJIK@Z 10037250 f   commctrl_ALL:tooltips.obj
 0001:000362c0       ?SubclassHwnd@ToolTipsMgr_t@@KAXPAUtagTOOLINFOW@@PAUHWND__@@@Z 100372c0 f   commctrl_ALL:tooltips.obj
 0001:00036324       ?SetTipText@ToolTipsMgr_t@@KAXPAUtagTOOLINFOW@@PAG@Z 10037324 f   commctrl_ALL:tooltips.obj
 0001:00036378       ?OnTtmAddTool@ToolTipsMgr_t@@IAAJPAUtagTOOLINFOW@@@Z 10037378 f   commctrl_ALL:tooltips.obj
 0001:000364e8       ?FreeToolResources@ToolTipsMgr_t@@KAXPAUHWND__@@PAUtagTOOLINFOW@@@Z 100374e8 f   commctrl_ALL:tooltips.obj
 0001:00036524       ?OnTtmDeleteTool@ToolTipsMgr_t@@IAAXPAUtagTOOLINFOW@@@Z 10037524 f   commctrl_ALL:tooltips.obj
 0001:000365ac       ?GetToolText@ToolTipsMgr_t@@IAAPAGPAUtagTOOLINFOW@@@Z 100375ac f   commctrl_ALL:tooltips.obj
 0001:0003683c       ?GetToolRect@ToolTipsMgr_t@@KAXPAUtagTOOLINFOW@@PAUtagRECT@@@Z 1003783c f   commctrl_ALL:tooltips.obj
 0001:00036894       ?IsPointInTool@ToolTipsMgr_t@@KAHPAUtagTOOLINFOW@@PAUHWND__@@HH@Z 10037894 f   commctrl_ALL:tooltips.obj
 0001:000368fc       ?GetToolAtPoint@ToolTipsMgr_t@@IAAPAUtagTOOLINFOW@@PAUHWND__@@HHH@Z 100378fc f   commctrl_ALL:tooltips.obj
 0001:000369c8       ?GetTipPosition@ToolTipsMgr_t@@IAAXPAUtagRECT@@HH@Z 100379c8 f   commctrl_ALL:tooltips.obj
 0001:00036cb8       ?GetTipSize@ToolTipsMgr_t@@IAAXPAGPAH1@Z 10037cb8 f   commctrl_ALL:tooltips.obj
 0001:00036f1c       ?OnTtmAdjustRect@ToolTipsMgr_t@@IAAJHPAUtagRECT@@@Z 10037f1c f   commctrl_ALL:tooltips.obj
 0001:00037014       ?ShowBubble@ToolTipsMgr_t@@IAAXXZ 10038014 f   commctrl_ALL:tooltips.obj
 0001:000371e4       ?ShowBubbleForTool@ToolTipsMgr_t@@IAAXPAUtagTOOLINFOW@@@Z 100381e4 f   commctrl_ALL:tooltips.obj
 0001:0003722c       ?OnTtmRelayedMessage@ToolTipsMgr_t@@IAAXPAUHWND__@@IJ@Z 1003822c f   commctrl_ALL:tooltips.obj
 0001:000374c8       ?OnTtmUpdateTipText@ToolTipsMgr_t@@IAAXPAUtagTOOLINFOW@@@Z 100384c8 f   commctrl_ALL:tooltips.obj
 0001:00037534       ?OnTtmSetDelayTime@ToolTipsMgr_t@@IAAXIJ@Z 10038534 f   commctrl_ALL:tooltips.obj
 0001:000375bc       ?OnTtmGetDelayTime@ToolTipsMgr_t@@IAAHI@Z 100385bc f   commctrl_ALL:tooltips.obj
 0001:00037644       ?CopyToolInfo@ToolTipsMgr_t@@KAHPAUtagTOOLINFOW@@0@Z 10038644 f   commctrl_ALL:tooltips.obj
 0001:0003770c       ?GetToolAtMessagePos@ToolTipsMgr_t@@IAAPAUtagTOOLINFOW@@XZ 1003870c f   commctrl_ALL:tooltips.obj
 0001:00037778       ?CheckCursorPos@ToolTipsMgr_t@@IAAXXZ 10038778 f   commctrl_ALL:tooltips.obj
 0001:000377ac       ?OnWmTimer@ToolTipsMgr_t@@IAAXI@Z 100387ac f   commctrl_ALL:tooltips.obj
 0001:000378cc       ?OnWmPaint@ToolTipsMgr_t@@IAAXXZ 100388cc f   commctrl_ALL:tooltips.obj
 0001:00037c5c       ?OnWmCreate@ToolTipsMgr_t@@IAAJPAUtagCREATESTRUCTW@@@Z 10038c5c f   commctrl_ALL:tooltips.obj
 0001:00037dc8       ?OnWmDestroy@ToolTipsMgr_t@@IAAXXZ 10038dc8 f   commctrl_ALL:tooltips.obj
 0001:00037e3c       ?WndProc@ToolTipsMgr_t@@SAJPAUHWND__@@IIJ@Z 10038e3c f   commctrl_ALL:tooltips.obj
 0001:00038890       InitToolTipsClass          10039890 f   commctrl_ALL:tooltips.obj
 0001:0003892c       ?LogToPhys@@YAHKHJJJ@Z     1003992c f   commctrl_ALL:trackbar.obj
 0001:00038964       ?TBLogToPhys@TrackBar_t@@AAAHK@Z 10039964 f   commctrl_ALL:trackbar.obj
 0001:000389cc       ?TBPhysToLog@TrackBar_t@@AAAJH@Z 100399cc f   commctrl_ALL:trackbar.obj
 0001:00038a6c       ?MoveThumb@TrackBar_t@@AAAXJ@Z 10039a6c f   commctrl_ALL:trackbar.obj
 0001:00038ae0       ?TBPositionBuddies@TrackBar_t@@AAAXXZ 10039ae0 f   commctrl_ALL:trackbar.obj
 0001:00038ca0       ?TBResize@TrackBar_t@@AAAXXZ 10039ca0 f   commctrl_ALL:trackbar.obj
 0001:00038cd4       ?DrawSelectionMarkers@TrackBar_t@@AAA_NXZ 10039cd4 f   commctrl_ALL:trackbar.obj
 0001:00038d10       ?GetTickCount@TrackBar_t@@ABAHXZ 10039d10 f   commctrl_ALL:trackbar.obj
 0001:00038d58       ?DoTrack@TrackBar_t@@AAAXHK@Z 10039d58 f   commctrl_ALL:trackbar.obj
 0001:00038e2c       ?WTrackType@TrackBar_t@@AAAGJ@Z 10039e2c f   commctrl_ALL:trackbar.obj
 0001:00038ec4       ?TBTrackEnd@TrackBar_t@@AAAXXZ 10039ec4 f   commctrl_ALL:trackbar.obj
 0001:00038f38       ?TBTrack@TrackBar_t@@AAAXJ@Z 10039f38 f   commctrl_ALL:trackbar.obj
 0001:00038fc0       ?TBTrackInit@TrackBar_t@@AAAXJ@Z 10039fc0 f   commctrl_ALL:trackbar.obj
 0001:0003906c       ?erase@?$vector@KVallocator@ce@@U?$exponential_growth@$09@2@@ce@@QAAPAKPAK0@Z 1003a06c f i commctrl_ALL:trackbar.obj
 0001:000390c4       ?erase@?$vector@KV?$reference_allocator@Vallocator@ce@@@details@ce@@U?$exponential_growth@$09@3@@ce@@QAAPAKPAK0@Z 1003a0c4 f i commctrl_ALL:trackbar.obj
 0001:0003911c       ?ChangeTicStyle@TrackBar_t@@AAAXKK@Z 1003a11c f   commctrl_ALL:trackbar.obj
 0001:000391a8       ?_Insert_dispatch@?$vector@KVallocator@ce@@U?$exponential_growth@$09@2@@ce@@AAA_NPAKIABKABUtrue_type@detail@2@@Z 1003a1a8 f i commctrl_ALL:trackbar.obj
 0001:000393c8       ?insert@?$vector@KVallocator@ce@@U?$exponential_growth@$09@2@@ce@@QAAPAKPAKABK@Z 1003a3c8 f i commctrl_ALL:trackbar.obj
 0001:00039414       ?DoAutoTics@TrackBar_t@@AAAXXZ 1003a414 f   commctrl_ALL:trackbar.obj
 0001:00039544       ?TrackOnCreate@TrackBar_t@@CAJPAUHWND__@@PAUtagCREATESTRUCTW@@@Z 1003a544 f   commctrl_ALL:trackbar.obj
 0001:00039698       ?Update@TrackBar_t@@AAAXPAUHWND__@@_N1@Z 1003a698 f   commctrl_ALL:trackbar.obj
 0001:00039724       ?TrackBarWndProc@TrackBar_t@@SAJPAUHWND__@@IIJ@Z 1003a724 f   commctrl_ALL:trackbar.obj
 0001:0003a474       InitTrackBar               1003b474 f   commctrl_ALL:trackbar.obj
 0001:0003a51c       ?_SetTitle@@YAXPAUHWND__@@PAUPROPDATA@@@Z 1003b51c f   commctrl_ALL:prsht.obj
 0001:0003a62c       ?MoveAllButtons@@YAXPAUHWND__@@PBHHHH@Z 1003b62c f   commctrl_ALL:prsht.obj
 0001:0003a6d0       ?ShowTabs@@YAHPAUPROPDATA@@@Z 1003b6d0 f   commctrl_ALL:prsht.obj
 0001:0003a72c       ?CreateBoldFont@@YAPAUHFONT__@@PAUHWND__@@HH@Z 1003b72c f   commctrl_ALL:prsht.obj
 0001:0003a848       ?SizeLink@@YAXPAUPROPDATA@@@Z 1003b848 f   commctrl_ALL:prsht.obj
 0001:0003a958       ?PositionLink@@YAXPAUPROPDATA@@@Z 1003b958 f   commctrl_ALL:prsht.obj
 0001:0003a9cc       ?CreateInkLinkWindow@@YAPAUHWND__@@PAU1@PAG@Z 1003b9cc f   commctrl_ALL:prsht.obj
 0001:0003aab0       ?_Ppd_GetPage@@YAPAUHWND__@@PAUPROPDATA@@H@Z 1003bab0 f   commctrl_ALL:prsht.obj
 0001:0003aaf4       ?FindPageIndex@@YAHPAUPROPDATA@@HKH@Z 1003baf4 f   commctrl_ALL:prsht.obj
 0001:0003ab54       ?PageChanging@@YAHPAUPROPDATA@@@Z 1003bb54 f   commctrl_ALL:prsht.obj
 0001:0003abd0       ?SizeCurrentPage@@YAXPAUPROPDATA@@PAUHWND__@@1K@Z 1003bbd0 f   commctrl_ALL:prsht.obj
 0001:0003ad34       ?ResetWizButtons@@YAXPAUPROPDATA@@@Z 1003bd34 f   commctrl_ALL:prsht.obj
 0001:0003ad84       ?SetWizButtons@@YAXPAUPROPDATA@@J@Z 1003bd84 f   commctrl_ALL:prsht.obj
 0001:0003af74       ?FindItem@@YAHPAUHWND__@@0PAUTC_ITEMEXTRA@@@Z 1003bf74 f   commctrl_ALL:prsht.obj
 0001:0003afcc       ?PageInfoChange@@YAXPAUPROPDATA@@PAUHWND__@@@Z 1003bfcc f   commctrl_ALL:prsht.obj
 0001:0003b04c       ?PageInfoUnChange@@YAXPAUPROPDATA@@PAUHWND__@@@Z 1003c04c f   commctrl_ALL:prsht.obj
 0001:0003b110       ?RemovePropPageData@@YAXPAUPROPDATA@@H@Z 1003c110 f   commctrl_ALL:prsht.obj
 0001:0003b164       ?QuerySiblings@@YAJPAUPROPDATA@@IJ@Z 1003c164 f   commctrl_ALL:prsht.obj
 0001:0003b1c8       ?ScalePrsht@@YAXPAUHWND__@@PAUPROPDATA@@JI@Z 1003c1c8 f   commctrl_ALL:prsht.obj
 0001:0003b3c8       ?AdjustTabVisibility@@YAHPAUPROPDATA@@@Z 1003c3c8 f   commctrl_ALL:prsht.obj
 0001:0003b444       ?SetNewTabItem@@YAXPAUPROPDATA@@HPAUTC_ITEMEXTRA@@@Z 1003c444 f   commctrl_ALL:prsht.obj
 0001:0003b484       ?SetNewDefID@@YAXPAUPROPDATA@@@Z 1003c484 f   commctrl_ALL:prsht.obj
 0001:0003b5b0       ?PageChange@@YAXPAUPROPDATA@@H@Z 1003c5b0 f   commctrl_ALL:prsht.obj
 0001:0003b97c       ?ButtonPushed@@YAHPAUPROPDATA@@I@Z 1003c97c f   commctrl_ALL:prsht.obj
 0001:0003bc48       ?AddPropPage@@YAHPAUPROPDATA@@PAU_PSP@@@Z 1003cc48 f   commctrl_ALL:prsht.obj
 0001:0003bde4       ?RemovePropPage@@YAXPAUPROPDATA@@HPAU_PSP@@@Z 1003cde4 f   commctrl_ALL:prsht.obj
 0001:0003bf04       ?PageSetSelection@@YAHPAUPROPDATA@@HPAU_PSP@@H@Z 1003cf04 f   commctrl_ALL:prsht.obj
 0001:0003bfe0       ?WizNextBack@@YAHPAUPROPDATA@@H@Z 1003cfe0 f   commctrl_ALL:prsht.obj
 0001:0003c074       ?Prsht_OnCommand@@YAHPAUPROPDATA@@HPAUHWND__@@I@Z 1003d074 f   commctrl_ALL:prsht.obj
 0001:0003c210       ?Prop_IsDialogMessage@@YAHPAUPROPDATA@@PAUtagMSG@@@Z 1003d210 f   commctrl_ALL:prsht.obj
 0001:0003c354       ?InitPropSheetDlg@@YAXPAUHWND__@@PAUPROPDATA@@@Z 1003d354 f   commctrl_ALL:prsht.obj
 0001:0003d11c       ?PropSheetDlgProc@@YAHPAUHWND__@@IIJ@Z 1003e11c f   commctrl_ALL:prsht.obj
 0001:0003da28       ?_RealPropertySheet@@YAHPAUPROPDATA@@@Z 1003ea28 f   commctrl_ALL:prsht.obj
 0001:0003dd80       PropertySheetW             1003ed80 f   commctrl_ALL:prsht.obj
 0001:0003df08       ?LockSHMutex@@YAHPAPAXPBG@Z 1003ef08 f   commctrl_ALL:shutil.obj
 0001:0003df6c       ?GetSHCache@@YAHPAPAXPBGPAPAH0111K@Z 1003ef6c f   commctrl_ALL:shutil.obj
 0001:0003e0a8       ?GetShellColorFromRegistry@@YAHHPAK@Z 1003f0a8 f   commctrl_ALL:shutil.obj
 0001:0003e164       SHGetSysColor              1003f164 f   commctrl_ALL:shutil.obj
 0001:0003e268       SHSetSysColors             1003f268 f   commctrl_ALL:shutil.obj
 0001:0003e508       SHGetSystemMetrics         1003f508 f   commctrl_ALL:shutil.obj
 0001:0003e5f4       SHSetSystemMetrics         1003f5f4 f   commctrl_ALL:shutil.obj
 0001:0003e7a0       SHDrawGradient             1003f7a0 f   commctrl_ALL:shutil.obj
 0001:0003e954       ?SHDrawMirroredGradient@@YAJPAU_SHGRADIENTINFO@@@Z 1003f954 f   commctrl_ALL:shutil.obj
 0001:0003eb6c       ?GetGradientMirrorValueFromRegistry@@YAHXZ 1003fb6c f   commctrl_ALL:shutil.obj
 0001:0003ebf8       SHCreateDefaultGradient    1003fbf8 f   commctrl_ALL:shutil.obj
 0001:0003ed7c       ?VertSmoothScrollWindow@@YAXPAUHWND__@@HHPBUtagRECT@@1PAUHRGN__@@PAU2@IHI@Z 1003fd7c f   commctrl_ALL:tab.obj
 0001:0003ee64       ?VFlipTabRect@Tab_t@@QAAXPAUtagRECT@@@Z 1003fe64 f   commctrl_ALL:tab.obj
 0001:0003eecc       ?OnCreate@Tab_t@@QAAHXZ    1003fecc f   commctrl_ALL:tab.obj
 0001:0003f028       ?BorrowOne@Tab_t@@QAAHHHH@Z 10040028 f   commctrl_ALL:tab.obj
 0001:0003f1a0       ?FillLastRow@Tab_t@@QAAXXZ 100401a0 f   commctrl_ALL:tab.obj
 0001:0003f264       ?RightJustify@Tab_t@@QAAXXZ 10040264 f   commctrl_ALL:tab.obj
 0001:0003f38c       ?OnHitTest@Tab_t@@QAAHHHPAI@Z 1004038c f   commctrl_ALL:tab.obj
 0001:0003f4c8       ?OnGetItem@Tab_t@@QAAHHPAUtagTCITEMW@@@Z 100404c8 f   commctrl_ALL:tab.obj
 0001:0003f5f8       ?CalcTabHeight@Tab_t@@QAAXPAUHDC__@@@Z 100405f8 f   commctrl_ALL:tab.obj
 0001:0003f7f8       ?Tab_GetTextExtentPoint@@YAXPAUHDC__@@PAGHPAUtagSIZE@@@Z 100407f8 f   commctrl_ALL:tab.obj
 0001:0003f870       ?InvertRows@Tab_t@@QAAXXZ  10040870 f   commctrl_ALL:tab.obj
 0001:0003f8e0       ?RefreshArrows@Tab_t@@QAAXPAUHDC__@@@Z 100408e0 f   commctrl_ALL:tab.obj
 0001:0003f968       ?FindTab@Tab_t@@QAAHHI@Z   10040968 f   commctrl_ALL:tab.obj
 0001:0003fa1c       ?RemapDirectionVKey@Tab_t@@QAAII@Z 10040a1c f   commctrl_ALL:tab.obj
 0001:0003faac       ?ExtendedStyleChange@Tab_t@@QAAKKK@Z 10040aac f   commctrl_ALL:tab.obj
 0001:0003fae8       ?SmoothScrollWindow@Tab_t@@QAAXHHPAUtagRECT@@0PAUHRGN__@@0II@Z 10040ae8 f   commctrl_ALL:tab.obj
 0001:0003fbe4       ?InvalidateTabRect@Tab_t@@QAAXPAUtagRECT@@H@Z 10040be4 f   commctrl_ALL:tab.obj
 0001:0003fc3c       ?OnDestroy@Tab_t@@QAAXXZ   10040c3c f   commctrl_ALL:tab.obj
 0001:0003fcc8       ?PutzRowToBottom@Tab_t@@QAAXH@Z 10040cc8 f   commctrl_ALL:tab.obj
 0001:0003ff8c       ?CreateItem@Tab_t@@QAAPAUTABITEM@@PBUtagTCITEMW@@@Z 10040f8c f   commctrl_ALL:tab.obj
 0001:00040054       ?InvalidateItem@Tab_t@@QAAXHH@Z 10041054 f   commctrl_ALL:tab.obj
 0001:000400f8       ?Scroll@Tab_t@@QAAXHH@Z    100410f8 f   commctrl_ALL:tab.obj
 0001:00040264       ?OnHScroll@Tab_t@@QAAXPAUHWND__@@IH@Z 10041264 f   commctrl_ALL:tab.obj
 0001:000402c0       ?OnMouseMove@Tab_t@@QAAXIHH@Z 100412c0 f   commctrl_ALL:tab.obj
 0001:00040334       ?UpdateArrows@Tab_t@@QAAXH@Z 10041334 f   commctrl_ALL:tab.obj
 0001:000405a0       ?OnRemoveImage@Tab_t@@QAAXH@Z 100415a0 f   commctrl_ALL:tab.obj
 0001:00040620       ?RedrawAll@Tab_t@@QAAHI@Z  10041620 f   commctrl_ALL:tab.obj
 0001:0004066c       ?OnSetFont@Tab_t@@QAAXPAUHFONT__@@H@Z 1004166c f   commctrl_ALL:tab.obj
 0001:0004076c       ?OnDeleteAllItems@Tab_t@@QAAHXZ 1004176c f   commctrl_ALL:tab.obj
 0001:000407e8       ?OnSetItem@Tab_t@@QAAHHPBUtagTCITEMW@@@Z 100417e8 f   commctrl_ALL:tab.obj
 0001:00040970       ?DeselectAll@Tab_t@@QAAXH@Z 10041970 f   commctrl_ALL:tab.obj
 0001:000409fc       ?OnDeleteItem@Tab_t@@QAAHH@Z 100419fc f   commctrl_ALL:tab.obj
 0001:00040bc0       ?ChangeSel@Tab_t@@QAAHHHH@Z 10041bc0 f   commctrl_ALL:tab.obj
 0001:00040de0       ?CalcPaintMetrics@Tab_t@@QAAXPAUHDC__@@@Z 10041de0 f   commctrl_ALL:tab.obj
 0001:0004123c       ?OnGetItemRect@Tab_t@@QAAHHPAUtagRECT@@@Z 1004223c f   commctrl_ALL:tab.obj
 0001:000412d4       ?StyleChanged@Tab_t@@QAAXIPAUtagSTYLESTRUCT@@@Z 100422d4 f   commctrl_ALL:tab.obj
 0001:000413a4       ?OnAdjustRect@Tab_t@@QAAXHPAUtagRECT@@@Z 100423a4 f   commctrl_ALL:tab.obj
 0001:00041510       ?Paint@Tab_t@@QAAXPAUHDC__@@@Z 10042510 f   commctrl_ALL:tab.obj
 0001:000416e4       ?OnButtonUp@Tab_t@@QAAXHHH@Z 100426e4 f   commctrl_ALL:tab.obj
 0001:000417ec       ?OnLButtonDown@Tab_t@@QAAXHHI@Z 100427ec f   commctrl_ALL:tab.obj
 0001:00041948       ?OnInsertItem@Tab_t@@QAAHHPBUtagTCITEMW@@@Z 10042948 f   commctrl_ALL:tab.obj
 0001:00041ad0       ?SetCurFocus@Tab_t@@QAAXH@Z 10042ad0 f   commctrl_ALL:tab.obj
 0001:00041bfc       ?OnKeyDown@Tab_t@@QAAXIHHI@Z 10042bfc f   commctrl_ALL:tab.obj
 0001:00041d48       Tab_WndProc                10042d48 f   commctrl_ALL:tab.obj
 0001:00042704       Tab_Init                   10043704 f   commctrl_ALL:tab.obj
 0001:000427a4       HIDPI_InitScaling          100437a4 f i commctrl_ALL:cutils.obj
 0001:00042900       NewSize                    10043900 f   commctrl_ALL:cutils.obj
 0001:00042b08       MGetTextExtent             10043b08 f   commctrl_ALL:cutils.obj
 0001:00042b98       ?LoadXYDragMetrics@@YAHPAH0@Z 10043b98 f   commctrl_ALL:cutils.obj
 0001:00042d5c       CheckForDragBegin          10043d5c f   commctrl_ALL:cutils.obj
 0001:00042ecc       InitGlobalMetrics          10043ecc f   commctrl_ALL:cutils.obj
 0001:00043084       InitGlobalColors           10044084 f   commctrl_ALL:cutils.obj
 0001:000432b0       CleanupGlobalColors        100442b0 f   commctrl_ALL:cutils.obj
 0001:000432d8       RelayToToolTips            100442d8 f   commctrl_ALL:cutils.obj
 0001:00043320       GetIncrementSearchString   10044320 f   commctrl_ALL:cutils.obj
 0001:00043388       IncrementSearchString      10044388 f   commctrl_ALL:cutils.obj
 0001:0004349c       StripAccelerators          1004449c f   commctrl_ALL:cutils.obj
 0001:000434e4       CIInitialize               100444e4 f   commctrl_ALL:cutils.obj
 0001:00043544       CIHandleNotifyFormat       10044544 f   commctrl_ALL:cutils.obj
 0001:00043594       CCSwapKeys                 10044594 f   commctrl_ALL:cutils.obj
 0001:000435b8       CCPlaySound                100445b8 f   commctrl_ALL:cutils.obj
 0001:000435bc       CCForwardEraseBackground   100445bc f   commctrl_ALL:cutils.obj
 0001:000435fc       CCCreateUnderlineFont      100445fc f   commctrl_ALL:cutils.obj
 0001:0004365c       CCLocalReAlloc             1004465c f   commctrl_ALL:cutils.obj
 0001:00043694       GetCodePageForFont         10044694 f   commctrl_ALL:cutils.obj
 0001:0004369c       MyNotifyWinEvent           1004469c f   commctrl_ALL:cutils.obj
 0001:000436a0       GetMessagePosClient        100446a0 f   commctrl_ALL:cutils.obj
 0001:000436e8       CCStrDupW                  100446e8 f   commctrl_ALL:cutils.obj
 0001:0004374c       AppendCompositionString    1004474c f   commctrl_ALL:cutils.obj
 0001:0004384c       DetermineCompositionString 1004484c f   commctrl_ALL:cutils.obj
 0001:00043890       DrawGradiantLine           10044890 f   commctrl_ALL:cutils.obj
 0001:00043a90       NeedsEllipses              10044a90 f   commctrl_ALL:cutils.obj
 0001:00043bf0       FillRectClr                10044bf0 f   commctrl_ALL:cutils.obj
 0001:00043c48       FlipRect                   10044c48 f   commctrl_ALL:cutils.obj
 0001:00043c6c       VertDrawEdge               10044c6c f   commctrl_ALL:cutils.obj
 0001:00043d50       VertInvalidateRect         10044d50 f   commctrl_ALL:cutils.obj
 0001:00043d9c       VertPatBlt                 10044d9c f   commctrl_ALL:cutils.obj
 0001:00043e08       Str_Set                    10044e08 f   commctrl_ALL:cutils.obj
 0001:00043e88       CCSetInfoTipWidth          10044e88 f   commctrl_ALL:cutils.obj
 0001:00043f00       MirrorBitmapInDC           10044f00 f   commctrl_ALL:cutils.obj
 0001:00043ff4       CCWndProc                  10044ff4 f   commctrl_ALL:cutils.obj
 0001:00044058       CCBeginDoubleBuffer        10045058 f   commctrl_ALL:cutils.obj
 0001:00044148       CCEndDoubleBuffer          10045148 f   commctrl_ALL:cutils.obj
 0001:000441cc       ?TB_InitButtonWidth@@YAXPAUTBSTATE@@PAGG@Z 100451cc f   commctrl_ALL:toolbar_hpc.obj
 0001:000441dc       ?TB_SetStyle@@YAXPAK@Z     100451dc f   commctrl_ALL:toolbar_hpc.obj
 0001:000441f0       ?TB_AlignDrawString@@YAXPAUHWND__@@HPAI@Z 100451f0 f   commctrl_ALL:toolbar_hpc.obj
 0001:000441f4       ?TB_GetSepBorderType@@YAXPAI@Z 100451f4 f   commctrl_ALL:toolbar_hpc.obj
 0001:00044200       ?InitializeButtonSlopValue@ToolBarView_t@@SAXPAH0@Z 10045200 f   commctrl_ALL:toolbarview.obj
 0001:00044214       ?DrawButtonBorder@ToolBarView_t@@SAXPAUHDC__@@PAUtagRECT@@_NK@Z 10045214 f   commctrl_ALL:toolbarview.obj
 0001:00044238       ?CalcOffset@ToolBarView_t@@SAXPAH0@Z 10045238 f   commctrl_ALL:toolbarview.obj
 0001:00044250       ?FaceRect@ToolBarView_t@@SAXPAUtagRECT@@HHHH@Z 10045250 f   commctrl_ALL:toolbarview.obj
 0001:0004425c       ?DrawDropdownArrow@ToolBarView_t@@SAXPAUHDC__@@HHHHHHHHKHHKKH@Z 1004525c f   commctrl_ALL:toolbarview.obj
 0001:000443b4       ?LoadSystemBitmap@ToolBarView_t@@SAPAUHBITMAP__@@W4BitmapType@@@Z 100453b4 f   commctrl_ALL:toolbarview.obj
 0001:00044430       CCSendNotify               10045430 f   commctrl_ALL:notify.obj
 0001:000444d4       CICustomDrawNotify         100454d4 f   commctrl_ALL:notify.obj
 0001:00044520       SendNotifyEx               10045520 f   commctrl_ALL:notify.obj
 0001:00044598       HIDPI_StretchBitmap        10045598 f   commctrl_ALL:uihelper.obj
 0001:00044980       HIDPI_StretchIcon          10045980 f   commctrl_ALL:uihelper.obj
 0001:000449d0       HIDPI_Rectangle            100459d0 f   commctrl_ALL:uihelper.obj
 0001:00044a2c       ?HIDPI_PolylineInternal@@YAHPAUHDC__@@PBUtagPOINT@@HHH@Z 10045a2c f   commctrl_ALL:uihelper.obj
 0001:00044b60       HIDPI_Polyline             10045b60 f   commctrl_ALL:uihelper.obj
 0001:00044bb0       GetXYDragMetrics           10045bb0 f   commctrl_ALL:cutils_hpc.obj
 0001:00044bc0       SetVertDrawEdgeType        10045bc0 f   commctrl_ALL:cutils_hpc.obj
 0001:00044bc4       ?IsHpc@ControlCompatibility_t@@SAHXZ 10045bc4 f   commctrl_ALL:cutils_hpc.obj
 0001:00044bcc       ?IsPpc@ControlCompatibility_t@@SAHXZ 10045bcc f   commctrl_ALL:cutils_hpc.obj
 0001:00044bd4       ?IsTpc@ControlCompatibility_t@@SAHXZ 10045bd4 f   commctrl_ALL:cutils_hpc.obj
 0001:00044bdc       ?ForceFlatControl@ControlCompatibility_t@@SAHXZ 10045bdc f   commctrl_ALL:cutils_hpc.obj
 0001:00044be4       CCHeapAllocArraySize       10045be4 f   commctrl_ALL:mem.obj
 0001:00044c18       Alloc                      10045c18 f   commctrl_ALL:mem.obj
 0001:00044c24       ReAlloc                    10045c24 f   commctrl_ALL:mem.obj
 0001:00044c38       Free                       10045c38 f   commctrl_ALL:mem.obj
 0001:00044c50       ?DrawButtonBorder@HeaderView_t@@SAXPAUHDC__@@KPAUtagRECT@@H@Z 10045c50 f   commctrl_ALL:headerview.obj
 0001:00044c98       ?CalcOffset@HeaderView_t@@SAXHHPAH0@Z 10045c98 f   commctrl_ALL:headerview.obj
 0001:00044ca4       ?Height@HeaderView_t@@SAHHH@Z 10045ca4 f   commctrl_ALL:headerview.obj
 0001:00044cb0       ?InitializeAygUtils@AygUtils_t@@SAHXZ 10045cb0 f   commctrl_ALL:aygutils.obj
 0001:00044cd4       ?UnInitializeAygUtils@AygUtils_t@@SAHXZ 10045cd4 f   commctrl_ALL:aygutils.obj
 0001:00044cf8       ?LoadAygshellLibrary@AygUtils_t@@SAHXZ 10045cf8 f   commctrl_ALL:aygutils.obj
 0001:00044d70       ?FreeAygshellLibrary@AygUtils_t@@SAHXZ 10045d70 f   commctrl_ALL:aygutils.obj
 0001:00044e7c       ?SHSetWindowBits@AygUtils_t@@SAXPAUHWND__@@HKK@Z 10045e7c f   commctrl_ALL:aygutils.obj
 0001:00044ef0       ?SHGetFontHeight@AygUtils_t@@SAHI@Z 10045ef0 f   commctrl_ALL:aygutils.obj
 0001:00044f58       ?SHGetUiInfo@AygUtils_t@@SAHW4tagSHUIINFOTYPE@@KPAKPAX@Z 10045f58 f   commctrl_ALL:aygutils.obj
 0001:00044fd8       ?SHGradientDeInit@AygUtils_t@@SAHPAUtagSHGRADIENT@@@Z 10045fd8 f   commctrl_ALL:aygutils.obj
 0001:00045084       ?SHGradientDraw@AygUtils_t@@SAHPAUHDC__@@PAUtagSHGRADIENT@@PAUtagRECT@@@Z 10046084 f   commctrl_ALL:aygutils.obj
 0001:00045194       ?SHHandleWMActivate@AygUtils_t@@SAHPAUHWND__@@IJPAUSHACTIVATEINFO@@K@Z 10046194 f   commctrl_ALL:aygutils.obj
 0001:00045224       ?SHHandleWMSettingChange@AygUtils_t@@SAHPAUHWND__@@IJPAUSHACTIVATEINFO@@@Z 10046224 f   commctrl_ALL:aygutils.obj
 0001:000452a4       ?SHInitDialog@AygUtils_t@@SAHPAUtagSHINITDLGINFO@@@Z 100462a4 f   commctrl_ALL:aygutils.obj
 0001:0004530c       ?SHPreProcessLogFont@AygUtils_t@@SAHPAUtagLOGFONTW@@@Z 1004630c f   commctrl_ALL:aygutils.obj
 0001:00045374       ?SHSipInfo@AygUtils_t@@SAHIIPAXI@Z 10046374 f   commctrl_ALL:aygutils.obj
 0001:000453f4       ?SHSipPreference@AygUtils_t@@SAHPAUHWND__@@W4tagSIPSTATE@@@Z 100463f4 f   commctrl_ALL:aygutils.obj
 0001:00045464       ?SHRecognizeGesture@AygUtils_t@@SAKPAUtagSHRGI@@@Z 10046464 f   commctrl_ALL:aygutils.obj
 0001:000454cc       ?SHGradientInit@AygUtils_t@@SAHPAUtagSHGRADIENT@@HPBG@Z 100464cc f   commctrl_ALL:aygutils.obj
 0001:00045630       ?_GetProcFromDLL@@YAXPAPAUHINSTANCE__@@PBGPAP6AHXZ1@Z 10046630 f   commctrl_ALL:dllload.obj
 0001:00045684       QISearch                   10046684 f   commctrl_ALL:dllload.obj
 0001:000456f4       StrStrIW                   100466f4 f   commctrl_ALL:dllload.obj
 0001:0004574c       ?IsMarkupState@CMarkup@@AAAHK@Z 1004674c f i commctrl_ALL:markup.obj
 0001:00045790       ?QueryInterface@CMarkup@@UAAJABU_GUID@@PAPAX@Z 10046790 f   commctrl_ALL:markup.obj
 0001:000457a4       ?AddRef@CMarkup@@UAAKXZ    100467a4 f   commctrl_ALL:markup.obj
 0001:000457ac       ?GetCallback@CMarkup@@UAAJABU_GUID@@PAPAX@Z 100467ac f   commctrl_ALL:markup.obj
 0001:000457dc       ?SetId@CMarkup@@UAAJK@Z    100467dc f   commctrl_ALL:markup.obj
 0001:000457e8       ?GetId@CMarkup@@UAAJPAK@Z  100467e8 f   commctrl_ALL:markup.obj
 0001:000457f8       ?KillFocus@CMarkup@@UAAJXZ 100467f8 f   commctrl_ALL:markup.obj
 0001:00045830       ?GetFonts@CMarkup@@UAAJPAPAUHFONT__@@0@Z 10046830 f   commctrl_ALL:markup.obj
 0001:000458d4       ?SetFonts@CMarkup@@UAAJPAUHFONT__@@0@Z 100468d4 f   commctrl_ALL:markup.obj
 0001:000458fc       ?GetText@CMarkup@@UAAJHPAGPAK@Z 100468fc f   commctrl_ALL:markup.obj
 0001:000459f4       ?SetRenderFlags@CMarkup@@UAAJI@Z 100469f4 f   commctrl_ALL:markup.obj
 0001:00045a1c       ?SetThemeRenderFlags@CMarkup@@UAAJIPAXHHH@Z 10046a1c f   commctrl_ALL:markup.obj
 0001:00045a58       ?GetRenderFlags@CMarkup@@UAAJPAIPAPAXPAH22@Z 10046a58 f   commctrl_ALL:markup.obj
 0001:00045aa8       ?HitTest@CMarkup@@UAAJUtagPOINT@@PAH@Z 10046aa8 f   commctrl_ALL:markup.obj
 0001:00045b34       ?Add@CMarkup@@AAAHPAUTEXTBLOCK@@@Z 10046b34 f   commctrl_ALL:markup.obj
 0001:00045bac       ?FindLink@CMarkup@@ABAPAUTEXTBLOCK@@H@Z 10046bac f   commctrl_ALL:markup.obj
 0001:00045be8       ?GetLinkTextColor@@YAKPAUHDC__@@I@Z 10046be8 f   commctrl_ALL:markup.obj
 0001:00045c1c       ?GetControlRect@CMarkup@@UAAJPAUtagRECT@@@Z 10046c1c f   commctrl_ALL:markup.obj
 0001:00045cb8       ?GetLinkCount@CMarkup@@UAAJPAI@Z 10046cb8 f   commctrl_ALL:markup.obj
 0001:00045cfc       ?GetNextEnabledLink@CMarkup@@ABAHHH@Z 10046cfc f   commctrl_ALL:markup.obj
 0001:00045d64       ?GetSiblingFocusLinkIndex@CMarkup@@ABAHPAHH@Z 10046d64 f   commctrl_ALL:markup.obj
 0001:00045d9c       ?AddRect@TEXTBLOCK@@QAAXABUtagRECT@@III@Z 10046d9c f   commctrl_ALL:markup.obj
 0001:00045e14       ?FreeRects@TEXTBLOCK@@QAAXXZ 10046e14 f   commctrl_ALL:markup.obj
 0001:00045e48       ?_AssignBit@CMarkup@@CAHKAAKK@Z 10046e48 f   commctrl_ALL:markup.obj
 0001:00045e90       ?IsStringAlphaNumeric@CMarkup@@CAHPBG@Z 10046e90 f   commctrl_ALL:markup.obj
 0001:00045ed8       ?_GetNextValueDataPair@CMarkup@@CAJPAPBGPAGH1H@Z 10046ed8 f   commctrl_ALL:markup.obj
 0001:00045f94       ?IsFEChar@@YAHG@Z          10046f94 f   commctrl_ALL:markup.obj
 0001:00045fe8       ?_IsLineBreakChar@CMarkup@@CAHPBGHGPAH@Z 10046fe8 f   commctrl_ALL:markup.obj
 0001:000460e8       ?_FindLastBreakChar@CMarkup@@CAHPBGHGPAH1@Z 100470e8 f   commctrl_ALL:markup.obj
 0001:00046148       ?_FindFirstLineBreak@CMarkup@@AAAHPBGHPAH1@Z 10047148 f   commctrl_ALL:markup.obj
 0001:000461c4       ?ThemedDrawText@CMarkup@@AAAHPAUHDC__@@PBGHPAUtagRECT@@IH@Z 100471c4 f   commctrl_ALL:markup.obj
 0001:0004624c       ?GetLinkRect@CMarkup@@UAAJHPAUtagRECT@@@Z 1004724c f   commctrl_ALL:markup.obj
 0001:000462ec       ?IsNextLink@@YAJPBUIControlMarkup@@H@Z 100472ec f   commctrl_ALL:markup.obj
 0001:00046310       ?SetCallback@CMarkup@@UAAJPAUIUnknown@@@Z 10047310 f   commctrl_ALL:markup.obj
 0001:0004636c       ?IsTabbable@CMarkup@@UAAJXZ 1004736c f   commctrl_ALL:markup.obj
 0001:000463a8       ?SetLinkCursor@CMarkup@@UAAJXZ 100473a8 f   commctrl_ALL:markup.obj
 0001:000463dc       ?OnButtonDown@CMarkup@@UAAJUtagPOINT@@@Z 100473dc f   commctrl_ALL:markup.obj
 0001:0004649c       ?OnButtonUp@CMarkup@@UAAJUtagPOINT@@@Z 1004749c f   commctrl_ALL:markup.obj
 0001:00046538       ?SetLinkText@CMarkup@@UAAJHIPBG@Z 10047538 f   commctrl_ALL:markup.obj
 0001:000465b0       ?GetLinkText@CMarkup@@UAAJHIPAGPAK@Z 100475b0 f   commctrl_ALL:markup.obj
 0001:00046674       ?SetState@CMarkup@@UAAJHII@Z 10047674 f   commctrl_ALL:markup.obj
 0001:0004678c       ?GetState@CMarkup@@UAAJHIPAI@Z 1004778c f   commctrl_ALL:markup.obj
 0001:0004686c       ?Paint@CMarkup@@AAAXPAUHDC__@@PBUtagRECT@@H@Z 1004786c f   commctrl_ALL:markup.obj
 0001:00047370       ?AssignTabFocus@CMarkup@@AAAHH@Z 10048370 f   commctrl_ALL:markup.obj
 0001:000473f8       ??0CMarkup@@AAA@XZ         100483f8 f   commctrl_ALL:markup.obj
 0001:00047464       ?Markup_Create@@YAJPAUIUnknown@@KPAUHFONT__@@1ABU_GUID@@PAPAX@Z 10048464 f   commctrl_ALL:markup.obj
 0001:0004751c       ?SetFocus@CMarkup@@UAAJXZ  1004851c f   commctrl_ALL:markup.obj
 0001:0004754c       ?CalcIdealSize@CMarkup@@UAAJPAUHDC__@@IPAUtagRECT@@@Z 1004854c f   commctrl_ALL:markup.obj
 0001:00047730       ?DrawTextW@CMarkup@@UAAJPAUHDC__@@PBUtagRECT@@@Z 10048730 f   commctrl_ALL:markup.obj
 0001:00047764       ?OnKeyDown@CMarkup@@UAAJI@Z 10048764 f   commctrl_ALL:markup.obj
 0001:0004784c       ?CreateBlock@CMarkup@@CAPAUTEXTBLOCK@@PBG0H@Z 1004884c f   commctrl_ALL:markup.obj
 0001:00047920       ?_GetNextAnchorTag@CMarkup@@AAAJPAPBGPAHPAGH2H@Z 10048920 f   commctrl_ALL:markup.obj
 0001:00047b00       ?FreeBlocks@CMarkup@@AAAXXZ 10048b00 f   commctrl_ALL:markup.obj
 0001:00047b68       ?Parse@CMarkup@@AAAXPBG@Z  10048b68 f   commctrl_ALL:markup.obj
 0001:00047d8c       ?SetText@CMarkup@@UAAJPBG@Z 10048d8c f   commctrl_ALL:markup.obj
 0001:00047e28       ??1CMarkup@@AAA@XZ         10048e28 f   commctrl_ALL:markup.obj
 0001:00047e70       ?Release@CMarkup@@UAAKXZ   10048e70 f   commctrl_ALL:markup.obj
 0001:00047ea8       ?CCDrawRect@@YAXPAUHDC__@@HHHH@Z 10048ea8 f   commctrl_ALL:lvrept.obj
 0001:00047f04       ?ListView_RAfterRedraw@@YAXPAU_LV@@PAUHDC__@@@Z 10048f04 f   commctrl_ALL:lvrept.obj
 0001:00048018       ?ListView_RGetCXLabel@@YAFPAU_LV@@HPAU_LISTITEM@@PAUHDC__@@H@Z 10049018 f   commctrl_ALL:lvrept.obj
 0001:00048098       ?WPC_DrawFocusRect@@YAXPAUHDC__@@PAUtagRECT@@@Z 10049098 f   commctrl_ALL:lvrept.obj
 0001:00048134       ?ListView_CreateHeader@@YAHPAU_LV@@@Z 10049134 f   commctrl_ALL:lvrept.obj
 0001:000481a4       ?ListView_OnInsertColumn@@YAHPAU_LV@@HPBUtagLVCOLUMNW@@@Z 100491a4 f   commctrl_ALL:lvrept.obj
 0001:00048398       ?ListView_FreeColumnData@@YAHPAX0@Z 10049398 f   commctrl_ALL:lvrept.obj
 0001:000483a8       ?ListView_OnDeleteColumn@@YAHPAU_LV@@H@Z 100493a8 f   commctrl_ALL:lvrept.obj
 0001:0004844c       ?ListView_RGetColumnWidth@@YAHPAU_LV@@H@Z 1004944c f   commctrl_ALL:lvrept.obj
 0001:0004847c       ?ListView_OnGetColumn@@YAHPAU_LV@@HPAUtagLVCOLUMNW@@@Z 1004947c f   commctrl_ALL:lvrept.obj
 0001:00048530       ?ListView_OnSetColumn@@YAHPAU_LV@@HPBUtagLVCOLUMNW@@@Z 10049530 f   commctrl_ALL:lvrept.obj
 0001:00048610       ?ListView_RDestroyColumn@@YAHPAX0@Z 10049610 f   commctrl_ALL:lvrept.obj
 0001:0004862c       ?ListView_RDestroy@@YAXPAU_LV@@@Z 1004962c f   commctrl_ALL:lvrept.obj
 0001:00048654       ?ListView_RHeaderTrack@@YAXPAU_LV@@PAUtagNMHEADERW@@@Z 10049654 f   commctrl_ALL:lvrept.obj
 0001:00048794       ?ListView_AdjustColumn@@YAXPAU_LV@@H@Z 10049794 f   commctrl_ALL:lvrept.obj
 0001:00048968       ?ListView_RYHitTest@@YAHPAU_LV@@H@Z 10049968 f   commctrl_ALL:lvrept.obj
 0001:00048a6c       ?ListView_RItemHitTest@@YAHPAU_LV@@HHPAI@Z 10049a6c f   commctrl_ALL:lvrept.obj
 0001:00048c14       ?ListView_GetSubItem@@YAXPAU_LV@@HHPAU_LISTSUBITEM@@@Z 10049c14 f   commctrl_ALL:lvrept.obj
 0001:00048c6c       ?ListView_RGetTotalColumnWidth@@YAHPAU_LV@@@Z 10049c6c f   commctrl_ALL:lvrept.obj
 0001:00048cd4       ?ListView_RGetRects@@YAHPAU_LV@@HPAUtagRECT@@111@Z 10049cd4 f   commctrl_ALL:lvrept.obj
 0001:00049124       ?ListView_RXHitTest@@YAHPAU_LV@@H@Z 1004a124 f   commctrl_ALL:lvrept.obj
 0001:000491a4       ?ListView_RUpdateHeaderAndClientRect@@YAXPAU_LV@@PAUtagRECT@@PAUtagWINDOWPOS@@@Z 1004a1a4 f   commctrl_ALL:lvrept.obj
 0001:00049220       ?ListView_ROnSetFont@@YAXPAU_LV@@@Z 1004a220 f   commctrl_ALL:lvrept.obj
 0001:000492c0       ?ListView_RScroll2@@YAXPAU_LV@@HHI@Z 1004a2c0 f   commctrl_ALL:lvrept.obj
 0001:00049430       ?ListView_RIsVisible@@YAHPAU_LV@@H@Z 1004a430 f   commctrl_ALL:lvrept.obj
 0001:00049470       ?ListView_ROnEnsureVisible@@YAHPAU_LV@@HH@Z 1004a470 f   commctrl_ALL:lvrept.obj
 0001:00049600       ?ListView_RGetScrollUnitsPerLine@@YAHPAU_LV@@I@Z 1004a600 f   commctrl_ALL:lvrept.obj
 0001:00049624       ?ListView_ROnScroll@@YAXPAU_LV@@IHI@Z 1004a624 f   commctrl_ALL:lvrept.obj
 0001:0004967c       ?ListView_RRecomputeEx@@YAHPAU_LV@@PAU_DPA@@HH@Z 1004a67c f   commctrl_ALL:lvrept.obj
 0001:000496f8       ?ListView_RInitialize@@YAXPAU_LV@@H@Z 1004a6f8 f   commctrl_ALL:lvrept.obj
 0001:00049790       ?ListView_RApproximateViewRect@@YAKPAU_LV@@HHH@Z 1004a790 f   commctrl_ALL:lvrept.obj
 0001:000497e8       ?hasVertScroll@@YAHPAU_LV@@@Z 1004a7e8 f   commctrl_ALL:lvrept.obj
 0001:000498a4       ?ListView_RSetColumnWidth@@YAHPAU_LV@@HH@Z 1004a8a4 f   commctrl_ALL:lvrept.obj
 0001:00049c70       ?ListView_HeaderNotify@@YAHPAU_LV@@PAUtagNMHEADERW@@@Z 1004ac70 f   commctrl_ALL:lvrept.obj
 0001:00049f4c       ?ListView_RGetRectsEx@@YAXPAU_LV@@HHPAUtagRECT@@1@Z 1004af4c f   commctrl_ALL:lvrept.obj
 0001:0004a0f4       ?ListView_OnGetSubItemRect@@YAHPAU_LV@@HPAUtagRECT@@@Z 1004b0f4 f   commctrl_ALL:lvrept.obj
 0001:0004a1a8       ?ListView_OnSubItemHitTest@@YAHPAU_LV@@PAUtagLVHITTESTINFO@@@Z 1004b1a8 f   commctrl_ALL:lvrept.obj
 0001:0004a2d0       ?ListView_RUpdateScrollBars@@YAXPAU_LV@@@Z 1004b2d0 f   commctrl_ALL:lvrept.obj
 0001:0004a624       ?ListView_RDrawItem@@YAHPAULVDRAWITEM@@@Z 1004b624 f   commctrl_ALL:lvrept.obj
 0001:0004af90       ?ListView_SetSubItem@@YAHPAU_LV@@PBUtagLVITEMW@@@Z 1004bf90 f   commctrl_ALL:lvrept.obj
 0001:0004b1a8       ?_GetCurrentItemSize@@YAXPAU_LV@@PAH1@Z 1004c1a8 f   commctrl_ALL:lvicon.obj
 0001:0004b1d8       ?_CalcSlotRect@@YAXPAU_LV@@PAU_LISTITEM@@HHHHHPAUtagRECT@@@Z 1004c1d8 f   commctrl_ALL:lvicon.obj
 0001:0004b334       ?ListView_RefoldLabelRect@@YAXPAU_LV@@PAUtagRECT@@PAU_LISTITEM@@@Z 1004c334 f   commctrl_ALL:lvicon.obj
 0001:0004b374       ?LV_GetMaxPlacedItem@@YAHPAU_LV@@@Z 1004c374 f   commctrl_ALL:lvicon.obj
 0001:0004b3f8       ?ListView_AddViewRectBuffer@@YAXPAU_LV@@PAUtagRECT@@@Z 1004c3f8 f   commctrl_ALL:lvicon.obj
 0001:0004b43c       ?ListView_ICalcViewRect@@YAHPAU_LV@@HPAUtagRECT@@@Z 1004c43c f   commctrl_ALL:lvicon.obj
 0001:0004b548       ?NearestWorkArea@@YAHPAU_LV@@HHHHH@Z 1004c548 f   commctrl_ALL:lvicon.obj
 0001:0004b5d8       ?NearestSlot@@YAXPAU_LV@@PAU_LISTITEM@@PAH2HHPAUtagRECT@@@Z 1004c5d8 f   commctrl_ALL:lvicon.obj
 0001:0004b70c       ?ListView_CalcHitSlot@@YAHPAU_LV@@UtagPOINT@@HHH@Z 1004c70c f   commctrl_ALL:lvicon.obj
 0001:0004b878       ?ListView_RecomputeLabelSize@@YAPAUHDC__@@PAU_LV@@PAU_LISTITEM@@HPAU1@H@Z 1004c878 f   commctrl_ALL:lvicon.obj
 0001:0004bba4       ?ListView_GetViewRect2@@YAXPAU_LV@@PAUtagRECT@@HH@Z 1004cba4 f   commctrl_ALL:lvicon.obj
 0001:0004bc80       ?ListView_GetClientRectGivenViewRect@@YAKPAU_LV@@PAUtagRECT@@1@Z 1004cc80 f   commctrl_ALL:lvicon.obj
 0001:0004be38       ?ListView_GetClientRect@@YAKPAU_LV@@PAUtagRECT@@H1@Z 1004ce38 f   commctrl_ALL:lvicon.obj
 0001:0004beac       ?ArrangeIconCompare@@YAHPAU_LISTITEM@@0J@Z 1004ceac f   commctrl_ALL:lvicon.obj
 0001:0004c080       ?ListView_ComOnScroll@@YAXPAU_LV@@IHHHH@Z 1004d080 f   commctrl_ALL:lvicon.obj
 0001:0004c204       ?ListView_IOnScroll@@YAXPAU_LV@@IHI@Z 1004d204 f   commctrl_ALL:lvicon.obj
 0001:0004c248       ?ListView_IGetScrollUnitsPerLine@@YAHPAU_LV@@I@Z 1004d248 f   commctrl_ALL:lvicon.obj
 0001:0004c268       ?ListView_DoOnEditLabel@@YAXPAU_LV@@HPAG@Z 1004d268 f   commctrl_ALL:lvicon.obj
 0001:0004c3d4       ?ListView_DismissEdit@@YAHPAU_LV@@H@Z 1004d3d4 f   commctrl_ALL:lvicon.obj
 0001:0004c634       ?ListView_GetTextSelectionFlags@@YAIPAU_LV@@PAUtagLVITEMW@@I@Z 1004d634 f   commctrl_ALL:lvicon.obj
 0001:0004c668       ?ListView_DrawImage@@YAIPAU_LV@@PAUtagLVITEMW@@PAUHDC__@@HHI@Z 1004d668 f   commctrl_ALL:lvicon.obj
 0001:0004c7d0       ?ListView_IGetRects@@YAXPAU_LV@@PAU_LISTITEM@@IPAUtagRECT@@22@Z 1004d7d0 f   commctrl_ALL:lvicon.obj
 0001:0004ca28       ?ListView_GetSlotCountEx@@YAHPAU_LV@@HHPAH1@Z 1004da28 f   commctrl_ALL:lvicon.obj
 0001:0004cc1c       ?ListView_GetSlotCount@@YAHPAU_LV@@PAH1@Z 1004dc1c f   commctrl_ALL:lvicon.obj
 0001:0004cc44       ?ListView_FixIScrollPositions@@YAHPAU_LV@@HPAUtagRECT@@@Z 1004dc44 f   commctrl_ALL:lvicon.obj
 0001:0004cdd8       ?ListView_CalcMinMaxIndex@@YAXPAU_LV@@PAUtagRECT@@PAH2@Z 1004ddd8 f   commctrl_ALL:lvicon.obj
 0001:0004ce90       ?ListView_IApproximateViewRect@@YAKPAU_LV@@HHH@Z 1004de90 f   commctrl_ALL:lvicon.obj
 0001:0004cf68       ?ListView_IsCleanRect@@YAHPAU_LV@@PAUtagRECT@@HIPAHPAPAUHDC__@@@Z 1004df68 f   commctrl_ALL:lvicon.obj
 0001:0004d0a4       ?ListView_FindFreeSlot@@YAHPAU_LV@@HHHIPAH1PAPAUHDC__@@HH@Z 1004e0a4 f   commctrl_ALL:lvicon.obj
 0001:0004d248       ?ListView_SetIconPos@@YAHPAU_LV@@PAU_LISTITEM@@HH@Z 1004e248 f   commctrl_ALL:lvicon.obj
 0001:0004d37c       ?_ListView_GetRectsFromItem@@YAHPAU_LV@@HPAU_LISTITEM@@IPAUtagRECT@@222@Z 1004e37c f   commctrl_ALL:lvicon.obj
 0001:0004d540       ?_ListView_InvalidateItemPtr@@YAXPAU_LV@@HPAU_LISTITEM@@I@Z 1004e540 f   commctrl_ALL:lvicon.obj
 0001:0004d590       ?ListView_IUnstackOverlaps@@YAHPAU_LV@@PAU_DPA@@HHHPAH@Z 1004e590 f   commctrl_ALL:lvicon.obj
 0001:0004dadc       ?ListView_SnapToGrid@@YAHPAU_LV@@PAU_DPA@@@Z 1004eadc f   commctrl_ALL:lvicon.obj
 0001:0004ddd0       ?ListView_CommonArrangeGroup@@YAHPAU_LV@@HPAU_DPA@@HQAH@Z 1004edd0 f   commctrl_ALL:lvicon.obj
 0001:0004dfe8       ?ListView_IUpdateScrollBars@@YAXPAU_LV@@@Z 1004efe8 f   commctrl_ALL:lvicon.obj
 0001:0004e190       ?ListView_SetEditSize@@YAXPAU_LV@@H@Z 1004f190 f   commctrl_ALL:lvicon.obj
 0001:0004e2ac       ?ListView_IDrawItem@@YAHPAULVDRAWITEM@@@Z 1004f2ac f   commctrl_ALL:lvicon.obj
 0001:0004e788       ?ListView_IGetRectsOwnerData@@YAXPAU_LV@@HPAUtagRECT@@1PAU_LISTITEM@@H@Z 1004f788 f   commctrl_ALL:lvicon.obj
 0001:0004e914       ?ListView_IRecomputeEx@@YAHPAU_LV@@PAU_DPA@@HH@Z 1004f914 f   commctrl_ALL:lvicon.obj
 0001:0004f074       ?ListView_CommonArrangeEx@@YAHPAU_LV@@IPAU_DPA@@H@Z 10050074 f   commctrl_ALL:lvicon.obj
 0001:0004f354       ?ListView_CommonArrange@@YAHPAU_LV@@IPAU_DPA@@@Z 10050354 f   commctrl_ALL:lvicon.obj
 0001:0004f3b8       ?ListView_IScroll2@@YAXPAU_LV@@HHI@Z 100503b8 f   commctrl_ALL:lvicon.obj
 0001:0004f4a4       ?ListView_EditWndProc@@YAJPAUHWND__@@IIJ@Z 100504a4 f   commctrl_ALL:lvicon.obj
 0001:0004f818       ?ListView_OnEditLabel@@YAPAUHWND__@@PAU_LV@@HPAG@Z 10050818 f   commctrl_ALL:lvicon.obj
 0001:0004f934       ?ListView_IItemHitTest@@YAHPAU_LV@@HHPAI@Z 10050934 f   commctrl_ALL:lvicon.obj
 0001:0004fcc4       ?ListView_OnArrange@@YAHPAU_LV@@I@Z 10050cc4 f   commctrl_ALL:lvicon.obj
 0001:0004fd94       ?ListView_LApproximateViewRect@@YAKPAU_LV@@HHH@Z 10050d94 f   commctrl_ALL:lvlist.obj
 0001:0004fe18       ?ListView_LItemHitTest@@YAHPAU_LV@@HHPAI@Z 10050e18 f   commctrl_ALL:lvlist.obj
 0001:0004ff88       ?ListView_LGetRects@@YAXPAU_LV@@HPAUtagRECT@@111@Z 10050f88 f   commctrl_ALL:lvlist.obj
 0001:00050064       ?ListView_LScroll2@@YAXPAU_LV@@HHI@Z 10051064 f   commctrl_ALL:lvlist.obj
 0001:000500dc       ?ListView_LOnScroll@@YAXPAU_LV@@IHI@Z 100510dc f   commctrl_ALL:lvlist.obj
 0001:00050164       ?ListView_LGetScrollUnitsPerLine@@YAHPAU_LV@@I@Z 10051164 f   commctrl_ALL:lvlist.obj
 0001:0005016c       ?ListView_LCalcViewItem@@YAHPAU_LV@@HH@Z 1005116c f   commctrl_ALL:lvlist.obj
 0001:0005020c       ?LV_GetNewColWidth@@YAHPAU_LV@@HH@Z 1005120c f   commctrl_ALL:lvlist.obj
 0001:000503a8       ?ListView_MaybeResizeListColumns@@YAHPAU_LV@@HH@Z 100513a8 f   commctrl_ALL:lvlist.obj
 0001:000503cc       ?ListView_ResizeListColumns@@YAHPAU_LV@@@Z 100513cc f   commctrl_ALL:lvlist.obj
 0001:00050434       ?ListView_LDrawItem@@YAHPAULVDRAWITEM@@@Z 10051434 f   commctrl_ALL:lvlist.obj
 0001:000506d8       ?ListView_LUpdateScrollBars@@YAXPAU_LV@@@Z 100516d8 f   commctrl_ALL:lvlist.obj
 0001:00050870       ?ListView_SGetRectsOwnerData@@YAXPAU_LV@@HPAUtagRECT@@1PAU_LISTITEM@@H@Z 10051870 f   commctrl_ALL:lvsmall.obj
 0001:00050940       ?ListView_SGetRects@@YAXPAU_LV@@PAU_LISTITEM@@PAUtagRECT@@22@Z 10051940 f   commctrl_ALL:lvsmall.obj
 0001:00050a84       ?ListView_DoLookupString@@YAHPAU_LV@@PBGIHH@Z 10051a84 f   commctrl_ALL:lvsmall.obj
 0001:00050b80       ?ListView_LookupString@@YAHPAU_LV@@PBGIH@Z 10051b80 f   commctrl_ALL:lvsmall.obj
 0001:00050bfc       ?ListView_SItemHitTest@@YAHPAU_LV@@HHPAI@Z 10051bfc f   commctrl_ALL:lvsmall.obj
 0001:00050ecc       ??0CListGroup@@QAA@XZ      10051ecc f   commctrl_ALL:lvgroup.obj
 0001:00050f20       ?LeftWidth@CListGroup@@QAAHPAU_LV@@@Z 10051f20 f   commctrl_ALL:lvgroup.obj
 0001:00050f30       ?HeaderHeight@CListGroup@@QAAHPAU_LV@@@Z 10051f30 f   commctrl_ALL:lvgroup.obj
 0001:00050f70       ?FooterHeight@CListGroup@@QAAHPAU_LV@@@Z 10051f70 f   commctrl_ALL:lvgroup.obj
 0001:00050fb0       ?TopHeight@CListGroup@@QAAHPAU_LV@@@Z 10051fb0 f   commctrl_ALL:lvgroup.obj
 0001:00050fe8       ?BottomHeight@CListGroup@@QAAHPAU_LV@@@Z 10051fe8 f   commctrl_ALL:lvgroup.obj
 0001:00051020       ?LoseItems@CListGroup@@QAAHXZ 10052020 f   commctrl_ALL:lvgroup.obj
 0001:00051078       ?RemoveItem@CListGroup@@QAAHPAU_LISTITEM@@@Z 10052078 f   commctrl_ALL:lvgroup.obj
 0001:000510d0       ?GetGroupInfo@CListGroup@@QAAHPAU_LV@@PAUtagLVGROUP@@@Z 100520d0 f   commctrl_ALL:lvgroup.obj
 0001:000511d0       ?Visible@CListGroup@@QAAHXZ 100521d0 f   commctrl_ALL:lvgroup.obj
 0001:000511f4       ?PaintCollapse@CListGroup@@QAAXPAU_LV@@PAUtagNMLVCUSTOMDRAW@@@Z 100521f4 f   commctrl_ALL:lvgroup.obj
 0001:00051278       ?SetupCustomDraw@CListGroup@@QAAXPAU_LV@@PAUHDC__@@PAUtagRECT@@PAUtagNMLVCUSTOMDRAW@@@Z 10052278 f   commctrl_ALL:lvgroup.obj
 0001:00051304       ?GetItem@CListGroup@@QAAPAU_LISTITEM@@H@Z 10052304 f   commctrl_ALL:lvgroup.obj
 0001:00051324       ?InsertItem@CListGroup@@QAAHHPAU_LISTITEM@@@Z 10052324 f   commctrl_ALL:lvgroup.obj
 0001:0005135c       ?ComputeHeaders@CListGroup@@QAAXPAU_LV@@H@Z 1005235c f   commctrl_ALL:lvgroup.obj
 0001:00051460       ?Compute@CListGroup@@QAAXPAU_LV@@HPAH1@Z 10052460 f   commctrl_ALL:lvgroup.obj
 0001:00051784       ?RequireDPA@CListGroupManager@@AAAHXZ 10052784 f   commctrl_ALL:lvgroup.obj
 0001:000517b8       ?FindGroupFromId@CListGroupManager@@QAAPAVCListGroup@@HPAH@Z 100527b8 f   commctrl_ALL:lvgroup.obj
 0001:0005181c       ?FindFirstVisibleGroup@CListGroupManager@@QAAPAVCListGroup@@XZ 1005281c f   commctrl_ALL:lvgroup.obj
 0001:00051874       ?pfnGroupSort@@YAHPAX0J@Z  10052874 f   commctrl_ALL:lvgroup.obj
 0001:000518a8       ?SortGroups@CListGroupManager@@QAAHPAU_LV@@P6AHHHPAX@Z1@Z 100528a8 f   commctrl_ALL:lvgroup.obj
 0001:00051940       ?GetGroup@CListGroupManager@@QAAPAVCListGroup@@H@Z 10052940 f   commctrl_ALL:lvgroup.obj
 0001:00051958       ?ClearGroupItems@CListGroupManager@@QAAHXZ 10052958 f   commctrl_ALL:lvgroup.obj
 0001:000519a4       ?IsIDUnique@CListGroupManager@@QAAHH@Z 100529a4 f   commctrl_ALL:lvgroup.obj
 0001:000519fc       ?FixupGroupsAfterSorting@CListGroupManager@@QAAHPAU_LV@@@Z 100529fc f   commctrl_ALL:lvgroup.obj
 0001:00051b50       ?EnsureGroupIds@CListGroupManager@@QAAXPAU_LV@@@Z 10052b50 f   commctrl_ALL:lvgroup.obj
 0001:00051be4       ??1CListGroup@@QAA@XZ      10052be4 f   commctrl_ALL:lvgroup.obj
 0001:00051c1c       ?Height@CListGroup@@QAAHPAU_LV@@@Z 10052c1c f   commctrl_ALL:lvgroup.obj
 0001:00051c74       ?BodyHeight@CListGroup@@QAAHPAU_LV@@@Z 10052c74 f   commctrl_ALL:lvgroup.obj
 0001:00051cc4       ?PaintHeader@CListGroup@@QAAXPAU_LV@@KPAUtagNMLVCUSTOMDRAW@@@Z 10052cc4 f   commctrl_ALL:lvgroup.obj
 0001:00051db8       ?PaintFooter@CListGroup@@QAAXPAU_LV@@KPAUtagNMLVCUSTOMDRAW@@@Z 10052db8 f   commctrl_ALL:lvgroup.obj
 0001:00051f18       ?PaintItems@CListGroup@@QAAXPAU_LV@@PAUHDC__@@PAUtagRECT@@@Z 10052f18 f   commctrl_ALL:lvgroup.obj
 0001:00051fdc       ?Paint@CListGroup@@QAAXPAU_LV@@PAUHDC__@@PAUtagRECT@@@Z 10052fdc f   commctrl_ALL:lvgroup.obj
 0001:00052130       ?HitTest@CListGroup@@QAAHPAU_LV@@HHPAI@Z 10053130 f   commctrl_ALL:lvgroup.obj
 0001:000523c8       ?MoveGroup@CListGroupManager@@QAAHPAU_LV@@HH@Z 100533c8 f   commctrl_ALL:lvgroup.obj
 0001:0005248c       ?RemoveGroup@CListGroupManager@@QAAHPAU_LV@@H@Z 1005348c f   commctrl_ALL:lvgroup.obj
 0001:0005250c       ?Paint@CListGroupManager@@QAAXPAU_LV@@PAUHDC__@@PAUtagRECT@@@Z 1005350c f   commctrl_ALL:lvgroup.obj
 0001:0005257c       ?UpdateViewRect@CListGroupManager@@QAAXPAU_LV@@PAUtagRECT@@@Z 1005357c f   commctrl_ALL:lvgroup.obj
 0001:00052680       ?RelayoutGroups@CListGroupManager@@QAAXPAU_LV@@@Z 10053680 f   commctrl_ALL:lvgroup.obj
 0001:00052720       ?ComputeGroups@CListGroupManager@@QAAXPAU_LV@@HPAH1@Z 10053720 f   commctrl_ALL:lvgroup.obj
 0001:000527a0       ?HitTest@CListGroupManager@@QAAHPAU_LV@@HHPAI@Z 100537a0 f   commctrl_ALL:lvgroup.obj
 0001:00052830       ?SetGroupInfo@CListGroup@@QAAHPAU_LV@@PAUtagLVGROUP@@@Z 10053830 f   commctrl_ALL:lvgroup.obj
 0001:00052970       ?DestroyGroups@@YAHPAX0@Z  10053970 f   commctrl_ALL:lvgroup.obj
 0001:00052994       ?RemoveAll@CListGroupManager@@QAAXPAU_LV@@@Z 10053994 f   commctrl_ALL:lvgroup.obj
 0001:000529e4       ?ListView_CreateGroup@@YAPAVCListGroup@@PAU_LV@@PAUtagLVGROUP@@@Z 100539e4 f   commctrl_ALL:lvgroup.obj
 0001:00052a68       ?InsertGroup@CListGroupManager@@QAAHPAU_LV@@HPAUtagLVGROUP@@@Z 10053a68 f   commctrl_ALL:lvgroup.obj
 0001:00052b04       ?InsertGroupSorted@CListGroupManager@@QAAHPAU_LV@@PAUtagLVINSERTGROUPSORTED@@@Z 10053b04 f   commctrl_ALL:lvgroup.obj
 0001:00052bcc       ??1SelRange_t@@QAA@XZ      10053bcc f   commctrl_ALL:selrange.obj
 0001:00052be4       ?Enlarge@SelRange_t@@IAAHXZ 10053be4 f   commctrl_ALL:selrange.obj
 0001:00052c60       ?Shrink@SelRange_t@@IAAHXZ 10053c60 f   commctrl_ALL:selrange.obj
 0001:00052d0c       ?InsertRange@SelRange_t@@IAAHJJJ@Z 10053d0c f   commctrl_ALL:selrange.obj
 0001:00052d90       ?RemoveRanges@SelRange_t@@IAAJJJ@Z 10053d90 f   commctrl_ALL:selrange.obj
 0001:00052e3c       ?FindValue@SelRange_t@@IAAHJPAJ@Z 10053e3c f   commctrl_ALL:selrange.obj
 0001:00052ec4       ?IncludeRange@SelRange_t@@QAAJJJ@Z 10053ec4 f   commctrl_ALL:selrange.obj
 0001:00053030       ?ExcludeRange@SelRange_t@@QAAJJJ@Z 10054030 f   commctrl_ALL:selrange.obj
 0001:00053160       ?Clear@SelRange_t@@QAAHXZ  10054160 f   commctrl_ALL:selrange.obj
 0001:000531e4       ?IsSelected@SelRange_t@@QAAHJ@Z 100541e4 f   commctrl_ALL:selrange.obj
 0001:00053210       ?InsertItem@SelRange_t@@QAAHJ@Z 10054210 f   commctrl_ALL:selrange.obj
 0001:000532e8       ?RemoveItem@SelRange_t@@QAAHJPAH@Z 100542e8 f   commctrl_ALL:selrange.obj
 0001:00053408       ?NextSelected@SelRange_t@@QAAJJ@Z 10054408 f   commctrl_ALL:selrange.obj
 0001:00053464       ??0SelRange_t@@QAA@XZ      10054464 f   commctrl_ALL:selrange.obj
 0001:000534d0       ?DrawBorderEdges@@YAXPAUHDC__@@PAUtagRECT@@PAUHBRUSH__@@I@Z 100544d0 f   commctrl_ALL:wmdraw
 0001:000535e0       ?ListView_WndPreproc@@YAHPAU_LV@@PAUHWND__@@IIJPAJ@Z 100545e0 f   commctrl_ALL:lvlogic.obj
 0001:0005363c       ?ListView_OnKeyPreproc@@YAHPAU_LV@@IHPAH@Z 1005463c f   commctrl_ALL:lvlogic.obj
 0001:000537a4       ?ListView_LayoutUpDownArrow@@YAHIHPAH@Z 100547a4 f   commctrl_ALL:lvlogic.obj
 0001:000537ac       ?LV_SetFocusSelFlags@@YAIPAU_LV@@H@Z 100547ac f   commctrl_ALL:lvlogic.obj
 0001:000537c4       ?LV_ScrollAPage@@YAXPAU_LV@@I@Z 100547c4 f   commctrl_ALL:lvlogic.obj
 0001:0005385c       ?LV_OnPuntKey@@YAHH@Z      1005485c f   commctrl_ALL:lvlogic.obj
 0001:00053864       ?DoOldFocusRect@@YAHH@Z    10054864 f   commctrl_ALL:lvlogic.obj
 0001:0005386c       ?LV_SetDrawImageStyle@@YAXPAU_LV@@PAI@Z 1005486c f   commctrl_ALL:lvlogic.obj
 0001:0005387c       ?ListView_HeaderNotifyPreproc@@YAHPAU_LV@@PAUtagNMHEADERW@@PAH@Z 1005487c f   commctrl_ALL:lvlogic.obj
 0001:000538c8       ?LV_CreateHeaderWnd@@YAPAUHWND__@@PAU1@K@Z 100548c8 f   commctrl_ALL:lvlogic.obj
 0001:00053918       ?LV_RSetScrollBarsPos@@YAXPAUHWND__@@UtagWINDOWPOS@@@Z 10054918 f   commctrl_ALL:lvlogic.obj
 0001:0005396c       ?LV_CalcRightArea@@YAXPAUtagRECT@@HUtagSIZE@@@Z 1005496c f   commctrl_ALL:lvlogic.obj
 0001:00053994       ?ListView_ICalcDistanceInDirection@@YAHPAU_LV@@PAUtagPOINT@@11I@Z 10054994 f   commctrl_ALL:lvlogic.obj
 0001:000539dc       ?ListView_DeleteCache@@YAXPAU_LV@@@Z 100549dc f   commctrl_ALL:lvcache.obj
 0001:00053a24       ?ListView_InvalidateCache@@YAXPAU_LV@@@Z 10054a24 f   commctrl_ALL:lvcache.obj
 0001:00053a8c       ?ListView_CacheGetItem@@YAHPAU_LV@@PAUtagLVITEMW@@@Z 10054a8c f   commctrl_ALL:lvcache.obj
 0001:00053bec       ?ListView_CacheSetItem@@YAHPAU_LV@@PAUtagLVITEMW@@@Z 10054bec f   commctrl_ALL:lvcache.obj
 0001:00053de8       ?ListView_CreateCache@@YAXPAU_LV@@@Z 10054de8 f   commctrl_ALL:lvcache.obj
 0001:00053e7c       DrawPlusMinus              10054e7c f   commctrl_ALL:lvtvcommon.obj
 0001:00054068       SameChars                  10055068 f   commctrl_ALL:lvtvcommon.obj
 0001:00054094       CreateCheckBoxImagelist    10055094 f   commctrl_ALL:lvtvcommon.obj
 0001:00054270       CreateEditInPlaceWindow    10055270 f   commctrl_ALL:lvtvcommon.obj
 0001:000543e0       SetEditInPlaceSize         100553e0 f   commctrl_ALL:lvtvcommon.obj
 0001:000546bc       RescrollEditWindow         100556bc f   commctrl_ALL:lvtvcommon.obj
 0001:000546ec       ?TV_GetBackgroundBrush@@YAXPAU_TREE@@PAUHDC__@@@Z 100556ec f   commctrl_ALL:tvpaint.obj
 0001:00054750       ?TV_DrawDottedLine@@YAXPAUHDC__@@HHHH@Z 10055750 f   commctrl_ALL:tvpaint.obj
 0001:000547f4       ?TV_CreateIndentBmps@@YAXPAU_TREE@@@Z 100557f4 f   commctrl_ALL:tvpaint.obj
 0001:00054ce4       ?TV_GetItem@@YAXPAU_TREE@@PAU_TREEITEM@@IPAUtagTVITEMW@@@Z 10055ce4 f   commctrl_ALL:tvpaint.obj
 0001:00054f44       ?TV_ShouldItemDrawBlue@@YAHPAU_TREE@@PAUtagTVITEMW@@I@Z 10055f44 f   commctrl_ALL:tvpaint.obj
 0001:00054f88       ?TV_ShouldItemDrawGray@@YAHPAU_TREE@@PAUtagTVITEMW@@I@Z 10055f88 f   commctrl_ALL:tvpaint.obj
 0001:00054fd8       ?TV_DrawItem@@YAXPAU_TREE@@PAU_TREEITEM@@PAUHDC__@@HHI@Z 10055fd8 f   commctrl_ALL:tvpaint.obj
 0001:00055814       ?TV_DrawTree@@YAXPAU_TREE@@PAUHDC__@@HPAUtagRECT@@@Z 10056814 f   commctrl_ALL:tvpaint.obj
 0001:00055a20       ?TV_Paint@@YAXPAU_TREE@@PAUHDC__@@@Z 10056a20 f   commctrl_ALL:tvpaint.obj
 0001:00055ad0       ?TV_CreateDragImage@@YAPAU_IMAGELIST@@PAU_TREE@@PAU_TREEITEM@@@Z 10056ad0 f   commctrl_ALL:tvpaint.obj
 0001:00055d14       ?TV_UpdateShownIndexes@@YAIPAU_TREE@@PAU_TREEITEM@@@Z 10056d14 f   commctrl_ALL:tvscroll.obj
 0001:00055d74       ?TV_CountVisibleDescendants@@YAIPAU_TREEITEM@@@Z 10056d74 f   commctrl_ALL:tvscroll.obj
 0001:00055dc0       ?TV_ScrollItems@@YAXPAU_TREE@@HHH@Z 10056dc0 f   commctrl_ALL:tvscroll.obj
 0001:00055e38       ?TV_ScrollBelow@@YAIPAU_TREE@@PAU_TREEITEM@@HH@Z 10056e38 f   commctrl_ALL:tvscroll.obj
 0001:00055ef8       ?TV_RecomputeMaxWidth@@YAGPAU_TREE@@@Z 10056ef8 f   commctrl_ALL:tvscroll.obj
 0001:00055f6c       ?TV_GetItemTextWidth@@YAGPAUHDC__@@PAU_TREE@@PAU_TREEITEM@@@Z 10056f6c f   commctrl_ALL:tvscroll.obj
 0001:00056028       ?TV_ComputeItemWidth@@YAXPAU_TREE@@PAU_TREEITEM@@PAUHDC__@@@Z 10057028 f   commctrl_ALL:tvscroll.obj
 0001:000560fc       ?TV_IsShowing@@YAHPAU_TREEITEM@@@Z 100570fc f   commctrl_ALL:tvscroll.obj
 0001:0005612c       ?TV_GetNext@@YAPAU_TREEITEM@@PAU1@@Z 1005712c f   commctrl_ALL:tvscroll.obj
 0001:00056164       ?TV_RecomputeItemWidths@@YAXPAU_TREE@@@Z 10057164 f   commctrl_ALL:tvscroll.obj
 0001:00056208       ?TV_SetLeft@@YAHPAU_TREE@@H@Z 10057208 f   commctrl_ALL:tvscroll.obj
 0001:000562b0       ?TV_GetShownIndexItem@@YAPAU_TREEITEM@@PAU1@I@Z 100572b0 f   commctrl_ALL:tvscroll.obj
 0001:000562fc       ?TV_SmoothSetTopItem@@YAHPAU_TREE@@II@Z 100572fc f   commctrl_ALL:tvscroll.obj
 0001:000563ec       ?TV_CalcScrollBars@@YAHPAU_TREE@@@Z 100573ec f   commctrl_ALL:tvscroll.obj
 0001:00056574       ?TV_HorzScroll@@YAHPAU_TREE@@II@Z 10057574 f   commctrl_ALL:tvscroll.obj
 0001:000566bc       ?TV_VertScroll@@YAHPAU_TREE@@II@Z 100576bc f   commctrl_ALL:tvscroll.obj
 0001:00056798       ?TV_DefCompare@@YAHPAUTVCOMPARE@@0J@Z 10057798 f   commctrl_ALL:tvscroll.obj
 0001:000567a4       ?TV_CompareItems@@YAHPAUTVCOMPARE@@0J@Z 100577a4 f   commctrl_ALL:tvscroll.obj
 0001:000567d4       ?TV_SortCB@@YAHPAU_TREE@@PAUtagTVSORTCB@@HP6AHPAX2J@Z@Z 100577d4 f   commctrl_ALL:tvscroll.obj
 0001:00056b8c       ?TV_SortChildrenCB@@YAHPAU_TREE@@PAUtagTVSORTCB@@H@Z 10057b8c f   commctrl_ALL:tvscroll.obj
 0001:00056b98       ?TV_SortChildren@@YAHPAU_TREE@@PAU_TREEITEM@@H@Z 10057b98 f   commctrl_ALL:tvscroll.obj
 0001:00056bbc       ?TV_ScrollBarsAfterAdd@@YAHPAU_TREE@@PAU_TREEITEM@@@Z 10057bbc f   commctrl_ALL:tvscroll.obj
 0001:00056c74       ?TV_ScrollBarsAfterRemove@@YAHPAU_TREE@@PAU_TREEITEM@@@Z 10057c74 f   commctrl_ALL:tvscroll.obj
 0001:00056d48       ?TV_ScrollBarsAfterExpandCollapse@@YAHPAU_TREE@@PAU_TREEITEM@@I@Z 10057d48 f   commctrl_ALL:tvscroll.obj
 0001:00056e40       ?TV_ScrollBarsAfterSetWidth@@YAHPAU_TREE@@PAU_TREEITEM@@@Z 10057e40 f   commctrl_ALL:tvscroll.obj
 0001:00056ebc       ?TV_ScrollVertIntoView@@YAHPAU_TREE@@PAU_TREEITEM@@@Z 10057ebc f   commctrl_ALL:tvscroll.obj
 0001:00056f20       ?TV_ScrollIntoView@@YAHPAU_TREE@@PAU_TREEITEM@@@Z 10057f20 f   commctrl_ALL:tvscroll.obj
 0001:00056fac       ?TV_DeleteItemRecurse@@YAXPAU_TREE@@PAU_TREEITEM@@I@Z 10057fac f   commctrl_ALL:tvmem.obj
 0001:00057180       ?TV_DeleteItem@@YAHPAU_TREE@@PAU_TREEITEM@@I@Z 10058180 f   commctrl_ALL:tvmem.obj
 0001:000572a8       ?TV_CreateRoot@@YAHPAU_TREE@@@Z 100582a8 f   commctrl_ALL:tvmem.obj
 0001:000572f4       ?TV_InsertItem@@YAPAU_TREEITEM@@PAU_TREE@@PAUtagTVINSERTSTRUCTW@@@Z 100582f4 f   commctrl_ALL:tvmem.obj
 0001:00057734       ?TV_DestroyTree@@YAXPAU_TREE@@@Z 10058734 f   commctrl_ALL:tvmem.obj
 0001:00057800       ?TV_OnCreate@@YAJPAUHWND__@@PAUtagCREATESTRUCTW@@@Z 10058800 f   commctrl_ALL:tvmem.obj
 0001:0005793c       ?TV_KeyDownPreproc@@YAHPAU_TREE@@PAIPAPAU_TREEITEM@@PAH3@Z 1005893c f   commctrl_ALL:treeview_hpc.obj
 0001:00057a1c       ?TV_GetDlgCode@@YAGPAU_TREE@@PAUtagMSG@@@Z 10058a1c f   commctrl_ALL:treeview_hpc.obj
 0001:00057a24       ?GetPageDialogStyle@@YAKK@Z 10058a24 f   commctrl_ALL:prpsht_hpc.obj
 0001:00057a40       ?GetDialogID@@YAHPAUPROPDATA@@@Z 10058a40 f   commctrl_ALL:prpsht_hpc.obj
 0001:00057a54       ?InitScrolling@@YAHPAUHWND__@@@Z 10058a54 f   commctrl_ALL:prpsht_hpc.obj
 0001:00057a5c       ?WndPreproc@UpDown_t@@AAAHPAUHWND__@@IIJPAJ@Z 10058a5c f   commctrl_ALL:updown_hpc.obj
 0001:00057a64       ?ArrowKeyPreproc@UpDown_t@@AAAHPAUHWND__@@IIJPAJ@Z 10058a64 f   commctrl_ALL:updown_hpc.obj
 0001:00057ba4       ?UD_GetAnchorWidth@@YAXKHHHPAH@Z 10058ba4 f   commctrl_ALL:updown_hpc.obj
 0001:00057bfc       ?HasBorder@UpDown_t@@AAAHXZ 10058bfc f   commctrl_ALL:updown_hpc.obj
 0001:00057c04       ?DrawBorder@UpDown_t@@AAAXPAUHDC__@@PAUtagRECT@@H@Z 10058c04 f   commctrl_ALL:updown_hpc.obj
 0001:00057c08       ?Init@UpdownView_t@@SAXXZ  10058c08 f   commctrl_ALL:updownview.obj
 0001:00057c0c       ?HorzDrawSettings@UpdownView_t@@SAXKHPAUtagRECT@@HHIIHHHIPAI010@Z 10058c0c f   commctrl_ALL:updownview.obj
 0001:00057cfc       ?VertDrawSettings@UpdownView_t@@SAXKHPAUtagRECT@@HHIIHHHIPAI010@Z 10058cfc f   commctrl_ALL:updownview.obj
 0001:00057dec       ?SetSunkenBorder@UpdownView_t@@SAXKPAI@Z 10058dec f   commctrl_ALL:updownview.obj
 0001:00057e1c       ?DrawUpDownAsset@UpdownView_t@@SAHPAUHDC__@@PAUtagRECT@@H@Z 10058e1c f   commctrl_ALL:updownview.obj
 0001:00057e28       ?SubclassDeath@@YAJPAUHWND__@@IIJ@Z 10058e28 f   commctrl_ALL:subclass.obj
 0001:00057e74       ?GetSubclassHeader@@YAPAU_SUBCLASS_HEADER@@PAUHWND__@@@Z 10058e74 f   commctrl_ALL:subclass.obj
 0001:00057f00       ?SetSubclassHeader@@YAHPAUHWND__@@PAU_SUBCLASS_HEADER@@PAU_SUBCLASS_FRAME@@@Z 10058f00 f   commctrl_ALL:subclass.obj
 0001:00057fa4       ?ReAllocSubclassHeader@@YAPAU_SUBCLASS_HEADER@@PAUHWND__@@PAU1@I@Z 10058fa4 f   commctrl_ALL:subclass.obj
 0001:00058034       ?CallOriginalWndProc@@YAJPAUHWND__@@IIJIK@Z 10059034 f   commctrl_ALL:subclass.obj
 0001:00058060       ?DetachSubclassHeader@@YAXPAUHWND__@@PAU_SUBCLASS_HEADER@@H@Z 10059060 f   commctrl_ALL:subclass.obj
 0001:00058114       ?PurgeSingleCallNode@@YAXPAUHWND__@@PAU_SUBCLASS_HEADER@@@Z 10059114 f   commctrl_ALL:subclass.obj
 0001:000581e0       ?CompactSubclassHeader@@YAXPAUHWND__@@PAU_SUBCLASS_HEADER@@@Z 100591e0 f   commctrl_ALL:subclass.obj
 0001:00058254       ?FindCallRecord@@YAPAUSUBCLASS_CALL@@PAU_SUBCLASS_HEADER@@P6AJPAUHWND__@@IIJIK@ZI@Z 10059254 f   commctrl_ALL:subclass.obj
 0001:00058294       GetWindowSubclass          10059294 f   commctrl_ALL:subclass.obj
 0001:000582fc       RemoveWindowSubclass       100592fc f   commctrl_ALL:subclass.obj
 0001:0005839c       ?EnterSubclassFrame@@YAXPAU_SUBCLASS_HEADER@@PAU_SUBCLASS_FRAME@@@Z 1005939c f i commctrl_ALL:subclass.obj
 0001:000583e0       ?EnterSubclassCallback@@YAIPAU_SUBCLASS_HEADER@@PAU_SUBCLASS_FRAME@@PAUSUBCLASS_CALL@@@Z 100593e0 f   commctrl_ALL:subclass.obj
 0001:00058460       ?CallNextSubclassProc@@YAJPAU_SUBCLASS_HEADER@@PAUHWND__@@IIJ@Z 10059460 f   commctrl_ALL:subclass.obj
 0001:00058560       DefSubclassProc            10059560 f   commctrl_ALL:subclass.obj
 0001:0005860c       ?MasterSubclassProc@@YAJPAUHWND__@@IIJ@Z 1005960c f   commctrl_ALL:subclass.obj
 0001:00058788       ?AttachSubclassHeader@@YAPAU_SUBCLASS_HEADER@@PAUHWND__@@@Z 10059788 f   commctrl_ALL:subclass.obj
 0001:00058844       SetWindowSubclass          10059844 f   commctrl_ALL:subclass.obj
 0001:00058928       ??0RleFile_t@@QAA@XZ       10059928 f   commctrl_ALL:rlefile.obj
 0001:000589b8       ??1RleFile_t@@QAA@XZ       100599b8 f   commctrl_ALL:rlefile.obj
 0001:000589d0       ?LoadFile@RleFile_t@@KAPAXPBGPAK@Z 100599d0 f   commctrl_ALL:rlefile.obj
 0001:00058a84       ?Close@RleFile_t@@QAAHXZ   10059a84 f   commctrl_ALL:rlefile.obj
 0001:00058af8       ?ChangeColor@RleFile_t@@QAAHKK@Z 10059af8 f   commctrl_ALL:rlefile.obj
 0001:00058b04       ?Seek@RleFile_t@@QAAHH@Z   10059b04 f   commctrl_ALL:rlefile.obj
 0001:00058c90       ?DecodeRle@RleFile_t@@KAXPAUtagBITMAPINFOHEADER@@PAX1@Z 10059c90 f   commctrl_ALL:rlefile.obj
 0001:00058d54       ?Init@RleFile_t@@IAAHPAX0K@Z 10059d54 f   commctrl_ALL:rlefile.obj
 0001:000590c4       ?Draw@RleFile_t@@QAAHPAUHDC__@@HHH@Z 1005a0c4 f   commctrl_ALL:rlefile.obj
 0001:000591f0       ?OpenFromFile@RleFile_t@@QAAHPBG@Z 1005a1f0 f   commctrl_ALL:rlefile.obj
 0001:00059244       ?OpenFromResource@RleFile_t@@QAAHPAUHINSTANCE__@@PBG1@Z 1005a244 f   commctrl_ALL:rlefile.obj
 0001:000592b8       ?Paint@RleFile_t@@QAAHPAUHDC__@@HHHHH@Z 1005a2b8 f   commctrl_ALL:rlefile.obj
 0001:000593d8       ?CapEditWndPreproc@@YAHPAUHWND__@@IPAIJPAJ@Z 1005a3d8 f   commctrl_ALL:gcontrol_hpc.obj
 0001:0005952c       BoxSelectCleanup           1005a52c f   commctrl_ALL:boxsel.obj
 0001:00059554       ShowTooltip                1005a554 f   commctrl_ALL:boxsel.obj
 0001:000595c4       ?DPShowPicker@@YAXPAUtagDATEPICK@@H@Z 1005a5c4 f   commctrl_ALL:commctrlrc_stubs.obj
 0001:000595c8       ?InitUI@@YAXXZ             1005a5c8 f   commctrl_ALL:commctrlrc_stubs.obj
 0001:000595cc       ?CreateProgressBarUI@UIFactory@@QBAPAUIProgressBarUI@@PAUHWND__@@@Z 1005a5cc f   commctrl_ALL:commctrlrc_stubs.obj
 0001:000595f4       ?CreateMonthCalUI@UIFactory@@QBAPAUIMonthCalUI@@PAUHWND__@@@Z 1005a5f4 f   commctrl_ALL:commctrlrc_stubs.obj
 0001:0005961c       ?CreateTrackBarUI@UIFactory@@QBAPAUITrackBarUI@@PAUHWND__@@@Z 1005a61c f   commctrl_ALL:commctrlrc_stubs.obj
 0001:00059644       ?Init@CommCtrlView_t@@SAXPAX@Z 1005a644 f   commctrl_ALL:commctrlview.obj
 0001:00059670       ?Uninit@CommCtrlView_t@@SAXXZ 1005a670 f   commctrl_ALL:commctrlview.obj
 0001:00059674       ?LIncrWord@@YAJPAIJHH@Z    1005a674 f   commctrl_ALL:scdttime.obj
 0001:000596d4       ?CmpDate@@YAHPAUCALDATETIME@@0@Z 1005a6d4 f   commctrl_ALL:scdttime.obj
 0001:00059764       ?CmpSystemtime@@YAHPAUCALDATETIME@@0@Z 1005a764 f   commctrl_ALL:scdttime.obj
 0001:00059830       ?DaysBetweenDates@@YAKPAU_SYSTEMTIME@@0@Z 1005a830 f   commctrl_ALL:scdttime.obj
 0001:000599c4       ?IsLeapYear@@YAHG@Z        1005a9c4 f   commctrl_ALL:scdttime.obj
 0001:00059a2c       ?DaysToDateInYear@@YAKPBU_SYSTEMTIME@@@Z 1005aa2c f   commctrl_ALL:scdttime.obj
 0001:00059a64       ?DaysToDate@@YAKPBU_SYSTEMTIME@@@Z 1005aa64 f   commctrl_ALL:scdttime.obj
 0001:00059abc       ?DowFromDate@@YAKPBU_SYSTEMTIME@@@Z 1005aabc f   commctrl_ALL:scdttime.obj
 0001:00059aec       ?GetDaysForMonth@@YAHKHHI@Z 1005aaec f   commctrl_ALL:scdttime.obj
 0001:00059b6c       ?GetWeekNumber@@YAHPAUCALDATETIME@@HH@Z 1005ab6c f   commctrl_ALL:scdttime.obj
 0001:00059b90       ?IsValidDate@@YAHPBUCALDATETIME@@@Z 1005ab90 f   commctrl_ALL:scdttime.obj
 0001:00059be0       ?IsValidTime@@YAHPBUCALDATETIME@@@Z 1005abe0 f   commctrl_ALL:scdttime.obj
 0001:00059c0c       ?IsValidSystemtime@@YAHPBUCALDATETIME@@@Z 1005ac0c f   commctrl_ALL:scdttime.obj
 0001:00059c90       ?IncrSystemTime@@YAXPAUCALDATETIME@@0JJ@Z 1005ac90 f   commctrl_ALL:scdttime.obj
 0001:00059f60       ?MCHandleTimer@@YAJPAUtagMONTHCAL@@I@Z 1005af60 f   commctrl_ALL:monthcal_hpc.obj
 0001:0005a04c       ?DPLBD_MCCreateWindow@@YAPAUHWND__@@PBGPAUtagRECT@@PAU1@@Z 1005b04c f   commctrl_ALL:monthcal_hpc.obj
 0001:0005a0c4       ?DPGetUpDownStyle@@YAKK@Z  1005b0c4 f   commctrl_ALL:monthcal_hpc.obj
 0001:0005a0d0       ?DPIsReadOnly@@YAHK@Z      1005b0d0 f   commctrl_ALL:monthcal_hpc.obj
 0001:0005a0d8       ?DPSetWindowLong@@YAJPAUHWND__@@@Z 1005b0d8 f   commctrl_ALL:monthcal_hpc.obj
 0001:0005a0fc       ?DPDrawFocusBorder@@YAXPAUtagDATEPICK@@PAUHDC__@@@Z 1005b0fc f   commctrl_ALL:monthcal_hpc.obj
 0001:0005a100       ?DPInvalidateFocusBorder@@YAHPAUtagDATEPICK@@@Z 1005b100 f   commctrl_ALL:monthcal_hpc.obj
 0001:0005a108       ?DPDrawDropdownButton@@YAXPAUtagDATEPICK@@PAUHDC__@@H@Z 1005b108 f   commctrl_ALL:monthcal_hpc.obj
 0001:0005a128       ?DPHasDropdown@@YAHPAUtagDATEPICK@@@Z 1005b128 f   commctrl_ALL:monthcal_hpc.obj
 0001:0005a13c       ?DPGetDlgCode@@YAGPAUtagDATEPICK@@PAUtagMSG@@@Z 1005b13c f   commctrl_ALL:monthcal_hpc.obj
 0001:0005a144       ?DPModifyFormat@@YAXPAUtagDATEPICK@@PAG@Z 1005b144 f   commctrl_ALL:monthcal_hpc.obj
 0001:0005a148       ?DPSetInputScope@@YAXPAUHWND__@@W4InputScope@@@Z 1005b148 f   commctrl_ALL:monthcal_hpc.obj
 0001:0005a14c       ?get_lock@?$singleton@VUIFactory@@$0A@V?$static_allocator@VUIFactory@@$0A@@ce@@@ce@@KAAAVcritical_section@2@XZ 1005b14c f i commctrl_ALL:uifactory.obj
 0001:0005a1a0       ?create@?$singleton@VUIFactory@@$0A@V?$static_allocator@VUIFactory@@$0A@@ce@@@ce@@KAXXZ 1005b1a0 f i commctrl_ALL:uifactory.obj
 0001:0005a1f4       ?Instance@UIFactory@@SAAAV1@XZ 1005b1f4 f   commctrl_ALL:uifactory.obj
 0001:0005a20c       ?InitSpacingValues@RebarView_t@@SAXPAH00@Z 1005b20c f   commctrl_ALL:rebarview.obj
 0001:0005a228       ?DrawGripper@RebarView_t@@SAHPAUHDC__@@PAUtagRECT@@@Z 1005b228 f   commctrl_ALL:rebarview.obj
 0001:0005a478       ?SetEdgeBorderType@RebarView_t@@SAXPAI0@Z 1005b478 f   commctrl_ALL:rebarview.obj
 0001:0005a520       ?SBEditWndProc@@YAJPAUHWND__@@IIJ@Z 1005b520 f   commctrl_ALL:sbedit_hpc.obj
 0001:0005a668       ?TBGetLineDirection@TrackBar_t@@AAAHHK@Z 1005b668 f   commctrl_ALL:trackbar_hpc.obj
 0001:0005a698       ?TBGetDlgCode@TrackBar_t@@AAAGPAUtagMSG@@@Z 1005b698 f   commctrl_ALL:trackbar_hpc.obj
 0001:0005b224       ?Draw@TabView_t@@SAXPAUHWND__@@0PAUHDC__@@PAUtagRECT@@KKIHHPAU_IMAGELIST@@PAU_DPA@@HHHHHHH@Z 1005c224 f   commctrl_ALL:tabview.obj
 0001:0005b8a8       ?OnGetDlgCode@Tab_t@@QAAGPAUtagMSG@@@Z 1005c8a8 f   commctrl_ALL:tab_hpc.obj
 0001:0005b8b0       ?SetCheckBoxBorderType@@YAXPAI@Z 1005c8b0 f   commctrl_ALL:lvtvcmn.obj
 0001:0005b8c0       ?InvalidateRect@IMonthCalUI@@UAAHPAUHWND__@@PBUtagRECT@@H@Z 1005c8c0 f i commctrl_ALL:monthcalgdi.obj
 0001:0005b8c8       ??_GIMonthCalUI@@UAAPAXI@Z 1005c8c8 f i commctrl_ALL:monthcalgdi.obj
 0001:0005b8c8       ??_EIMonthCalUI@@UAAPAXI@Z 1005c8c8 f i commctrl_ALL:monthcalgdi.obj
 0001:0005b8ec       ?InvalidateRect@MonthCalGDI@@UAAHPAUHWND__@@PBUtagRECT@@H@Z 1005c8ec f   commctrl_ALL:monthcalgdi.obj
 0001:0005b90c       ??0MonthCalGDI@@QAA@PAUHWND__@@@Z 1005c90c f   commctrl_ALL:monthcalgdi.obj
 0001:0005b928       ?HandleKeydown@MonthCalGDI@@UAAJIJ@Z 1005c928 f   commctrl_ALL:monthcalgdi.obj
 0001:0005bd30       ?HandleGesture@MonthCalGDI@@UAAJIIJ@Z 1005cd30 f   commctrl_ALL:monthcalgdi.obj
 0001:0005bdc0       ?Initialize@MonthCalGDI@@UAAJXZ 1005cdc0 f   commctrl_ALL:monthcalgdi.obj
 0001:0005bde0       ?Render@MonthCalGDI@@UAAJXZ 1005cde0 f   commctrl_ALL:monthcalgdi.obj
 0001:0005bdf4       ?UpdateMonthCalWindow@MonthCalGDI@@UAAJXZ 1005cdf4 f   commctrl_ALL:monthcalgdi.obj
 0001:0005be0c       ?Resize@MonthCalGDI@@UAAJPAUtagRECT@@@Z 1005ce0c f   commctrl_ALL:monthcalgdi.obj
 0001:0005be58       ?DPLBD_MonthCal@@YAXPAUtagDATEPICK@@H@Z 1005ce58 f   commctrl_ALL:monthcalgdi.obj
 0001:0005c58c       ??_EMonthCalGDI@@UAAPAXI@Z 1005d58c f i commctrl_ALL:monthcalgdi.obj
 0001:0005c58c       ??_GMonthCalGDI@@UAAPAXI@Z 1005d58c f i commctrl_ALL:monthcalgdi.obj
 0001:0005c5b0       ?WndProc@MonthCalGDI@@UAAJIIJPAJ@Z 1005d5b0 f   commctrl_ALL:monthcalgdi.obj
 0001:0005c744       ??_EIProgressBarUI@@UAAPAXI@Z 1005d744 f i commctrl_ALL:progressgdi.obj
 0001:0005c744       ??_GIProgressBarUI@@UAAPAXI@Z 1005d744 f i commctrl_ALL:progressgdi.obj
 0001:0005c768       ??0ProgressBarGDI@@QAA@PAUHWND__@@@Z 1005d768 f   commctrl_ALL:progressgdi.obj
 0001:0005c784       ?Render@ProgressBarGDI@@UAAJK@Z 1005d784 f   commctrl_ALL:progressgdi.obj
 0001:0005c7f0       ?Progress_Paint@ProgressBarGDI@@AAAXPAUHDC__@@@Z 1005d7f0 f   commctrl_ALL:progressgdi.obj
 0001:0005c8f4       ?Initialize@IProgressBarUI@@UAAJPAVProgressBar_t@@PAUtagPROGRESSBARCREATESTRUCT@@@Z 1005d8f4 f i commctrl_ALL:progressgdi.obj
 0001:0005c904       ??_GProgressBarGDI@@UAAPAXI@Z 1005d904 f i commctrl_ALL:progressgdi.obj
 0001:0005c904       ??_EProgressBarGDI@@UAAPAXI@Z 1005d904 f i commctrl_ALL:progressgdi.obj
 0001:0005c928       ?Initialize@ProgressBarGDI@@UAAJPAVProgressBar_t@@PAUtagPROGRESSBARCREATESTRUCT@@@Z 1005d928 f   commctrl_ALL:progressgdi.obj
 0001:0005c938       ?WndProc@ProgressBarGDI@@UAAJIIJPAJ@Z 1005d938 f   commctrl_ALL:progressgdi.obj
 0001:0005c960       ??_GITrackBarUI@@UAAPAXI@Z 1005d960 f i commctrl_ALL:trackbargdi.obj
 0001:0005c960       ??_EITrackBarUI@@UAAPAXI@Z 1005d960 f i commctrl_ALL:trackbargdi.obj
 0001:0005c984       ??0TrackBarGDI@@QAA@PAUHWND__@@@Z 1005d984 f   commctrl_ALL:trackbargdi.obj
 0001:0005c9ec       ??1TrackBarGDI@@UAA@XZ     1005d9ec f   commctrl_ALL:trackbargdi.obj
 0001:0005ca2c       ?FlushChanges@TrackBarGDI@@AAAXXZ 1005da2c f   commctrl_ALL:trackbargdi.obj
 0001:0005ce64       ?GetThumbRect@TrackBarGDI@@UAAXPAUtagRECT@@@Z 1005de64 f   commctrl_ALL:trackbargdi.obj
 0001:0005ce88       ?GetChannelRect@TrackBarGDI@@UAAXPAUtagRECT@@@Z 1005de88 f   commctrl_ALL:trackbargdi.obj
 0001:0005cf98       ?GetTrackRect@TrackBarGDI@@UAAXPAUtagRECT@@@Z 1005df98 f   commctrl_ALL:trackbargdi.obj
 0001:0005cfbc       ?GetChannelSize@TrackBarGDI@@UAAHXZ 1005dfbc f   commctrl_ALL:trackbargdi.obj
 0001:0005cfc4       ?SetThumbHeight@TrackBarGDI@@UAAJH@Z 1005dfc4 f   commctrl_ALL:trackbargdi.obj
 0001:0005cfdc       ?GetThumbHeight@TrackBarGDI@@UAAHXZ 1005dfdc f   commctrl_ALL:trackbargdi.obj
 0001:0005cfe4       ?MoveThumb@TrackBarGDI@@AAAXXZ 1005dfe4 f   commctrl_ALL:trackbargdi.obj
 0001:0005d08c       ?ValidateThumbHeight@TrackBarGDI@@AAAXXZ 1005e08c f   commctrl_ALL:trackbargdi.obj
 0001:0005d120       ?InvalidateWindow@TrackBarGDI@@UAAXXZ 1005e120 f   commctrl_ALL:trackbargdi.obj
 0001:0005d130       ?Initialize@ITrackBarUI@@UAAJPAVTrackBar_t@@PAUtagTRACKBARCREATESTRUCT@@@Z 1005e130 f i commctrl_ALL:trackbargdi.obj
 0001:0005d140       ??_ETrackBarGDI@@UAAPAXI@Z 1005e140 f i commctrl_ALL:trackbargdi.obj
 0001:0005d140       ??_GTrackBarGDI@@UAAPAXI@Z 1005e140 f i commctrl_ALL:trackbargdi.obj
 0001:0005d164       ?Initialize@TrackBarGDI@@UAAJPAVTrackBar_t@@PAUtagTRACKBARCREATESTRUCT@@@Z 1005e164 f   commctrl_ALL:trackbargdi.obj
 0001:0005d1d8       ?WndProc@TrackBarGDI@@UAAJIIJPAJ@Z 1005e1d8 f   commctrl_ALL:trackbargdi.obj
 0001:0005d334       ?Resize@TrackBarGDI@@AAAXXZ 1005e334 f   commctrl_ALL:trackbargdi.obj
 0001:0005d4f0       ?Render@TrackBarGDI@@UAAJK@Z 1005e4f0 f   commctrl_ALL:trackbargdi.obj
 0001:0005d594       ?Draw@ProgressBarView_t@@SAXPAUHWND__@@PAUHDC__@@KHHHHKPAH@Z 1005e594 f   commctrl_ALL:progressview.obj
 0001:0005dc84       ?DrawFocus@TrackBarView_t@@SAXPAUHWND__@@PAUHDC__@@@Z 1005ec84 f   commctrl_ALL:trackbarview.obj
 0001:0005dcc8       ?DrawTics@TrackBarView_t@@SAXPAUHDC__@@KPAUtagRECT@@PAKHHJJJJJ_N@Z 1005ecc8 f   commctrl_ALL:trackbarview.obj
 0001:0005de20       ?DrawChannel@TrackBarView_t@@SAXPAUHDC__@@KHJJJJJHPAUtagRECT@@@Z 1005ee20 f   commctrl_ALL:trackbarview.obj
 0001:0005df5c       ?DrawThumb@TrackBarView_t@@SAXPAUHWND__@@PAUHDC__@@KHHPAUtagRECT@@H@Z 1005ef5c f   commctrl_ALL:trackbarview.obj
 0001:0005e2bc       ExtTextOutW                1005f2bc f   coredll:COREDLL.dll
 0001:0005e2cc       SetBkColor                 1005f2cc f   coredll:COREDLL.dll
 0001:0005e2dc       LocalFree                  1005f2dc f   coredll:COREDLL.dll
 0001:0005e2ec       GetTextExtentExPointW      1005f2ec f   coredll:COREDLL.dll
 0001:0005e2fc       StringCchCopyW             1005f2fc f   coredll:COREDLL.dll
 0001:0005e30c       DrawTextW                  1005f30c f   coredll:COREDLL.dll
 0001:0005e31c       LocalAlloc                 1005f31c f   coredll:COREDLL.dll
 0001:0005e32c       SetRect                    1005f32c f   coredll:COREDLL.dll
 0001:0005e33c       SetTextColor               1005f33c f   coredll:COREDLL.dll
 0001:0005e34c       SetBkMode                  1005f34c f   coredll:COREDLL.dll
 0001:0005e35c       ImageList_DrawIndirect     1005f35c f   coredll:COREDLL.dll
 0001:0005e36c       PatBlt                     1005f36c f   coredll:COREDLL.dll
 0001:0005e37c       DeleteObject               1005f37c f   coredll:COREDLL.dll
 0001:0005e38c       CreateBitmap               1005f38c f   coredll:COREDLL.dll
 0001:0005e39c       GetObjectW                 1005f39c f   coredll:COREDLL.dll
 0001:0005e3ac       ImageList_SetBkColor       1005f3ac f   coredll:COREDLL.dll
 0001:0005e3bc       SelectObject               1005f3bc f   coredll:COREDLL.dll
 0001:0005e3cc       CreateCompatibleDC         1005f3cc f   coredll:COREDLL.dll
 0001:0005e3dc       DeleteDC                   1005f3dc f   coredll:COREDLL.dll
 0001:0005e3ec       DefWindowProcW             1005f3ec f   coredll:COREDLL.dll
 0001:0005e3fc       LocalSize                  1005f3fc f   coredll:COREDLL.dll
 0001:0005e40c       ImageList_AddMasked        1005f40c f   coredll:COREDLL.dll
 0001:0005e41c       LoadBitmapW                1005f41c f   coredll:COREDLL.dll
 0001:0005e42c       ImageList_Create           1005f42c f   coredll:COREDLL.dll
 0001:0005e43c       ImageList_Destroy          1005f43c f   coredll:COREDLL.dll
 0001:0005e44c       ImageList_GetImageCount    1005f44c f   coredll:COREDLL.dll
 0001:0005e45c       SetLastError               1005f45c f   coredll:COREDLL.dll
 0001:0005e46c       SetWindowLongW             1005f46c f   coredll:COREDLL.dll
 0001:0005e47c       DestroyWindow              1005f47c f   coredll:COREDLL.dll
 0001:0005e48c       IsWindow                   1005f48c f   coredll:COREDLL.dll
 0001:0005e49c       SendMessageW               1005f49c f   coredll:COREDLL.dll
 0001:0005e4ac       ReleaseDC                  1005f4ac f   coredll:COREDLL.dll
 0001:0005e4bc       GetDC                      1005f4bc f   coredll:COREDLL.dll
 0001:0005e4cc       InvalidateRect             1005f4cc f   coredll:COREDLL.dll
 0001:0005e4dc       GetClientRect              1005f4dc f   coredll:COREDLL.dll
 0001:0005e4ec       MapWindowPoints            1005f4ec f   coredll:COREDLL.dll
 0001:0005e4fc       GetWindowRect              1005f4fc f   coredll:COREDLL.dll
 0001:0005e50c       GetParent                  1005f50c f   coredll:COREDLL.dll
 0001:0005e51c       PeekMessageW               1005f51c f   coredll:COREDLL.dll
 0001:0005e52c       UpdateWindow               1005f52c f   coredll:COREDLL.dll
 0001:0005e53c       BitBlt                     1005f53c f   coredll:COREDLL.dll
 0001:0005e54c       GetStockObject             1005f54c f   coredll:COREDLL.dll
 0001:0005e55c       SetLayout                  1005f55c f   coredll:COREDLL.dll
 0001:0005e56c       GetLayout                  1005f56c f   coredll:COREDLL.dll
 0001:0005e57c       EndPaint                   1005f57c f   coredll:COREDLL.dll
 0001:0005e58c       DrawEdge                   1005f58c f   coredll:COREDLL.dll
 0001:0005e59c       InflateRect                1005f59c f   coredll:COREDLL.dll
 0001:0005e5ac       BeginPaint                 1005f5ac f   coredll:COREDLL.dll
 0001:0005e5bc       GetTextMetricsW            1005f5bc f   coredll:COREDLL.dll
 0001:0005e5cc       CreateFontIndirectW        1005f5cc f   coredll:COREDLL.dll
 0001:0005e5dc       LocalReAlloc               1005f5dc f   coredll:COREDLL.dll
 0001:0005e5ec       LoadStringW                1005f5ec f   coredll:COREDLL.dll
 0001:0005e5fc       GetDeviceCaps              1005f5fc f   coredll:COREDLL.dll
 0001:0005e60c       ImageList_GetIconSize      1005f60c f   coredll:COREDLL.dll
 0001:0005e61c       SetWindowPos               1005f61c f   coredll:COREDLL.dll
 0001:0005e62c       ScreenToClient             1005f62c f   coredll:COREDLL.dll
 0001:0005e63c       DispatchMessageW           1005f63c f   coredll:COREDLL.dll
 0001:0005e64c       TranslateMessage           1005f64c f   coredll:COREDLL.dll
 0001:0005e65c       MessageBeep                1005f65c f   coredll:COREDLL.dll
 0001:0005e66c       SetCapture                 1005f66c f   coredll:COREDLL.dll
 0001:0005e67c       PtInRect                   1005f67c f   coredll:COREDLL.dll
 0001:0005e68c       PostMessageW               1005f68c f   coredll:COREDLL.dll
 0001:0005e69c       ReleaseCapture             1005f69c f   coredll:COREDLL.dll
 0001:0005e6ac       GetCapture                 1005f6ac f   coredll:COREDLL.dll
 0001:0005e6bc       CreateWindowExW            1005f6bc f   coredll:COREDLL.dll
 0001:0005e6cc       ImmAssociateContext        1005f6cc f   coredll:COREDLL.dll
 0001:0005e6dc       GetWindowLongW             1005f6dc f   coredll:COREDLL.dll
 0001:0005e6ec       RegisterClassW             1005f6ec f   coredll:COREDLL.dll
 0001:0005e6fc       LoadCursorW                1005f6fc f   coredll:COREDLL.dll
 0001:0005e70c       GetClassInfoW              1005f70c f   coredll:COREDLL.dll
 0001:0005e71c       DSA_Create                 1005f71c f   coredll:COREDLL.dll
 0001:0005e72c       DSA_Destroy                1005f72c f   coredll:COREDLL.dll
 0001:0005e73c       DSA_EnumCallback           1005f73c f   coredll:COREDLL.dll
 0001:0005e74c       DSA_DestroyCallback        1005f74c f   coredll:COREDLL.dll
 0001:0005e75c       DSA_GetItem                1005f75c f   coredll:COREDLL.dll
 0001:0005e76c       DSA_GetItemPtr             1005f76c f   coredll:COREDLL.dll
 0001:0005e77c       DSA_SetItem                1005f77c f   coredll:COREDLL.dll
 0001:0005e78c       DSA_SetRange               1005f78c f   coredll:COREDLL.dll
 0001:0005e79c       DSA_InsertItem             1005f79c f   coredll:COREDLL.dll
 0001:0005e7ac       DSA_DeleteItem             1005f7ac f   coredll:COREDLL.dll
 0001:0005e7bc       DSA_Search                 1005f7bc f   coredll:COREDLL.dll
 0001:0005e7cc       DSA_Clone                  1005f7cc f   coredll:COREDLL.dll
 0001:0005e7dc       DSA_DeleteAllItems         1005f7dc f   coredll:COREDLL.dll
 0001:0005e7ec       DSA_Sort                   1005f7ec f   coredll:COREDLL.dll
 0001:0005e7fc       DPA_Create                 1005f7fc f   coredll:COREDLL.dll
 0001:0005e80c       DPA_Destroy                1005f80c f   coredll:COREDLL.dll
 0001:0005e81c       DPA_GetPtr                 1005f81c f   coredll:COREDLL.dll
 0001:0005e82c       DPA_GetPtrIndex            1005f82c f   coredll:COREDLL.dll
 0001:0005e83c       DPA_Grow                   1005f83c f   coredll:COREDLL.dll
 0001:0005e84c       DPA_SetPtr                 1005f84c f   coredll:COREDLL.dll
 0001:0005e85c       DPA_InsertPtr              1005f85c f   coredll:COREDLL.dll
 0001:0005e86c       DPA_DeletePtr              1005f86c f   coredll:COREDLL.dll
 0001:0005e87c       DPA_DeleteAllPtrs          1005f87c f   coredll:COREDLL.dll
 0001:0005e88c       DPA_DestroyCallback        1005f88c f   coredll:COREDLL.dll
 0001:0005e89c       DPA_Sort                   1005f89c f   coredll:COREDLL.dll
 0001:0005e8ac       DPA_Search                 1005f8ac f   coredll:COREDLL.dll
 0001:0005e8bc       DrawIconEx                 1005f8bc f   coredll:COREDLL.dll
 0001:0005e8cc       CreateSolidBrush           1005f8cc f   coredll:COREDLL.dll
 0001:0005e8dc       GetNearestColor            1005f8dc f   coredll:COREDLL.dll
 0001:0005e8ec       SetTextAlign               1005f8ec f   coredll:COREDLL.dll
 0001:0005e8fc       GetTextAlign               1005f8fc f   coredll:COREDLL.dll
 0001:0005e90c       DrawFrameControl           1005f90c f   coredll:COREDLL.dll
 0001:0005e91c       RestoreDC                  1005f91c f   coredll:COREDLL.dll
 0001:0005e92c       IntersectClipRect          1005f92c f   coredll:COREDLL.dll
 0001:0005e93c       SaveDC                     1005f93c f   coredll:COREDLL.dll
 0001:0005e94c       GetDlgCtrlID               1005f94c f   coredll:COREDLL.dll
 0001:0005e95c       RedrawWindow               1005f95c f   coredll:COREDLL.dll
 0001:0005e96c       SetCursor                  1005f96c f   coredll:COREDLL.dll
 0001:0005e97c       GetClipCursor              1005f97c f   coredll:COREDLL.dll
 0001:0005e98c       KillTimer                  1005f98c f   coredll:COREDLL.dll
 0001:0005e99c       ClientToScreen             1005f99c f   coredll:COREDLL.dll
 0001:0005e9ac       OffsetRect                 1005f9ac f   coredll:COREDLL.dll
 0001:0005e9bc       IsRectEmpty                1005f9bc f   coredll:COREDLL.dll
 0001:0005e9cc       SetRectEmpty               1005f9cc f   coredll:COREDLL.dll
 0001:0005e9dc       SelectClipRgn              1005f9dc f   coredll:COREDLL.dll
 0001:0005e9ec       CombineRgn                 1005f9ec f   coredll:COREDLL.dll
 0001:0005e9fc       CreateRectRgn              1005f9fc f   coredll:COREDLL.dll
 0001:0005ea0c       CreateRectRgnIndirect      1005fa0c f   coredll:COREDLL.dll
 0001:0005ea1c       GetBkColor                 1005fa1c f   coredll:COREDLL.dll
 0001:0005ea2c       GetTextColor               1005fa2c f   coredll:COREDLL.dll
 0001:0005ea3c       ImageList_CopyDitherImage  1005fa3c f   coredll:COREDLL.dll
 0001:0005ea4c       ImageList_Add              1005fa4c f   coredll:COREDLL.dll
 0001:0005ea5c       GetAsyncKeyState           1005fa5c f   coredll:COREDLL.dll
 0001:0005ea6c       SetTimer                   1005fa6c f   coredll:COREDLL.dll
 0001:0005ea7c       ImageList_DragEnter        1005fa7c f   coredll:COREDLL.dll
 0001:0005ea8c       ImageList_BeginDrag        1005fa8c f   coredll:COREDLL.dll
 0001:0005ea9c       ScrollWindowEx             1005fa9c f   coredll:COREDLL.dll
 0001:0005eaac       GetSysColor                1005faac f   coredll:COREDLL.dll
 0001:0005eabc       ImageList_DragShowNolock   1005fabc f   coredll:COREDLL.dll
 0001:0005eacc       ImageList_DragMove         1005facc f   coredll:COREDLL.dll
 0001:0005eadc       ImageList_EndDrag          1005fadc f   coredll:COREDLL.dll
 0001:0005eaec       InitializeCriticalSection  1005faec f   coredll:COREDLL.dll
 0001:0005eafc       DeleteCriticalSection      1005fafc f   coredll:COREDLL.dll
 0001:0005eb0c       UnregisterClassW           1005fb0c f   coredll:COREDLL.dll
 0001:0005eb1c       InterlockedIncrement       1005fb1c f   coredll:COREDLL.dll
 0001:0005eb2c       InterlockedDecrement       1005fb2c f   coredll:COREDLL.dll
 0001:0005eb3c       GetFocus                   1005fb3c f   coredll:COREDLL.dll
 0001:0005eb4c       CopyRect                   1005fb4c f   coredll:COREDLL.dll
 0001:0005eb5c       SetFocus                   1005fb5c f   coredll:COREDLL.dll
 0001:0005eb6c       FillRect                   1005fb6c f   coredll:COREDLL.dll
 0001:0005eb7c       CreateDIBSection           1005fb7c f   coredll:COREDLL.dll
 0001:0005eb8c       EnableWindow               1005fb8c f   coredll:COREDLL.dll
 0001:0005eb9c       IsWindowEnabled            1005fb9c f   coredll:COREDLL.dll
 0001:0005ebac       GetWindowCompositionFlags  1005fbac f   coredll:COREDLL.dll
 0001:0005ebbc       MapVirtualKeyW             1005fbbc f   coredll:COREDLL.dll
 0001:0005ebcc       GetMessagePos              1005fbcc f   coredll:COREDLL.dll
 0001:0005ebdc       lstrcmpiW                  1005fbdc f   coredll:COREDLL.dll
 0001:0005ebec       DPA_Clone                  1005fbec f   coredll:COREDLL.dll
 0001:0005ebfc       EqualRect                  1005fbfc f   coredll:COREDLL.dll
 0001:0005ec0c       SetBrushOrgEx              1005fc0c f   coredll:COREDLL.dll
 0001:0005ec1c       CreateCompatibleBitmap     1005fc1c f   coredll:COREDLL.dll
 0001:0005ec2c       SetViewportOrgEx           1005fc2c f   coredll:COREDLL.dll
 0001:0005ec3c       ExcludeClipRect            1005fc3c f   coredll:COREDLL.dll
 0001:0005ec4c       GetClipBox                 1005fc4c f   coredll:COREDLL.dll
 0001:0005ec5c       GetClipRgn                 1005fc5c f   coredll:COREDLL.dll
 0001:0005ec6c       IsWindowVisible            1005fc6c f   coredll:COREDLL.dll
 0001:0005ec7c       GetScrollInfo              1005fc7c f   coredll:COREDLL.dll
 0001:0005ec8c       GetSystemMetrics           1005fc8c f   coredll:COREDLL.dll
 0001:0005ec9c       DrawFocusRect              1005fc9c f   coredll:COREDLL.dll
 0001:0005ecac       IntersectRect              1005fcac f   coredll:COREDLL.dll
 0001:0005ecbc       RegCloseKey                1005fcbc f   coredll:COREDLL.dll
 0001:0005eccc       RegQueryValueExW           1005fccc f   coredll:COREDLL.dll
 0001:0005ecdc       RegOpenKeyExW              1005fcdc f   coredll:COREDLL.dll
 0001:0005ecec       GetDoubleClickTime         1005fcec f   coredll:COREDLL.dll
 0001:0005ecfc       CreatePatternBrush         1005fcfc f   coredll:COREDLL.dll
 0001:0005ed0c       HeapFree                   1005fd0c f   coredll:COREDLL.dll
 0001:0005ed1c       DPA_EnumCallback           1005fd1c f   coredll:COREDLL.dll
 0001:0005ed2c       UnionRect                  1005fd2c f   coredll:COREDLL.dll
 0001:0005ed3c       GetSysColorBrush           1005fd3c f   coredll:COREDLL.dll
 0001:0005ed4c       ImageList_GetBkColor       1005fd4c f   coredll:COREDLL.dll
 0001:0005ed5c       ShowWindow                 1005fd5c f   coredll:COREDLL.dll
 0001:0005ed6c       SetScrollInfo              1005fd6c f   coredll:COREDLL.dll
 0001:0005ed7c       lstrcmpW                   1005fd7c f   coredll:COREDLL.dll
 0001:0005ed8c       DPA_CreateEx               1005fd8c f   coredll:COREDLL.dll
 0001:0005ed9c       HeapAlloc                  1005fd9c f   coredll:COREDLL.dll
 0001:0005edac       GetUpdateRgn               1005fdac f   coredll:COREDLL.dll
 0001:0005edbc       GetUpdateRect              1005fdbc f   coredll:COREDLL.dll
 0001:0005edcc       GetKeyState                1005fdcc f   coredll:COREDLL.dll
 0001:0005eddc       GetTickCount               1005fddc f   coredll:COREDLL.dll
 0001:0005edec       GetProcessHeap             1005fdec f   coredll:COREDLL.dll
 0001:0005edfc       GetWindowTextW             1005fdfc f   coredll:COREDLL.dll
 0001:0005ee0c       CallWindowProcW            1005fe0c f   coredll:COREDLL.dll
 0001:0005ee1c       GetProcessVersion          1005fe1c f   coredll:COREDLL.dll
 0001:0005ee2c       CreateDIBPatternBrushPt    1005fe2c f   coredll:COREDLL.dll
 0001:0005ee3c       SystemParametersInfoW      1005fe3c f   coredll:COREDLL.dll
 0001:0005ee4c       GetForegroundWindow        1005fe4c f   coredll:COREDLL.dll
 0001:0005ee5c       GetClassNameW              1005fe5c f   coredll:COREDLL.dll
 0001:0005ee6c       MoveWindow                 1005fe6c f   coredll:COREDLL.dll
 0001:0005ee7c       SetParent                  1005fe7c f   coredll:COREDLL.dll
 0001:0005ee8c       DrawMenuBar                1005fe8c f   coredll:COREDLL.dll
 0001:0005ee9c       SetAssociatedMenu          1005fe9c f   coredll:COREDLL.dll
 0001:0005eeac       CreateDialogIndirectParamW 1005feac f   coredll:COREDLL.dll
 0001:0005eebc       MapDialogRect              1005febc f   coredll:COREDLL.dll
 0001:0005eecc       SizeofResource             1005fecc f   coredll:COREDLL.dll
 0001:0005eedc       LoadResource               1005fedc f   coredll:COREDLL.dll
 0001:0005eeec       FindResourceW              1005feec f   coredll:COREDLL.dll
 0001:0005eefc       LoadImageW                 1005fefc f   coredll:COREDLL.dll
 0001:0005ef0c       GetProp                    1005ff0c f   coredll:COREDLL.dll
 0001:0005ef1c       GetLocaleInfoW             1005ff1c f   coredll:COREDLL.dll
 0001:0005ef2c       SetWindowTextW             1005ff2c f   coredll:COREDLL.dll
 0001:0005ef3c       GetNumberFormatW           1005ff3c f   coredll:COREDLL.dll
 0001:0005ef4c       StringCchPrintfW           1005ff4c f   coredll:COREDLL.dll
 0001:0005ef5c       GetWindowTextLengthW       1005ff5c f   coredll:COREDLL.dll
 0001:0005ef6c       GetWindow                  1005ff6c f   coredll:COREDLL.dll
 0001:0005ef7c       GetGestureInfo             1005ff7c f   coredll:COREDLL.dll
 0001:0005ef8c       AdjustWindowRectEx         1005ff8c f   coredll:COREDLL.dll
 0001:0005ef9c       GetPixel                   1005ff9c f   coredll:COREDLL.dll
 0001:0005efac       FreeLibrary                1005ffac f   coredll:COREDLL.dll
 0001:0005efbc       CloseHandle                1005ffbc f   coredll:COREDLL.dll
 0001:0005efcc       UnmapViewOfFile            1005ffcc f   coredll:COREDLL.dll
 0001:0005efdc       GetProcAddressW            1005ffdc f   coredll:COREDLL.dll
 0001:0005efec       EnterCriticalSection       1005ffec f   coredll:COREDLL.dll
 0001:0005effc       LeaveCriticalSection       1005fffc f   coredll:COREDLL.dll
 0001:0005f00c       WaitForAPIReady            1006000c f   coredll:COREDLL.dll
 0001:0005f01c       ConvertCalDateTimeToSystemTime 1006001c f   coredll:COREDLL.dll
 0001:0005f02c       UpdateCalendarDayOfWeek    1006002c f   coredll:COREDLL.dll
 0001:0005f03c       LCMapStringW               1006003c f   coredll:COREDLL.dll
 0001:0005f04c       ConvertSystemTimeToCalDateTime 1006004c f   coredll:COREDLL.dll
 0001:0005f05c       GetLocalTime               1006005c f   coredll:COREDLL.dll
 0001:0005f06c       GetDateFormatW             1006006c f   coredll:COREDLL.dll
 0001:0005f07c       GetCalendarDateFormatEx    1006007c f   coredll:COREDLL.dll
 0001:0005f08c       LCIDToLocaleName           1006008c f   coredll:COREDLL.dll
 0001:0005f09c       GetStringTypeExW           1006009c f   coredll:COREDLL.dll
 0001:0005f0ac       GetUserDefaultLCID         100600ac f   coredll:COREDLL.dll
 0001:0005f0bc       GetCalendarInfoW           100600bc f   coredll:COREDLL.dll
 0001:0005f0cc       Rectangle                  100600cc f   coredll:COREDLL.dll
 0001:0005f0dc       CharNextW                  100600dc f   coredll:COREDLL.dll
 0001:0005f0ec       DestroyMenu                100600ec f   coredll:COREDLL.dll
 0001:0005f0fc       SystemTimeToFileTime       100600fc f   coredll:COREDLL.dll
 0001:0005f10c       GetTimeFormatW             1006010c f   coredll:COREDLL.dll
 0001:0005f11c       GetCalendarSupportedDateRange 1006011c f   coredll:COREDLL.dll
 0001:0005f12c       CreatePenIndirect          1006012c f   coredll:COREDLL.dll
 0001:0005f13c       GetMessageW                1006013c f   coredll:COREDLL.dll
 0001:0005f14c       ImmSIPanelState            1006014c f   coredll:COREDLL.dll
 0001:0005f15c       ImmSetOpenStatus           1006015c f   coredll:COREDLL.dll
 0001:0005f16c       ImmGetContext              1006016c f   coredll:COREDLL.dll
 0001:0005f17c       GetCalendarMonthsInYear    1006017c f   coredll:COREDLL.dll
 0001:0005f18c       TrackPopupMenuEx           1006018c f   coredll:COREDLL.dll
 0001:0005f19c       CheckMenuRadioItem         1006019c f   coredll:COREDLL.dll
 0001:0005f1ac       AppendMenuW                100601ac f   coredll:COREDLL.dll
 0001:0005f1bc       CreatePopupMenu            100601bc f   coredll:COREDLL.dll
 0001:0005f1cc       IsChild                    100601cc f   coredll:COREDLL.dll
 0001:0005f1dc       GetSystemDefaultLangID     100601dc f   coredll:COREDLL.dll
 0001:0005f1ec       GetMonitorInfo             100601ec f   coredll:COREDLL.dll
 0001:0005f1fc       MonitorFromPoint           100601fc f   coredll:COREDLL.dll
 0001:0005f20c       WindowFromPoint            1006020c f   coredll:COREDLL.dll
 0001:0005f21c       MulDiv                     1006021c f   coredll:COREDLL.dll
 0001:0005f22c       StringCchPrintfExW         1006022c f   coredll:COREDLL.dll
 0001:0005f23c       GetDlgItem                 1006023c f   coredll:COREDLL.dll
 0001:0005f24c       LoadLibraryW               1006024c f   coredll:COREDLL.dll
 0001:0005f25c       SetWindowPosOnRotate       1006025c f   coredll:COREDLL.dll
 0001:0005f26c       SendDlgItemMessageW        1006026c f   coredll:COREDLL.dll
 0001:0005f27c       GetNextDlgTabItem          1006027c f   coredll:COREDLL.dll
 0001:0005f28c       SetDlgItemTextW            1006028c f   coredll:COREDLL.dll
 0001:0005f29c       DestroyIcon                1006029c f   coredll:COREDLL.dll
 0001:0005f2ac       ImageList_ReplaceIcon      100602ac f   coredll:COREDLL.dll
 0001:0005f2bc       IsDialogMessageW           100602bc f   coredll:COREDLL.dll
 0001:0005f2cc       SetForegroundWindow        100602cc f   coredll:COREDLL.dll
 0001:0005f2dc       PostQuitMessage            100602dc f   coredll:COREDLL.dll
 0001:0005f2ec       WaitForSingleObject        100602ec f   coredll:COREDLL.dll
 0001:0005f2fc       CreateMutexW               100602fc f   coredll:COREDLL.dll
 0001:0005f30c       ReleaseMutex               1006030c f   coredll:COREDLL.dll
 0001:0005f31c       MapViewOfFile              1006031c f   coredll:COREDLL.dll
 0001:0005f32c       GetLastError               1006032c f   coredll:COREDLL.dll
 0001:0005f33c       CreateFileMappingW         1006033c f   coredll:COREDLL.dll
 0001:0005f34c       SetSysColors               1006034c f   coredll:COREDLL.dll
 0001:0005f35c       RegSetValueExW             1006035c f   coredll:COREDLL.dll
 0001:0005f36c       RegCreateKeyExW            1006036c f   coredll:COREDLL.dll
 0001:0005f37c       SendNotifyMessageW         1006037c f   coredll:COREDLL.dll
 0001:0005f38c       GradientFill               1006038c f   coredll:COREDLL.dll
 0001:0005f39c       GetOwnerProcess            1006039c f   coredll:COREDLL.dll
 0001:0005f3ac       StringCchCopyNW            100603ac f   coredll:COREDLL.dll
 0001:0005f3bc       ImageList_Remove           100603bc f   coredll:COREDLL.dll
 0001:0005f3cc       MsgWaitForMultipleObjectsEx 100603cc f   coredll:COREDLL.dll
 0001:0005f3dc       CreatePen                  100603dc f   coredll:COREDLL.dll
 0001:0005f3ec       ImmReleaseContext          100603ec f   coredll:COREDLL.dll
 0001:0005f3fc       ImmGetCompositionStringW   100603fc f   coredll:COREDLL.dll
 0001:0005f40c       ImmGetOpenStatus           1006040c f   coredll:COREDLL.dll
 0001:0005f41c       ImmNotifyIME               1006041c f   coredll:COREDLL.dll
 0001:0005f42c       Polygon                    1006042c f   coredll:COREDLL.dll
 0001:0005f43c       SHLoadDIBitmap             1006043c f   coredll:COREDLL.dll
 0001:0005f44c       StretchBlt                 1006044c f   coredll:COREDLL.dll
 0001:0005f45c       CreateIconIndirect         1006045c f   coredll:COREDLL.dll
 0001:0005f46c       GetCurrentObject           1006046c f   coredll:COREDLL.dll
 0001:0005f47c       Polyline                   1006047c f   coredll:COREDLL.dll
 0001:0005f48c       StringCchCatW              1006048c f   coredll:COREDLL.dll
 0001:0005f49c       ImageList_Draw             1006049c f   coredll:COREDLL.dll
 0001:0005f4ac       ImageList_DrawEx           100604ac f   coredll:COREDLL.dll
 0001:0005f4bc       SetScrollRange             100604bc f   coredll:COREDLL.dll
 0001:0005f4cc       StringCchCopyExW           100604cc f   coredll:COREDLL.dll
 0001:0005f4dc       ShowCaret                  100604dc f   coredll:COREDLL.dll
 0001:0005f4ec       HideCaret                  100604ec f   coredll:COREDLL.dll
 0001:0005f4fc       SetScrollPos               100604fc f   coredll:COREDLL.dll
 0001:0005f50c       __GetUserKData             1006050c f   coredll:COREDLL.dll
 0001:0005f51c       GlobalAddAtomW             1006051c f   coredll:COREDLL.dll
 0001:0005f52c       GetWindowThreadProcessId   1006052c f   coredll:COREDLL.dll
 0001:0005f53c       SetProp                    1006053c f   coredll:COREDLL.dll
 0001:0005f54c       RemoveProp                 1006054c f   coredll:COREDLL.dll
 0001:0005f55c       GetFileSize                1006055c f   coredll:COREDLL.dll
 0001:0005f56c       CreateFileW                1006056c f   coredll:COREDLL.dll
 0001:0005f57c       StretchDIBits              1006057c f   coredll:COREDLL.dll
 0001:0005f58c       RealizePalette             1006058c f   coredll:COREDLL.dll
 0001:0005f59c       SelectPalette              1006059c f   coredll:COREDLL.dll
 0001:0005f5ac       TransparentImage           100605ac f   coredll:COREDLL.dll
 0001:0005f5bc       CharUpperW                 100605bc f   coredll:COREDLL.dll
 0001:0005f5cc       GetCalendarDaysInMonth     100605cc f   coredll:COREDLL.dll
 0001:0005f5dc       GetCalendarWeekNumber      100605dc f   coredll:COREDLL.dll
 0001:0005f5ec       WideCharToMultiByte        100605ec f   coredll:COREDLL.dll
 0001:0005f5fc       GetSystemDefaultLCID       100605fc f   coredll:COREDLL.dll
 0001:0005f60c       CloseClipboard             1006060c f   coredll:COREDLL.dll
 0001:0005f61c       GetClipboardData           1006061c f   coredll:COREDLL.dll
 0001:0005f62c       OpenClipboard              1006062c f   coredll:COREDLL.dll
 0001:0005f63c       ??0PanLocking@@QAA@XZ      1006063c f   TouchUtil:panlocking.obj
 0001:0005f654       ?DeterminePanLockDir@PanLocking@@QAA?AW4PANLOCKDIR@1@HH@Z 10060654 f   TouchUtil:panlocking.obj
 0001:0005f6f0       ?CancelPanLock@PanLocking@@QAAXXZ 100606f0 f   TouchUtil:panlocking.obj
 0001:0005f708       _DllEntryCRTStartup        10060708 f   corelib0:pegdentry.obj
 0001:0005f74c       __GSHandlerCheckCommon     1006074c f   corelib0:gshandler.obj
 0001:0005f788       __GSHandlerCheck           10060788 f   corelib0:gshandler.obj
 0001:0005f7a8       __security_init_cookie     100607a8 f   corelib0:seccinit.obj
 0001:0005f7f4       __security_check_cookie    100607f4 f   corelib0:armsecgs.obj
 0001:0005f804       __gsfailure                10060804     corelib0:armsecgs.obj
 0001:0005f850       _onexit                    10060850 f   corelib0:onexit.obj
 0001:0005f9d4       atexit                     100609d4 f   corelib0:onexit.obj
 0001:0005fad4       _cexit                     10060ad4 f   corelib0:cexit.obj
 0001:0005fae4       _initterm                  10060ae4 f   corelib0:crt0dat.obj
 0001:0005fb10       _cinit                     10060b10 f   corelib0:crt0dat.obj
 0001:0005fb70       __crt_ExitProcess          10060b70 f   corelib0:exitproc_proxy.obj
 0001:0005fb7c       wcslen                     10060b7c f   corelib1:COREDLL.dll
 0001:0005fb8c       memset                     10060b8c f   corelib1:COREDLL.dll
 0001:0005fb9c       memcpy                     10060b9c f   corelib1:COREDLL.dll
 0001:0005fbac       memmove                    10060bac f   corelib1:COREDLL.dll
 0001:0005fbbc       wcscpy                     10060bbc f   corelib1:COREDLL.dll
 0001:0005fbcc       wcsncpy                    10060bcc f   corelib1:COREDLL.dll
 0001:0005fbdc       ??3@YAXPAX@Z               10060bdc f   corelib1:COREDLL.dll
 0001:0005fbec       ??2@YAPAXI@Z               10060bec f   corelib1:COREDLL.dll
 0001:0005fbfc       _wcsnicmp                  10060bfc f   corelib1:COREDLL.dll
 0001:0005fc0c       wcsncmp                    10060c0c f   corelib1:COREDLL.dll
 0001:0005fc1c       wcscmp                     10060c1c f   corelib1:COREDLL.dll
 0001:0005fc2c       _wcsicmp                   10060c2c f   corelib1:COREDLL.dll
 0001:0005fc3c       wcschr                     10060c3c f   corelib1:COREDLL.dll
 0001:0005fc4c       _wtol                      10060c4c f   corelib1:COREDLL.dll
 0001:0005fc5c       iswctype                   10060c5c f   corelib1:COREDLL.dll
 0001:0005fc6c       wcsstr                     10060c6c f   corelib1:COREDLL.dll
 0001:0005fc7c       __C_specific_handler       10060c7c f   corelib1:COREDLL.dll
 0001:0005fc8c       _purecall                  10060c8c f   corelib1:COREDLL.dll
 0001:0005fc9c       __security_gen_cookie2     10060c9c f   corelib1:COREDLL.dll
 0001:0005fcac       __report_gsfailure         10060cac f   corelib1:COREDLL.dll
 0001:0005fcbc       free                       10060cbc f   corelib1:COREDLL.dll
 0001:0005fccc       malloc                     10060ccc f   corelib1:COREDLL.dll
 0001:0005fcdc       realloc                    10060cdc f   corelib1:COREDLL.dll
 0001:0005fcec       _msize                     10060cec f   corelib1:COREDLL.dll
 0001:0005fcfc       InterlockedCompareExchange 10060cfc f   coredll:COREDLL.dll
 0001:0005fd0c       InterlockedExchange        10060d0c f   coredll:COREDLL.dll
 0001:0005fd1c       TerminateProcess           10060d1c f   coredll:COREDLL.dll
 0001:0005fd34       ??__Fcs@?1??get_lock@?$singleton@V?$free_list@$0GE@Vallocator@ce@@@ce@@$03V?$static_allocator@V?$free_list@$0GE@Vallocator@ce@@@ce@@$03@2@@ce@@KAAAVcritical_section@2@XZ@YAXXZ 10060d34 f i commctrl_ALL:link.obj
 0001:0005fd40       ??__Fcs@?1??get_lock@?$singleton@VUIFactory@@$0A@V?$static_allocator@VUIFactory@@$0A@@ce@@@ce@@KAAAVcritical_section@2@XZ@YAXXZ 10060d40 f i commctrl_ALL:uifactory.obj
 0001:0005ff20       __IMPORT_DESCRIPTOR_COREDLL 10060f20     coredll:COREDLL.dll
 0001:0005ff34       __NULL_IMPORT_DESCRIPTOR   10060f34     coredll:COREDLL.dll
 0002:00000000       __imp_ExtTextOutW          10062000     coredll:COREDLL.dll
 0002:00000004       __imp_SetBkColor           10062004     coredll:COREDLL.dll
 0002:00000008       __imp_LocalFree            10062008     coredll:COREDLL.dll
 0002:0000000c       __imp_GetTextExtentExPointW 1006200c     coredll:COREDLL.dll
 0002:00000010       __imp_StringCchCopyW       10062010     coredll:COREDLL.dll
 0002:00000014       __imp_DrawTextW            10062014     coredll:COREDLL.dll
 0002:00000018       __imp_LocalAlloc           10062018     coredll:COREDLL.dll
 0002:0000001c       __imp_SetRect              1006201c     coredll:COREDLL.dll
 0002:00000020       __imp_SetTextColor         10062020     coredll:COREDLL.dll
 0002:00000024       __imp_SetBkMode            10062024     coredll:COREDLL.dll
 0002:00000028       __imp_ImageList_DrawIndirect 10062028     coredll:COREDLL.dll
 0002:0000002c       __imp_PatBlt               1006202c     coredll:COREDLL.dll
 0002:00000030       __imp_DeleteObject         10062030     coredll:COREDLL.dll
 0002:00000034       __imp_CreateBitmap         10062034     coredll:COREDLL.dll
 0002:00000038       __imp_GetObjectW           10062038     coredll:COREDLL.dll
 0002:0000003c       __imp_ImageList_SetBkColor 1006203c     coredll:COREDLL.dll
 0002:00000040       __imp_SelectObject         10062040     coredll:COREDLL.dll
 0002:00000044       __imp_CreateCompatibleDC   10062044     coredll:COREDLL.dll
 0002:00000048       __imp_DeleteDC             10062048     coredll:COREDLL.dll
 0002:0000004c       __imp_DefWindowProcW       1006204c     coredll:COREDLL.dll
 0002:00000050       __imp_LocalSize            10062050     coredll:COREDLL.dll
 0002:00000054       __imp_ImageList_AddMasked  10062054     coredll:COREDLL.dll
 0002:00000058       __imp_LoadBitmapW          10062058     coredll:COREDLL.dll
 0002:0000005c       __imp_ImageList_Create     1006205c     coredll:COREDLL.dll
 0002:00000060       __imp_ImageList_Destroy    10062060     coredll:COREDLL.dll
 0002:00000064       __imp_ImageList_GetImageCount 10062064     coredll:COREDLL.dll
 0002:00000068       __imp_SetLastError         10062068     coredll:COREDLL.dll
 0002:0000006c       __imp_SetWindowLongW       1006206c     coredll:COREDLL.dll
 0002:00000070       __imp_DestroyWindow        10062070     coredll:COREDLL.dll
 0002:00000074       __imp_IsWindow             10062074     coredll:COREDLL.dll
 0002:00000078       __imp_SendMessageW         10062078     coredll:COREDLL.dll
 0002:0000007c       __imp_ReleaseDC            1006207c     coredll:COREDLL.dll
 0002:00000080       __imp_GetDC                10062080     coredll:COREDLL.dll
 0002:00000084       __imp_InvalidateRect       10062084     coredll:COREDLL.dll
 0002:00000088       __imp_GetClientRect        10062088     coredll:COREDLL.dll
 0002:0000008c       __imp_MapWindowPoints      1006208c     coredll:COREDLL.dll
 0002:00000090       __imp_GetWindowRect        10062090     coredll:COREDLL.dll
 0002:00000094       __imp_GetParent            10062094     coredll:COREDLL.dll
 0002:00000098       __imp_PeekMessageW         10062098     coredll:COREDLL.dll
 0002:0000009c       __imp_UpdateWindow         1006209c     coredll:COREDLL.dll
 0002:000000a0       __imp_BitBlt               100620a0     coredll:COREDLL.dll
 0002:000000a4       __imp_GetStockObject       100620a4     coredll:COREDLL.dll
 0002:000000a8       __imp_SetLayout            100620a8     coredll:COREDLL.dll
 0002:000000ac       __imp_GetLayout            100620ac     coredll:COREDLL.dll
 0002:000000b0       __imp_EndPaint             100620b0     coredll:COREDLL.dll
 0002:000000b4       __imp_DrawEdge             100620b4     coredll:COREDLL.dll
 0002:000000b8       __imp_InflateRect          100620b8     coredll:COREDLL.dll
 0002:000000bc       __imp_BeginPaint           100620bc     coredll:COREDLL.dll
 0002:000000c0       __imp_GetTextMetricsW      100620c0     coredll:COREDLL.dll
 0002:000000c4       __imp_CreateFontIndirectW  100620c4     coredll:COREDLL.dll
 0002:000000c8       __imp_LocalReAlloc         100620c8     coredll:COREDLL.dll
 0002:000000cc       __imp_LoadStringW          100620cc     coredll:COREDLL.dll
 0002:000000d0       __imp_GetDeviceCaps        100620d0     coredll:COREDLL.dll
 0002:000000d4       __imp_ImageList_GetIconSize 100620d4     coredll:COREDLL.dll
 0002:000000d8       __imp_SetWindowPos         100620d8     coredll:COREDLL.dll
 0002:000000dc       __imp_ScreenToClient       100620dc     coredll:COREDLL.dll
 0002:000000e0       __imp_DispatchMessageW     100620e0     coredll:COREDLL.dll
 0002:000000e4       __imp_TranslateMessage     100620e4     coredll:COREDLL.dll
 0002:000000e8       __imp_MessageBeep          100620e8     coredll:COREDLL.dll
 0002:000000ec       __imp_SetCapture           100620ec     coredll:COREDLL.dll
 0002:000000f0       __imp_PtInRect             100620f0     coredll:COREDLL.dll
 0002:000000f4       __imp_PostMessageW         100620f4     coredll:COREDLL.dll
 0002:000000f8       __imp_ReleaseCapture       100620f8     coredll:COREDLL.dll
 0002:000000fc       __imp_GetCapture           100620fc     coredll:COREDLL.dll
 0002:00000100       __imp_CreateWindowExW      10062100     coredll:COREDLL.dll
 0002:00000104       __imp_ImmAssociateContext  10062104     coredll:COREDLL.dll
 0002:00000108       __imp_GetWindowLongW       10062108     coredll:COREDLL.dll
 0002:0000010c       __imp_RegisterClassW       1006210c     coredll:COREDLL.dll
 0002:00000110       __imp_LoadCursorW          10062110     coredll:COREDLL.dll
 0002:00000114       __imp_GetClassInfoW        10062114     coredll:COREDLL.dll
 0002:00000118       __imp_DSA_Create           10062118     coredll:COREDLL.dll
 0002:0000011c       __imp_DSA_Destroy          1006211c     coredll:COREDLL.dll
 0002:00000120       __imp_DSA_EnumCallback     10062120     coredll:COREDLL.dll
 0002:00000124       __imp_DSA_DestroyCallback  10062124     coredll:COREDLL.dll
 0002:00000128       __imp_DSA_GetItem          10062128     coredll:COREDLL.dll
 0002:0000012c       __imp_DSA_GetItemPtr       1006212c     coredll:COREDLL.dll
 0002:00000130       __imp_DSA_SetItem          10062130     coredll:COREDLL.dll
 0002:00000134       __imp_DSA_SetRange         10062134     coredll:COREDLL.dll
 0002:00000138       __imp_DSA_InsertItem       10062138     coredll:COREDLL.dll
 0002:0000013c       __imp_DSA_DeleteItem       1006213c     coredll:COREDLL.dll
 0002:00000140       __imp_DSA_Search           10062140     coredll:COREDLL.dll
 0002:00000144       __imp_DSA_Clone            10062144     coredll:COREDLL.dll
 0002:00000148       __imp_DSA_DeleteAllItems   10062148     coredll:COREDLL.dll
 0002:0000014c       __imp_DSA_Sort             1006214c     coredll:COREDLL.dll
 0002:00000150       __imp_DPA_Create           10062150     coredll:COREDLL.dll
 0002:00000154       __imp_DPA_Destroy          10062154     coredll:COREDLL.dll
 0002:00000158       __imp_DPA_GetPtr           10062158     coredll:COREDLL.dll
 0002:0000015c       __imp_DPA_GetPtrIndex      1006215c     coredll:COREDLL.dll
 0002:00000160       __imp_DPA_Grow             10062160     coredll:COREDLL.dll
 0002:00000164       __imp_DPA_SetPtr           10062164     coredll:COREDLL.dll
 0002:00000168       __imp_DPA_InsertPtr        10062168     coredll:COREDLL.dll
 0002:0000016c       __imp_DPA_DeletePtr        1006216c     coredll:COREDLL.dll
 0002:00000170       __imp_DPA_DeleteAllPtrs    10062170     coredll:COREDLL.dll
 0002:00000174       __imp_DPA_DestroyCallback  10062174     coredll:COREDLL.dll
 0002:00000178       __imp_DPA_Sort             10062178     coredll:COREDLL.dll
 0002:0000017c       __imp_DPA_Search           1006217c     coredll:COREDLL.dll
 0002:00000180       __imp_DrawIconEx           10062180     coredll:COREDLL.dll
 0002:00000184       __imp_CreateSolidBrush     10062184     coredll:COREDLL.dll
 0002:00000188       __imp_GetNearestColor      10062188     coredll:COREDLL.dll
 0002:0000018c       __imp_SetTextAlign         1006218c     coredll:COREDLL.dll
 0002:00000190       __imp_GetTextAlign         10062190     coredll:COREDLL.dll
 0002:00000194       __imp_DrawFrameControl     10062194     coredll:COREDLL.dll
 0002:00000198       __imp_RestoreDC            10062198     coredll:COREDLL.dll
 0002:0000019c       __imp_IntersectClipRect    1006219c     coredll:COREDLL.dll
 0002:000001a0       __imp_SaveDC               100621a0     coredll:COREDLL.dll
 0002:000001a4       __imp_GetDlgCtrlID         100621a4     coredll:COREDLL.dll
 0002:000001a8       __imp_RedrawWindow         100621a8     coredll:COREDLL.dll
 0002:000001ac       __imp_SetCursor            100621ac     coredll:COREDLL.dll
 0002:000001b0       __imp_GetClipCursor        100621b0     coredll:COREDLL.dll
 0002:000001b4       __imp_KillTimer            100621b4     coredll:COREDLL.dll
 0002:000001b8       __imp_ClientToScreen       100621b8     coredll:COREDLL.dll
 0002:000001bc       __imp_OffsetRect           100621bc     coredll:COREDLL.dll
 0002:000001c0       __imp_IsRectEmpty          100621c0     coredll:COREDLL.dll
 0002:000001c4       __imp_SetRectEmpty         100621c4     coredll:COREDLL.dll
 0002:000001c8       __imp_SelectClipRgn        100621c8     coredll:COREDLL.dll
 0002:000001cc       __imp_CombineRgn           100621cc     coredll:COREDLL.dll
 0002:000001d0       __imp_CreateRectRgn        100621d0     coredll:COREDLL.dll
 0002:000001d4       __imp_CreateRectRgnIndirect 100621d4     coredll:COREDLL.dll
 0002:000001d8       __imp_GetBkColor           100621d8     coredll:COREDLL.dll
 0002:000001dc       __imp_GetTextColor         100621dc     coredll:COREDLL.dll
 0002:000001e0       __imp_ImageList_CopyDitherImage 100621e0     coredll:COREDLL.dll
 0002:000001e4       __imp_ImageList_Add        100621e4     coredll:COREDLL.dll
 0002:000001e8       __imp_GetAsyncKeyState     100621e8     coredll:COREDLL.dll
 0002:000001ec       __imp_SetTimer             100621ec     coredll:COREDLL.dll
 0002:000001f0       __imp_ImageList_DragEnter  100621f0     coredll:COREDLL.dll
 0002:000001f4       __imp_ImageList_BeginDrag  100621f4     coredll:COREDLL.dll
 0002:000001f8       __imp_ScrollWindowEx       100621f8     coredll:COREDLL.dll
 0002:000001fc       __imp_GetSysColor          100621fc     coredll:COREDLL.dll
 0002:00000200       __imp_ImageList_DragShowNolock 10062200     coredll:COREDLL.dll
 0002:00000204       __imp_ImageList_DragMove   10062204     coredll:COREDLL.dll
 0002:00000208       __imp_ImageList_EndDrag    10062208     coredll:COREDLL.dll
 0002:0000020c       __imp_InitializeCriticalSection 1006220c     coredll:COREDLL.dll
 0002:00000210       __imp_DeleteCriticalSection 10062210     coredll:COREDLL.dll
 0002:00000214       __imp_UnregisterClassW     10062214     coredll:COREDLL.dll
 0002:00000218       __imp_InterlockedIncrement 10062218     coredll:COREDLL.dll
 0002:0000021c       __imp_InterlockedDecrement 1006221c     coredll:COREDLL.dll
 0002:00000220       __imp_GetFocus             10062220     coredll:COREDLL.dll
 0002:00000224       __imp_CopyRect             10062224     coredll:COREDLL.dll
 0002:00000228       __imp_SetFocus             10062228     coredll:COREDLL.dll
 0002:0000022c       __imp_FillRect             1006222c     coredll:COREDLL.dll
 0002:00000230       __imp_CreateDIBSection     10062230     coredll:COREDLL.dll
 0002:00000234       __imp_EnableWindow         10062234     coredll:COREDLL.dll
 0002:00000238       __imp_IsWindowEnabled      10062238     coredll:COREDLL.dll
 0002:0000023c       __imp_GetWindowCompositionFlags 1006223c     coredll:COREDLL.dll
 0002:00000240       __imp_MapVirtualKeyW       10062240     coredll:COREDLL.dll
 0002:00000244       __imp_GetMessagePos        10062244     coredll:COREDLL.dll
 0002:00000248       __imp_lstrcmpiW            10062248     coredll:COREDLL.dll
 0002:0000024c       __imp_DPA_Clone            1006224c     coredll:COREDLL.dll
 0002:00000250       __imp_EqualRect            10062250     coredll:COREDLL.dll
 0002:00000254       __imp_SetBrushOrgEx        10062254     coredll:COREDLL.dll
 0002:00000258       __imp_CreateCompatibleBitmap 10062258     coredll:COREDLL.dll
 0002:0000025c       __imp_SetViewportOrgEx     1006225c     coredll:COREDLL.dll
 0002:00000260       __imp_ExcludeClipRect      10062260     coredll:COREDLL.dll
 0002:00000264       __imp_GetClipBox           10062264     coredll:COREDLL.dll
 0002:00000268       __imp_GetClipRgn           10062268     coredll:COREDLL.dll
 0002:0000026c       __imp_IsWindowVisible      1006226c     coredll:COREDLL.dll
 0002:00000270       __imp_GetScrollInfo        10062270     coredll:COREDLL.dll
 0002:00000274       __imp_GetSystemMetrics     10062274     coredll:COREDLL.dll
 0002:00000278       __imp_DrawFocusRect        10062278     coredll:COREDLL.dll
 0002:0000027c       __imp_IntersectRect        1006227c     coredll:COREDLL.dll
 0002:00000280       __imp_RegCloseKey          10062280     coredll:COREDLL.dll
 0002:00000284       __imp_RegQueryValueExW     10062284     coredll:COREDLL.dll
 0002:00000288       __imp_RegOpenKeyExW        10062288     coredll:COREDLL.dll
 0002:0000028c       __imp_GetDoubleClickTime   1006228c     coredll:COREDLL.dll
 0002:00000290       __imp_CreatePatternBrush   10062290     coredll:COREDLL.dll
 0002:00000294       __imp_HeapFree             10062294     coredll:COREDLL.dll
 0002:00000298       __imp_DPA_EnumCallback     10062298     coredll:COREDLL.dll
 0002:0000029c       __imp_UnionRect            1006229c     coredll:COREDLL.dll
 0002:000002a0       __imp_GetSysColorBrush     100622a0     coredll:COREDLL.dll
 0002:000002a4       __imp_ImageList_GetBkColor 100622a4     coredll:COREDLL.dll
 0002:000002a8       __imp_ShowWindow           100622a8     coredll:COREDLL.dll
 0002:000002ac       __imp_SetScrollInfo        100622ac     coredll:COREDLL.dll
 0002:000002b0       __imp_lstrcmpW             100622b0     coredll:COREDLL.dll
 0002:000002b4       __imp_DPA_CreateEx         100622b4     coredll:COREDLL.dll
 0002:000002b8       __imp_HeapAlloc            100622b8     coredll:COREDLL.dll
 0002:000002bc       __imp_GetUpdateRgn         100622bc     coredll:COREDLL.dll
 0002:000002c0       __imp_GetUpdateRect        100622c0     coredll:COREDLL.dll
 0002:000002c4       __imp_GetKeyState          100622c4     coredll:COREDLL.dll
 0002:000002c8       __imp_GetTickCount         100622c8     coredll:COREDLL.dll
 0002:000002cc       __imp_GetProcessHeap       100622cc     coredll:COREDLL.dll
 0002:000002d0       __imp_GetWindowTextW       100622d0     coredll:COREDLL.dll
 0002:000002d4       __imp_CallWindowProcW      100622d4     coredll:COREDLL.dll
 0002:000002d8       __imp_GetProcessVersion    100622d8     coredll:COREDLL.dll
 0002:000002dc       __imp_CreateDIBPatternBrushPt 100622dc     coredll:COREDLL.dll
 0002:000002e0       __imp_SystemParametersInfoW 100622e0     coredll:COREDLL.dll
 0002:000002e4       __imp_GetForegroundWindow  100622e4     coredll:COREDLL.dll
 0002:000002e8       __imp_GetClassNameW        100622e8     coredll:COREDLL.dll
 0002:000002ec       __imp_MoveWindow           100622ec     coredll:COREDLL.dll
 0002:000002f0       __imp_SetParent            100622f0     coredll:COREDLL.dll
 0002:000002f4       __imp_DrawMenuBar          100622f4     coredll:COREDLL.dll
 0002:000002f8       __imp_SetAssociatedMenu    100622f8     coredll:COREDLL.dll
 0002:000002fc       __imp_CreateDialogIndirectParamW 100622fc     coredll:COREDLL.dll
 0002:00000300       __imp_MapDialogRect        10062300     coredll:COREDLL.dll
 0002:00000304       __imp_SizeofResource       10062304     coredll:COREDLL.dll
 0002:00000308       __imp_LoadResource         10062308     coredll:COREDLL.dll
 0002:0000030c       __imp_FindResourceW        1006230c     coredll:COREDLL.dll
 0002:00000310       __imp_LoadImageW           10062310     coredll:COREDLL.dll
 0002:00000314       __imp_GetProp              10062314     coredll:COREDLL.dll
 0002:00000318       __imp_GetLocaleInfoW       10062318     coredll:COREDLL.dll
 0002:0000031c       __imp_SetWindowTextW       1006231c     coredll:COREDLL.dll
 0002:00000320       __imp_GetNumberFormatW     10062320     coredll:COREDLL.dll
 0002:00000324       __imp_StringCchPrintfW     10062324     coredll:COREDLL.dll
 0002:00000328       __imp_GetWindowTextLengthW 10062328     coredll:COREDLL.dll
 0002:0000032c       __imp_GetWindow            1006232c     coredll:COREDLL.dll
 0002:00000330       __imp_GetGestureInfo       10062330     coredll:COREDLL.dll
 0002:00000334       __imp_AdjustWindowRectEx   10062334     coredll:COREDLL.dll
 0002:00000338       __imp_GetPixel             10062338     coredll:COREDLL.dll
 0002:0000033c       __imp_FreeLibrary          1006233c     coredll:COREDLL.dll
 0002:00000340       __imp_CloseHandle          10062340     coredll:COREDLL.dll
 0002:00000344       __imp_UnmapViewOfFile      10062344     coredll:COREDLL.dll
 0002:00000348       __imp_GetProcAddressW      10062348     coredll:COREDLL.dll
 0002:0000034c       __imp_EnterCriticalSection 1006234c     coredll:COREDLL.dll
 0002:00000350       __imp_LeaveCriticalSection 10062350     coredll:COREDLL.dll
 0002:00000354       __imp_WaitForAPIReady      10062354     coredll:COREDLL.dll
 0002:00000358       __imp_ConvertCalDateTimeToSystemTime 10062358     coredll:COREDLL.dll
 0002:0000035c       __imp_UpdateCalendarDayOfWeek 1006235c     coredll:COREDLL.dll
 0002:00000360       __imp_LCMapStringW         10062360     coredll:COREDLL.dll
 0002:00000364       __imp_ConvertSystemTimeToCalDateTime 10062364     coredll:COREDLL.dll
 0002:00000368       __imp_GetLocalTime         10062368     coredll:COREDLL.dll
 0002:0000036c       __imp_GetDateFormatW       1006236c     coredll:COREDLL.dll
 0002:00000370       __imp_GetCalendarDateFormatEx 10062370     coredll:COREDLL.dll
 0002:00000374       __imp_LCIDToLocaleName     10062374     coredll:COREDLL.dll
 0002:00000378       __imp_GetStringTypeExW     10062378     coredll:COREDLL.dll
 0002:0000037c       __imp_GetUserDefaultLCID   1006237c     coredll:COREDLL.dll
 0002:00000380       __imp_GetCalendarInfoW     10062380     coredll:COREDLL.dll
 0002:00000384       __imp_Rectangle            10062384     coredll:COREDLL.dll
 0002:00000388       __imp_CharNextW            10062388     coredll:COREDLL.dll
 0002:0000038c       __imp_DestroyMenu          1006238c     coredll:COREDLL.dll
 0002:00000390       __imp_SystemTimeToFileTime 10062390     coredll:COREDLL.dll
 0002:00000394       __imp_GetTimeFormatW       10062394     coredll:COREDLL.dll
 0002:00000398       __imp_GetCalendarSupportedDateRange 10062398     coredll:COREDLL.dll
 0002:0000039c       __imp_CreatePenIndirect    1006239c     coredll:COREDLL.dll
 0002:000003a0       __imp_GetMessageW          100623a0     coredll:COREDLL.dll
 0002:000003a4       __imp_ImmSIPanelState      100623a4     coredll:COREDLL.dll
 0002:000003a8       __imp_ImmSetOpenStatus     100623a8     coredll:COREDLL.dll
 0002:000003ac       __imp_ImmGetContext        100623ac     coredll:COREDLL.dll
 0002:000003b0       __imp_GetCalendarMonthsInYear 100623b0     coredll:COREDLL.dll
 0002:000003b4       __imp_TrackPopupMenuEx     100623b4     coredll:COREDLL.dll
 0002:000003b8       __imp_CheckMenuRadioItem   100623b8     coredll:COREDLL.dll
 0002:000003bc       __imp_AppendMenuW          100623bc     coredll:COREDLL.dll
 0002:000003c0       __imp_CreatePopupMenu      100623c0     coredll:COREDLL.dll
 0002:000003c4       __imp_IsChild              100623c4     coredll:COREDLL.dll
 0002:000003c8       __imp_GetSystemDefaultLangID 100623c8     coredll:COREDLL.dll
 0002:000003cc       __imp_GetMonitorInfo       100623cc     coredll:COREDLL.dll
 0002:000003d0       __imp_MonitorFromPoint     100623d0     coredll:COREDLL.dll
 0002:000003d4       __imp_WindowFromPoint      100623d4     coredll:COREDLL.dll
 0002:000003d8       __imp_MulDiv               100623d8     coredll:COREDLL.dll
 0002:000003dc       __imp_StringCchPrintfExW   100623dc     coredll:COREDLL.dll
 0002:000003e0       __imp_GetDlgItem           100623e0     coredll:COREDLL.dll
 0002:000003e4       __imp_LoadLibraryW         100623e4     coredll:COREDLL.dll
 0002:000003e8       __imp_SetWindowPosOnRotate 100623e8     coredll:COREDLL.dll
 0002:000003ec       __imp_SendDlgItemMessageW  100623ec     coredll:COREDLL.dll
 0002:000003f0       __imp_GetNextDlgTabItem    100623f0     coredll:COREDLL.dll
 0002:000003f4       __imp_SetDlgItemTextW      100623f4     coredll:COREDLL.dll
 0002:000003f8       __imp_DestroyIcon          100623f8     coredll:COREDLL.dll
 0002:000003fc       __imp_ImageList_ReplaceIcon 100623fc     coredll:COREDLL.dll
 0002:00000400       __imp_IsDialogMessageW     10062400     coredll:COREDLL.dll
 0002:00000404       __imp_SetForegroundWindow  10062404     coredll:COREDLL.dll
 0002:00000408       __imp_PostQuitMessage      10062408     coredll:COREDLL.dll
 0002:0000040c       __imp_WaitForSingleObject  1006240c     coredll:COREDLL.dll
 0002:00000410       __imp_CreateMutexW         10062410     coredll:COREDLL.dll
 0002:00000414       __imp_ReleaseMutex         10062414     coredll:COREDLL.dll
 0002:00000418       __imp_MapViewOfFile        10062418     coredll:COREDLL.dll
 0002:0000041c       __imp_GetLastError         1006241c     coredll:COREDLL.dll
 0002:00000420       __imp_CreateFileMappingW   10062420     coredll:COREDLL.dll
 0002:00000424       __imp_SetSysColors         10062424     coredll:COREDLL.dll
 0002:00000428       __imp_RegSetValueExW       10062428     coredll:COREDLL.dll
 0002:0000042c       __imp_RegCreateKeyExW      1006242c     coredll:COREDLL.dll
 0002:00000430       __imp_SendNotifyMessageW   10062430     coredll:COREDLL.dll
 0002:00000434       __imp_GradientFill         10062434     coredll:COREDLL.dll
 0002:00000438       __imp_GetOwnerProcess      10062438     coredll:COREDLL.dll
 0002:0000043c       __imp_StringCchCopyNW      1006243c     coredll:COREDLL.dll
 0002:00000440       __imp_ImageList_Remove     10062440     coredll:COREDLL.dll
 0002:00000444       __imp_MsgWaitForMultipleObjectsEx 10062444     coredll:COREDLL.dll
 0002:00000448       __imp_CreatePen            10062448     coredll:COREDLL.dll
 0002:0000044c       __imp_ImmReleaseContext    1006244c     coredll:COREDLL.dll
 0002:00000450       __imp_ImmGetCompositionStringW 10062450     coredll:COREDLL.dll
 0002:00000454       __imp_ImmGetOpenStatus     10062454     coredll:COREDLL.dll
 0002:00000458       __imp_ImmNotifyIME         10062458     coredll:COREDLL.dll
 0002:0000045c       __imp_Polygon              1006245c     coredll:COREDLL.dll
 0002:00000460       __imp_SHLoadDIBitmap       10062460     coredll:COREDLL.dll
 0002:00000464       __imp_StretchBlt           10062464     coredll:COREDLL.dll
 0002:00000468       __imp_CreateIconIndirect   10062468     coredll:COREDLL.dll
 0002:0000046c       __imp_GetCurrentObject     1006246c     coredll:COREDLL.dll
 0002:00000470       __imp_Polyline             10062470     coredll:COREDLL.dll
 0002:00000474       __imp_StringCchCatW        10062474     coredll:COREDLL.dll
 0002:00000478       __imp_ImageList_Draw       10062478     coredll:COREDLL.dll
 0002:0000047c       __imp_ImageList_DrawEx     1006247c     coredll:COREDLL.dll
 0002:00000480       __imp_SetScrollRange       10062480     coredll:COREDLL.dll
 0002:00000484       __imp_StringCchCopyExW     10062484     coredll:COREDLL.dll
 0002:00000488       __imp_ShowCaret            10062488     coredll:COREDLL.dll
 0002:0000048c       __imp_HideCaret            1006248c     coredll:COREDLL.dll
 0002:00000490       __imp_SetScrollPos         10062490     coredll:COREDLL.dll
 0002:00000494       __imp___GetUserKData       10062494     coredll:COREDLL.dll
 0002:00000498       __imp_GlobalAddAtomW       10062498     coredll:COREDLL.dll
 0002:0000049c       __imp_GetWindowThreadProcessId 1006249c     coredll:COREDLL.dll
 0002:000004a0       __imp_SetProp              100624a0     coredll:COREDLL.dll
 0002:000004a4       __imp_RemoveProp           100624a4     coredll:COREDLL.dll
 0002:000004a8       __imp_GetFileSize          100624a8     coredll:COREDLL.dll
 0002:000004ac       __imp_CreateFileW          100624ac     coredll:COREDLL.dll
 0002:000004b0       __imp_StretchDIBits        100624b0     coredll:COREDLL.dll
 0002:000004b4       __imp_RealizePalette       100624b4     coredll:COREDLL.dll
 0002:000004b8       __imp_SelectPalette        100624b8     coredll:COREDLL.dll
 0002:000004bc       __imp_TransparentImage     100624bc     coredll:COREDLL.dll
 0002:000004c0       __imp_CharUpperW           100624c0     coredll:COREDLL.dll
 0002:000004c4       __imp_GetCalendarDaysInMonth 100624c4     coredll:COREDLL.dll
 0002:000004c8       __imp_GetCalendarWeekNumber 100624c8     coredll:COREDLL.dll
 0002:000004cc       __imp_WideCharToMultiByte  100624cc     coredll:COREDLL.dll
 0002:000004d0       __imp_GetSystemDefaultLCID 100624d0     coredll:COREDLL.dll
 0002:000004d4       __imp_CloseClipboard       100624d4     coredll:COREDLL.dll
 0002:000004d8       __imp_GetClipboardData     100624d8     coredll:COREDLL.dll
 0002:000004dc       __imp_OpenClipboard        100624dc     coredll:COREDLL.dll
 0002:000004e0       __imp_wcslen               100624e0     corelib1:COREDLL.dll
 0002:000004e4       __imp___rt_sdiv            100624e4     corelib1:COREDLL.dll
 0002:000004e8       __imp_memset               100624e8     corelib1:COREDLL.dll
 0002:000004ec       __imp_memcpy               100624ec     corelib1:COREDLL.dll
 0002:000004f0       __imp_memmove              100624f0     corelib1:COREDLL.dll
 0002:000004f4       __imp_wcscpy               100624f4     corelib1:COREDLL.dll
 0002:000004f8       __imp_wcsncpy              100624f8     corelib1:COREDLL.dll
 0002:000004fc       __imp_??3@YAXPAX@Z         100624fc     corelib1:COREDLL.dll
 0002:00000500       __imp_??2@YAPAXI@Z         10062500     corelib1:COREDLL.dll
 0002:00000504       __imp__wcsnicmp            10062504     corelib1:COREDLL.dll
 0002:00000508       __imp_wcsncmp              10062508     corelib1:COREDLL.dll
 0002:0000050c       __imp___rt_udiv            1006250c     corelib1:COREDLL.dll
 0002:00000510       __imp_wcscmp               10062510     corelib1:COREDLL.dll
 0002:00000514       __imp__wcsicmp             10062514     corelib1:COREDLL.dll
 0002:00000518       __imp_wcschr               10062518     corelib1:COREDLL.dll
 0002:0000051c       __imp__wtol                1006251c     corelib1:COREDLL.dll
 0002:00000520       __imp_iswctype             10062520     corelib1:COREDLL.dll
 0002:00000524       __imp_wcsstr               10062524     corelib1:COREDLL.dll
 0002:00000528       __imp___C_specific_handler 10062528     corelib1:COREDLL.dll
 0002:0000052c       __imp__purecall            1006252c     corelib1:COREDLL.dll
 0002:00000530       __imp___security_gen_cookie2 10062530     corelib1:COREDLL.dll
 0002:00000534       __imp___report_gsfailure   10062534     corelib1:COREDLL.dll
 0002:00000538       __imp_free                 10062538     corelib1:COREDLL.dll
 0002:0000053c       __imp_malloc               1006253c     corelib1:COREDLL.dll
 0002:00000540       __imp_realloc              10062540     corelib1:COREDLL.dll
 0002:00000544       __imp__msize               10062544     corelib1:COREDLL.dll
 0002:00000548       __imp_InterlockedCompareExchange 10062548     coredll:COREDLL.dll
 0002:0000054c       __imp_InterlockedExchange  1006254c     coredll:COREDLL.dll
 0002:00000550       __imp_TerminateProcess     10062550     coredll:COREDLL.dll
 0002:00000554       \177COREDLL_NULL_THUNK_DATA 10062554     coredll:COREDLL.dll
 0002:0000056c       ?g_uWMProcessAnimation@@3IA 1006256c     commctrl_ALL:commctrlrc_stubs.obj
 0002:00000570       ?g_uWMProgressUpdate@@3IA  10062570     commctrl_ALL:progressgdi.obj
 0002:00000574       __security_cookie          10062574     corelib0:seccinit.obj
 0002:00000578       __security_cookie_complement 10062578     corelib0:seccinit.obj
 0002:00000580       ?g_xSlop@@3HA              10062580     commctrl_ALL:toolbar.obj
 0002:00000584       ?g_ySlop@@3HA              10062584     commctrl_ALL:toolbar.obj
 0002:00000588       ??_B?1??get_lock@?$singleton@V?$free_list@$0GE@Vallocator@ce@@@ce@@$03V?$static_allocator@V?$free_list@$0GE@Vallocator@ce@@@ce@@$03@2@@ce@@KAAAVcritical_section@2@XZ@51 10062588     commctrl_ALL:link.obj
 0002:0000058c       ?cs@?1??get_lock@?$singleton@V?$free_list@$0GE@Vallocator@ce@@@ce@@$03V?$static_allocator@V?$free_list@$0GE@Vallocator@ce@@@ce@@$03@2@@ce@@KAAAVcritical_section@3@XZ@4V43@A 1006258c     commctrl_ALL:link.obj
 0002:000005a0       ?_factory@?$singleton@V?$free_list@$0GE@Vallocator@ce@@@ce@@$03V?$static_allocator@V?$free_list@$0GE@Vallocator@ce@@@ce@@$03@2@@ce@@1Ulock_factory@12@A 100625a0     commctrl_ALL:link.obj
 0002:000005b8       ?g_iDither@@3HA            100625b8     commctrl_ALL:stub.obj
 0002:000005bc       g_hbrMonoDither            100625bc     commctrl_ALL:stub.obj
 0002:000005c4       ?glpfnEditProc@@3P6AJPAUHWND__@@IIJ@ZA 100625c4     commctrl_ALL:gcontrol.obj
 0002:000005c8       ?g_EditEBOffset@@3KA       100625c8     commctrl_ALL:gcontrol.obj
 0002:000005cc       g_hinst                    100625cc     commctrl_ALL:commctrl.obj
 0002:000005d0       ?g_aCC32Subclass@@3GA      100625d0     commctrl_ALL:commctrl.obj
 0002:000005ec       ?c_stArmageddon@@3UCALDATETIME@@A 100625ec     commctrl_ALL:monthcal.obj
 0002:00000614       ?c_stEpoch@@3UCALDATETIME@@A 10062614     commctrl_ALL:monthcal.obj
 0002:0000063c       ?g_hdpaCal@@3PAU_DPA@@A    1006263c     commctrl_ALL:monthcal.obj
 0002:00000640       ?g_szMonthYearFmt@@3PAGA   10062640     commctrl_ALL:monthcal.obj
 0002:00000668       ?g_wPresentYear@@3GA       10062668     commctrl_ALL:monthcal.obj
 0002:0000066c       ?g_szYearMonthFmt@@3PAGA   1006266c     commctrl_ALL:monthcal.obj
 0002:00000694       ?g_pEditProc@@3P6AJPAUHWND__@@IIJ@ZA 10062694     commctrl_ALL:monthcal.obj
 0002:00000698       ?c_maxMonth@@3HA           10062698     commctrl_ALL:monthcal.obj
 0002:0000069c       ?g_gripperwidth@@3HA       1006269c     commctrl_ALL:rebar.obj
 0002:000006a0       ?g_startspace@@3HA         100626a0     commctrl_ALL:rebar.obj
 0002:000006a4       ?g_interspace@@3HA         100626a4     commctrl_ALL:rebar.obj
 0002:000006a8       ?g_wLangID@@3GA            100626a8     commctrl_ALL:sbedit.obj
 0002:000006ac       ?g_pfnEdit@@3P6AJPAUHWND__@@IIJ@ZA 100626ac     commctrl_ALL:sbedit.obj
 0002:000006bc       ?ghwndOwner@@3PAUHWND__@@A 100626bc     commctrl_ALL:statctl.obj
 0002:000006c0       ?ghwndTT@@3PAUHWND__@@A    100626c0     commctrl_ALL:statctl.obj
 0002:000006c4       ?gidTimer@@3HA             100626c4     commctrl_ALL:statctl.obj
 0002:000006cc       ?gptTouchPos@@3KA          100626cc     commctrl_ALL:statctl.obj
 0002:000006d0       ?g_dwMenuHeight@@3KA       100626d0     commctrl_ALL:prsht.obj
 0002:000006d4       g_hInkModHandle            100626d4     commctrl_ALL:prsht.obj
 0002:000006d8       g_hSHColorMap              100626d8     commctrl_ALL:shutil.obj
 0002:000006dc       g_rgSHColorCache           100626dc     commctrl_ALL:shutil.obj
 0002:000006e0       g_hSHColorMutex            100626e0     commctrl_ALL:shutil.obj
 0002:000006e4       g_hSHMetricMap             100626e4     commctrl_ALL:shutil.obj
 0002:000006e8       g_rgSHMetricCache          100626e8     commctrl_ALL:shutil.obj
 0002:000006ec       g_hSHMetricMutex           100626ec     commctrl_ALL:shutil.obj
 0002:000006f0       g_hbrWindowFrame           100626f0     commctrl_ALL:cutils.obj
 0002:000006f4       g_clrBtnShadow             100626f4     commctrl_ALL:cutils.obj
 0002:000006f8       g_cySmIcon                 100626f8     commctrl_ALL:cutils.obj
 0002:000006fc       ?g_fSmoothScroll@@3HA      100626fc     commctrl_ALL:cutils.obj
 0002:00000700       g_fDragFullWindows         10062700     commctrl_ALL:cutils.obj
 0002:00000704       g_clrWindow                10062704     commctrl_ALL:cutils.obj
 0002:00000708       g_clrHighlight             10062708     commctrl_ALL:cutils.obj
 0002:0000070c       g_hbrBtnShadow             1006270c     commctrl_ALL:cutils.obj
 0002:00000714       g_iIncrSearchFailed        10062714     commctrl_ALL:cutils.obj
 0002:00000718       g_cyScreen                 10062718     commctrl_ALL:cutils.obj
 0002:0000071c       g_cxSmIcon                 1006271c     commctrl_ALL:cutils.obj
 0002:00000720       g_cxIconMargin             10062720     commctrl_ALL:cutils.obj
 0002:00000724       g_hbr3DHilight             10062724     commctrl_ALL:cutils.obj
 0002:00000728       g_cxLabelMargin            10062728     commctrl_ALL:cutils.obj
 0002:0000072c       g_hbrBtnHighlight          1006272c     commctrl_ALL:cutils.obj
 0002:00000730       g_nBitsPerPixel            10062730     commctrl_ALL:cutils.obj
 0002:00000734       gcWheelDelta               10062734     commctrl_ALL:cutils.obj
 0002:00000738       g_clrGrayText              10062738     commctrl_ALL:cutils.obj
 0002:0000073c       g_cyIconMargin             1006273c     commctrl_ALL:cutils.obj
 0002:00000740       g_clrInfoText              10062740     commctrl_ALL:cutils.obj
 0002:00000744       g_clrWindowFrame           10062744     commctrl_ALL:cutils.obj
 0002:00000748       g_cxBorder                 10062748     commctrl_ALL:cutils.obj
 0002:0000074c       g_cxScreen                 1006274c     commctrl_ALL:cutils.obj
 0002:00000750       g_hpenBorder               10062750     commctrl_ALL:cutils.obj
 0002:00000754       g_clrBtnHighlight          10062754     commctrl_ALL:cutils.obj
 0002:00000758       g_cxEdge                   10062758     commctrl_ALL:cutils.obj
 0002:0000075c       g_hbr3DDkShadow            1006275c     commctrl_ALL:cutils.obj
 0002:00000760       g_cyLabelSpace             10062760     commctrl_ALL:cutils.obj
 0002:00000764       g_hbr3DFace                10062764     commctrl_ALL:cutils.obj
 0002:00000768       g_hfontSystem              10062768     commctrl_ALL:cutils.obj
 0002:0000076c       g_hbr3DShadow              1006276c     commctrl_ALL:cutils.obj
 0002:00000770       g_hbr3DLight               10062770     commctrl_ALL:cutils.obj
 0002:00000774       g_hpenWhiteBorder          10062774     commctrl_ALL:cutils.obj
 0002:00000778       g_hbrBtnText               10062778     commctrl_ALL:cutils.obj
 0002:00000780       g_cxScrollbar              10062780     commctrl_ALL:cutils.obj
 0002:00000784       g_hbrBtnFace               10062784     commctrl_ALL:cutils.obj
 0002:00000788       g_cyIconSpacing            10062788     commctrl_ALL:cutils.obj
 0002:0000078c       g_hbrWindowText            1006278c     commctrl_ALL:cutils.obj
 0002:00000790       ?g_fAnimate@@3HA           10062790     commctrl_ALL:cutils.obj
 0002:00000794       g_cxDoubleClk              10062794     commctrl_ALL:cutils.obj
 0002:00000798       g_clrInfoBk                10062798     commctrl_ALL:cutils.obj
 0002:0000079c       g_cyScrollbar              1006279c     commctrl_ALL:cutils.obj
 0002:000007a0       ?g_cyDoubleClk@@3HA        100627a0     commctrl_ALL:cutils.obj
 0002:000007a4       g_clrWindowText            100627a4     commctrl_ALL:cutils.obj
 0002:000007a8       g_hbrHighlight             100627a8     commctrl_ALL:cutils.obj
 0002:000007ac       g_cxIcon                   100627ac     commctrl_ALL:cutils.obj
 0002:000007b0       g_hbrWindow                100627b0     commctrl_ALL:cutils.obj
 0002:000007b4       g_hbrBorder                100627b4     commctrl_ALL:cutils.obj
 0002:000007b8       g_clrHighlightText         100627b8     commctrl_ALL:cutils.obj
 0002:000007bc       g_cyIcon                   100627bc     commctrl_ALL:cutils.obj
 0002:000007c0       g_HIDPI_LogPixelsY         100627c0     commctrl_ALL:cutils.obj
 0002:000007c4       g_hbrGrayText              100627c4     commctrl_ALL:cutils.obj
 0002:000007cc       g_cyBorder                 100627cc     commctrl_ALL:cutils.obj
 0002:000007d0       g_cyHScroll                100627d0     commctrl_ALL:cutils.obj
 0002:000007d4       g_clrBtnFace               100627d4     commctrl_ALL:cutils.obj
 0002:000007d8       g_clrBtnText               100627d8     commctrl_ALL:cutils.obj
 0002:000007dc       g_HIDPI_LogPixelsX         100627dc     commctrl_ALL:cutils.obj
 0002:000007e0       g_cyEdge                   100627e0     commctrl_ALL:cutils.obj
 0002:000007e4       g_ucScrollLines            100627e4     commctrl_ALL:cutils.obj
 0002:000007e8       g_cxVScroll                100627e8     commctrl_ALL:cutils.obj
 0002:000007ec       g_cxIconSpacing            100627ec     commctrl_ALL:cutils.obj
 0002:000007fc       ?m_AygshellRefCount@AygUtils_t@@1KA 100627fc     commctrl_ALL:aygutils.obj
 0002:00000800       ?m_hInstAygshell@AygUtils_t@@1PAUHINSTANCE__@@A 10062800     commctrl_ALL:aygutils.obj
 0002:00000804       ?m_csAygshell@AygUtils_t@@1UCRITICAL_SECTION@@A 10062804     commctrl_ALL:aygutils.obj
 0002:00000818       ?m_fInitialized@AygUtils_t@@1HA 10062818     commctrl_ALL:aygutils.obj
 0002:0000081c       ?m_fLoadedAygshellLibrary@AygUtils_t@@1HA 1006281c     commctrl_ALL:aygutils.obj
 0002:00000820       ?pfnSHSetWindowBits@AygUtils_t@@1P6AXPAUHWND__@@HKK@ZA 10062820     commctrl_ALL:aygutils.obj
 0002:00000824       ?pfnDoEditContextMenu@AygUtils_t@@1P6AXPAUHWND__@@H@ZA 10062824     commctrl_ALL:aygutils.obj
 0002:00000828       ?pfnSHCheckForContextMenu@AygUtils_t@@1P6AHPAUHWND__@@JH@ZA 10062828     commctrl_ALL:aygutils.obj
 0002:0000082c       ?pfnSHCreateMenuBar@AygUtils_t@@1P6AHPAUtagSHMENUBARINFO@@@ZA 1006282c     commctrl_ALL:aygutils.obj
 0002:00000830       ?pfnSHCreateSystemFont@AygUtils_t@@1P6APAUHFONT__@@PAUHWND__@@HK@ZA 10062830     commctrl_ALL:aygutils.obj
 0002:00000834       ?pfnSHGetFontHeight@AygUtils_t@@1P6AHI@ZA 10062834     commctrl_ALL:aygutils.obj
 0002:00000838       ?pfnSHGetUiInfo@AygUtils_t@@1P6AHW4tagSHUIINFOTYPE@@KPAKPAX@ZA 10062838     commctrl_ALL:aygutils.obj
 0002:0000083c       ?pfnSHGradientInit@AygUtils_t@@1P6AHPAUtagSHGRADIENT@@HPBG@ZA 1006283c     commctrl_ALL:aygutils.obj
 0002:00000840       ?pfnSHGradientDeInit@AygUtils_t@@1P6AHPAUtagSHGRADIENT@@@ZA 10062840     commctrl_ALL:aygutils.obj
 0002:00000844       ?pfnSHGradientDraw@AygUtils_t@@1P6AHPAUHDC__@@PAUtagSHGRADIENT@@PAUtagRECT@@@ZA 10062844     commctrl_ALL:aygutils.obj
 0002:00000848       ?pfnSHHandleWMActivate@AygUtils_t@@1P6AHPAUHWND__@@IJPAUSHACTIVATEINFO@@K@ZA 10062848     commctrl_ALL:aygutils.obj
 0002:0000084c       ?pfnSHHandleWMSettingChange@AygUtils_t@@1P6AHPAUHWND__@@IJPAUSHACTIVATEINFO@@@ZA 1006284c     commctrl_ALL:aygutils.obj
 0002:00000850       ?pfnSHIdleTimerReset@AygUtils_t@@1P6AXXZA 10062850     commctrl_ALL:aygutils.obj
 0002:00000854       ?pfnSHInitDialog@AygUtils_t@@1P6AHPAUtagSHINITDLGINFO@@@ZA 10062854     commctrl_ALL:aygutils.obj
 0002:00000858       ?pfnSHLoadImageFile@AygUtils_t@@1P6APAUHBITMAP__@@PBG@ZA 10062858     commctrl_ALL:aygutils.obj
 0002:0000085c       ?pfnSHPreProcessLogFont@AygUtils_t@@1P6AXPAUtagLOGFONTW@@@ZA 1006285c     commctrl_ALL:aygutils.obj
 0002:00000860       ?pfnSHSendBackToFocusWindow@AygUtils_t@@1P6AXIIJ@ZA 10062860     commctrl_ALL:aygutils.obj
 0002:00000864       ?pfnSHSipInfo@AygUtils_t@@1P6AHIIPAXI@ZA 10062864     commctrl_ALL:aygutils.obj
 0002:00000868       ?pfnSHSipPreference@AygUtils_t@@1P6AHPAUHWND__@@W4tagSIPSTATE@@@ZA 10062868     commctrl_ALL:aygutils.obj
 0002:0000086c       ?pfnSHRecognizeGesture@AygUtils_t@@1P6AKPAUtagSHRGI@@@ZA 1006286c     commctrl_ALL:aygutils.obj
 0002:00000870       ?pfnSHIsPreOzoneUpdate@AygUtils_t@@1P6AHPAUHWND__@@@ZA 10062870     commctrl_ALL:aygutils.obj
 0002:00000874       ?pfnSHResizeDialogProc@AygUtils_t@@1P6AJPAUHWND__@@IIJ@ZA 10062874     commctrl_ALL:aygutils.obj
 0002:00000878       ?g_hinstOleAut32@@3PAUHINSTANCE__@@A 10062878     commctrl_ALL:dllload.obj
 0002:0000087c       ?g_hinstShlwapi@@3PAUHINSTANCE__@@A 1006287c     commctrl_ALL:dllload.obj
 0002:00000a98       g_hbrStripe                10062a98     commctrl_ALL:boxsel.obj
 0002:00000a9c       ?g_cxSytemMetricsBorder@@3HA 10062a9c     commctrl_ALL:commctrlview.obj
 0002:00000aa0       ?g_cySytemMetricsBorder@@3HA 10062aa0     commctrl_ALL:commctrlview.obj
 0002:00000ab0       ?memory@?1??allocate@?$static_allocator@VUIFactory@@$0A@@ce@@SAPAXI@Z@4PADA 10062ab0     commctrl_ALL:uifactory.obj
 0002:00000ab4       ??_B?1??get_lock@?$singleton@VUIFactory@@$0A@V?$static_allocator@VUIFactory@@$0A@@ce@@@ce@@KAAAVcritical_section@2@XZ@51 10062ab4     commctrl_ALL:uifactory.obj
 0002:00000ab8       ?cs@?1??get_lock@?$singleton@VUIFactory@@$0A@V?$static_allocator@VUIFactory@@$0A@@ce@@@ce@@KAAAVcritical_section@3@XZ@4V43@A 10062ab8     commctrl_ALL:uifactory.obj
 0002:00000acc       ?pInstance@?$singleton@VUIFactory@@$0A@V?$static_allocator@VUIFactory@@$0A@@ce@@@ce@@1RAVUIFactory@@A 10062acc     commctrl_ALL:uifactory.obj
 0002:00000ad0       ?_factory@?$singleton@VUIFactory@@$0A@V?$static_allocator@VUIFactory@@$0A@@ce@@@ce@@1Ulock_factory@12@A 10062ad0     commctrl_ALL:uifactory.obj
 0002:00000ad1       _exitflag                  10062ad1     corelib0:cexit.obj
 0002:00000ad4       __onexitend                10062ad4     <common>
 0002:00000ad8       __onexitbegin              10062ad8     <common>
 0002:00000adc       g_pcsExit                  10062adc     <common>

 entry point at        0001:0005f708

 Static symbols

 0001:0003e748       ?_FillRectClr@@YAXPAUHDC__@@PAUtagRECT@@K@Z 1003f748 f   commctrl_ALL:shutil.obj
 0001:00044804       ?HIDPI_StretchIcon_Internal@@YAHPAUHICON__@@PAPAU1@HH@Z 10045804 f   commctrl_ALL:uihelper.obj
 0001:0005a48c       ?ToSBChar@@YAJPAG@Z        1005b48c f   commctrl_ALL:sbedit_hpc.obj
 0001:0005a6a0       ?TabVFlipRect@@YAXPAUHWND__@@KPAUtagRECT@@@Z 1005b6a0 f   commctrl_ALL:tabview.obj
 0001:0005a6fc       ?TabDrawEdge@@YAXPAUHWND__@@PAUHDC__@@PAUtagRECT@@KII@Z 1005b6fc f   commctrl_ALL:tabview.obj
 0001:0005a7a8       ?TabExtTextOut@@YAXPAUHWND__@@PAUHDC__@@HKHHIPAUtagRECT@@PAGIPBH@Z 1005b7a8 f   commctrl_ALL:tabview.obj
 0001:0005a8a4       ?DoCorners@@YAXPAUHWND__@@PAUHDC__@@HKPAUtagRECT@@H@Z 1005b8a4 f   commctrl_ALL:tabview.obj
 0001:0005ab60       ?DrawBody@@YAXPAUHWND__@@0HHPAUHDC__@@PAUTABITEM@@PAU_IMAGELIST@@PAUtagRECT@@KHHHHH@Z 1005bb60 f   commctrl_ALL:tabview.obj
 0001:0005afa8       ?TabDrawItemFrame@@YAXPAUHWND__@@PAUHDC__@@HKKIPAUTABITEM@@HH@Z 1005bfa8 f   commctrl_ALL:tabview.obj
 0001:0005d990       ?PatRect@@YAXPAUHDC__@@KHHHH@Z 1005e990 f   commctrl_ALL:trackbarview.obj
 0001:0005d9fc       ?DrawTic@@YAXPAUHDC__@@KHHH@Z 1005e9fc f   commctrl_ALL:trackbarview.obj
 0001:0005da60       ?DrawTicsOneLine@@YAXPAUHDC__@@KPAUtagRECT@@PAKHHJJJHH@Z 1005ea60 f   commctrl_ALL:trackbarview.obj
 0001:0005db78       ?DrawSelectionRangeTriangles@@YAXPAUHDC__@@KPAUtagRECT@@JJJJJHH@Z 1005eb78 f   commctrl_ALL:trackbarview.obj
 0001:0005f9ec       doexit                     100609ec f   corelib0:cexit.obj
 0001:0005fd2c       ??__E?_factory@?$singleton@V?$free_list@$0GE@Vallocator@ce@@@ce@@$03V?$static_allocator@V?$free_list@$0GE@Vallocator@ce@@@ce@@$03@2@@ce@@1Ulock_factory@12@A@@YAXXZ 10060d2c f   commctrl_ALL:link.obj
 0001:0005fd30       ??__E?_factory@?$singleton@VUIFactory@@$0A@V?$static_allocator@VUIFactory@@$0A@@ce@@@ce@@1Ulock_factory@12@A@@YAXXZ 10060d30 f   commctrl_ALL:uifactory.obj
