 configmetabase2

 Timestamp is 5ac65237 (Thu Apr 05 09:43:35 2018)

 Preferred load address is 10000000

 Start         Length     Name                   Class
 0001:00000000 00000004H .CRT$XCA                CODE
 0001:00000004 00000008H .CRT$XCL                CODE
 0001:0000000c 00000008H .CRT$XCU                CODE
 0001:00000014 00000004H .CRT$XCZ                CODE
 0001:00000018 00000004H .CRT$XIA                CODE
 0001:0000001c 00000004H .CRT$XIZ                CODE
 0001:00000020 00000004H .CRT$XPA                CODE
 0001:00000024 00000004H .CRT$XPZ                CODE
 0001:00000028 00000004H .CRT$XTA                CODE
 0001:0000002c 00000004H .CRT$XTZ                CODE
 0001:00000030 000003b8H .rdata                  CODE
 0001:000003e8 0000002cH .rdata$debug            CODE
 0001:00000414 00005070H .text                   CODE
 0001:00005484 00000074H .text$yc                CODE
 0001:000054f8 00000030H .text$yd                CODE
 0001:00005528 0000003cH .xdata                  CODE
 0001:00005564 00000004H ATL$__a                 CODE
 0001:00005568 00000004H ATL$__m                 CODE
 0001:0000556c 00000004H ATL$__z                 CODE
 0001:00005570 00000078H .idata$2                CODE
 0001:000055e8 00000014H .idata$3                CODE
 0001:000055fc 000000d8H .idata$4                CODE
 0001:000056d4 000000aeH .idata$6                CODE
 0001:00005790 00000072H .edata                  CODE
 0002:00000000 000000d8H .idata$5                DATA
 0002:000000d8 000000bcH .data                   DATA
 0002:000001a0 0000028cH .bss                    DATA
 0003:00000000 00000598H .pdata                  DATA

  Address         Publics by Value              Rva+Base       Lib:Object

 0000:00000000       ___safe_se_handler_table   00000000     <absolute>
 0000:00000000       ___safe_se_handler_count   00000000     <absolute>
 0001:00000000       __xc_a                     10001000     corelib0:crt0init.obj
 0001:00000014       __xc_z                     10001014     corelib0:crt0init.obj
 0001:00000018       __xi_a                     10001018     corelib0:crt0init.obj
 0001:0000001c       __xi_z                     1000101c     corelib0:crt0init.obj
 0001:00000020       __xp_a                     10001020     corelib0:crt0init.obj
 0001:00000024       __xp_z                     10001024     corelib0:crt0init.obj
 0001:00000028       __xt_a                     10001028     corelib0:crt0init.obj
 0001:0000002c       __xt_z                     1000102c     corelib0:crt0init.obj
 0001:0000004c       ??_C@_1O@JDLOHAN@?$AAD?$AAe?$AAl?$AAe?$AAt?$AAe?$AA?$AA@ 1000104c     configmetabase2dll.obj
 0001:0000005c       ??_C@_1BC@GCKHIPE@?$AAN?$AAo?$AAR?$AAe?$AAm?$AAo?$AAv?$AAe?$AA?$AA@ 1000105c     configmetabase2dll.obj
 0001:00000070       ??_C@_1BI@JFAIJMHL@?$AAF?$AAo?$AAr?$AAc?$AAe?$AAR?$AAe?$AAm?$AAo?$AAv?$AAe?$AA?$AA@ 10001070     configmetabase2dll.obj
 0001:00000088       ??_C@_17LLMMEOJD@?$AAV?$AAa?$AAl?$AA?$AA@ 10001088     configmetabase2dll.obj
 0001:00000090       ??_C@_13OPKGLAFF@?$AAB?$AA?$AA@ 10001090     configmetabase2dll.obj
 0001:00000094       ??_C@_13MKMNOPIJ@?$AAD?$AA?$AA@ 10001094     configmetabase2dll.obj
 0001:00000098       ??_C@_13LHMFKAAD@?$AAM?$AA?$AA@ 10001098     configmetabase2dll.obj
 0001:0000009c       ??_C@_13HADIAKP@?$AAS?$AA?$AA@ 1000109c     configmetabase2dll.obj
 0001:000000c0       _GUID_00000000_0000_0000_c000_000000000046 100010c0     configmetabase2dll.obj
 0001:000000d0       ??_7ConfigMetabase2Dll@@6B@ 100010d0     configmetabase2dll.obj
 0001:000000e8       _GUID_00000146_0000_0000_c000_000000000046 100010e8     configmetabase2dll.obj
 0001:000000f8       ??_C@_11LOCGONAA@?$AA?$AA@ 100010f8     configmetabase2dll.obj
 0001:000000fc       ??_C@_1M@PPPPCDEP@?$AAA?$AAP?$AAP?$AAI?$AAD?$AA?$AA@ 100010fc     configmetabase2dll.obj
 0001:00000108       _GUID_aca48b48_6aba_4667_954c_f794e33bc1c2 10001108     configmetabase2.obj
 0001:00000138       ??_7CComClassFactory@ATL@@6B@ 10001138     configmetabase2.obj
 0001:00000150       ??_7?$CComContainedObject@VConfigMetabase2@@@ATL@@6B@ 10001150     configmetabase2.obj
 0001:00000198       ??_7?$CComObjectNoLock@VCComClassFactory@ATL@@@ATL@@6B@ 10001198     configmetabase2.obj
 0001:000001b0       ?_entries@?1??_GetEntries@CComClassFactory@ATL@@SAPBU_ATL_INTMAP_ENTRY@3@XZ@4QBU43@B 100011b0     configmetabase2.obj
 0001:000001c8       _GUID_00000001_0000_0000_c000_000000000046 100011c8     configmetabase2.obj
 0001:000001d8       ??_7?$CComObject@VConfigMetabase2@@@ATL@@6B@ 100011d8     configmetabase2.obj
 0001:00000224       ?_entries@?1??_GetEntries@ConfigMetabase2@@SAPBU_ATL_INTMAP_ENTRY@ATL@@XZ@4QBU34@B 10001224     configmetabase2.obj
 0001:0000023c       _GUID_2b1c7bef_f8fb_4484_bb21_6c83a9142d8b 1000123c     configmetabase2.obj
 0001:0000024c       ??_7?$CComAggObject@VConfigMetabase2@@@ATL@@6B@ 1000124c     configmetabase2.obj
 0001:0000027c       ??_C@_19EPAIDJFH@?$AAu?$AAr?$AAn?$AA?3?$AA?$AA@ 1000127c     metabaseentry.obj
 0001:00000288       _GUID_2842c0ff_7591_4615_895e_487456de0bf4 10001288     metabaseentry.obj
 0001:00000298       _GUID_516ab1e0_2906_467a_8f3f_2cab5f3d7b57 10001298     metabaseentry.obj
 0001:000002a8       ??_7CEnumConfigMetabaseEntryLocales@@6B@ 100012a8     metabaseentry.obj
 0001:000002d0       ??_7CConfigMetabaseEntryImpl@@6B@ 100012d0     metabaseentry.obj
 0001:00000368       _GUID_2ecb8a29_9507_4762_88f7_782f5afeb0a5 10001368     mblocalelist.obj
 0001:00000378       CLSID_StdGlobalInterfaceTable 10001378     dcomuuid:dcomuuid.obj
 0001:00000388       IID_IConfigMetabaseEntry2  10001388     cmuuid:metabase2_i.obj
 0001:00000398       LIBID_ConfigMetabase2      10001398     cmuuid:metabase2_i.obj
 0001:000003a8       GUID_ATLVer30              100013a8     atls:atlbase.obj
 0001:000003b8       GUID_ATLVer70              100013b8     atls:atlbase.obj
 0001:00000414       ?InlineIsEqualGUID@@YAHABU_GUID@@0@Z 10001414 f i configmetabase2dll.obj
 0001:0000045c       ?AtlThrowImpl@ATL@@YAXJ@Z  1000145c f i configmetabase2dll.obj
 0001:00000490       ?Init@CComCriticalSection@ATL@@QAAJXZ 10001490 f i configmetabase2dll.obj
 0001:000004e8       ?AtlCallTermFunc@ATL@@YAXPAU_ATL_MODULE70@1@@Z 100014e8 f i configmetabase2dll.obj
 0001:00000540       ??0CAtlModule@ATL@@QAA@XZ  10001540 f i configmetabase2dll.obj
 0001:000005a8       ?Term@CAtlModule@ATL@@QAAXXZ 100015a8 f i configmetabase2dll.obj
 0001:000005fc       DllCanUnloadNow            100015fc f   configmetabase2dll.obj
 0001:00000624       ??0?$CAtlModuleT@VConfigMetabase2Dll@@@ATL@@QAA@XZ 10001624 f i configmetabase2dll.obj
 0001:00000668       ?AtlComModuleGetClassObject@ATL@@YAJPAU_ATL_COM_MODULE70@1@ABU_GUID@@1PAPAX@Z 10001668 f i configmetabase2dll.obj
 0001:0000079c       ??0?$CAtlDllModuleT@VConfigMetabase2Dll@@@ATL@@QAA@XZ 1000179c f i configmetabase2dll.obj
 0001:000007ec       ??1?$CAtlDllModuleT@VConfigMetabase2Dll@@@ATL@@UAA@XZ 100017ec f i configmetabase2dll.obj
 0001:0000083c       ?Lock@CAtlModule@ATL@@UAAJXZ 1000183c f i configmetabase2dll.obj
 0001:00000844       ?Unlock@CAtlModule@ATL@@UAAJXZ 10001844 f i configmetabase2dll.obj
 0001:0000084c       ?GetLockCount@CAtlModule@ATL@@UAAJXZ 1000184c f i configmetabase2dll.obj
 0001:00000854       ?GetGITPtr@CAtlModule@ATL@@UAAJPAPAUIGlobalInterfaceTable@@@Z 10001854 f i configmetabase2dll.obj
 0001:000008d0       ?AddCommonRGSReplacements@?$CAtlModuleT@VConfigMetabase2Dll@@@ATL@@UAAJPAUIRegistrarBase@@@Z 100018d0 f i configmetabase2dll.obj
 0001:000008f8       ??_GConfigMetabase2Dll@@UAAPAXI@Z 100018f8 f i configmetabase2dll.obj
 0001:000008f8       ??_EConfigMetabase2Dll@@UAAPAXI@Z 100018f8 f i configmetabase2dll.obj
 0001:0000091c       DllGetClassObject          1000191c f   configmetabase2dll.obj
 0001:00000934       ?ObjectMain@CComObjectRootBase@ATL@@SAX_N@Z 10001934 f i configmetabase2.obj
 0001:00000938       ?GetMetabaseExternalEntryExists@@YAHW4METABASE_TABLE@@PAU_CEPROPVAL@@K@Z 10001938 f i configmetabase2.obj
 0001:00000998       ?UpdateRegistry@ConfigMetabase2@@SAJH@Z 10001998 f i configmetabase2.obj
 0001:000009a0       ?FinalConstruct@ConfigMetabase2@@UAAJXZ 100019a0 f   configmetabase2.obj
 0001:000009b0       ?FinalRelease@ConfigMetabase2@@UAAJXZ 100019b0 f   configmetabase2.obj
 0001:000009dc       ?BeginSession@ConfigMetabase2@@UAAJXZ 100019dc f   configmetabase2.obj
 0001:000009e4       ?EndSession@ConfigMetabase2@@UAAJXZ 100019e4 f   configmetabase2.obj
 0001:00000a10       ?GetAuthorization@ConfigMetabase2@@UAAJQAGPAKPAPAUMETABASE_AUTHORIZATION@@@Z 10001a10 f   configmetabase2.obj
 0001:00000a1c       ?SetAuthorization@ConfigMetabase2@@UAAJQAGKPAUMETABASE_AUTHORIZATION@@@Z 10001a1c f   configmetabase2.obj
 0001:00000a28       ?CheckSecurityAccessForPath@ConfigMetabase2@@UAAJQAGK@Z 10001a28 f   configmetabase2.obj
 0001:00000a30       ?CheckSecurityAccessForIri@ConfigMetabase2@@UAAJPAUHIRI__@@K@Z 10001a30 f   configmetabase2.obj
 0001:00000a38       ?CheckSecurityAccessRecursiveForPath@ConfigMetabase2@@UAAJQAGK@Z 10001a38 f   configmetabase2.obj
 0001:00000a40       ?CheckSecurityAccessRecursiveForIri@ConfigMetabase2@@UAAJPAUHIRI__@@K@Z 10001a40 f   configmetabase2.obj
 0001:00000a48       ?GetObjectDescription@?$CComCoClass@VConfigMetabase2@@$1?CLSID_ConfigMetabase2@@3U_GUID@@B@ATL@@SAPBGXZ 10001a48 f i configmetabase2.obj
 0001:00000a50       ??_9IConfigMetabaseEntry2@@$BGI@AA 10001a50 f i configmetabase2.obj
 0001:00000a5c       ??_9IConfigMetabaseEntry2@@$BGM@AA 10001a5c f i configmetabase2.obj
 0001:00000a68       ??_9IConfigMetabaseEntry2@@$BHA@AA 10001a68 f i configmetabase2.obj
 0001:00000a74       ??_9IConfigMetabaseEntry2@@$BHE@AA 10001a74 f i configmetabase2.obj
 0001:00000a80       ?CreateInstance@CComClassFactory@ATL@@UAAJPAUIUnknown@@ABU_GUID@@PAPAX@Z 10001a80 f i configmetabase2.obj
 0001:00000b04       ?LockServer@CComClassFactory@ATL@@UAAJH@Z 10001b04 f i configmetabase2.obj
 0001:00000b40       ??_GCComClassFactory@ATL@@UAAPAXI@Z 10001b40 f i configmetabase2.obj
 0001:00000b40       ??_ECComClassFactory@ATL@@UAAPAXI@Z 10001b40 f i configmetabase2.obj
 0001:00000b80       ?GetCanonicalStringFromPath@ConfigMetabase2@@AAAJQAGPAPAG@Z 10001b80 f   configmetabase2.obj
 0001:00000ce0       ?GetAllLocalizedStrings@ConfigMetabase2@@AAAJPAU_CEPROPVAL@@KPAUIConfigMetabaseEntry2@@P83@AAJGPAG@Z@Z 10001ce0 f   configmetabase2.obj
 0001:00000d40       ?SetAllLocalizedStrings@ConfigMetabase2@@AAAJPAUIConfigMetabaseEntry2@@P82@AAJGPAPAG@ZPAPAU_CEPROPVAL@@PAK@Z 10001d40 f   configmetabase2.obj
 0001:00000f10       ?get_lock@?$singleton@V?$free_list@$0GE@Vallocator@ce@@@ce@@$03V?$static_allocator@V?$free_list@$0GE@Vallocator@ce@@@ce@@$03@2@@ce@@KAAAVcritical_section@2@XZ 10001f10 f i configmetabase2.obj
 0001:00000f64       ?AddRef@?$CComContainedObject@VConfigMetabase2@@@ATL@@UAAKXZ 10001f64 f i configmetabase2.obj
 0001:00000f80       ?Release@?$CComContainedObject@VConfigMetabase2@@@ATL@@UAAKXZ 10001f80 f i configmetabase2.obj
 0001:00000f9c       ?QueryInterface@?$CComContainedObject@VConfigMetabase2@@@ATL@@UAAJABU_GUID@@PAPAX@Z 10001f9c f i configmetabase2.obj
 0001:00000fb8       ?SetEntry@ConfigMetabase2@@UAAJQAGPAUIConfigMetabaseEntry@@@Z 10001fb8 f   configmetabase2.obj
 0001:000012f0       ?DeleteEntry@ConfigMetabase2@@UAAJQAG@Z 100022f0 f   configmetabase2.obj
 0001:00001394       ?DeleteEntryProperties@ConfigMetabase2@@UAAJQAGK@Z 10002394 f   configmetabase2.obj
 0001:000015c8       ?AtlInternalQueryInterface@ATL@@YAJPAXPBU_ATL_INTMAP_ENTRY@1@ABU_GUID@@PAPAX@Z 100025c8 f i configmetabase2.obj
 0001:000016f4       ?AddRef@?$CComObjectNoLock@VCComClassFactory@ATL@@@ATL@@UAAKXZ 100026f4 f i configmetabase2.obj
 0001:000016fc       ?Release@?$CComObjectNoLock@VCComClassFactory@ATL@@@ATL@@UAAKXZ 100026fc f i configmetabase2.obj
 0001:00001734       ?QueryInterface@?$CComObjectNoLock@VCComClassFactory@ATL@@@ATL@@UAAJABU_GUID@@PAPAX@Z 10002734 f i configmetabase2.obj
 0001:00001748       ??_E?$CComObjectNoLock@VCComClassFactory@ATL@@@ATL@@UAAPAXI@Z 10002748 f i configmetabase2.obj
 0001:00001748       ??_G?$CComObjectNoLock@VCComClassFactory@ATL@@@ATL@@UAAPAXI@Z 10002748 f i configmetabase2.obj
 0001:00001790       ?AddRef@?$CComObject@VConfigMetabase2@@@ATL@@UAAKXZ 10002790 f i configmetabase2.obj
 0001:000017a4       ?Release@?$CComObject@VConfigMetabase2@@@ATL@@UAAKXZ 100027a4 f i configmetabase2.obj
 0001:000017dc       ??1?$CComObject@VConfigMetabase2@@@ATL@@UAA@XZ 100027dc f i configmetabase2.obj
 0001:00001830       ?QueryInterface@?$CComObject@VConfigMetabase2@@@ATL@@UAAJABU_GUID@@PAPAX@Z 10002830 f i configmetabase2.obj
 0001:00001844       ??_G?$CComObject@VConfigMetabase2@@@ATL@@UAAPAXI@Z 10002844 f i configmetabase2.obj
 0001:00001844       ??_E?$CComObject@VConfigMetabase2@@@ATL@@UAAPAXI@Z 10002844 f i configmetabase2.obj
 0001:00001868       ??0?$CComAggObject@VConfigMetabase2@@@ATL@@QAA@PAX@Z 10002868 f i configmetabase2.obj
 0001:000018bc       ?AddRef@?$CComAggObject@VConfigMetabase2@@@ATL@@UAAKXZ 100028bc f i configmetabase2.obj
 0001:000018d0       ?Release@?$CComAggObject@VConfigMetabase2@@@ATL@@UAAKXZ 100028d0 f i configmetabase2.obj
 0001:00001908       ??1?$CComAggObject@VConfigMetabase2@@@ATL@@UAA@XZ 10002908 f i configmetabase2.obj
 0001:0000194c       ?QueryInterface@?$CComAggObject@VConfigMetabase2@@@ATL@@UAAJABU_GUID@@PAPAX@Z 1000294c f i configmetabase2.obj
 0001:000019d8       ??_E?$CComAggObject@VConfigMetabase2@@@ATL@@UAAPAXI@Z 100029d8 f i configmetabase2.obj
 0001:000019d8       ??_G?$CComAggObject@VConfigMetabase2@@@ATL@@UAAPAXI@Z 100029d8 f i configmetabase2.obj
 0001:000019fc       ?CreateInstance@?$CComCreator@V?$CComObjectNoLock@VCComClassFactory@ATL@@@ATL@@@ATL@@SAJPAXABU_GUID@@PAPAX@Z 100029fc f i configmetabase2.obj
 0001:00001adc       ?CreateInstance@?$CComCreator@V?$CComObject@VConfigMetabase2@@@ATL@@@ATL@@SAJPAXABU_GUID@@PAPAX@Z 10002adc f i configmetabase2.obj
 0001:00001ba8       ?CreateInstance@?$CComCreator@V?$CComAggObject@VConfigMetabase2@@@ATL@@@ATL@@SAJPAXABU_GUID@@PAPAX@Z 10002ba8 f i configmetabase2.obj
 0001:00001c60       ?CreateEntry@ConfigMetabase2@@UAAJPAPAUIConfigMetabaseEntry@@@Z 10002c60 f   configmetabase2.obj
 0001:00001ce0       ?GetEntry@ConfigMetabase2@@UAAJQAGPAPAUIConfigMetabaseEntry@@@Z 10002ce0 f   configmetabase2.obj
 0001:00001f98       ?CreateInstance@?$CComCreator2@V?$CComCreator@V?$CComObject@VConfigMetabase2@@@ATL@@@ATL@@V?$CComCreator@V?$CComAggObject@VConfigMetabase2@@@ATL@@@2@@ATL@@SAJPAXABU_GUID@@PAPAX@Z 10002f98 f i configmetabase2.obj
 0001:00001fa8       ?SetMetabaseExternalEntryExists@@YAHW4METABASE_TABLE@@PAU_CEPROPVAL@@K@Z 10002fa8 f i metabaseentry.obj
 0001:00002018       ?AddRef@CConfigMetabaseEntryImpl@@UAAKXZ 10003018 f   metabaseentry.obj
 0001:00002020       ?_Buynode@?$list@U?$pair@GV?$auto_xxx@PAGP6AXPAG@Z$1?SysFreeString@@YAX0@Z$0A@V?$_ref_counting_t@V?$singleton_allocator@V?$free_list@$0GE@Vallocator@ce@@@ce@@$03@ce@@@ce@@@ce@@@std@@Vallocator@ce@@@ce@@IAAPAU?$_ListNode@U?$pair@GV?$auto_xxx@PAGP6AXPAG@Z$1?SysFreeString@@YAX0@Z$0A@V?$_ref_counting_t@V?$singleton_allocator@V?$free_list@$0GE@Vallocator@ce@@@ce@@$03@ce@@@ce@@@ce@@@std@@@list_impl@2@PAU342@@Z 10003020 f i metabaseentry.obj
 0001:0000206c       ??4CComBSTR@ATL@@QAAAAV01@PBG@Z 1000306c f i metabaseentry.obj
 0001:000020c0       ?QueryInterface@CConfigMetabaseEntryImpl@@UAAJABU_GUID@@PAPAX@Z 100030c0 f   metabaseentry.obj
 0001:00002164       ?put_DataType@CConfigMetabaseEntryImpl@@UAAJW4ConfigDataType@@@Z 10003164 f   metabaseentry.obj
 0001:00002194       ?get_DataType@CConfigMetabaseEntryImpl@@UAAJPAW4ConfigDataType@@@Z 10003194 f   metabaseentry.obj
 0001:000021c4       ?put_SemanticType@CConfigMetabaseEntryImpl@@UAAJPAG@Z 100031c4 f   metabaseentry.obj
 0001:000022e8       ?get_SemanticType@CConfigMetabaseEntryImpl@@UAAJPAPAG@Z 100032e8 f   metabaseentry.obj
 0001:00002374       ?put_MaxValue@CConfigMetabaseEntryImpl@@UAAJH@Z 10003374 f   metabaseentry.obj
 0001:000023a0       ?get_MaxValue@CConfigMetabaseEntryImpl@@UAAJPAH@Z 100033a0 f   metabaseentry.obj
 0001:000023d4       ?put_MinValue@CConfigMetabaseEntryImpl@@UAAJH@Z 100033d4 f   metabaseentry.obj
 0001:00002400       ?get_MinValue@CConfigMetabaseEntryImpl@@UAAJPAH@Z 10003400 f   metabaseentry.obj
 0001:00002434       ?put_MaxLength@CConfigMetabaseEntryImpl@@UAAJH@Z 10003434 f   metabaseentry.obj
 0001:00002460       ?get_MaxLength@CConfigMetabaseEntryImpl@@UAAJPAH@Z 10003460 f   metabaseentry.obj
 0001:00002494       ?put_Multiple@CConfigMetabaseEntryImpl@@UAAJH@Z 10003494 f   metabaseentry.obj
 0001:000024c0       ?get_Multiple@CConfigMetabaseEntryImpl@@UAAJPAH@Z 100034c0 f   metabaseentry.obj
 0001:000024f4       ?put_ReadOnlyView@CConfigMetabaseEntryImpl@@UAAJH@Z 100034f4 f   metabaseentry.obj
 0001:00002520       ?get_ReadOnlyView@CConfigMetabaseEntryImpl@@UAAJPAH@Z 10003520 f   metabaseentry.obj
 0001:00002550       ?put_ACL@CConfigMetabaseEntryImpl@@UAAJPAG@Z 10003550 f   metabaseentry.obj
 0001:00002678       ?get_ACL@CConfigMetabaseEntryImpl@@UAAJPAPAG@Z 10003678 f   metabaseentry.obj
 0001:000026e8       ?put_SemanticTypeFromMimeType@CConfigMetabaseEntryImpl@@UAAJPAG@Z 100036e8 f   metabaseentry.obj
 0001:000027f8       ?get_SemanticTypeAsMimeType@CConfigMetabaseEntryImpl@@UAAJPAPAG@Z 100037f8 f   metabaseentry.obj
 0001:00002908       ?InitializeFromPropVals@CConfigMetabaseEntryImpl@@QAAJGPAU_CEPROPVAL@@K@Z 10003908 f   metabaseentry.obj
 0001:00002cec       ?GetPropVals@CConfigMetabaseEntryImpl@@QAAJPAKPAPAU_CEPROPVAL@@@Z 10003cec f   metabaseentry.obj
 0001:00002dfc       ?allocate@?$free_list@$0GE@Vallocator@ce@@@ce@@QBAPAXI@Z 10003dfc f i metabaseentry.obj
 0001:00002e6c       ?deallocate@?$free_list@$0GE@Vallocator@ce@@@ce@@QBAXPAXI@Z 10003e6c f i metabaseentry.obj
 0001:00002ecc       ??_G?$free_list@$0GE@Vallocator@ce@@@ce@@QAAPAXI@Z 10003ecc f i metabaseentry.obj
 0001:00002f18       ?create@?$singleton@V?$free_list@$0GE@Vallocator@ce@@@ce@@$03V?$static_allocator@V?$free_list@$0GE@Vallocator@ce@@@ce@@$03@2@@ce@@KAXXZ 10003f18 f i metabaseentry.obj
 0001:00002f90       ?find@?$hash@V?$hash_map_traits@GV?$auto_xxx@PAGP6AXPAG@Z$1?SysFreeString@@YAX0@Z$0A@V?$_ref_counting_t@V?$singleton_allocator@V?$free_list@$0GE@Vallocator@ce@@@ce@@$03@ce@@@ce@@@ce@@U?$hash_traits@G@2@Vallocator@2@@details@ce@@@details@ce@@QBA?AV?$const_iterator@U?$pair@GV?$auto_xxx@PAGP6AXPAG@Z$1?SysFreeString@@YAX0@Z$0A@V?$_ref_counting_t@V?$singleton_allocator@V?$free_list@$0GE@Vallocator@ce@@@ce@@$03@ce@@@ce@@@ce@@@std@@@list_impl@3@ABG@Z 10003f90 f i metabaseentry.obj
 0001:0000300c       ?erase@?$vector@U?$pair@V?$iterator@U?$pair@GV?$auto_xxx@PAGP6AXPAG@Z$1?SysFreeString@@YAX0@Z$0A@V?$_ref_counting_t@V?$singleton_allocator@V?$free_list@$0GE@Vallocator@ce@@@ce@@$03@ce@@@ce@@@ce@@@std@@@list_impl@ce@@I@std@@Vallocator@ce@@U?$exponential_growth@$09@4@@ce@@QAAPAU?$pair@V?$iterator@U?$pair@GV?$auto_xxx@PAGP6AXPAG@Z$1?SysFreeString@@YAX0@Z$0A@V?$_ref_counting_t@V?$singleton_allocator@V?$free_list@$0GE@Vallocator@ce@@@ce@@$03@ce@@@ce@@@ce@@@std@@@list_impl@ce@@I@std@@PAU34@0@Z 1000400c f i metabaseentry.obj
 0001:00003070       ?erase@?$vector@GVallocator@ce@@U?$exponential_growth@$09@2@@ce@@QAAPAGPAG0@Z 10004070 f i metabaseentry.obj
 0001:000030c8       ?release@?$singleton@V?$free_list@$0GE@Vallocator@ce@@@ce@@$03V?$static_allocator@V?$free_list@$0GE@Vallocator@ce@@@ce@@$03@2@@ce@@SAXXZ 100040c8 f i metabaseentry.obj
 0001:00003134       ?erase@?$vector@U?$pair@V?$iterator@U?$pair@GV?$auto_xxx@PAGP6AXPAG@Z$1?SysFreeString@@YAX0@Z$0A@V?$_ref_counting_t@V?$singleton_allocator@V?$free_list@$0GE@Vallocator@ce@@@ce@@$03@ce@@@ce@@@ce@@@std@@@list_impl@ce@@I@std@@V?$reference_allocator@Vallocator@ce@@@details@ce@@U?$exponential_growth@$09@5@@ce@@QAAPAU?$pair@V?$iterator@U?$pair@GV?$auto_xxx@PAGP6AXPAG@Z$1?SysFreeString@@YAX0@Z$0A@V?$_ref_counting_t@V?$singleton_allocator@V?$free_list@$0GE@Vallocator@ce@@@ce@@$03@ce@@@ce@@@ce@@@std@@@list_impl@ce@@I@std@@PAU34@0@Z 10004134 f i metabaseentry.obj
 0001:00003198       ?GetLocalizedString@CConfigMetabaseEntryImpl@@CAJABV?$hash_map@GV?$auto_xxx@PAGP6AXPAG@Z$1?SysFreeString@@YAX0@Z$0A@V?$_ref_counting_t@V?$singleton_allocator@V?$free_list@$0GE@Vallocator@ce@@@ce@@$03@ce@@@ce@@@ce@@U?$hash_traits@G@2@Vallocator@2@@ce@@GPAPAG@Z 10004198 f   metabaseentry.obj
 0001:0000322c       ?get_Options@CConfigMetabaseEntryImpl@@UAAJPAPAG@Z 1000422c f   metabaseentry.obj
 0001:00003280       ?get_Label@CConfigMetabaseEntryImpl@@UAAJPAPAG@Z 10004280 f   metabaseentry.obj
 0001:000032d4       ?get_OptionsForLocale@CConfigMetabaseEntryImpl@@UAAJGPAPAG@Z 100042d4 f   metabaseentry.obj
 0001:00003320       ?get_LabelForLocale@CConfigMetabaseEntryImpl@@UAAJGPAPAG@Z 10004320 f   metabaseentry.obj
 0001:0000336c       ?create@?$_ref_counting_t@V?$singleton_allocator@V?$free_list@$0GE@Vallocator@ce@@@ce@@$03@ce@@@ce@@IAA_NXZ 1000436c f i metabaseentry.obj
 0001:000033a8       ?release@?$_ref_counting_t@V?$singleton_allocator@V?$free_list@$0GE@Vallocator@ce@@@ce@@$03@ce@@@ce@@IAA_NXZ 100043a8 f i metabaseentry.obj
 0001:00003408       ??_ECEnumConfigMetabaseEntryLocales@@EAAPAXI@Z 10004408 f i metabaseentry.obj
 0001:00003408       ??_GCEnumConfigMetabaseEntryLocales@@EAAPAXI@Z 10004408 f i metabaseentry.obj
 0001:00003450       ?EnumLocales@CConfigMetabaseEntryImpl@@UAAJPAPAUIEnumConfigMetabaseEntryLocales@@@Z 10004450 f   metabaseentry.obj
 0001:00003514       ??0?$auto_xxx@PAGP6AXPAG@Z$1?SysFreeString@@YAX0@Z$0A@V?$_ref_counting_t@V?$singleton_allocator@V?$free_list@$0GE@Vallocator@ce@@@ce@@$03@ce@@@ce@@@ce@@QAA@ABV01@@Z 10004514 f i metabaseentry.obj
 0001:0000355c       ?_Insert_dispatch@?$vector@U?$pair@V?$iterator@U?$pair@GV?$auto_xxx@PAGP6AXPAG@Z$1?SysFreeString@@YAX0@Z$0A@V?$_ref_counting_t@V?$singleton_allocator@V?$free_list@$0GE@Vallocator@ce@@@ce@@$03@ce@@@ce@@@ce@@@std@@@list_impl@ce@@I@std@@Vallocator@ce@@U?$exponential_growth@$09@4@@ce@@AAA_NPAU?$pair@V?$iterator@U?$pair@GV?$auto_xxx@PAGP6AXPAG@Z$1?SysFreeString@@YAX0@Z$0A@V?$_ref_counting_t@V?$singleton_allocator@V?$free_list@$0GE@Vallocator@ce@@@ce@@$03@ce@@@ce@@@ce@@@std@@@list_impl@ce@@I@std@@IABU34@ABUtrue_type@detail@2@@Z 1000455c f i metabaseentry.obj
 0001:000037a4       ?erase@?$list@U?$pair@GV?$auto_xxx@PAGP6AXPAG@Z$1?SysFreeString@@YAX0@Z$0A@V?$_ref_counting_t@V?$singleton_allocator@V?$free_list@$0GE@Vallocator@ce@@@ce@@$03@ce@@@ce@@@ce@@@std@@Vallocator@ce@@@ce@@QAA?AV?$iterator@U?$pair@GV?$auto_xxx@PAGP6AXPAG@Z$1?SysFreeString@@YAX0@Z$0A@V?$_ref_counting_t@V?$singleton_allocator@V?$free_list@$0GE@Vallocator@ce@@@ce@@$03@ce@@@ce@@@ce@@@std@@@list_impl@2@V342@@Z 100047a4 f i metabaseentry.obj
 0001:00003824       ?erase@?$list@U?$pair@GV?$auto_xxx@PAGP6AXPAG@Z$1?SysFreeString@@YAX0@Z$0A@V?$_ref_counting_t@V?$singleton_allocator@V?$free_list@$0GE@Vallocator@ce@@@ce@@$03@ce@@@ce@@@ce@@@std@@Vallocator@ce@@@ce@@QAA?AV?$iterator@U?$pair@GV?$auto_xxx@PAGP6AXPAG@Z$1?SysFreeString@@YAX0@Z$0A@V?$_ref_counting_t@V?$singleton_allocator@V?$free_list@$0GE@Vallocator@ce@@@ce@@$03@ce@@@ce@@@ce@@@std@@@list_impl@2@V342@0@Z 10004824 f i metabaseentry.obj
 0001:0000387c       ?resize@?$vector@U?$pair@V?$iterator@U?$pair@GV?$auto_xxx@PAGP6AXPAG@Z$1?SysFreeString@@YAX0@Z$0A@V?$_ref_counting_t@V?$singleton_allocator@V?$free_list@$0GE@Vallocator@ce@@@ce@@$03@ce@@@ce@@@ce@@@std@@@list_impl@ce@@I@std@@Vallocator@ce@@U?$exponential_growth@$09@4@@ce@@QAA_NIABU?$pair@V?$iterator@U?$pair@GV?$auto_xxx@PAGP6AXPAG@Z$1?SysFreeString@@YAX0@Z$0A@V?$_ref_counting_t@V?$singleton_allocator@V?$free_list@$0GE@Vallocator@ce@@@ce@@$03@ce@@@ce@@@ce@@@std@@@list_impl@ce@@I@std@@@Z 1000487c f i metabaseentry.obj
 0001:000038d8       ??$insert@U?$pair@GV?$auto_xxx@PAGP6AXPAG@Z$1?SysFreeString@@YAX0@Z$0A@V?$_ref_counting_t@V?$singleton_allocator@V?$free_list@$0GE@Vallocator@ce@@@ce@@$03@ce@@@ce@@@ce@@@std@@@?$list@U?$pair@GV?$auto_xxx@PAGP6AXPAG@Z$1?SysFreeString@@YAX0@Z$0A@V?$_ref_counting_t@V?$singleton_allocator@V?$free_list@$0GE@Vallocator@ce@@@ce@@$03@ce@@@ce@@@ce@@@std@@Vallocator@ce@@@ce@@QAA?AV?$iterator@U?$pair@GV?$auto_xxx@PAGP6AXPAG@Z$1?SysFreeString@@YAX0@Z$0A@V?$_ref_counting_t@V?$singleton_allocator@V?$free_list@$0GE@Vallocator@ce@@@ce@@$03@ce@@@ce@@@ce@@@std@@@list_impl@1@V231@ABU?$pair@GV?$auto_xxx@PAGP6AXPAG@Z$1?SysFreeString@@YAX0@Z$0A@V?$_ref_counting_t@V?$singleton_allocator@V?$free_list@$0GE@Vallocator@ce@@@ce@@$03@ce@@@ce@@@ce@@@std@@@Z 100048d8 f i metabaseentry.obj
 0001:00003930       ?erase@?$hash@V?$hash_map_traits@GV?$auto_xxx@PAGP6AXPAG@Z$1?SysFreeString@@YAX0@Z$0A@V?$_ref_counting_t@V?$singleton_allocator@V?$free_list@$0GE@Vallocator@ce@@@ce@@$03@ce@@@ce@@@ce@@U?$hash_traits@G@2@Vallocator@2@@details@ce@@@details@ce@@QAA?AV?$iterator@U?$pair@GV?$auto_xxx@PAGP6AXPAG@Z$1?SysFreeString@@YAX0@Z$0A@V?$_ref_counting_t@V?$singleton_allocator@V?$free_list@$0GE@Vallocator@ce@@@ce@@$03@ce@@@ce@@@ce@@@std@@@list_impl@3@V453@@Z 10004930 f i metabaseentry.obj
 0001:0000399c       ?_ready@?$hash@V?$hash_map_traits@GV?$auto_xxx@PAGP6AXPAG@Z$1?SysFreeString@@YAX0@Z$0A@V?$_ref_counting_t@V?$singleton_allocator@V?$free_list@$0GE@Vallocator@ce@@@ce@@$03@ce@@@ce@@@ce@@U?$hash_traits@G@2@Vallocator@2@@details@ce@@@details@ce@@IAA_NXZ 1000499c f i metabaseentry.obj
 0001:000039f4       ??1?$hash@V?$hash_map_traits@GV?$auto_xxx@PAGP6AXPAG@Z$1?SysFreeString@@YAX0@Z$0A@V?$_ref_counting_t@V?$singleton_allocator@V?$free_list@$0GE@Vallocator@ce@@@ce@@$03@ce@@@ce@@@ce@@U?$hash_traits@G@2@Vallocator@2@@details@ce@@@details@ce@@QAA@XZ 100049f4 f i metabaseentry.obj
 0001:00003a34       ?insert@?$hash@V?$hash_map_traits@GV?$auto_xxx@PAGP6AXPAG@Z$1?SysFreeString@@YAX0@Z$0A@V?$_ref_counting_t@V?$singleton_allocator@V?$free_list@$0GE@Vallocator@ce@@@ce@@$03@ce@@@ce@@@ce@@U?$hash_traits@G@2@Vallocator@2@@details@ce@@@details@ce@@QAA?AV?$iterator@U?$pair@GV?$auto_xxx@PAGP6AXPAG@Z$1?SysFreeString@@YAX0@Z$0A@V?$_ref_counting_t@V?$singleton_allocator@V?$free_list@$0GE@Vallocator@ce@@@ce@@$03@ce@@@ce@@@ce@@@std@@@list_impl@3@ABU?$pair@GV?$auto_xxx@PAGP6AXPAG@Z$1?SysFreeString@@YAX0@Z$0A@V?$_ref_counting_t@V?$singleton_allocator@V?$free_list@$0GE@Vallocator@ce@@@ce@@$03@ce@@@ce@@@ce@@@std@@@Z 10004a34 f i metabaseentry.obj
 0001:00003af0       ?find@?$hash@V?$hash_map_traits@GV?$auto_xxx@PAGP6AXPAG@Z$1?SysFreeString@@YAX0@Z$0A@V?$_ref_counting_t@V?$singleton_allocator@V?$free_list@$0GE@Vallocator@ce@@@ce@@$03@ce@@@ce@@@ce@@U?$hash_traits@G@2@Vallocator@2@@details@ce@@@details@ce@@QAA?AV?$iterator@U?$pair@GV?$auto_xxx@PAGP6AXPAG@Z$1?SysFreeString@@YAX0@Z$0A@V?$_ref_counting_t@V?$singleton_allocator@V?$free_list@$0GE@Vallocator@ce@@@ce@@$03@ce@@@ce@@@ce@@@std@@@list_impl@3@ABG@Z 10004af0 f i metabaseentry.obj
 0001:00003b68       ??1CConfigMetabaseEntryImpl@@QAA@XZ 10004b68 f   metabaseentry.obj
 0001:00003ba4       ?insert@?$hash_map@GV?$auto_xxx@PAGP6AXPAG@Z$1?SysFreeString@@YAX0@Z$0A@V?$_ref_counting_t@V?$singleton_allocator@V?$free_list@$0GE@Vallocator@ce@@@ce@@$03@ce@@@ce@@@ce@@U?$hash_traits@G@2@Vallocator@2@@ce@@QAA?AV?$iterator@U?$pair@GV?$auto_xxx@PAGP6AXPAG@Z$1?SysFreeString@@YAX0@Z$0A@V?$_ref_counting_t@V?$singleton_allocator@V?$free_list@$0GE@Vallocator@ce@@@ce@@$03@ce@@@ce@@@ce@@@std@@@list_impl@2@ABGABV?$auto_xxx@PAGP6AXPAG@Z$1?SysFreeString@@YAX0@Z$0A@V?$_ref_counting_t@V?$singleton_allocator@V?$free_list@$0GE@Vallocator@ce@@@ce@@$03@ce@@@ce@@@2@@Z 10004ba4 f i metabaseentry.obj
 0001:00003c00       ?erase@?$hash@V?$hash_map_traits@GV?$auto_xxx@PAGP6AXPAG@Z$1?SysFreeString@@YAX0@Z$0A@V?$_ref_counting_t@V?$singleton_allocator@V?$free_list@$0GE@Vallocator@ce@@@ce@@$03@ce@@@ce@@@ce@@U?$hash_traits@G@2@Vallocator@2@@details@ce@@@details@ce@@QAAIABG@Z 10004c00 f i metabaseentry.obj
 0001:00003c4c       ??0CConfigMetabaseEntryImpl@@QAA@XZ 10004c4c f   metabaseentry.obj
 0001:00003d74       ?Release@CConfigMetabaseEntryImpl@@UAAKXZ 10004d74 f   metabaseentry.obj
 0001:00003dac       ?InsertStringIntoMap@CConfigMetabaseEntryImpl@@CAJPAV?$hash_map@GV?$auto_xxx@PAGP6AXPAG@Z$1?SysFreeString@@YAX0@Z$0A@V?$_ref_counting_t@V?$singleton_allocator@V?$free_list@$0GE@Vallocator@ce@@@ce@@$03@ce@@@ce@@@ce@@U?$hash_traits@G@2@Vallocator@2@@ce@@GABV?$auto_xxx@PAGP6AXPAG@Z$1?SysFreeString@@YAX0@Z$0A@V?$_ref_counting_t@V?$singleton_allocator@V?$free_list@$0GE@Vallocator@ce@@@ce@@$03@ce@@@ce@@@3@@Z 10004dac f   metabaseentry.obj
 0001:00003df8       ?InsertLocalizedString@CConfigMetabaseEntryImpl@@CAJPAV?$hash_map@GV?$auto_xxx@PAGP6AXPAG@Z$1?SysFreeString@@YAX0@Z$0A@V?$_ref_counting_t@V?$singleton_allocator@V?$free_list@$0GE@Vallocator@ce@@@ce@@$03@ce@@@ce@@@ce@@U?$hash_traits@G@2@Vallocator@2@@ce@@GPAG@Z 10004df8 f   metabaseentry.obj
 0001:00003ec8       ?put_Options@CConfigMetabaseEntryImpl@@UAAJPAG@Z 10004ec8 f   metabaseentry.obj
 0001:00003f34       ?put_Label@CConfigMetabaseEntryImpl@@UAAJPAG@Z 10004f34 f   metabaseentry.obj
 0001:00003fa0       ?put_OptionsForLocale@CConfigMetabaseEntryImpl@@UAAJGPAG@Z 10004fa0 f   metabaseentry.obj
 0001:00003fe8       ?put_LabelForLocale@CConfigMetabaseEntryImpl@@UAAJGPAG@Z 10004fe8 f   metabaseentry.obj
 0001:00004030       ?AddRef@CEnumConfigMetabaseEntryLocales@@UAAKXZ 10005030 f   mblocalelist.obj
 0001:00004038       ?Release@CEnumConfigMetabaseEntryLocales@@UAAKXZ 10005038 f   mblocalelist.obj
 0001:00004070       ?Reset@CEnumConfigMetabaseEntryLocales@@UAAJXZ 10005070 f   mblocalelist.obj
 0001:00004080       ??$adjacent_find@PAG@std@@YAPAGPAG0@Z 10005080 f i mblocalelist.obj
 0001:000040c0       ?QueryInterface@CEnumConfigMetabaseEntryLocales@@UAAJABU_GUID@@PAPAX@Z 100050c0 f   mblocalelist.obj
 0001:00004148       ?Next@CEnumConfigMetabaseEntryLocales@@UAAJKPAGPAK@Z 10005148 f   mblocalelist.obj
 0001:000041cc       ?Skip@CEnumConfigMetabaseEntryLocales@@UAAJK@Z 100051cc f   mblocalelist.obj
 0001:0000420c       ?Size@CEnumConfigMetabaseEntryLocales@@UAAJPAK@Z 1000520c f   mblocalelist.obj
 0001:00004238       ??$_Insertion_sort_1@PAGG@std@@YAXPAG00@Z 10005238 f i mblocalelist.obj
 0001:000042bc       ?erase@?$vector@GV?$reference_allocator@Vallocator@ce@@@details@ce@@U?$exponential_growth@$09@3@@ce@@QAAPAGPAG0@Z 100052bc f i mblocalelist.obj
 0001:00004314       ??$unique_copy@PAGPAG@std@@YAPAGPAG00@Z 10005314 f i mblocalelist.obj
 0001:0000435c       ??$_Unguarded_partition@PAGG@std@@YAPAGPAG0G@Z 1000535c f i mblocalelist.obj
 0001:000043a4       ??$_Sort@PAGG@std@@YAXPAG00@Z 100053a4 f i mblocalelist.obj
 0001:00004464       ?_Insert_dispatch@?$vector@GVallocator@ce@@U?$exponential_growth@$09@2@@ce@@AAA_NPAGIABGABUtrue_type@detail@2@@Z 10005464 f i mblocalelist.obj
 0001:00004684       ??$_Sort_0@PAGG@std@@YAXPAG00@Z 10005684 f i mblocalelist.obj
 0001:00004700       ?reserve@?$vector@GVallocator@ce@@U?$exponential_growth@$09@2@@ce@@QAA_NI@Z 10005700 f i mblocalelist.obj
 0001:0000480c       ?insert@?$vector@GVallocator@ce@@U?$exponential_growth@$09@2@@ce@@QAAPAGPAGABG@Z 1000580c f i mblocalelist.obj
 0001:00004858       ?AddLocales@CEnumConfigMetabaseEntryLocales@@QAAJABV?$hash_map@GV?$auto_xxx@PAGP6AXPAG@Z$1?SysFreeString@@YAX0@Z$0A@V?$_ref_counting_t@V?$singleton_allocator@V?$free_list@$0GE@Vallocator@ce@@@ce@@$03@ce@@@ce@@@ce@@U?$hash_traits@G@2@Vallocator@2@@ce@@@Z 10005858 f   mblocalelist.obj
 0001:00004914       ?Clone@CEnumConfigMetabaseEntryLocales@@UAAJPAPAUIEnumConfigMetabaseEntryLocales@@@Z 10005914 f   mblocalelist.obj
 0001:00004a30       RaiseException             10005a30 f   coredll:COREDLL.dll
 0001:00004a40       EnterCriticalSection       10005a40 f   coredll:COREDLL.dll
 0001:00004a50       LeaveCriticalSection       10005a50 f   coredll:COREDLL.dll
 0001:00004a60       InitializeCriticalSection  10005a60 f   coredll:COREDLL.dll
 0001:00004a70       DeleteCriticalSection      10005a70 f   coredll:COREDLL.dll
 0001:00004a80       GetModuleHandleW           10005a80 f   coredll:COREDLL.dll
 0001:00004a90       InterlockedIncrement       10005a90 f   coredll:COREDLL.dll
 0001:00004aa0       InterlockedDecrement       10005aa0 f   coredll:COREDLL.dll
 0001:00004ab0       LocalFree                  10005ab0 f   coredll:COREDLL.dll
 0001:00004ac0       InterlockedCompareExchange 10005ac0 f   coredll:COREDLL.dll
 0001:00004ad0       StringCchCatW              10005ad0 f   coredll:COREDLL.dll
 0001:00004ae0       LocalAlloc                 10005ae0 f   coredll:COREDLL.dll
 0001:00004af0       StringCchLengthW           10005af0 f   coredll:COREDLL.dll
 0001:00004b00       GetUserDefaultUILanguage   10005b00 f   coredll:COREDLL.dll
 0001:00004b10       StringCchCopyW             10005b10 f   coredll:COREDLL.dll
 0001:00004b20       CoCreateInstance           10005b20 f   ole32:ole32.dll
 0001:00004b30       SysStringLen               10005b30 f   oleaut32:OLEAUT32.dll
 0001:00004b40       SysFreeString              10005b40 f   oleaut32:OLEAUT32.dll
 0001:00004b50       SysAllocString             10005b50 f   oleaut32:OLEAUT32.dll
 0001:00004b60       SysAllocStringLen          10005b60 f   oleaut32:OLEAUT32.dll
 0001:00004b70       InvStrCmpNIW               10005b70 f   ossvcs:ossvcs.dll
 0001:00004b80       CopyString                 10005b80 f   ossvcs:ossvcs.dll
 0001:00004b90       CfgUtilGetMetabasePrefixForCsp 10005b90 f   configmanager:configmanager.dll
 0001:00004ba0       CfgUtilMimeTypeToSemanticType 10005ba0 f   configmanager:configmanager.dll
 0001:00004bb0       CfgUtilSemanticTypeToMimeType 10005bb0 f   configmanager:configmanager.dll
 0001:00004bc0       ?MetabaseClose@@YAJPAUHMETABASE__@@@Z 10005bc0 f   metabaseproxy:metabaseproxy.dll
 0001:00004bd0       ?MetabaseOpen@@YAJPAPAUHMETABASE__@@@Z 10005bd0 f   metabaseproxy:metabaseproxy.dll
 0001:00004be0       ?MetabaseInsert@@YAJPAUHMETABASE__@@PBGW4METABASE_TABLE@@PAU_CEPROPVAL@@K@Z 10005be0 f   metabaseproxy:metabaseproxy.dll
 0001:00004bf0       ?MetabaseRemove@@YAJPAUHMETABASE__@@PBGW4METABASE_TABLE@@@Z 10005bf0 f   metabaseproxy:metabaseproxy.dll
 0001:00004c00       ?MetabaseFree@@YAJPAUHMETABASE__@@PAX@Z 10005c00 f   metabaseproxy:metabaseproxy.dll
 0001:00004c10       ?MetabaseSeek@@YAJPAUHMETABASE__@@PBGW4METABASE_TABLE@@PAPAU_CEPROPVAL@@PAK@Z 10005c10 f   metabaseproxy:metabaseproxy.dll
 0001:00004c20       ?Term@CAtlComModule@ATL@@QAAXXZ 10005c20 f i atls:atlcommodule.obj
 0001:00004c84       ??0CAtlComModule@ATL@@QAA@XZ 10005c84 f i atls:atlcommodule.obj
 0001:00004d14       AtlRawDllMain              10005d14 f   atls:atlbase.obj
 0001:00004d9c       ??1CAtlBaseModule@ATL@@QAA@XZ 10005d9c f   atls:atlbase.obj
 0001:00004dd4       ??0CAtlBaseModule@ATL@@QAA@XZ 10005dd4 f   atls:atlbase.obj
 0001:00004e68       DllMain                    10005e68 f   corelib0:dllmain.obj
 0001:00004f74       _DllMainCRTStartup         10005f74 f   corelib0:pegdmain.obj
 0001:00004fa0       __security_init_cookie     10005fa0 f   corelib0:seccinit.obj
 0001:00004fec       __security_check_cookie    10005fec f   corelib0:armsecgs.obj
 0001:00004ffc       __gsfailure                10005ffc     corelib0:armsecgs.obj
 0001:00005048       _onexit                    10006048 f   corelib0:onexit.obj
 0001:000051cc       atexit                     100061cc f   corelib0:onexit.obj
 0001:000052cc       _cexit                     100062cc f   corelib0:cexit.obj
 0001:000052dc       _initterm                  100062dc f   corelib0:crt0dat.obj
 0001:00005308       _cinit                     10006308 f   corelib0:crt0dat.obj
 0001:00005368       __crt_ExitProcess          10006368 f   corelib0:exitproc_proxy.obj
 0001:00005374       memcmp                     10006374 f   corelib1:COREDLL.dll
 0001:00005384       free                       10006384 f   corelib1:COREDLL.dll
 0001:00005394       memset                     10006394 f   corelib1:COREDLL.dll
 0001:000053a4       __C_specific_handler       100063a4 f   corelib1:COREDLL.dll
 0001:000053b4       ??3@YAXPAX@Z               100063b4 f   corelib1:COREDLL.dll
 0001:000053c4       _purecall                  100063c4 f   corelib1:COREDLL.dll
 0001:000053d4       ??2@YAPAXI@Z               100063d4 f   corelib1:COREDLL.dll
 0001:000053e4       wcschr                     100063e4 f   corelib1:COREDLL.dll
 0001:000053f4       _XcptFilter                100063f4 f   corelib1:COREDLL.dll
 0001:00005404       __security_gen_cookie2     10006404 f   corelib1:COREDLL.dll
 0001:00005414       __report_gsfailure         10006414 f   corelib1:COREDLL.dll
 0001:00005424       malloc                     10006424 f   corelib1:COREDLL.dll
 0001:00005434       realloc                    10006434 f   corelib1:COREDLL.dll
 0001:00005444       _msize                     10006444 f   corelib1:COREDLL.dll
 0001:00005454       DisableThreadLibraryCalls  10006454 f   coredll:COREDLL.dll
 0001:00005464       InterlockedExchange        10006464 f   coredll:COREDLL.dll
 0001:00005474       TerminateProcess           10006474 f   coredll:COREDLL.dll
 0001:00005504       ??__Fcs@?1??get_lock@?$singleton@V?$free_list@$0GE@Vallocator@ce@@@ce@@$03V?$static_allocator@V?$free_list@$0GE@Vallocator@ce@@@ce@@$03@2@@ce@@KAAAVcritical_section@2@XZ@YAXXZ 10006504 f i configmetabase2.obj
 0001:00005564       __pobjMapEntryFirst        10006564     configmetabase2dll.obj
 0001:00005568       __pobjMap_ConfigMetabase2  10006568     configmetabase2.obj
 0001:0000556c       __pobjMapEntryLast         1000656c     configmetabase2dll.obj
 0001:00005570       __IMPORT_DESCRIPTOR_COREDLL 10006570     coredll:COREDLL.dll
 0001:00005584       __IMPORT_DESCRIPTOR_ole32  10006584     ole32:ole32.dll
 0001:00005598       __IMPORT_DESCRIPTOR_OLEAUT32 10006598     oleaut32:OLEAUT32.dll
 0001:000055ac       __IMPORT_DESCRIPTOR_ossvcs 100065ac     ossvcs:ossvcs.dll
 0001:000055c0       __IMPORT_DESCRIPTOR_configmanager 100065c0     configmanager:configmanager.dll
 0001:000055d4       __IMPORT_DESCRIPTOR_metabaseproxy 100065d4     metabaseproxy:metabaseproxy.dll
 0001:000055e8       __NULL_IMPORT_DESCRIPTOR   100065e8     coredll:COREDLL.dll
 0002:00000000       __imp_RaiseException       10007000     coredll:COREDLL.dll
 0002:00000004       __imp_EnterCriticalSection 10007004     coredll:COREDLL.dll
 0002:00000008       __imp_LeaveCriticalSection 10007008     coredll:COREDLL.dll
 0002:0000000c       __imp_InitializeCriticalSection 1000700c     coredll:COREDLL.dll
 0002:00000010       __imp_DeleteCriticalSection 10007010     coredll:COREDLL.dll
 0002:00000014       __imp_GetModuleHandleW     10007014     coredll:COREDLL.dll
 0002:00000018       __imp_InterlockedIncrement 10007018     coredll:COREDLL.dll
 0002:0000001c       __imp_InterlockedDecrement 1000701c     coredll:COREDLL.dll
 0002:00000020       __imp_LocalFree            10007020     coredll:COREDLL.dll
 0002:00000024       __imp_InterlockedCompareExchange 10007024     coredll:COREDLL.dll
 0002:00000028       __imp_StringCchCatW        10007028     coredll:COREDLL.dll
 0002:0000002c       __imp_LocalAlloc           1000702c     coredll:COREDLL.dll
 0002:00000030       __imp_StringCchLengthW     10007030     coredll:COREDLL.dll
 0002:00000034       __imp_GetUserDefaultUILanguage 10007034     coredll:COREDLL.dll
 0002:00000038       __imp_StringCchCopyW       10007038     coredll:COREDLL.dll
 0002:0000003c       __imp_TerminateProcess     1000703c     coredll:COREDLL.dll
 0002:00000040       __imp_InterlockedExchange  10007040     coredll:COREDLL.dll
 0002:00000044       __imp__purecall            10007044     corelib1:COREDLL.dll
 0002:00000048       __imp_??3@YAXPAX@Z         10007048     corelib1:COREDLL.dll
 0002:0000004c       __imp___C_specific_handler 1000704c     corelib1:COREDLL.dll
 0002:00000050       __imp_??2@YAPAXI@Z         10007050     corelib1:COREDLL.dll
 0002:00000054       __imp_memset               10007054     corelib1:COREDLL.dll
 0002:00000058       __imp_DisableThreadLibraryCalls 10007058     coredll:COREDLL.dll
 0002:0000005c       __imp__msize               1000705c     corelib1:COREDLL.dll
 0002:00000060       __imp_realloc              10007060     corelib1:COREDLL.dll
 0002:00000064       __imp_free                 10007064     corelib1:COREDLL.dll
 0002:00000068       __imp_memcmp               10007068     corelib1:COREDLL.dll
 0002:0000006c       __imp_malloc               1000706c     corelib1:COREDLL.dll
 0002:00000070       __imp___report_gsfailure   10007070     corelib1:COREDLL.dll
 0002:00000074       __imp___security_gen_cookie2 10007074     corelib1:COREDLL.dll
 0002:00000078       __imp__XcptFilter          10007078     corelib1:COREDLL.dll
 0002:0000007c       __imp_wcschr               1000707c     corelib1:COREDLL.dll
 0002:00000080       \177COREDLL_NULL_THUNK_DATA 10007080     coredll:COREDLL.dll
 0002:00000084       __imp_SysAllocStringLen    10007084     oleaut32:OLEAUT32.dll
 0002:00000088       __imp_SysStringLen         10007088     oleaut32:OLEAUT32.dll
 0002:0000008c       __imp_SysFreeString        1000708c     oleaut32:OLEAUT32.dll
 0002:00000090       __imp_SysAllocString       10007090     oleaut32:OLEAUT32.dll
 0002:00000094       \177OLEAUT32_NULL_THUNK_DATA 10007094     oleaut32:OLEAUT32.dll
 0002:00000098       __imp_CfgUtilMimeTypeToSemanticType 10007098     configmanager:configmanager.dll
 0002:0000009c       __imp_CfgUtilSemanticTypeToMimeType 1000709c     configmanager:configmanager.dll
 0002:000000a0       __imp_CfgUtilGetMetabasePrefixForCsp 100070a0     configmanager:configmanager.dll
 0002:000000a4       \177configmanager_NULL_THUNK_DATA 100070a4     configmanager:configmanager.dll
 0002:000000a8       __imp_?MetabaseSeek@@YAJPAUHMETABASE__@@PBGW4METABASE_TABLE@@PAPAU_CEPROPVAL@@PAK@Z 100070a8     metabaseproxy:metabaseproxy.dll
 0002:000000ac       __imp_?MetabaseFree@@YAJPAUHMETABASE__@@PAX@Z 100070ac     metabaseproxy:metabaseproxy.dll
 0002:000000b0       __imp_?MetabaseRemove@@YAJPAUHMETABASE__@@PBGW4METABASE_TABLE@@@Z 100070b0     metabaseproxy:metabaseproxy.dll
 0002:000000b4       __imp_?MetabaseInsert@@YAJPAUHMETABASE__@@PBGW4METABASE_TABLE@@PAU_CEPROPVAL@@K@Z 100070b4     metabaseproxy:metabaseproxy.dll
 0002:000000b8       __imp_?MetabaseOpen@@YAJPAPAUHMETABASE__@@@Z 100070b8     metabaseproxy:metabaseproxy.dll
 0002:000000bc       __imp_?MetabaseClose@@YAJPAUHMETABASE__@@@Z 100070bc     metabaseproxy:metabaseproxy.dll
 0002:000000c0       \177metabaseproxy_NULL_THUNK_DATA 100070c0     metabaseproxy:metabaseproxy.dll
 0002:000000c4       __imp_CoCreateInstance     100070c4     ole32:ole32.dll
 0002:000000c8       \177ole32_NULL_THUNK_DATA  100070c8     ole32:ole32.dll
 0002:000000cc       __imp_CopyString           100070cc     ossvcs:ossvcs.dll
 0002:000000d0       __imp_InvStrCmpNIW         100070d0     ossvcs:ossvcs.dll
 0002:000000d4       \177ossvcs_NULL_THUNK_DATA 100070d4     ossvcs:ossvcs.dll
 0002:000000d8       ?g_rgDataPropIds@@3PAKA    100070d8     configmetabase2.obj
 0002:00000104       ?__objMap_ConfigMetabase2@@3U_ATL_OBJMAP_ENTRY30@ATL@@A 10007104     configmetabase2.obj
 0002:00000188       _pRawDllMain               10007188     atls:atlbase.obj
 0002:0000018c       __security_cookie          1000718c     corelib0:seccinit.obj
 0002:00000190       __security_cookie_complement 10007190     corelib0:seccinit.obj
 0002:000001a0       ?m_bInitFailed@CAtlBaseModule@ATL@@2_NA 100071a0     configmetabase2dll.obj
 0002:000001a4       ?_pAtlModule@ATL@@3PAVCAtlModule@1@A 100071a4     configmetabase2dll.obj
 0002:000001a8       ?m_libid@CAtlModule@ATL@@2U_GUID@@A 100071a8     configmetabase2dll.obj
 0002:000001b8       ?g_hInst@@3PAUHINSTANCE__@@A 100071b8     configmetabase2dll.obj
 0002:000001bc       ?s_ConfigMetabase2Dll@@3VConfigMetabase2Dll@@A 100071bc     configmetabase2dll.obj
 0002:000001e4       ??_B?1??get_lock@?$singleton@V?$free_list@$0GE@Vallocator@ce@@@ce@@$03V?$static_allocator@V?$free_list@$0GE@Vallocator@ce@@@ce@@$03@2@@ce@@KAAAVcritical_section@2@XZ@51 100071e4     configmetabase2.obj
 0002:000001e8       ?cs@?1??get_lock@?$singleton@V?$free_list@$0GE@Vallocator@ce@@@ce@@$03V?$static_allocator@V?$free_list@$0GE@Vallocator@ce@@@ce@@$03@2@@ce@@KAAAVcritical_section@3@XZ@4V43@A 100071e8     configmetabase2.obj
 0002:000001fc       ?_factory@?$singleton@V?$free_list@$0GE@Vallocator@ce@@@ce@@$03V?$static_allocator@V?$free_list@$0GE@Vallocator@ce@@@ce@@$03@2@@ce@@1Ulock_factory@12@A 100071fc     configmetabase2.obj
 0002:00000200       ?memory@?1??allocate@?$static_allocator@V?$free_list@$0GE@Vallocator@ce@@@ce@@$03@ce@@SAPAXI@Z@4PADA 10007200     metabaseentry.obj
 0002:000003ac       ?pInstance@?$singleton@V?$free_list@$0GE@Vallocator@ce@@@ce@@$03V?$static_allocator@V?$free_list@$0GE@Vallocator@ce@@@ce@@$03@2@@ce@@1RAV?$free_list@$0GE@Vallocator@ce@@@2@A 100073ac     metabaseentry.obj
 0002:000003b0       ?lRefCount@?$singleton@V?$free_list@$0GE@Vallocator@ce@@@ce@@$03V?$static_allocator@V?$free_list@$0GE@Vallocator@ce@@@ce@@$03@2@@ce@@1JA 100073b0     metabaseentry.obj
 0002:000003b4       ?_AtlComModule@ATL@@3VCAtlComModule@1@A 100073b4     atls:atlcommodule.obj
 0002:000003d8       __afxForceAtlRawDllMain    100073d8     atls:atlbase.obj
 0002:000003dc       ?_AtlModuleInstance@ATL@@3PAUHINSTANCE__@@A 100073dc     atls:atlbase.obj
 0002:000003e0       ?_AtlBaseModule@ATL@@3VCAtlBaseModule@1@A 100073e0     atls:atlbase.obj
 0002:00000414       ?_pAtlRawDllMain@@3P6AHPAXK0@ZA 10007414     atls:atlbase.obj
 0002:00000418       __@@_PchSym_@00@UxsvozmCBUlgsvihUzgoJUhixUzgohUlyqUzineHUivgzroUhgwzucOlyq@atls 10007418     atls:stdafx.obj
 0002:0000041c       _exitflag                  1000741c     corelib0:cexit.obj
 0002:00000420       __onexitend                10007420     <common>
 0002:00000424       __onexitbegin              10007424     <common>
 0002:00000428       g_pcsExit                  10007428     <common>

 entry point at        0001:00004f74

 Static symbols

 0001:00004e84       _DllMainCRTStartupHelper   10005e84 f   corelib0:pegdmain.obj
 0001:000051e4       doexit                     100061e4 f   corelib0:cexit.obj
 0001:00005484       ??__Es_ConfigMetabase2Dll@@YAXXZ 10006484 f   configmetabase2dll.obj
 0001:000054b4       ??__E?_factory@?$singleton@V?$free_list@$0GE@Vallocator@ce@@@ce@@$03V?$static_allocator@V?$free_list@$0GE@Vallocator@ce@@@ce@@$03@2@@ce@@1Ulock_factory@12@A@@YAXXZ 100064b4 f   configmetabase2.obj
 0001:000054b8       ??__E_AtlComModule@ATL@@YAXXZ 100064b8 f   atls:atlcommodule.obj
 0001:000054d8       ??__E_AtlBaseModule@ATL@@YAXXZ 100064d8 f   atls:atlbase.obj
 0001:000054f8       ??__Fs_ConfigMetabase2Dll@@YAXXZ 100064f8 f   configmetabase2dll.obj
 0001:00005510       ??__F_AtlComModule@ATL@@YAXXZ 10006510 f   atls:atlcommodule.obj
 0001:0000551c       ??__F_AtlBaseModule@ATL@@YAXXZ 1000651c f   atls:atlbase.obj
