 corelib1

 Timestamp is 618b1503 (Tue Nov 09 17:40:35 2021)

 Preferred load address is 10000000

 Start         Length     Name                   Class
 0001:00000000 0000002cH .rdata                  CODE
 0001:0000002c 00000025H .rdata$debug            CODE
 0001:00000054 00003b0cH .text                   CODE
 0001:00003b60 00004b13H .edata                  CODE
 0002:00000000 00000d68H .pdata                  DATA

  Address         Publics by Value              Rva+Base       Lib:Object

 0000:00000000       ___safe_se_handler_table   00000000     <absolute>
 0000:00000000       ___safe_se_handler_count   00000000     <absolute>
 0001:0000001c       ?nothrow@std@@3Unothrow_t@1@B 1000101c     corelib1_ALL:crtdummy.obj
 0001:00000020       ??_7exception@std@@6B@     10001020     corelib1_ALL:crtdummy.obj
 0001:00000028       ??_7type_info@@6B@         10001028     corelib1_ALL:crtdummy.obj
 0001:00000054       __CxxThrowException        10001054 f   corelib1_ALL:crtdummy.obj
 0001:00000064       __RTCastToVoid             10001064 f   corelib1_ALL:crtdummy.obj
 0001:00000088       __RTDynamicCast            10001088 f   corelib1_ALL:crtdummy.obj
 0001:000000ac       __RTtypeid                 100010ac f   corelib1_ALL:crtdummy.obj
 0001:000000d0       _purecall                  100010d0 f   corelib1_ALL:crtdummy.obj
 0001:000000e8       ??0exception@std@@QAA@ABV01@@Z 100010e8 f   corelib1_ALL:crtdummy.obj
 0001:0000011c       ??_Eexception@std@@UAAPAXI@Z 1000111c f i corelib1_ALL:crtdummy.obj
 0001:0000011c       ??_Gexception@std@@UAAPAXI@Z 1000111c f i corelib1_ALL:crtdummy.obj
 0001:0000015c       ??0exception@std@@QAA@PBD@Z 1000115c f   corelib1_ALL:crtdummy.obj
 0001:00000190       ??0exception@std@@QAA@XZ   10001190 f   corelib1_ALL:crtdummy.obj
 0001:000001c4       ??4exception@std@@QAAAAV01@ABV01@@Z 100011c4 f   corelib1_ALL:crtdummy.obj
 0001:000001e8       ??1exception@std@@UAA@XZ   100011e8 f   corelib1_ALL:crtdummy.obj
 0001:00000208       ?what@exception@std@@UBAPBDXZ 10001208 f   corelib1_ALL:crtdummy.obj
 0001:0000022c       ?terminate@std@@YAXXZ      1000122c f   corelib1_ALL:crtdummy.obj
 0001:00000230       ?uncaught_exception@std@@YA_NXZ 10001230 f   corelib1_ALL:crtdummy.obj
 0001:00000248       ?unexpected@std@@YAXXZ     10001248 f   corelib1_ALL:crtdummy.obj
 0001:0000024c       ?set_terminate@std@@YAP6AXXZP6AXXZ@Z 1000124c f   corelib1_ALL:crtdummy.obj
 0001:00000270       ?set_unexpected@std@@YAP6AXXZP6AXXZ@Z 10001270 f   corelib1_ALL:crtdummy.obj
 0001:00000294       ?_Nomemory@std@@YAXXZ      10001294 f   corelib1_ALL:crtdummy.obj
 0001:00000298       ?_Xlen@std@@YAXXZ          10001298 f   corelib1_ALL:crtdummy.obj
 0001:0000029c       ?_Xran@std@@YAXXZ          1000129c f   corelib1_ALL:crtdummy.obj
 0001:000002a0       ??0type_info@@AAA@ABV0@@Z  100012a0 f   corelib1_ALL:crtdummy.obj
 0001:000002d4       ??_Gtype_info@@UAAPAXI@Z   100012d4 f i corelib1_ALL:crtdummy.obj
 0001:000002d4       ??_Etype_info@@UAAPAXI@Z   100012d4 f i corelib1_ALL:crtdummy.obj
 0001:00000314       ??4type_info@@AAAAAV0@ABV0@@Z 10001314 f   corelib1_ALL:crtdummy.obj
 0001:00000338       ??1type_info@@UAA@XZ       10001338 f   corelib1_ALL:crtdummy.obj
 0001:00000358       ??8type_info@@QBAHABV0@@Z  10001358 f   corelib1_ALL:crtdummy.obj
 0001:0000037c       ??9type_info@@QBAHABV0@@Z  1000137c f   corelib1_ALL:crtdummy.obj
 0001:000003a0       ?name@type_info@@QBAPBDXZ  100013a0 f   corelib1_ALL:crtdummy.obj
 0001:000003c4       ?raw_name@type_info@@QBAPBDXZ 100013c4 f   corelib1_ALL:crtdummy.obj
 0001:000003e8       ?before@type_info@@QBAHABV1@@Z 100013e8 f   corelib1_ALL:crtdummy.obj
 0001:0000040c       ??2@YAPAXI@Z               1000140c f   corelib1_ALL:crtdummy.obj
 0001:00000430       ??2@YAPAXIABUnothrow_t@std@@@Z 10001430 f   corelib1_ALL:crtdummy.obj
 0001:00000454       ??3@YAXPAX@Z               10001454 f   corelib1_ALL:crtdummy.obj
 0001:00000464       ??3@YAXPAXABUnothrow_t@std@@@Z 10001464 f   corelib1_ALL:crtdummy.obj
 0001:00000474       ??_U@YAPAXI@Z              10001474 f   corelib1_ALL:crtdummy.obj
 0001:00000498       ??_U@YAPAXIABUnothrow_t@std@@@Z 10001498 f   corelib1_ALL:crtdummy.obj
 0001:000004bc       ??_V@YAXPAX@Z              100014bc f   corelib1_ALL:crtdummy.obj
 0001:000004cc       ??_V@YAXPAXABUnothrow_t@std@@@Z 100014cc f   corelib1_ALL:crtdummy.obj
 0001:000004dc       ?__set_inconsistency@@YAP6AXXZP6AXXZ@Z 100014dc f   corelib1_ALL:crtdummy.obj
 0001:00000500       ?_inconsistency@@YAXXZ     10001500 f   corelib1_ALL:crtdummy.obj
 0001:00000504       ?_query_new_handler@@YAP6AHI@ZXZ 10001504 f   corelib1_ALL:crtdummy.obj
 0001:0000051c       ?_set_new_handler@@YAP6AHI@ZP6AHI@Z@Z 1000151c f   corelib1_ALL:crtdummy.obj
 0001:00000540       ?_query_new_mode@@YAHXZ    10001540 f   corelib1_ALL:crtdummy.obj
 0001:00000558       ?_set_new_mode@@YAHH@Z     10001558 f   corelib1_ALL:crtdummy.obj
 0001:0000057c       ?set_new_handler@@YAP6AXXZP6AXXZ@Z 1000157c f   corelib1_ALL:crtdummy.obj
 0001:000005a0       ??_M@YAXPAXIHP6AX0@Z@Z     100015a0 f   corelib1_ALL:crtdummy.obj
 0001:000005b0       ??_L@YAXPAXIHP6AX0@Z1@Z    100015b0 f   corelib1_ALL:crtdummy.obj
 0001:000005c0       ??_N@YAXPAXIHP6AX0@Z1@Z    100015c0 f   corelib1_ALL:crtdummy.obj
 0001:000005d0       ??__C@YAXPAX0IHP6AX00@ZP6AX0@Z@Z 100015d0 f   corelib1_ALL:crtdummy.obj
 0001:000005e0       ??__D@YAXPAX0IHP6AX00@ZP6AX0@Z@Z 100015e0 f   corelib1_ALL:crtdummy.obj
 0001:000005f0       DllMain                    100015f0 f   corelib1_ALL:crtdummy.obj
 0001:00000614       _CountLeadingOnes          10001614 f   corelib1_ALL:crtdummy.obj
 0001:00000638       _CountLeadingOnes64        10001638 f   corelib1_ALL:crtdummy.obj
 0001:0000065c       _CountLeadingSigns         1000165c f   corelib1_ALL:crtdummy.obj
 0001:00000680       _CountLeadingSigns64       10001680 f   corelib1_ALL:crtdummy.obj
 0001:000006a4       _CountLeadingZeros         100016a4 f   corelib1_ALL:crtdummy.obj
 0001:000006c8       _CountLeadingZeros64       100016c8 f   corelib1_ALL:crtdummy.obj
 0001:000006ec       _CountOneBits              100016ec f   corelib1_ALL:crtdummy.obj
 0001:00000710       _CountOneBits64            10001710 f   corelib1_ALL:crtdummy.obj
 0001:00000734       _HUGE                      10001734 f   corelib1_ALL:crtdummy.obj
 0001:00000758       _InitStdioLib              10001758 f   corelib1_ALL:crtdummy.obj
 0001:0000077c       _MulHigh                   1000177c f   corelib1_ALL:crtdummy.obj
 0001:000007a0       _MulUnsignedHigh           100017a0 f   corelib1_ALL:crtdummy.obj
 0001:000007c4       _XcptFilter                100017c4 f   corelib1_ALL:crtdummy.obj
 0001:000007e8       __C_specific_handler       100017e8 f   corelib1_ALL:crtdummy.obj
 0001:0000080c       __CxxFrameHandler          1000180c f   corelib1_ALL:crtdummy.obj
 0001:00000830       __CxxFrameHandler3         10001830 f   corelib1_ALL:crtdummy.obj
 0001:00000854       __report_gsfailure         10001854 f   corelib1_ALL:crtdummy.obj
 0001:00000878       __security_gen_cookie      10001878 f   corelib1_ALL:crtdummy.obj
 0001:0000089c       __security_gen_cookie_cgr  1000189c f   corelib1_ALL:crtdummy.obj
 0001:000008c0       __strgtold12               100018c0 f   corelib1_ALL:crtdummy.obj
 0001:000008e4       _abs64                     100018e4 f   corelib1_ALL:crtdummy.obj
 0001:00000908       _atodbl                    10001908 f   corelib1_ALL:crtdummy.obj
 0001:0000092c       _atoflt                    1000192c f   corelib1_ALL:crtdummy.obj
 0001:00000950       _atoi64                    10001950 f   corelib1_ALL:crtdummy.obj
 0001:00000974       bsearch                    10001974 f   corelib1_ALL:crtdummy.obj
 0001:00000998       bsearch_s                  10001998 f   corelib1_ALL:crtdummy.obj
 0001:000009bc       _byteswap_uint64           100019bc f   corelib1_ALL:crtdummy.obj
 0001:000009e0       _byteswap_ulong            100019e0 f   corelib1_ALL:crtdummy.obj
 0001:00000a04       _byteswap_ushort           10001a04 f   corelib1_ALL:crtdummy.obj
 0001:00000a28       _cabs                      10001a28 f   corelib1_ALL:crtdummy.obj
 0001:00000a4c       _chgsign                   10001a4c f   corelib1_ALL:crtdummy.obj
 0001:00000a70       _clearfp                   10001a70 f   corelib1_ALL:crtdummy.obj
 0001:00000a94       _controlfp                 10001a94 f   corelib1_ALL:crtdummy.obj
 0001:00000ab8       _controlfp_s               10001ab8 f   corelib1_ALL:crtdummy.obj
 0001:00000adc       _copysign                  10001adc f   corelib1_ALL:crtdummy.obj
 0001:00000b00       _ecvt                      10001b00 f   corelib1_ALL:crtdummy.obj
 0001:00000b24       _ecvt_s                    10001b24 f   corelib1_ALL:crtdummy.obj
 0001:00000b48       _fcloseall                 10001b48 f   corelib1_ALL:crtdummy.obj
 0001:00000b6c       _fcvt                      10001b6c f   corelib1_ALL:crtdummy.obj
 0001:00000b90       _fcvt_s                    10001b90 f   corelib1_ALL:crtdummy.obj
 0001:00000bb4       _fileno                    10001bb4 f   corelib1_ALL:crtdummy.obj
 0001:00000bd8       _finite                    10001bd8 f   corelib1_ALL:crtdummy.obj
 0001:00000bfc       _fltused                   10001bfc f   corelib1_ALL:crtdummy.obj
 0001:00000c20       _flushall                  10001c20 f   corelib1_ALL:crtdummy.obj
 0001:00000c44       _fpclass                   10001c44 f   corelib1_ALL:crtdummy.obj
 0001:00000c68       _fpieee_flt                10001c68 f   corelib1_ALL:crtdummy.obj
 0001:00000c8c       _fpreset                   10001c8c f   corelib1_ALL:crtdummy.obj
 0001:00000cb0       _frnd                      10001cb0 f   corelib1_ALL:crtdummy.obj
 0001:00000cd4       _fsqrt                     10001cd4 f   corelib1_ALL:crtdummy.obj
 0001:00000cf8       _gcvt                      10001cf8 f   corelib1_ALL:crtdummy.obj
 0001:00000d1c       _gcvt_s                    10001d1c f   corelib1_ALL:crtdummy.obj
 0001:00000d40       _get_invalid_parameter_handler 10001d40 f   corelib1_ALL:crtdummy.obj
 0001:00000d64       _get_printf_count_output   10001d64 f   corelib1_ALL:crtdummy.obj
 0001:00000d88       _getstdfilex               10001d88 f   corelib1_ALL:crtdummy.obj
 0001:00000dac       _getws                     10001dac f   corelib1_ALL:crtdummy.obj
 0001:00000dd0       _getws_s                   10001dd0 f   corelib1_ALL:crtdummy.obj
 0001:00000df4       _hypot                     10001df4 f   corelib1_ALL:crtdummy.obj
 0001:00000e18       _invalid_parameter         10001e18 f   corelib1_ALL:crtdummy.obj
 0001:00000e3c       _isctype                   10001e3c f   corelib1_ALL:crtdummy.obj
 0001:00000e60       _isnan                     10001e60 f   corelib1_ALL:crtdummy.obj
 0001:00000e84       _isnanf                    10001e84 f   corelib1_ALL:crtdummy.obj
 0001:00000ea8       _isunordered               10001ea8 f   corelib1_ALL:crtdummy.obj
 0001:00000ecc       _isunorderedf              10001ecc f   corelib1_ALL:crtdummy.obj
 0001:00000ef0       _itoa                      10001ef0 f   corelib1_ALL:crtdummy.obj
 0001:00000f14       _itoa_s                    10001f14 f   corelib1_ALL:crtdummy.obj
 0001:00000f38       _itow                      10001f38 f   corelib1_ALL:crtdummy.obj
 0001:00000f5c       _itow_s                    10001f5c f   corelib1_ALL:crtdummy.obj
 0001:00000f80       _j0                        10001f80 f   corelib1_ALL:crtdummy.obj
 0001:00000fa4       _j1                        10001fa4 f   corelib1_ALL:crtdummy.obj
 0001:00000fc8       _jn                        10001fc8 f   corelib1_ALL:crtdummy.obj
 0001:00000fec       _ld12tod                   10001fec f   corelib1_ALL:crtdummy.obj
 0001:00001010       _ld12tof                   10002010 f   corelib1_ALL:crtdummy.obj
 0001:00001034       _logb                      10002034 f   corelib1_ALL:crtdummy.obj
 0001:00001058       _lrotl                     10002058 f   corelib1_ALL:crtdummy.obj
 0001:0000107c       _lrotr                     1000207c f   corelib1_ALL:crtdummy.obj
 0001:000010a0       _ltoa                      100020a0 f   corelib1_ALL:crtdummy.obj
 0001:000010c4       _ltoa_s                    100020c4 f   corelib1_ALL:crtdummy.obj
 0001:000010e8       _ltow                      100020e8 f   corelib1_ALL:crtdummy.obj
 0001:0000110c       _ltow_s                    1000210c f   corelib1_ALL:crtdummy.obj
 0001:00001130       _memccpy                   10002130 f   corelib1_ALL:crtdummy.obj
 0001:00001154       _memicmp                   10002154 f   corelib1_ALL:crtdummy.obj
 0001:00001178       _msize                     10002178 f   corelib1_ALL:crtdummy.obj
 0001:0000119c       _nextafter                 1000219c f   corelib1_ALL:crtdummy.obj
 0001:000011c0       _putws                     100021c0 f   corelib1_ALL:crtdummy.obj
 0001:000011e4       _recalloc                  100021e4 f   corelib1_ALL:crtdummy.obj
 0001:00001208       _rotl                      10002208 f   corelib1_ALL:crtdummy.obj
 0001:0000122c       _rotl64                    1000222c f   corelib1_ALL:crtdummy.obj
 0001:00001250       _rotr                      10002250 f   corelib1_ALL:crtdummy.obj
 0001:00001274       _rotr64                    10002274 f   corelib1_ALL:crtdummy.obj
 0001:00001298       _scalb                     10002298 f   corelib1_ALL:crtdummy.obj
 0001:000012bc       _scprintf                  100022bc f   corelib1_ALL:crtdummy.obj
 0001:000012e0       _scwprintf                 100022e0 f   corelib1_ALL:crtdummy.obj
 0001:00001304       _set_invalid_parameter_handler 10002304 f   corelib1_ALL:crtdummy.obj
 0001:00001328       _set_printf_count_output   10002328 f   corelib1_ALL:crtdummy.obj
 0001:0000134c       _setmode                   1000234c f   corelib1_ALL:crtdummy.obj
 0001:00001370       _snprintf                  10002370 f   corelib1_ALL:crtdummy.obj
 0001:00001394       _snprintf_s                10002394 f   corelib1_ALL:crtdummy.obj
 0001:000013b8       _snwprintf                 100023b8 f   corelib1_ALL:crtdummy.obj
 0001:000013dc       _snwprintf_s               100023dc f   corelib1_ALL:crtdummy.obj
 0001:00001400       _statusfp                  10002400 f   corelib1_ALL:crtdummy.obj
 0001:00001424       _strdup                    10002424 f   corelib1_ALL:crtdummy.obj
 0001:00001448       _stricmp                   10002448 f   corelib1_ALL:crtdummy.obj
 0001:0000146c       _strtoi64                  1000246c f   corelib1_ALL:crtdummy.obj
 0001:00001490       _strtoui64                 10002490 f   corelib1_ALL:crtdummy.obj
 0001:000014b4       _strlwr                    100024b4 f   corelib1_ALL:crtdummy.obj
 0001:000014d8       _strlwr_s                  100024d8 f   corelib1_ALL:crtdummy.obj
 0001:000014fc       _strnicmp                  100024fc f   corelib1_ALL:crtdummy.obj
 0001:00001520       _strnset                   10002520 f   corelib1_ALL:crtdummy.obj
 0001:00001544       _strnset_s                 10002544 f   corelib1_ALL:crtdummy.obj
 0001:00001568       _strrev                    10002568 f   corelib1_ALL:crtdummy.obj
 0001:0000158c       _strset                    1000258c f   corelib1_ALL:crtdummy.obj
 0001:000015b0       _strset_s                  100025b0 f   corelib1_ALL:crtdummy.obj
 0001:000015d4       _strupr                    100025d4 f   corelib1_ALL:crtdummy.obj
 0001:000015f8       _strupr_s                  100025f8 f   corelib1_ALL:crtdummy.obj
 0001:0000161c       _swab                      1000261c f   corelib1_ALL:crtdummy.obj
 0001:00001640       _ultoa                     10002640 f   corelib1_ALL:crtdummy.obj
 0001:00001664       _ultoa_s                   10002664 f   corelib1_ALL:crtdummy.obj
 0001:00001688       _ultow                     10002688 f   corelib1_ALL:crtdummy.obj
 0001:000016ac       _ultow_s                   100026ac f   corelib1_ALL:crtdummy.obj
 0001:000016d0       _vscprintf                 100026d0 f   corelib1_ALL:crtdummy.obj
 0001:000016f4       _vscwprintf                100026f4 f   corelib1_ALL:crtdummy.obj
 0001:00001718       _vsnprintf                 10002718 f   corelib1_ALL:crtdummy.obj
 0001:0000173c       _vsnprintf_s               1000273c f   corelib1_ALL:crtdummy.obj
 0001:00001760       _vsnwprintf                10002760 f   corelib1_ALL:crtdummy.obj
 0001:00001784       _vsnwprintf_s              10002784 f   corelib1_ALL:crtdummy.obj
 0001:000017a8       _wcsdup                    100027a8 f   corelib1_ALL:crtdummy.obj
 0001:000017cc       _wcsicmp                   100027cc f   corelib1_ALL:crtdummy.obj
 0001:000017f0       _wcslwr                    100027f0 f   corelib1_ALL:crtdummy.obj
 0001:00001814       _wcslwr_s                  10002814 f   corelib1_ALL:crtdummy.obj
 0001:00001838       _wcsnicmp                  10002838 f   corelib1_ALL:crtdummy.obj
 0001:0000185c       _wcsnset                   1000285c f   corelib1_ALL:crtdummy.obj
 0001:00001880       _wcsnset_s                 10002880 f   corelib1_ALL:crtdummy.obj
 0001:000018a4       _wcsrev                    100028a4 f   corelib1_ALL:crtdummy.obj
 0001:000018c8       _wcsset                    100028c8 f   corelib1_ALL:crtdummy.obj
 0001:000018ec       _wcsset_s                  100028ec f   corelib1_ALL:crtdummy.obj
 0001:00001910       _wcstoi64                  10002910 f   corelib1_ALL:crtdummy.obj
 0001:00001934       _wcstoui64                 10002934 f   corelib1_ALL:crtdummy.obj
 0001:00001958       _wcsupr                    10002958 f   corelib1_ALL:crtdummy.obj
 0001:0000197c       _wcsupr_s                  1000297c f   corelib1_ALL:crtdummy.obj
 0001:000019a0       _wfdopen                   100029a0 f   corelib1_ALL:crtdummy.obj
 0001:000019c4       _wfopen                    100029c4 f   corelib1_ALL:crtdummy.obj
 0001:000019e8       _wfopen_s                  100029e8 f   corelib1_ALL:crtdummy.obj
 0001:00001a0c       _wfreopen                  10002a0c f   corelib1_ALL:crtdummy.obj
 0001:00001a30       _wfreopen_s                10002a30 f   corelib1_ALL:crtdummy.obj
 0001:00001a54       _wtoi                      10002a54 f   corelib1_ALL:crtdummy.obj
 0001:00001a78       _wtoi64                    10002a78 f   corelib1_ALL:crtdummy.obj
 0001:00001a9c       _wtof                      10002a9c f   corelib1_ALL:crtdummy.obj
 0001:00001ac0       _wtol                      10002ac0 f   corelib1_ALL:crtdummy.obj
 0001:00001ae4       _y0                        10002ae4 f   corelib1_ALL:crtdummy.obj
 0001:00001b08       _y1                        10002b08 f   corelib1_ALL:crtdummy.obj
 0001:00001b2c       _yn                        10002b2c f   corelib1_ALL:crtdummy.obj
 0001:00001b50       abs                        10002b50 f   corelib1_ALL:crtdummy.obj
 0001:00001b74       acos                       10002b74 f   corelib1_ALL:crtdummy.obj
 0001:00001b98       asin                       10002b98 f   corelib1_ALL:crtdummy.obj
 0001:00001bbc       atan                       10002bbc f   corelib1_ALL:crtdummy.obj
 0001:00001be0       atan2                      10002be0 f   corelib1_ALL:crtdummy.obj
 0001:00001c04       atof                       10002c04 f   corelib1_ALL:crtdummy.obj
 0001:00001c28       atoi                       10002c28 f   corelib1_ALL:crtdummy.obj
 0001:00001c4c       atol                       10002c4c f   corelib1_ALL:crtdummy.obj
 0001:00001c70       calloc                     10002c70 f   corelib1_ALL:crtdummy.obj
 0001:00001c94       ceil                       10002c94 f   corelib1_ALL:crtdummy.obj
 0001:00001cb8       ceilf                      10002cb8 f   corelib1_ALL:crtdummy.obj
 0001:00001cdc       clearerr                   10002cdc f   corelib1_ALL:crtdummy.obj
 0001:00001d00       clearerr_s                 10002d00 f   corelib1_ALL:crtdummy.obj
 0001:00001d24       cos                        10002d24 f   corelib1_ALL:crtdummy.obj
 0001:00001d48       cosh                       10002d48 f   corelib1_ALL:crtdummy.obj
 0001:00001d6c       difftime                   10002d6c f   corelib1_ALL:crtdummy.obj
 0001:00001d90       div                        10002d90 f   corelib1_ALL:crtdummy.obj
 0001:00001db4       exp                        10002db4 f   corelib1_ALL:crtdummy.obj
 0001:00001dd8       fabs                       10002dd8 f   corelib1_ALL:crtdummy.obj
 0001:00001dfc       fabsf                      10002dfc f   corelib1_ALL:crtdummy.obj
 0001:00001e20       fclose                     10002e20 f   corelib1_ALL:crtdummy.obj
 0001:00001e44       feof                       10002e44 f   corelib1_ALL:crtdummy.obj
 0001:00001e68       ferror                     10002e68 f   corelib1_ALL:crtdummy.obj
 0001:00001e8c       fflush                     10002e8c f   corelib1_ALL:crtdummy.obj
 0001:00001eb0       fgetc                      10002eb0 f   corelib1_ALL:crtdummy.obj
 0001:00001ed4       fgetpos                    10002ed4 f   corelib1_ALL:crtdummy.obj
 0001:00001ef8       fgets                      10002ef8 f   corelib1_ALL:crtdummy.obj
 0001:00001f1c       fgetwc                     10002f1c f   corelib1_ALL:crtdummy.obj
 0001:00001f40       fgetws                     10002f40 f   corelib1_ALL:crtdummy.obj
 0001:00001f64       floor                      10002f64 f   corelib1_ALL:crtdummy.obj
 0001:00001f88       floorf                     10002f88 f   corelib1_ALL:crtdummy.obj
 0001:00001fac       fmod                       10002fac f   corelib1_ALL:crtdummy.obj
 0001:00001fd0       fmodf                      10002fd0 f   corelib1_ALL:crtdummy.obj
 0001:00001ff4       fopen                      10002ff4 f   corelib1_ALL:crtdummy.obj
 0001:00002018       fopen_s                    10003018 f   corelib1_ALL:crtdummy.obj
 0001:0000203c       fprintf                    1000303c f   corelib1_ALL:crtdummy.obj
 0001:00002060       fprintf_s                  10003060 f   corelib1_ALL:crtdummy.obj
 0001:00002084       fputc                      10003084 f   corelib1_ALL:crtdummy.obj
 0001:000020a8       fputs                      100030a8 f   corelib1_ALL:crtdummy.obj
 0001:000020cc       fputwc                     100030cc f   corelib1_ALL:crtdummy.obj
 0001:000020f0       fputws                     100030f0 f   corelib1_ALL:crtdummy.obj
 0001:00002114       fread                      10003114 f   corelib1_ALL:crtdummy.obj
 0001:00002138       fread_s                    10003138 f   corelib1_ALL:crtdummy.obj
 0001:0000215c       free                       1000315c f   corelib1_ALL:crtdummy.obj
 0001:00002180       frexp                      10003180 f   corelib1_ALL:crtdummy.obj
 0001:000021a4       fscanf                     100031a4 f   corelib1_ALL:crtdummy.obj
 0001:000021c8       fscanf_s                   100031c8 f   corelib1_ALL:crtdummy.obj
 0001:000021ec       fseek                      100031ec f   corelib1_ALL:crtdummy.obj
 0001:00002210       fsetpos                    10003210 f   corelib1_ALL:crtdummy.obj
 0001:00002234       ftell                      10003234 f   corelib1_ALL:crtdummy.obj
 0001:00002258       fwprintf                   10003258 f   corelib1_ALL:crtdummy.obj
 0001:0000227c       fwprintf_s                 1000327c f   corelib1_ALL:crtdummy.obj
 0001:000022a0       fwrite                     100032a0 f   corelib1_ALL:crtdummy.obj
 0001:000022c4       fwscanf                    100032c4 f   corelib1_ALL:crtdummy.obj
 0001:000022e8       fwscanf_s                  100032e8 f   corelib1_ALL:crtdummy.obj
 0001:0000230c       getchar                    1000330c f   corelib1_ALL:crtdummy.obj
 0001:00002330       gets                       10003330 f   corelib1_ALL:crtdummy.obj
 0001:00002354       gets_s                     10003354 f   corelib1_ALL:crtdummy.obj
 0001:00002378       getwchar                   10003378 f   corelib1_ALL:crtdummy.obj
 0001:0000239c       iswctype                   1000339c f   corelib1_ALL:crtdummy.obj
 0001:000023c0       labs                       100033c0 f   corelib1_ALL:crtdummy.obj
 0001:000023e4       ldexp                      100033e4 f   corelib1_ALL:crtdummy.obj
 0001:00002408       ldiv                       10003408 f   corelib1_ALL:crtdummy.obj
 0001:0000242c       log                        1000342c f   corelib1_ALL:crtdummy.obj
 0001:00002450       log10                      10003450 f   corelib1_ALL:crtdummy.obj
 0001:00002474       longjmp                    10003474 f   corelib1_ALL:crtdummy.obj
 0001:00002498       malloc                     10003498 f   corelib1_ALL:crtdummy.obj
 0001:000024bc       mbstowcs                   100034bc f   corelib1_ALL:crtdummy.obj
 0001:000024e0       mbstowcs_s                 100034e0 f   corelib1_ALL:crtdummy.obj
 0001:00002504       memchr                     10003504 f   corelib1_ALL:crtdummy.obj
 0001:00002528       memcmp                     10003528 f   corelib1_ALL:crtdummy.obj
 0001:0000254c       memcpy                     1000354c f   corelib1_ALL:crtdummy.obj
 0001:00002570       memcpy_s                   10003570 f   corelib1_ALL:crtdummy.obj
 0001:00002594       memmove                    10003594 f   corelib1_ALL:crtdummy.obj
 0001:000025b8       memmove_s                  100035b8 f   corelib1_ALL:crtdummy.obj
 0001:000025dc       memset                     100035dc f   corelib1_ALL:crtdummy.obj
 0001:00002600       modf                       10003600 f   corelib1_ALL:crtdummy.obj
 0001:00002624       pow                        10003624 f   corelib1_ALL:crtdummy.obj
 0001:00002648       printf                     10003648 f   corelib1_ALL:crtdummy.obj
 0001:0000266c       printf_s                   1000366c f   corelib1_ALL:crtdummy.obj
 0001:00002690       putchar                    10003690 f   corelib1_ALL:crtdummy.obj
 0001:000026b4       puts                       100036b4 f   corelib1_ALL:crtdummy.obj
 0001:000026d8       putwchar                   100036d8 f   corelib1_ALL:crtdummy.obj
 0001:000026fc       qsort                      100036fc f   corelib1_ALL:crtdummy.obj
 0001:00002720       qsort_s                    10003720 f   corelib1_ALL:crtdummy.obj
 0001:00002744       rand                       10003744 f   corelib1_ALL:crtdummy.obj
 0001:00002768       rand_s                     10003768 f   corelib1_ALL:crtdummy.obj
 0001:0000278c       realloc                    1000378c f   corelib1_ALL:crtdummy.obj
 0001:000027b0       scanf                      100037b0 f   corelib1_ALL:crtdummy.obj
 0001:000027d4       scanf_s                    100037d4 f   corelib1_ALL:crtdummy.obj
 0001:000027f8       setvbuf                    100037f8 f   corelib1_ALL:crtdummy.obj
 0001:0000281c       sin                        1000381c f   corelib1_ALL:crtdummy.obj
 0001:00002840       sinh                       10003840 f   corelib1_ALL:crtdummy.obj
 0001:00002864       sprintf                    10003864 f   corelib1_ALL:crtdummy.obj
 0001:00002888       sprintf_s                  10003888 f   corelib1_ALL:crtdummy.obj
 0001:000028ac       sqrt                       100038ac f   corelib1_ALL:crtdummy.obj
 0001:000028d0       sqrtf                      100038d0 f   corelib1_ALL:crtdummy.obj
 0001:000028f4       srand                      100038f4 f   corelib1_ALL:crtdummy.obj
 0001:00002918       sscanf                     10003918 f   corelib1_ALL:crtdummy.obj
 0001:0000293c       sscanf_s                   1000393c f   corelib1_ALL:crtdummy.obj
 0001:00002960       strcat                     10003960 f   corelib1_ALL:crtdummy.obj
 0001:00002984       strcat_s                   10003984 f   corelib1_ALL:crtdummy.obj
 0001:000029a8       strchr                     100039a8 f   corelib1_ALL:crtdummy.obj
 0001:000029cc       strcmp                     100039cc f   corelib1_ALL:crtdummy.obj
 0001:000029f0       strcpy                     100039f0 f   corelib1_ALL:crtdummy.obj
 0001:00002a14       strcpy_s                   10003a14 f   corelib1_ALL:crtdummy.obj
 0001:00002a38       strcspn                    10003a38 f   corelib1_ALL:crtdummy.obj
 0001:00002a5c       strlen                     10003a5c f   corelib1_ALL:crtdummy.obj
 0001:00002a80       strncat                    10003a80 f   corelib1_ALL:crtdummy.obj
 0001:00002aa4       strncat_s                  10003aa4 f   corelib1_ALL:crtdummy.obj
 0001:00002ac8       strncmp                    10003ac8 f   corelib1_ALL:crtdummy.obj
 0001:00002aec       strncpy                    10003aec f   corelib1_ALL:crtdummy.obj
 0001:00002b10       strncpy_s                  10003b10 f   corelib1_ALL:crtdummy.obj
 0001:00002b34       strnlen                    10003b34 f   corelib1_ALL:crtdummy.obj
 0001:00002b58       strpbrk                    10003b58 f   corelib1_ALL:crtdummy.obj
 0001:00002b7c       strrchr                    10003b7c f   corelib1_ALL:crtdummy.obj
 0001:00002ba0       strspn                     10003ba0 f   corelib1_ALL:crtdummy.obj
 0001:00002bc4       strstr                     10003bc4 f   corelib1_ALL:crtdummy.obj
 0001:00002be8       strtod                     10003be8 f   corelib1_ALL:crtdummy.obj
 0001:00002c0c       strtok                     10003c0c f   corelib1_ALL:crtdummy.obj
 0001:00002c30       strtok_s                   10003c30 f   corelib1_ALL:crtdummy.obj
 0001:00002c54       strtol                     10003c54 f   corelib1_ALL:crtdummy.obj
 0001:00002c78       strtoul                    10003c78 f   corelib1_ALL:crtdummy.obj
 0001:00002c9c       swprintf                   10003c9c f   corelib1_ALL:crtdummy.obj
 0001:00002cc0       swprintf_s                 10003cc0 f   corelib1_ALL:crtdummy.obj
 0001:00002ce4       swscanf                    10003ce4 f   corelib1_ALL:crtdummy.obj
 0001:00002d08       swscanf_s                  10003d08 f   corelib1_ALL:crtdummy.obj
 0001:00002d2c       tan                        10003d2c f   corelib1_ALL:crtdummy.obj
 0001:00002d50       tanh                       10003d50 f   corelib1_ALL:crtdummy.obj
 0001:00002d74       tolower                    10003d74 f   corelib1_ALL:crtdummy.obj
 0001:00002d98       toupper                    10003d98 f   corelib1_ALL:crtdummy.obj
 0001:00002dbc       towlower                   10003dbc f   corelib1_ALL:crtdummy.obj
 0001:00002de0       towupper                   10003de0 f   corelib1_ALL:crtdummy.obj
 0001:00002e04       ungetc                     10003e04 f   corelib1_ALL:crtdummy.obj
 0001:00002e28       ungetwc                    10003e28 f   corelib1_ALL:crtdummy.obj
 0001:00002e4c       vfprintf                   10003e4c f   corelib1_ALL:crtdummy.obj
 0001:00002e70       vfprintf_s                 10003e70 f   corelib1_ALL:crtdummy.obj
 0001:00002e94       vfwprintf                  10003e94 f   corelib1_ALL:crtdummy.obj
 0001:00002eb8       vfwprintf_s                10003eb8 f   corelib1_ALL:crtdummy.obj
 0001:00002edc       vprintf                    10003edc f   corelib1_ALL:crtdummy.obj
 0001:00002f00       vprintf_s                  10003f00 f   corelib1_ALL:crtdummy.obj
 0001:00002f24       vsprintf                   10003f24 f   corelib1_ALL:crtdummy.obj
 0001:00002f48       vsprintf_s                 10003f48 f   corelib1_ALL:crtdummy.obj
 0001:00002f6c       vswprintf                  10003f6c f   corelib1_ALL:crtdummy.obj
 0001:00002f90       vswprintf_s                10003f90 f   corelib1_ALL:crtdummy.obj
 0001:00002fb4       vwprintf                   10003fb4 f   corelib1_ALL:crtdummy.obj
 0001:00002fd8       vwprintf_s                 10003fd8 f   corelib1_ALL:crtdummy.obj
 0001:00002ffc       wcscat                     10003ffc f   corelib1_ALL:crtdummy.obj
 0001:00003020       wcscat_s                   10004020 f   corelib1_ALL:crtdummy.obj
 0001:00003044       wcschr                     10004044 f   corelib1_ALL:crtdummy.obj
 0001:00003068       wcscmp                     10004068 f   corelib1_ALL:crtdummy.obj
 0001:0000308c       wcscpy                     1000408c f   corelib1_ALL:crtdummy.obj
 0001:000030b0       wcscpy_s                   100040b0 f   corelib1_ALL:crtdummy.obj
 0001:000030d4       wcscspn                    100040d4 f   corelib1_ALL:crtdummy.obj
 0001:000030f8       wcslen                     100040f8 f   corelib1_ALL:crtdummy.obj
 0001:0000311c       wcsncat                    1000411c f   corelib1_ALL:crtdummy.obj
 0001:00003140       wcsncat_s                  10004140 f   corelib1_ALL:crtdummy.obj
 0001:00003164       wcsncmp                    10004164 f   corelib1_ALL:crtdummy.obj
 0001:00003188       wcsncpy                    10004188 f   corelib1_ALL:crtdummy.obj
 0001:000031ac       wcsncpy_s                  100041ac f   corelib1_ALL:crtdummy.obj
 0001:000031d0       wcsnlen                    100041d0 f   corelib1_ALL:crtdummy.obj
 0001:000031f4       wcspbrk                    100041f4 f   corelib1_ALL:crtdummy.obj
 0001:00003218       wcsrchr                    10004218 f   corelib1_ALL:crtdummy.obj
 0001:0000323c       wcsspn                     1000423c f   corelib1_ALL:crtdummy.obj
 0001:00003260       wcsstr                     10004260 f   corelib1_ALL:crtdummy.obj
 0001:00003284       wcstod                     10004284 f   corelib1_ALL:crtdummy.obj
 0001:000032a8       wcstok                     100042a8 f   corelib1_ALL:crtdummy.obj
 0001:000032cc       wcstok_s                   100042cc f   corelib1_ALL:crtdummy.obj
 0001:000032f0       wcstol                     100042f0 f   corelib1_ALL:crtdummy.obj
 0001:00003314       wcstombs                   10004314 f   corelib1_ALL:crtdummy.obj
 0001:00003338       wcstombs_s                 10004338 f   corelib1_ALL:crtdummy.obj
 0001:0000335c       wcstoul                    1000435c f   corelib1_ALL:crtdummy.obj
 0001:00003380       wprintf                    10004380 f   corelib1_ALL:crtdummy.obj
 0001:000033a4       wprintf_s                  100043a4 f   corelib1_ALL:crtdummy.obj
 0001:000033c8       wscanf                     100043c8 f   corelib1_ALL:crtdummy.obj
 0001:000033ec       wscanf_s                   100043ec f   corelib1_ALL:crtdummy.obj
 0001:00003410       __addd                     10004410 f   corelib1_ALL:crtdummy.obj
 0001:00003434       __adds                     10004434 f   corelib1_ALL:crtdummy.obj
 0001:00003458       __divd                     10004458 f   corelib1_ALL:crtdummy.obj
 0001:0000347c       __divs                     1000447c f   corelib1_ALL:crtdummy.obj
 0001:000034a0       __dtoi                     100044a0 f   corelib1_ALL:crtdummy.obj
 0001:000034c4       __dtoi64                   100044c4 f   corelib1_ALL:crtdummy.obj
 0001:000034e8       __dtos                     100044e8 f   corelib1_ALL:crtdummy.obj
 0001:0000350c       __dtou                     1000450c f   corelib1_ALL:crtdummy.obj
 0001:00003530       __dtou64                   10004530 f   corelib1_ALL:crtdummy.obj
 0001:00003554       __eqd                      10004554 f   corelib1_ALL:crtdummy.obj
 0001:00003578       __eqs                      10004578 f   corelib1_ALL:crtdummy.obj
 0001:0000359c       __ged                      1000459c f   corelib1_ALL:crtdummy.obj
 0001:000035c0       __ges                      100045c0 f   corelib1_ALL:crtdummy.obj
 0001:000035e4       __gtd                      100045e4 f   corelib1_ALL:crtdummy.obj
 0001:00003608       __gts                      10004608 f   corelib1_ALL:crtdummy.obj
 0001:0000362c       __i64tod                   1000462c f   corelib1_ALL:crtdummy.obj
 0001:00003650       __i64tos                   10004650 f   corelib1_ALL:crtdummy.obj
 0001:00003674       __itod                     10004674 f   corelib1_ALL:crtdummy.obj
 0001:00003698       __itos                     10004698 f   corelib1_ALL:crtdummy.obj
 0001:000036bc       __led                      100046bc f   corelib1_ALL:crtdummy.obj
 0001:000036e0       __les                      100046e0 f   corelib1_ALL:crtdummy.obj
 0001:00003704       __ltd                      10004704 f   corelib1_ALL:crtdummy.obj
 0001:00003728       __lts                      10004728 f   corelib1_ALL:crtdummy.obj
 0001:0000374c       __muld                     1000474c f   corelib1_ALL:crtdummy.obj
 0001:00003770       __muls                     10004770 f   corelib1_ALL:crtdummy.obj
 0001:00003794       __ned                      10004794 f   corelib1_ALL:crtdummy.obj
 0001:000037b8       __negd                     100047b8 f   corelib1_ALL:crtdummy.obj
 0001:000037dc       __negs                     100047dc f   corelib1_ALL:crtdummy.obj
 0001:00003800       __nes                      10004800 f   corelib1_ALL:crtdummy.obj
 0001:00003824       __rt_sdiv                  10004824 f   corelib1_ALL:crtdummy.obj
 0001:00003848       __rt_sdiv10                10004848 f   corelib1_ALL:crtdummy.obj
 0001:0000386c       __rt_sdiv64by64            1000486c f   corelib1_ALL:crtdummy.obj
 0001:00003890       __rt_srem64by64            10004890 f   corelib1_ALL:crtdummy.obj
 0001:000038b4       __rt_srsh                  100048b4 f   corelib1_ALL:crtdummy.obj
 0001:000038d8       __rt_udiv                  100048d8 f   corelib1_ALL:crtdummy.obj
 0001:000038fc       __rt_udiv10                100048fc f   corelib1_ALL:crtdummy.obj
 0001:00003920       __rt_udiv64by64            10004920 f   corelib1_ALL:crtdummy.obj
 0001:00003944       __rt_urem64by64            10004944 f   corelib1_ALL:crtdummy.obj
 0001:00003968       __rt_ursh                  10004968 f   corelib1_ALL:crtdummy.obj
 0001:0000398c       __stod                     1000498c f   corelib1_ALL:crtdummy.obj
 0001:000039b0       __stoi                     100049b0 f   corelib1_ALL:crtdummy.obj
 0001:000039d4       __stoi64                   100049d4 f   corelib1_ALL:crtdummy.obj
 0001:000039f8       __stou                     100049f8 f   corelib1_ALL:crtdummy.obj
 0001:00003a1c       __stou64                   10004a1c f   corelib1_ALL:crtdummy.obj
 0001:00003a40       __subd                     10004a40 f   corelib1_ALL:crtdummy.obj
 0001:00003a64       __subs                     10004a64 f   corelib1_ALL:crtdummy.obj
 0001:00003a88       __u64tod                   10004a88 f   corelib1_ALL:crtdummy.obj
 0001:00003aac       __u64tos                   10004aac f   corelib1_ALL:crtdummy.obj
 0001:00003ad0       __utod                     10004ad0 f   corelib1_ALL:crtdummy.obj
 0001:00003af4       __utos                     10004af4 f   corelib1_ALL:crtdummy.obj
 0001:00003b18       _mbmemset                  10004b18 f   corelib1_ALL:crtdummy.obj
 0001:00003b3c       setjmp                     10004b3c f   corelib1_ALL:crtdummy.obj

 entry point at        0001:000005f0

 Static symbols

