 exsmime

 Timestamp is 618b15b8 (Tue Nov 09 17:43:36 2021)

 Preferred load address is 10000000

 Start         Length     Name                   Class
 0001:00000000 00000004H .CRT$XCA                CODE
 0001:00000004 00000008H .CRT$XCL                CODE
 0001:0000000c 00000004H .CRT$XCU                CODE
 0001:00000010 00000004H .CRT$XCZ                CODE
 0001:00000014 00000004H .CRT$XIA                CODE
 0001:00000018 00000004H .CRT$XIZ                CODE
 0001:0000001c 00000004H .CRT$XPA                CODE
 0001:00000020 00000004H .CRT$XPZ                CODE
 0001:00000024 00000004H .CRT$XTA                CODE
 0001:00000028 00000004H .CRT$XTZ                CODE
 0001:00000030 0000402cH .rdata                  CODE
 0001:0000405c 00000024H .rdata$debug            CODE
 0001:00004080 0003c3ecH .text                   CODE
 0001:0004046c 00000060H .text$yc                CODE
 0001:000404cc 00000034H .text$yd                CODE
 0001:00040500 000000c4H .xdata                  CODE
 0001:000405c4 00000004H ATL$__a                 CODE
 0001:000405c8 00000004H ATL$__z                 CODE
 0001:000405cc 00000078H .idata$2                CODE
 0001:00040644 00000014H .idata$3                CODE
 0001:00040658 0000026cH .idata$4                CODE
 0001:000408c4 00000438H .idata$6                CODE
 0001:00040d00 000000a4H .edata                  CODE
 0002:00000000 0000026cH .idata$5                DATA
 0002:00000270 00000450H .data                   DATA
 0002:000006c0 00000124H .bss                    DATA
 0003:00000000 00002790H .pdata                  DATA

  Address         Publics by Value              Rva+Base       Lib:Object

 0000:00000000       ___safe_se_handler_count   00000000     <absolute>
 0000:00000000       ___safe_se_handler_table   00000000     <absolute>
 0001:00000000       __xc_a                     10001000     corelib0:crt0init.obj
 0001:00000010       __xc_z                     10001010     corelib0:crt0init.obj
 0001:00000014       __xi_a                     10001014     corelib0:crt0init.obj
 0001:00000018       __xi_z                     10001018     corelib0:crt0init.obj
 0001:0000001c       __xp_a                     1000101c     corelib0:crt0init.obj
 0001:00000020       __xp_z                     10001020     corelib0:crt0init.obj
 0001:00000024       __xt_a                     10001024     corelib0:crt0init.obj
 0001:00000028       __xt_z                     10001028     corelib0:crt0init.obj
 0001:0000004c       ??_C@_1BA@JIHHIEDE@?$AAT?$AAy?$AAp?$AAe?$AAL?$AAi?$AAb?$AA?$AA@ 1000104c     exsmime_ALL:ExSMime.obj
 0001:0000005c       ??_C@_1BC@EAHCMADO@?$AAS?$AAo?$AAf?$AAt?$AAw?$AAa?$AAr?$AAe?$AA?$AA@ 1000105c     exsmime_ALL:ExSMime.obj
 0001:00000070       ??_C@_1O@GBFINDKL@?$AAS?$AAY?$AAS?$AAT?$AAE?$AAM?$AA?$AA@ 10001070     exsmime_ALL:ExSMime.obj
 0001:00000080       ??_C@_1BC@IBECJAAI@?$AAS?$AAE?$AAC?$AAU?$AAR?$AAI?$AAT?$AAY?$AA?$AA@ 10001080     exsmime_ALL:ExSMime.obj
 0001:00000094       ??_C@_17OMAOINJK@?$AAS?$AAA?$AAM?$AA?$AA@ 10001094     exsmime_ALL:ExSMime.obj
 0001:0000009c       ??_C@_19HLLLM@?$AAM?$AAi?$AAm?$AAe?$AA?$AA@ 1000109c     exsmime_ALL:ExSMime.obj
 0001:000000a8       ??_C@_1BC@MAICEHGI@?$AAH?$AAa?$AAr?$AAd?$AAw?$AAa?$AAr?$AAe?$AA?$AA@ 100010a8     exsmime_ALL:ExSMime.obj
 0001:000000bc       ??_C@_1BE@EKPAFMCP@?$AAI?$AAn?$AAt?$AAe?$AAr?$AAf?$AAa?$AAc?$AAe?$AA?$AA@ 100010bc     exsmime_ALL:ExSMime.obj
 0001:000000d0       ??_C@_1BC@NKMMNMGL@?$AAF?$AAi?$AAl?$AAe?$AAT?$AAy?$AAp?$AAe?$AA?$AA@ 100010d0     exsmime_ALL:ExSMime.obj
 0001:000000e4       ??_C@_1CK@OEKPKBNA@?$AAC?$AAo?$AAm?$AAp?$AAo?$AAn?$AAe?$AAn?$AAt?$AA?5?$AAC?$AAa?$AAt?$AAe?$AAg?$AAo?$AAr?$AAi?$AAe?$AAs?$AA?$AA@ 100010e4     exsmime_ALL:ExSMime.obj
 0001:00000110       ??_C@_1M@KANJNLFF@?$AAC?$AAL?$AAS?$AAI?$AAD?$AA?$AA@ 10001110     exsmime_ALL:ExSMime.obj
 0001:0000011c       ??_C@_1M@EJNEECMJ@?$AAA?$AAp?$AAp?$AAI?$AAD?$AA?$AA@ 1000111c     exsmime_ALL:ExSMime.obj
 0001:00000128       ??_C@_1O@JDLOHAN@?$AAD?$AAe?$AAl?$AAe?$AAt?$AAe?$AA?$AA@ 10001128     exsmime_ALL:ExSMime.obj
 0001:00000138       ??_C@_1BC@GCKHIPE@?$AAN?$AAo?$AAR?$AAe?$AAm?$AAo?$AAv?$AAe?$AA?$AA@ 10001138     exsmime_ALL:ExSMime.obj
 0001:0000014c       ??_C@_1BI@JFAIJMHL@?$AAF?$AAo?$AAr?$AAc?$AAe?$AAR?$AAe?$AAm?$AAo?$AAv?$AAe?$AA?$AA@ 1000114c     exsmime_ALL:ExSMime.obj
 0001:00000164       ??_C@_17LLMMEOJD@?$AAV?$AAa?$AAl?$AA?$AA@ 10001164     exsmime_ALL:ExSMime.obj
 0001:0000016c       ??_C@_13OPKGLAFF@?$AAB?$AA?$AA@ 1000116c     exsmime_ALL:ExSMime.obj
 0001:00000170       ??_C@_13MKMNOPIJ@?$AAD?$AA?$AA@ 10001170     exsmime_ALL:ExSMime.obj
 0001:00000174       ??_C@_13LHMFKAAD@?$AAM?$AA?$AA@ 10001174     exsmime_ALL:ExSMime.obj
 0001:00000178       ??_C@_13HADIAKP@?$AAS?$AA?$AA@ 10001178     exsmime_ALL:ExSMime.obj
 0001:0000017c       CLSID_EncryptedVirtualStream 1000117c     exsmime_ALL:ExSMime.obj
 0001:0000018c       CLSID_VirtualStream        1000118c     exsmime_ALL:ExSMime.obj
 0001:0000019c       CLSID_SMIME                1000119c     exsmime_ALL:ExSMime.obj
 0001:000001ac       CLSID_CAPIStm              100011ac     exsmime_ALL:ExSMime.obj
 0001:000001bc       CLSID_MIMERfc2047Decoder   100011bc     exsmime_ALL:ExSMime.obj
 0001:000001cc       CLSID_MIMERfc2047Encoder   100011cc     exsmime_ALL:ExSMime.obj
 0001:000001dc       CLSID_MIMEUUDecoder        100011dc     exsmime_ALL:ExSMime.obj
 0001:000001ec       CLSID_MIMEUUEncoder        100011ec     exsmime_ALL:ExSMime.obj
 0001:000001fc       CLSID_MIMEBinHexDecoder    100011fc     exsmime_ALL:ExSMime.obj
 0001:0000020c       CLSID_MIMEBinHexEncoder    1000120c     exsmime_ALL:ExSMime.obj
 0001:0000021c       CLSID_MIMEQuotedPrintableDecoder 1000121c     exsmime_ALL:ExSMime.obj
 0001:0000022c       CLSID_MIMEQuotedPrintableEncoder 1000122c     exsmime_ALL:ExSMime.obj
 0001:0000023c       CLSID_MIMEBase64Decoder    1000123c     exsmime_ALL:ExSMime.obj
 0001:0000024c       CLSID_MIMEBase64Encoder    1000124c     exsmime_ALL:ExSMime.obj
 0001:0000025c       CLSID_MIMEMailbox          1000125c     exsmime_ALL:ExSMime.obj
 0001:0000026c       CLSID_MIMEEntity           1000126c     exsmime_ALL:ExSMime.obj
 0001:0000027c       CLSID_MIMEReader           1000127c     exsmime_ALL:ExSMime.obj
 0001:000002ac       ?rgszNeverDelete@CRegParser@ATL@@1QBQBGB 100012ac     exsmime_ALL:ExSMime.obj
 0001:000002dc       IID_IMIMEHeaderFactory     100012dc     exsmime_ALL:ExSMime.obj
 0001:000002f0       ??_C@_1FO@GBKEFGLF@?$AAM?$AAi?$AAc?$AAr?$AAo?$AAs?$AAo?$AAf?$AAt?$AA?5?$AAE?$AAn?$AAh?$AAa?$AAn?$AAc?$AAe?$AAd?$AA?5?$AAC?$AAr?$AAy?$AAp?$AAt?$AAo?$AAg?$AAr?$AAa?$AAp?$AAh?$AAi?$AAc@ 100012f0     exsmime_ALL:ExSMime.obj
 0001:00000350       ??_7?$CComObject@VCVirtualStream@@@ATL@@6B@ 10001350     exsmime_ALL:ExSMime.obj
 0001:00000390       ?_entries@?1??_GetEntries@CVirtualStream@@SAPBU_ATL_INTMAP_ENTRY@ATL@@XZ@4QBU34@B 10001390     exsmime_ALL:ExSMime.obj
 0001:000003b4       _GUID_0000000c_0000_0000_c000_000000000046 100013b4     exsmime_ALL:ExSMime.obj
 0001:000003c4       _GUID_0c733a30_2a1c_11ce_ade5_00aa0044773d 100013c4     exsmime_ALL:ExSMime.obj
 0001:000003d4       ??_7?$CComObject@VSMIME@@@ATL@@6BISMIME@@@ 100013d4     exsmime_ALL:ExSMime.obj
 0001:00000404       ??_7?$CComObject@VSMIME@@@ATL@@6BIClassFactory@@@ 10001404     exsmime_ALL:ExSMime.obj
 0001:00000418       ??_7?$CComObject@VSMIME@@@ATL@@6BIMIMENotificationHandler@@@ 10001418     exsmime_ALL:ExSMime.obj
 0001:00000438       ??_7?$CComObject@VCEncryptStream@@@ATL@@6B@ 10001438     exsmime_ALL:ExSMime.obj
 0001:00000478       ?_entries@?1??_GetEntries@CEncryptStream@@SAPBU_ATL_INTMAP_ENTRY@ATL@@XZ@4QBU34@B 10001478     exsmime_ALL:ExSMime.obj
 0001:000004a0       ?map@?1??HKeyFromString@CRegParser@ATL@@KAPAUHKEY__@@PAG@Z@4QBUkeymap@?1??123@KAPAU4@0@Z@B 100014a0     exsmime_ALL:ExSMime.obj
 0001:000004e0       ??_C@_19NCHLBIN@?$AAH?$AAK?$AAC?$AAR?$AA?$AA@ 100014e0     exsmime_ALL:ExSMime.obj
 0001:000004ec       ??_C@_19JAPAIJDE@?$AAH?$AAK?$AAC?$AAU?$AA?$AA@ 100014ec     exsmime_ALL:ExSMime.obj
 0001:000004f8       ??_C@_19PEALEEJB@?$AAH?$AAK?$AAL?$AAM?$AA?$AA@ 100014f8     exsmime_ALL:ExSMime.obj
 0001:00000504       ??_C@_17PJOJPMPB@?$AAH?$AAK?$AAU?$AA?$AA@ 10001504     exsmime_ALL:ExSMime.obj
 0001:0000050c       ??_C@_1CE@PACHPJFI@?$AAH?$AAK?$AAE?$AAY?$AA_?$AAC?$AAL?$AAA?$AAS?$AAS?$AAE?$AAS?$AA_?$AAR?$AAO?$AAO?$AAT?$AA?$AA@ 1000150c     exsmime_ALL:ExSMime.obj
 0001:00000530       ??_C@_1CE@HLHNCBPM@?$AAH?$AAK?$AAE?$AAY?$AA_?$AAC?$AAU?$AAR?$AAR?$AAE?$AAN?$AAT?$AA_?$AAU?$AAS?$AAE?$AAR?$AA?$AA@ 10001530     exsmime_ALL:ExSMime.obj
 0001:00000554       ??_C@_1CG@GFBEANJL@?$AAH?$AAK?$AAE?$AAY?$AA_?$AAL?$AAO?$AAC?$AAA?$AAL?$AA_?$AAM?$AAA?$AAC?$AAH?$AAI?$AAN?$AAE?$AA?$AA@ 10001554     exsmime_ALL:ExSMime.obj
 0001:0000057c       ??_C@_1BG@BGODANIO@?$AAH?$AAK?$AAE?$AAY?$AA_?$AAU?$AAS?$AAE?$AAR?$AAS?$AA?$AA@ 1000157c     exsmime_ALL:ExSMime.obj
 0001:00000594       ?_entries@?1??_GetEntries@SMIME@@SAPBU_ATL_INTMAP_ENTRY@ATL@@XZ@4QBU34@B 10001594     exsmime_ALL:ExSMime.obj
 0001:000005c4       _GUID_621c2a78_ecb5_4deb_8f03_06f4d385744b 100015c4     exsmime_ALL:ExSMime.obj
 0001:000005d4       _GUID_00000001_0000_0000_c000_000000000046 100015d4     exsmime_ALL:ExSMime.obj
 0001:000005e4       _GUID_567abea7_d146_4999_80ce_9a27b7cd84a0 100015e4     exsmime_ALL:ExSMime.obj
 0001:000005f4       ??_7MIMETreeNode@@6B@      100015f4     exsmime_ALL:ExSMime.obj
 0001:000005f8       ??_7MIMENodeSerialize@@6B@ 100015f8     exsmime_ALL:ExSMime.obj
 0001:00000600       ??_7CComClassFactory@ATL@@6B@ 10001600     exsmime_ALL:ExSMime.obj
 0001:00000618       ??_7CComModule@ATL@@6B@    10001618     exsmime_ALL:ExSMime.obj
 0001:00000640       _GUID_00000146_0000_0000_c000_000000000046 10001640     exsmime_ALL:ExSMime.obj
 0001:00000650       ??_C@_11LOCGONAA@?$AA?$AA@ 10001650     exsmime_ALL:ExSMime.obj
 0001:00000654       ??_C@_1M@PPPPCDEP@?$AAA?$AAP?$AAP?$AAI?$AAD?$AA?$AA@ 10001654     exsmime_ALL:ExSMime.obj
 0001:00000660       ??_7CRegObject@ATL@@6B@    10001660     exsmime_ALL:ExSMime.obj
 0001:00000678       ??_7?$CComObject@VCAPIStm@@@ATL@@6B@ 10001678     exsmime_ALL:ExSMime.obj
 0001:000006c4       ?_entries@?1??_GetEntries@CAPIStm@@SAPBU_ATL_INTMAP_ENTRY@ATL@@XZ@4QBU34@B 100016c4     exsmime_ALL:ExSMime.obj
 0001:000006f4       _GUID_8fb70260_be62_407b_8967_3bd73a981269 100016f4     exsmime_ALL:ExSMime.obj
 0001:00000704       ??_C@_1BE@LJOLIMEM@?$AA?$AN?$AA?6?$AA?7?$AA?$HN?$AA?$AN?$AA?6?$AA?$HN?$AA?$AN?$AA?6?$AA?$AA@ 10001704     exsmime_ALL:ExSMime.obj
 0001:00000718       ??_C@_1EA@NHKLICFA@?$AAH?$AAK?$AAC?$AAU?$AA?$AN?$AA?6?$AA?$HL?$AA?7?$AAS?$AAo?$AAf?$AAt?$AAw?$AAa?$AAr?$AAe?$AA?$AN?$AA?6?$AA?7?$AA?$HL?$AA?$AN?$AA?6?$AA?7?$AA?7?$AAC?$AAl?$AAa?$AAs?$AAs?$AAe?$AAs?$AA?$AA@ 10001718     exsmime_ALL:ExSMime.obj
 0001:00000758       ??_C@_1CO@FKNHKAMI@?$AAR?$AAe?$AAg?$AAi?$AAs?$AAt?$AAe?$AAr?$AAT?$AAy?$AAp?$AAe?$AAL?$AAi?$AAb?$AAF?$AAo?$AAr?$AAU?$AAs?$AAe?$AAr?$AA?$AA@ 10001758     exsmime_ALL:ExSMime.obj
 0001:00000788       ??_C@_1BK@EDKOLFBJ@?$AAO?$AAL?$AAE?$AAA?$AAU?$AAT?$AA3?$AA2?$AA?4?$AAD?$AAL?$AAL?$AA?$AA@ 10001788     exsmime_ALL:ExSMime.obj
 0001:000007a4       _GUID_00000000_0000_0000_c000_000000000046 100017a4     exsmime_ALL:ExSMime.obj
 0001:000007b4       ??_7CMIMEModule@@6B@       100017b4     exsmime_ALL:ExSMime.obj
 0001:000007dc       ??_7?$CComObjectNoLock@VCComClassFactory@ATL@@@ATL@@6B@ 100017dc     exsmime_ALL:ExSMime.obj
 0001:000007f4       ?_entries@?1??_GetEntries@CComClassFactory@ATL@@SAPBU_ATL_INTMAP_ENTRY@3@XZ@4QBU43@B 100017f4     exsmime_ALL:ExSMime.obj
 0001:0000080c       ??_7?$CComObjectNoLock@VCEncryptStreamClassFactory@@@ATL@@6B@ 1000180c     exsmime_ALL:ExSMime.obj
 0001:00000824       ?_entries@?1??_GetEntries@CEncryptStreamClassFactory@@SAPBU_ATL_INTMAP_ENTRY@ATL@@XZ@4QBU34@B 10001824     exsmime_ALL:ExSMime.obj
 0001:0000083c       ??_7?$CComObject@VCMimeReader@@@ATL@@6BIMIMEReader@@@ 1000183c     exsmime_ALL:ExSMime.obj
 0001:0000086c       ??_7?$CComObject@VCMimeReader@@@ATL@@6BIMIMEReaderOptions@@@ 1000186c     exsmime_ALL:ExSMime.obj
 0001:00000894       ??_7?$CComObject@VCMimeReader@@@ATL@@6B?$IStreamImpl@UIStream@@@@@ 10001894     exsmime_ALL:ExSMime.obj
 0001:000008d0       ?_entries@?1??_GetEntries@CMimeReader@@SAPBU_ATL_INTMAP_ENTRY@ATL@@XZ@4QBU34@B 100018d0     exsmime_ALL:ExSMime.obj
 0001:0000090c       _GUID_925a4e95_7daf_4863_90e1_76f19ba63ded 1000190c     exsmime_ALL:ExSMime.obj
 0001:0000091c       _GUID_0e31427a_007e_44f6_b7a4_51487dd6d1d5 1000191c     exsmime_ALL:ExSMime.obj
 0001:00000930       ??_7?$CComObject@VCMimeEntity@@@ATL@@6BIMIMEEntity@@@ 10001930     exsmime_ALL:ExSMime.obj
 0001:000009c8       ??_7?$CComObject@VCMimeEntity@@@ATL@@6BMIMETreeNode@@@ 100019c8     exsmime_ALL:ExSMime.obj
 0001:000009cc       ??_7?$CComObject@VCMimeEntity@@@ATL@@6BMIMENodeSerialize@@@ 100019cc     exsmime_ALL:ExSMime.obj
 0001:000009d4       ??_7?$CComObject@VCMimeEntity@@@ATL@@6B@ 100019d4     exsmime_ALL:ExSMime.obj
 0001:000009e4       ?_entries@?1??_GetEntries@CMimeEntity@@SAPBU_ATL_INTMAP_ENTRY@ATL@@XZ@4QBU34@B 100019e4     exsmime_ALL:ExSMime.obj
 0001:00000a20       _GUID_b3c11a6c_7392_446f_9e46_a30689d04a1b 10001a20     exsmime_ALL:ExSMime.obj
 0001:00000a30       _GUID_88732b1c_0f0d_49c6_89c4_3db345b69cfa 10001a30     exsmime_ALL:ExSMime.obj
 0001:00000a40       _GUID_11f20c50_7b36_4533_bf8d_fa84c0898ec8 10001a40     exsmime_ALL:ExSMime.obj
 0001:00000a50       ??_7?$CComObject@VCMailBox@@@ATL@@6BIMIMEMailBox@@@ 10001a50     exsmime_ALL:ExSMime.obj
 0001:00000ab4       ??_7?$CComObject@VCMailBox@@@ATL@@6BMIMETreeNode@@@ 10001ab4     exsmime_ALL:ExSMime.obj
 0001:00000ab8       ??_7?$CComObject@VCMailBox@@@ATL@@6BMIMENodeSerialize@@@ 10001ab8     exsmime_ALL:ExSMime.obj
 0001:00000ac0       ??_7?$CComObject@VCMailBox@@@ATL@@6B@ 10001ac0     exsmime_ALL:ExSMime.obj
 0001:00000ad4       ?_entries@?1??_GetEntries@CMailBox@@SAPBU_ATL_INTMAP_ENTRY@ATL@@XZ@4QBU34@B 10001ad4     exsmime_ALL:ExSMime.obj
 0001:00000b04       _GUID_2ecf28b3_41a7_42f5_a2dd_02e8f8e82221 10001b04     exsmime_ALL:ExSMime.obj
 0001:00000b14       _GUID_f02b8676_4125_4625_ab3c_e7ef6614283c 10001b14     exsmime_ALL:ExSMime.obj
 0001:00000b28       ??_7?$CComObject@VCBase64Encoder@@@ATL@@6BCMIMEEncoder@@@ 10001b28     exsmime_ALL:ExSMime.obj
 0001:00000b80       ??_7?$CComObject@VCBase64Encoder@@@ATL@@6BIMIMEBase64EncoderInit@@@ 10001b80     exsmime_ALL:ExSMime.obj
 0001:00000b90       ?_entries@?1??_GetEntries@CBase64Encoder@@SAPBU_ATL_INTMAP_ENTRY@ATL@@XZ@4QBU34@B 10001b90     exsmime_ALL:ExSMime.obj
 0001:00000bcc       _GUID_ca5fa291_ac45_4ddb_ac08_ece036eedc7e 10001bcc     exsmime_ALL:ExSMime.obj
 0001:00000bdc       _GUID_5ef05914_730b_4767_9505_4f5877eb3722 10001bdc     exsmime_ALL:ExSMime.obj
 0001:00000bf0       ??_7?$CComObject@VCBase64Decoder@@@ATL@@6BCMIMEEncoder@@@ 10001bf0     exsmime_ALL:ExSMime.obj
 0001:00000c48       ??_7?$CComObject@VCBase64Decoder@@@ATL@@6BIMIMEBase64DecoderInit@@@ 10001c48     exsmime_ALL:ExSMime.obj
 0001:00000c54       ?_entries@?1??_GetEntries@CBase64Decoder@@SAPBU_ATL_INTMAP_ENTRY@ATL@@XZ@4QBU34@B 10001c54     exsmime_ALL:ExSMime.obj
 0001:00000c90       _GUID_e7572586_6665_4d58_8d27_1f937009d04e 10001c90     exsmime_ALL:ExSMime.obj
 0001:00000ca0       ??_7?$CComObject@VCQPEncoder@@@ATL@@6BCMIMEEncoder@@@ 10001ca0     exsmime_ALL:ExSMime.obj
 0001:00000cf8       ??_7?$CComObject@VCQPEncoder@@@ATL@@6BIMIMEQuotedPrintableEncoderInit@@@ 10001cf8     exsmime_ALL:ExSMime.obj
 0001:00000d08       ?_entries@?1??_GetEntries@CQPEncoder@@SAPBU_ATL_INTMAP_ENTRY@ATL@@XZ@4QBU34@B 10001d08     exsmime_ALL:ExSMime.obj
 0001:00000d44       _GUID_6dbeff79_5c46_4377_bed5_99ef710c7568 10001d44     exsmime_ALL:ExSMime.obj
 0001:00000d58       ??_7?$CComObject@VCQPDecoder@@@ATL@@6BCMIMEEncoder@@@ 10001d58     exsmime_ALL:ExSMime.obj
 0001:00000db0       ??_7?$CComObject@VCQPDecoder@@@ATL@@6BIMIMEQuotedPrintableDecoderInit@@@ 10001db0     exsmime_ALL:ExSMime.obj
 0001:00000dbc       ?_entries@?1??_GetEntries@CQPDecoder@@SAPBU_ATL_INTMAP_ENTRY@ATL@@XZ@4QBU34@B 10001dbc     exsmime_ALL:ExSMime.obj
 0001:00000df8       _GUID_c6ccc4fb_e8e2_45c9_951a_4a3a75693b53 10001df8     exsmime_ALL:ExSMime.obj
 0001:00000e08       ??_7?$CComObject@VCBinHexEncoder@@@ATL@@6BCMIMEEncoder@@@ 10001e08     exsmime_ALL:ExSMime.obj
 0001:00000e60       ??_7?$CComObject@VCBinHexEncoder@@@ATL@@6BIMIMEBinHexEncoderInit@@@ 10001e60     exsmime_ALL:ExSMime.obj
 0001:00000e70       ?_entries@?1??_GetEntries@CBinHexEncoder@@SAPBU_ATL_INTMAP_ENTRY@ATL@@XZ@4QBU34@B 10001e70     exsmime_ALL:ExSMime.obj
 0001:00000eac       _GUID_ce9f97ac_1b5f_414a_92be_cb6f45568125 10001eac     exsmime_ALL:ExSMime.obj
 0001:00000ec0       ??_7?$CComObject@VCBinHexDecoder@@@ATL@@6BCMIMEEncoder@@@ 10001ec0     exsmime_ALL:ExSMime.obj
 0001:00000f18       ??_7?$CComObject@VCBinHexDecoder@@@ATL@@6BIMIMEBinHexDecoderInit@@@ 10001f18     exsmime_ALL:ExSMime.obj
 0001:00000f2c       ?_entries@?1??_GetEntries@CBinHexDecoder@@SAPBU_ATL_INTMAP_ENTRY@ATL@@XZ@4QBU34@B 10001f2c     exsmime_ALL:ExSMime.obj
 0001:00000f68       _GUID_25fc103d_1016_45a1_a2b2_de0f78fcc4cc 10001f68     exsmime_ALL:ExSMime.obj
 0001:00000f78       ??_7?$CComObject@VCUUEncoder@@@ATL@@6BCMIMEEncoder@@@ 10001f78     exsmime_ALL:ExSMime.obj
 0001:00000fd0       ??_7?$CComObject@VCUUEncoder@@@ATL@@6BIMIMEUUEncoderInit@@@ 10001fd0     exsmime_ALL:ExSMime.obj
 0001:00000fe0       ?_entries@?1??_GetEntries@CUUEncoder@@SAPBU_ATL_INTMAP_ENTRY@ATL@@XZ@4QBU34@B 10001fe0     exsmime_ALL:ExSMime.obj
 0001:0000101c       _GUID_04f96479_15c0_4a16_b35a_77b4dceeac3a 1000201c     exsmime_ALL:ExSMime.obj
 0001:00001030       ??_7?$CComObject@VCUUDecoder@@@ATL@@6BCMIMEEncoder@@@ 10002030     exsmime_ALL:ExSMime.obj
 0001:00001088       ??_7?$CComObject@VCUUDecoder@@@ATL@@6BIMIMEUUDecoderInit@@@ 10002088     exsmime_ALL:ExSMime.obj
 0001:00001098       ?_entries@?1??_GetEntries@CUUDecoder@@SAPBU_ATL_INTMAP_ENTRY@ATL@@XZ@4QBU34@B 10002098     exsmime_ALL:ExSMime.obj
 0001:000010d4       _GUID_5e889acc_3a91_4244_8748_12925ab81ae1 100020d4     exsmime_ALL:ExSMime.obj
 0001:000010e8       ??_7?$CComObject@VCRfc2047Encoder@@@ATL@@6BCMIMEEncoder@@@ 100020e8     exsmime_ALL:ExSMime.obj
 0001:00001140       ??_7?$CComObject@VCRfc2047Encoder@@@ATL@@6BIMIMERfc2047EncoderInit@@@ 10002140     exsmime_ALL:ExSMime.obj
 0001:00001160       ?_entries@?1??_GetEntries@CRfc2047Encoder@@SAPBU_ATL_INTMAP_ENTRY@ATL@@XZ@4QBU34@B 10002160     exsmime_ALL:ExSMime.obj
 0001:0000119c       _GUID_3df98945_b3c5_4d6f_87f8_d64252958484 1000219c     exsmime_ALL:ExSMime.obj
 0001:000011b0       ??_7?$CComObject@VCRfc2047Decoder@@@ATL@@6BCMIMEEncoder@@@ 100021b0     exsmime_ALL:ExSMime.obj
 0001:00001208       ??_7?$CComObject@VCRfc2047Decoder@@@ATL@@6BIMIMERfc2047DecoderInit@@@ 10002208     exsmime_ALL:ExSMime.obj
 0001:0000121c       ?_entries@?1??_GetEntries@CRfc2047Decoder@@SAPBU_ATL_INTMAP_ENTRY@ATL@@XZ@4QBU34@B 1000221c     exsmime_ALL:ExSMime.obj
 0001:00001258       _GUID_be167a02_3ab7_48ac_add0_9b4c907d483a 10002258     exsmime_ALL:ExSMime.obj
 0001:00001268       ??_7?$CComContainedObject@VCMimeEntity@@@ATL@@6BIMIMEEntity@@@ 10002268     exsmime_ALL:ExSMime.obj
 0001:000012fc       ??_7?$CComContainedObject@VCMimeEntity@@@ATL@@6BMIMETreeNode@@@ 100022fc     exsmime_ALL:ExSMime.obj
 0001:00001300       ??_7?$CComContainedObject@VCMimeEntity@@@ATL@@6BMIMENodeSerialize@@@ 10002300     exsmime_ALL:ExSMime.obj
 0001:00001308       ??_7?$CComContainedObject@VCMimeEntity@@@ATL@@6B@ 10002308     exsmime_ALL:ExSMime.obj
 0001:00001318       ??_7?$CComContainedObject@VCMailBox@@@ATL@@6BIMIMEMailBox@@@ 10002318     exsmime_ALL:ExSMime.obj
 0001:00001378       ??_7?$CComContainedObject@VCMailBox@@@ATL@@6BMIMETreeNode@@@ 10002378     exsmime_ALL:ExSMime.obj
 0001:0000137c       ??_7?$CComContainedObject@VCMailBox@@@ATL@@6BMIMENodeSerialize@@@ 1000237c     exsmime_ALL:ExSMime.obj
 0001:00001384       ??_7?$CComContainedObject@VCMailBox@@@ATL@@6B@ 10002384     exsmime_ALL:ExSMime.obj
 0001:00001398       ??_7?$CComAggObject@VCMimeEntity@@@ATL@@6B@ 10002398     exsmime_ALL:ExSMime.obj
 0001:000013a8       ??_7?$CComAggObject@VCMailBox@@@ATL@@6B@ 100023a8     exsmime_ALL:ExSMime.obj
 0001:000013b8       ??_C@_1BC@KAILKFFG@?$AAR?$AAE?$AAG?$AAI?$AAS?$AAT?$AAR?$AAY?$AA?$AA@ 100023b8     exsmime_ALL:ExSMime.obj
 0001:000013cc       ??_C@_1BG@JBACFMF@?$AAM?$AAo?$AAd?$AAu?$AAl?$AAe?$AA_?$AAR?$AAa?$AAw?$AA?$AA@ 100023cc     exsmime_ALL:ExSMime.obj
 0001:000013e4       ??_C@_1O@MNLDABAF@?$AAM?$AAo?$AAd?$AAu?$AAl?$AAe?$AA?$AA@ 100023e4     exsmime_ALL:ExSMime.obj
 0001:00001414       IID_IMIMEHeader            10002414     exsmime_ALL:stdafx.obj
 0001:00001424       IID_IMIMEEntity            10002424     exsmime_ALL:stdafx.obj
 0001:00001434       ?gc_szHdrReceived@@3QBEB   10002434     exsmime_ALL:stdafx.obj
 0001:00001440       ?gc_szHdrDate@@3QBEB       10002440     exsmime_ALL:stdafx.obj
 0001:00001448       ?gc_szHdrMimeFrom@@3QBEB   10002448     exsmime_ALL:stdafx.obj
 0001:00001450       ?gc_szHdrSubject@@3QBEB    10002450     exsmime_ALL:stdafx.obj
 0001:00001458       ?gc_szHdrSender@@3QBEB     10002458     exsmime_ALL:stdafx.obj
 0001:00001460       ?gc_szHdrMimeTo@@3QBEB     10002460     exsmime_ALL:stdafx.obj
 0001:00001464       ?gc_szHdrCc@@3QBEB         10002464     exsmime_ALL:stdafx.obj
 0001:00001468       ?gc_szHdrBcc@@3QBEB        10002468     exsmime_ALL:stdafx.obj
 0001:0000146c       ?gc_szHdrReplyTo@@3QBEB    1000246c     exsmime_ALL:stdafx.obj
 0001:00001478       ?gc_szHdrMessageID@@3QBEB  10002478     exsmime_ALL:stdafx.obj
 0001:00001484       ?gc_szHdrInReplyTo@@3QBEB  10002484     exsmime_ALL:stdafx.obj
 0001:00001490       ?gc_szHdrReferences@@3QBEB 10002490     exsmime_ALL:stdafx.obj
 0001:0000149c       ?gc_szHdrReturnPath@@3QBEB 1000249c     exsmime_ALL:stdafx.obj
 0001:000014a8       ?gc_szHdrComments@@3QBEB   100024a8     exsmime_ALL:stdafx.obj
 0001:000014b4       ?gc_szHdrKeywords@@3QBEB   100024b4     exsmime_ALL:stdafx.obj
 0001:000014c0       ?gc_szHdrEncrypted@@3QBEB  100024c0     exsmime_ALL:stdafx.obj
 0001:000014cc       ?gc_szHdrResentTo@@3QBEB   100024cc     exsmime_ALL:stdafx.obj
 0001:000014d8       ?gc_szHdrResentCc@@3QBEB   100024d8     exsmime_ALL:stdafx.obj
 0001:000014e4       ?gc_szHdrResentBcc@@3QBEB  100024e4     exsmime_ALL:stdafx.obj
 0001:000014f0       ?gc_szHdrResentSender@@3QBEB 100024f0     exsmime_ALL:stdafx.obj
 0001:00001500       ?gc_szHdrResentDate@@3QBEB 10002500     exsmime_ALL:stdafx.obj
 0001:0000150c       ?gc_szHdrResentReplyTo@@3QBEB 1000250c     exsmime_ALL:stdafx.obj
 0001:0000151c       ?gc_szHdrResentFrom@@3QBEB 1000251c     exsmime_ALL:stdafx.obj
 0001:00001528       ?gc_szHdrResentMessageID@@3QBEB 10002528     exsmime_ALL:stdafx.obj
 0001:0000153c       ?gc_szHdrMimeVersion@@3QBEB 1000253c     exsmime_ALL:stdafx.obj
 0001:0000154c       ?gc_szHdrContentType@@3QBEB 1000254c     exsmime_ALL:stdafx.obj
 0001:0000155c       ?gc_szHdrContentTransferEncoding@@3QBEB 1000255c     exsmime_ALL:stdafx.obj
 0001:00001578       ?gc_szHdrContentID@@3QBEB  10002578     exsmime_ALL:stdafx.obj
 0001:00001584       ?gc_szHdrContentDescription@@3QBEB 10002584     exsmime_ALL:stdafx.obj
 0001:00001598       ?gc_szHdrContentDisposition@@3QBEB 10002598     exsmime_ALL:stdafx.obj
 0001:000015ac       ?gc_szHdrContentMD5@@3QBEB 100025ac     exsmime_ALL:stdafx.obj
 0001:000015b8       ?gc_szHdrContentLanguage@@3QBEB 100025b8     exsmime_ALL:stdafx.obj
 0001:000015cc       ?gc_szHdrContentLocation@@3QBEB 100025cc     exsmime_ALL:stdafx.obj
 0001:000015e0       ?gc_szHdrContentBase@@3QBEB 100025e0     exsmime_ALL:stdafx.obj
 0001:000015f0       ?gc_szHdrXContentIdentifier@@3QBEB 100025f0     exsmime_ALL:stdafx.obj
 0001:00001608       ?gc_szHdrXMailer@@3QBEB    10002608     exsmime_ALL:stdafx.obj
 0001:00001614       ?gc_szHdrXNewsreader@@3QBEB 10002614     exsmime_ALL:stdafx.obj
 0001:00001624       ?gc_szHdrXCSIAttachment@@3QBEB 10002624     exsmime_ALL:stdafx.obj
 0001:00001638       ?gc_szHdrXMSAttachment@@3QBEB 10002638     exsmime_ALL:stdafx.obj
 0001:00001648       ?gc_szHdrXMSMailPriority@@3QBEB 10002648     exsmime_ALL:stdafx.obj
 0001:0000165c       ?gc_szHdrXMessageFlag@@3QBEB 1000265c     exsmime_ALL:stdafx.obj
 0001:0000166c       ?gc_szHdrXPriority@@3QBEB  1000266c     exsmime_ALL:stdafx.obj
 0001:00001678       ?gc_szHdrXMSHasAttach@@3QBEB 10002678     exsmime_ALL:stdafx.obj
 0001:00001688       ?gc_szHdrXMSTNEFCorrelator@@3QBEB 10002688     exsmime_ALL:stdafx.obj
 0001:000016a0       ?gc_szHdrXListHelp@@3QBEB  100026a0     exsmime_ALL:stdafx.obj
 0001:000016ac       ?gc_szHdrXListSubscribe@@3QBEB 100026ac     exsmime_ALL:stdafx.obj
 0001:000016c0       ?gc_szHdrXListUnsubscribe@@3QBEB 100026c0     exsmime_ALL:stdafx.obj
 0001:000016d4       ?gc_szHdrXMSUrlCompName@@3QBEB 100026d4     exsmime_ALL:stdafx.obj
 0001:000016e8       ?gc_szHdrXMessageCompleted@@3QBEB 100026e8     exsmime_ALL:stdafx.obj
 0001:000016fc       ?gc_szHdrXMSEmbeddedReport@@3QBEB 100026fc     exsmime_ALL:stdafx.obj
 0001:00001714       ?gc_szHdrXMcubed@@3QBEB    10002714     exsmime_ALL:stdafx.obj
 0001:00001720       ?gc_szHdrContentClass@@3QBEB 10002720     exsmime_ALL:stdafx.obj
 0001:00001730       ?gc_szHdrXref@@3QBEB       10002730     exsmime_ALL:stdafx.obj
 0001:00001738       ?gc_szHdrAdHoc@@3QBEB      10002738     exsmime_ALL:stdafx.obj
 0001:00001740       ?gc_szHdrListHelp@@3QBEB   10002740     exsmime_ALL:stdafx.obj
 0001:0000174c       ?gc_szHdrListSubscribe@@3QBEB 1000274c     exsmime_ALL:stdafx.obj
 0001:0000175c       ?gc_szHdrListUnsubscribe@@3QBEB 1000275c     exsmime_ALL:stdafx.obj
 0001:00001770       ?gc_szHdrThreadTopic@@3QBEB 10002770     exsmime_ALL:stdafx.obj
 0001:00001780       ?gc_szHdrThreadIndex@@3QBEB 10002780     exsmime_ALL:stdafx.obj
 0001:00001790       ?gc_szHdrApparentlyTo@@3QBEB 10002790     exsmime_ALL:stdafx.obj
 0001:000017a0       ?gc_szHdrApproved@@3QBEB   100027a0     exsmime_ALL:stdafx.obj
 0001:000017ac       ?gc_szHdrControl@@3QBEB    100027ac     exsmime_ALL:stdafx.obj
 0001:000017b4       ?gc_szHdrDeferredDelivery@@3QBEB 100027b4     exsmime_ALL:stdafx.obj
 0001:000017c8       ?gc_szHdrDistribution@@3QBEB 100027c8     exsmime_ALL:stdafx.obj
 0001:000017d8       ?gc_szHdrEncoding@@3QBEB   100027d8     exsmime_ALL:stdafx.obj
 0001:000017e4       ?gc_szHdrExpires@@3QBEB    100027e4     exsmime_ALL:stdafx.obj
 0001:000017ec       ?gc_szHdrExpiryDate@@3QBEB 100027ec     exsmime_ALL:stdafx.obj
 0001:000017f8       ?gc_szHdrFollowupTo@@3QBEB 100027f8     exsmime_ALL:stdafx.obj
 0001:00001804       ?gc_szHdrLines@@3QBEB      10002804     exsmime_ALL:stdafx.obj
 0001:0000180c       ?gc_szHdrBytes@@3QBEB      1000280c     exsmime_ALL:stdafx.obj
 0001:00001814       ?gc_szHdrArticle@@3QBEB    10002814     exsmime_ALL:stdafx.obj
 0001:0000181c       ?gc_szHdrImportance@@3QBEB 1000281c     exsmime_ALL:stdafx.obj
 0001:00001828       ?gc_szHdrSupersedes@@3QBEB 10002828     exsmime_ALL:stdafx.obj
 0001:00001834       ?gc_szHdrNewsgroups@@3QBEB 10002834     exsmime_ALL:stdafx.obj
 0001:00001840       ?gc_szHdrNNTPPostingHost@@3QBEB 10002840     exsmime_ALL:stdafx.obj
 0001:00001854       ?gc_szHdrOrganization@@3QBEB 10002854     exsmime_ALL:stdafx.obj
 0001:00001864       ?gc_szHdrPath@@3QBEB       10002864     exsmime_ALL:stdafx.obj
 0001:0000186c       ?gc_szHdrPrecedence@@3QBEB 1000286c     exsmime_ALL:stdafx.obj
 0001:00001878       ?gc_szHdrPriority@@3QBEB   10002878     exsmime_ALL:stdafx.obj
 0001:00001884       ?gc_szHdrReplyBy@@3QBEB    10002884     exsmime_ALL:stdafx.obj
 0001:00001890       ?gc_szHdrReturnReceiptTo@@3QBEB 10002890     exsmime_ALL:stdafx.obj
 0001:000018a4       ?gc_szHdrDispositionNotificationTo@@3QBEB 100028a4     exsmime_ALL:stdafx.obj
 0001:000018c0       ?gc_szHdrRr@@3QBEB         100028c0     exsmime_ALL:stdafx.obj
 0001:000018c4       ?gc_szHdrSensitivity@@3QBEB 100028c4     exsmime_ALL:stdafx.obj
 0001:000018d0       ?gc_szHdrSummary@@3QBEB    100028d0     exsmime_ALL:stdafx.obj
 0001:000018d8       ?gc_szMultiPartMimePrefix@@3QBEB 100028d8     exsmime_ALL:stdafx.obj
 0001:000018e4       ?gc_szMultipartMixed@@3QBEB 100028e4     exsmime_ALL:stdafx.obj
 0001:000018f4       ?gc_szMultipartSigned@@3QBEB 100028f4     exsmime_ALL:stdafx.obj
 0001:00001908       ?gc_szMultipartDigest@@3QBEB 10002908     exsmime_ALL:stdafx.obj
 0001:0000191c       ?gc_szTextPlain@@3QBEB     1000291c     exsmime_ALL:stdafx.obj
 0001:00001928       ?gc_szMessageRfc822@@3QBEB 10002928     exsmime_ALL:stdafx.obj
 0001:00001938       ?gc_szApplicationPkcs7@@3QBEB 10002938     exsmime_ALL:stdafx.obj
 0001:00001950       ?gc_szApplicationXPkcs7@@3QBEB 10002950     exsmime_ALL:stdafx.obj
 0001:0000196c       ?gc_szApplicationPkcs7Sig@@3QBEB 1000296c     exsmime_ALL:stdafx.obj
 0001:00001988       ?gc_szApplicationXPkcs7Sig@@3QBEB 10002988     exsmime_ALL:stdafx.obj
 0001:000019a8       ?gc_szApplicationPgpSig@@3QBEB 100029a8     exsmime_ALL:stdafx.obj
 0001:000019c4       ?gc_szApplicationOctetStream@@3QBEB 100029c4     exsmime_ALL:stdafx.obj
 0001:000019e0       ?gc_szBase64@@3QBEB        100029e0     exsmime_ALL:stdafx.obj
 0001:000019e8       ?gc_szQuotedPrintable@@3QBEB 100029e8     exsmime_ALL:stdafx.obj
 0001:000019fc       ?gc_szXUuencode@@3QBEB     100029fc     exsmime_ALL:stdafx.obj
 0001:00001a08       ?gc_szUue@@3QBEB           10002a08     exsmime_ALL:stdafx.obj
 0001:00001a10       ?gc_szUuencode@@3QBEB      10002a10     exsmime_ALL:stdafx.obj
 0001:00001a1c       ?gc_szXxencode@@3QBEB      10002a1c     exsmime_ALL:stdafx.obj
 0001:00001a28       ?gc_szMacBinary@@3QBEB     10002a28     exsmime_ALL:stdafx.obj
 0001:00001a38       ?gc_szBinary@@3QBEB        10002a38     exsmime_ALL:stdafx.obj
 0001:00001a40       ?gc_sz8Bit@@3QBEB          10002a40     exsmime_ALL:stdafx.obj
 0001:00001a48       ?gc_sz7Bit@@3QBEB          10002a48     exsmime_ALL:stdafx.obj
 0001:00001a50       ?gc_szVersion1@@3QBEB      10002a50     exsmime_ALL:stdafx.obj
 0001:00001a54       ?gc_szAttachment@@3QBEB    10002a54     exsmime_ALL:stdafx.obj
 0001:00001a60       ?gc_szSmimeType@@3QBEB     10002a60     exsmime_ALL:stdafx.obj
 0001:00001a6c       ?gc_szBoundary@@3QBEB      10002a6c     exsmime_ALL:stdafx.obj
 0001:00001a78       ?gc_szBy@@3QBEB            10002a78     exsmime_ALL:stdafx.obj
 0001:00001a7c       ?gc_szVia@@3QBEB           10002a7c     exsmime_ALL:stdafx.obj
 0001:00001a80       ?gc_szWith@@3QBEB          10002a80     exsmime_ALL:stdafx.obj
 0001:00001a88       ?gc_szId@@3QBEB            10002a88     exsmime_ALL:stdafx.obj
 0001:00001a8c       ?gc_szFor@@3QBEB           10002a8c     exsmime_ALL:stdafx.obj
 0001:00001a90       ?gc_szFrom@@3QBEB          10002a90     exsmime_ALL:stdafx.obj
 0001:00001a98       ?gc_szSignedData@@3QBEB    10002a98     exsmime_ALL:stdafx.obj
 0001:00001aa4       ?gc_szSignedReceipt@@3QBEB 10002aa4     exsmime_ALL:stdafx.obj
 0001:00001ab4       ?gc_szMimeVersion@@3QBEB   10002ab4     exsmime_ALL:stdafx.obj
 0001:00001ac8       ?g_szMicAlgSha1@@3QBDB     10002ac8     exsmime_ALL:stdafx.obj
 0001:00001ad0       ?g_szMicAlgMd5@@3QBDB      10002ad0     exsmime_ALL:stdafx.obj
 0001:00001ad4       ?g_szMicAlgSha256@@3QBDB   10002ad4     exsmime_ALL:stdafx.obj
 0001:00001adc       ?g_szMicAlgSha384@@3QBDB   10002adc     exsmime_ALL:stdafx.obj
 0001:00001ae4       ?g_szMicAlgSha512@@3QBDB   10002ae4     exsmime_ALL:stdafx.obj
 0001:00001aec       ?g_szMimeVersion@@3QBDB    10002aec     exsmime_ALL:stdafx.obj
 0001:00001b00       ?g_szCTopaqueSigned1@@3QBDB 10002b00     exsmime_ALL:stdafx.obj
 0001:00001b54       ?g_szCTopaqueSigned2@@3QBDB 10002b54     exsmime_ALL:stdafx.obj
 0001:00001b68       ?g_szCTblobSigned@@3QBDB   10002b68     exsmime_ALL:stdafx.obj
 0001:00001bc0       ?g_szCTsmimeReceipt@@3QBDB 10002bc0     exsmime_ALL:stdafx.obj
 0001:00001c18       ?g_szCTencrypted@@3QBDB    10002c18     exsmime_ALL:stdafx.obj
 0001:00001c70       ?g_szCTEbase64@@3QBDB      10002c70     exsmime_ALL:stdafx.obj
 0001:00001c98       ?g_szSignatureHeaders@@3QBDB 10002c98     exsmime_ALL:stdafx.obj
 0001:00001d00       ?gc_szOIDContentType@@3QBDB 10002d00     exsmime_ALL:stdafx.obj
 0001:00001d08       IID_IRefLine               10002d08     exsmime_ALL:stdafx.obj
 0001:00001d18       ?s_cbBlockSize@CEncryptStream@@1KB 10002d18     exsmime_ALL:stream.obj
 0001:00001d1c       ?s_cbBlockLen@CEncryptStream@@1KB 10002d1c     exsmime_ALL:stream.obj
 0001:00001d20       ?s_cbBuffer@CEncryptStream@@1KB 10002d20     exsmime_ALL:stream.obj
 0001:00001d44       ??_C@_02PCIJFNDE@?$AN?6?$AA@ 10002d44     exsmime_ALL:stream.obj
 0001:00001d48       ??_7?$CComObject@VCLineArray@CMemoryStream@@@ATL@@6B@ 10002d48     exsmime_ALL:stream.obj
 0001:00001d5c       ?_entries@?1??_GetEntries@CLineArray@CMemoryStream@@SAPBU_ATL_INTMAP_ENTRY@ATL@@XZ@4QBU45@B 10002d5c     exsmime_ALL:stream.obj
 0001:00001d68       ??_7?$CComObject@VCChildStream@CVirtualStream@@@ATL@@6B@ 10002d68     exsmime_ALL:stream.obj
 0001:00001da8       ?_entries@?1??_GetEntries@CChildStream@CVirtualStream@@SAPBU_ATL_INTMAP_ENTRY@ATL@@XZ@4QBU45@B 10002da8     exsmime_ALL:stream.obj
 0001:00001dd0       ??_7?$CComObject@VCFileStream@@@ATL@@6B@ 10002dd0     exsmime_ALL:stream.obj
 0001:00001e10       ?_entries@?1??_GetEntries@CFileStream@@SAPBU_ATL_INTMAP_ENTRY@ATL@@XZ@4QBU34@B 10002e10     exsmime_ALL:stream.obj
 0001:00001e38       ??_7?$CComObject@VCPartialStream@@@ATL@@6B@ 10002e38     exsmime_ALL:stream.obj
 0001:00001e78       ?_entries@?1??_GetEntries@CPartialStream@@SAPBU_ATL_INTMAP_ENTRY@ATL@@XZ@4QBU34@B 10002e78     exsmime_ALL:stream.obj
 0001:00001ea0       ??_7?$CComObject@VCLFPartialStream@@@ATL@@6B@ 10002ea0     exsmime_ALL:stream.obj
 0001:00001ee0       ??_7?$CComObject@VCMemoryStream@@@ATL@@6B@ 10002ee0     exsmime_ALL:stream.obj
 0001:00001f24       ?_entries@?1??_GetEntries@CMemoryStream@@SAPBU_ATL_INTMAP_ENTRY@ATL@@XZ@4QBU34@B 10002f24     exsmime_ALL:stream.obj
 0001:00001f48       ??_7?$CComObject@VCNullStream@@@ATL@@6B@ 10002f48     exsmime_ALL:stream.obj
 0001:00001f88       ?_entries@?1??_GetEntries@CNullStream@@SAPBU_ATL_INTMAP_ENTRY@ATL@@XZ@4QBU34@B 10002f88     exsmime_ALL:stream.obj
 0001:00001fac       ??_C@_19FOOPHDOC@?$AAM?$AAI?$AAM?$AAE?$AA?$AA@ 10002fac     exsmime_ALL:stream.obj
 0001:00001fd8       ??_C@_02BAABKJLB@?9?9?$AA@ 10002fd8     exsmime_ALL:smime.obj
 0001:00001fdc       ??_C@_04LOEPKDGL@?$AN?6?9?9?$AA@ 10002fdc     exsmime_ALL:smime.obj
 0001:00001fe4       ??_7?$CComContainedObject@VCSecureAttributes@@@ATL@@6B@ 10002fe4     exsmime_ALL:smime.obj
 0001:0000200c       _GUID_6dd0485b_2c87_4585_a3dd_fc572e8cb26e 1000300c     exsmime_ALL:smime.obj
 0001:0000201c       _GUID_7031c46d_1e58_4180_ac3c_bcd10ccdeb56 1000301c     exsmime_ALL:smime.obj
 0001:00002030       ??_7?$CComObject@VCTeeStream@@@ATL@@6B@ 10003030     exsmime_ALL:smime.obj
 0001:00002070       ?_entries@?1??_GetEntries@CTeeStream@@SAPBU_ATL_INTMAP_ENTRY@ATL@@XZ@4QBU34@B 10003070     exsmime_ALL:smime.obj
 0001:00002094       ??_C@_07GGFAKMJC@?$CC?$AN?6?$AN?6?9?9?$AA@ 10003094     exsmime_ALL:smime.obj
 0001:0000209c       ??_7?$CComPolyObject@VCSecureAttributes@@@ATL@@6B@ 1000309c     exsmime_ALL:smime.obj
 0001:000020ac       ?_entries@?1??_GetEntries@CSecureAttributes@@SAPBU_ATL_INTMAP_ENTRY@ATL@@XZ@4QBU34@B 100030ac     exsmime_ALL:smime.obj
 0001:000020c4       _GUID_9aff8739_a5a8_4811_958f_1233b993dbfa 100030c4     exsmime_ALL:smime.obj
 0001:000020d4       ??_C@_1CK@NPPNFPFD@?$AAc?$AAo?$AAp?$AAy?$AAR?$AAe?$AAc?$AAi?$AAp?$AAi?$AAe?$AAn?$AAt?$AAH?$AAe?$AAa?$AAd?$AAe?$AAr?$AAs?$AA?$AA@ 100030d4     exsmime_ALL:smime.obj
 0001:00002100       _GUID_45465eb8_f1f7_40fd_b141_04b82f4a33e0 10003100     exsmime_ALL:smime.obj
 0001:00002110       _GUID_e88daa41_0ee3_481f_ae76_ed5675f1474f 10003110     exsmime_ALL:smime.obj
 0001:00002160       ??_7?$CComObject@VCStreamShim@@@ATL@@6B@ 10003160     exsmime_ALL:smime.obj
 0001:000021a0       ?_entries@?1??_GetEntries@CStreamShim@@SAPBU_ATL_INTMAP_ENTRY@ATL@@XZ@4QBU34@B 100031a0     exsmime_ALL:smime.obj
 0001:000021c4       ??_C@_1BE@NFKNGDMM@?$AAc?$AAa?$AAc?$AAh?$AAe?$AAm?$AAo?$AAd?$AAe?$AA?$AA@ 100031c4     exsmime_ALL:smime.obj
 0001:000021d8       ??_C@_1BC@DHEAHIAG@?$AAr?$AAe?$AAd?$AAi?$AAr?$AAe?$AAc?$AAt?$AA?$AA@ 100031d8     exsmime_ALL:smime.obj
 0001:0000220c       ??_C@_03CBEGHNOI@?$AN?6?$AA?$AA@ 1000320c     exsmime_ALL:Entity.obj
 0001:00002210       _GUID_84f8551b_83c6_47fd_8bb1_41b7e12b9df9 10003210     exsmime_ALL:Entity.obj
 0001:00002220       ??_7?$CComContainedObject@VCMIMEHeaderFactory@@@ATL@@6B@ 10003220     exsmime_ALL:Entity.obj
 0001:00002238       ??_7?$CComObject@VCInternetRequest@CMimeEntity@@@ATL@@6BIHttpNegotiate@@@ 10003238     exsmime_ALL:Entity.obj
 0001:00002250       ??_7?$CComObject@VCInternetRequest@CMimeEntity@@@ATL@@6BIInternetProtocolSink@@@ 10003250     exsmime_ALL:Entity.obj
 0001:0000226c       ??_7?$CComObject@VCInternetRequest@CMimeEntity@@@ATL@@6BIInternetBindInfo@@@ 1000326c     exsmime_ALL:Entity.obj
 0001:00002280       ??_7?$CComObject@VCInternetRequest@CMimeEntity@@@ATL@@6BIServiceProvider@@@ 10003280     exsmime_ALL:Entity.obj
 0001:00002290       ?_entries@?1??_GetEntries@CInternetRequest@CMimeEntity@@SAPBU_ATL_INTMAP_ENTRY@ATL@@XZ@4QBU45@B 10003290     exsmime_ALL:Entity.obj
 0001:000022cc       _GUID_79eac9d2_baf9_11ce_8c82_00aa004ba90b 100032cc     exsmime_ALL:Entity.obj
 0001:000022dc       _GUID_79eac9e1_baf9_11ce_8c82_00aa004ba90b 100032dc     exsmime_ALL:Entity.obj
 0001:000022ec       _GUID_79eac9e5_baf9_11ce_8c82_00aa004ba90b 100032ec     exsmime_ALL:Entity.obj
 0001:000022fc       _GUID_6d5140c1_7436_11ce_8034_00aa006009fa 100032fc     exsmime_ALL:Entity.obj
 0001:0000230c       ??_C@_1BE@ELJPCDGG@?$AAl?$AAf?$AA?9?$AAs?$AAo?$AAu?$AAr?$AAc?$AAe?$AA?$AA@ 1000330c     exsmime_ALL:Entity.obj
 0001:00002320       ??_7?$CComPolyObject@VCMIMEHeaderFactory@@@ATL@@6B@ 10003320     exsmime_ALL:Entity.obj
 0001:00002330       ?_entries@?1??_GetEntries@CMIMEHeaderFactory@@SAPBU_ATL_INTMAP_ENTRY@ATL@@XZ@4QBU34@B 10003330     exsmime_ALL:Entity.obj
 0001:00002348       ??_7?$CComObject@VCEncryptStreamClassFactory@@@ATL@@6B@ 10003348     exsmime_ALL:Entity.obj
 0001:00002360       ??_C@_04KAODOPGN@?9?9?$AN?6?$AA@ 10003360     exsmime_ALL:Entity.obj
 0001:00002368       ??_C@_1CC@OKHIOICI@?$AAe?$AAn?$AAc?$AAr?$AAy?$AAp?$AAt?$AAu?$AAr?$AAl?$AAs?$AAt?$AAr?$AAe?$AAa?$AAm?$AA?$AA@ 10003368     exsmime_ALL:Entity.obj
 0001:0000238c       ??_C@_1BI@PAMKBBDK@?$AAh?$AAr?$AAe?$AAf?$AAh?$AAe?$AAa?$AAd?$AAe?$AAr?$AAs?$AA?$AA@ 1000338c     exsmime_ALL:Entity.obj
 0001:000023a4       ??_C@_1CE@IFAPAOOL@?$AAa?$AAp?$AAa?$AAr?$AAt?$AAm?$AAe?$AAn?$AAt?$AAt?$AAh?$AAr?$AAe?$AAa?$AAd?$AAe?$AAd?$AA?$AA@ 100033a4     exsmime_ALL:Entity.obj
 0001:000023c8       ??_C@_0L@NAJBKPFC@binhex?4dat?$AA@ 100033c8     exsmime_ALL:Entity.obj
 0001:000023d4       ??_C@_1CI@EBIFOGPN@?$AAb?$AAi?$AAn?$AAh?$AAe?$AAx?$AA?4?$AAd?$AAa?$AAt?$AAa?$AAf?$AAo?$AAr?$AAk?$AAo?$AAn?$AAl?$AAy?$AA?$AA@ 100033d4     exsmime_ALL:Entity.obj
 0001:000023fc       ?c_ulMaskAny@CMailBox@@2KB 100033fc     exsmime_ALL:MailBox.obj
 0001:00002400       ?c_ulMaskRawOnly@CMailBox@@2KB 10003400     exsmime_ALL:MailBox.obj
 0001:00002424       ??_C@_01PPODPGHN@?$DO?$AA@ 10003424     exsmime_ALL:MailBox.obj
 0001:00002428       ??_C@_01MNNFJEPP@?$DM?$AA@ 10003428     exsmime_ALL:MailBox.obj
 0001:0000242c       ??_C@_01CLKCMJKC@?5?$AA@   1000342c     exsmime_ALL:MailBox.obj
 0001:00002430       ??_C@_03PAIEMGKB@?$AN?6?7?$AA@ 10003430     exsmime_ALL:MailBox.obj
 0001:00002434       _GUID_1ca8d717_a594_42f2_9871_0e0d1a61ab5b 10003434     exsmime_ALL:MailBox.obj
 0001:00002448       ??_7?$CComObject@VCPublicKeys@@@ATL@@6BIPublicKeys@@@ 10003448     exsmime_ALL:MailBox.obj
 0001:0000248c       ??_7?$CComObject@VCPublicKeys@@@ATL@@6BIPublicKeysMarshal@@@ 1000348c     exsmime_ALL:MailBox.obj
 0001:000024a4       ?_entries@?1??_GetEntries@CPublicKeys@@SAPBU_ATL_INTMAP_ENTRY@ATL@@XZ@4QBU34@B 100034a4     exsmime_ALL:MailBox.obj
 0001:000024c8       _GUID_54e2c6bc_19a8_4019_b4f3_3219577c1175 100034c8     exsmime_ALL:MailBox.obj
 0001:000024d8       _GUID_54fa5c73_4c4c_4326_8eac_0232bcb590f6 100034d8     exsmime_ALL:MailBox.obj
 0001:000024e8       ?c_ulMaskAny@CFragSubstr@@2KB 100034e8     exsmime_ALL:FragSubstr.obj
 0001:000024f0       ?c_enc_cbBufSize@CMIMEEncoder@@1HB 100034f0     exsmime_ALL:MimeEncEx.obj
 0001:000024f4       ?c_cbMaxLine@CQPEncoder@@0IB 100034f4     exsmime_ALL:MimeEncEx.obj
 0001:000024f8       ?s_rgbCharClasses@CMIMEEncoder@@1QBEB 100034f8     exsmime_ALL:MimeEncEx.obj
 0001:00002578       ?s_rgchHex@CQPEncoder@@2QBDB 10003578     exsmime_ALL:MimeEncEx.obj
 0001:0000258c       ?c_ulForceSplit@CQPEncoder@@0KB 1000358c     exsmime_ALL:MimeEncEx.obj
 0001:00002590       ?c_ulLastWhite@CQPEncoder@@0KB 10003590     exsmime_ALL:MimeEncEx.obj
 0001:00002594       ?c_ulLastCR@CQPEncoder@@0KB 10003594     exsmime_ALL:MimeEncEx.obj
 0001:00002598       ?c_ulLastWhiteCR@CQPEncoder@@0KB 10003598     exsmime_ALL:MimeEncEx.obj
 0001:0000259c       ?c_3_cbInChunkSize@CBase64Encoder@@0HB 1000359c     exsmime_ALL:MimeEncEx.obj
 0001:000025a0       ?c_4_cbOutChunkSize@CBase64Encoder@@0HB 100035a0     exsmime_ALL:MimeEncEx.obj
 0001:000025a4       ?c_4_cbInChunkSize@CBase64Decoder@@0HB 100035a4     exsmime_ALL:MimeEncEx.obj
 0001:000025a8       ?s_rgchEncodeBase64@CBase64Encoder@@2QBDB 100035a8     exsmime_ALL:MimeEncEx.obj
 0001:000025ec       ?c_3_cbOutChunkSize@CBase64Decoder@@0HB 100035ec     exsmime_ALL:MimeEncEx.obj
 0001:000025f0       ?s_rgchDecodeBase64@CBase64Decoder@@2QBDB 100035f0     exsmime_ALL:MimeEncEx.obj
 0001:00002650       ?s_wZero@CBinHexCommon@@1GB 10003650     exsmime_ALL:MimeEncEx.obj
 0001:00002658       ?s_rgbBinHex8to6@CBinHexEncoder@@0QBDB 10003658     exsmime_ALL:MimeEncEx.obj
 0001:0000269c       ?s_szBinhexPrefix@CBinHexEncoder@@0QBDB 1000369c     exsmime_ALL:MimeEncEx.obj
 0001:000026d0       ?s_szBinhexSuffix@CBinHexEncoder@@0QBDB 100036d0     exsmime_ALL:MimeEncEx.obj
 0001:000026d4       ?s_szBinHexStart@CBinHexDecoder@@0QBDB 100036d4     exsmime_ALL:MimeEncEx.obj
 0001:00002700       ?s_rgbDecodeBinHex@CBinHexDecoder@@0QBEB 10003700     exsmime_ALL:MimeEncEx.obj
 0001:00002758       ?s_cbBinHexStart@CBinHexDecoder@@0KB 10003758     exsmime_ALL:MimeEncEx.obj
 0001:0000275c       ?c_cbMaxLine@CUUEncoder@@0HB 1000375c     exsmime_ALL:MimeEncEx.obj
 0001:00002760       ?c_3_cbInChunkSize@CUUEncoder@@0HB 10003760     exsmime_ALL:MimeEncEx.obj
 0001:00002764       ?c_4_cbOutChunkSize@CUUEncoder@@0HB 10003764     exsmime_ALL:MimeEncEx.obj
 0001:00002768       ?c_4_cbInChunkSize@CUUDecoder@@0HB 10003768     exsmime_ALL:MimeEncEx.obj
 0001:0000276c       ?c_3_cbOutChunkSize@CUUDecoder@@0HB 1000376c     exsmime_ALL:MimeEncEx.obj
 0001:00002770       ?c_cbMaxInputLineSize@CUUDecoder@@0HB 10003770     exsmime_ALL:MimeEncEx.obj
 0001:00002798       ??_C@_05HGHFBCBE@end?$AN?6?$AA@ 10003798     exsmime_ALL:MimeEncEx.obj
 0001:000027a0       ??_C@_0L@OPCILPBI@begin?5600?5?$AA@ 100037a0     exsmime_ALL:MimeEncEx.obj
 0001:000027ac       ??_C@_02KNHHEEKP@?5?5?$AA@ 100037ac     exsmime_ALL:MimeEncEx.obj
 0001:000027b0       ??_C@_03JMGAKCCH@END?$AA@  100037b0     exsmime_ALL:MimeEncEx.obj
 0001:000027b4       ??_C@_06NNNMIII@BEGIN?5?$AA@ 100037b4     exsmime_ALL:MimeEncEx.obj
 0001:000027bc       ??_C@_0N@BNFHGPLF@uuencode?4bin?$AA@ 100037bc     exsmime_ALL:MimeEncEx.obj
 0001:000027cc       ?c_nWriteBuff@CMimeReader@@1IB 100037cc     exsmime_ALL:MimeReader.obj
 0001:000027d0       ?c_nMaxChars@CMimeReader@@1IB 100037d0     exsmime_ALL:MimeReader.obj
 0001:000027d4       ?c_nMaxToSniff@CMimeReader@@1IB 100037d4     exsmime_ALL:MimeReader.obj
 0001:000027f8       ??_C@_06JMHCDCPI@begin?5?$AA@ 100037f8     exsmime_ALL:MimeReader.obj
 0001:00002800       _GUID_83121821_3ea9_4d0d_8c9f_77f5a7b1caac 10003800     exsmime_ALL:MimeReader.obj
 0001:00002810       ??_C@_1BK@KAPHCKLB@?$AAC?$AAo?$AAn?$AAt?$AAe?$AAn?$AAt?$AA?5?$AAT?$AAy?$AAp?$AAe?$AA?$AA@ 10003810     exsmime_ALL:MimeReader.obj
 0001:0000282c       ??_C@_0L@NPNLKGOJ@text?1plain?$AA@ 1000382c     exsmime_ALL:MimeReader.obj
 0001:00002838       ??_C@_07PHJGEIEN@?1signed?$AA@ 10003838     exsmime_ALL:MimeReader.obj
 0001:00002840       ??_C@_09FEKOPBOI@multipart?$AA@ 10003840     exsmime_ALL:MimeReader.obj
 0001:0000284c       ??_C@_05DMHLJCFG@end?6?$AN?$AA@ 1000384c     exsmime_ALL:MimeReader.obj
 0001:00002854       ??_C@_03JBJLGPFL@end?$AA@  10003854     exsmime_ALL:MimeReader.obj
 0001:000028c8       ??_C@_0BF@PPMKENNE@1?42?4840?4113549?41?47?41?$AA@ 100038c8     exsmime_ALL:capistm.obj
 0001:000028e0       ??_C@_0BK@MCBOOKEG@1?42?4840?4113549?41?49?416?41?41?$AA@ 100038e0     exsmime_ALL:capistm.obj
 0001:000028fc       ??_C@_0BK@NAKLEFKI@1?42?4840?4113549?41?49?416?42?41?$AA@ 100038fc     exsmime_ALL:capistm.obj
 0001:00002918       ??_C@_0BK@PLIGBGGL@1?42?4840?4113549?41?49?416?42?42?$AA@ 10003918     exsmime_ALL:capistm.obj
 0001:00002934       ??_C@_0BC@NPHIPKH@1?43?46?41?45?45?47?43?44?$AA@ 10003934     exsmime_ALL:capistm.obj
 0001:00002948       ??_C@_0BI@DDHPFOGJ@2?416?4840?41?4101?43?44?41?442?$AA@ 10003948     exsmime_ALL:capistm.obj
 0001:00002960       ??_C@_0BI@DHPCCCNL@2?416?4840?41?4101?43?44?41?422?$AA@ 10003960     exsmime_ALL:capistm.obj
 0001:00002978       ??_C@_0BH@OCMOHKGL@2?416?4840?41?4101?43?44?41?42?$AA@ 10003978     exsmime_ALL:capistm.obj
 0001:00002990       ??_C@_0BH@OJGAOEME@2?416?4840?41?4101?43?44?42?43?$AA@ 10003990     exsmime_ALL:capistm.obj
 0001:000029a8       ??_C@_0BH@PAHLNFIF@2?416?4840?41?4101?43?44?42?42?$AA@ 100039a8     exsmime_ALL:capistm.obj
 0001:000029c0       ??_C@_0BH@NLFGIGEG@2?416?4840?41?4101?43?44?42?41?$AA@ 100039c0     exsmime_ALL:capistm.obj
 0001:000029d8       ??_C@_0BD@GBMKKHCK@1?42?4840?4113549?42?45?$AA@ 100039d8     exsmime_ALL:capistm.obj
 0001:000029ec       ??_C@_0O@GPJKGEMP@1?43?414?43?42?426?$AA@ 100039ec     exsmime_ALL:capistm.obj
 0001:000029fc       ??_C@_0BD@OLEAKCMN@1?42?4840?4113549?43?47?$AA@ 100039fc     exsmime_ALL:capistm.obj
 0001:00002a10       ??_C@_0N@JINOEPAK@1?43?414?43?42?47?$AA@ 10003a10     exsmime_ALL:capistm.obj
 0001:00002a20       ??_C@_0BD@JGDHFGII@1?42?4840?4113549?43?42?$AA@ 10003a20     exsmime_ALL:capistm.obj
 0001:00002a34       ??_C@_0BE@IGLMLKHF@1?42?4840?410045?44?43?44?$AA@ 10003a34     exsmime_ALL:capistm.obj
 0001:00002a48       ??_C@_0BE@MJPNCMLC@1?42?4840?410045?44?43?43?$AA@ 10003a48     exsmime_ALL:capistm.obj
 0001:00002a5c       ??_C@_0BE@NAOGBNPD@1?42?4840?410045?44?43?42?$AA@ 10003a5c     exsmime_ALL:capistm.obj
 0001:00002a70       ??_C@_0BC@DGDGFOKP@1?42?4840?410045?44?41?$AA@ 10003a70     exsmime_ALL:capistm.obj
 0001:00002a84       ??_C@_0BC@BDFNABHD@1?42?4840?410045?42?41?$AA@ 10003a84     exsmime_ALL:capistm.obj
 0001:00002a98       ??_C@_0O@HGIBFFIO@1?43?414?43?42?427?$AA@ 10003a98     exsmime_ALL:capistm.obj
 0001:00002aa8       ??_C@_0O@JLABPJC@1?43?414?43?42?412?$AA@ 10003aa8     exsmime_ALL:capistm.obj
 0001:00002ab8       ??_C@_01KICIPPFI@?2?$AA@   10003ab8     exsmime_ALL:MimeNode.obj
 0001:00002abc       ??_C@_01GPOEFGEJ@?7?$AA@   10003abc     exsmime_ALL:MimeNode.obj
 0001:00002ac0       ??_C@_01BJJEKLCA@?$CC?$AA@ 10003ac0     exsmime_ALL:MimeNode.obj
 0001:00002ac4       ??_7CRefLine@@6B@          10003ac4     exsmime_ALL:RefLine.obj
 0001:00002ae0       ??_C@_0BH@BCDGHAC@1?43?46?41?44?41?4311?416?41?41?$AA@ 10003ae0     exsmime_ALL:SecAttrib.obj
 0001:00002ff8       ?g_map@CHdrContentType@@1QBUPARAMMAP@1@B 10003ff8     exsmime_ALL:HdrCntType.obj
 0001:00003000       ??_C@_01KMDKNFGN@?1?$AA@   10004000     exsmime_ALL:HdrCntType.obj
 0001:00003004       ??_C@_02LMMGGCAJ@?3?5?$AA@ 10004004     exsmime_ALL:HdrCntType.obj
 0001:00003008       _GUID_531ed085_e132_414e_8767_3a80fc6e6a7c 10004008     exsmime_ALL:HdrCntType.obj
 0001:00003018       ?g_map@CMIMEHeaderFactory@@1QBUHEADERMAP@1@B 10004018     exsmime_ALL:HdrFactory.obj
 0001:00003408       ??_7?$CComContainedObject@VCHdrDate@@@ATL@@6BIMIMEHeader@@@ 10004408     exsmime_ALL:HdrFactory.obj
 0001:00003470       ??_7?$CComContainedObject@VCHdrDate@@@ATL@@6BMIMETreeNode@@@ 10004470     exsmime_ALL:HdrFactory.obj
 0001:00003474       ??_7?$CComContainedObject@VCHdrDate@@@ATL@@6BMIMENodeSerialize@@@ 10004474     exsmime_ALL:HdrFactory.obj
 0001:0000347c       ??_7?$CComContainedObject@VCHdrDate@@@ATL@@6BCMimeHeader@@@ 1000447c     exsmime_ALL:HdrFactory.obj
 0001:00003494       ??_7?$CComContainedObject@VCHdrDate@@@ATL@@6BIMIMEDate@@@ 10004494     exsmime_ALL:HdrFactory.obj
 0001:000034a8       ??_7?$CComPolyObject@VCHdrDate@@@ATL@@6B@ 100044a8     exsmime_ALL:HdrFactory.obj
 0001:000034b8       ?_entries@?1??_GetEntries@CHdrDate@@SAPBU_ATL_INTMAP_ENTRY@ATL@@XZ@4QBU34@B 100044b8     exsmime_ALL:HdrFactory.obj
 0001:000034f4       _GUID_1c5cb7d1_f2b4_414a_baf6_cc599c54ce5e 100044f4     exsmime_ALL:HdrFactory.obj
 0001:00003508       ??_7?$CComContainedObject@VCHdrContentType@@@ATL@@6BIMIMEHeader@@@ 10004508     exsmime_ALL:HdrFactory.obj
 0001:0000357c       ??_7?$CComContainedObject@VCHdrContentType@@@ATL@@6BMIMETreeNode@@@ 1000457c     exsmime_ALL:HdrFactory.obj
 0001:00003580       ??_7?$CComContainedObject@VCHdrContentType@@@ATL@@6BMIMENodeSerialize@@@ 10004580     exsmime_ALL:HdrFactory.obj
 0001:00003588       ??_7?$CComContainedObject@VCHdrContentType@@@ATL@@6BCMimeHeader@@@ 10004588     exsmime_ALL:HdrFactory.obj
 0001:000035a0       ??_7?$CComContainedObject@VCHdrContentType@@@ATL@@6BIMIMEParameterFactory@@@ 100045a0     exsmime_ALL:HdrFactory.obj
 0001:000035b8       ??_7?$CComContainedObject@VCHdrContentDisposition@@@ATL@@6BIMIMEHeader@@@ 100045b8     exsmime_ALL:HdrFactory.obj
 0001:0000362c       ??_7?$CComContainedObject@VCHdrContentDisposition@@@ATL@@6BMIMETreeNode@@@ 1000462c     exsmime_ALL:HdrFactory.obj
 0001:00003630       ??_7?$CComContainedObject@VCHdrContentDisposition@@@ATL@@6BMIMENodeSerialize@@@ 10004630     exsmime_ALL:HdrFactory.obj
 0001:00003638       ??_7?$CComContainedObject@VCHdrContentDisposition@@@ATL@@6BCMimeHeader@@@ 10004638     exsmime_ALL:HdrFactory.obj
 0001:00003650       ??_7?$CComContainedObject@VCHdrContentDisposition@@@ATL@@6BIMIMEParameterFactory@@@ 10004650     exsmime_ALL:HdrFactory.obj
 0001:00003668       ??_7?$CComContainedObject@VCHdrAddress@@@ATL@@6BIMIMEHeader@@@ 10004668     exsmime_ALL:HdrFactory.obj
 0001:000036d0       ??_7?$CComContainedObject@VCHdrAddress@@@ATL@@6BMIMETreeNode@@@ 100046d0     exsmime_ALL:HdrFactory.obj
 0001:000036d4       ??_7?$CComContainedObject@VCHdrAddress@@@ATL@@6BMIMENodeSerialize@@@ 100046d4     exsmime_ALL:HdrFactory.obj
 0001:000036dc       ??_7?$CComContainedObject@VCHdrAddress@@@ATL@@6BCMimeHeader@@@ 100046dc     exsmime_ALL:HdrFactory.obj
 0001:000036f4       ??_7?$CComContainedObject@VCHdrAddress@@@ATL@@6BIMIMEAddress@@@ 100046f4     exsmime_ALL:HdrFactory.obj
 0001:00003704       ??_7?$CComContainedObject@VCHdrAddress@@@ATL@@6BIHdrAddressInt@@@ 10004704     exsmime_ALL:HdrFactory.obj
 0001:00003714       ??_7?$CComContainedObject@VCHdrAddress@@@ATL@@6BIClassFactory@@@ 10004714     exsmime_ALL:HdrFactory.obj
 0001:00003728       ??_7?$CComContainedObject@VCHdrReceived@@@ATL@@6BIMIMEHeader@@@ 10004728     exsmime_ALL:HdrFactory.obj
 0001:00003790       ??_7?$CComContainedObject@VCHdrReceived@@@ATL@@6BMIMETreeNode@@@ 10004790     exsmime_ALL:HdrFactory.obj
 0001:00003794       ??_7?$CComContainedObject@VCHdrReceived@@@ATL@@6BMIMENodeSerialize@@@ 10004794     exsmime_ALL:HdrFactory.obj
 0001:0000379c       ??_7?$CComContainedObject@VCHdrReceived@@@ATL@@6BCMimeHeader@@@ 1000479c     exsmime_ALL:HdrFactory.obj
 0001:000037b4       ??_7?$CComContainedObject@VCHdrReceived@@@ATL@@6BIMIMEReceivedHeader@@@ 100047b4     exsmime_ALL:HdrFactory.obj
 0001:000037e0       ??_7?$CComContainedObject@VCMimeHeader@@@ATL@@6BIMIMEHeader@@@ 100047e0     exsmime_ALL:HdrFactory.obj
 0001:00003848       ??_7?$CComContainedObject@VCMimeHeader@@@ATL@@6BMIMETreeNode@@@ 10004848     exsmime_ALL:HdrFactory.obj
 0001:0000384c       ??_7?$CComContainedObject@VCMimeHeader@@@ATL@@6BMIMENodeSerialize@@@ 1000484c     exsmime_ALL:HdrFactory.obj
 0001:00003854       ??_7?$CComContainedObject@VCMimeHeader@@@ATL@@6B@ 10004854     exsmime_ALL:HdrFactory.obj
 0001:0000386c       ??_7?$CComPolyObject@VCHdrContentType@@@ATL@@6B@ 1000486c     exsmime_ALL:HdrFactory.obj
 0001:0000387c       ?_entries@?1??_GetEntries@CHdrContentType@@SAPBU_ATL_INTMAP_ENTRY@ATL@@XZ@4QBU34@B 1000487c     exsmime_ALL:HdrFactory.obj
 0001:000038b8       ??_7?$CComPolyObject@VCHdrContentDisposition@@@ATL@@6B@ 100048b8     exsmime_ALL:HdrFactory.obj
 0001:000038c8       ?_entries@?1??_GetEntries@CHdrContentDisposition@@SAPBU_ATL_INTMAP_ENTRY@ATL@@XZ@4QBU34@B 100048c8     exsmime_ALL:HdrFactory.obj
 0001:00003904       ??_7?$CComPolyObject@VCHdrAddress@@@ATL@@6B@ 10004904     exsmime_ALL:HdrFactory.obj
 0001:00003918       ?_entries@?1??_GetEntries@CHdrAddress@@SAPBU_ATL_INTMAP_ENTRY@ATL@@XZ@4QBU34@B 10004918     exsmime_ALL:HdrFactory.obj
 0001:0000396c       _GUID_67708261_6a1c_4689_b758_dcdbf6aa7dbf 1000496c     exsmime_ALL:HdrFactory.obj
 0001:0000397c       ??_7?$CComPolyObject@VCHdrReceived@@@ATL@@6B@ 1000497c     exsmime_ALL:HdrFactory.obj
 0001:0000398c       ?_entries@?1??_GetEntries@CHdrReceived@@SAPBU_ATL_INTMAP_ENTRY@ATL@@XZ@4QBU34@B 1000498c     exsmime_ALL:HdrFactory.obj
 0001:000039b0       _GUID_227b0222_7bf8_47dd_9fc4_b2c9596969a8 100049b0     exsmime_ALL:HdrFactory.obj
 0001:000039c0       ?_entries@?1??_GetEntries@CMimeHeader@@SAPBU_ATL_INTMAP_ENTRY@ATL@@XZ@4QBU34@B 100049c0     exsmime_ALL:HdrFactory.obj
 0001:000039f0       ??_7?$CComPolyObject@VCMimeHeader@@@ATL@@6B@ 100049f0     exsmime_ALL:HdrFactory.obj
 0001:00003a00       _GUID_3b6b3156_6fd9_4d89_98ab_8328d8fcf456 10004a00     exsmime_ALL:MimeHeader.obj
 0001:00003a10       ??_C@_01ICJEACDI@?$DL?$AA@ 10004a10     exsmime_ALL:MimeHeader.obj
 0001:00003a14       ??_C@_01JLIPDDHJ@?3?$AA@   10004a14     exsmime_ALL:MimeHeader.obj
 0001:00003a18       ??_7?$CComContainedObject@VCMimeParameter@@@ATL@@6BIMIMEParameter@@@ 10004a18     exsmime_ALL:MimeHeader.obj
 0001:00003a80       ??_7?$CComContainedObject@VCMimeParameter@@@ATL@@6BMIMETreeNode@@@ 10004a80     exsmime_ALL:MimeHeader.obj
 0001:00003a84       ??_7?$CComContainedObject@VCMimeParameter@@@ATL@@6BMIMENodeSerialize@@@ 10004a84     exsmime_ALL:MimeHeader.obj
 0001:00003a8c       ??_7?$CComContainedObject@VCMimeParameter@@@ATL@@6B@ 10004a8c     exsmime_ALL:MimeHeader.obj
 0001:00003aa8       ??_7?$CComPolyObject@VCMimeParameter@@@ATL@@6B@ 10004aa8     exsmime_ALL:MimeHeader.obj
 0001:00003ab8       ?_entries@?1??_GetEntries@CMimeParameter@@SAPBU_ATL_INTMAP_ENTRY@ATL@@XZ@4QBU34@B 10004ab8     exsmime_ALL:MimeHeader.obj
 0001:00003ae8       ??_C@_1CK@MGNBEFPL@?$AAC?$AAo?$AAI?$AAn?$AAt?$AAe?$AAr?$AAn?$AAe?$AAt?$AAG?$AAe?$AAt?$AAS?$AAe?$AAs?$AAs?$AAi?$AAo?$AAn?$AA?$AA@ 10004ae8     exsmime_ALL:dllload.obj
 0001:00003b14       ??_C@_1BG@HHHNEHIF@?$AAu?$AAr?$AAl?$AAm?$AAo?$AAn?$AA?4?$AAD?$AAL?$AAL?$AA?$AA@ 10004b14     exsmime_ALL:dllload.obj
 0001:00003b30       ?s_wMCTypeDict@MimeToken@@1QBGB 10004b30     exsmime_ALL:Token.obj
 0001:00003d50       ??_C@_02BMCALKD@?5?0?$AA@  10004d50     exsmime_ALL:HdrAddress.obj
 0001:00003d54       ??_7?$CComPolyObject@VCMailBox@@@ATL@@6B@ 10004d54     exsmime_ALL:HdrAddress.obj
 0001:00003d64       ??_C@_02KEGNLNML@?0?5?$AA@ 10004d64     exsmime_ALL:HdrAddress.obj
 0001:00003d68       ??_C@_0BK@DOENIFEL@1?42?4840?4113549?41?49?416?43?47?$AA@ 10004d68     exsmime_ALL:PublicKeys.obj
 0001:00003d84       ??_C@_0BH@KNIPOMKM@2?416?4840?41?4101?43?44?41?45?$AA@ 10004d84     exsmime_ALL:PublicKeys.obj
 0001:00003d9c       ??_C@_0BI@HILDLEBM@2?416?4840?41?4101?43?44?41?425?$AA@ 10004d9c     exsmime_ALL:PublicKeys.obj
 0001:00003db4       ??_C@_0BI@HMDOMIKO@2?416?4840?41?4101?43?44?41?445?$AA@ 10004db4     exsmime_ALL:PublicKeys.obj
 0001:00003dcc       ??_C@_0BK@CHFGLEAK@1?42?4840?4113549?41?49?416?43?46?$AA@ 10004dcc     exsmime_ALL:PublicKeys.obj
 0001:00003de8       ??_C@_0BG@MAFPGMCM@1?43?4133?416?4840?463?40?42?$AA@ 10004de8     exsmime_ALL:PublicKeys.obj
 0001:00003e00       ??_C@_0BK@MHLOHMJ@1?42?4840?4113549?41?49?416?43?45?$AA@ 10004e00     exsmime_ALL:PublicKeys.obj
 0001:00003e3c       ?g_map@CHdrContentDisposition@@1QBUPARAMMAP@1@B 10004e3c     exsmime_ALL:HdrCntDisp.obj
 0001:00003e44       ??_C@_02HKHGEFOK@x?9?$AA@  10004e44     exsmime_ALL:HdrCntDisp.obj
 0001:00003e47       ??_C@_00CNPNBAHC@?$AA@     10004e47     exsmime_ALL:HdrCntDisp.obj
 0001:00003e48       ??_C@_03MKABNOCG@Dec?$AA@  10004e48     exsmime_ALL:HdrDate.obj
 0001:00003e4c       ??_C@_03JPJOFNIA@Nov?$AA@  10004e4c     exsmime_ALL:HdrDate.obj
 0001:00003e50       ??_C@_03BMAOKBAD@Oct?$AA@  10004e50     exsmime_ALL:HdrDate.obj
 0001:00003e54       ??_C@_03GGCAPAJC@Sep?$AA@  10004e54     exsmime_ALL:HdrDate.obj
 0001:00003e58       ??_C@_03IFJFEIGA@Aug?$AA@  10004e58     exsmime_ALL:HdrDate.obj
 0001:00003e5c       ??_C@_03LBGABGKK@Jul?$AA@  10004e5c     exsmime_ALL:HdrDate.obj
 0001:00003e60       ??_C@_03IDFGHECI@Jun?$AA@  10004e60     exsmime_ALL:HdrDate.obj
 0001:00003e64       ??_C@_03CNMDKL@May?$AA@    10004e64     exsmime_ALL:HdrDate.obj
 0001:00003e68       ??_C@_03LEOLGMJP@Apr?$AA@  10004e68     exsmime_ALL:HdrDate.obj
 0001:00003e6c       ??_C@_03ODNJBKGA@Mar?$AA@  10004e6c     exsmime_ALL:HdrDate.obj
 0001:00003e70       ??_C@_03HJBDCHOM@Feb?$AA@  10004e70     exsmime_ALL:HdrDate.obj
 0001:00003e74       ??_C@_03JIHJHPIE@Jan?$AA@  10004e74     exsmime_ALL:HdrDate.obj
 0001:00003e78       ??_C@_03FEFJNEK@Sat?$AA@   10004e78     exsmime_ALL:HdrDate.obj
 0001:00003e7c       ??_C@_03IDIOELNC@Fri?$AA@  10004e7c     exsmime_ALL:HdrDate.obj
 0001:00003e80       ??_C@_03IOFIKPDN@Thu?$AA@  10004e80     exsmime_ALL:HdrDate.obj
 0001:00003e84       ??_C@_03MHOMLAJA@Wed?$AA@  10004e84     exsmime_ALL:HdrDate.obj
 0001:00003e88       ??_C@_03NAGEINEP@Tue?$AA@  10004e88     exsmime_ALL:HdrDate.obj
 0001:00003e8c       ??_C@_03PDAGKDH@Mon?$AA@   10004e8c     exsmime_ALL:HdrDate.obj
 0001:00003e90       ??_C@_03KOEHGMDN@Sun?$AA@  10004e90     exsmime_ALL:HdrDate.obj
 0001:00003e94       ?c_cbMaxDateLength@CHdrDate@@1HB 10004e94     exsmime_ALL:HdrDate.obj
 0001:00003e98       ?g_Y2KThreshold@CHdrDate@@1HB 10004e98     exsmime_ALL:HdrDate.obj
 0001:00003e9c       ?g_szDays@CHdrDate@@1QBQADB 10004e9c     exsmime_ALL:HdrDate.obj
 0001:00003eb8       ?g_szMonths@CHdrDate@@1QBQADB 10004eb8     exsmime_ALL:HdrDate.obj
 0001:00003ee8       ??_C@_0CK@PCAENHEN@?$CF3s?0?5?$CFd?5?$CF3s?5?$CF4d?5?$CF02d?3?$CF02d?3?$CF02d?5?$CF@ 10004ee8     exsmime_ALL:HdrDate.obj
 0001:00003f14       ?c_szCharset@CMimeParameter@@1QBEB 10004f14     exsmime_ALL:Parameter.obj
 0001:00003f1c       ?c_szBoundary@CMimeParameter@@1QBEB 10004f1c     exsmime_ALL:Parameter.obj
 0001:00003f28       ?c_szFileName@CMimeParameter@@1QBEB 10004f28     exsmime_ALL:Parameter.obj
 0001:00003f34       ?c_szID@CMimeParameter@@1QBEB 10004f34     exsmime_ALL:Parameter.obj
 0001:00003f38       ?c_szName@CMimeParameter@@1QBEB 10004f38     exsmime_ALL:Parameter.obj
 0001:00003f40       ??_C@_04MBBDGHDH@?$DL?$AN?6?7?$AA@ 10004f40     exsmime_ALL:Parameter.obj
 0001:00003f48       ??_C@_01NEMOKFLO@?$DN?$AA@ 10004f48     exsmime_ALL:Parameter.obj
 0001:00003f4c       ??_C@_01NBENCBCI@?$CK?$AA@ 10004f4c     exsmime_ALL:Parameter.obj
 0001:00003f50       GUID_NULL                  10004f50     uuid:dcomuuid.obj
 0001:00003f60       CLSID_StdGlobalInterfaceTable 10004f60     uuid:dcomuuid.obj
 0001:00003f70       IID_IStream                10004f70     uuid:dcomuuid.obj
 0001:00003f80       IID_IUnknown               10004f80     uuid:dcomuuid.obj
 0001:00003f90       IID_IClassFactory          10004f90     uuid:dcomuuid.obj
 0001:00003fa0       IID_IHttpNegotiate         10004fa0     uuid:dcomuuid.obj
 0001:00003fb0       IID_IInternetBindInfo      10004fb0     uuid:ieuuid.obj
 0001:00003fc0       IID_IInternetProtocolSink  10004fc0     uuid:ieuuid.obj
 0001:00003fd0       GUID_ATLVer30              10004fd0     atls:atlbase.obj
 0001:00003fe0       GUID_ATLVer70              10004fe0     atls:atlbase.obj
 0001:00004010       __real@0000000000000000    10005010     atlosapis:relop.obj
 0001:00004018       __real@c124103600000000    10005018     atlosapis:relop.obj
 0001:00004020       __real@4146924100000000    10005020     atlosapis:relop.obj
 0001:00004028       __real@00000000            10005028     atlosapis:relop.obj
 0001:0000402c       __real@3fe0000000000000    1000502c     atlosapis:oleconv.obj
 0001:00004034       __real@40c3880000000000    10005034     atlosapis:oleconv.obj
 0001:0000403c       __real@41f0000000000000    1000503c     atlosapis:oleconv.obj
 0001:00004044       __real@3df0000000000000    10005044     atlosapis:oleconv.obj
 0001:0000404c       __real@c30a36e2eb1c432d    1000504c     atlosapis:oleconv.obj
 0001:00004054       __real@430a36e2eb1c432d    10005054     atlosapis:oleconv.obj
 0001:00004080       ?InlineIsEqualGUID@@YAHABU_GUID@@0@Z 10005080 f i exsmime_ALL:ExSMime.obj
 0001:000040c8       ?ocscpy_s@@YA_NPAGIPBG@Z   100050c8 f i exsmime_ALL:ExSMime.obj
 0001:0000411c       ?AtlThrowImpl@ATL@@YAXJ@Z  1000511c f i exsmime_ALL:ExSMime.obj
 0001:00004148       ?AtlCrtErrorCheck@ATL@@YAHH@Z 10005148 f i exsmime_ALL:ExSMime.obj
 0001:000041a4       ?Init@CComCriticalSection@ATL@@QAAJXZ 100051a4 f i exsmime_ALL:ExSMime.obj
 0001:000041fc       ?AtlHresultFromLastError@ATL@@YAJXZ 100051fc f i exsmime_ALL:ExSMime.obj
 0001:0000421c       ?AtlHresultFromWin32@ATL@@YAJK@Z 1000521c f i exsmime_ALL:ExSMime.obj
 0001:00004234       ?GetRSAProvider@CMIMEModule@@QAAJPAK@Z 10005234 f   exsmime_ALL:ExSMime.obj
 0001:0000432c       ?GetObjectDescription@?$CComCoClass@VSMIME@@$1?CLSID_SMIME@@3U_GUID@@B@ATL@@SAPBGXZ 1000532c f i exsmime_ALL:ExSMime.obj
 0001:00004334       ?GetObjectDescription@?$CComCoClass@VCVirtualStream@@$1?CLSID_VirtualStream@@3U_GUID@@B@ATL@@SAPBGXZ 10005334 f i exsmime_ALL:ExSMime.obj
 0001:0000433c       ?GetObjectDescription@?$CComCoClass@VCEncryptStream@@$1?CLSID_EncryptedVirtualStream@@3U_GUID@@B@ATL@@SAPBGXZ 1000533c f i exsmime_ALL:ExSMime.obj
 0001:00004344       ?GetObjectDescription@?$CComCoClass@VCMimeEntity@@$1?CLSID_MIMEEntity@@3U_GUID@@B@ATL@@SAPBGXZ 10005344 f i exsmime_ALL:ExSMime.obj
 0001:0000434c       ?GetObjectDescription@?$CComCoClass@VCMimeReader@@$1?CLSID_MIMEReader@@3U_GUID@@B@ATL@@SAPBGXZ 1000534c f i exsmime_ALL:ExSMime.obj
 0001:00004354       ?GetObjectDescription@?$CComCoClass@VCMailBox@@$1?CLSID_MIMEMailbox@@3U_GUID@@B@ATL@@SAPBGXZ 10005354 f i exsmime_ALL:ExSMime.obj
 0001:0000435c       ?GetObjectDescription@?$CComCoClass@VCQPEncoder@@$1?CLSID_MIMEQuotedPrintableEncoder@@3U_GUID@@B@ATL@@SAPBGXZ 1000535c f i exsmime_ALL:ExSMime.obj
 0001:00004364       ?GetObjectDescription@?$CComCoClass@VCQPDecoder@@$1?CLSID_MIMEQuotedPrintableDecoder@@3U_GUID@@B@ATL@@SAPBGXZ 10005364 f i exsmime_ALL:ExSMime.obj
 0001:0000436c       ?GetObjectDescription@?$CComCoClass@VCBase64Encoder@@$1?CLSID_MIMEBase64Encoder@@3U_GUID@@B@ATL@@SAPBGXZ 1000536c f i exsmime_ALL:ExSMime.obj
 0001:00004374       ?GetObjectDescription@?$CComCoClass@VCBase64Decoder@@$1?CLSID_MIMEBase64Decoder@@3U_GUID@@B@ATL@@SAPBGXZ 10005374 f i exsmime_ALL:ExSMime.obj
 0001:0000437c       ?GetObjectDescription@?$CComCoClass@VCBinHexEncoder@@$1?CLSID_MIMEBinHexEncoder@@3U_GUID@@B@ATL@@SAPBGXZ 1000537c f i exsmime_ALL:ExSMime.obj
 0001:00004384       ?GetObjectDescription@?$CComCoClass@VCBinHexDecoder@@$1?CLSID_MIMEBinHexDecoder@@3U_GUID@@B@ATL@@SAPBGXZ 10005384 f i exsmime_ALL:ExSMime.obj
 0001:0000438c       ?GetObjectDescription@?$CComCoClass@VCUUEncoder@@$1?CLSID_MIMEUUEncoder@@3U_GUID@@B@ATL@@SAPBGXZ 1000538c f i exsmime_ALL:ExSMime.obj
 0001:00004394       ?GetObjectDescription@?$CComCoClass@VCUUDecoder@@$1?CLSID_MIMEUUDecoder@@3U_GUID@@B@ATL@@SAPBGXZ 10005394 f i exsmime_ALL:ExSMime.obj
 0001:0000439c       ?GetObjectDescription@?$CComCoClass@VCRfc2047Encoder@@$1?CLSID_MIMERfc2047Encoder@@3U_GUID@@B@ATL@@SAPBGXZ 1000539c f i exsmime_ALL:ExSMime.obj
 0001:000043a4       ?GetObjectDescription@?$CComCoClass@VCRfc2047Decoder@@$1?CLSID_MIMERfc2047Decoder@@3U_GUID@@B@ATL@@SAPBGXZ 100053a4 f i exsmime_ALL:ExSMime.obj
 0001:000043ac       ?GetObjectDescription@?$CComCoClass@VCAPIStm@@$1?CLSID_CAPIStm@@3U_GUID@@B@ATL@@SAPBGXZ 100053ac f i exsmime_ALL:ExSMime.obj
 0001:000043b4       ?GetLockCount@CAtlModule@ATL@@UAAJXZ 100053b4 f i exsmime_ALL:ExSMime.obj
 0001:000043bc       ?EscapeSingleQuote@CAtlModule@ATL@@SAXPAGIPBG@Z 100053bc f i exsmime_ALL:ExSMime.obj
 0001:00004418       ?Size@CVirtualStream@@MBA_KXZ 10005418 f i exsmime_ALL:ExSMime.obj
 0001:00004428       ?Create@CRegKey@ATL@@QAAJPAUHKEY__@@PBGPAGKKPAU_SECURITY_ATTRIBUTES@@PAK@Z 10005428 f i exsmime_ALL:ExSMime.obj
 0001:000044c4       ?Open@CRegKey@ATL@@QAAJPAUHKEY__@@PBGK@Z 100054c4 f i exsmime_ALL:ExSMime.obj
 0001:00004530       ?SetStringValue@CRegKey@ATL@@QAAJPBG0K@Z 10005530 f i exsmime_ALL:ExSMime.obj
 0001:00004588       ?SetMultiStringValue@CRegKey@ATL@@QAAJPBG0@Z 10005588 f i exsmime_ALL:ExSMime.obj
 0001:00004600       ??0CParseBuffer@CRegParser@ATL@@QAA@H@Z 10005600 f i exsmime_ALL:ExSMime.obj
 0001:00004658       ?Append@CParseBuffer@CRegParser@ATL@@QAAHPBGH@Z 10005658 f i exsmime_ALL:ExSMime.obj
 0001:0000474c       ??0?$CComObject@VSMIME@@@ATL@@QAA@PAX@Z 1000574c f i exsmime_ALL:ExSMime.obj
 0001:0000479c       ??1?$CComObject@VSMIME@@@ATL@@UAA@XZ 1000579c f i exsmime_ALL:ExSMime.obj
 0001:000047f8       ?Size@CEncryptStream@@MBA_KXZ 100057f8 f i exsmime_ALL:ExSMime.obj
 0001:00004808       ?VTFromRegType@CRegParser@ATL@@KAHPBGAAG@Z 10005808 f i exsmime_ALL:ExSMime.obj
 0001:000048d0       ?ChToByte@CRegParser@ATL@@KAEG@Z 100058d0 f i exsmime_ALL:ExSMime.obj
 0001:00004928       ?HKeyFromString@CRegParser@ATL@@KAPAUHKEY__@@PAG@Z 10005928 f i exsmime_ALL:ExSMime.obj
 0001:00004978       ?StrChrW@CRegParser@ATL@@KAPAGPAGG@Z 10005978 f i exsmime_ALL:ExSMime.obj
 0001:000049c0       ?SkipWhiteSpace@CRegParser@ATL@@IAAXXZ 100059c0 f i exsmime_ALL:ExSMime.obj
 0001:00004a00       ?NextToken@CRegParser@ATL@@IAAJPAG@Z 10005a00 f i exsmime_ALL:ExSMime.obj
 0001:00004b88       ??_G?$CComObject@VSMIME@@@ATL@@UAAPAXI@Z 10005b88 f i exsmime_ALL:ExSMime.obj
 0001:00004b88       ??_E?$CComObject@VSMIME@@@ATL@@UAAPAXI@Z 10005b88 f i exsmime_ALL:ExSMime.obj
 0001:00004bac       ?CanForceRemoveKey@CRegParser@ATL@@IAAHPBG@Z 10005bac f i exsmime_ALL:ExSMime.obj
 0001:00004bf4       ?HasSubKeys@CRegParser@ATL@@IAAHPAUHKEY__@@@Z 10005bf4 f i exsmime_ALL:ExSMime.obj
 0001:00004c70       ?SkipAssignment@CRegParser@ATL@@IAAJPAG@Z 10005c70 f i exsmime_ALL:ExSMime.obj
 0001:00004cfc       ?Revert@?$IStreamImpl@UIStream@@@@UAAJXZ 10005cfc f i exsmime_ALL:ExSMime.obj
 0001:00004d08       ?LockRegion@?$IStreamImpl@UIStream@@@@UAAJT_ULARGE_INTEGER@@0K@Z 10005d08 f i exsmime_ALL:ExSMime.obj
 0001:00004d20       ?UnlockRegion@?$IStreamImpl@UIStream@@@@UAAJT_ULARGE_INTEGER@@0K@Z 10005d20 f i exsmime_ALL:ExSMime.obj
 0001:00004d38       ?Stat@?$IStreamImpl@UIStream@@@@UAAJPAUtagSTATSTG@@K@Z 10005d38 f i exsmime_ALL:ExSMime.obj
 0001:00004de0       ?Init@CComModule@ATL@@QAAJPAU_ATL_OBJMAP_ENTRY30@2@PAUHINSTANCE__@@PBU_GUID@@@Z 10005de0 f i exsmime_ALL:ExSMime.obj
 0001:00004e90       ?AtlInternalQueryInterface@ATL@@YAJPAXPBU_ATL_INTMAP_ENTRY@1@ABU_GUID@@PAPAX@Z 10005e90 f i exsmime_ALL:ExSMime.obj
 0001:00004fbc       ?AtlCallTermFunc@ATL@@YAXPAU_ATL_MODULE70@1@@Z 10005fbc f i exsmime_ALL:ExSMime.obj
 0001:00005014       ?ObjectMain@CComObjectRootBase@ATL@@SAX_N@Z 10006014 f i exsmime_ALL:ExSMime.obj
 0001:00005018       ?RemoveAll@?$CSimpleMap@PAGPAGVCExpansionVectorEqualHelper@ATL@@@ATL@@QAAXXZ 10006018 f i exsmime_ALL:ExSMime.obj
 0001:0000505c       ?Cleanup@?$CTNodePool@UNODEBLOCK@CVPtrList@@UNODE@2@$0BA@@@QAAXXZ 1000605c f i exsmime_ALL:ExSMime.obj
 0001:000050a8       ?FindKey@?$CSimpleMap@PAGPAGVCExpansionVectorEqualHelper@ATL@@@ATL@@QBAHABQAG@Z 100060a8 f i exsmime_ALL:ExSMime.obj
 0001:000050f8       ?FreeHeap@?$CTempBuffer@G$0EAA@VCCRTAllocator@ATL@@@ATL@@AAAXXZ 100060f8 f i exsmime_ALL:ExSMime.obj
 0001:00005100       ?FreeHeap@?$CTempBuffer@G$0BAA@VCCRTAllocator@ATL@@@ATL@@AAAXXZ 10006100 f i exsmime_ALL:ExSMime.obj
 0001:00005108       ?FreeHeap@?$CTempBuffer@E$0BAA@VCCRTAllocator@ATL@@@ATL@@AAAXXZ 10006108 f i exsmime_ALL:ExSMime.obj
 0001:00005110       ?AllocateHeap@?$CTempBuffer@G$0EAA@VCCRTAllocator@ATL@@@ATL@@AAAXI@Z 10006110 f i exsmime_ALL:ExSMime.obj
 0001:0000513c       ?AllocateHeap@?$CTempBuffer@G$0BAA@VCCRTAllocator@ATL@@@ATL@@AAAXI@Z 1000613c f i exsmime_ALL:ExSMime.obj
 0001:00005168       ?AllocateHeap@?$CTempBuffer@E$0BAA@VCCRTAllocator@ATL@@@ATL@@AAAXI@Z 10006168 f i exsmime_ALL:ExSMime.obj
 0001:00005194       ??1SafeSMIMEINFO@@QAA@XZ   10006194 f i exsmime_ALL:ExSMime.obj
 0001:00005264       ?Init@CMIMEModule@@QAAJPAU_ATL_OBJMAP_ENTRY30@ATL@@PAUHINSTANCE__@@PBU_GUID@@@Z 10006264 f   exsmime_ALL:ExSMime.obj
 0001:000052a0       DllCanUnloadNow            100062a0 f   exsmime_ALL:ExSMime.obj
 0001:000052bc       ??1?$CComObject@VCVirtualStream@@@ATL@@UAA@XZ 100062bc f i exsmime_ALL:ExSMime.obj
 0001:000052fc       ?AddRef@?$CComObject@VCVirtualStream@@@ATL@@UAAKXZ 100062fc f i exsmime_ALL:ExSMime.obj
 0001:00005310       ?Release@?$CComObject@VCVirtualStream@@@ATL@@UAAKXZ 10006310 f i exsmime_ALL:ExSMime.obj
 0001:00005348       ?QueryInterface@?$CComObject@VCVirtualStream@@@ATL@@UAAJABU_GUID@@PAPAX@Z 10006348 f i exsmime_ALL:ExSMime.obj
 0001:0000535c       ??_G?$CComObject@VCVirtualStream@@@ATL@@UAAPAXI@Z 1000635c f i exsmime_ALL:ExSMime.obj
 0001:0000535c       ??_E?$CComObject@VCVirtualStream@@@ATL@@UAAPAXI@Z 1000635c f i exsmime_ALL:ExSMime.obj
 0001:00005380       ??0CAtlModule@ATL@@QAA@XZ  10006380 f i exsmime_ALL:ExSMime.obj
 0001:000053e8       ?Term@CAtlModule@ATL@@QAAXXZ 100063e8 f i exsmime_ALL:ExSMime.obj
 0001:0000543c       ?CreateInstance@?$CComCreator@V?$CComObject@VCVirtualStream@@@ATL@@@ATL@@SAJPAXABU_GUID@@PAPAX@Z 1000643c f i exsmime_ALL:ExSMime.obj
 0001:000054ec       ?CreateInstance@?$CComCreator@V?$CComObject@VCEncryptStream@@@ATL@@@ATL@@SAJPAXABU_GUID@@PAPAX@Z 100064ec f i exsmime_ALL:ExSMime.obj
 0001:000055a4       ?RecurseDeleteKey@CRegKey@ATL@@QAAJPBG@Z 100065a4 f i exsmime_ALL:ExSMime.obj
 0001:000056d0       ?ClearReplacements@CExpansionVector@ATL@@QAAJXZ 100066d0 f i exsmime_ALL:ExSMime.obj
 0001:00005770       ?ClearReplacements@CRegObject@ATL@@UAAJXZ 10006770 f i exsmime_ALL:ExSMime.obj
 0001:00005778       ?AddRef@?$CComObject@VSMIME@@@ATL@@UAAKXZ 10006778 f i exsmime_ALL:ExSMime.obj
 0001:00005780       ?Release@?$CComObject@VSMIME@@@ATL@@UAAKXZ 10006780 f i exsmime_ALL:ExSMime.obj
 0001:000057b8       ??1?$CComObject@VCEncryptStream@@@ATL@@UAA@XZ 100067b8 f i exsmime_ALL:ExSMime.obj
 0001:000057f8       ?AddRef@?$CComObject@VCEncryptStream@@@ATL@@UAAKXZ 100067f8 f i exsmime_ALL:ExSMime.obj
 0001:0000580c       ?Release@?$CComObject@VCEncryptStream@@@ATL@@UAAKXZ 1000680c f i exsmime_ALL:ExSMime.obj
 0001:00005844       ?QueryInterface@?$CComObject@VCEncryptStream@@@ATL@@UAAJABU_GUID@@PAPAX@Z 10006844 f i exsmime_ALL:ExSMime.obj
 0001:00005858       ??_G?$CComObject@VCEncryptStream@@@ATL@@UAAPAXI@Z 10006858 f i exsmime_ALL:ExSMime.obj
 0001:00005858       ??_E?$CComObject@VCEncryptStream@@@ATL@@UAAPAXI@Z 10006858 f i exsmime_ALL:ExSMime.obj
 0001:00005884       ?AtlLoadTypeLib@ATL@@YAJPAUHINSTANCE__@@PBGPAPAGPAPAUITypeLib@@@Z 10006884 f i exsmime_ALL:ExSMime.obj
 0001:000059c8       ?Release@?$CComObject@VSMIME@@@ATL@@W3AAKXZ 100069c8 f i exsmime_ALL:ExSMime.obj
 0001:000059d0       ?Release@?$CComObject@VSMIME@@@ATL@@W7AAKXZ 100069d0 f i exsmime_ALL:ExSMime.obj
 0001:000059d8       ?AddRef@?$CComObject@VSMIME@@@ATL@@W3AAKXZ 100069d8 f i exsmime_ALL:ExSMime.obj
 0001:000059e0       ?AddRef@?$CComObject@VSMIME@@@ATL@@W7AAKXZ 100069e0 f i exsmime_ALL:ExSMime.obj
 0001:000059e8       ?Term@CComModule@ATL@@QAAXXZ 100069e8 f i exsmime_ALL:ExSMime.obj
 0001:00005a84       ?Lookup@?$CSimpleMap@PAGPAGVCExpansionVectorEqualHelper@ATL@@@ATL@@QBAPAGABQAG@Z 10006a84 f i exsmime_ALL:ExSMime.obj
 0001:00005ad4       ??1MIMETreeNode@@IAA@XZ    10006ad4 f i exsmime_ALL:ExSMime.obj
 0001:00005b50       ?CreateInstance@CComClassFactory@ATL@@UAAJPAUIUnknown@@ABU_GUID@@PAPAX@Z 10006b50 f i exsmime_ALL:ExSMime.obj
 0001:00005bd4       ?LockServer@CComClassFactory@ATL@@UAAJH@Z 10006bd4 f i exsmime_ALL:ExSMime.obj
 0001:00005c10       ??1CAPIStm@@IAA@XZ         10006c10 f i exsmime_ALL:ExSMime.obj
 0001:00005c58       ?Term@CMIMEModule@@QAAXXZ  10006c58 f   exsmime_ALL:ExSMime.obj
 0001:00005c94       DllMain                    10006c94 f   exsmime_ALL:ExSMime.obj
 0001:00005ce4       ?CreateInstance@?$CComCreator2@V?$CComCreator@V?$CComObject@VCVirtualStream@@@ATL@@@ATL@@V?$CComFailCreator@$0?HPPLPOPA@@2@@ATL@@SAJPAXABU_GUID@@PAPAX@Z 10006ce4 f i exsmime_ALL:ExSMime.obj
 0001:00005d18       ?CreateInstance@?$CComCreator2@V?$CComCreator@V?$CComObject@VCEncryptStream@@@ATL@@@ATL@@V?$CComFailCreator@$0?HPPLPOPA@@2@@ATL@@SAJPAXABU_GUID@@PAPAX@Z 10006d18 f i exsmime_ALL:ExSMime.obj
 0001:00005d4c       ?CreateInstance@?$CComCreator@V?$CComObject@VSMIME@@@ATL@@@ATL@@SAJPAXABU_GUID@@PAPAX@Z 10006d4c f i exsmime_ALL:ExSMime.obj
 0001:00005e30       ?Lock@CAtlModule@ATL@@UAAJXZ 10006e30 f i exsmime_ALL:ExSMime.obj
 0001:00005e38       ?Unlock@CAtlModule@ATL@@UAAJXZ 10006e38 f i exsmime_ALL:ExSMime.obj
 0001:00005e40       ?GetGITPtr@CAtlModule@ATL@@UAAJPAPAUIGlobalInterfaceTable@@@Z 10006e40 f i exsmime_ALL:ExSMime.obj
 0001:00005ebc       ?UpdateRegistryFromResourceD@CComModule@ATL@@UAAJPBGHPAU_ATL_REGMAP_ENTRY@2@@Z 10006ebc f i exsmime_ALL:ExSMime.obj
 0001:00005ec8       ?UpdateRegistryFromResourceD@CComModule@ATL@@UAAJIHPAU_ATL_REGMAP_ENTRY@2@@Z 10006ec8 f i exsmime_ALL:ExSMime.obj
 0001:00005ed4       ?AddCommonRGSReplacements@?$CAtlModuleT@VCComModule@ATL@@@ATL@@UAAJPAUIRegistrarBase@@@Z 10006ed4 f i exsmime_ALL:ExSMime.obj
 0001:00005efc       ??_ECComModule@ATL@@UAAPAXI@Z 10006efc f i exsmime_ALL:ExSMime.obj
 0001:00005efc       ??_GCComModule@ATL@@UAAPAXI@Z 10006efc f i exsmime_ALL:ExSMime.obj
 0001:00005f2c       ?QueryInterface@CRegObject@ATL@@UAAJABU_GUID@@PAPAX@Z 10006f2c f i exsmime_ALL:ExSMime.obj
 0001:00005f38       ?AddRef@CRegObject@ATL@@UAAKXZ 10006f38 f i exsmime_ALL:ExSMime.obj
 0001:00005f40       ?Release@CRegObject@ATL@@UAAKXZ 10006f40 f i exsmime_ALL:ExSMime.obj
 0001:00005f48       ??_ECRegObject@ATL@@UAAPAXI@Z 10006f48 f i exsmime_ALL:ExSMime.obj
 0001:00005f48       ??_GCRegObject@ATL@@UAAPAXI@Z 10006f48 f i exsmime_ALL:ExSMime.obj
 0001:00005f90       ?Size@CAPIStm@@MBA_KXZ     10006f90 f i exsmime_ALL:ExSMime.obj
 0001:00005f9c       ?Seek@?$IStreamImpl@UICAPIStm@@@@UAAJT_LARGE_INTEGER@@KPAT_ULARGE_INTEGER@@@Z 10006f9c f i exsmime_ALL:ExSMime.obj
 0001:00005fb4       ?Revert@?$IStreamImpl@UICAPIStm@@@@UAAJXZ 10006fb4 f i exsmime_ALL:ExSMime.obj
 0001:00005fc0       ?LockRegion@?$IStreamImpl@UICAPIStm@@@@UAAJT_ULARGE_INTEGER@@0K@Z 10006fc0 f i exsmime_ALL:ExSMime.obj
 0001:00005fd8       ?UnlockRegion@?$IStreamImpl@UICAPIStm@@@@UAAJT_ULARGE_INTEGER@@0K@Z 10006fd8 f i exsmime_ALL:ExSMime.obj
 0001:00005ff0       ?Stat@?$IStreamImpl@UICAPIStm@@@@UAAJPAUtagSTATSTG@@K@Z 10006ff0 f i exsmime_ALL:ExSMime.obj
 0001:00006098       ?Clone@?$IStreamImpl@UICAPIStm@@@@UAAJPAPAUIStream@@@Z 10007098 f i exsmime_ALL:ExSMime.obj
 0001:000060b8       ?AddRef@?$CComObject@VCAPIStm@@@ATL@@UAAKXZ 100070b8 f i exsmime_ALL:ExSMime.obj
 0001:000060c0       ?Release@?$CComObject@VCAPIStm@@@ATL@@UAAKXZ 100070c0 f i exsmime_ALL:ExSMime.obj
 0001:000060f8       ?QueryInterface@?$CComObject@VCAPIStm@@@ATL@@UAAJABU_GUID@@PAPAX@Z 100070f8 f i exsmime_ALL:ExSMime.obj
 0001:0000610c       ??1?$CComObject@VCAPIStm@@@ATL@@UAA@XZ 1000710c f i exsmime_ALL:ExSMime.obj
 0001:00006150       ?QueryInterface@?$CComObject@VSMIME@@@ATL@@UAAJABU_GUID@@PAPAX@Z 10007150 f i exsmime_ALL:ExSMime.obj
 0001:00006164       ??1CBase64Encoder@@QAA@XZ  10007164 f i exsmime_ALL:ExSMime.obj
 0001:000061a8       ??1CBase64Decoder@@QAA@XZ  100071a8 f i exsmime_ALL:ExSMime.obj
 0001:000061ec       ??1CQPEncoder@@QAA@XZ      100071ec f i exsmime_ALL:ExSMime.obj
 0001:00006230       ??1CQPDecoder@@QAA@XZ      10007230 f i exsmime_ALL:ExSMime.obj
 0001:00006274       ??1CBinHexEncoder@@QAA@XZ  10007274 f i exsmime_ALL:ExSMime.obj
 0001:000062b8       ??1CBinHexDecoder@@QAA@XZ  100072b8 f i exsmime_ALL:ExSMime.obj
 0001:000062fc       ??1CUUEncoder@@QAA@XZ      100072fc f i exsmime_ALL:ExSMime.obj
 0001:00006340       ??1CUUDecoder@@QAA@XZ      10007340 f i exsmime_ALL:ExSMime.obj
 0001:00006384       ??1CRfc2047Encoder@@QAA@XZ 10007384 f i exsmime_ALL:ExSMime.obj
 0001:000063c8       ??1CRfc2047Decoder@@QAA@XZ 100073c8 f i exsmime_ALL:ExSMime.obj
 0001:0000640c       ??_E?$CComObject@VCAPIStm@@@ATL@@UAAPAXI@Z 1000740c f i exsmime_ALL:ExSMime.obj
 0001:0000640c       ??_G?$CComObject@VCAPIStm@@@ATL@@UAAPAXI@Z 1000740c f i exsmime_ALL:ExSMime.obj
 0001:00006438       ?PreProcessBuffer@CRegParser@ATL@@QAAJPAGPAPAG@Z 10007438 f i exsmime_ALL:ExSMime.obj
 0001:00006798       ?Read@?$IStreamImpl@UICAPIStm@@@@UAAJPAXKPAK@Z 10007798 f i exsmime_ALL:ExSMime.obj
 0001:000067f8       ?SetSize@?$IStreamImpl@UICAPIStm@@@@UAAJT_ULARGE_INTEGER@@@Z 100077f8 f i exsmime_ALL:ExSMime.obj
 0001:00006838       ?CopyTo@?$IStreamImpl@UICAPIStm@@@@UAAJPAUIStream@@T_ULARGE_INTEGER@@PAT3@2@Z 10007838 f i exsmime_ALL:ExSMime.obj
 0001:00006a4c       ?AtlRegisterTypeLib@ATL@@YAJPAUHINSTANCE__@@PBG@Z 10007a4c f i exsmime_ALL:ExSMime.obj
 0001:00006bf0       ?AtlComModuleRegisterServer@ATL@@YAJPAU_ATL_COM_MODULE70@1@HPBU_GUID@@@Z 10007bf0 f i exsmime_ALL:ExSMime.obj
 0001:00006c9c       ?QueryInterface@?$CComObject@VSMIME@@@ATL@@W3AAJABU_GUID@@PAPAX@Z 10007c9c f i exsmime_ALL:ExSMime.obj
 0001:00006ca4       ?QueryInterface@?$CComObject@VSMIME@@@ATL@@W7AAJABU_GUID@@PAPAX@Z 10007ca4 f i exsmime_ALL:ExSMime.obj
 0001:00006cac       ?UnregisterServer@CComModule@ATL@@QAAJHPBU_GUID@@@Z 10007cac f i exsmime_ALL:ExSMime.obj
 0001:00006d54       ?AtlComModuleGetClassObject@ATL@@YAJPAU_ATL_COM_MODULE70@1@ABU_GUID@@1PAPAX@Z 10007d54 f i exsmime_ALL:ExSMime.obj
 0001:00006e88       ??0CMIMEModule@@QAA@XZ     10007e88 f i exsmime_ALL:ExSMime.obj
 0001:00006ed0       ??_GCComClassFactory@ATL@@UAAPAXI@Z 10007ed0 f i exsmime_ALL:ExSMime.obj
 0001:00006ed0       ??_ECComClassFactory@ATL@@UAAPAXI@Z 10007ed0 f i exsmime_ALL:ExSMime.obj
 0001:00006f10       ?Add@?$CSimpleMap@PAGPAGVCExpansionVectorEqualHelper@ATL@@@ATL@@QAAHABQAG0@Z 10007f10 f i exsmime_ALL:ExSMime.obj
 0001:00006fa0       ?Allocate@?$CTempBuffer@G$0EAA@VCCRTAllocator@ATL@@@ATL@@QAAPAGI@Z 10007fa0 f i exsmime_ALL:ExSMime.obj
 0001:00007000       ?Allocate@?$CTempBuffer@G$0BAA@VCCRTAllocator@ATL@@@ATL@@QAAPAGI@Z 10008000 f i exsmime_ALL:ExSMime.obj
 0001:00007060       ?Allocate@?$CTempBuffer@E$0BAA@VCCRTAllocator@ATL@@@ATL@@QAAPAEI@Z 10008060 f i exsmime_ALL:ExSMime.obj
 0001:000070b8       ??1?$CTBucketHash@PBGPAVCAttribute@@@@QAA@XZ 100080b8 f i exsmime_ALL:ExSMime.obj
 0001:000070e8       ?RemoveAll@?$CTBucketHash@PBGPAVCAttribute@@@@QAAKP6AXABQBGABQAVCAttribute@@K@ZK@Z 100080e8 f i exsmime_ALL:ExSMime.obj
 0001:00007204       ?CreateInstance@?$CComObject@VCVirtualStream@@@ATL@@SAJPAPAV12@@Z 10008204 f i exsmime_ALL:ExSMime.obj
 0001:00007284       ?CreateInstance@CEncryptStreamClassFactory@@UAAJPAUIUnknown@@ABU_GUID@@PAPAX@Z 10008284 f i exsmime_ALL:ExSMime.obj
 0001:000073d4       ??1CMimeReader@@IAA@XZ     100083d4 f i exsmime_ALL:ExSMime.obj
 0001:000074fc       DllUnregisterServer        100084fc f   exsmime_ALL:ExSMime.obj
 0001:00007510       ?CreateInstance@?$CComCreator2@V?$CComCreator@V?$CComObject@VSMIME@@@ATL@@@ATL@@V?$CComFailCreator@$0?HPPLPOPA@@2@@ATL@@SAJPAXABU_GUID@@PAPAX@Z 10008510 f i exsmime_ALL:ExSMime.obj
 0001:00007544       ?AddRef@?$CComObjectNoLock@VCComClassFactory@ATL@@@ATL@@UAAKXZ 10008544 f i exsmime_ALL:ExSMime.obj
 0001:0000754c       ?Release@?$CComObjectNoLock@VCComClassFactory@ATL@@@ATL@@UAAKXZ 1000854c f i exsmime_ALL:ExSMime.obj
 0001:00007584       ?QueryInterface@?$CComObjectNoLock@VCComClassFactory@ATL@@@ATL@@UAAJABU_GUID@@PAPAX@Z 10008584 f i exsmime_ALL:ExSMime.obj
 0001:00007598       ?CreateInstance@?$CComCreator@V?$CComObject@VCAPIStm@@@ATL@@@ATL@@SAJPAXABU_GUID@@PAPAX@Z 10008598 f i exsmime_ALL:ExSMime.obj
 0001:00007680       ?AddRef@?$CComObjectNoLock@VCEncryptStreamClassFactory@@@ATL@@UAAKXZ 10008680 f i exsmime_ALL:ExSMime.obj
 0001:00007688       ?Release@?$CComObjectNoLock@VCEncryptStreamClassFactory@@@ATL@@UAAKXZ 10008688 f i exsmime_ALL:ExSMime.obj
 0001:000076c0       ?QueryInterface@?$CComObjectNoLock@VCEncryptStreamClassFactory@@@ATL@@UAAJABU_GUID@@PAPAX@Z 100086c0 f i exsmime_ALL:ExSMime.obj
 0001:000076d4       ??_G?$CComObjectNoLock@VCComClassFactory@ATL@@@ATL@@UAAPAXI@Z 100086d4 f i exsmime_ALL:ExSMime.obj
 0001:000076d4       ??_E?$CComObjectNoLock@VCComClassFactory@ATL@@@ATL@@UAAPAXI@Z 100086d4 f i exsmime_ALL:ExSMime.obj
 0001:0000771c       ??_E?$CComObjectNoLock@VCEncryptStreamClassFactory@@@ATL@@UAAPAXI@Z 1000871c f i exsmime_ALL:ExSMime.obj
 0001:0000771c       ??_G?$CComObjectNoLock@VCEncryptStreamClassFactory@@@ATL@@UAAPAXI@Z 1000871c f i exsmime_ALL:ExSMime.obj
 0001:00007764       ?Add@CExpansionVector@ATL@@QAAHPBG0@Z 10008764 f i exsmime_ALL:ExSMime.obj
 0001:00007864       ?AddReplacement@CRegObject@ATL@@UAAJPBG0@Z 10008864 f i exsmime_ALL:ExSMime.obj
 0001:000078a8       ?AddValue@CRegParser@ATL@@IAAJAAVCRegKey@2@PBGPAG@Z 100088a8 f i exsmime_ALL:ExSMime.obj
 0001:00007bd0       ?RegisterSubkeys@CRegParser@ATL@@IAAJPAGPAUHKEY__@@HH@Z 10008bd0 f i exsmime_ALL:ExSMime.obj
 0001:000081a0       ?GetClassObject@CComModule@ATL@@QAAJABU_GUID@@0PAPAX@Z 100091a0 f i exsmime_ALL:ExSMime.obj
 0001:000082b0       ??_GCMIMEModule@@UAAPAXI@Z 100092b0 f i exsmime_ALL:ExSMime.obj
 0001:000082b0       ??_ECMIMEModule@@UAAPAXI@Z 100092b0 f i exsmime_ALL:ExSMime.obj
 0001:000082e0       ??0CMimeEntity@@QAA@XZ     100092e0 f i exsmime_ALL:ExSMime.obj
 0001:00008394       ??0CMimeReader@@QAA@XZ     10009394 f i exsmime_ALL:ExSMime.obj
 0001:0000848c       ??0CMailBox@@QAA@XZ        1000948c f i exsmime_ALL:ExSMime.obj
 0001:00008500       ??0CQPEncoder@@QAA@XZ      10009500 f i exsmime_ALL:ExSMime.obj
 0001:00008574       ??0CQPDecoder@@QAA@XZ      10009574 f i exsmime_ALL:ExSMime.obj
 0001:000085d8       ??0CBase64Encoder@@QAA@XZ  100095d8 f i exsmime_ALL:ExSMime.obj
 0001:0000864c       ??0CBase64Decoder@@QAA@XZ  1000964c f i exsmime_ALL:ExSMime.obj
 0001:000086b4       ??0CBinHexEncoder@@QAA@XZ  100096b4 f i exsmime_ALL:ExSMime.obj
 0001:00008724       ??0CBinHexDecoder@@QAA@XZ  10009724 f i exsmime_ALL:ExSMime.obj
 0001:000087c0       ??0CUUEncoder@@QAA@XZ      100097c0 f i exsmime_ALL:ExSMime.obj
 0001:0000882c       ??0CUUDecoder@@QAA@XZ      1000982c f i exsmime_ALL:ExSMime.obj
 0001:00008894       ??0CRfc2047Encoder@@QAA@XZ 10009894 f i exsmime_ALL:ExSMime.obj
 0001:00008910       ??0CRfc2047Decoder@@QAA@XZ 10009910 f i exsmime_ALL:ExSMime.obj
 0001:0000897c       DllGetClassObject          1000997c f   exsmime_ALL:ExSMime.obj
 0001:00008994       ?CreateInstance@?$CComCreator@V?$CComObjectNoLock@VCComClassFactory@ATL@@@ATL@@@ATL@@SAJPAXABU_GUID@@PAPAX@Z 10009994 f i exsmime_ALL:ExSMime.obj
 0001:00008a74       ?CreateInstance@?$CComCreator2@V?$CComCreator@V?$CComObject@VCAPIStm@@@ATL@@@ATL@@V?$CComFailCreator@$0?HPPLPOPA@@2@@ATL@@SAJPAXABU_GUID@@PAPAX@Z 10009a74 f i exsmime_ALL:ExSMime.obj
 0001:00008aa8       ?CreateInstance@?$CComCreator@V?$CComObjectNoLock@VCEncryptStreamClassFactory@@@ATL@@@ATL@@SAJPAXABU_GUID@@PAPAX@Z 10009aa8 f i exsmime_ALL:ExSMime.obj
 0001:00008b88       ??0?$CComObject@VCMimeReader@@@ATL@@QAA@PAX@Z 10009b88 f i exsmime_ALL:ExSMime.obj
 0001:00008bd8       ?Size@CMimeReader@@MBA_KXZ 10009bd8 f i exsmime_ALL:ExSMime.obj
 0001:00008be8       ?Clone@?$IStreamImpl@UIStream@@@@UAAJPAPAUIStream@@@Z 10009be8 f i exsmime_ALL:ExSMime.obj
 0001:00008c08       ?AddRef@?$CComObject@VCMimeReader@@@ATL@@UAAKXZ 10009c08 f i exsmime_ALL:ExSMime.obj
 0001:00008c10       ?Release@?$CComObject@VCMimeReader@@@ATL@@UAAKXZ 10009c10 f i exsmime_ALL:ExSMime.obj
 0001:00008c48       ?QueryInterface@?$CComObject@VCMimeReader@@@ATL@@UAAJABU_GUID@@PAPAX@Z 10009c48 f i exsmime_ALL:ExSMime.obj
 0001:00008c5c       ?AddRef@?$CComObject@VCMimeReader@@@ATL@@W3AAKXZ 10009c5c f i exsmime_ALL:ExSMime.obj
 0001:00008c64       ?AddRef@?$CComObject@VCMimeReader@@@ATL@@W7AAKXZ 10009c64 f i exsmime_ALL:ExSMime.obj
 0001:00008c6c       ?QueryInterface@?$CComObject@VCMimeReader@@@ATL@@W3AAJABU_GUID@@PAPAX@Z 10009c6c f i exsmime_ALL:ExSMime.obj
 0001:00008c74       ?QueryInterface@?$CComObject@VCMimeReader@@@ATL@@W7AAJABU_GUID@@PAPAX@Z 10009c74 f i exsmime_ALL:ExSMime.obj
 0001:00008c7c       ?Release@?$CComObject@VCMimeReader@@@ATL@@W3AAKXZ 10009c7c f i exsmime_ALL:ExSMime.obj
 0001:00008c84       ?Release@?$CComObject@VCMimeReader@@@ATL@@W7AAKXZ 10009c84 f i exsmime_ALL:ExSMime.obj
 0001:00008c8c       ?Read@?$IStreamImpl@UIStream@@@@UAAJPAXKPAK@Z 10009c8c f i exsmime_ALL:ExSMime.obj
 0001:00008cec       ?CopyTo@?$IStreamImpl@UIStream@@@@UAAJPAUIStream@@T_ULARGE_INTEGER@@PAT3@2@Z 10009cec f i exsmime_ALL:ExSMime.obj
 0001:00008ef8       ??1?$CComObject@VCMimeReader@@@ATL@@UAA@XZ 10009ef8 f i exsmime_ALL:ExSMime.obj
 0001:00008f50       ??_G?$CComObject@VCMimeReader@@@ATL@@UAAPAXI@Z 10009f50 f i exsmime_ALL:ExSMime.obj
 0001:00008f50       ??_E?$CComObject@VCMimeReader@@@ATL@@UAAPAXI@Z 10009f50 f i exsmime_ALL:ExSMime.obj
 0001:00008f74       ??0?$CComObject@VCMimeEntity@@@ATL@@QAA@PAX@Z 10009f74 f i exsmime_ALL:ExSMime.obj
 0001:00008fd0       ?ThisNode@?$IMimeNodeImpl@UIMIMEEntity@@@@UAAPAUIMIMENode@@XZ 10009fd0 f i exsmime_ALL:ExSMime.obj
 0001:00008fd8       ??1?$CComObject@VCMimeEntity@@@ATL@@UAA@XZ 10009fd8 f i exsmime_ALL:ExSMime.obj
 0001:00009040       ??_G?$CComObject@VCMimeEntity@@@ATL@@UAAPAXI@Z 1000a040 f i exsmime_ALL:ExSMime.obj
 0001:00009040       ??_E?$CComObject@VCMimeEntity@@@ATL@@UAAPAXI@Z 1000a040 f i exsmime_ALL:ExSMime.obj
 0001:00009064       ?parent@?$IMimeNodeImpl@UIMIMEEntity@@@@UAAJPAPAUIMIMENode@@@Z 1000a064 f i exsmime_ALL:ExSMime.obj
 0001:0000906c       ?firstChild@?$IMimeNodeImpl@UIMIMEEntity@@@@UAAJPAPAUIMIMENode@@@Z 1000a06c f i exsmime_ALL:ExSMime.obj
 0001:00009074       ?lastChild@?$IMimeNodeImpl@UIMIMEEntity@@@@UAAJPAPAUIMIMENode@@@Z 1000a074 f i exsmime_ALL:ExSMime.obj
 0001:0000907c       ?nextSibling@?$IMimeNodeImpl@UIMIMEEntity@@@@UAAJPAPAUIMIMENode@@@Z 1000a07c f i exsmime_ALL:ExSMime.obj
 0001:00009084       ?previousSibling@?$IMimeNodeImpl@UIMIMEEntity@@@@UAAJPAPAUIMIMENode@@@Z 1000a084 f i exsmime_ALL:ExSMime.obj
 0001:0000908c       ?toString@?$IMimeNodeImpl@UIMIMEEntity@@@@UAAJKPAKQAE@Z 1000a08c f i exsmime_ALL:ExSMime.obj
 0001:00009094       ?toXMLString@?$IMimeNodeImpl@UIMIMEEntity@@@@UAAJKPAKQAE@Z 1000a094 f i exsmime_ALL:ExSMime.obj
 0001:0000909c       ?Serialize@?$IMimeNodeImpl@UIMIMEEntity@@@@UAAJKPAUISequentialStream@@@Z 1000a09c f i exsmime_ALL:ExSMime.obj
 0001:000090a4       ?setParent@?$IMimeNodeImpl@UIMIMEEntity@@@@UAAJPAUIMIMENode@@@Z 1000a0a4 f i exsmime_ALL:ExSMime.obj
 0001:000090ac       ?setNext@?$IMimeNodeImpl@UIMIMEEntity@@@@UAAJPAUIMIMENode@@@Z 1000a0ac f i exsmime_ALL:ExSMime.obj
 0001:000090b4       ?setPrevious@?$IMimeNodeImpl@UIMIMEEntity@@@@UAAJPAUIMIMENode@@@Z 1000a0b4 f i exsmime_ALL:ExSMime.obj
 0001:000090bc       ?remove@?$IMimeNodeImpl@UIMIMEEntity@@@@UAAJXZ 1000a0bc f i exsmime_ALL:ExSMime.obj
 0001:000090e4       ?removeChild@?$IMimeNodeImpl@UIMIMEEntity@@@@UAAJPAUIMIMENode@@@Z 1000a0e4 f i exsmime_ALL:ExSMime.obj
 0001:000090f4       ?_Delegate@CComObjectRootBase@ATL@@SAJPAXABU_GUID@@PAPAXK@Z 1000a0f4 f i exsmime_ALL:ExSMime.obj
 0001:0000911c       ?AddRef@?$CComObject@VCMimeEntity@@@ATL@@UAAKXZ 1000a11c f i exsmime_ALL:ExSMime.obj
 0001:00009124       ?Release@?$CComObject@VCMimeEntity@@@ATL@@UAAKXZ 1000a124 f i exsmime_ALL:ExSMime.obj
 0001:0000915c       ?Release@?$CComObject@VCMimeEntity@@@ATL@@WDE@AAKXZ 1000a15c f i exsmime_ALL:ExSMime.obj
 0001:00009164       ?AddRef@?$CComObject@VCMimeEntity@@@ATL@@WDE@AAKXZ 1000a164 f i exsmime_ALL:ExSMime.obj
 0001:0000916c       ?QueryInterface@?$CComObject@VCMimeEntity@@@ATL@@UAAJABU_GUID@@PAPAX@Z 1000a16c f i exsmime_ALL:ExSMime.obj
 0001:00009180       ?QueryInterface@?$CComObject@VCMimeEntity@@@ATL@@WDE@AAJABU_GUID@@PAPAX@Z 1000a180 f i exsmime_ALL:ExSMime.obj
 0001:00009188       ?GetControllingUnknown@CMimeEntity@@UAAPAUIUnknown@@XZ 1000a188 f i exsmime_ALL:ExSMime.obj
 0001:0000918c       ??0?$CComObject@VCMailBox@@@ATL@@QAA@PAX@Z 1000a18c f i exsmime_ALL:ExSMime.obj
 0001:000091e8       ?ThisNode@?$IMimeNodeImpl@UIMIMEMailBox@@@@UAAPAUIMIMENode@@XZ 1000a1e8 f i exsmime_ALL:ExSMime.obj
 0001:000091f0       ?parent@?$IMimeNodeImpl@UIMIMEMailBox@@@@UAAJPAPAUIMIMENode@@@Z 1000a1f0 f i exsmime_ALL:ExSMime.obj
 0001:000091f8       ?firstChild@?$IMimeNodeImpl@UIMIMEMailBox@@@@UAAJPAPAUIMIMENode@@@Z 1000a1f8 f i exsmime_ALL:ExSMime.obj
 0001:00009200       ?lastChild@?$IMimeNodeImpl@UIMIMEMailBox@@@@UAAJPAPAUIMIMENode@@@Z 1000a200 f i exsmime_ALL:ExSMime.obj
 0001:00009208       ?previousSibling@?$IMimeNodeImpl@UIMIMEMailBox@@@@UAAJPAPAUIMIMENode@@@Z 1000a208 f i exsmime_ALL:ExSMime.obj
 0001:00009210       ?toString@?$IMimeNodeImpl@UIMIMEMailBox@@@@UAAJKPAKQAE@Z 1000a210 f i exsmime_ALL:ExSMime.obj
 0001:00009218       ?toXMLString@?$IMimeNodeImpl@UIMIMEMailBox@@@@UAAJKPAKQAE@Z 1000a218 f i exsmime_ALL:ExSMime.obj
 0001:00009220       ?Serialize@?$IMimeNodeImpl@UIMIMEMailBox@@@@UAAJKPAUISequentialStream@@@Z 1000a220 f i exsmime_ALL:ExSMime.obj
 0001:00009228       ?setParent@?$IMimeNodeImpl@UIMIMEMailBox@@@@UAAJPAUIMIMENode@@@Z 1000a228 f i exsmime_ALL:ExSMime.obj
 0001:00009230       ?setNext@?$IMimeNodeImpl@UIMIMEMailBox@@@@UAAJPAUIMIMENode@@@Z 1000a230 f i exsmime_ALL:ExSMime.obj
 0001:00009238       ?setPrevious@?$IMimeNodeImpl@UIMIMEMailBox@@@@UAAJPAUIMIMENode@@@Z 1000a238 f i exsmime_ALL:ExSMime.obj
 0001:00009240       ?insertBefore@?$IMimeNodeImpl@UIMIMEMailBox@@@@UAAJPAUIMIMENode@@0@Z 1000a240 f i exsmime_ALL:ExSMime.obj
 0001:0000924c       ?remove@?$IMimeNodeImpl@UIMIMEMailBox@@@@UAAJXZ 1000a24c f i exsmime_ALL:ExSMime.obj
 0001:00009274       ?removeChild@?$IMimeNodeImpl@UIMIMEMailBox@@@@UAAJPAUIMIMENode@@@Z 1000a274 f i exsmime_ALL:ExSMime.obj
 0001:00009284       ??1?$CComObject@VCMailBox@@@ATL@@UAA@XZ 1000a284 f i exsmime_ALL:ExSMime.obj
 0001:000092e8       ?AddRef@?$CComObject@VCMailBox@@@ATL@@UAAKXZ 1000a2e8 f i exsmime_ALL:ExSMime.obj
 0001:000092fc       ?Release@?$CComObject@VCMailBox@@@ATL@@UAAKXZ 1000a2fc f i exsmime_ALL:ExSMime.obj
 0001:00009334       ?QueryInterface@?$CComObject@VCMailBox@@@ATL@@UAAJABU_GUID@@PAPAX@Z 1000a334 f i exsmime_ALL:ExSMime.obj
 0001:00009348       ??_E?$CComObject@VCMailBox@@@ATL@@UAAPAXI@Z 1000a348 f i exsmime_ALL:ExSMime.obj
 0001:00009348       ??_G?$CComObject@VCMailBox@@@ATL@@UAAPAXI@Z 1000a348 f i exsmime_ALL:ExSMime.obj
 0001:0000936c       ?AddRef@?$CComObject@VCMailBox@@@ATL@@WDE@AAKXZ 1000a36c f i exsmime_ALL:ExSMime.obj
 0001:00009374       ?QueryInterface@?$CComObject@VCMailBox@@@ATL@@WDE@AAJABU_GUID@@PAPAX@Z 1000a374 f i exsmime_ALL:ExSMime.obj
 0001:0000937c       ?Release@?$CComObject@VCMailBox@@@ATL@@WDE@AAKXZ 1000a37c f i exsmime_ALL:ExSMime.obj
 0001:00009384       ??0?$CComObject@VCBase64Encoder@@@ATL@@QAA@PAX@Z 1000a384 f i exsmime_ALL:ExSMime.obj
 0001:000093c8       ?Size@CMIMEEncoder@@MBA_KXZ 1000a3c8 f i exsmime_ALL:ExSMime.obj
 0001:000093ec       ?Revert@?$IStreamImpl@UIMIMEEncoder@@@@UAAJXZ 1000a3ec f i exsmime_ALL:ExSMime.obj
 0001:000093f8       ?LockRegion@?$IStreamImpl@UIMIMEEncoder@@@@UAAJT_ULARGE_INTEGER@@0K@Z 1000a3f8 f i exsmime_ALL:ExSMime.obj
 0001:00009410       ?UnlockRegion@?$IStreamImpl@UIMIMEEncoder@@@@UAAJT_ULARGE_INTEGER@@0K@Z 1000a410 f i exsmime_ALL:ExSMime.obj
 0001:00009428       ?AddRef@?$CComObject@VCBase64Encoder@@@ATL@@UAAKXZ 1000a428 f i exsmime_ALL:ExSMime.obj
 0001:00009430       ?Release@?$CComObject@VCBase64Encoder@@@ATL@@UAAKXZ 1000a430 f i exsmime_ALL:ExSMime.obj
 0001:00009468       ?QueryInterface@?$CComObject@VCBase64Encoder@@@ATL@@UAAJABU_GUID@@PAPAX@Z 1000a468 f i exsmime_ALL:ExSMime.obj
 0001:0000947c       ?Release@?$CComObject@VCBase64Encoder@@@ATL@@WDA@AAKXZ 1000a47c f i exsmime_ALL:ExSMime.obj
 0001:00009484       ?AddRef@?$CComObject@VCBase64Encoder@@@ATL@@WDA@AAKXZ 1000a484 f i exsmime_ALL:ExSMime.obj
 0001:0000948c       ?QueryInterface@?$CComObject@VCBase64Encoder@@@ATL@@WDA@AAJABU_GUID@@PAPAX@Z 1000a48c f i exsmime_ALL:ExSMime.obj
 0001:00009494       ?SetSize@?$IStreamImpl@UIMIMEEncoder@@@@UAAJT_ULARGE_INTEGER@@@Z 1000a494 f i exsmime_ALL:ExSMime.obj
 0001:000094d4       ?CopyTo@?$IStreamImpl@UIMIMEEncoder@@@@UAAJPAUIStream@@T_ULARGE_INTEGER@@PAT3@2@Z 1000a4d4 f i exsmime_ALL:ExSMime.obj
 0001:000096e0       ??1?$CComObject@VCBase64Encoder@@@ATL@@UAA@XZ 1000a6e0 f i exsmime_ALL:ExSMime.obj
 0001:0000972c       ??_G?$CComObject@VCBase64Encoder@@@ATL@@UAAPAXI@Z 1000a72c f i exsmime_ALL:ExSMime.obj
 0001:0000972c       ??_E?$CComObject@VCBase64Encoder@@@ATL@@UAAPAXI@Z 1000a72c f i exsmime_ALL:ExSMime.obj
 0001:00009750       ??0?$CComObject@VCBase64Decoder@@@ATL@@QAA@PAX@Z 1000a750 f i exsmime_ALL:ExSMime.obj
 0001:00009794       ?AddRef@?$CComObject@VCBase64Decoder@@@ATL@@UAAKXZ 1000a794 f i exsmime_ALL:ExSMime.obj
 0001:0000979c       ?Release@?$CComObject@VCBase64Decoder@@@ATL@@UAAKXZ 1000a79c f i exsmime_ALL:ExSMime.obj
 0001:000097d4       ?QueryInterface@?$CComObject@VCBase64Decoder@@@ATL@@UAAJABU_GUID@@PAPAX@Z 1000a7d4 f i exsmime_ALL:ExSMime.obj
 0001:000097e8       ?Release@?$CComObject@VCBase64Decoder@@@ATL@@WDA@AAKXZ 1000a7e8 f i exsmime_ALL:ExSMime.obj
 0001:000097f0       ?AddRef@?$CComObject@VCBase64Decoder@@@ATL@@WDA@AAKXZ 1000a7f0 f i exsmime_ALL:ExSMime.obj
 0001:000097f8       ?QueryInterface@?$CComObject@VCBase64Decoder@@@ATL@@WDA@AAJABU_GUID@@PAPAX@Z 1000a7f8 f i exsmime_ALL:ExSMime.obj
 0001:00009800       ??1?$CComObject@VCBase64Decoder@@@ATL@@UAA@XZ 1000a800 f i exsmime_ALL:ExSMime.obj
 0001:0000984c       ??_E?$CComObject@VCBase64Decoder@@@ATL@@UAAPAXI@Z 1000a84c f i exsmime_ALL:ExSMime.obj
 0001:0000984c       ??_G?$CComObject@VCBase64Decoder@@@ATL@@UAAPAXI@Z 1000a84c f i exsmime_ALL:ExSMime.obj
 0001:00009870       ??0?$CComObject@VCQPEncoder@@@ATL@@QAA@PAX@Z 1000a870 f i exsmime_ALL:ExSMime.obj
 0001:000098b4       ?AddRef@?$CComObject@VCQPEncoder@@@ATL@@UAAKXZ 1000a8b4 f i exsmime_ALL:ExSMime.obj
 0001:000098bc       ?Release@?$CComObject@VCQPEncoder@@@ATL@@UAAKXZ 1000a8bc f i exsmime_ALL:ExSMime.obj
 0001:000098f4       ?QueryInterface@?$CComObject@VCQPEncoder@@@ATL@@UAAJABU_GUID@@PAPAX@Z 1000a8f4 f i exsmime_ALL:ExSMime.obj
 0001:00009908       ?QueryInterface@?$CComObject@VCQPEncoder@@@ATL@@WDA@AAJABU_GUID@@PAPAX@Z 1000a908 f i exsmime_ALL:ExSMime.obj
 0001:00009910       ?Release@?$CComObject@VCQPEncoder@@@ATL@@WDA@AAKXZ 1000a910 f i exsmime_ALL:ExSMime.obj
 0001:00009918       ?AddRef@?$CComObject@VCQPEncoder@@@ATL@@WDA@AAKXZ 1000a918 f i exsmime_ALL:ExSMime.obj
 0001:00009920       ??1?$CComObject@VCQPEncoder@@@ATL@@UAA@XZ 1000a920 f i exsmime_ALL:ExSMime.obj
 0001:0000996c       ??_E?$CComObject@VCQPEncoder@@@ATL@@UAAPAXI@Z 1000a96c f i exsmime_ALL:ExSMime.obj
 0001:0000996c       ??_G?$CComObject@VCQPEncoder@@@ATL@@UAAPAXI@Z 1000a96c f i exsmime_ALL:ExSMime.obj
 0001:00009990       ??0?$CComObject@VCQPDecoder@@@ATL@@QAA@PAX@Z 1000a990 f i exsmime_ALL:ExSMime.obj
 0001:000099d4       ?AddRef@?$CComObject@VCQPDecoder@@@ATL@@UAAKXZ 1000a9d4 f i exsmime_ALL:ExSMime.obj
 0001:000099dc       ?Release@?$CComObject@VCQPDecoder@@@ATL@@UAAKXZ 1000a9dc f i exsmime_ALL:ExSMime.obj
 0001:00009a14       ?QueryInterface@?$CComObject@VCQPDecoder@@@ATL@@UAAJABU_GUID@@PAPAX@Z 1000aa14 f i exsmime_ALL:ExSMime.obj
 0001:00009a28       ?Release@?$CComObject@VCQPDecoder@@@ATL@@WDA@AAKXZ 1000aa28 f i exsmime_ALL:ExSMime.obj
 0001:00009a30       ?AddRef@?$CComObject@VCQPDecoder@@@ATL@@WDA@AAKXZ 1000aa30 f i exsmime_ALL:ExSMime.obj
 0001:00009a38       ?QueryInterface@?$CComObject@VCQPDecoder@@@ATL@@WDA@AAJABU_GUID@@PAPAX@Z 1000aa38 f i exsmime_ALL:ExSMime.obj
 0001:00009a40       ??1?$CComObject@VCQPDecoder@@@ATL@@UAA@XZ 1000aa40 f i exsmime_ALL:ExSMime.obj
 0001:00009a8c       ??_G?$CComObject@VCQPDecoder@@@ATL@@UAAPAXI@Z 1000aa8c f i exsmime_ALL:ExSMime.obj
 0001:00009a8c       ??_E?$CComObject@VCQPDecoder@@@ATL@@UAAPAXI@Z 1000aa8c f i exsmime_ALL:ExSMime.obj
 0001:00009ab0       ??0?$CComObject@VCBinHexEncoder@@@ATL@@QAA@PAX@Z 1000aab0 f i exsmime_ALL:ExSMime.obj
 0001:00009af4       ?AddRef@?$CComObject@VCBinHexEncoder@@@ATL@@UAAKXZ 1000aaf4 f i exsmime_ALL:ExSMime.obj
 0001:00009afc       ?Release@?$CComObject@VCBinHexEncoder@@@ATL@@UAAKXZ 1000aafc f i exsmime_ALL:ExSMime.obj
 0001:00009b34       ?QueryInterface@?$CComObject@VCBinHexEncoder@@@ATL@@UAAJABU_GUID@@PAPAX@Z 1000ab34 f i exsmime_ALL:ExSMime.obj
 0001:00009b48       ?QueryInterface@?$CComObject@VCBinHexEncoder@@@ATL@@WDA@AAJABU_GUID@@PAPAX@Z 1000ab48 f i exsmime_ALL:ExSMime.obj
 0001:00009b50       ?Release@?$CComObject@VCBinHexEncoder@@@ATL@@WDA@AAKXZ 1000ab50 f i exsmime_ALL:ExSMime.obj
 0001:00009b58       ?AddRef@?$CComObject@VCBinHexEncoder@@@ATL@@WDA@AAKXZ 1000ab58 f i exsmime_ALL:ExSMime.obj
 0001:00009b60       ??1?$CComObject@VCBinHexEncoder@@@ATL@@UAA@XZ 1000ab60 f i exsmime_ALL:ExSMime.obj
 0001:00009bac       ??_E?$CComObject@VCBinHexEncoder@@@ATL@@UAAPAXI@Z 1000abac f i exsmime_ALL:ExSMime.obj
 0001:00009bac       ??_G?$CComObject@VCBinHexEncoder@@@ATL@@UAAPAXI@Z 1000abac f i exsmime_ALL:ExSMime.obj
 0001:00009bd0       ??0?$CComObject@VCBinHexDecoder@@@ATL@@QAA@PAX@Z 1000abd0 f i exsmime_ALL:ExSMime.obj
 0001:00009c14       ?AddRef@?$CComObject@VCBinHexDecoder@@@ATL@@UAAKXZ 1000ac14 f i exsmime_ALL:ExSMime.obj
 0001:00009c1c       ?Release@?$CComObject@VCBinHexDecoder@@@ATL@@UAAKXZ 1000ac1c f i exsmime_ALL:ExSMime.obj
 0001:00009c54       ?QueryInterface@?$CComObject@VCBinHexDecoder@@@ATL@@UAAJABU_GUID@@PAPAX@Z 1000ac54 f i exsmime_ALL:ExSMime.obj
 0001:00009c68       ?AddRef@?$CComObject@VCBinHexDecoder@@@ATL@@WDA@AAKXZ 1000ac68 f i exsmime_ALL:ExSMime.obj
 0001:00009c70       ?QueryInterface@?$CComObject@VCBinHexDecoder@@@ATL@@WDA@AAJABU_GUID@@PAPAX@Z 1000ac70 f i exsmime_ALL:ExSMime.obj
 0001:00009c78       ?Release@?$CComObject@VCBinHexDecoder@@@ATL@@WDA@AAKXZ 1000ac78 f i exsmime_ALL:ExSMime.obj
 0001:00009c80       ??1?$CComObject@VCBinHexDecoder@@@ATL@@UAA@XZ 1000ac80 f i exsmime_ALL:ExSMime.obj
 0001:00009ccc       ??_E?$CComObject@VCBinHexDecoder@@@ATL@@UAAPAXI@Z 1000accc f i exsmime_ALL:ExSMime.obj
 0001:00009ccc       ??_G?$CComObject@VCBinHexDecoder@@@ATL@@UAAPAXI@Z 1000accc f i exsmime_ALL:ExSMime.obj
 0001:00009cf0       ??0?$CComObject@VCUUEncoder@@@ATL@@QAA@PAX@Z 1000acf0 f i exsmime_ALL:ExSMime.obj
 0001:00009d34       ?AddRef@?$CComObject@VCUUEncoder@@@ATL@@UAAKXZ 1000ad34 f i exsmime_ALL:ExSMime.obj
 0001:00009d3c       ?Release@?$CComObject@VCUUEncoder@@@ATL@@UAAKXZ 1000ad3c f i exsmime_ALL:ExSMime.obj
 0001:00009d74       ?QueryInterface@?$CComObject@VCUUEncoder@@@ATL@@UAAJABU_GUID@@PAPAX@Z 1000ad74 f i exsmime_ALL:ExSMime.obj
 0001:00009d88       ?Release@?$CComObject@VCUUEncoder@@@ATL@@WDA@AAKXZ 1000ad88 f i exsmime_ALL:ExSMime.obj
 0001:00009d90       ?AddRef@?$CComObject@VCUUEncoder@@@ATL@@WDA@AAKXZ 1000ad90 f i exsmime_ALL:ExSMime.obj
 0001:00009d98       ?QueryInterface@?$CComObject@VCUUEncoder@@@ATL@@WDA@AAJABU_GUID@@PAPAX@Z 1000ad98 f i exsmime_ALL:ExSMime.obj
 0001:00009da0       ??1?$CComObject@VCUUEncoder@@@ATL@@UAA@XZ 1000ada0 f i exsmime_ALL:ExSMime.obj
 0001:00009dec       ??_E?$CComObject@VCUUEncoder@@@ATL@@UAAPAXI@Z 1000adec f i exsmime_ALL:ExSMime.obj
 0001:00009dec       ??_G?$CComObject@VCUUEncoder@@@ATL@@UAAPAXI@Z 1000adec f i exsmime_ALL:ExSMime.obj
 0001:00009e10       ??0?$CComObject@VCUUDecoder@@@ATL@@QAA@PAX@Z 1000ae10 f i exsmime_ALL:ExSMime.obj
 0001:00009e54       ?AddRef@?$CComObject@VCUUDecoder@@@ATL@@UAAKXZ 1000ae54 f i exsmime_ALL:ExSMime.obj
 0001:00009e5c       ?Release@?$CComObject@VCUUDecoder@@@ATL@@UAAKXZ 1000ae5c f i exsmime_ALL:ExSMime.obj
 0001:00009e94       ?QueryInterface@?$CComObject@VCUUDecoder@@@ATL@@UAAJABU_GUID@@PAPAX@Z 1000ae94 f i exsmime_ALL:ExSMime.obj
 0001:00009ea8       ?AddRef@?$CComObject@VCUUDecoder@@@ATL@@WDA@AAKXZ 1000aea8 f i exsmime_ALL:ExSMime.obj
 0001:00009eb0       ?QueryInterface@?$CComObject@VCUUDecoder@@@ATL@@WDA@AAJABU_GUID@@PAPAX@Z 1000aeb0 f i exsmime_ALL:ExSMime.obj
 0001:00009eb8       ?Release@?$CComObject@VCUUDecoder@@@ATL@@WDA@AAKXZ 1000aeb8 f i exsmime_ALL:ExSMime.obj
 0001:00009ec0       ??1?$CComObject@VCUUDecoder@@@ATL@@UAA@XZ 1000aec0 f i exsmime_ALL:ExSMime.obj
 0001:00009f0c       ??_G?$CComObject@VCUUDecoder@@@ATL@@UAAPAXI@Z 1000af0c f i exsmime_ALL:ExSMime.obj
 0001:00009f0c       ??_E?$CComObject@VCUUDecoder@@@ATL@@UAAPAXI@Z 1000af0c f i exsmime_ALL:ExSMime.obj
 0001:00009f30       ??0?$CComObject@VCRfc2047Encoder@@@ATL@@QAA@PAX@Z 1000af30 f i exsmime_ALL:ExSMime.obj
 0001:00009f74       ?AddRef@?$CComObject@VCRfc2047Encoder@@@ATL@@UAAKXZ 1000af74 f i exsmime_ALL:ExSMime.obj
 0001:00009f7c       ?Release@?$CComObject@VCRfc2047Encoder@@@ATL@@UAAKXZ 1000af7c f i exsmime_ALL:ExSMime.obj
 0001:00009fb4       ?QueryInterface@?$CComObject@VCRfc2047Encoder@@@ATL@@UAAJABU_GUID@@PAPAX@Z 1000afb4 f i exsmime_ALL:ExSMime.obj
 0001:00009fc8       ?Release@?$CComObject@VCRfc2047Encoder@@@ATL@@WDA@AAKXZ 1000afc8 f i exsmime_ALL:ExSMime.obj
 0001:00009fd0       ?AddRef@?$CComObject@VCRfc2047Encoder@@@ATL@@WDA@AAKXZ 1000afd0 f i exsmime_ALL:ExSMime.obj
 0001:00009fd8       ?QueryInterface@?$CComObject@VCRfc2047Encoder@@@ATL@@WDA@AAJABU_GUID@@PAPAX@Z 1000afd8 f i exsmime_ALL:ExSMime.obj
 0001:00009fe0       ??1?$CComObject@VCRfc2047Encoder@@@ATL@@UAA@XZ 1000afe0 f i exsmime_ALL:ExSMime.obj
 0001:0000a02c       ??_E?$CComObject@VCRfc2047Encoder@@@ATL@@UAAPAXI@Z 1000b02c f i exsmime_ALL:ExSMime.obj
 0001:0000a02c       ??_G?$CComObject@VCRfc2047Encoder@@@ATL@@UAAPAXI@Z 1000b02c f i exsmime_ALL:ExSMime.obj
 0001:0000a050       ??0?$CComObject@VCRfc2047Decoder@@@ATL@@QAA@PAX@Z 1000b050 f i exsmime_ALL:ExSMime.obj
 0001:0000a094       ?AddRef@?$CComObject@VCRfc2047Decoder@@@ATL@@UAAKXZ 1000b094 f i exsmime_ALL:ExSMime.obj
 0001:0000a09c       ?Release@?$CComObject@VCRfc2047Decoder@@@ATL@@UAAKXZ 1000b09c f i exsmime_ALL:ExSMime.obj
 0001:0000a0d4       ?QueryInterface@?$CComObject@VCRfc2047Decoder@@@ATL@@UAAJABU_GUID@@PAPAX@Z 1000b0d4 f i exsmime_ALL:ExSMime.obj
 0001:0000a0e8       ?Release@?$CComObject@VCRfc2047Decoder@@@ATL@@WDA@AAKXZ 1000b0e8 f i exsmime_ALL:ExSMime.obj
 0001:0000a0f0       ?AddRef@?$CComObject@VCRfc2047Decoder@@@ATL@@WDA@AAKXZ 1000b0f0 f i exsmime_ALL:ExSMime.obj
 0001:0000a0f8       ?QueryInterface@?$CComObject@VCRfc2047Decoder@@@ATL@@WDA@AAJABU_GUID@@PAPAX@Z 1000b0f8 f i exsmime_ALL:ExSMime.obj
 0001:0000a100       ??1?$CComObject@VCRfc2047Decoder@@@ATL@@UAA@XZ 1000b100 f i exsmime_ALL:ExSMime.obj
 0001:0000a14c       ??_E?$CComObject@VCRfc2047Decoder@@@ATL@@UAAPAXI@Z 1000b14c f i exsmime_ALL:ExSMime.obj
 0001:0000a14c       ??_G?$CComObject@VCRfc2047Decoder@@@ATL@@UAAPAXI@Z 1000b14c f i exsmime_ALL:ExSMime.obj
 0001:0000a170       ??0?$CComContainedObject@VCMimeEntity@@@ATL@@QAA@PAX@Z 1000b170 f i exsmime_ALL:ExSMime.obj
 0001:0000a1bc       ?GetControllingUnknown@?$CComContainedObject@VCMimeEntity@@@ATL@@UAAPAUIUnknown@@XZ 1000b1bc f i exsmime_ALL:ExSMime.obj
 0001:0000a1c4       ?AddRef@?$CComContainedObject@VCMimeEntity@@@ATL@@UAAKXZ 1000b1c4 f i exsmime_ALL:ExSMime.obj
 0001:0000a1e0       ?Release@?$CComContainedObject@VCMimeEntity@@@ATL@@UAAKXZ 1000b1e0 f i exsmime_ALL:ExSMime.obj
 0001:0000a1fc       ?QueryInterface@?$CComContainedObject@VCMimeEntity@@@ATL@@UAAJABU_GUID@@PAPAX@Z 1000b1fc f i exsmime_ALL:ExSMime.obj
 0001:0000a218       ?QueryInterface@?$CComContainedObject@VCMimeEntity@@@ATL@@WDE@AAJABU_GUID@@PAPAX@Z 1000b218 f i exsmime_ALL:ExSMime.obj
 0001:0000a220       ?Release@?$CComContainedObject@VCMimeEntity@@@ATL@@WDE@AAKXZ 1000b220 f i exsmime_ALL:ExSMime.obj
 0001:0000a228       ?AddRef@?$CComContainedObject@VCMimeEntity@@@ATL@@WDE@AAKXZ 1000b228 f i exsmime_ALL:ExSMime.obj
 0001:0000a230       ??0?$CComContainedObject@VCMailBox@@@ATL@@QAA@PAX@Z 1000b230 f i exsmime_ALL:ExSMime.obj
 0001:0000a27c       ?AddRef@?$CComContainedObject@VCMailBox@@@ATL@@UAAKXZ 1000b27c f i exsmime_ALL:ExSMime.obj
 0001:0000a298       ?Release@?$CComContainedObject@VCMailBox@@@ATL@@UAAKXZ 1000b298 f i exsmime_ALL:ExSMime.obj
 0001:0000a2b4       ?QueryInterface@?$CComContainedObject@VCMailBox@@@ATL@@UAAJABU_GUID@@PAPAX@Z 1000b2b4 f i exsmime_ALL:ExSMime.obj
 0001:0000a2d0       ?Release@?$CComContainedObject@VCMailBox@@@ATL@@WDE@AAKXZ 1000b2d0 f i exsmime_ALL:ExSMime.obj
 0001:0000a2d8       ?AddRef@?$CComContainedObject@VCMailBox@@@ATL@@WDE@AAKXZ 1000b2d8 f i exsmime_ALL:ExSMime.obj
 0001:0000a2e0       ?QueryInterface@?$CComContainedObject@VCMailBox@@@ATL@@WDE@AAJABU_GUID@@PAPAX@Z 1000b2e0 f i exsmime_ALL:ExSMime.obj
 0001:0000a2f0       ?RegisterBuffer@CRegParser@ATL@@QAAJPAGH@Z 1000b2f0 f i exsmime_ALL:ExSMime.obj
 0001:0000a424       ?RegisterServer@CComModule@ATL@@QAAJHPBU_GUID@@@Z 1000b424 f i exsmime_ALL:ExSMime.obj
 0001:0000a4e4       DllRegisterServer          1000b4e4 f   exsmime_ALL:ExSMime.obj
 0001:0000a4f8       ?CreateInstance@?$CComCreator@V?$CComObject@VCMimeReader@@@ATL@@@ATL@@SAJPAXABU_GUID@@PAPAX@Z 1000b4f8 f i exsmime_ALL:ExSMime.obj
 0001:0000a5dc       ?CreateInstance@?$CComCreator@V?$CComObject@VCMimeEntity@@@ATL@@@ATL@@SAJPAXABU_GUID@@PAPAX@Z 1000b5dc f i exsmime_ALL:ExSMime.obj
 0001:0000a6a4       ?CreateInstance@?$CComCreator@V?$CComObject@VCMailBox@@@ATL@@@ATL@@SAJPAXABU_GUID@@PAPAX@Z 1000b6a4 f i exsmime_ALL:ExSMime.obj
 0001:0000a74c       ?CreateInstance@?$CComCreator@V?$CComObject@VCBase64Encoder@@@ATL@@@ATL@@SAJPAXABU_GUID@@PAPAX@Z 1000b74c f i exsmime_ALL:ExSMime.obj
 0001:0000a830       ?CreateInstance@?$CComCreator@V?$CComObject@VCBase64Decoder@@@ATL@@@ATL@@SAJPAXABU_GUID@@PAPAX@Z 1000b830 f i exsmime_ALL:ExSMime.obj
 0001:0000a914       ?CreateInstance@?$CComCreator@V?$CComObject@VCQPEncoder@@@ATL@@@ATL@@SAJPAXABU_GUID@@PAPAX@Z 1000b914 f i exsmime_ALL:ExSMime.obj
 0001:0000a9f8       ?CreateInstance@?$CComCreator@V?$CComObject@VCQPDecoder@@@ATL@@@ATL@@SAJPAXABU_GUID@@PAPAX@Z 1000b9f8 f i exsmime_ALL:ExSMime.obj
 0001:0000aadc       ?CreateInstance@?$CComCreator@V?$CComObject@VCBinHexEncoder@@@ATL@@@ATL@@SAJPAXABU_GUID@@PAPAX@Z 1000badc f i exsmime_ALL:ExSMime.obj
 0001:0000abc0       ?CreateInstance@?$CComCreator@V?$CComObject@VCBinHexDecoder@@@ATL@@@ATL@@SAJPAXABU_GUID@@PAPAX@Z 1000bbc0 f i exsmime_ALL:ExSMime.obj
 0001:0000aca4       ?CreateInstance@?$CComCreator@V?$CComObject@VCUUEncoder@@@ATL@@@ATL@@SAJPAXABU_GUID@@PAPAX@Z 1000bca4 f i exsmime_ALL:ExSMime.obj
 0001:0000ad88       ?CreateInstance@?$CComCreator@V?$CComObject@VCUUDecoder@@@ATL@@@ATL@@SAJPAXABU_GUID@@PAPAX@Z 1000bd88 f i exsmime_ALL:ExSMime.obj
 0001:0000ae6c       ?CreateInstance@?$CComCreator@V?$CComObject@VCRfc2047Encoder@@@ATL@@@ATL@@SAJPAXABU_GUID@@PAPAX@Z 1000be6c f i exsmime_ALL:ExSMime.obj
 0001:0000af50       ?CreateInstance@?$CComCreator@V?$CComObject@VCRfc2047Decoder@@@ATL@@@ATL@@SAJPAXABU_GUID@@PAPAX@Z 1000bf50 f i exsmime_ALL:ExSMime.obj
 0001:0000b034       ??0?$CComAggObject@VCMimeEntity@@@ATL@@QAA@PAX@Z 1000c034 f i exsmime_ALL:ExSMime.obj
 0001:0000b074       ?AddRef@?$CComAggObject@VCMimeEntity@@@ATL@@UAAKXZ 1000c074 f i exsmime_ALL:ExSMime.obj
 0001:0000b07c       ?Release@?$CComAggObject@VCMimeEntity@@@ATL@@UAAKXZ 1000c07c f i exsmime_ALL:ExSMime.obj
 0001:0000b0b4       ??1?$CComAggObject@VCMimeEntity@@@ATL@@UAA@XZ 1000c0b4 f i exsmime_ALL:ExSMime.obj
 0001:0000b104       ?QueryInterface@?$CComAggObject@VCMimeEntity@@@ATL@@UAAJABU_GUID@@PAPAX@Z 1000c104 f i exsmime_ALL:ExSMime.obj
 0001:0000b190       ??_E?$CComAggObject@VCMimeEntity@@@ATL@@UAAPAXI@Z 1000c190 f i exsmime_ALL:ExSMime.obj
 0001:0000b190       ??_G?$CComAggObject@VCMimeEntity@@@ATL@@UAAPAXI@Z 1000c190 f i exsmime_ALL:ExSMime.obj
 0001:0000b1b4       ??0?$CComAggObject@VCMailBox@@@ATL@@QAA@PAX@Z 1000c1b4 f i exsmime_ALL:ExSMime.obj
 0001:0000b1f4       ?AddRef@?$CComAggObject@VCMailBox@@@ATL@@UAAKXZ 1000c1f4 f i exsmime_ALL:ExSMime.obj
 0001:0000b208       ?Release@?$CComAggObject@VCMailBox@@@ATL@@UAAKXZ 1000c208 f i exsmime_ALL:ExSMime.obj
 0001:0000b240       ?QueryInterface@?$CComAggObject@VCMailBox@@@ATL@@UAAJABU_GUID@@PAPAX@Z 1000c240 f i exsmime_ALL:ExSMime.obj
 0001:0000b2cc       ??1?$CComAggObject@VCMailBox@@@ATL@@UAA@XZ 1000c2cc f i exsmime_ALL:ExSMime.obj
 0001:0000b30c       ??_E?$CComAggObject@VCMailBox@@@ATL@@UAAPAXI@Z 1000c30c f i exsmime_ALL:ExSMime.obj
 0001:0000b30c       ??_G?$CComAggObject@VCMailBox@@@ATL@@UAAPAXI@Z 1000c30c f i exsmime_ALL:ExSMime.obj
 0001:0000b338       ?RegisterFromResource@CRegObject@ATL@@IAAJPBG00H@Z 1000c338 f i exsmime_ALL:ExSMime.obj
 0001:0000b4b4       ?UpdateRegistryFromResourceS@CAtlModule@ATL@@QAAJPBGHPAU_ATL_REGMAP_ENTRY@2@@Z 1000c4b4 f i exsmime_ALL:ExSMime.obj
 0001:0000b714       ?UpdateRegistryFromResourceS@CAtlModule@ATL@@QAAJIHPAU_ATL_REGMAP_ENTRY@2@@Z 1000c714 f i exsmime_ALL:ExSMime.obj
 0001:0000b940       ?CreateInstance@?$CComCreator2@V?$CComCreator@V?$CComObject@VCMimeReader@@@ATL@@@ATL@@V?$CComFailCreator@$0?HPPLPOPA@@2@@ATL@@SAJPAXABU_GUID@@PAPAX@Z 1000c940 f i exsmime_ALL:ExSMime.obj
 0001:0000b974       ?CreateInstance@?$CComCreator2@V?$CComCreator@V?$CComObject@VCBase64Encoder@@@ATL@@@ATL@@V?$CComFailCreator@$0?HPPLPOPA@@2@@ATL@@SAJPAXABU_GUID@@PAPAX@Z 1000c974 f i exsmime_ALL:ExSMime.obj
 0001:0000b9a8       ?CreateInstance@?$CComCreator2@V?$CComCreator@V?$CComObject@VCBase64Decoder@@@ATL@@@ATL@@V?$CComFailCreator@$0?HPPLPOPA@@2@@ATL@@SAJPAXABU_GUID@@PAPAX@Z 1000c9a8 f i exsmime_ALL:ExSMime.obj
 0001:0000b9dc       ?CreateInstance@?$CComCreator2@V?$CComCreator@V?$CComObject@VCQPEncoder@@@ATL@@@ATL@@V?$CComFailCreator@$0?HPPLPOPA@@2@@ATL@@SAJPAXABU_GUID@@PAPAX@Z 1000c9dc f i exsmime_ALL:ExSMime.obj
 0001:0000ba10       ?CreateInstance@?$CComCreator2@V?$CComCreator@V?$CComObject@VCQPDecoder@@@ATL@@@ATL@@V?$CComFailCreator@$0?HPPLPOPA@@2@@ATL@@SAJPAXABU_GUID@@PAPAX@Z 1000ca10 f i exsmime_ALL:ExSMime.obj
 0001:0000ba44       ?CreateInstance@?$CComCreator2@V?$CComCreator@V?$CComObject@VCBinHexEncoder@@@ATL@@@ATL@@V?$CComFailCreator@$0?HPPLPOPA@@2@@ATL@@SAJPAXABU_GUID@@PAPAX@Z 1000ca44 f i exsmime_ALL:ExSMime.obj
 0001:0000ba78       ?CreateInstance@?$CComCreator2@V?$CComCreator@V?$CComObject@VCBinHexDecoder@@@ATL@@@ATL@@V?$CComFailCreator@$0?HPPLPOPA@@2@@ATL@@SAJPAXABU_GUID@@PAPAX@Z 1000ca78 f i exsmime_ALL:ExSMime.obj
 0001:0000baac       ?CreateInstance@?$CComCreator2@V?$CComCreator@V?$CComObject@VCUUEncoder@@@ATL@@@ATL@@V?$CComFailCreator@$0?HPPLPOPA@@2@@ATL@@SAJPAXABU_GUID@@PAPAX@Z 1000caac f i exsmime_ALL:ExSMime.obj
 0001:0000bae0       ?CreateInstance@?$CComCreator2@V?$CComCreator@V?$CComObject@VCUUDecoder@@@ATL@@@ATL@@V?$CComFailCreator@$0?HPPLPOPA@@2@@ATL@@SAJPAXABU_GUID@@PAPAX@Z 1000cae0 f i exsmime_ALL:ExSMime.obj
 0001:0000bb14       ?CreateInstance@?$CComCreator2@V?$CComCreator@V?$CComObject@VCRfc2047Encoder@@@ATL@@@ATL@@V?$CComFailCreator@$0?HPPLPOPA@@2@@ATL@@SAJPAXABU_GUID@@PAPAX@Z 1000cb14 f i exsmime_ALL:ExSMime.obj
 0001:0000bb48       ?CreateInstance@?$CComCreator2@V?$CComCreator@V?$CComObject@VCRfc2047Decoder@@@ATL@@@ATL@@V?$CComFailCreator@$0?HPPLPOPA@@2@@ATL@@SAJPAXABU_GUID@@PAPAX@Z 1000cb48 f i exsmime_ALL:ExSMime.obj
 0001:0000bb7c       ?CreateInstance@?$CComCreator@V?$CComAggObject@VCMimeEntity@@@ATL@@@ATL@@SAJPAXABU_GUID@@PAPAX@Z 1000cb7c f i exsmime_ALL:ExSMime.obj
 0001:0000bc34       ?CreateInstance@?$CComCreator@V?$CComAggObject@VCMailBox@@@ATL@@@ATL@@SAJPAXABU_GUID@@PAPAX@Z 1000cc34 f i exsmime_ALL:ExSMime.obj
 0001:0000bcc8       ?UpdateRegistryFromResourceS@CComModule@ATL@@UAAJPBGHPAU_ATL_REGMAP_ENTRY@2@@Z 1000ccc8 f i exsmime_ALL:ExSMime.obj
 0001:0000bccc       ?UpdateRegistryFromResourceS@CComModule@ATL@@UAAJIHPAU_ATL_REGMAP_ENTRY@2@@Z 1000cccc f i exsmime_ALL:ExSMime.obj
 0001:0000bcd0       ?UpdateRegistry@SMIME@@SAJH@Z 1000ccd0 f i exsmime_ALL:ExSMime.obj
 0001:0000bce8       ?UpdateRegistry@CVirtualStream@@SAJH@Z 1000cce8 f i exsmime_ALL:ExSMime.obj
 0001:0000bd00       ?UpdateRegistry@CEncryptStream@@SAJH@Z 1000cd00 f i exsmime_ALL:ExSMime.obj
 0001:0000bd18       ?UpdateRegistry@CMimeEntity@@SAJH@Z 1000cd18 f i exsmime_ALL:ExSMime.obj
 0001:0000bd30       ?UpdateRegistry@CMimeReader@@SAJH@Z 1000cd30 f i exsmime_ALL:ExSMime.obj
 0001:0000bd48       ?UpdateRegistry@CMailBox@@SAJH@Z 1000cd48 f i exsmime_ALL:ExSMime.obj
 0001:0000bd60       ?UpdateRegistry@CQPEncoder@@SAJH@Z 1000cd60 f i exsmime_ALL:ExSMime.obj
 0001:0000bd78       ?UpdateRegistry@CQPDecoder@@SAJH@Z 1000cd78 f i exsmime_ALL:ExSMime.obj
 0001:0000bd90       ?UpdateRegistry@CBase64Encoder@@SAJH@Z 1000cd90 f i exsmime_ALL:ExSMime.obj
 0001:0000bda8       ?UpdateRegistry@CBase64Decoder@@SAJH@Z 1000cda8 f i exsmime_ALL:ExSMime.obj
 0001:0000bdc0       ?UpdateRegistry@CBinHexEncoder@@SAJH@Z 1000cdc0 f i exsmime_ALL:ExSMime.obj
 0001:0000bdd8       ?UpdateRegistry@CBinHexDecoder@@SAJH@Z 1000cdd8 f i exsmime_ALL:ExSMime.obj
 0001:0000bdf0       ?UpdateRegistry@CUUEncoder@@SAJH@Z 1000cdf0 f i exsmime_ALL:ExSMime.obj
 0001:0000be08       ?UpdateRegistry@CUUDecoder@@SAJH@Z 1000ce08 f i exsmime_ALL:ExSMime.obj
 0001:0000be20       ?UpdateRegistry@CRfc2047Encoder@@SAJH@Z 1000ce20 f i exsmime_ALL:ExSMime.obj
 0001:0000be38       ?UpdateRegistry@CRfc2047Decoder@@SAJH@Z 1000ce38 f i exsmime_ALL:ExSMime.obj
 0001:0000be50       ?UpdateRegistry@CAPIStm@@SAJH@Z 1000ce50 f i exsmime_ALL:ExSMime.obj
 0001:0000be68       ?CreateInstance@?$CComCreator2@V?$CComCreator@V?$CComObject@VCMimeEntity@@@ATL@@@ATL@@V?$CComCreator@V?$CComAggObject@VCMimeEntity@@@ATL@@@2@@ATL@@SAJPAXABU_GUID@@PAPAX@Z 1000ce68 f i exsmime_ALL:ExSMime.obj
 0001:0000be78       ?CreateInstance@?$CComCreator2@V?$CComCreator@V?$CComObject@VCMailBox@@@ATL@@@ATL@@V?$CComCreator@V?$CComAggObject@VCMailBox@@@ATL@@@2@@ATL@@SAJPAXABU_GUID@@PAPAX@Z 1000ce78 f i exsmime_ALL:ExSMime.obj
 0001:0000be88       ??0CVCellPool@@QAA@XZ      1000ce88 f   exsmime_ALL:vcelpool.obj
 0001:0000beb0       ?_AcquireCleanPage@CVCellPool@@AAAPAUPAGEHEADER@1@XZ 1000ceb0 f   exsmime_ALL:vcelpool.obj
 0001:0000bf78       ?_RemoveFromOldList@CVCellPool@@AAAXAAPAUPAGEHEADER@1@0@Z 1000cf78 f   exsmime_ALL:vcelpool.obj
 0001:0000bfb8       ?_FreeAnUnusedPage@CVCellPool@@AAAHXZ 1000cfb8 f   exsmime_ALL:vcelpool.obj
 0001:0000c03c       ?_AddToNewList@CVCellPool@@AAAXAAPAUPAGEHEADER@1@0@Z 1000d03c f   exsmime_ALL:vcelpool.obj
 0001:0000c094       ?_Cleanup@CVCellPool@@AAAXXZ 1000d094 f   exsmime_ALL:vcelpool.obj
 0001:0000c0fc       ??1CVCellPool@@QAA@XZ      1000d0fc f   exsmime_ALL:vcelpool.obj
 0001:0000c100       ?Initialize@CVCellPool@@QAAJKKKH@Z 1000d100 f   exsmime_ALL:vcelpool.obj
 0001:0000c250       ?AcquireCell@CVCellPool@@QAAJPAPAX@Z 1000d250 f   exsmime_ALL:vcelpool.obj
 0001:0000c394       ?ReleaseCell@CVCellPool@@QAAJPAX@Z 1000d394 f   exsmime_ALL:vcelpool.obj
 0001:0000c46c       ?FileSeek@CFileStream@@KAHPAXT_LARGE_INTEGER@@PAT2@K@Z 1000d46c f i exsmime_ALL:stream.obj
 0001:0000c4e4       ?Stat@CFileStream@@UAAJPAUtagSTATSTG@@K@Z 1000d4e4 f   exsmime_ALL:stream.obj
 0001:0000c60c       ?AtlComPtrAssign@ATL@@YAPAUIUnknown@@PAPAU2@PAU2@@Z 1000d60c f i exsmime_ALL:stream.obj
 0001:0000c658       ?FinalConstruct@CMemoryStream@@UAAJXZ 1000d658 f   exsmime_ALL:stream.obj
 0001:0000c660       ?FinalConstruct@CLineArray@CMemoryStream@@UAAJXZ 1000d660 f   exsmime_ALL:stream.obj
 0001:0000c670       ?Seek@CNullStream@@UAAJT_LARGE_INTEGER@@KPAT_ULARGE_INTEGER@@@Z 1000d670 f   exsmime_ALL:stream.obj
 0001:0000c6bc       ?Reset@CEncryptStream@@IAAJXZ 1000d6bc f   exsmime_ALL:stream.obj
 0001:0000c748       ?AddTail@CLineArray@CMemoryStream@@QAAJPAUIRefLine@@@Z 1000d748 f i exsmime_ALL:stream.obj
 0001:0000c7ac       ?Seek@CVirtualStream@@UAAJT_LARGE_INTEGER@@KPAT_ULARGE_INTEGER@@@Z 1000d7ac f   exsmime_ALL:stream.obj
 0001:0000c930       ?Commit@CVirtualStream@@UAAJK@Z 1000d930 f   exsmime_ALL:stream.obj
 0001:0000c99c       ?SyncFileStream@CVirtualStream@@IAAJXZ 1000d99c f   exsmime_ALL:stream.obj
 0001:0000ca30       ?ReadOnlyFile@CVirtualStream@@IAAJPAPAUIStream@@@Z 1000da30 f   exsmime_ALL:stream.obj
 0001:0000cacc       ?Seek@CChildStream@CVirtualStream@@UAAJT_LARGE_INTEGER@@KPAT_ULARGE_INTEGER@@@Z 1000dacc f   exsmime_ALL:stream.obj
 0001:0000cbb0       ?SyncFileStream@CChildStream@CVirtualStream@@IAAJXZ 1000dbb0 f   exsmime_ALL:stream.obj
 0001:0000cc48       ??1CFileStream@@IAA@XZ     1000dc48 f   exsmime_ALL:stream.obj
 0001:0000cc84       ?SetFileName@CFileStream@@IAAJPBG@Z 1000dc84 f   exsmime_ALL:stream.obj
 0001:0000ccf8       ?Seek@CFileStream@@UAAJT_LARGE_INTEGER@@KPAT_ULARGE_INTEGER@@@Z 1000dcf8 f   exsmime_ALL:stream.obj
 0001:0000ce30       ?Read@CPartialStream@@UAAJPAXKPAK@Z 1000de30 f   exsmime_ALL:stream.obj
 0001:0000cf8c       ?Seek@CPartialStream@@UAAJT_LARGE_INTEGER@@KPAT_ULARGE_INTEGER@@@Z 1000df8c f   exsmime_ALL:stream.obj
 0001:0000d0a8       ?Convert@CLFPartialStream@@IAAJPAXKPAK@Z 1000e0a8 f   exsmime_ALL:stream.obj
 0001:0000d35c       ??1CEncryptStream@@IAA@XZ  1000e35c f   exsmime_ALL:stream.obj
 0001:0000d3f8       ?GenerateKey@CEncryptStream@@IAAJXZ 1000e3f8 f   exsmime_ALL:stream.obj
 0001:0000d58c       ??1CTeeStream@@IAA@XZ      1000e58c f   exsmime_ALL:stream.obj
 0001:0000d5c8       ?Write@?$IStreamImpl@UIStream@@@@UAAJPBXKPAK@Z 1000e5c8 f i exsmime_ALL:stream.obj
 0001:0000d630       ??1CMemoryStream@@MAA@XZ   1000e630 f i exsmime_ALL:stream.obj
 0001:0000d670       ?Read@CVirtualStream@@UAAJPAXKPAK@Z 1000e670 f   exsmime_ALL:stream.obj
 0001:0000d84c       ?Write@CVirtualStream@@UAAJPBXKPAK@Z 1000e84c f   exsmime_ALL:stream.obj
 0001:0000da04       ?Read@CChildStream@CVirtualStream@@UAAJPAXKPAK@Z 1000ea04 f   exsmime_ALL:stream.obj
 0001:0000dc40       ?Read@CFileStream@@UAAJPAXKPAK@Z 1000ec40 f   exsmime_ALL:stream.obj
 0001:0000dd40       ?Write@CFileStream@@UAAJPBXKPAK@Z 1000ed40 f   exsmime_ALL:stream.obj
 0001:0000de08       ?SetSize@CFileStream@@UAAJT_ULARGE_INTEGER@@@Z 1000ee08 f   exsmime_ALL:stream.obj
 0001:0000df6c       ?Commit@CFileStream@@UAAJK@Z 1000ef6c f   exsmime_ALL:stream.obj
 0001:0000dfe8       ?Read@CLFPartialStream@@UAAJPAXKPAK@Z 1000efe8 f   exsmime_ALL:stream.obj
 0001:0000e168       ?Seek@CLFPartialStream@@UAAJT_LARGE_INTEGER@@KPAT_ULARGE_INTEGER@@@Z 1000f168 f   exsmime_ALL:stream.obj
 0001:0000e364       ?Read@CMemoryStream@@UAAJPAXKPAK@Z 1000f364 f   exsmime_ALL:stream.obj
 0001:0000e538       ?Seek@CMemoryStream@@UAAJT_LARGE_INTEGER@@KPAT_ULARGE_INTEGER@@@Z 1000f538 f   exsmime_ALL:stream.obj
 0001:0000e71c       ?SetSize@CMemoryStream@@UAAJT_ULARGE_INTEGER@@@Z 1000f71c f   exsmime_ALL:stream.obj
 0001:0000e7a8       ?Read@CNullStream@@UAAJPAXKPAK@Z 1000f7a8 f   exsmime_ALL:stream.obj
 0001:0000e7c4       ?Write@CNullStream@@UAAJPBXKPAK@Z 1000f7c4 f   exsmime_ALL:stream.obj
 0001:0000e7f4       ?SetSize@CNullStream@@UAAJT_ULARGE_INTEGER@@@Z 1000f7f4 f   exsmime_ALL:stream.obj
 0001:0000e830       ?SetSize@CEncryptStream@@UAAJT_ULARGE_INTEGER@@@Z 1000f830 f   exsmime_ALL:stream.obj
 0001:0000e88c       ?Read@CEncryptStream@@UAAJPAXKPAK@Z 1000f88c f   exsmime_ALL:stream.obj
 0001:0000ebbc       ?Write@CEncryptStream@@UAAJPBXKPAK@Z 1000fbbc f   exsmime_ALL:stream.obj
 0001:0000eddc       ?Commit@CEncryptStream@@UAAJK@Z 1000fddc f   exsmime_ALL:stream.obj
 0001:0000ef38       ?Seek@CEncryptStream@@UAAJT_LARGE_INTEGER@@KPAT_ULARGE_INTEGER@@@Z 1000ff38 f   exsmime_ALL:stream.obj
 0001:0000f194       ?Read@CTeeStream@@UAAJPAXKPAK@Z 10010194 f   exsmime_ALL:stream.obj
 0001:0000f1b0       ?Write@CTeeStream@@UAAJPBXKPAK@Z 100101b0 f   exsmime_ALL:stream.obj
 0001:0000f2a8       ?Commit@CTeeStream@@UAAJK@Z 100102a8 f   exsmime_ALL:stream.obj
 0001:0000f324       ??1CLineArray@CMemoryStream@@MAA@XZ 10010324 f i exsmime_ALL:stream.obj
 0001:0000f390       ??1CVirtualStream@@IAA@XZ  10010390 f   exsmime_ALL:stream.obj
 0001:0000f400       ?CopyTo@CVirtualStream@@UAAJPAUIStream@@T_ULARGE_INTEGER@@PAT3@2@Z 10010400 f   exsmime_ALL:stream.obj
 0001:0000f434       ??1CChildStream@CVirtualStream@@IAA@XZ 10010434 f   exsmime_ALL:stream.obj
 0001:0000f490       ?CopyTo@CChildStream@CVirtualStream@@UAAJPAUIStream@@T_ULARGE_INTEGER@@PAT4@2@Z 10010490 f   exsmime_ALL:stream.obj
 0001:0000f4c4       ?Initialize@CChildStream@CVirtualStream@@QAAJPAV2@_K@Z 100104c4 f   exsmime_ALL:stream.obj
 0001:0000f564       ?CopyTo@CPartialStream@@UAAJPAUIStream@@T_ULARGE_INTEGER@@PAT3@2@Z 10010564 f   exsmime_ALL:stream.obj
 0001:0000f658       ?CopyTo@CEncryptStream@@UAAJPAUIStream@@T_ULARGE_INTEGER@@PAT3@2@Z 10010658 f   exsmime_ALL:stream.obj
 0001:0000f78c       ?Init@CTeeStream@@QAAJPAUIStream@@0@Z 1001078c f   exsmime_ALL:stream.obj
 0001:0000f7c0       ??0?$CComObject@VCLineArray@CMemoryStream@@@ATL@@QAA@PAX@Z 100107c0 f i exsmime_ALL:stream.obj
 0001:0000f838       ?AddRef@?$CComObject@VCLineArray@CMemoryStream@@@ATL@@UAAKXZ 10010838 f i exsmime_ALL:stream.obj
 0001:0000f840       ?Release@?$CComObject@VCLineArray@CMemoryStream@@@ATL@@UAAKXZ 10010840 f i exsmime_ALL:stream.obj
 0001:0000f878       ?QueryInterface@?$CComObject@VCLineArray@CMemoryStream@@@ATL@@UAAJABU_GUID@@PAPAX@Z 10010878 f i exsmime_ALL:stream.obj
 0001:0000f88c       ??1?$CComObject@VCLineArray@CMemoryStream@@@ATL@@UAA@XZ 1001088c f i exsmime_ALL:stream.obj
 0001:0000f8cc       ??_G?$CComObject@VCLineArray@CMemoryStream@@@ATL@@UAAPAXI@Z 100108cc f i exsmime_ALL:stream.obj
 0001:0000f8cc       ??_E?$CComObject@VCLineArray@CMemoryStream@@@ATL@@UAAPAXI@Z 100108cc f i exsmime_ALL:stream.obj
 0001:0000f8f0       ??0CVirtualStream@@QAA@XZ  100108f0 f   exsmime_ALL:stream.obj
 0001:0000f930       ??0CMemoryStream@@QAA@XZ   10010930 f   exsmime_ALL:stream.obj
 0001:0000f988       ??0CEncryptStream@@QAA@XZ  10010988 f   exsmime_ALL:stream.obj
 0001:0000f9ec       ??0CTeeStream@@QAA@XZ      100109ec f   exsmime_ALL:stream.obj
 0001:0000fa10       ?CreateInstance@?$CComObject@VCLineArray@CMemoryStream@@@ATL@@SAJPAPAV12@@Z 10010a10 f i exsmime_ALL:stream.obj
 0001:0000fad4       ??0?$CComObject@VCChildStream@CVirtualStream@@@ATL@@QAA@PAX@Z 10010ad4 f i exsmime_ALL:stream.obj
 0001:0000fb30       ?Size@CChildStream@CVirtualStream@@MBA_KXZ 10010b30 f i exsmime_ALL:stream.obj
 0001:0000fb48       ?Commit@?$IStreamImpl@UIStream@@@@UAAJK@Z 10010b48 f i exsmime_ALL:stream.obj
 0001:0000fb50       ?AddRef@?$CComObject@VCChildStream@CVirtualStream@@@ATL@@UAAKXZ 10010b50 f i exsmime_ALL:stream.obj
 0001:0000fb64       ?Release@?$CComObject@VCChildStream@CVirtualStream@@@ATL@@UAAKXZ 10010b64 f i exsmime_ALL:stream.obj
 0001:0000fb9c       ?QueryInterface@?$CComObject@VCChildStream@CVirtualStream@@@ATL@@UAAJABU_GUID@@PAPAX@Z 10010b9c f i exsmime_ALL:stream.obj
 0001:0000fbb0       ?SetSize@?$IStreamImpl@UIStream@@@@UAAJT_ULARGE_INTEGER@@@Z 10010bb0 f i exsmime_ALL:stream.obj
 0001:0000fbf0       ??1?$CComObject@VCChildStream@CVirtualStream@@@ATL@@UAA@XZ 10010bf0 f i exsmime_ALL:stream.obj
 0001:0000fc30       ??_E?$CComObject@VCChildStream@CVirtualStream@@@ATL@@UAAPAXI@Z 10010c30 f i exsmime_ALL:stream.obj
 0001:0000fc30       ??_G?$CComObject@VCChildStream@CVirtualStream@@@ATL@@UAAPAXI@Z 10010c30 f i exsmime_ALL:stream.obj
 0001:0000fc54       ??0?$CComObject@VCFileStream@@@ATL@@QAA@PAX@Z 10010c54 f i exsmime_ALL:stream.obj
 0001:0000fcb0       ?Size@CFileStream@@MBA_KXZ 10010cb0 f i exsmime_ALL:stream.obj
 0001:0000fcbc       ??1?$CComObject@VCFileStream@@@ATL@@UAA@XZ 10010cbc f i exsmime_ALL:stream.obj
 0001:0000fcfc       ?AddRef@?$CComObject@VCFileStream@@@ATL@@UAAKXZ 10010cfc f i exsmime_ALL:stream.obj
 0001:0000fd10       ?Release@?$CComObject@VCFileStream@@@ATL@@UAAKXZ 10010d10 f i exsmime_ALL:stream.obj
 0001:0000fd48       ?QueryInterface@?$CComObject@VCFileStream@@@ATL@@UAAJABU_GUID@@PAPAX@Z 10010d48 f i exsmime_ALL:stream.obj
 0001:0000fd5c       ??_E?$CComObject@VCFileStream@@@ATL@@UAAPAXI@Z 10010d5c f i exsmime_ALL:stream.obj
 0001:0000fd5c       ??_G?$CComObject@VCFileStream@@@ATL@@UAAPAXI@Z 10010d5c f i exsmime_ALL:stream.obj
 0001:0000fd80       ??0?$CComObject@VCPartialStream@@@ATL@@QAA@PAX@Z 10010d80 f i exsmime_ALL:stream.obj
 0001:0000fde4       ?Size@CPartialStream@@MBA_KXZ 10010de4 f i exsmime_ALL:stream.obj
 0001:0000fdf4       ??1?$CComObject@VCPartialStream@@@ATL@@UAA@XZ 10010df4 f i exsmime_ALL:stream.obj
 0001:0000fe40       ?AddRef@?$CComObject@VCPartialStream@@@ATL@@UAAKXZ 10010e40 f i exsmime_ALL:stream.obj
 0001:0000fe54       ?Release@?$CComObject@VCPartialStream@@@ATL@@UAAKXZ 10010e54 f i exsmime_ALL:stream.obj
 0001:0000fe8c       ?QueryInterface@?$CComObject@VCPartialStream@@@ATL@@UAAJABU_GUID@@PAPAX@Z 10010e8c f i exsmime_ALL:stream.obj
 0001:0000fea0       ??_G?$CComObject@VCPartialStream@@@ATL@@UAAPAXI@Z 10010ea0 f i exsmime_ALL:stream.obj
 0001:0000fea0       ??_E?$CComObject@VCPartialStream@@@ATL@@UAAPAXI@Z 10010ea0 f i exsmime_ALL:stream.obj
 0001:0000fec4       ??0?$CComObject@VCLFPartialStream@@@ATL@@QAA@PAX@Z 10010ec4 f i exsmime_ALL:stream.obj
 0001:0000ff38       ??1?$CComObject@VCLFPartialStream@@@ATL@@UAA@XZ 10010f38 f i exsmime_ALL:stream.obj
 0001:0000ff84       ?AddRef@?$CComObject@VCLFPartialStream@@@ATL@@UAAKXZ 10010f84 f i exsmime_ALL:stream.obj
 0001:0000ff98       ?Release@?$CComObject@VCLFPartialStream@@@ATL@@UAAKXZ 10010f98 f i exsmime_ALL:stream.obj
 0001:0000ffd0       ?QueryInterface@?$CComObject@VCLFPartialStream@@@ATL@@UAAJABU_GUID@@PAPAX@Z 10010fd0 f i exsmime_ALL:stream.obj
 0001:0000ffe4       ??_E?$CComObject@VCLFPartialStream@@@ATL@@UAAPAXI@Z 10010fe4 f i exsmime_ALL:stream.obj
 0001:0000ffe4       ??_G?$CComObject@VCLFPartialStream@@@ATL@@UAAPAXI@Z 10010fe4 f i exsmime_ALL:stream.obj
 0001:00010008       ?Size@CMemoryStream@@MBA_KXZ 10011008 f i exsmime_ALL:stream.obj
 0001:00010024       ?AddRef@?$CComObject@VCMemoryStream@@@ATL@@UAAKXZ 10011024 f i exsmime_ALL:stream.obj
 0001:0001002c       ?Release@?$CComObject@VCMemoryStream@@@ATL@@UAAKXZ 1001102c f i exsmime_ALL:stream.obj
 0001:00010064       ?QueryInterface@?$CComObject@VCMemoryStream@@@ATL@@UAAJABU_GUID@@PAPAX@Z 10011064 f i exsmime_ALL:stream.obj
 0001:00010078       ??1?$CComObject@VCMemoryStream@@@ATL@@UAA@XZ 10011078 f i exsmime_ALL:stream.obj
 0001:000100b8       ??_E?$CComObject@VCMemoryStream@@@ATL@@UAAPAXI@Z 100110b8 f i exsmime_ALL:stream.obj
 0001:000100b8       ??_G?$CComObject@VCMemoryStream@@@ATL@@UAAPAXI@Z 100110b8 f i exsmime_ALL:stream.obj
 0001:000100dc       ??0?$CComObject@VCNullStream@@@ATL@@QAA@PAX@Z 100110dc f i exsmime_ALL:stream.obj
 0001:00010120       ?Size@CNullStream@@MBA_KXZ 10011120 f i exsmime_ALL:stream.obj
 0001:0001012c       ?AddRef@?$CComObject@VCNullStream@@@ATL@@UAAKXZ 1001112c f i exsmime_ALL:stream.obj
 0001:00010140       ?Release@?$CComObject@VCNullStream@@@ATL@@UAAKXZ 10011140 f i exsmime_ALL:stream.obj
 0001:00010178       ?QueryInterface@?$CComObject@VCNullStream@@@ATL@@UAAJABU_GUID@@PAPAX@Z 10011178 f i exsmime_ALL:stream.obj
 0001:0001018c       ??_G?$CComObject@VCNullStream@@@ATL@@UAAPAXI@Z 1001118c f i exsmime_ALL:stream.obj
 0001:0001018c       ??_E?$CComObject@VCNullStream@@@ATL@@UAAPAXI@Z 1001118c f i exsmime_ALL:stream.obj
 0001:000101d8       ?Write@CMemoryStream@@UAAJPBXKPAK@Z 100111d8 f   exsmime_ALL:stream.obj
 0001:000102c8       ?CreateInstance@?$CComObject@VCChildStream@CVirtualStream@@@ATL@@SAJPAPAV12@@Z 100112c8 f i exsmime_ALL:stream.obj
 0001:00010324       ?CreateInstance@?$CComObject@VCFileStream@@@ATL@@SAJPAPAV12@@Z 10011324 f i exsmime_ALL:stream.obj
 0001:00010380       ?CreateInstance@?$CComObject@VCPartialStream@@@ATL@@SAJPAPAV12@@Z 10011380 f i exsmime_ALL:stream.obj
 0001:000103dc       ?CreateInstance@?$CComObject@VCLFPartialStream@@@ATL@@SAJPAPAV12@@Z 100113dc f i exsmime_ALL:stream.obj
 0001:00010438       ?CreateInstance@?$CComObject@VCMemoryStream@@@ATL@@SAJPAPAV12@@Z 10011438 f i exsmime_ALL:stream.obj
 0001:0001051c       ?CreateInstance@?$CComObject@VCNullStream@@@ATL@@SAJPAPAV12@@Z 1001151c f i exsmime_ALL:stream.obj
 0001:00010578       ?CreateInstance@?$CComObject@VCEncryptStream@@@ATL@@SAJPAPAV12@@Z 10011578 f i exsmime_ALL:stream.obj
 0001:000105f8       ?Clone@CVirtualStream@@UAAJPAPAUIStream@@@Z 100115f8 f   exsmime_ALL:stream.obj
 0001:00010684       ?Clone@CChildStream@CVirtualStream@@UAAJPAPAUIStream@@@Z 10011684 f   exsmime_ALL:stream.obj
 0001:00010710       ?Clone@CFileStream@@UAAJPAPAUIStream@@@Z 10011710 f   exsmime_ALL:stream.obj
 0001:00010924       ?OpenW@CFileStream@@SAJPBGPAPAUIStream@@@Z 10011924 f   exsmime_ALL:stream.obj
 0001:00010ad4       ?TempFile@CFileStream@@SAJPAPAUIStream@@@Z 10011ad4 f   exsmime_ALL:stream.obj
 0001:00010c28       ?Attach@CPartialStream@@SAJPAUIStream@@_K1PAPAU2@_N@Z 10011c28 f   exsmime_ALL:stream.obj
 0001:00010d30       ?Attach@CLFPartialStream@@SAJPAUIStream@@_K1PAPAU2@_N@Z 10011d30 f   exsmime_ALL:stream.obj
 0001:00010e38       ?Clone@CMemoryStream@@UAAJPAPAUIStream@@@Z 10011e38 f   exsmime_ALL:stream.obj
 0001:00010f04       ?Clone@CNullStream@@UAAJPAPAUIStream@@@Z 10011f04 f   exsmime_ALL:stream.obj
 0001:00010f88       ?Clone@CEncryptStream@@UAAJPAPAUIStream@@@Z 10011f88 f   exsmime_ALL:stream.obj
 0001:00011188       ?Attach@CEncryptStream@@SAJPAUIStream@@0_KPAPAU2@@Z 10012188 f   exsmime_ALL:stream.obj
 0001:0001125c       ?SetSize@CVirtualStream@@UAAJT_ULARGE_INTEGER@@@Z 1001225c f   exsmime_ALL:stream.obj
 0001:000113fc       ?Clone@CPartialStream@@UAAJPAPAUIStream@@@Z 100123fc f   exsmime_ALL:stream.obj
 0001:00011488       ?Clone@CLFPartialStream@@UAAJPAPAUIStream@@@Z 10012488 f   exsmime_ALL:stream.obj
 0001:000114fc       ?LockServer@SMIME@@UAAJH@Z 100124fc f   exsmime_ALL:smime.obj
 0001:00011504       ?FinalRelease@SMIME@@UAAXXZ 10012504 f   exsmime_ALL:smime.obj
 0001:00011508       ?WriteClearSignSignature@SMIME@@AAAJPAEIPAUIStream@@111@Z 10012508 f   exsmime_ALL:smime.obj
 0001:000116cc       ??8CComVariant@ATL@@QBA_NABUtagVARIANT@@@Z 100126cc f i exsmime_ALL:smime.obj
 0001:0001171c       ?FreeSecurityData@SMIME@@UAAJPAUSECURITYDATA@@PAUIPublicKeys@@@Z 1001271c f   exsmime_ALL:smime.obj
 0001:0001187c       ?CreateReceipt@SMIME@@UAAJPAUIClassFactory@@PBE1PBUIMIMEEntity@@PAUSECURITYDATA@@PAHPAPAU3@PAKPAPAU_CRYPT_ATTRIBUTE@@@Z 1001287c f   exsmime_ALL:smime.obj
 0001:00011888       ?onStartEntity@SMIME@@UAAJPAUIMIMEEntity@@@Z 10012888 f   exsmime_ALL:smime.obj
 0001:00011890       ?onStartHeaders@SMIME@@UAAJPAUIMIMEEntity@@@Z 10012890 f   exsmime_ALL:smime.obj
 0001:00011898       ?onHeader@SMIME@@UAAJPAUIMIMEHeader@@@Z 10012898 f   exsmime_ALL:smime.obj
 0001:000118a0       ?onEndEntity@SMIME@@UAAJPAUIMIMEEntity@@@Z 100128a0 f   exsmime_ALL:smime.obj
 0001:000118a8       ?Size@CTeeStream@@MBA_KXZ  100128a8 f i exsmime_ALL:smime.obj
 0001:000118b8       ?Seek@?$IStreamImpl@UIStream@@@@UAAJT_LARGE_INTEGER@@KPAT_ULARGE_INTEGER@@@Z 100128b8 f i exsmime_ALL:smime.obj
 0001:000118d0       ?Hash@?$CTBucketHash@PBGPAVCAttribute@@@@IAAKABQBG@Z 100128d0 f i exsmime_ALL:smime.obj
 0001:0001191c       ??4CComBSTR@ATL@@QAAAAV01@PBG@Z 1001291c f i exsmime_ALL:smime.obj
 0001:00011970       ??_E?$CComPtr@UIStream@@@ATL@@QAAPAXI@Z 10012970 f i exsmime_ALL:smime.obj
 0001:000119f0       ?WriteClearSignHeaders@SMIME@@AAAJPAUIStream@@PAUSECURITYDATA@@PAIPAPAE@Z 100129f0 f   exsmime_ALL:smime.obj
 0001:00011bb4       ?AddRef@?$CComContainedObject@VCSecureAttributes@@@ATL@@UAAKXZ 10012bb4 f i exsmime_ALL:smime.obj
 0001:00011bd0       ?Release@?$CComContainedObject@VCSecureAttributes@@@ATL@@UAAKXZ 10012bd0 f i exsmime_ALL:smime.obj
 0001:00011bec       ?QueryInterface@?$CComContainedObject@VCSecureAttributes@@@ATL@@UAAJABU_GUID@@PAPAX@Z 10012bec f i exsmime_ALL:smime.obj
 0001:00011c08       ??1?$CComObject@VCTeeStream@@@ATL@@UAA@XZ 10012c08 f i exsmime_ALL:smime.obj
 0001:00011c48       ?AddRef@?$CComObject@VCTeeStream@@@ATL@@UAAKXZ 10012c48 f i exsmime_ALL:smime.obj
 0001:00011c5c       ?Release@?$CComObject@VCTeeStream@@@ATL@@UAAKXZ 10012c5c f i exsmime_ALL:smime.obj
 0001:00011c94       ?QueryInterface@?$CComObject@VCTeeStream@@@ATL@@UAAJABU_GUID@@PAPAX@Z 10012c94 f i exsmime_ALL:smime.obj
 0001:00011ca8       ??_E?$CComObject@VCTeeStream@@@ATL@@UAAPAXI@Z 10012ca8 f i exsmime_ALL:smime.obj
 0001:00011ca8       ??_G?$CComObject@VCTeeStream@@@ATL@@UAAPAXI@Z 10012ca8 f i exsmime_ALL:smime.obj
 0001:00011ccc       ??0?$CComPolyObject@VCSecureAttributes@@@ATL@@QAA@PAX@Z 10012ccc f i exsmime_ALL:smime.obj
 0001:00011d28       ?AddRef@?$CComPolyObject@VCSecureAttributes@@@ATL@@UAAKXZ 10012d28 f i exsmime_ALL:smime.obj
 0001:00011d30       ?Release@?$CComPolyObject@VCSecureAttributes@@@ATL@@UAAKXZ 10012d30 f i exsmime_ALL:smime.obj
 0001:00011d68       ?Find@?$CTBucketHash@PBGPAVCAttribute@@@@QAAJABQBGAAPAVCAttribute@@@Z 10012d68 f i exsmime_ALL:smime.obj
 0001:00011dfc       ?Remove@?$CTBucketHash@PBGPAVCAttribute@@@@QAAJABQBGAAPAVCAttribute@@PAPBG@Z 10012dfc f i exsmime_ALL:smime.obj
 0001:00011ee0       ?CreateInstance@?$CComObject@VCTeeStream@@@ATL@@SAJPAPAV12@@Z 10012ee0 f i exsmime_ALL:smime.obj
 0001:00011f60       ??0CAttribute@@QAA@PBGABUtagVARIANT@@@Z 10012f60 f i exsmime_ALL:smime.obj
 0001:00012020       ?CreateTeeStream@SMIME@@AAAJPAUIStream@@0PAPAU2@PAW4SERIALIZE_FLAGS@@@Z 10013020 f   exsmime_ALL:smime.obj
 0001:000120dc       ?GetSMimeType@SMIME@@SAJPAUIMIMEEntity@@PAW4SMIMETYPE@@@Z 100130dc f   exsmime_ALL:smime.obj
 0001:00012518       ?getAttribute@SMIME@@UAAJPBGPAUtagVARIANT@@@Z 10013518 f   exsmime_ALL:smime.obj
 0001:00012588       ?IsEqualObject@?$CComPtrBase@UIMIMEEntity@@@ATL@@QAA_NPAUIUnknown@@@Z 10013588 f i exsmime_ALL:smime.obj
 0001:00012654       ??1?$CComPolyObject@VCSecureAttributes@@@ATL@@UAA@XZ 10013654 f i exsmime_ALL:smime.obj
 0001:000126a4       ?QueryInterface@?$CComPolyObject@VCSecureAttributes@@@ATL@@UAAJABU_GUID@@PAPAX@Z 100136a4 f i exsmime_ALL:smime.obj
 0001:00012730       ?CreateInstance@?$CComPolyObject@VCSecureAttributes@@@ATL@@SAJPAUIUnknown@@PAPAV12@@Z 10013730 f i exsmime_ALL:smime.obj
 0001:00012808       ??_G?$CComPolyObject@VCSecureAttributes@@@ATL@@UAAPAXI@Z 10013808 f i exsmime_ALL:smime.obj
 0001:00012808       ??_E?$CComPolyObject@VCSecureAttributes@@@ATL@@UAAPAXI@Z 10013808 f i exsmime_ALL:smime.obj
 0001:0001282c       ?Insert@?$CTBucketHash@PBGPAVCAttribute@@@@QAAJABQBGABQAVCAttribute@@@Z 1001382c f i exsmime_ALL:smime.obj
 0001:000128b4       ?Initialize@?$CTBucketHash@PBGPAVCAttribute@@@@QAAJKP6AKABQBGKK@ZP6AH00@ZK@Z 100138b4 f i exsmime_ALL:smime.obj
 0001:000129e4       ?CreateInstance@SMIME@@UAAJPAUIUnknown@@ABU_GUID@@PAPAX@Z 100139e4 f   exsmime_ALL:smime.obj
 0001:00012ad8       ?PropagateHeaders@SMIME@@IAAJPAUIMIMEEntity@@0@Z 10013ad8 f   exsmime_ALL:smime.obj
 0001:00012f74       ?setAttribute@SMIME@@UAAJPBGUtagVARIANT@@@Z 10013f74 f   exsmime_ALL:smime.obj
 0001:000130e0       ?DestroyReader@SMIME@@IAAJXZ 100140e0 f   exsmime_ALL:smime.obj
 0001:00013148       ?CreateInstance@?$CComObject@VCAPIStm@@@ATL@@SAJPAPAV12@@Z 10014148 f i exsmime_ALL:smime.obj
 0001:00013214       ??0SMIME@@QAA@XZ           10014214 f   exsmime_ALL:smime.obj
 0001:0001326c       ??1SMIME@@QAA@XZ           1001426c f   exsmime_ALL:smime.obj
 0001:000132e4       ?FinalConstruct@SMIME@@UAAJXZ 100142e4 f   exsmime_ALL:smime.obj
 0001:00013320       ??0?$CComObject@VCStreamShim@@@ATL@@QAA@PAX@Z 10014320 f i exsmime_ALL:smime.obj
 0001:00013364       ?Commit@CStreamShim@@UAAJK@Z 10014364 f i exsmime_ALL:smime.obj
 0001:0001336c       ?Read@CStreamShim@@UAAJPAXKPAK@Z 1001436c f i exsmime_ALL:smime.obj
 0001:00013384       ?Write@CStreamShim@@UAAJPBXKPAK@Z 10014384 f i exsmime_ALL:smime.obj
 0001:000133a4       ?Size@CStreamShim@@MBA_KXZ 100143a4 f i exsmime_ALL:smime.obj
 0001:00013408       ??1?$CComObject@VCStreamShim@@@ATL@@UAA@XZ 10014408 f i exsmime_ALL:smime.obj
 0001:00013454       ?AddRef@?$CComObject@VCStreamShim@@@ATL@@UAAKXZ 10014454 f i exsmime_ALL:smime.obj
 0001:00013468       ?Release@?$CComObject@VCStreamShim@@@ATL@@UAAKXZ 10014468 f i exsmime_ALL:smime.obj
 0001:000134a0       ?QueryInterface@?$CComObject@VCStreamShim@@@ATL@@UAAJABU_GUID@@PAPAX@Z 100144a0 f i exsmime_ALL:smime.obj
 0001:000134b4       ??_G?$CComObject@VCStreamShim@@@ATL@@UAAPAXI@Z 100144b4 f i exsmime_ALL:smime.obj
 0001:000134b4       ??_E?$CComObject@VCStreamShim@@@ATL@@UAAPAXI@Z 100144b4 f i exsmime_ALL:smime.obj
 0001:000134d8       ?CreateInstance@?$CComObject@VCStreamShim@@@ATL@@SAJPAPAV12@@Z 100144d8 f i exsmime_ALL:smime.obj
 0001:00013534       ?CreateInstance@?$CComObject@VCBase64Encoder@@@ATL@@SAJPAPAV12@@Z 10014534 f i exsmime_ALL:smime.obj
 0001:000135f8       ?CreateInstance@?$CComObject@VCBase64Decoder@@@ATL@@SAJPAPAV12@@Z 100145f8 f i exsmime_ALL:smime.obj
 0001:000136bc       ?CreateInstance@?$CComObject@VCMimeReader@@@ATL@@SAJPAPAV12@@Z 100146bc f i exsmime_ALL:smime.obj
 0001:00013780       ?CreateEncodePipe@SMIME@@IBAJPAUSECURITYDATA@@PAUIStream@@PAPAU3@2@Z 10014780 f   exsmime_ALL:smime.obj
 0001:00013bcc       ?CreateReader@SMIME@@IAAJW4CACHEMODE@@_N@Z 10014bcc f   exsmime_ALL:smime.obj
 0001:00013d60       ?EncodeSMIME@SMIME@@IAAJPAUIMIMEEntity@@PAUSECURITYDATA@@PAUIStream@@@Z 10014d60 f   exsmime_ALL:smime.obj
 0001:00014760       ?CreateDecodePipe@SMIME@@IAAJW4SMIMETYPE@@PAPAUIStream@@PAUIMIMEEntity@@@Z 10015760 f   exsmime_ALL:smime.obj
 0001:00014ca8       ?onEndHeaders@SMIME@@UAAJPAUIMIMEEntity@@@Z 10015ca8 f   exsmime_ALL:smime.obj
 0001:00014e38       ?EncodeMessage@SMIME@@UAAJKPAUIMIMEEntity@@PAUSECURITYDATA@@PAUIStream@@@Z 10015e38 f   exsmime_ALL:smime.obj
 0001:000151c8       ?DecodeClearSigned@SMIME@@IAAJPAUIMIMEEntity@@PAPAU2@@Z 100161c8 f   exsmime_ALL:smime.obj
 0001:00015bfc       ?DecodeSMIME@SMIME@@IAAJW4SMIMETYPE@@PAUIMIMEEntity@@PAPAU3@@Z 10016bfc f   exsmime_ALL:smime.obj
 0001:00015e10       ?DecodeMessage@SMIME@@UAAJPAUIMIMEEntity@@PAUISMimeCallback@@PAUIClassFactory@@PAPAUSECURITYDATA@@PAPAU2@@Z 10016e10 f   exsmime_ALL:smime.obj
 0001:00015fdc       ?IsRestrictedHeader@CMimeEntity@@IBA_NW4MIMEHEADER_T@@@Z 10016fdc f i exsmime_ALL:Entity.obj
 0001:00016068       ?Init@CMimeEntity@@UAAJXZ  10017068 f   exsmime_ALL:Entity.obj
 0001:00016070       ?identifier@CMimeEntity@@UAAJPAK@Z 10017070 f   exsmime_ALL:Entity.obj
 0001:0001608c       ?setIdentifier@CMimeEntity@@UAAJK@Z 1001708c f   exsmime_ALL:Entity.obj
 0001:00016098       ?href@CMimeEntity@@UAAJPAPAG@Z 10017098 f   exsmime_ALL:Entity.obj
 0001:00016108       ?setComplianceMode@CMimeEntity@@UAAJW4COMPLIANCEMODE@@@Z 10017108 f   exsmime_ALL:Entity.obj
 0001:00016114       ?WriteXML@CMimeEntity@@MAAJP8MIMENodeSerialize@@AAJPBXK@Z@Z 10017114 f   exsmime_ALL:Entity.obj
 0001:00016120       ?QueryService@CInternetRequest@CMimeEntity@@UAAJABU_GUID@@0PAPAX@Z 10017120 f   exsmime_ALL:Entity.obj
 0001:00016194       ?BeginningTransaction@CInternetRequest@CMimeEntity@@UAAJPBG0KPAPAG@Z 10017194 f   exsmime_ALL:Entity.obj
 0001:00016214       ?OnResponse@CInternetRequest@CMimeEntity@@UAAJKPBG0PAPAG@Z 10017214 f   exsmime_ALL:Entity.obj
 0001:0001623c       ?GetBindString@CInternetRequest@CMimeEntity@@UAAJKPAPAGKPAK@Z 1001723c f   exsmime_ALL:Entity.obj
 0001:000162e8       ?GetBindInfo@CInternetRequest@CMimeEntity@@UAAJPAKPAU_tagBINDINFO@@@Z 100172e8 f   exsmime_ALL:Entity.obj
 0001:00016340       ?ReportProgress@CInternetRequest@CMimeEntity@@UAAJKPBG@Z 10017340 f   exsmime_ALL:Entity.obj
 0001:00016348       ?FinalRelease@CMimeEntity@@UAAXXZ 10017348 f   exsmime_ALL:Entity.obj
 0001:0001637c       ?firstHeader@CMimeEntity@@UAAJPAPAUIMIMENode@@@Z 1001737c f   exsmime_ALL:Entity.obj
 0001:000163b4       ?lastHeader@CMimeEntity@@UAAJPAPAUIMIMENode@@@Z 100173b4 f   exsmime_ALL:Entity.obj
 0001:000163ec       ?setHref@CMimeEntity@@UAAJPAG@Z 100173ec f   exsmime_ALL:Entity.obj
 0001:00016478       ?getStorage@CMimeEntity@@UAAJPAPAUIStream@@PA_K@Z 10017478 f   exsmime_ALL:Entity.obj
 0001:000164d8       ?Encoding@CMimeEntity@@SA?AW4MIMEENCODING_T@@PBE@Z 100174d8 f   exsmime_ALL:Entity.obj
 0001:000166d0       ?setHeaders@CInternetRequest@CMimeEntity@@QAAJPAUtagVARIANT@@@Z 100176d0 f   exsmime_ALL:Entity.obj
 0001:0001674c       ?ReportData@CInternetRequest@CMimeEntity@@UAAJKKK@Z 1001774c f   exsmime_ALL:Entity.obj
 0001:00016834       ?Switch@CInternetRequest@CMimeEntity@@UAAJPAU_tagPROTOCOLDATA@@@Z 10017834 f   exsmime_ALL:Entity.obj
 0001:00016858       ?ReportResult@CInternetRequest@CMimeEntity@@UAAJJKPBG@Z 10017858 f   exsmime_ALL:Entity.obj
 0001:000168e0       ??1CInternetRequest@CMimeEntity@@QAA@XZ 100178e0 f i exsmime_ALL:Entity.obj
 0001:0001692c       ?findHeader@CMimeEntity@@UAAJPBEPAPAUIMIMEHeader@@@Z 1001792c f   exsmime_ALL:Entity.obj
 0001:00016b7c       ?findHeaderByType@CMimeEntity@@UAAJW4MIMEHEADER_T@@PAPAUIMIMEHeader@@@Z 10017b7c f   exsmime_ALL:Entity.obj
 0001:00016e38       ?value@CMimeEntity@@UAAJPAPAE@Z 10017e38 f   exsmime_ALL:Entity.obj
 0001:0001702c       ?getAttribute@CMimeEntity@@UAAJPBGPAUtagVARIANT@@@Z 1001802c f   exsmime_ALL:Entity.obj
 0001:0001709c       ?WriteMIMEHeaders@CMimeEntity@@IAAJPAUIMIMEEntity@@P8MIMENodeSerialize@@AAJPBXK@Z@Z 1001809c f   exsmime_ALL:Entity.obj
 0001:00017434       ?GetMIMEBoundary@CMimeEntity@@IAAJPAUIMIMEEntity@@PAPAE@Z 10018434 f   exsmime_ALL:Entity.obj
 0001:000176b0       ?Insert@CMimeEntity@@SAJPAUIMIMEEntity@@PBE1@Z 100186b0 f   exsmime_ALL:Entity.obj
 0001:000177fc       ?GetHeaderAndValue@CMimeEntity@@SAJPBUIMIMEEntity@@W4MIMEHEADER_T@@PAPAUIMIMEHeader@@PAPAE@Z 100187fc f   exsmime_ALL:Entity.obj
 0001:00017928       ?IsEqualObject@?$CComPtrBase@UIMIMENode@@@ATL@@QAA_NPAUIUnknown@@@Z 10018928 f i exsmime_ALL:Entity.obj
 0001:000179f4       ?IsEqualObject@?$CComPtrBase@UIMIMEHeader@@@ATL@@QAA_NPAUIUnknown@@@Z 100189f4 f i exsmime_ALL:Entity.obj
 0001:00017ac0       ?AddRef@?$CComContainedObject@VCMIMEHeaderFactory@@@ATL@@UAAKXZ 10018ac0 f i exsmime_ALL:Entity.obj
 0001:00017adc       ?Release@?$CComContainedObject@VCMIMEHeaderFactory@@@ATL@@UAAKXZ 10018adc f i exsmime_ALL:Entity.obj
 0001:00017af8       ?QueryInterface@?$CComContainedObject@VCMIMEHeaderFactory@@@ATL@@UAAJABU_GUID@@PAPAX@Z 10018af8 f i exsmime_ALL:Entity.obj
 0001:00017b14       ??0?$CComObject@VCInternetRequest@CMimeEntity@@@ATL@@QAA@PAX@Z 10018b14 f i exsmime_ALL:Entity.obj
 0001:00017b8c       ?AddRef@?$CComObject@VCInternetRequest@CMimeEntity@@@ATL@@UAAKXZ 10018b8c f i exsmime_ALL:Entity.obj
 0001:00017ba0       ?Release@?$CComObject@VCInternetRequest@CMimeEntity@@@ATL@@UAAKXZ 10018ba0 f i exsmime_ALL:Entity.obj
 0001:00017bd8       ?QueryInterface@?$CComObject@VCInternetRequest@CMimeEntity@@@ATL@@UAAJABU_GUID@@PAPAX@Z 10018bd8 f i exsmime_ALL:Entity.obj
 0001:00017bec       ?Release@?$CComObject@VCInternetRequest@CMimeEntity@@@ATL@@W3AAKXZ 10018bec f i exsmime_ALL:Entity.obj
 0001:00017bf4       ?Release@?$CComObject@VCInternetRequest@CMimeEntity@@@ATL@@W7AAKXZ 10018bf4 f i exsmime_ALL:Entity.obj
 0001:00017bfc       ?Release@?$CComObject@VCInternetRequest@CMimeEntity@@@ATL@@WM@AAKXZ 10018bfc f i exsmime_ALL:Entity.obj
 0001:00017c04       ?AddRef@?$CComObject@VCInternetRequest@CMimeEntity@@@ATL@@W3AAKXZ 10018c04 f i exsmime_ALL:Entity.obj
 0001:00017c0c       ?AddRef@?$CComObject@VCInternetRequest@CMimeEntity@@@ATL@@W7AAKXZ 10018c0c f i exsmime_ALL:Entity.obj
 0001:00017c14       ?QueryInterface@?$CComObject@VCInternetRequest@CMimeEntity@@@ATL@@W3AAJABU_GUID@@PAPAX@Z 10018c14 f i exsmime_ALL:Entity.obj
 0001:00017c1c       ?AddRef@?$CComObject@VCInternetRequest@CMimeEntity@@@ATL@@WM@AAKXZ 10018c1c f i exsmime_ALL:Entity.obj
 0001:00017c24       ?QueryInterface@?$CComObject@VCInternetRequest@CMimeEntity@@@ATL@@W7AAJABU_GUID@@PAPAX@Z 10018c24 f i exsmime_ALL:Entity.obj
 0001:00017c2c       ?QueryInterface@?$CComObject@VCInternetRequest@CMimeEntity@@@ATL@@WM@AAJABU_GUID@@PAPAX@Z 10018c2c f i exsmime_ALL:Entity.obj
 0001:00017c34       ??1?$CComObject@VCInternetRequest@CMimeEntity@@@ATL@@UAA@XZ 10018c34 f i exsmime_ALL:Entity.obj
 0001:00017c98       ??_E?$CComObject@VCInternetRequest@CMimeEntity@@@ATL@@UAAPAXI@Z 10018c98 f i exsmime_ALL:Entity.obj
 0001:00017c98       ??_G?$CComObject@VCInternetRequest@CMimeEntity@@@ATL@@UAAPAXI@Z 10018c98 f i exsmime_ALL:Entity.obj
 0001:00017cbc       ?insertHeader@CMimeEntity@@UAAJPAUIMIMENode@@0@Z 10018cbc f   exsmime_ALL:Entity.obj
 0001:00018430       ?removeHeader@CMimeEntity@@UAAJPAUIMIMENode@@@Z 10019430 f   exsmime_ALL:Entity.obj
 0001:00018974       ?insertBefore@CMimeEntity@@UAAJPAUIMIMENode@@0@Z 10019974 f   exsmime_ALL:Entity.obj
 0001:00018a04       ?setAttribute@CMimeEntity@@UAAJPBGUtagVARIANT@@@Z 10019a04 f   exsmime_ALL:Entity.obj
 0001:00018d70       ?setStorage@CMimeEntity@@UAAJPAUIStream@@_K@Z 10019d70 f   exsmime_ALL:Entity.obj
 0001:00018d9c       ?IsClearSignedBody@CMimeEntity@@SAJPBUIMIMEEntity@@PA_N@Z 10019d9c f   exsmime_ALL:Entity.obj
 0001:00018f38       ??0?$CComPolyObject@VCMIMEHeaderFactory@@@ATL@@QAA@PAX@Z 10019f38 f i exsmime_ALL:Entity.obj
 0001:00018fa4       ?AddRef@?$CComPolyObject@VCMIMEHeaderFactory@@@ATL@@UAAKXZ 10019fa4 f i exsmime_ALL:Entity.obj
 0001:00018fac       ?Release@?$CComPolyObject@VCMIMEHeaderFactory@@@ATL@@UAAKXZ 10019fac f i exsmime_ALL:Entity.obj
 0001:00018fe4       ?QueryInterface@?$CComPolyObject@VCMIMEHeaderFactory@@@ATL@@UAAJABU_GUID@@PAPAX@Z 10019fe4 f i exsmime_ALL:Entity.obj
 0001:00019070       ??1?$CComPolyObject@VCMIMEHeaderFactory@@@ATL@@UAA@XZ 1001a070 f i exsmime_ALL:Entity.obj
 0001:000190cc       ??_G?$CComPolyObject@VCMIMEHeaderFactory@@@ATL@@UAAPAXI@Z 1001a0cc f i exsmime_ALL:Entity.obj
 0001:000190cc       ??_E?$CComPolyObject@VCMIMEHeaderFactory@@@ATL@@UAAPAXI@Z 1001a0cc f i exsmime_ALL:Entity.obj
 0001:000190f0       ?CreateInstance@?$CComObject@VCInternetRequest@CMimeEntity@@@ATL@@SAJPAPAV12@@Z 1001a0f0 f i exsmime_ALL:Entity.obj
 0001:0001914c       ??0?$CComObject@VCEncryptStreamClassFactory@@@ATL@@QAA@PAX@Z 1001a14c f i exsmime_ALL:Entity.obj
 0001:000191a0       ?AddRef@?$CComObject@VCEncryptStreamClassFactory@@@ATL@@UAAKXZ 1001a1a0 f i exsmime_ALL:Entity.obj
 0001:000191a8       ?Release@?$CComObject@VCEncryptStreamClassFactory@@@ATL@@UAAKXZ 1001a1a8 f i exsmime_ALL:Entity.obj
 0001:000191e0       ?QueryInterface@?$CComObject@VCEncryptStreamClassFactory@@@ATL@@UAAJABU_GUID@@PAPAX@Z 1001a1e0 f i exsmime_ALL:Entity.obj
 0001:000191f4       ??1?$CComObject@VCEncryptStreamClassFactory@@@ATL@@UAA@XZ 1001a1f4 f i exsmime_ALL:Entity.obj
 0001:00019250       ??_E?$CComObject@VCEncryptStreamClassFactory@@@ATL@@UAAPAXI@Z 1001a250 f i exsmime_ALL:Entity.obj
 0001:00019250       ??_G?$CComObject@VCEncryptStreamClassFactory@@@ATL@@UAAPAXI@Z 1001a250 f i exsmime_ALL:Entity.obj
 0001:00019274       ??1CMimeEntity@@IAA@XZ     1001a274 f   exsmime_ALL:Entity.obj
 0001:00019468       ?WriteMIMEBody@CMimeEntity@@IAAJPAUIMIMEEntity@@P8MIMENodeSerialize@@AAJPBXK@Z@Z 1001a468 f   exsmime_ALL:Entity.obj
 0001:00019820       ?WriteMIMEEntity@CMimeEntity@@IAAJPAUIMIMEEntity@@0P8MIMENodeSerialize@@AAJPBXK@Z@Z 1001a820 f   exsmime_ALL:Entity.obj
 0001:0001a268       ?newStream@CMimeEntity@@IAAJXZ 1001b268 f   exsmime_ALL:Entity.obj
 0001:0001a2a4       ?CreateInstance@?$CComPolyObject@VCMIMEHeaderFactory@@@ATL@@SAJPAUIUnknown@@PAPAV12@@Z 1001b2a4 f i exsmime_ALL:Entity.obj
 0001:0001a364       ?CreateInstance@?$CComObject@VCEncryptStreamClassFactory@@@ATL@@SAJPAPAV12@@Z 1001b364 f i exsmime_ALL:Entity.obj
 0001:0001a408       ?CreateInstance@?$CComObject@VCQPEncoder@@@ATL@@SAJPAPAV12@@Z 1001b408 f i exsmime_ALL:Entity.obj
 0001:0001a4cc       ?CreateInstance@?$CComObject@VCUUEncoder@@@ATL@@SAJPAPAV12@@Z 1001b4cc f i exsmime_ALL:Entity.obj
 0001:0001a590       ?CreateInstance@?$CComObject@VCBinHexEncoder@@@ATL@@SAJPAPAV12@@Z 1001b590 f i exsmime_ALL:Entity.obj
 0001:0001a654       ?CreateInstance@?$CComObject@VCQPDecoder@@@ATL@@SAJPAPAV12@@Z 1001b654 f i exsmime_ALL:Entity.obj
 0001:0001a718       ?CreateInstance@?$CComObject@VCUUDecoder@@@ATL@@SAJPAPAV12@@Z 1001b718 f i exsmime_ALL:Entity.obj
 0001:0001a7dc       ?CreateInstance@?$CComObject@VCBinHexDecoder@@@ATL@@SAJPAPAV12@@Z 1001b7dc f i exsmime_ALL:Entity.obj
 0001:0001a8a0       ?FinalConstruct@CMimeEntity@@UAAJXZ 1001b8a0 f   exsmime_ALL:Entity.obj
 0001:0001a960       ?WriteMIME@CMimeEntity@@MAAJP8MIMENodeSerialize@@AAJPBXK@Z@Z 1001b960 f   exsmime_ALL:Entity.obj
 0001:0001b008       ?BindToURL@CMimeEntity@@IAAJPAPAUIStream@@@Z 1001c008 f   exsmime_ALL:Entity.obj
 0001:0001bb44       ?PickEncoder@CMimeEntity@@IBAJPBEPAPAUIMIMEEncoder@@@Z 1001cb44 f   exsmime_ALL:Entity.obj
 0001:0001bcc8       ?PickDecoder@CMimeEntity@@IBAJPBEPAPAUIMIMEEncoder@@@Z 1001ccc8 f   exsmime_ALL:Entity.obj
 0001:0001be4c       ?CreateEncoder@CMimeEntity@@IBAJPAPAUIMIMEEncoder@@@Z 1001ce4c f   exsmime_ALL:Entity.obj
 0001:0001becc       ?CreateDecoder@CMimeEntity@@IBAJPAPAUIMIMEEncoder@@@Z 1001cecc f   exsmime_ALL:Entity.obj
 0001:0001bf54       ?wireStream@CMimeEntity@@IAAJPAPAUIStream@@@Z 1001cf54 f   exsmime_ALL:Entity.obj
 0001:0001c494       ?nativeStream@CMimeEntity@@IAAJPAPAUIStream@@@Z 1001d494 f   exsmime_ALL:Entity.obj
 0001:0001c83c       ?bodyStream@CMimeEntity@@UAAJKHPAPAUIStream@@@Z 1001d83c f   exsmime_ALL:Entity.obj
 0001:0001c994       ?appendEmail@CMailBox@@UAAJPAUIRefLine@@KKK@Z 1001d994 f   exsmime_ALL:MailBox.obj
 0001:0001ca38       ?appendDisplayName@CMailBox@@UAAJPAUIRefLine@@KKK@Z 1001da38 f   exsmime_ALL:MailBox.obj
 0001:0001cacc       ?WriteXML@CMailBox@@MAAJP8MIMENodeSerialize@@AAJPBXK@Z@Z 1001dacc f   exsmime_ALL:MailBox.obj
 0001:0001cad8       ?IsEmpty@CFragSubstr@@QAA_NK@Z 1001dad8 f i exsmime_ALL:MailBox.obj
 0001:0001cb24       ?WriteMIME@CMailBox@@MAAJP8MIMENodeSerialize@@AAJPBXK@Z@Z 1001db24 f   exsmime_ALL:MailBox.obj
 0001:0001ce38       ?putEmail@CMailBox@@UAAJPBE@Z 1001de38 f   exsmime_ALL:MailBox.obj
 0001:0001cf10       ?putDisplayName@CMailBox@@UAAJPBE@Z 1001df10 f   exsmime_ALL:MailBox.obj
 0001:0001cfc4       ?parse@CMailBox@@UAAJPBEK@Z 1001dfc4 f   exsmime_ALL:MailBox.obj
 0001:0001d324       ?emailValid@CMailBox@@UAAJPAH@Z 1001e324 f   exsmime_ALL:MailBox.obj
 0001:0001d3f0       ?GetSz@CMailBox@@IAAJAAVCFragSubstr@@PAPAEK@Z 1001e3f0 f   exsmime_ALL:MailBox.obj
 0001:0001d498       ?displayName@CMailBox@@UAAJPAPAE@Z 1001e498 f   exsmime_ALL:MailBox.obj
 0001:0001d4a8       ?email@CMailBox@@UAAJPAPAE@Z 1001e4a8 f   exsmime_ALL:MailBox.obj
 0001:0001d4b8       ??1CMailBox@@IAA@XZ        1001e4b8 f   exsmime_ALL:MailBox.obj
 0001:0001d51c       ?nextSibling@CMailBox@@UAAJPAPAUIMIMENode@@@Z 1001e51c f   exsmime_ALL:MailBox.obj
 0001:0001d5f4       ??0?$CComObject@VCPublicKeys@@@ATL@@QAA@PAX@Z 1001e5f4 f i exsmime_ALL:MailBox.obj
 0001:0001d678       ?AddRef@?$CComObject@VCPublicKeys@@@ATL@@UAAKXZ 1001e678 f i exsmime_ALL:MailBox.obj
 0001:0001d68c       ?Release@?$CComObject@VCPublicKeys@@@ATL@@UAAKXZ 1001e68c f i exsmime_ALL:MailBox.obj
 0001:0001d6c4       ?QueryInterface@?$CComObject@VCPublicKeys@@@ATL@@UAAJABU_GUID@@PAPAX@Z 1001e6c4 f i exsmime_ALL:MailBox.obj
 0001:0001d6d8       ?Release@?$CComObject@VCPublicKeys@@@ATL@@W3AAKXZ 1001e6d8 f i exsmime_ALL:MailBox.obj
 0001:0001d6e0       ?AddRef@?$CComObject@VCPublicKeys@@@ATL@@W3AAKXZ 1001e6e0 f i exsmime_ALL:MailBox.obj
 0001:0001d6e8       ?QueryInterface@?$CComObject@VCPublicKeys@@@ATL@@W3AAJABU_GUID@@PAPAX@Z 1001e6e8 f i exsmime_ALL:MailBox.obj
 0001:0001d6f0       ??1?$CComObject@VCPublicKeys@@@ATL@@UAA@XZ 1001e6f0 f i exsmime_ALL:MailBox.obj
 0001:0001d74c       ??_E?$CComObject@VCPublicKeys@@@ATL@@UAAPAXI@Z 1001e74c f i exsmime_ALL:MailBox.obj
 0001:0001d74c       ??_G?$CComObject@VCPublicKeys@@@ATL@@UAAPAXI@Z 1001e74c f i exsmime_ALL:MailBox.obj
 0001:0001d770       ?CreateInstance@?$CComObject@VCPublicKeys@@@ATL@@SAJPAPAV12@@Z 1001e770 f i exsmime_ALL:MailBox.obj
 0001:0001d808       ?publicKeys@CMailBox@@UAAJPAPAUIPublicKeys@@@Z 1001e808 f   exsmime_ALL:MailBox.obj
 0001:0001d888       ?GetFragmentData@CFragSubstr@@QAAJKPAPBEPAK1@Z 1001e888 f   exsmime_ALL:FragSubstr.obj
 0001:0001d968       ?Length@CFragSubstr@@QAAKK@Z 1001e968 f   exsmime_ALL:FragSubstr.obj
 0001:0001da10       ?GetSz@CFragSubstr@@QAAJPADKK@Z 1001ea10 f   exsmime_ALL:FragSubstr.obj
 0001:0001dc10       ?Reset@CFragSubstr@@QAAXXZ 1001ec10 f   exsmime_ALL:FragSubstr.obj
 0001:0001dca4       ?AppendFragment@CFragSubstr@@QAAJPAUIRefLine@@KKK@Z 1001eca4 f   exsmime_ALL:FragSubstr.obj
 0001:0001deb4       ?RemoveFirstFragment@CFragSubstr@@QAAJPAPAUIRefLine@@PAK11@Z 1001eeb4 f   exsmime_ALL:FragSubstr.obj
 0001:0001dfbc       ?TakeOverAppend@CFragSubstr@@QAAJPAV1@K@Z 1001efbc f   exsmime_ALL:FragSubstr.obj
 0001:0001e06c       ?TakeOver@CFragSubstr@@QAAJPAV1@K@Z 1001f06c f   exsmime_ALL:FragSubstr.obj
 0001:0001e0e4       ?MoveChunkToDest@CMIMEEncoder@@KAKPBEAAK1AAPAE1PAK@Z 1001f0e4 f i exsmime_ALL:MimeEncEx.obj
 0001:0001e170       ?MoveByteToDest@CMIMEEncoder@@KA_NEAAPAEAAKPAK@Z 1001f170 f i exsmime_ALL:MimeEncEx.obj
 0001:0001e1c0       ?GetChunkBufFromInput@CMIMEEncoder@@KAKPAEAAKKAAPBE1PAK@Z 1001f1c0 f i exsmime_ALL:MimeEncEx.obj
 0001:0001e230       ?GetChunkPtrFromInput@CMIMEEncoder@@KAKAAPAEAAKAAPBE1PAK@Z 1001f230 f i exsmime_ALL:MimeEncEx.obj
 0001:0001e2ac       ?IgnoreChunkFromInput@CMIMEEncoder@@KAKAAKAAPBE0PAK@Z 1001f2ac f i exsmime_ALL:MimeEncEx.obj
 0001:0001e2f8       ?OutputChunk@CQPEncoder@@AAA_NKKE@Z 1001f2f8 f i exsmime_ALL:MimeEncEx.obj
 0001:0001e35c       ?OutputChunk@CQPEncoder@@AAA_NKKEE@Z 1001f35c f i exsmime_ALL:MimeEncEx.obj
 0001:0001e3d8       ?OutputChunk@CQPEncoder@@AAA_NKKEEE@Z 1001f3d8 f i exsmime_ALL:MimeEncEx.obj
 0001:0001e46c       ?OutputChunk@CQPEncoder@@AAA_NKKEEEE@Z 1001f46c f i exsmime_ALL:MimeEncEx.obj
 0001:0001e518       ?NumFromHex@CQPDecoder@@SAEE@Z 1001f518 f i exsmime_ALL:MimeEncEx.obj
 0001:0001e55c       ?FinalConstruct@CQPEncoder@@UAAJXZ 1001f55c f   exsmime_ALL:MimeEncEx.obj
 0001:0001e564       ?ResetEncoder@CQPEncoder@@MAAJXZ 1001f564 f   exsmime_ALL:MimeEncEx.obj
 0001:0001e57c       ?DoTransform@CQPEncoder@@MAAJPBEKPAKPAEK1_N@Z 1001f57c f   exsmime_ALL:MimeEncEx.obj
 0001:0001ea74       ?SetSafe@CQPEncoder@@UAAJH@Z 1001fa74 f   exsmime_ALL:MimeEncEx.obj
 0001:0001ea8c       ?FinalConstruct@CQPDecoder@@UAAJXZ 1001fa8c f   exsmime_ALL:MimeEncEx.obj
 0001:0001ea94       ?ResetEncoder@CQPDecoder@@MAAJXZ 1001fa94 f   exsmime_ALL:MimeEncEx.obj
 0001:0001eaa4       ?DoTransform@CQPDecoder@@MAAJPBEKPAKPAEK1_N@Z 1001faa4 f   exsmime_ALL:MimeEncEx.obj
 0001:0001edac       ?FinalConstruct@CBase64Encoder@@UAAJXZ 1001fdac f   exsmime_ALL:MimeEncEx.obj
 0001:0001edb4       ?ResetEncoder@CBase64Encoder@@MAAJXZ 1001fdb4 f   exsmime_ALL:MimeEncEx.obj
 0001:0001edcc       ?DoTransform@CBase64Encoder@@MAAJPBEKPAKPAEK1_N@Z 1001fdcc f   exsmime_ALL:MimeEncEx.obj
 0001:0001f2d0       ?SetLineLength@CBase64Encoder@@UAAJK@Z 100202d0 f   exsmime_ALL:MimeEncEx.obj
 0001:0001f2f4       ?FinalConstruct@CBase64Decoder@@UAAJXZ 100202f4 f   exsmime_ALL:MimeEncEx.obj
 0001:0001f2fc       ?ResetEncoder@CBase64Decoder@@MAAJXZ 100202fc f   exsmime_ALL:MimeEncEx.obj
 0001:0001f310       ?DoTransform@CBase64Decoder@@MAAJPBEKPAKPAEK1_N@Z 10020310 f   exsmime_ALL:MimeEncEx.obj
 0001:0001f6f8       ?BinHexCalcCRC16@CBinHexCommon@@IAAXPBEKPAG@Z 100206f8 f   exsmime_ALL:MimeEncEx.obj
 0001:0001f764       ?BinHexCalcCRC16@CBinHexCommon@@IAAXEKPAG@Z 10020764 f   exsmime_ALL:MimeEncEx.obj
 0001:0001f7cc       ?FinalConstruct@CBinHexEncoder@@UAAJXZ 100207cc f   exsmime_ALL:MimeEncEx.obj
 0001:0001f7d4       ?ResetEncoder@CBinHexEncoder@@MAAJXZ 100207d4 f   exsmime_ALL:MimeEncEx.obj
 0001:0001f7e8       ?GenerateBinHexHeader@CBinHexEncoder@@AAAJXZ 100207e8 f   exsmime_ALL:MimeEncEx.obj
 0001:0001fa58       ?DoTransform@CBinHexEncoder@@MAAJPBEKPAKPAEK1_N@Z 10020a58 f   exsmime_ALL:MimeEncEx.obj
 0001:000203c4       ?SetDataForkOnly@CBinHexEncoder@@UAAJHPAUMACBINARYHEADER@@@Z 100213c4 f   exsmime_ALL:MimeEncEx.obj
 0001:00020480       ?FinalConstruct@CBinHexDecoder@@UAAJXZ 10021480 f   exsmime_ALL:MimeEncEx.obj
 0001:00020488       ?ResetEncoder@CBinHexDecoder@@MAAJXZ 10021488 f   exsmime_ALL:MimeEncEx.obj
 0001:000204a8       ?DoTransform@CBinHexDecoder@@MAAJPBEKPAKPAEK1_N@Z 100214a8 f   exsmime_ALL:MimeEncEx.obj
 0001:00020eb4       ?SetDataForkOnly@CBinHexDecoder@@UAAJH@Z 10021eb4 f   exsmime_ALL:MimeEncEx.obj
 0001:00020ee0       ?GetMacBinaryHeader@CBinHexDecoder@@UAAJPAUMACBINARYHEADER@@@Z 10021ee0 f   exsmime_ALL:MimeEncEx.obj
 0001:00020f10       ?FinalConstruct@CUUEncoder@@UAAJXZ 10021f10 f   exsmime_ALL:MimeEncEx.obj
 0001:00020f18       ?ResetEncoder@CUUEncoder@@MAAJXZ 10021f18 f   exsmime_ALL:MimeEncEx.obj
 0001:00020f28       ?DoTransform@CUUEncoder@@MAAJPBEKPAKPAEK1_N@Z 10021f28 f   exsmime_ALL:MimeEncEx.obj
 0001:000213f4       ?FinalConstruct@CUUDecoder@@UAAJXZ 100223f4 f   exsmime_ALL:MimeEncEx.obj
 0001:000213fc       ?ResetEncoder@CUUDecoder@@MAAJXZ 100223fc f   exsmime_ALL:MimeEncEx.obj
 0001:0002140c       ?UULineGood@CUUDecoder@@AAA_NPAK00@Z 1002240c f   exsmime_ALL:MimeEncEx.obj
 0001:000216f8       ?DoTransform@CUUDecoder@@MAAJPBEKPAKPAEK1_N@Z 100226f8 f   exsmime_ALL:MimeEncEx.obj
 0001:00021a64       ?GetFileName@CUUDecoder@@UAAJPAPAE@Z 10022a64 f   exsmime_ALL:MimeEncEx.obj
 0001:00021af4       ?FinalConstruct@CRfc2047Encoder@@UAAJXZ 10022af4 f   exsmime_ALL:MimeEncEx.obj
 0001:00021afc       ?ResetEncoder@CRfc2047Encoder@@MAAJXZ 10022afc f   exsmime_ALL:MimeEncEx.obj
 0001:00021b0c       ?DoTransform@CRfc2047Encoder@@MAAJPBEKPAKPAEK1_N@Z 10022b0c f   exsmime_ALL:MimeEncEx.obj
 0001:0002235c       ?SetCodePage@CRfc2047Encoder@@UAAJI@Z 1002335c f   exsmime_ALL:MimeEncEx.obj
 0001:000223e4       ?SetForceBEncoding@CRfc2047Encoder@@UAAJH@Z 100233e4 f   exsmime_ALL:MimeEncEx.obj
 0001:00022410       ?SetLineWrapping@CRfc2047Encoder@@UAAJH@Z 10023410 f   exsmime_ALL:MimeEncEx.obj
 0001:0002243c       ?SetPhraseCompatible@CRfc2047Encoder@@UAAJH@Z 1002343c f   exsmime_ALL:MimeEncEx.obj
 0001:00022468       ?FinalConstruct@CRfc2047Decoder@@UAAJXZ 10023468 f   exsmime_ALL:MimeEncEx.obj
 0001:00022470       ?ResetEncoder@CRfc2047Decoder@@MAAJXZ 10023470 f   exsmime_ALL:MimeEncEx.obj
 0001:00022484       ?DoTransform@CRfc2047Decoder@@MAAJPBEKPAKPAEK1_N@Z 10023484 f   exsmime_ALL:MimeEncEx.obj
 0001:00022bd8       ?SetCharsetOnly@CRfc2047Decoder@@UAAJH@Z 10023bd8 f   exsmime_ALL:MimeEncEx.obj
 0001:00022c04       ?GetCharset@CRfc2047Decoder@@UAAJPAPAE@Z 10023c04 f   exsmime_ALL:MimeEncEx.obj
 0001:00022c94       ?Stat@?$IStreamImpl@UIMIMEEncoder@@@@UAAJPAUtagSTATSTG@@K@Z 10023c94 f i exsmime_ALL:MimeEncEx.obj
 0001:00022d3c       ?Transform@CMIMEEncoder@@UAAJPBEKPAKQAEK1H@Z 10023d3c f   exsmime_ALL:MimeEncEx.obj
 0001:00022e14       ?Stat@CMIMEEncoder@@UAAJPAUtagSTATSTG@@K@Z 10023e14 f   exsmime_ALL:MimeEncEx.obj
 0001:00022e6c       ?Clone@CMIMEEncoder@@UAAJPAPAUIStream@@@Z 10023e6c f   exsmime_ALL:MimeEncEx.obj
 0001:00022e88       ?SetPrologueEpilogue@CUUEncoder@@UAAJHPAE@Z 10023e88 f   exsmime_ALL:MimeEncEx.obj
 0001:00022f3c       ?SetCharset@CRfc2047Encoder@@UAAJPAE@Z 10023f3c f   exsmime_ALL:MimeEncEx.obj
 0001:00022fac       ?CopyObject@CMIMEEncoder@@IAAJABV1@@Z 10023fac f   exsmime_ALL:MimeEncEx.obj
 0001:00023090       ?Read@CMIMEEncoder@@UAAJPAXKPAK@Z 10024090 f   exsmime_ALL:MimeEncEx.obj
 0001:00023260       ?Write@CMIMEEncoder@@UAAJPBXKPAK@Z 10024260 f   exsmime_ALL:MimeEncEx.obj
 0001:00023450       ?Commit@CMIMEEncoder@@UAAJK@Z 10024450 f   exsmime_ALL:MimeEncEx.obj
 0001:000235c4       ?Seek@CMIMEEncoder@@UAAJT_LARGE_INTEGER@@KPAT_ULARGE_INTEGER@@@Z 100245c4 f   exsmime_ALL:MimeEncEx.obj
 0001:000237e4       ?CalculateSize@CMIMEEncoder@@AAAJXZ 100247e4 f   exsmime_ALL:MimeEncEx.obj
 0001:00023970       ?CopyObject@CQPEncoder@@QAAJABV1@@Z 10024970 f   exsmime_ALL:MimeEncEx.obj
 0001:000239cc       ?CopyObject@CQPDecoder@@QAAJABV1@@Z 100249cc f   exsmime_ALL:MimeEncEx.obj
 0001:00023a08       ?CopyObject@CBase64Encoder@@QAAJABV1@@Z 10024a08 f   exsmime_ALL:MimeEncEx.obj
 0001:00023a6c       ?CopyObject@CBase64Decoder@@QAAJABV1@@Z 10024a6c f   exsmime_ALL:MimeEncEx.obj
 0001:00023ac0       ?CopyObject@CBinHexEncoder@@QAAJABV1@@Z 10024ac0 f   exsmime_ALL:MimeEncEx.obj
 0001:00023bd8       ?CopyObject@CBinHexDecoder@@QAAJABV1@@Z 10024bd8 f   exsmime_ALL:MimeEncEx.obj
 0001:00023d44       ?CopyObject@CUUEncoder@@QAAJABV1@@Z 10024d44 f   exsmime_ALL:MimeEncEx.obj
 0001:00023de0       ?CopyObject@CUUDecoder@@QAAJABV1@@Z 10024de0 f   exsmime_ALL:MimeEncEx.obj
 0001:00023e7c       ?Reset@CMIMEEncoder@@AAAJXZ 10024e7c f   exsmime_ALL:MimeEncEx.obj
 0001:00023ef4       ?ReadFrom@CMIMEEncoder@@UAAJPAUIStream@@@Z 10024ef4 f   exsmime_ALL:MimeEncEx.obj
 0001:00023f5c       ?WriteTo@CMIMEEncoder@@UAAJPAUIStream@@@Z 10024f5c f   exsmime_ALL:MimeEncEx.obj
 0001:00023fa0       ??$CreateClone@VCQPEncoder@@@CMIMEEncoder@@IAAJABVCQPEncoder@@PAPAUIStream@@@Z 10024fa0 f i exsmime_ALL:MimeEncEx.obj
 0001:00024084       ??$CreateClone@VCQPDecoder@@@CMIMEEncoder@@IAAJABVCQPDecoder@@PAPAUIStream@@@Z 10025084 f i exsmime_ALL:MimeEncEx.obj
 0001:00024168       ??$CreateClone@VCBase64Encoder@@@CMIMEEncoder@@IAAJABVCBase64Encoder@@PAPAUIStream@@@Z 10025168 f i exsmime_ALL:MimeEncEx.obj
 0001:0002424c       ??$CreateClone@VCBase64Decoder@@@CMIMEEncoder@@IAAJABVCBase64Decoder@@PAPAUIStream@@@Z 1002524c f i exsmime_ALL:MimeEncEx.obj
 0001:00024330       ??$CreateClone@VCBinHexEncoder@@@CMIMEEncoder@@IAAJABVCBinHexEncoder@@PAPAUIStream@@@Z 10025330 f i exsmime_ALL:MimeEncEx.obj
 0001:00024414       ??$CreateClone@VCBinHexDecoder@@@CMIMEEncoder@@IAAJABVCBinHexDecoder@@PAPAUIStream@@@Z 10025414 f i exsmime_ALL:MimeEncEx.obj
 0001:000244f8       ??$CreateClone@VCUUEncoder@@@CMIMEEncoder@@IAAJABVCUUEncoder@@PAPAUIStream@@@Z 100254f8 f i exsmime_ALL:MimeEncEx.obj
 0001:000245dc       ??$CreateClone@VCUUDecoder@@@CMIMEEncoder@@IAAJABVCUUDecoder@@PAPAUIStream@@@Z 100255dc f i exsmime_ALL:MimeEncEx.obj
 0001:000246c0       ?Clone@CQPEncoder@@UAAJPAPAUIStream@@@Z 100256c0 f   exsmime_ALL:MimeEncEx.obj
 0001:000246cc       ?Clone@CQPDecoder@@UAAJPAPAUIStream@@@Z 100256cc f   exsmime_ALL:MimeEncEx.obj
 0001:000246d8       ?Clone@CBase64Encoder@@UAAJPAPAUIStream@@@Z 100256d8 f   exsmime_ALL:MimeEncEx.obj
 0001:000246e4       ?Clone@CBase64Decoder@@UAAJPAPAUIStream@@@Z 100256e4 f   exsmime_ALL:MimeEncEx.obj
 0001:000246f0       ?Clone@CBinHexEncoder@@UAAJPAPAUIStream@@@Z 100256f0 f   exsmime_ALL:MimeEncEx.obj
 0001:000246fc       ?Clone@CBinHexDecoder@@UAAJPAPAUIStream@@@Z 100256fc f   exsmime_ALL:MimeEncEx.obj
 0001:00024708       ?Clone@CUUEncoder@@UAAJPAPAUIStream@@@Z 10025708 f   exsmime_ALL:MimeEncEx.obj
 0001:00024714       ?Clone@CUUDecoder@@UAAJPAPAUIStream@@@Z 10025714 f   exsmime_ALL:MimeEncEx.obj
 0001:00024720       ?FindIndex@CVPtrList@@QBAPAXK@Z 10025720 f   exsmime_ALL:vptrlist.obj
 0001:0002474c       ?Find@CVPtrList@@QBAPAXPAX0@Z 1002574c f   exsmime_ALL:vptrlist.obj
 0001:000247ac       ?AcquireNode@?$CTNodePool@UNODEBLOCK@CVPtrList@@UNODE@2@$0BA@@@QAAJPAPAUNODE@CVPtrList@@@Z 100257ac f i exsmime_ALL:vptrlist.obj
 0001:00024858       ?RemoveAll@CVPtrList@@QAAXXZ 10025858 f   exsmime_ALL:vptrlist.obj
 0001:00024890       ?AddHead@CVPtrList@@QAAPAXPAX@Z 10025890 f   exsmime_ALL:vptrlist.obj
 0001:000248f8       ?AddTail@CVPtrList@@QAAPAXPAX@Z 100258f8 f   exsmime_ALL:vptrlist.obj
 0001:00024960       ?RemoveTail@CVPtrList@@QAAHPAPAX@Z 10025960 f   exsmime_ALL:vptrlist.obj
 0001:000249cc       ?Init@?$CTNodePool@UNODEBLOCK@CVPtrList@@UNODE@2@$0BA@@@QAAXK@Z 100259cc f i exsmime_ALL:vptrlist.obj
 0001:00024a0c       ?Initialize@CVPtrList@@QAAJKP6AHPBX0@Z@Z 10025a0c f   exsmime_ALL:vptrlist.obj
 0001:00024a24       ?FinalConstruct@CMimeReader@@UAAJXZ 10025a24 f   exsmime_ALL:MimeReader.obj
 0001:00024a50       ?putCacheMode@CMimeReader@@UAAJW4CACHEMODE@@@Z 10025a50 f   exsmime_ALL:MimeReader.obj
 0001:00024a94       ?getCacheMode@CMimeReader@@UAAJPAW4CACHEMODE@@@Z 10025a94 f   exsmime_ALL:MimeReader.obj
 0001:00024ab0       ?getMaximumDepth@CMimeReader@@UAAJPAK@Z 10025ab0 f   exsmime_ALL:MimeReader.obj
 0001:00024acc       ?putMaximumDepth@CMimeReader@@UAAJK@Z 10025acc f   exsmime_ALL:MimeReader.obj
 0001:00024ad8       ?getMaximumSize@CMimeReader@@UAAJPAK@Z 10025ad8 f   exsmime_ALL:MimeReader.obj
 0001:00024af4       ?putMaximumSize@CMimeReader@@UAAJK@Z 10025af4 f   exsmime_ALL:MimeReader.obj
 0001:00024b00       ?getComplianceMode@CMimeReader@@UAAJPAW4COMPLIANCEMODE@@@Z 10025b00 f   exsmime_ALL:MimeReader.obj
 0001:00024b1c       ?putComplianceMode@CMimeReader@@UAAJW4COMPLIANCEMODE@@@Z 10025b1c f   exsmime_ALL:MimeReader.obj
 0001:00024b58       ?getComplianceStatus@CMimeReader@@UAAJPAW4COMPLIANCEFLAGS@@@Z 10025b58 f   exsmime_ALL:MimeReader.obj
 0001:00024b74       ?IsUuencodeBegin@CMimeReader@@IAAJPAUIRefLine@@@Z 10025b74 f   exsmime_ALL:MimeReader.obj
 0001:00024c20       ?IsUuencodeEnd@CMimeReader@@IAAJPAUIRefLine@@@Z 10025c20 f   exsmime_ALL:MimeReader.obj
 0001:00024c7c       ?Seek@CMimeReader@@UAAJT_LARGE_INTEGER@@KPAT_ULARGE_INTEGER@@@Z 10025c7c f   exsmime_ALL:MimeReader.obj
 0001:00024cc4       ?IsEqual@CBoundary@CMimeReader@@QAAJPBEIK@Z 10025cc4 f   exsmime_ALL:MimeReader.obj
 0001:00024d4c       ?ComputeCRC@CBoundary@CMimeReader@@SAKPBEAAI@Z 10025d4c f   exsmime_ALL:MimeReader.obj
 0001:00024da0       ?getEntityFactory@CMimeReader@@UAAJPAPAUIClassFactory@@@Z 10025da0 f   exsmime_ALL:MimeReader.obj
 0001:00024dd8       ?getTree@CMimeReader@@UAAJPAPAUIMIMEEntity@@@Z 10025dd8 f   exsmime_ALL:MimeReader.obj
 0001:00024e10       ?Fire_StartEntity@CMimeReader@@IAAJPAUIMIMEEntity@@@Z 10025e10 f   exsmime_ALL:MimeReader.obj
 0001:00024e68       ?Fire_EndEntity@CMimeReader@@IAAJPAUIMIMEEntity@@@Z 10025e68 f   exsmime_ALL:MimeReader.obj
 0001:00024ec0       ?Fire_StartHeaders@CMimeReader@@IAAJPAUIMIMEEntity@@@Z 10025ec0 f   exsmime_ALL:MimeReader.obj
 0001:00024f18       ?Fire_Header@CMimeReader@@IAAJPAUIMIMEHeader@@@Z 10025f18 f   exsmime_ALL:MimeReader.obj
 0001:00024f70       ?Fire_EndHeaders@CMimeReader@@IAAJPAUIMIMEEntity@@@Z 10025f70 f   exsmime_ALL:MimeReader.obj
 0001:00024fc8       ?GetMimeFromExt@CMimeReader@@IBAJPBDIPAPAEPAK@Z 10025fc8 f   exsmime_ALL:MimeReader.obj
 0001:0002525c       ?Init@CBoundary@CMimeReader@@QAAJPAEI@Z 1002625c f   exsmime_ALL:MimeReader.obj
 0001:00025354       ??1ParserState@CMimeReader@@QAA@XZ 10026354 f   exsmime_ALL:MimeReader.obj
 0001:000253c8       ?WriteLine@ParserState@CMimeReader@@QAAJPAUIRefLine@@@Z 100263c8 f   exsmime_ALL:MimeReader.obj
 0001:0002549c       ?Empty@CBoundaryStack@CMimeReader@@QAAXXZ 1002649c f   exsmime_ALL:MimeReader.obj
 0001:00025508       ?Push@CBoundaryStack@CMimeReader@@QAAJPAVCBoundary@2@@Z 10026508 f   exsmime_ALL:MimeReader.obj
 0001:0002553c       ?Search@CBoundaryStack@CMimeReader@@QAAIPAEI@Z 1002653c f   exsmime_ALL:MimeReader.obj
 0001:000255c4       ?StartHeader@CMimeReader@@IAAJPAUIRefLine@@PAEKPA_N@Z 100265c4 f   exsmime_ALL:MimeReader.obj
 0001:000257d0       ?FindBoundary@CMimeReader@@IAAJPAUIMIMEHeader@@PA_N@Z 100267d0 f   exsmime_ALL:MimeReader.obj
 0001:00025bd8       ?CheckContentType@CMimeReader@@IAAJAAPAVParserState@1@PAUIMIMEEntity@@@Z 10026bd8 f   exsmime_ALL:MimeReader.obj
 0001:00025ea0       ?Unwind@CMimeReader@@IAAPAVParserState@1@XZ 10026ea0 f   exsmime_ALL:MimeReader.obj
 0001:00025f4c       ?parse@CMimeReader@@UAAJPAUISequentialStream@@PAPAUIMIMEEntity@@@Z 10026f4c f   exsmime_ALL:MimeReader.obj
 0001:00026390       ?CreateBlock@CMimeReader@@IAAJIIIPAPAUIRefLine@@@Z 10027390 f   exsmime_ALL:MimeReader.obj
 0001:000265e8       ?MergeHeaders@CMimeReader@@IAAJPBUIMIMEHeader@@PAU2@@Z 100275e8 f   exsmime_ALL:MimeReader.obj
 0001:0002671c       ??0ParserState@CMimeReader@@QAA@_K0PAUIMIMEEntity@@@Z 1002771c f i exsmime_ALL:MimeReader.obj
 0001:000267a0       ?putNotificationHandler@CMimeReader@@UAAJPAUIMIMENotificationHandler@@@Z 100277a0 f   exsmime_ALL:MimeReader.obj
 0001:00026878       ?FinishHeader@CMimeReader@@IAAJPAUIMIMEEntity@@@Z 10027878 f   exsmime_ALL:MimeReader.obj
 0001:00026cf0       ?CreateMixedEntity@CMimeReader@@IAAJ_K0PAUIMIMEEntity@@@Z 10027cf0 f   exsmime_ALL:MimeReader.obj
 0001:00027584       ?CreateEntity@CMimeReader@@IAAJ_K0PAUIMIMEEntity@@@Z 10028584 f   exsmime_ALL:MimeReader.obj
 0001:00027b3c       ?RetrieveState@CMimeReader@@IAAJAAPAVParserState@1@AAV?$CComPtr@UIMIMEEntity@@@ATL@@@Z 10028b3c f   exsmime_ALL:MimeReader.obj
 0001:00027bc4       ?ReadHeaderLine@CMimeReader@@IAAJPAPAUIRefLine@@@Z 10028bc4 f   exsmime_ALL:MimeReader.obj
 0001:00027f24       ?ReadBinaryLine@CMimeReader@@IAAJPAPAUIRefLine@@@Z 10028f24 f   exsmime_ALL:MimeReader.obj
 0001:00028174       ?LineOverflow@CMimeReader@@IAAJXZ 10029174 f   exsmime_ALL:MimeReader.obj
 0001:000282f4       ?Cleanup@CMimeReader@@IAAXXZ 100292f4 f   exsmime_ALL:MimeReader.obj
 0001:0002843c       ?putEntityFactory@CMimeReader@@UAAJPAUIClassFactory@@@Z 1002943c f   exsmime_ALL:MimeReader.obj
 0001:00028574       ?ParseHeaders@CMimeReader@@IAAJPAUIRefLine@@PAUIMIMEEntity@@PAVParserState@1@@Z 10029574 f   exsmime_ALL:MimeReader.obj
 0001:000287d4       ?SetSize@CMimeReader@@UAAJT_ULARGE_INTEGER@@@Z 100297d4 f   exsmime_ALL:MimeReader.obj
 0001:00028808       ?ReadSingleLine@CMimeReader@@IAAJPAPAUIRefLine@@@Z 10029808 f   exsmime_ALL:MimeReader.obj
 0001:00028ca8       ?ReadMultiLine@CMimeReader@@IAAJPAPAUIRefLine@@@Z 10029ca8 f   exsmime_ALL:MimeReader.obj
 0001:00029024       ?SniffEOL@CMimeReader@@IAAXXZ 1002a024 f   exsmime_ALL:MimeReader.obj
 0001:000290e8       ?CorrectTransferEncoding@CMimeReader@@IAAJPAUIMIMEEntity@@PAVParserState@1@@Z 1002a0e8 f   exsmime_ALL:MimeReader.obj
 0001:00029510       ?ParseEntity@CMimeReader@@IAAJXZ 1002a510 f   exsmime_ALL:MimeReader.obj
 0001:0002bd4c       ?Write@CMimeReader@@UAAJPBXKPAK@Z 1002cd4c f   exsmime_ALL:MimeReader.obj
 0001:0002c034       ?Commit@CMimeReader@@UAAJK@Z 1002d034 f   exsmime_ALL:MimeReader.obj
 0001:0002c104       ?ReleaseKeyData@CAPIStm@@AAAXXZ 1002d104 f   exsmime_ALL:capistm.obj
 0001:0002c148       ?CreateRC2AuxInfo@CAPIStm@@IAAJKPAPAU_CMSG_RC2_AUX_INFO@@@Z 1002d148 f   exsmime_ALL:capistm.obj
 0001:0002c1b0       ?CryptoError@@YAJXZ        1002d1b0 f   exsmime_ALL:capistm.obj
 0001:0002c1ec       ?FinalRelease@CAPIStm@@UAAXXZ 1002d1ec f   exsmime_ALL:capistm.obj
 0001:0002c244       ?VerifyTimeValidity@CAPIStm@@IAAJPAU_CERT_INFO@@@Z 1002d244 f   exsmime_ALL:capistm.obj
 0001:0002c2cc       ?StreamOutput@CAPIStm@@IAAHPAEKH@Z 1002d2cc f   exsmime_ALL:capistm.obj
 0001:0002c470       ?VerifySignedMessage@CAPIStm@@IAAJXZ 1002d470 f   exsmime_ALL:capistm.obj
 0001:0002cf58       ?GetSignatureHash@CAPIStm@@IAAJXZ 1002df58 f   exsmime_ALL:capistm.obj
 0001:0002d1f0       ?HandleEnveloped@CAPIStm@@IAAJXZ 1002e1f0 f   exsmime_ALL:capistm.obj
 0001:0002d858       ?DecodeSigningAlgorithms@CAPIStm@@SAJPBUtagBLOB@@PAI@Z 1002e858 f   exsmime_ALL:capistm.obj
 0001:0002d9e8       ?Write@CAPIStm@@UAAJPBXKPAK@Z 1002e9e8 f   exsmime_ALL:capistm.obj
 0001:0002dd54       ?Commit@CAPIStm@@UAAJK@Z   1002ed54 f   exsmime_ALL:capistm.obj
 0001:0002def0       ?GetSMIMEInfo@CAPIStm@@IAAJPAUSECURITYDATA@@PAUSMIMEINFO@@@Z 1002eef0 f   exsmime_ALL:capistm.obj
 0001:0002e658       ?CBStreamOutput@CAPIStm@@KAHPBXPAEKH@Z 1002f658 f   exsmime_ALL:capistm.obj
 0001:0002e65c       ??0CAPIStm@@QAA@XZ         1002f65c f   exsmime_ALL:capistm.obj
 0001:0002e6d8       ?BeginEncodeStreaming@CAPIStm@@IAAJW4SMIMETYPE@@PADQAUSMIMEINFO@@@Z 1002f6d8 f   exsmime_ALL:capistm.obj
 0001:0002e7e4       ?BeginDecodeStreaming@CAPIStm@@IAAJXZ 1002f7e4 f   exsmime_ALL:capistm.obj
 0001:0002e894       ?InitEncode@CAPIStm@@UAAJPAUSECURITYDATA@@PAUIStream@@@Z 1002f894 f   exsmime_ALL:capistm.obj
 0001:0002e928       ?InitDecode@CAPIStm@@UAAJW4SMIMETYPE@@PAUISMimeCallback@@PAUIStream@@PAPAUSECURITYDATA@@@Z 1002f928 f   exsmime_ALL:capistm.obj
 0001:0002e9ec       ?HashString@AttributeHash@@KAKABQBGKK@Z 1002f9ec f   exsmime_ALL:attrhash.obj
 0001:0002ea30       ?CompString@AttributeHash@@KAHABQBG0@Z 1002fa30 f   exsmime_ALL:attrhash.obj
 0001:0002ea7c       ?DeleteAttribute@AttributeHash@@KAXABQBGABQAVCAttribute@@K@Z 1002fa7c f   exsmime_ALL:attrhash.obj
 0001:0002eabc       ??0CVLifo@@QAA@XZ          1002fabc f   exsmime_ALL:vfifolif.obj
 0001:0002eae0       ?Initialize@CVLifo@@QAAJK@Z 1002fae0 f   exsmime_ALL:vfifolif.obj
 0001:0002eb4c       ?Push@CVLifo@@QAAJPAX@Z    1002fb4c f   exsmime_ALL:vfifolif.obj
 0001:0002ebb0       ?Pop@CVLifo@@QAAHPAPAX@Z   1002fbb0 f   exsmime_ALL:vfifolif.obj
 0001:0002ec0c       ?Peek@CVLifo@@QAAHPAPAX@Z  1002fc0c f   exsmime_ALL:vfifolif.obj
 0001:0002ec3c       ?Parent@MIMETreeNode@@IAAJPAPAUIMIMENode@@@Z 1002fc3c f   exsmime_ALL:MimeNode.obj
 0001:0002ec78       ?SetParent@MIMETreeNode@@IAAJPAUIMIMENode@@@Z 1002fc78 f   exsmime_ALL:MimeNode.obj
 0001:0002ec8c       ?QuoteAndFold@MIMENodeSerialize@@IAAJAAVCFragSubstr@@P81@AAJPBXK@ZAAK_NK@Z 1002fc8c f   exsmime_ALL:MimeNode.obj
 0001:0002f09c       ?CopyTo@MIMENodeSerialize@@IAAJPBXK@Z 1003009c f   exsmime_ALL:MimeNode.obj
 0001:0002f104       ?FirstChild@MIMETreeNode@@IAAJPAPAUIMIMENode@@@Z 10030104 f   exsmime_ALL:MimeNode.obj
 0001:0002f13c       ?LastChild@MIMETreeNode@@IAAJPAPAUIMIMENode@@@Z 1003013c f   exsmime_ALL:MimeNode.obj
 0001:0002f174       ?NextSibling@MIMETreeNode@@IAAJPAPAUIMIMENode@@@Z 10030174 f   exsmime_ALL:MimeNode.obj
 0001:0002f1ac       ?PreviousSibling@MIMETreeNode@@IAAJPAPAUIMIMENode@@@Z 100301ac f   exsmime_ALL:MimeNode.obj
 0001:0002f1e4       ?toStringImp@MIMENodeSerialize@@IAAJKPAKPAE@Z 100301e4 f   exsmime_ALL:MimeNode.obj
 0001:0002f27c       ?toXMLStringImp@MIMENodeSerialize@@IAAJKPAKPAE@Z 1003027c f   exsmime_ALL:MimeNode.obj
 0001:0002f314       ?WriteTo@MIMENodeSerialize@@QAAJPBXK@Z 10030314 f   exsmime_ALL:MimeNode.obj
 0001:0002f338       ?RemoveChild@MIMETreeNode@@IAAJPAUIMIMENode@@0@Z 10030338 f   exsmime_ALL:MimeNode.obj
 0001:0002f6a8       ?SetNext@MIMETreeNode@@IAAJPAUIMIMENode@@@Z 100306a8 f   exsmime_ALL:MimeNode.obj
 0001:0002f6c0       ?SetPrevious@MIMETreeNode@@IAAJPAUIMIMENode@@@Z 100306c0 f   exsmime_ALL:MimeNode.obj
 0001:0002f6d8       ?doInsertChild@MIMETreeNode@@IAAJPAUIMIMENode@@0@Z 100306d8 f   exsmime_ALL:MimeNode.obj
 0001:0002f838       ?ReleaseChildren@MIMETreeNode@@IAAXXZ 10030838 f   exsmime_ALL:MimeNode.obj
 0001:0002f93c       ?SerializeImp@MIMENodeSerialize@@IAAJKPAUISequentialStream@@@Z 1003093c f   exsmime_ALL:MimeNode.obj
 0001:0002f9d4       ?insertBeforeImp@MIMETreeNode@@IAAJPAUIMIMENode@@0@Z 100309d4 f   exsmime_ALL:MimeNode.obj
 0001:0002fad4       ??1CRefLine@@IAA@XZ        10030ad4 f   exsmime_ALL:RefLine.obj
 0001:0002fb10       ?AddRef@CRefLine@@UAAKXZ   10030b10 f   exsmime_ALL:RefLine.obj
 0001:0002fb24       ?Data@CRefLine@@UAAJPAPAEPAK@Z 10030b24 f   exsmime_ALL:RefLine.obj
 0001:0002fb50       ?Length@CRefLine@@UAAKXZ   10030b50 f   exsmime_ALL:RefLine.obj
 0001:0002fb58       ?Trim@CRefLine@@UAAJXZ     10030b58 f   exsmime_ALL:RefLine.obj
 0001:0002fc6c       ?Slice@CRefLine@@UAAJKK@Z  10030c6c f   exsmime_ALL:RefLine.obj
 0001:0002fccc       ??0CRefLine@@IAA@PAEK@Z    10030ccc f   exsmime_ALL:RefLine.obj
 0001:0002fd08       ?QueryInterface@CRefLine@@UAAJABU_GUID@@PAPAX@Z 10030d08 f   exsmime_ALL:RefLine.obj
 0001:0002fd8c       ?Release@CRefLine@@UAAKXZ  10030d8c f   exsmime_ALL:RefLine.obj
 0001:0002fdc0       ?CreateInstance@CRefLine@@SAJPAPAV1@I@Z 10030dc0 f   exsmime_ALL:RefLine.obj
 0001:0002fe30       ?CreateInstance@CRefLine@@SAJPAPAV1@PBEI@Z 10030e30 f   exsmime_ALL:RefLine.obj
 0001:0002ff14       ?FinalConstruct@CSecureAttributes@@UAAJXZ 10030f14 f   exsmime_ALL:SecAttrib.obj
 0001:0002ff1c       ?FinalRelease@CSecureAttributes@@UAAXXZ 10030f1c f   exsmime_ALL:SecAttrib.obj
 0001:0002ff20       ?Reset@CSecureAttributes@@UAAJXZ 10030f20 f   exsmime_ALL:SecAttrib.obj
 0001:0002ff28       ?DecodeAttributes@CSecureAttributes@@UAAJPAUtagBLOB@@PAPAU_CRYPT_ATTRIBUTES@@@Z 10030f28 f   exsmime_ALL:SecAttrib.obj
 0001:0002ff88       ?EncodeAttributes@CSecureAttributes@@UAAJKPAU_CRYPT_ATTRIBUTE@@PAUtagBLOB@@@Z 10030f88 f   exsmime_ALL:SecAttrib.obj
 0001:00030000       ?CopyAttributes@CSecureAttributes@@UAAJKPAU_CRYPT_ATTRIBUTE@@K0PAPAU2@@Z 10031000 f   exsmime_ALL:SecAttrib.obj
 0001:00030064       ?Free@CSecureAttributes@@UAAJPAX@Z 10031064 f   exsmime_ALL:SecAttrib.obj
 0001:0003007c       ??1CSecureAttributes@@QAA@XZ 1003107c f   exsmime_ALL:SecAttrib.obj
 0001:0003009c       ??0CSecureAttributes@@QAA@XZ 1003109c f   exsmime_ALL:SecAttrib.obj
 0001:000300cc       ?OEMstrncmpi@@YAHPBD0I@Z   100310cc f i exsmime_ALL:strutil.obj
 0001:00030118       ?ComputeCRCi@StrUtil@@YAKPBEI@Z 10031118 f   exsmime_ALL:strutil.obj
 0001:000301f8       ?ComputeCRC@StrUtil@@YAKPBEI@Z 100311f8 f   exsmime_ALL:strutil.obj
 0001:000302a4       ?LineBeginsWithNI@StrUtil@@YA_NPBD0K@Z 100312a4 f   exsmime_ALL:strutil.obj
 0001:00030318       ?Compare@StrUtil@@YAHPBE0@Z 10031318 f   exsmime_ALL:strutil.obj
 0001:00030358       ?CompareI@StrUtil@@YAHPBE0@Z 10031358 f   exsmime_ALL:strutil.obj
 0001:00030394       ?CompareNI@StrUtil@@YAHPBE0I@Z 10031394 f   exsmime_ALL:strutil.obj
 0001:00030398       ?CompareN@StrUtil@@YAHPBE0I@Z 10031398 f   exsmime_ALL:strutil.obj
 0001:000303e4       ?WriteXML@CHdrContentType@@MAAJP8MIMENodeSerialize@@AAJPBXK@Z@Z 100313e4 f   exsmime_ALL:HdrCntType.obj
 0001:000303f0       ??1CHdrContentType@@IAA@XZ 100313f0 f   exsmime_ALL:HdrCntType.obj
 0001:0003043c       ?Reset@CHdrContentType@@QAAXXZ 1003143c f   exsmime_ALL:HdrCntType.obj
 0001:000304a0       ?putValue@CHdrContentType@@UAAJPBE@Z 100314a0 f   exsmime_ALL:HdrCntType.obj
 0001:000304d0       ?ValidateParameter@CHdrContentType@@MAAJPBEAAVCFragSubstr@@_N@Z 100314d0 f   exsmime_ALL:HdrCntType.obj
 0001:000305e4       ?CreateBoundary@CHdrContentType@@SAJPAPAEPAI@Z 100315e4 f   exsmime_ALL:HdrCntType.obj
 0001:00030714       ?WriteMIME@CHdrContentType@@MAAJP8MIMENodeSerialize@@AAJPBXK@Z@Z 10031714 f   exsmime_ALL:HdrCntType.obj
 0001:00030924       ?insertBefore@CHdrContentType@@UAAJPAUIMIMENode@@0@Z 10031924 f   exsmime_ALL:HdrCntType.obj
 0001:000309d0       ?Parse@CHdrContentType@@IAAJXZ 100319d0 f   exsmime_ALL:HdrCntType.obj
 0001:00030ea8       ?value@CHdrContentType@@UAAJPAPAE@Z 10031ea8 f   exsmime_ALL:HdrCntType.obj
 0001:00030f90       ?firstChild@CHdrContentType@@UAAJPAPAUIMIMENode@@@Z 10031f90 f   exsmime_ALL:HdrCntType.obj
 0001:00030fdc       ?lastChild@CHdrContentType@@UAAJPAPAUIMIMENode@@@Z 10031fdc f   exsmime_ALL:HdrCntType.obj
 0001:00031058       ?HrGetLastError@@YAJXZ     10032058 f   exsmime_ALL:capiutil.obj
 0001:00031088       ?DecodeObject@CapiUtil@@YAJPBEKPBDKPAKPAPAX@Z 10032088 f   exsmime_ALL:capiutil.obj
 0001:00031174       ?GetMsgParam@CapiUtil@@YAJPAXKKPAPAXPAK@Z 10032174 f   exsmime_ALL:capiutil.obj
 0001:00031274       ?DuplicateObject@CapiUtil@@YAJAAU_CRYPT_BIT_BLOB@@ABU2@@Z 10032274 f   exsmime_ALL:capiutil.obj
 0001:000312c8       ?ReleaseObject@CapiUtil@@YAXAAU_CERT_ID@@@Z 100322c8 f   exsmime_ALL:capiutil.obj
 0001:00031340       ?ReleaseObject@CapiUtil@@YAXAAU_CMSG_CTRL_DECRYPT_PARA@@@Z 10032340 f   exsmime_ALL:capiutil.obj
 0001:00031374       ?EncodeAndAlloc@CapiUtil@@YAJPBDPBXPAPAEPAKK@Z 10032374 f   exsmime_ALL:capiutil.obj
 0001:00031408       ?ReleaseObject@CapiUtil@@YAXAAU_CRYPT_ALGORITHM_IDENTIFIER@@@Z 10032408 f   exsmime_ALL:capiutil.obj
 0001:0003144c       ?DuplicateOID@CapiUtil@@YAJAAPADPBD@Z 1003244c f   exsmime_ALL:capiutil.obj
 0001:000314a4       ?ReleaseObject@CapiUtil@@YAXAAU_CMSG_KEY_TRANS_RECIPIENT_ENCODE_INFO@@@Z 100324a4 f   exsmime_ALL:capiutil.obj
 0001:000314dc       ?ReleaseObject@CapiUtil@@YAXAAU_CMSG_KEY_AGREE_RECIPIENT_ENCODE_INFO@@@Z 100324dc f   exsmime_ALL:capiutil.obj
 0001:000315f4       ?DuplicateObject@CapiUtil@@YAJKPAU_CRYPT_ATTRIBUTE@@K0PAPAU2@K@Z 100325f4 f   exsmime_ALL:capiutil.obj
 0001:00031adc       ?DuplicateObject@CapiUtil@@YAJAAU_CRYPT_ALGORITHM_IDENTIFIER@@ABU2@@Z 10032adc f   exsmime_ALL:capiutil.obj
 0001:00031b3c       ?ReleaseObject@CapiUtil@@YAXAAU_CMSG_RECIPIENT_ENCODE_INFO@@@Z 10032b3c f   exsmime_ALL:capiutil.obj
 0001:00031bb0       ?Empty@CMIMEHeaderFactory@@IAAXXZ 10032bb0 f   exsmime_ALL:HdrFactory.obj
 0001:00031bb4       ??0?$CComContainedObject@VCHdrDate@@@ATL@@QAA@PAX@Z 10032bb4 f i exsmime_ALL:HdrFactory.obj
 0001:00031c0c       ?merge@CMimeHeader@@UAAJPBUIHeaderInt@@@Z 10032c0c f i exsmime_ALL:HdrFactory.obj
 0001:00031c18       ?ThisNode@?$IMimeNodeImpl@UIMIMEHeader@@@@UAAPAUIMIMENode@@XZ 10032c18 f i exsmime_ALL:HdrFactory.obj
 0001:00031c20       ?parent@?$IMimeNodeImpl@UIMIMEHeader@@@@UAAJPAPAUIMIMENode@@@Z 10032c20 f i exsmime_ALL:HdrFactory.obj
 0001:00031c28       ?firstChild@?$IMimeNodeImpl@UIMIMEHeader@@@@UAAJPAPAUIMIMENode@@@Z 10032c28 f i exsmime_ALL:HdrFactory.obj
 0001:00031c30       ?lastChild@?$IMimeNodeImpl@UIMIMEHeader@@@@UAAJPAPAUIMIMENode@@@Z 10032c30 f i exsmime_ALL:HdrFactory.obj
 0001:00031c38       ?nextSibling@?$IMimeNodeImpl@UIMIMEHeader@@@@UAAJPAPAUIMIMENode@@@Z 10032c38 f i exsmime_ALL:HdrFactory.obj
 0001:00031c40       ?previousSibling@?$IMimeNodeImpl@UIMIMEHeader@@@@UAAJPAPAUIMIMENode@@@Z 10032c40 f i exsmime_ALL:HdrFactory.obj
 0001:00031c48       ?toString@?$IMimeNodeImpl@UIMIMEHeader@@@@UAAJKPAKQAE@Z 10032c48 f i exsmime_ALL:HdrFactory.obj
 0001:00031c50       ?toXMLString@?$IMimeNodeImpl@UIMIMEHeader@@@@UAAJKPAKQAE@Z 10032c50 f i exsmime_ALL:HdrFactory.obj
 0001:00031c58       ?Serialize@?$IMimeNodeImpl@UIMIMEHeader@@@@UAAJKPAUISequentialStream@@@Z 10032c58 f i exsmime_ALL:HdrFactory.obj
 0001:00031c60       ?setParent@?$IMimeNodeImpl@UIMIMEHeader@@@@UAAJPAUIMIMENode@@@Z 10032c60 f i exsmime_ALL:HdrFactory.obj
 0001:00031c68       ?setNext@?$IMimeNodeImpl@UIMIMEHeader@@@@UAAJPAUIMIMENode@@@Z 10032c68 f i exsmime_ALL:HdrFactory.obj
 0001:00031c70       ?setPrevious@?$IMimeNodeImpl@UIMIMEHeader@@@@UAAJPAUIMIMENode@@@Z 10032c70 f i exsmime_ALL:HdrFactory.obj
 0001:00031c78       ?insertBefore@?$IMimeNodeImpl@UIMIMEHeader@@@@UAAJPAUIMIMENode@@0@Z 10032c78 f i exsmime_ALL:HdrFactory.obj
 0001:00031c84       ?removeChild@?$IMimeNodeImpl@UIMIMEHeader@@@@UAAJPAUIMIMENode@@@Z 10032c84 f i exsmime_ALL:HdrFactory.obj
 0001:00031c94       ?GetTypeFromName@CMIMEHeaderFactory@@SAJPBEPAW4MIMEHEADER_T@@@Z 10032c94 f   exsmime_ALL:HdrFactory.obj
 0001:00031d6c       ?AddRef@?$CComContainedObject@VCHdrDate@@@ATL@@UAAKXZ 10032d6c f i exsmime_ALL:HdrFactory.obj
 0001:00031d88       ?Release@?$CComContainedObject@VCHdrDate@@@ATL@@UAAKXZ 10032d88 f i exsmime_ALL:HdrFactory.obj
 0001:00031da4       ?QueryInterface@?$CComContainedObject@VCHdrDate@@@ATL@@UAAJABU_GUID@@PAPAX@Z 10032da4 f i exsmime_ALL:HdrFactory.obj
 0001:00031dc0       ?QueryInterface@?$CComContainedObject@VCHdrDate@@@ATL@@WBFE@AAJABU_GUID@@PAPAX@Z 10032dc0 f i exsmime_ALL:HdrFactory.obj
 0001:00031dc8       ?Release@?$CComContainedObject@VCHdrDate@@@ATL@@WDE@AAKXZ 10032dc8 f i exsmime_ALL:HdrFactory.obj
 0001:00031dd0       ?AddRef@?$CComContainedObject@VCHdrDate@@@ATL@@WDE@AAKXZ 10032dd0 f i exsmime_ALL:HdrFactory.obj
 0001:00031dd8       ?Release@?$CComContainedObject@VCHdrDate@@@ATL@@WBFE@AAKXZ 10032dd8 f i exsmime_ALL:HdrFactory.obj
 0001:00031de0       ?QueryInterface@?$CComContainedObject@VCHdrDate@@@ATL@@WDE@AAJABU_GUID@@PAPAX@Z 10032de0 f i exsmime_ALL:HdrFactory.obj
 0001:00031de8       ?AddRef@?$CComContainedObject@VCHdrDate@@@ATL@@WBFE@AAKXZ 10032de8 f i exsmime_ALL:HdrFactory.obj
 0001:00031df0       ?typeFromName@CMIMEHeaderFactory@@UAAJPBEPAW4MIMEHEADER_T@@@Z 10032df0 f   exsmime_ALL:HdrFactory.obj
 0001:00031dfc       ??0?$CComPolyObject@VCHdrDate@@@ATL@@QAA@PAX@Z 10032dfc f i exsmime_ALL:HdrFactory.obj
 0001:00031e48       ?QueryInterface@?$CComPolyObject@VCHdrDate@@@ATL@@UAAJABU_GUID@@PAPAX@Z 10032e48 f i exsmime_ALL:HdrFactory.obj
 0001:00031ed4       ??1?$CComPolyObject@VCHdrDate@@@ATL@@UAA@XZ 10032ed4 f i exsmime_ALL:HdrFactory.obj
 0001:00031f24       ?AddRef@?$CComPolyObject@VCHdrDate@@@ATL@@UAAKXZ 10032f24 f i exsmime_ALL:HdrFactory.obj
 0001:00031f2c       ?Release@?$CComPolyObject@VCHdrDate@@@ATL@@UAAKXZ 10032f2c f i exsmime_ALL:HdrFactory.obj
 0001:00031f64       ??_E?$CComPolyObject@VCHdrDate@@@ATL@@UAAPAXI@Z 10032f64 f i exsmime_ALL:HdrFactory.obj
 0001:00031f64       ??_G?$CComPolyObject@VCHdrDate@@@ATL@@UAAPAXI@Z 10032f64 f i exsmime_ALL:HdrFactory.obj
 0001:00031f88       ?createHeader@CMIMEHeaderFactory@@UAAJPBE0PAPAUIMIMEHeader@@@Z 10032f88 f   exsmime_ALL:HdrFactory.obj
 0001:000320cc       ?CreateInstance@?$CComPolyObject@VCHdrDate@@@ATL@@SAJPAUIUnknown@@PAPAV12@@Z 100330cc f i exsmime_ALL:HdrFactory.obj
 0001:000321a4       ??0CMimeHeader@@QAA@XZ     100331a4 f i exsmime_ALL:HdrFactory.obj
 0001:00032244       ??0CHdrAddress@@QAA@XZ     10033244 f i exsmime_ALL:HdrFactory.obj
 0001:00032290       ??0CHdrReceived@@QAA@XZ    10033290 f i exsmime_ALL:HdrFactory.obj
 0001:000322d0       ??0?$CComContainedObject@VCHdrContentType@@@ATL@@QAA@PAX@Z 100332d0 f i exsmime_ALL:HdrFactory.obj
 0001:0003234c       ?AddRef@?$CComContainedObject@VCHdrContentType@@@ATL@@UAAKXZ 1003334c f i exsmime_ALL:HdrFactory.obj
 0001:00032368       ?Release@?$CComContainedObject@VCHdrContentType@@@ATL@@UAAKXZ 10033368 f i exsmime_ALL:HdrFactory.obj
 0001:00032384       ?QueryInterface@?$CComContainedObject@VCHdrContentType@@@ATL@@UAAJABU_GUID@@PAPAX@Z 10033384 f i exsmime_ALL:HdrFactory.obj
 0001:000323a0       ?QueryInterface@?$CComContainedObject@VCHdrContentType@@@ATL@@WDE@AAJABU_GUID@@PAPAX@Z 100333a0 f i exsmime_ALL:HdrFactory.obj
 0001:000323a8       ?AddRef@?$CComContainedObject@VCHdrContentType@@@ATL@@WBFE@AAKXZ 100333a8 f i exsmime_ALL:HdrFactory.obj
 0001:000323b0       ?QueryInterface@?$CComContainedObject@VCHdrContentType@@@ATL@@WBFE@AAJABU_GUID@@PAPAX@Z 100333b0 f i exsmime_ALL:HdrFactory.obj
 0001:000323b8       ?Release@?$CComContainedObject@VCHdrContentType@@@ATL@@WDE@AAKXZ 100333b8 f i exsmime_ALL:HdrFactory.obj
 0001:000323c0       ?AddRef@?$CComContainedObject@VCHdrContentType@@@ATL@@WDE@AAKXZ 100333c0 f i exsmime_ALL:HdrFactory.obj
 0001:000323c8       ?Release@?$CComContainedObject@VCHdrContentType@@@ATL@@WBFE@AAKXZ 100333c8 f i exsmime_ALL:HdrFactory.obj
 0001:000323d0       ??0?$CComContainedObject@VCHdrContentDisposition@@@ATL@@QAA@PAX@Z 100333d0 f i exsmime_ALL:HdrFactory.obj
 0001:0003243c       ?AddRef@?$CComContainedObject@VCHdrContentDisposition@@@ATL@@UAAKXZ 1003343c f i exsmime_ALL:HdrFactory.obj
 0001:00032458       ?Release@?$CComContainedObject@VCHdrContentDisposition@@@ATL@@UAAKXZ 10033458 f i exsmime_ALL:HdrFactory.obj
 0001:00032474       ?QueryInterface@?$CComContainedObject@VCHdrContentDisposition@@@ATL@@UAAJABU_GUID@@PAPAX@Z 10033474 f i exsmime_ALL:HdrFactory.obj
 0001:00032490       ?QueryInterface@?$CComContainedObject@VCHdrContentDisposition@@@ATL@@WDE@AAJABU_GUID@@PAPAX@Z 10033490 f i exsmime_ALL:HdrFactory.obj
 0001:00032498       ?AddRef@?$CComContainedObject@VCHdrContentDisposition@@@ATL@@WBFE@AAKXZ 10033498 f i exsmime_ALL:HdrFactory.obj
 0001:000324a0       ?QueryInterface@?$CComContainedObject@VCHdrContentDisposition@@@ATL@@WBFE@AAJABU_GUID@@PAPAX@Z 100334a0 f i exsmime_ALL:HdrFactory.obj
 0001:000324a8       ?Release@?$CComContainedObject@VCHdrContentDisposition@@@ATL@@WDE@AAKXZ 100334a8 f i exsmime_ALL:HdrFactory.obj
 0001:000324b0       ?AddRef@?$CComContainedObject@VCHdrContentDisposition@@@ATL@@WDE@AAKXZ 100334b0 f i exsmime_ALL:HdrFactory.obj
 0001:000324b8       ?Release@?$CComContainedObject@VCHdrContentDisposition@@@ATL@@WBFE@AAKXZ 100334b8 f i exsmime_ALL:HdrFactory.obj
 0001:000324c0       ??0?$CComContainedObject@VCHdrAddress@@@ATL@@QAA@PAX@Z 100334c0 f i exsmime_ALL:HdrFactory.obj
 0001:00032530       ?AddRef@?$CComContainedObject@VCHdrAddress@@@ATL@@UAAKXZ 10033530 f i exsmime_ALL:HdrFactory.obj
 0001:0003254c       ?Release@?$CComContainedObject@VCHdrAddress@@@ATL@@UAAKXZ 1003354c f i exsmime_ALL:HdrFactory.obj
 0001:00032568       ?QueryInterface@?$CComContainedObject@VCHdrAddress@@@ATL@@UAAJABU_GUID@@PAPAX@Z 10033568 f i exsmime_ALL:HdrFactory.obj
 0001:00032584       ?Release@?$CComContainedObject@VCHdrAddress@@@ATL@@WBFI@AAKXZ 10033584 f i exsmime_ALL:HdrFactory.obj
 0001:0003258c       ?Release@?$CComContainedObject@VCHdrAddress@@@ATL@@WBFM@AAKXZ 1003358c f i exsmime_ALL:HdrFactory.obj
 0001:00032594       ?AddRef@?$CComContainedObject@VCHdrAddress@@@ATL@@WBFE@AAKXZ 10033594 f i exsmime_ALL:HdrFactory.obj
 0001:0003259c       ?QueryInterface@?$CComContainedObject@VCHdrAddress@@@ATL@@WDE@AAJABU_GUID@@PAPAX@Z 1003359c f i exsmime_ALL:HdrFactory.obj
 0001:000325a4       ?AddRef@?$CComContainedObject@VCHdrAddress@@@ATL@@WBFI@AAKXZ 100335a4 f i exsmime_ALL:HdrFactory.obj
 0001:000325ac       ?AddRef@?$CComContainedObject@VCHdrAddress@@@ATL@@WBFM@AAKXZ 100335ac f i exsmime_ALL:HdrFactory.obj
 0001:000325b4       ?QueryInterface@?$CComContainedObject@VCHdrAddress@@@ATL@@WBFE@AAJABU_GUID@@PAPAX@Z 100335b4 f i exsmime_ALL:HdrFactory.obj
 0001:000325bc       ?Release@?$CComContainedObject@VCHdrAddress@@@ATL@@WDE@AAKXZ 100335bc f i exsmime_ALL:HdrFactory.obj
 0001:000325c4       ?QueryInterface@?$CComContainedObject@VCHdrAddress@@@ATL@@WBFI@AAJABU_GUID@@PAPAX@Z 100335c4 f i exsmime_ALL:HdrFactory.obj
 0001:000325cc       ?QueryInterface@?$CComContainedObject@VCHdrAddress@@@ATL@@WBFM@AAJABU_GUID@@PAPAX@Z 100335cc f i exsmime_ALL:HdrFactory.obj
 0001:000325d4       ?AddRef@?$CComContainedObject@VCHdrAddress@@@ATL@@WDE@AAKXZ 100335d4 f i exsmime_ALL:HdrFactory.obj
 0001:000325dc       ?Release@?$CComContainedObject@VCHdrAddress@@@ATL@@WBFE@AAKXZ 100335dc f i exsmime_ALL:HdrFactory.obj
 0001:000325e4       ??0?$CComContainedObject@VCHdrReceived@@@ATL@@QAA@PAX@Z 100335e4 f i exsmime_ALL:HdrFactory.obj
 0001:0003263c       ?AddRef@?$CComContainedObject@VCHdrReceived@@@ATL@@UAAKXZ 1003363c f i exsmime_ALL:HdrFactory.obj
 0001:00032658       ?Release@?$CComContainedObject@VCHdrReceived@@@ATL@@UAAKXZ 10033658 f i exsmime_ALL:HdrFactory.obj
 0001:00032674       ?QueryInterface@?$CComContainedObject@VCHdrReceived@@@ATL@@UAAJABU_GUID@@PAPAX@Z 10033674 f i exsmime_ALL:HdrFactory.obj
 0001:00032690       ?AddRef@?$CComContainedObject@VCHdrReceived@@@ATL@@WDE@AAKXZ 10033690 f i exsmime_ALL:HdrFactory.obj
 0001:00032698       ?Release@?$CComContainedObject@VCHdrReceived@@@ATL@@WBFE@AAKXZ 10033698 f i exsmime_ALL:HdrFactory.obj
 0001:000326a0       ?QueryInterface@?$CComContainedObject@VCHdrReceived@@@ATL@@WDE@AAJABU_GUID@@PAPAX@Z 100336a0 f i exsmime_ALL:HdrFactory.obj
 0001:000326a8       ?AddRef@?$CComContainedObject@VCHdrReceived@@@ATL@@WBFE@AAKXZ 100336a8 f i exsmime_ALL:HdrFactory.obj
 0001:000326b0       ?QueryInterface@?$CComContainedObject@VCHdrReceived@@@ATL@@WBFE@AAJABU_GUID@@PAPAX@Z 100336b0 f i exsmime_ALL:HdrFactory.obj
 0001:000326b8       ?Release@?$CComContainedObject@VCHdrReceived@@@ATL@@WDE@AAKXZ 100336b8 f i exsmime_ALL:HdrFactory.obj
 0001:000326c0       ??0?$CComContainedObject@VCMimeHeader@@@ATL@@QAA@PAX@Z 100336c0 f i exsmime_ALL:HdrFactory.obj
 0001:0003270c       ?AddRef@?$CComContainedObject@VCMimeHeader@@@ATL@@UAAKXZ 1003370c f i exsmime_ALL:HdrFactory.obj
 0001:00032728       ?Release@?$CComContainedObject@VCMimeHeader@@@ATL@@UAAKXZ 10033728 f i exsmime_ALL:HdrFactory.obj
 0001:00032744       ?QueryInterface@?$CComContainedObject@VCMimeHeader@@@ATL@@UAAJABU_GUID@@PAPAX@Z 10033744 f i exsmime_ALL:HdrFactory.obj
 0001:00032760       ?AddRef@?$CComContainedObject@VCMimeHeader@@@ATL@@WDE@AAKXZ 10033760 f i exsmime_ALL:HdrFactory.obj
 0001:00032768       ?QueryInterface@?$CComContainedObject@VCMimeHeader@@@ATL@@WDE@AAJABU_GUID@@PAPAX@Z 10033768 f i exsmime_ALL:HdrFactory.obj
 0001:00032770       ?Release@?$CComContainedObject@VCMimeHeader@@@ATL@@WDE@AAKXZ 10033770 f i exsmime_ALL:HdrFactory.obj
 0001:00032778       ??0?$CComPolyObject@VCHdrContentType@@@ATL@@QAA@PAX@Z 10033778 f i exsmime_ALL:HdrFactory.obj
 0001:000327c4       ?QueryInterface@?$CComPolyObject@VCHdrContentType@@@ATL@@UAAJABU_GUID@@PAPAX@Z 100337c4 f i exsmime_ALL:HdrFactory.obj
 0001:00032850       ??1?$CComPolyObject@VCHdrContentType@@@ATL@@UAA@XZ 10033850 f i exsmime_ALL:HdrFactory.obj
 0001:000328a0       ?AddRef@?$CComPolyObject@VCHdrContentType@@@ATL@@UAAKXZ 100338a0 f i exsmime_ALL:HdrFactory.obj
 0001:000328a8       ?Release@?$CComPolyObject@VCHdrContentType@@@ATL@@UAAKXZ 100338a8 f i exsmime_ALL:HdrFactory.obj
 0001:000328e0       ??_G?$CComPolyObject@VCHdrContentType@@@ATL@@UAAPAXI@Z 100338e0 f i exsmime_ALL:HdrFactory.obj
 0001:000328e0       ??_E?$CComPolyObject@VCHdrContentType@@@ATL@@UAAPAXI@Z 100338e0 f i exsmime_ALL:HdrFactory.obj
 0001:00032904       ??0?$CComPolyObject@VCHdrContentDisposition@@@ATL@@QAA@PAX@Z 10033904 f i exsmime_ALL:HdrFactory.obj
 0001:00032950       ?QueryInterface@?$CComPolyObject@VCHdrContentDisposition@@@ATL@@UAAJABU_GUID@@PAPAX@Z 10033950 f i exsmime_ALL:HdrFactory.obj
 0001:000329dc       ??1?$CComPolyObject@VCHdrContentDisposition@@@ATL@@UAA@XZ 100339dc f i exsmime_ALL:HdrFactory.obj
 0001:00032a2c       ?AddRef@?$CComPolyObject@VCHdrContentDisposition@@@ATL@@UAAKXZ 10033a2c f i exsmime_ALL:HdrFactory.obj
 0001:00032a34       ?Release@?$CComPolyObject@VCHdrContentDisposition@@@ATL@@UAAKXZ 10033a34 f i exsmime_ALL:HdrFactory.obj
 0001:00032a6c       ??_G?$CComPolyObject@VCHdrContentDisposition@@@ATL@@UAAPAXI@Z 10033a6c f i exsmime_ALL:HdrFactory.obj
 0001:00032a6c       ??_E?$CComPolyObject@VCHdrContentDisposition@@@ATL@@UAAPAXI@Z 10033a6c f i exsmime_ALL:HdrFactory.obj
 0001:00032a90       ??0?$CComPolyObject@VCHdrAddress@@@ATL@@QAA@PAX@Z 10033a90 f i exsmime_ALL:HdrFactory.obj
 0001:00032adc       ?QueryInterface@?$CComPolyObject@VCHdrAddress@@@ATL@@UAAJABU_GUID@@PAPAX@Z 10033adc f i exsmime_ALL:HdrFactory.obj
 0001:00032b68       ??1?$CComPolyObject@VCHdrAddress@@@ATL@@UAA@XZ 10033b68 f i exsmime_ALL:HdrFactory.obj
 0001:00032bd4       ?AddRef@?$CComPolyObject@VCHdrAddress@@@ATL@@UAAKXZ 10033bd4 f i exsmime_ALL:HdrFactory.obj
 0001:00032bdc       ?Release@?$CComPolyObject@VCHdrAddress@@@ATL@@UAAKXZ 10033bdc f i exsmime_ALL:HdrFactory.obj
 0001:00032c14       ??_G?$CComPolyObject@VCHdrAddress@@@ATL@@UAAPAXI@Z 10033c14 f i exsmime_ALL:HdrFactory.obj
 0001:00032c14       ??_E?$CComPolyObject@VCHdrAddress@@@ATL@@UAAPAXI@Z 10033c14 f i exsmime_ALL:HdrFactory.obj
 0001:00032c38       ??0?$CComPolyObject@VCHdrReceived@@@ATL@@QAA@PAX@Z 10033c38 f i exsmime_ALL:HdrFactory.obj
 0001:00032c84       ?_Chain@CComObjectRootBase@ATL@@SAJPAXABU_GUID@@PAPAXK@Z 10033c84 f i exsmime_ALL:HdrFactory.obj
 0001:00032cb8       ?_GetEntries@CMimeHeader@@SAPBU_ATL_INTMAP_ENTRY@ATL@@XZ 10033cb8 f i exsmime_ALL:HdrFactory.obj
 0001:00032cc4       ??1?$CComPolyObject@VCHdrReceived@@@ATL@@UAA@XZ 10033cc4 f i exsmime_ALL:HdrFactory.obj
 0001:00032d14       ?AddRef@?$CComPolyObject@VCHdrReceived@@@ATL@@UAAKXZ 10033d14 f i exsmime_ALL:HdrFactory.obj
 0001:00032d1c       ?Release@?$CComPolyObject@VCHdrReceived@@@ATL@@UAAKXZ 10033d1c f i exsmime_ALL:HdrFactory.obj
 0001:00032d54       ?QueryInterface@?$CComPolyObject@VCHdrReceived@@@ATL@@UAAJABU_GUID@@PAPAX@Z 10033d54 f i exsmime_ALL:HdrFactory.obj
 0001:00032de0       ??_G?$CComPolyObject@VCHdrReceived@@@ATL@@UAAPAXI@Z 10033de0 f i exsmime_ALL:HdrFactory.obj
 0001:00032de0       ??_E?$CComPolyObject@VCHdrReceived@@@ATL@@UAAPAXI@Z 10033de0 f i exsmime_ALL:HdrFactory.obj
 0001:00032e04       ??0?$CComPolyObject@VCMimeHeader@@@ATL@@QAA@PAX@Z 10033e04 f i exsmime_ALL:HdrFactory.obj
 0001:00032e50       ?QueryInterface@?$CComPolyObject@VCMimeHeader@@@ATL@@UAAJABU_GUID@@PAPAX@Z 10033e50 f i exsmime_ALL:HdrFactory.obj
 0001:00032edc       ??1?$CComPolyObject@VCMimeHeader@@@ATL@@UAA@XZ 10033edc f i exsmime_ALL:HdrFactory.obj
 0001:00032f2c       ?AddRef@?$CComPolyObject@VCMimeHeader@@@ATL@@UAAKXZ 10033f2c f i exsmime_ALL:HdrFactory.obj
 0001:00032f34       ?Release@?$CComPolyObject@VCMimeHeader@@@ATL@@UAAKXZ 10033f34 f i exsmime_ALL:HdrFactory.obj
 0001:00032f6c       ??_E?$CComPolyObject@VCMimeHeader@@@ATL@@UAAPAXI@Z 10033f6c f i exsmime_ALL:HdrFactory.obj
 0001:00032f6c       ??_G?$CComPolyObject@VCMimeHeader@@@ATL@@UAAPAXI@Z 10033f6c f i exsmime_ALL:HdrFactory.obj
 0001:00032f90       ?CreateInstance@?$CComPolyObject@VCHdrContentType@@@ATL@@SAJPAUIUnknown@@PAPAV12@@Z 10033f90 f i exsmime_ALL:HdrFactory.obj
 0001:00033068       ?CreateInstance@?$CComPolyObject@VCHdrContentDisposition@@@ATL@@SAJPAUIUnknown@@PAPAV12@@Z 10034068 f i exsmime_ALL:HdrFactory.obj
 0001:00033140       ?CreateInstance@?$CComPolyObject@VCHdrAddress@@@ATL@@SAJPAUIUnknown@@PAPAV12@@Z 10034140 f i exsmime_ALL:HdrFactory.obj
 0001:00033218       ?CreateInstance@?$CComPolyObject@VCHdrReceived@@@ATL@@SAJPAUIUnknown@@PAPAV12@@Z 10034218 f i exsmime_ALL:HdrFactory.obj
 0001:000332f0       ?CreateInstance@?$CComPolyObject@VCMimeHeader@@@ATL@@SAJPAUIUnknown@@PAPAV12@@Z 100342f0 f i exsmime_ALL:HdrFactory.obj
 0001:000333c8       ?create@CMIMEHeaderFactory@@UAAJPAUIUnknown@@PBEPAPAU2@@Z 100343c8 f   exsmime_ALL:HdrFactory.obj
 0001:000337c4       ?FinalConstruct@CMimeHeader@@UAAJXZ 100347c4 f   exsmime_ALL:MimeHeader.obj
 0001:000337d4       ?FinalRelease@CMimeHeader@@UAAXXZ 100347d4 f   exsmime_ALL:MimeHeader.obj
 0001:000337f8       ?type@CMimeHeader@@UAAJPAW4MIMEHEADER_T@@@Z 100347f8 f   exsmime_ALL:MimeHeader.obj
 0001:00033814       ?LastWordPos@CMimeHeader@@IBAIPBEI@Z 10034814 f   exsmime_ALL:MimeHeader.obj
 0001:00033884       ?NextWordPos@CMimeHeader@@IBAIPBEI@Z 10034884 f   exsmime_ALL:MimeHeader.obj
 0001:000338c8       ?WriteChunk@CMimeHeader@@IAAJP8MIMENodeSerialize@@AAJPBXK@ZPBEI@Z 100348c8 f   exsmime_ALL:MimeHeader.obj
 0001:00033b18       ?WriteXML@CMimeHeader@@MAAJP8MIMENodeSerialize@@AAJPBXK@Z@Z 10034b18 f   exsmime_ALL:MimeHeader.obj
 0001:00033b24       ?Init@CMimeHeader@@UAAJPBEW4MIMEHEADER_T@@@Z 10034b24 f   exsmime_ALL:MimeHeader.obj
 0001:00033bb4       ?appendLine@CMimeHeader@@UAAJPAUIRefLine@@@Z 10034bb4 f   exsmime_ALL:MimeHeader.obj
 0001:00033cc8       ?name@CMimeHeader@@UAAJPAPAE@Z 10034cc8 f   exsmime_ALL:MimeHeader.obj
 0001:00033d28       ?isName@CMimeHeader@@UAAJPBE@Z 10034d28 f   exsmime_ALL:MimeHeader.obj
 0001:00033d74       ?ReleaseLines@CMimeHeader@@MAAXXZ 10034d74 f   exsmime_ALL:MimeHeader.obj
 0001:00033db4       ?getLine@CMimeHeader@@UAAJKPAPAUIRefLine@@@Z 10034db4 f   exsmime_ALL:MimeHeader.obj
 0001:00033e00       ?putValue@CMimeHeader@@UAAJPBE@Z 10034e00 f   exsmime_ALL:MimeHeader.obj
 0001:00033f28       ?value@CMimeHeader@@UAAJPAPAE@Z 10034f28 f   exsmime_ALL:MimeHeader.obj
 0001:00034010       ?FindParameter@CMimeHeaderWithParameters@@SAJPAUIMIMENode@@PBEPAPAUIMIMEParameter@@@Z 10035010 f   exsmime_ALL:MimeHeader.obj
 0001:00034240       ?createParameter@CMimeHeaderWithParameters@@UAAJPBE0PAPAUIMIMEParameter@@@Z 10035240 f   exsmime_ALL:MimeHeader.obj
 0001:00034364       ?WriteParameters@CMimeHeaderWithParameters@@MAAJPAUIMIMENode@@P8MIMENodeSerialize@@AAJPBXK@ZH@Z 10035364 f   exsmime_ALL:MimeHeader.obj
 0001:00034684       ??1CMimeHeader@@IAA@XZ     10035684 f   exsmime_ALL:MimeHeader.obj
 0001:00034704       ?remove@CMimeHeader@@UAAJXZ 10035704 f   exsmime_ALL:MimeHeader.obj
 0001:000347b8       ?MergeLines@CMimeHeader@@IAAJK@Z 100357b8 f   exsmime_ALL:MimeHeader.obj
 0001:000349b4       ?WriteMIME@CMimeHeader@@MAAJP8MIMENodeSerialize@@AAJPBXK@Z@Z 100359b4 f   exsmime_ALL:MimeHeader.obj
 0001:00034b88       ?ParseParameters@CMimeHeaderWithParameters@@MAAJPAXPAUIRefLine@@PAEK2@Z 10035b88 f   exsmime_ALL:MimeHeader.obj
 0001:000368e8       ??0CMimeParameter@@QAA@XZ  100378e8 f i exsmime_ALL:MimeHeader.obj
 0001:00036970       ??0?$CComContainedObject@VCMimeParameter@@@ATL@@QAA@PAX@Z 10037970 f i exsmime_ALL:MimeHeader.obj
 0001:000369bc       ?FinalRelease@CMimeParameter@@UAAXXZ 100379bc f i exsmime_ALL:MimeHeader.obj
 0001:000369c4       ?ThisNode@?$IMimeNodeImpl@UIMIMEParameter@@@@UAAPAUIMIMENode@@XZ 100379c4 f i exsmime_ALL:MimeHeader.obj
 0001:000369cc       ?parent@?$IMimeNodeImpl@UIMIMEParameter@@@@UAAJPAPAUIMIMENode@@@Z 100379cc f i exsmime_ALL:MimeHeader.obj
 0001:000369d4       ?firstChild@?$IMimeNodeImpl@UIMIMEParameter@@@@UAAJPAPAUIMIMENode@@@Z 100379d4 f i exsmime_ALL:MimeHeader.obj
 0001:000369dc       ?lastChild@?$IMimeNodeImpl@UIMIMEParameter@@@@UAAJPAPAUIMIMENode@@@Z 100379dc f i exsmime_ALL:MimeHeader.obj
 0001:000369e4       ?nextSibling@?$IMimeNodeImpl@UIMIMEParameter@@@@UAAJPAPAUIMIMENode@@@Z 100379e4 f i exsmime_ALL:MimeHeader.obj
 0001:000369ec       ?previousSibling@?$IMimeNodeImpl@UIMIMEParameter@@@@UAAJPAPAUIMIMENode@@@Z 100379ec f i exsmime_ALL:MimeHeader.obj
 0001:000369f4       ?toString@?$IMimeNodeImpl@UIMIMEParameter@@@@UAAJKPAKQAE@Z 100379f4 f i exsmime_ALL:MimeHeader.obj
 0001:000369fc       ?toXMLString@?$IMimeNodeImpl@UIMIMEParameter@@@@UAAJKPAKQAE@Z 100379fc f i exsmime_ALL:MimeHeader.obj
 0001:00036a04       ?Serialize@?$IMimeNodeImpl@UIMIMEParameter@@@@UAAJKPAUISequentialStream@@@Z 10037a04 f i exsmime_ALL:MimeHeader.obj
 0001:00036a0c       ?setParent@?$IMimeNodeImpl@UIMIMEParameter@@@@UAAJPAUIMIMENode@@@Z 10037a0c f i exsmime_ALL:MimeHeader.obj
 0001:00036a14       ?setNext@?$IMimeNodeImpl@UIMIMEParameter@@@@UAAJPAUIMIMENode@@@Z 10037a14 f i exsmime_ALL:MimeHeader.obj
 0001:00036a1c       ?setPrevious@?$IMimeNodeImpl@UIMIMEParameter@@@@UAAJPAUIMIMENode@@@Z 10037a1c f i exsmime_ALL:MimeHeader.obj
 0001:00036a24       ?remove@?$IMimeNodeImpl@UIMIMEParameter@@@@UAAJXZ 10037a24 f i exsmime_ALL:MimeHeader.obj
 0001:00036a4c       ?removeChild@?$IMimeNodeImpl@UIMIMEParameter@@@@UAAJPAUIMIMENode@@@Z 10037a4c f i exsmime_ALL:MimeHeader.obj
 0001:00036a5c       ?AddRef@?$CComContainedObject@VCMimeParameter@@@ATL@@UAAKXZ 10037a5c f i exsmime_ALL:MimeHeader.obj
 0001:00036a78       ?Release@?$CComContainedObject@VCMimeParameter@@@ATL@@UAAKXZ 10037a78 f i exsmime_ALL:MimeHeader.obj
 0001:00036a94       ?QueryInterface@?$CComContainedObject@VCMimeParameter@@@ATL@@UAAJABU_GUID@@PAPAX@Z 10037a94 f i exsmime_ALL:MimeHeader.obj
 0001:00036ab0       ?Release@?$CComContainedObject@VCMimeParameter@@@ATL@@WDE@AAKXZ 10037ab0 f i exsmime_ALL:MimeHeader.obj
 0001:00036ab8       ?AddRef@?$CComContainedObject@VCMimeParameter@@@ATL@@WDE@AAKXZ 10037ab8 f i exsmime_ALL:MimeHeader.obj
 0001:00036ac0       ?QueryInterface@?$CComContainedObject@VCMimeParameter@@@ATL@@WDE@AAJABU_GUID@@PAPAX@Z 10037ac0 f i exsmime_ALL:MimeHeader.obj
 0001:00036ac8       ??0?$CComPolyObject@VCMimeParameter@@@ATL@@QAA@PAX@Z 10037ac8 f i exsmime_ALL:MimeHeader.obj
 0001:00036b14       ?QueryInterface@?$CComPolyObject@VCMimeParameter@@@ATL@@UAAJABU_GUID@@PAPAX@Z 10037b14 f i exsmime_ALL:MimeHeader.obj
 0001:00036ba0       ??1?$CComPolyObject@VCMimeParameter@@@ATL@@UAA@XZ 10037ba0 f i exsmime_ALL:MimeHeader.obj
 0001:00036bf0       ?AddRef@?$CComPolyObject@VCMimeParameter@@@ATL@@UAAKXZ 10037bf0 f i exsmime_ALL:MimeHeader.obj
 0001:00036bf8       ?Release@?$CComPolyObject@VCMimeParameter@@@ATL@@UAAKXZ 10037bf8 f i exsmime_ALL:MimeHeader.obj
 0001:00036c30       ??_G?$CComPolyObject@VCMimeParameter@@@ATL@@UAAPAXI@Z 10037c30 f i exsmime_ALL:MimeHeader.obj
 0001:00036c30       ??_E?$CComPolyObject@VCMimeParameter@@@ATL@@UAAPAXI@Z 10037c30 f i exsmime_ALL:MimeHeader.obj
 0001:00036c54       ?CreateInstance@?$CComPolyObject@VCMimeParameter@@@ATL@@SAJPAUIUnknown@@PAPAV12@@Z 10037c54 f i exsmime_ALL:MimeHeader.obj
 0001:00036d2c       ?create@CMimeHeaderWithParameters@@UAAJPAUIUnknown@@PBEPAPAU2@@Z 10037d2c f   exsmime_ALL:MimeHeader.obj
 0001:00036e10       ?_GetProcFromDLL@@YAXPAPAUHINSTANCE__@@PBGPAP6AHXZ1@Z 10037e10 f   exsmime_ALL:dllload.obj
 0001:00036e64       CoInternetGetSession       10037e64 f   exsmime_ALL:dllload.obj
 0001:00036ec4       ?ScanComment@MimeToken@@SAIPBEIPAK@Z 10037ec4 f   exsmime_ALL:Token.obj
 0001:0003706c       ?SkipCFWS@MimeToken@@SAIPBEIPAK@Z 1003806c f   exsmime_ALL:Token.obj
 0001:00037104       ?FindEndOf@MimeToken@@SAIGPBEI@Z 10038104 f   exsmime_ALL:Token.obj
 0001:00037144       ?FindNextOf@MimeToken@@SAIGPBEI@Z 10038144 f   exsmime_ALL:Token.obj
 0001:00037184       ?ScanQuotedString@MimeToken@@SAIPBEI_N1@Z 10038184 f   exsmime_ALL:Token.obj
 0001:000372f0       ?SkipToNextDelimiter@MimeToken@@SAIEPBEIPAKPA_N@Z 100382f0 f   exsmime_ALL:Token.obj
 0001:000373b4       ?FinalRelease@CHdrAddress@@UAAXXZ 100383b4 f   exsmime_ALL:HdrAddress.obj
 0001:000373c0       ?value@CHdrAddress@@UAAJPAPAE@Z 100383c0 f   exsmime_ALL:HdrAddress.obj
 0001:000373dc       ?appendLine@CHdrAddress@@UAAJPAUIRefLine@@@Z 100383dc f   exsmime_ALL:HdrAddress.obj
 0001:000373f8       ?WriteXML@CHdrAddress@@MAAJP8MIMENodeSerialize@@AAJPBXK@Z@Z 100383f8 f   exsmime_ALL:HdrAddress.obj
 0001:00037404       ?LockServer@CHdrAddress@@UAAJH@Z 10038404 f   exsmime_ALL:HdrAddress.obj
 0001:0003740c       ?ParseToDelimiter@CAddressParser@@IAAK_N@Z 1003840c f   exsmime_ALL:HdrAddress.obj
 0001:00037474       ?ParseAppendParsedFragment@CAddressParser@@IAAJPAVCFragSubstr@@K@Z 10038474 f   exsmime_ALL:HdrAddress.obj
 0001:000374d0       ?IsDContent@@YA_ND@Z       100384d0 f i exsmime_ALL:HdrAddress.obj
 0001:0003750c       ?IsLetDig@@YA_ND@Z         1003850c f i exsmime_ALL:HdrAddress.obj
 0001:00037564       ?IsHex@@YA_ND@Z            10038564 f i exsmime_ALL:HdrAddress.obj
 0001:000375bc       ?ValidateAddress@CAddressParser@@SA_NPBD@Z 100385bc f   exsmime_ALL:HdrAddress.obj
 0001:00037a8c       ?putValue@CHdrAddress@@UAAJPBE@Z 10038a8c f   exsmime_ALL:HdrAddress.obj
 0001:00037af4       ?ParseNextLine@CAddressParser@@IAAJXZ 10038af4 f   exsmime_ALL:HdrAddress.obj
 0001:00037b50       ?ParseAppendSpace@CAddressParser@@IAAJPAVCFragSubstr@@@Z 10038b50 f   exsmime_ALL:HdrAddress.obj
 0001:00037c30       ?ParseSkipWhitespace@CAddressParser@@IAAJXZ 10038c30 f   exsmime_ALL:HdrAddress.obj
 0001:00037d14       ?IsEqualObject@?$CComPtrBase@UIHeaderInt@@@ATL@@QAA_NPAUIUnknown@@@Z 10038d14 f i exsmime_ALL:HdrAddress.obj
 0001:00037de0       ?merge@CHdrAddress@@UAAJPBUIHeaderInt@@@Z 10038de0 f   exsmime_ALL:HdrAddress.obj
 0001:00038068       ?Init@CAddressParser@@QAAJPAV?$CTPtrList@UIRefLine@@@@_N1@Z 10039068 f   exsmime_ALL:HdrAddress.obj
 0001:000380c8       ?ParseGet@CAddressParser@@IAAEXZ 100390c8 f   exsmime_ALL:HdrAddress.obj
 0001:00038128       ?ParseQString@CAddressParser@@IAAJPAVCFragSubstr@@@Z 10039128 f   exsmime_ALL:HdrAddress.obj
 0001:0003825c       ?ParseComment@CAddressParser@@IAAJPAVCFragSubstr@@@Z 1003925c f   exsmime_ALL:HdrAddress.obj
 0001:00038328       ?ParseDomainLiteral@CAddressParser@@IAAJPAVCFragSubstr@@@Z 10039328 f   exsmime_ALL:HdrAddress.obj
 0001:00038418       ?parseList@CHdrAddress@@UAAJPBEK@Z 10039418 f   exsmime_ALL:HdrAddress.obj
 0001:0003846c       ?ParseNextMailbox@CAddressParser@@QAAJPAVCFragSubstr@@0@Z 1003946c f   exsmime_ALL:HdrAddress.obj
 0001:00038bc8       ?ParseNextMailbox@CHdrAddress@@IAAJPAPAUIMIMENode@@@Z 10039bc8 f   exsmime_ALL:HdrAddress.obj
 0001:00038fe8       ??0?$CComPolyObject@VCMailBox@@@ATL@@QAA@PAX@Z 10039fe8 f i exsmime_ALL:HdrAddress.obj
 0001:00039034       ?AddRef@?$CComPolyObject@VCMailBox@@@ATL@@UAAKXZ 1003a034 f i exsmime_ALL:HdrAddress.obj
 0001:00039048       ?Release@?$CComPolyObject@VCMailBox@@@ATL@@UAAKXZ 1003a048 f i exsmime_ALL:HdrAddress.obj
 0001:00039080       ?QueryInterface@?$CComPolyObject@VCMailBox@@@ATL@@UAAJABU_GUID@@PAPAX@Z 1003a080 f i exsmime_ALL:HdrAddress.obj
 0001:0003910c       ??1?$CComPolyObject@VCMailBox@@@ATL@@UAA@XZ 1003a10c f i exsmime_ALL:HdrAddress.obj
 0001:0003914c       ??_G?$CComPolyObject@VCMailBox@@@ATL@@UAAPAXI@Z 1003a14c f i exsmime_ALL:HdrAddress.obj
 0001:0003914c       ??_E?$CComPolyObject@VCMailBox@@@ATL@@UAAPAXI@Z 1003a14c f i exsmime_ALL:HdrAddress.obj
 0001:00039170       ?firstChild@CHdrAddress@@UAAJPAPAUIMIMENode@@@Z 1003a170 f   exsmime_ALL:HdrAddress.obj
 0001:0003925c       ?parseNext@CHdrAddress@@UAAJXZ 1003a25c f   exsmime_ALL:HdrAddress.obj
 0001:00039310       ?Parse@CHdrAddress@@IAAJXZ 1003a310 f   exsmime_ALL:HdrAddress.obj
 0001:000393dc       ?CreateInstance@?$CComPolyObject@VCMailBox@@@ATL@@SAJPAUIUnknown@@PAPAV12@@Z 1003a3dc f i exsmime_ALL:HdrAddress.obj
 0001:00039450       ?lastChild@CHdrAddress@@UAAJPAPAUIMIMENode@@@Z 1003a450 f   exsmime_ALL:HdrAddress.obj
 0001:000394a4       ?WriteMIME@CHdrAddress@@MAAJP8MIMENodeSerialize@@AAJPBXK@Z@Z 1003a4a4 f   exsmime_ALL:HdrAddress.obj
 0001:000397a4       ?insertBefore@CHdrAddress@@UAAJPAUIMIMENode@@0@Z 1003a7a4 f   exsmime_ALL:HdrAddress.obj
 0001:0003986c       ?CreateInstance@CHdrAddress@@UAAJPAUIUnknown@@ABU_GUID@@PAPAX@Z 1003a86c f   exsmime_ALL:HdrAddress.obj
 0001:00039950       ?EncryptionAlgorithm@CPublicKeys@@UAAJIK@Z 1003a950 f   exsmime_ALL:PublicKeys.obj
 0001:00039a48       ?AppendASNCert@CPublicKeys@@UAAJPBEK@Z 1003aa48 f   exsmime_ALL:PublicKeys.obj
 0001:00039ab4       ?Recipients@CPublicKeys@@UAAJPAK@Z 1003aab4 f   exsmime_ALL:PublicKeys.obj
 0001:00039ad0       ?Clone@CPublicKeys@@UAAJPAPAUIPublicKeys@@@Z 1003aad0 f   exsmime_ALL:PublicKeys.obj
 0001:00039adc       ?ReleaseData@CPublicKeys@@UAAXPAU_CMSG_RECIPIENT_ENCODE_INFO@@@Z 1003aadc f   exsmime_ALL:PublicKeys.obj
 0001:00039af0       ?CompactSize@CPublicKeys@@KAKPBU_CERT_CONTEXT@@@Z 1003aaf0 f   exsmime_ALL:PublicKeys.obj
 0001:00039b70       ?Parse@CPublicKeys@@KAJKPBEPAKPAPBE1212@Z 1003ab70 f   exsmime_ALL:PublicKeys.obj
 0001:00039d0c       ?FinalConstruct@CPublicKeys@@UAAJXZ 1003ad0c f   exsmime_ALL:PublicKeys.obj
 0001:00039d20       ?Count@CPublicKeys@@UAAJPAK@Z 1003ad20 f   exsmime_ALL:PublicKeys.obj
 0001:00039d3c       ?Skip@CPublicKeys@@UAAJK@Z 1003ad3c f   exsmime_ALL:PublicKeys.obj
 0001:00039dc8       ?Reset@CPublicKeys@@UAAJXZ 1003adc8 f   exsmime_ALL:PublicKeys.obj
 0001:00039de8       ?Unmarshal@CPublicKeys@@UAAJPBEK@Z 1003ade8 f   exsmime_ALL:PublicKeys.obj
 0001:0003a030       ?Types@CPublicKeys@@UAAJPAK@Z 1003b030 f   exsmime_ALL:PublicKeys.obj
 0001:0003a1f4       ?Marshal@CPublicKeys@@UAAJQAEKPAK@Z 1003b1f4 f   exsmime_ALL:PublicKeys.obj
 0001:0003a368       ?MarshalSizeMax@CPublicKeys@@UAAJPAK@Z 1003b368 f   exsmime_ALL:PublicKeys.obj
 0001:0003a3d8       ?CompactCertificate@CPublicKeys@@KAJPBU_CERT_CONTEXT@@PAEK@Z 1003b3d8 f   exsmime_ALL:PublicKeys.obj
 0001:0003a598       ?Expand2EncodeInfo@CPublicKeys@@IAAJPAU_CMSG_RECIPIENT_ENCODE_INFO@@PAX@Z 1003b598 f   exsmime_ALL:PublicKeys.obj
 0001:0003ab88       ?Cleanup@CPublicKeys@@QAAJXZ 1003bb88 f   exsmime_ALL:PublicKeys.obj
 0001:0003abd4       ?AppendCert@CPublicKeys@@UAAJPBU_CERT_CONTEXT@@@Z 1003bbd4 f   exsmime_ALL:PublicKeys.obj
 0001:0003ad24       ?RemoveAll@CPublicKeys@@UAAJXZ 1003bd24 f   exsmime_ALL:PublicKeys.obj
 0001:0003ad28       ?Next@CPublicKeys@@UAAJKQAU_CMSG_RECIPIENT_ENCODE_INFO@@PAK@Z 1003bd28 f   exsmime_ALL:PublicKeys.obj
 0001:0003ae54       ?WriteXML@CHdrContentDisposition@@MAAJP8MIMENodeSerialize@@AAJPBXK@Z@Z 1003be54 f   exsmime_ALL:HdrCntDisp.obj
 0001:0003ae60       ??1CHdrContentDisposition@@IAA@XZ 1003be60 f   exsmime_ALL:HdrCntDisp.obj
 0001:0003ae90       ?ValidateParameter@CHdrContentDisposition@@MAAJPBEAAVCFragSubstr@@_N@Z 1003be90 f   exsmime_ALL:HdrCntDisp.obj
 0001:0003af44       ?WriteMIME@CHdrContentDisposition@@MAAJP8MIMENodeSerialize@@AAJPBXK@Z@Z 1003bf44 f   exsmime_ALL:HdrCntDisp.obj
 0001:0003b0ec       ?Reset@CHdrContentDisposition@@QAAXXZ 1003c0ec f   exsmime_ALL:HdrCntDisp.obj
 0001:0003b134       ?putValue@CHdrContentDisposition@@UAAJPBE@Z 1003c134 f   exsmime_ALL:HdrCntDisp.obj
 0001:0003b154       ?insertBefore@CHdrContentDisposition@@UAAJPAUIMIMENode@@0@Z 1003c154 f   exsmime_ALL:HdrCntDisp.obj
 0001:0003b1e4       ?Parse@CHdrContentDisposition@@IAAJXZ 1003c1e4 f   exsmime_ALL:HdrCntDisp.obj
 0001:0003b384       ?value@CHdrContentDisposition@@UAAJPAPAE@Z 1003c384 f   exsmime_ALL:HdrCntDisp.obj
 0001:0003b428       ?firstChild@CHdrContentDisposition@@UAAJPAPAUIMIMENode@@@Z 1003c428 f   exsmime_ALL:HdrCntDisp.obj
 0001:0003b474       ?lastChild@CHdrContentDisposition@@UAAJPAPAUIMIMENode@@@Z 1003c474 f   exsmime_ALL:HdrCntDisp.obj
 0001:0003b4c8       ??1CHdrDate@@IAA@XZ        1003c4c8 f   exsmime_ALL:HdrDate.obj
 0001:0003b4cc       ?putValue@CHdrDate@@UAAJPBE@Z 1003c4cc f   exsmime_ALL:HdrDate.obj
 0001:0003b4e4       ?setSystemTime@CHdrDate@@UAAJPBU_SYSTEMTIME@@@Z 1003c4e4 f   exsmime_ALL:HdrDate.obj
 0001:0003b6d8       ?WriteXML@CHdrDate@@MAAJP8MIMENodeSerialize@@AAJPBXK@Z@Z 1003c6d8 f   exsmime_ALL:HdrDate.obj
 0001:0003b6ec       ?FormatValue@CHdrDate@@IAAJKPAKPAE@Z 1003c6ec f   exsmime_ALL:HdrDate.obj
 0001:0003b8a0       ?Parse@CHdrDate@@IAAJXZ    1003c8a0 f   exsmime_ALL:HdrDate.obj
 0001:0003c0b0       ?WriteMIME@CHdrDate@@MAAJP8MIMENodeSerialize@@AAJPBXK@Z@Z 1003d0b0 f   exsmime_ALL:HdrDate.obj
 0001:0003c1bc       ?value@CHdrDate@@UAAJPAPAE@Z 1003d1bc f   exsmime_ALL:HdrDate.obj
 0001:0003c2c4       ?getSystemTime@CHdrDate@@UAAJPAU_SYSTEMTIME@@@Z 1003d2c4 f   exsmime_ALL:HdrDate.obj
 0001:0003c33c       ??0CHdrDate@@QAA@XZ        1003d33c f   exsmime_ALL:HdrDate.obj
 0001:0003c360       ?putValue@CHdrReceived@@UAAJPBE@Z 1003d360 f   exsmime_ALL:HdrReceived.obj
 0001:0003c38c       ??1CHdrReceived@@IAA@XZ    1003d38c f   exsmime_ALL:HdrReceived.obj
 0001:0003c3e8       ?CopyTo@CHdrReceived@@IAAJPBEPAPAE@Z 1003d3e8 f   exsmime_ALL:HdrReceived.obj
 0001:0003c43c       ?create@CHdrReceived@@IAAJW4ParserTag@1@IPBE@Z 1003d43c f   exsmime_ALL:HdrReceived.obj
 0001:0003c504       ?Parse@CHdrReceived@@IAAJXZ 1003d504 f   exsmime_ALL:HdrReceived.obj
 0001:0003c950       ?getFrom@CHdrReceived@@UAAJPAPAE0@Z 1003d950 f   exsmime_ALL:HdrReceived.obj
 0001:0003ca08       ?getBy@CHdrReceived@@UAAJPAPAE0@Z 1003da08 f   exsmime_ALL:HdrReceived.obj
 0001:0003cac0       ?getVia@CHdrReceived@@UAAJPAPAE@Z 1003dac0 f   exsmime_ALL:HdrReceived.obj
 0001:0003cb04       ?getWith@CHdrReceived@@UAAJPAPAE@Z 1003db04 f   exsmime_ALL:HdrReceived.obj
 0001:0003cb48       ?getId@CHdrReceived@@UAAJPAPAE@Z 1003db48 f   exsmime_ALL:HdrReceived.obj
 0001:0003cb8c       ?getFor@CHdrReceived@@UAAJPAPAE@Z 1003db8c f   exsmime_ALL:HdrReceived.obj
 0001:0003cbd0       ?getDate@CHdrReceived@@UAAJPAPAE@Z 1003dbd0 f   exsmime_ALL:HdrReceived.obj
 0001:0003cc14       ?FinalConstruct@CMimeParameter@@UAAJXZ 1003dc14 f   exsmime_ALL:Parameter.obj
 0001:0003cc1c       ?name@CMimeParameter@@UAAJPAPAE@Z 1003dc1c f   exsmime_ALL:Parameter.obj
 0001:0003cc7c       ?value@CMimeParameter@@UAAJPAPAE@Z 1003dc7c f   exsmime_ALL:Parameter.obj
 0001:0003ccf4       ?encoded@CMimeParameter@@UAAJPAH@Z 1003dcf4 f   exsmime_ALL:Parameter.obj
 0001:0003cd20       ?putEncoded@CMimeParameter@@UAAJH@Z 1003dd20 f   exsmime_ALL:Parameter.obj
 0001:0003cd38       ?appendFragment@CMimeParameter@@UAAJPAUIRefLine@@KK@Z 1003dd38 f   exsmime_ALL:Parameter.obj
 0001:0003cdd4       ?set2231SegmentNum@CMimeParameter@@UAAJK@Z 1003ddd4 f   exsmime_ALL:Parameter.obj
 0001:0003cde0       ?get2231SegmentNum@CMimeParameter@@UAAJPAK@Z 1003dde0 f   exsmime_ALL:Parameter.obj
 0001:0003cdfc       ?set2231SegmentEncoded@CMimeParameter@@UAAJH@Z 1003ddfc f   exsmime_ALL:Parameter.obj
 0001:0003ce14       ?WriteXML@CMimeParameter@@MAAJP8MIMENodeSerialize@@AAJPBXK@Z@Z 1003de14 f   exsmime_ALL:Parameter.obj
 0001:0003ce20       ?Init@CMimeParameter@@UAAJPBE@Z 1003de20 f   exsmime_ALL:Parameter.obj
 0001:0003ce90       ?isName@CMimeParameter@@UAAJPBE@Z 1003de90 f   exsmime_ALL:Parameter.obj
 0001:0003cedc       ?putValue@CMimeParameter@@UAAJPBE@Z 1003dedc f   exsmime_ALL:Parameter.obj
 0001:0003cf94       ??1CMimeParameter@@IAA@XZ  1003df94 f   exsmime_ALL:Parameter.obj
 0001:0003cff8       ?insertBefore@CMimeParameter@@UAAJPAUIMIMENode@@0@Z 1003dff8 f   exsmime_ALL:Parameter.obj
 0001:0003d128       ?WriteMIME@CMimeParameter@@MAAJP8MIMENodeSerialize@@AAJPBXK@Z@Z 1003e128 f   exsmime_ALL:Parameter.obj
 0001:0003d900       StrCmpNA                   1003e900 f   ossvcs:ossvcs.dll
 0001:0003d910       CoTaskMemAlloc             1003e910 f   ole32:ole32.dll
 0001:0003d920       CoTaskMemRealloc           1003e920 f   ole32:ole32.dll
 0001:0003d930       CoTaskMemFree              1003e930 f   ole32:ole32.dll
 0001:0003d940       CoCreateInstance           1003e940 f   ole32:ole32.dll
 0001:0003d950       CreateBindCtx              1003e950 f   ole32:ole32.dll
 0001:0003d960       StringFromGUID2            1003e960 f   ole32:ole32.dll
 0001:0003d970       CoCreateGuid               1003e970 f   ole32:ole32.dll
 0001:0003d980       SysStringLen               1003e980 f   oleaut32:OLEAUT32.dll
 0001:0003d990       SysFreeString              1003e990 f   oleaut32:OLEAUT32.dll
 0001:0003d9a0       SysAllocString             1003e9a0 f   oleaut32:OLEAUT32.dll
 0001:0003d9b0       LoadTypeLib                1003e9b0 f   oleaut32:OLEAUT32.dll
 0001:0003d9c0       RegisterTypeLib            1003e9c0 f   oleaut32:OLEAUT32.dll
 0001:0003d9d0       VarUI4FromStr              1003e9d0 f   oleaut32:OLEAUT32.dll
 0001:0003d9e0       VariantInit                1003e9e0 f   oleaut32:OLEAUT32.dll
 0001:0003d9f0       VariantClear               1003e9f0 f   oleaut32:OLEAUT32.dll
 0001:0003da00       VariantCopy                1003ea00 f   oleaut32:OLEAUT32.dll
 0001:0003da10       VariantChangeType          1003ea10 f   oleaut32:OLEAUT32.dll
 0001:0003da20       PathCreateFromUrlW         1003ea20 f   shlwapi:shlwapi.dll
 0001:0003da30       UrlIsW                     1003ea30 f   shlwapi:shlwapi.dll
 0001:0003da40       PathIsURLW                 1003ea40 f   shlwapi:shlwapi.dll
 0001:0003da50       RegOpenKeyExA              1003ea50 f   shlwapi:shlwapi.dll
 0001:0003da60       StrCmpNIA                  1003ea60 f   shlwapi:shlwapi.dll
 0001:0003da70       CertCloseStore             1003ea70 f   crypt32:CRYPT32.dll
 0001:0003da80       CertFreeCertificateContext 1003ea80 f   crypt32:CRYPT32.dll
 0001:0003da90       CryptMsgClose              1003ea90 f   crypt32:CRYPT32.dll
 0001:0003daa0       CertVerifyTimeValidity     1003eaa0 f   crypt32:CRYPT32.dll
 0001:0003dab0       CryptMsgControl            1003eab0 f   crypt32:CRYPT32.dll
 0001:0003dac0       CertDuplicateCertificateContext 1003eac0 f   crypt32:CRYPT32.dll
 0001:0003dad0       CertCreateCertificateContext 1003ead0 f   crypt32:CRYPT32.dll
 0001:0003dae0       CertFreeCertificateChain   1003eae0 f   crypt32:CRYPT32.dll
 0001:0003daf0       CertAddCertificateContextToStore 1003eaf0 f   crypt32:CRYPT32.dll
 0001:0003db00       CertGetCertificateChain    1003eb00 f   crypt32:CRYPT32.dll
 0001:0003db10       CertFindCertificateInStore 1003eb10 f   crypt32:CRYPT32.dll
 0001:0003db20       CertDuplicateStore         1003eb20 f   crypt32:CRYPT32.dll
 0001:0003db30       CertOpenStore              1003eb30 f   crypt32:CRYPT32.dll
 0001:0003db40       CryptMsgGetParam           1003eb40 f   crypt32:CRYPT32.dll
 0001:0003db50       CryptDecodeObjectEx        1003eb50 f   crypt32:CRYPT32.dll
 0001:0003db60       CryptFindOIDInfo           1003eb60 f   crypt32:CRYPT32.dll
 0001:0003db70       CryptMsgUpdate             1003eb70 f   crypt32:CRYPT32.dll
 0001:0003db80       CryptAcquireCertificatePrivateKey 1003eb80 f   crypt32:CRYPT32.dll
 0001:0003db90       CryptMsgOpenToEncode       1003eb90 f   crypt32:CRYPT32.dll
 0001:0003dba0       CryptMsgOpenToDecode       1003eba0 f   crypt32:CRYPT32.dll
 0001:0003dbb0       CryptEncodeObjectEx        1003ebb0 f   crypt32:CRYPT32.dll
 0001:0003dbc0       ?Term@CAtlComModule@ATL@@QAAXXZ 1003ebc0 f i atls:atlcommodule.obj
 0001:0003dc24       ??0CAtlComModule@ATL@@QAA@XZ 1003ec24 f i atls:atlcommodule.obj
 0001:0003dcb4       AtlRawDllMain              1003ecb4 f   atls:atlbase.obj
 0001:0003dd3c       ??1CAtlBaseModule@ATL@@QAA@XZ 1003ed3c f   atls:atlbase.obj
 0001:0003dd74       ??0CAtlBaseModule@ATL@@QAA@XZ 1003ed74 f   atls:atlbase.obj
 0001:0003de08       wmemcmp                    1003ee08 f i atlosapis:relop.obj
 0001:0003de54       VarR4CmpR8                 1003ee54 f   atlosapis:relop.obj
 0001:0003de9c       VarDecCmpR8                1003ee9c f   atlosapis:relop.obj
 0001:0003df0c       VarBstrCmp                 1003ef0c f   atlosapis:relop.obj
 0001:0003e268       VarCmp                     1003f268 f   atlosapis:relop.obj
 0001:0003ed38       ?ScaleResult@@YAHPAKHH@Z   1003fd38 f   atlosapis:decarith.obj
 0001:0003efd0       DecAddSub                  1003ffd0 f   atlosapis:decarith.obj
 0001:0003f508       VarDecCmp                  10040508 f   atlosapis:decarith.obj
 0001:0003f5cc       VarCyCmp                   100405cc f   atlosapis:cyarith.obj
 0001:0003f618       VarCyCmpR8                 10040618 f   atlosapis:cyarith.obj
 0001:0003f6bc       ?ExtractValueProperty@@YAJPAUIDispatch@@KPAUtagVARIANT@@@Z 100406bc f   atlosapis:variant.obj
 0001:0003f760       VarCyFromR8                10040760 f   atlosapis:oleconv.obj
 0001:0003f8b8       RaiseException             100408b8 f   coredll:COREDLL.dll
 0001:0003f8c8       EnterCriticalSection       100408c8 f   coredll:COREDLL.dll
 0001:0003f8d8       LeaveCriticalSection       100408d8 f   coredll:COREDLL.dll
 0001:0003f8e8       InitializeCriticalSection  100408e8 f   coredll:COREDLL.dll
 0001:0003f8f8       DeleteCriticalSection      100408f8 f   coredll:COREDLL.dll
 0001:0003f908       GetLastError               10040908 f   coredll:COREDLL.dll
 0001:0003f918       CryptContextAddRef         10040918 f   coredll:COREDLL.dll
 0001:0003f928       CryptAcquireContextW       10040928 f   coredll:COREDLL.dll
 0001:0003f938       InterlockedIncrement       10040938 f   coredll:COREDLL.dll
 0001:0003f948       InterlockedDecrement       10040948 f   coredll:COREDLL.dll
 0001:0003f958       RegDeleteKeyW              10040958 f   coredll:COREDLL.dll
 0001:0003f968       RegDeleteValueW            10040968 f   coredll:COREDLL.dll
 0001:0003f978       RegCloseKey                10040978 f   coredll:COREDLL.dll
 0001:0003f988       RegCreateKeyExW            10040988 f   coredll:COREDLL.dll
 0001:0003f998       RegOpenKeyExW              10040998 f   coredll:COREDLL.dll
 0001:0003f9a8       RegSetValueExW             100409a8 f   coredll:COREDLL.dll
 0001:0003f9b8       lstrcmpiW                  100409b8 f   coredll:COREDLL.dll
 0001:0003f9c8       CharNextW                  100409c8 f   coredll:COREDLL.dll
 0001:0003f9d8       RegQueryInfoKeyW           100409d8 f   coredll:COREDLL.dll
 0001:0003f9e8       HeapFree                   100409e8 f   coredll:COREDLL.dll
 0001:0003f9f8       GetProcessHeap             100409f8 f   coredll:COREDLL.dll
 0001:0003fa08       CryptReleaseContext        10040a08 f   coredll:COREDLL.dll
 0001:0003fa18       RegEnumKeyExW              10040a18 f   coredll:COREDLL.dll
 0001:0003fa28       GetModuleFileNameW         10040a28 f   coredll:COREDLL.dll
 0001:0003fa38       DisableThreadLibraryCalls  10040a38 f   coredll:COREDLL.dll
 0001:0003fa48       GetProcAddressW            10040a48 f   coredll:COREDLL.dll
 0001:0003fa58       GetModuleHandleW           10040a58 f   coredll:COREDLL.dll
 0001:0003fa68       FreeLibrary                10040a68 f   coredll:COREDLL.dll
 0001:0003fa78       MultiByteToWideChar        10040a78 f   coredll:COREDLL.dll
 0001:0003fa88       SizeofResource             10040a88 f   coredll:COREDLL.dll
 0001:0003fa98       LoadResource               10040a98 f   coredll:COREDLL.dll
 0001:0003faa8       FindResourceW              10040aa8 f   coredll:COREDLL.dll
 0001:0003fab8       LoadLibraryExW             10040ab8 f   coredll:COREDLL.dll
 0001:0003fac8       HeapAlloc                  10040ac8 f   coredll:COREDLL.dll
 0001:0003fad8       SetFilePointer             10040ad8 f   coredll:COREDLL.dll
 0001:0003fae8       GetFileInformationByHandle 10040ae8 f   coredll:COREDLL.dll
 0001:0003faf8       CryptDuplicateKey          10040af8 f   coredll:COREDLL.dll
 0001:0003fb08       CryptDestroyKey            10040b08 f   coredll:COREDLL.dll
 0001:0003fb18       DeleteFileW                10040b18 f   coredll:COREDLL.dll
 0001:0003fb28       CloseHandle                10040b28 f   coredll:COREDLL.dll
 0001:0003fb38       CryptSetKeyParam           10040b38 f   coredll:COREDLL.dll
 0001:0003fb48       CryptGenRandom             10040b48 f   coredll:COREDLL.dll
 0001:0003fb58       CryptGenKey                10040b58 f   coredll:COREDLL.dll
 0001:0003fb68       ReadFile                   10040b68 f   coredll:COREDLL.dll
 0001:0003fb78       WriteFile                  10040b78 f   coredll:COREDLL.dll
 0001:0003fb88       SetEndOfFile               10040b88 f   coredll:COREDLL.dll
 0001:0003fb98       FlushFileBuffers           10040b98 f   coredll:COREDLL.dll
 0001:0003fba8       CryptDecrypt               10040ba8 f   coredll:COREDLL.dll
 0001:0003fbb8       CryptEncrypt               10040bb8 f   coredll:COREDLL.dll
 0001:0003fbc8       CreateFileW                10040bc8 f   coredll:COREDLL.dll
 0001:0003fbd8       GetTempFileNameW           10040bd8 f   coredll:COREDLL.dll
 0001:0003fbe8       GetTempPathW               10040be8 f   coredll:COREDLL.dll
 0001:0003fbf8       GetSystemInfo              10040bf8 f   coredll:COREDLL.dll
 0001:0003fc08       CompareStringW             10040c08 f   coredll:COREDLL.dll
 0001:0003fc18       IsDBCSLeadByteEx           10040c18 f   coredll:COREDLL.dll
 0001:0003fc28       WideCharToMultiByte        10040c28 f   coredll:COREDLL.dll
 0001:0003fc38       RegQueryValueExW           10040c38 f   coredll:COREDLL.dll
 0001:0003fc48       SystemTimeToFileTime       10040c48 f   coredll:COREDLL.dll
 0001:0003fc58       GetSystemTime              10040c58 f   coredll:COREDLL.dll
 0001:0003fc68       SetLastError               10040c68 f   coredll:COREDLL.dll
 0001:0003fc78       LoadLibraryW               10040c78 f   coredll:COREDLL.dll
 0001:0003fc88       GetTimeZoneInformation     10040c88 f   coredll:COREDLL.dll
 0001:0003fc98       FileTimeToSystemTime       10040c98 f   coredll:COREDLL.dll
 0001:0003fca8       FileTimeToLocalFileTime    10040ca8 f   coredll:COREDLL.dll
 0001:0003fdb0       _DllMainCRTStartup         10040db0 f   corelib0:pegdmain.obj
 0001:0003fddc       __GSHandlerCheckCommon     10040ddc f   corelib0:gshandler.obj
 0001:0003fe18       __GSHandlerCheck           10040e18 f   corelib0:gshandler.obj
 0001:0003fe38       __security_init_cookie     10040e38 f   corelib0:seccinit.obj
 0001:0003fe84       __security_check_cookie    10040e84 f   corelib0:armsecgs.obj
 0001:0003fe94       __gsfailure                10040e94     corelib0:armsecgs.obj
 0001:0003fee0       _onexit                    10040ee0 f   corelib0:onexit.obj
 0001:00040064       atexit                     10041064 f   corelib0:onexit.obj
 0001:00040164       _cexit                     10041164 f   corelib0:cexit.obj
 0001:00040174       _initterm                  10041174 f   corelib0:crt0dat.obj
 0001:000401a0       _cinit                     100411a0 f   corelib0:crt0dat.obj
 0001:00040200       __crt_ExitProcess          10041200 f   corelib0:exitproc_proxy.obj
 0001:0004020c       wcsstr                     1004120c f   corelib1:COREDLL.dll
 0001:0004021c       wcslen                     1004121c f   corelib1:COREDLL.dll
 0001:0004022c       memcmp                     1004122c f   corelib1:COREDLL.dll
 0001:0004023c       malloc                     1004123c f   corelib1:COREDLL.dll
 0001:0004024c       free                       1004124c f   corelib1:COREDLL.dll
 0001:0004025c       memcpy_s                   1004125c f   corelib1:COREDLL.dll
 0001:0004026c       wcscpy_s                   1004126c f   corelib1:COREDLL.dll
 0001:0004027c       wcsncpy_s                  1004127c f   corelib1:COREDLL.dll
 0001:0004028c       memset                     1004128c f   corelib1:COREDLL.dll
 0001:0004029c       __C_specific_handler       1004129c f   corelib1:COREDLL.dll
 0001:000402ac       ??3@YAXPAX@Z               100412ac f   corelib1:COREDLL.dll
 0001:000402bc       ??2@YAPAXI@Z               100412bc f   corelib1:COREDLL.dll
 0001:000402cc       _purecall                  100412cc f   corelib1:COREDLL.dll
 0001:000402dc       _recalloc                  100412dc f   corelib1:COREDLL.dll
 0001:000402ec       strlen                     100412ec f   corelib1:COREDLL.dll
 0001:000402fc       memchr                     100412fc f   corelib1:COREDLL.dll
 0001:0004030c       memcpy                     1004130c f   corelib1:COREDLL.dll
 0001:0004031c       strcpy_s                   1004131c f   corelib1:COREDLL.dll
 0001:0004032c       strchr                     1004132c f   corelib1:COREDLL.dll
 0001:0004033c       _snprintf_s                1004133c f   corelib1:COREDLL.dll
 0001:0004034c       _ultoa_s                   1004134c f   corelib1:COREDLL.dll
 0001:0004035c       _clearfp                   1004135c f   corelib1:COREDLL.dll
 0001:0004036c       _XcptFilter                1004136c f   corelib1:COREDLL.dll
 0001:0004037c       __security_gen_cookie2     1004137c f   corelib1:COREDLL.dll
 0001:0004038c       __report_gsfailure         1004138c f   corelib1:COREDLL.dll
 0001:0004039c       realloc                    1004139c f   corelib1:COREDLL.dll
 0001:000403ac       _msize                     100413ac f   corelib1:COREDLL.dll
 0001:000403bc       VarDecFromR8               100413bc f   oleaut32:OLEAUT32.dll
 0001:000403cc       VarR8FromStr               100413cc f   oleaut32:OLEAUT32.dll
 0001:000403dc       VariantChangeTypeEx        100413dc f   oleaut32:OLEAUT32.dll
 0001:000403ec       VarDecFromI4               100413ec f   oleaut32:OLEAUT32.dll
 0001:000403fc       VarDecFromCy               100413fc f   oleaut32:OLEAUT32.dll
 0001:0004040c       VarCyFromI4                1004140c f   oleaut32:OLEAUT32.dll
 0001:0004041c       VarCyFromUI1               1004141c f   oleaut32:OLEAUT32.dll
 0001:0004042c       VarCyFromI2                1004142c f   oleaut32:OLEAUT32.dll
 0001:0004043c       InterlockedCompareExchange 1004143c f   coredll:COREDLL.dll
 0001:0004044c       InterlockedExchange        1004144c f   coredll:COREDLL.dll
 0001:0004045c       TerminateProcess           1004145c f   coredll:COREDLL.dll
 0001:000405c4       __pobjMapEntryFirst        100415c4     exsmime_ALL:stdafx.obj
 0001:000405c8       __pobjMapEntryLast         100415c8     exsmime_ALL:stdafx.obj
 0001:000405cc       __IMPORT_DESCRIPTOR_ossvcs 100415cc     ossvcs:ossvcs.dll
 0001:000405e0       __IMPORT_DESCRIPTOR_ole32  100415e0     ole32:ole32.dll
 0001:000405f4       __IMPORT_DESCRIPTOR_OLEAUT32 100415f4     oleaut32:OLEAUT32.dll
 0001:00040608       __IMPORT_DESCRIPTOR_shlwapi 10041608     shlwapi:shlwapi.dll
 0001:0004061c       __IMPORT_DESCRIPTOR_CRYPT32 1004161c     crypt32:CRYPT32.dll
 0001:00040630       __IMPORT_DESCRIPTOR_COREDLL 10041630     coredll:COREDLL.dll
 0001:00040644       __NULL_IMPORT_DESCRIPTOR   10041644     ossvcs:ossvcs.dll
 0002:00000000       __imp_LoadResource         10042000     coredll:COREDLL.dll
 0002:00000004       __imp_InterlockedExchange  10042004     coredll:COREDLL.dll
 0002:00000008       __imp_InterlockedCompareExchange 10042008     coredll:COREDLL.dll
 0002:0000000c       __imp__msize               1004200c     corelib1:COREDLL.dll
 0002:00000010       __imp_realloc              10042010     corelib1:COREDLL.dll
 0002:00000014       __imp___report_gsfailure   10042014     corelib1:COREDLL.dll
 0002:00000018       __imp___security_gen_cookie2 10042018     corelib1:COREDLL.dll
 0002:0000001c       __imp__XcptFilter          1004201c     corelib1:COREDLL.dll
 0002:00000020       __imp___rt_udiv64by64      10042020     corelib1:COREDLL.dll
 0002:00000024       __imp___rt_urem64by64      10042024     corelib1:COREDLL.dll
 0002:00000028       __imp__clearfp             10042028     corelib1:COREDLL.dll
 0002:0000002c       __imp__ultoa_s             1004202c     corelib1:COREDLL.dll
 0002:00000030       __imp__snprintf_s          10042030     corelib1:COREDLL.dll
 0002:00000034       __imp_strchr               10042034     corelib1:COREDLL.dll
 0002:00000038       __imp_strcpy_s             10042038     corelib1:COREDLL.dll
 0002:0000003c       __imp_memcpy               1004203c     corelib1:COREDLL.dll
 0002:00000040       __imp_memchr               10042040     corelib1:COREDLL.dll
 0002:00000044       __imp_strlen               10042044     corelib1:COREDLL.dll
 0002:00000048       __imp___rt_udiv            10042048     corelib1:COREDLL.dll
 0002:0000004c       __imp__recalloc            1004204c     corelib1:COREDLL.dll
 0002:00000050       __imp__purecall            10042050     corelib1:COREDLL.dll
 0002:00000054       __imp_??2@YAPAXI@Z         10042054     corelib1:COREDLL.dll
 0002:00000058       __imp_??3@YAXPAX@Z         10042058     corelib1:COREDLL.dll
 0002:0000005c       __imp___C_specific_handler 1004205c     corelib1:COREDLL.dll
 0002:00000060       __imp_memset               10042060     corelib1:COREDLL.dll
 0002:00000064       __imp_wcsncpy_s            10042064     corelib1:COREDLL.dll
 0002:00000068       __imp_wcscpy_s             10042068     corelib1:COREDLL.dll
 0002:0000006c       __imp_memcpy_s             1004206c     corelib1:COREDLL.dll
 0002:00000070       __imp_free                 10042070     corelib1:COREDLL.dll
 0002:00000074       __imp_malloc               10042074     corelib1:COREDLL.dll
 0002:00000078       __imp_memcmp               10042078     corelib1:COREDLL.dll
 0002:0000007c       __imp_wcslen               1004207c     corelib1:COREDLL.dll
 0002:00000080       __imp_wcsstr               10042080     corelib1:COREDLL.dll
 0002:00000084       __imp_FileTimeToLocalFileTime 10042084     coredll:COREDLL.dll
 0002:00000088       __imp_FileTimeToSystemTime 10042088     coredll:COREDLL.dll
 0002:0000008c       __imp_GetTimeZoneInformation 1004208c     coredll:COREDLL.dll
 0002:00000090       __imp_LoadLibraryW         10042090     coredll:COREDLL.dll
 0002:00000094       __imp_SetLastError         10042094     coredll:COREDLL.dll
 0002:00000098       __imp_GetSystemTime        10042098     coredll:COREDLL.dll
 0002:0000009c       __imp_SystemTimeToFileTime 1004209c     coredll:COREDLL.dll
 0002:000000a0       __imp_RegQueryValueExW     100420a0     coredll:COREDLL.dll
 0002:000000a4       __imp_WideCharToMultiByte  100420a4     coredll:COREDLL.dll
 0002:000000a8       __imp_IsDBCSLeadByteEx     100420a8     coredll:COREDLL.dll
 0002:000000ac       __imp_CompareStringW       100420ac     coredll:COREDLL.dll
 0002:000000b0       __imp_GetSystemInfo        100420b0     coredll:COREDLL.dll
 0002:000000b4       __imp_GetTempPathW         100420b4     coredll:COREDLL.dll
 0002:000000b8       __imp_RaiseException       100420b8     coredll:COREDLL.dll
 0002:000000bc       __imp_EnterCriticalSection 100420bc     coredll:COREDLL.dll
 0002:000000c0       __imp_LeaveCriticalSection 100420c0     coredll:COREDLL.dll
 0002:000000c4       __imp_InitializeCriticalSection 100420c4     coredll:COREDLL.dll
 0002:000000c8       __imp_DeleteCriticalSection 100420c8     coredll:COREDLL.dll
 0002:000000cc       __imp_GetLastError         100420cc     coredll:COREDLL.dll
 0002:000000d0       __imp_CryptContextAddRef   100420d0     coredll:COREDLL.dll
 0002:000000d4       __imp_CryptAcquireContextW 100420d4     coredll:COREDLL.dll
 0002:000000d8       __imp_InterlockedIncrement 100420d8     coredll:COREDLL.dll
 0002:000000dc       __imp_InterlockedDecrement 100420dc     coredll:COREDLL.dll
 0002:000000e0       __imp_RegDeleteKeyW        100420e0     coredll:COREDLL.dll
 0002:000000e4       __imp_RegDeleteValueW      100420e4     coredll:COREDLL.dll
 0002:000000e8       __imp_RegCloseKey          100420e8     coredll:COREDLL.dll
 0002:000000ec       __imp_RegCreateKeyExW      100420ec     coredll:COREDLL.dll
 0002:000000f0       __imp_RegOpenKeyExW        100420f0     coredll:COREDLL.dll
 0002:000000f4       __imp_RegSetValueExW       100420f4     coredll:COREDLL.dll
 0002:000000f8       __imp_lstrcmpiW            100420f8     coredll:COREDLL.dll
 0002:000000fc       __imp_CharNextW            100420fc     coredll:COREDLL.dll
 0002:00000100       __imp_RegQueryInfoKeyW     10042100     coredll:COREDLL.dll
 0002:00000104       __imp_HeapFree             10042104     coredll:COREDLL.dll
 0002:00000108       __imp_GetProcessHeap       10042108     coredll:COREDLL.dll
 0002:0000010c       __imp_CryptReleaseContext  1004210c     coredll:COREDLL.dll
 0002:00000110       __imp_RegEnumKeyExW        10042110     coredll:COREDLL.dll
 0002:00000114       __imp_GetModuleFileNameW   10042114     coredll:COREDLL.dll
 0002:00000118       __imp_DisableThreadLibraryCalls 10042118     coredll:COREDLL.dll
 0002:0000011c       __imp_GetProcAddressW      1004211c     coredll:COREDLL.dll
 0002:00000120       __imp_GetModuleHandleW     10042120     coredll:COREDLL.dll
 0002:00000124       __imp_FreeLibrary          10042124     coredll:COREDLL.dll
 0002:00000128       __imp_MultiByteToWideChar  10042128     coredll:COREDLL.dll
 0002:0000012c       __imp_SizeofResource       1004212c     coredll:COREDLL.dll
 0002:00000130       __imp_TerminateProcess     10042130     coredll:COREDLL.dll
 0002:00000134       __imp_FindResourceW        10042134     coredll:COREDLL.dll
 0002:00000138       __imp_LoadLibraryExW       10042138     coredll:COREDLL.dll
 0002:0000013c       __imp_HeapAlloc            1004213c     coredll:COREDLL.dll
 0002:00000140       __imp_SetFilePointer       10042140     coredll:COREDLL.dll
 0002:00000144       __imp_GetFileInformationByHandle 10042144     coredll:COREDLL.dll
 0002:00000148       __imp_CryptDuplicateKey    10042148     coredll:COREDLL.dll
 0002:0000014c       __imp_CryptDestroyKey      1004214c     coredll:COREDLL.dll
 0002:00000150       __imp_DeleteFileW          10042150     coredll:COREDLL.dll
 0002:00000154       __imp_CloseHandle          10042154     coredll:COREDLL.dll
 0002:00000158       __imp_CryptSetKeyParam     10042158     coredll:COREDLL.dll
 0002:0000015c       __imp_CryptGenRandom       1004215c     coredll:COREDLL.dll
 0002:00000160       __imp_CryptGenKey          10042160     coredll:COREDLL.dll
 0002:00000164       __imp_ReadFile             10042164     coredll:COREDLL.dll
 0002:00000168       __imp_WriteFile            10042168     coredll:COREDLL.dll
 0002:0000016c       __imp_SetEndOfFile         1004216c     coredll:COREDLL.dll
 0002:00000170       __imp_FlushFileBuffers     10042170     coredll:COREDLL.dll
 0002:00000174       __imp_CryptDecrypt         10042174     coredll:COREDLL.dll
 0002:00000178       __imp_CryptEncrypt         10042178     coredll:COREDLL.dll
 0002:0000017c       __imp_CreateFileW          1004217c     coredll:COREDLL.dll
 0002:00000180       __imp_GetTempFileNameW     10042180     coredll:COREDLL.dll
 0002:00000184       \177COREDLL_NULL_THUNK_DATA 10042184     coredll:COREDLL.dll
 0002:00000188       __imp_CryptEncodeObjectEx  10042188     crypt32:CRYPT32.dll
 0002:0000018c       __imp_CryptMsgOpenToDecode 1004218c     crypt32:CRYPT32.dll
 0002:00000190       __imp_CryptMsgOpenToEncode 10042190     crypt32:CRYPT32.dll
 0002:00000194       __imp_CryptAcquireCertificatePrivateKey 10042194     crypt32:CRYPT32.dll
 0002:00000198       __imp_CryptMsgUpdate       10042198     crypt32:CRYPT32.dll
 0002:0000019c       __imp_CryptFindOIDInfo     1004219c     crypt32:CRYPT32.dll
 0002:000001a0       __imp_CryptDecodeObjectEx  100421a0     crypt32:CRYPT32.dll
 0002:000001a4       __imp_CryptMsgGetParam     100421a4     crypt32:CRYPT32.dll
 0002:000001a8       __imp_CertOpenStore        100421a8     crypt32:CRYPT32.dll
 0002:000001ac       __imp_CertDuplicateStore   100421ac     crypt32:CRYPT32.dll
 0002:000001b0       __imp_CertFindCertificateInStore 100421b0     crypt32:CRYPT32.dll
 0002:000001b4       __imp_CertGetCertificateChain 100421b4     crypt32:CRYPT32.dll
 0002:000001b8       __imp_CertAddCertificateContextToStore 100421b8     crypt32:CRYPT32.dll
 0002:000001bc       __imp_CertFreeCertificateChain 100421bc     crypt32:CRYPT32.dll
 0002:000001c0       __imp_CertCreateCertificateContext 100421c0     crypt32:CRYPT32.dll
 0002:000001c4       __imp_CertDuplicateCertificateContext 100421c4     crypt32:CRYPT32.dll
 0002:000001c8       __imp_CryptMsgControl      100421c8     crypt32:CRYPT32.dll
 0002:000001cc       __imp_CertVerifyTimeValidity 100421cc     crypt32:CRYPT32.dll
 0002:000001d0       __imp_CryptMsgClose        100421d0     crypt32:CRYPT32.dll
 0002:000001d4       __imp_CertFreeCertificateContext 100421d4     crypt32:CRYPT32.dll
 0002:000001d8       __imp_CertCloseStore       100421d8     crypt32:CRYPT32.dll
 0002:000001dc       \177CRYPT32_NULL_THUNK_DATA 100421dc     crypt32:CRYPT32.dll
 0002:000001e0       __imp_VarCyFromI2          100421e0     oleaut32:OLEAUT32.dll
 0002:000001e4       __imp_VarCyFromUI1         100421e4     oleaut32:OLEAUT32.dll
 0002:000001e8       __imp_VarCyFromI4          100421e8     oleaut32:OLEAUT32.dll
 0002:000001ec       __imp_VarDecFromCy         100421ec     oleaut32:OLEAUT32.dll
 0002:000001f0       __imp_VarDecFromI4         100421f0     oleaut32:OLEAUT32.dll
 0002:000001f4       __imp_VariantChangeTypeEx  100421f4     oleaut32:OLEAUT32.dll
 0002:000001f8       __imp_VariantChangeType    100421f8     oleaut32:OLEAUT32.dll
 0002:000001fc       __imp_VariantCopy          100421fc     oleaut32:OLEAUT32.dll
 0002:00000200       __imp_VariantClear         10042200     oleaut32:OLEAUT32.dll
 0002:00000204       __imp_VariantInit          10042204     oleaut32:OLEAUT32.dll
 0002:00000208       __imp_VarUI4FromStr        10042208     oleaut32:OLEAUT32.dll
 0002:0000020c       __imp_RegisterTypeLib      1004220c     oleaut32:OLEAUT32.dll
 0002:00000210       __imp_LoadTypeLib          10042210     oleaut32:OLEAUT32.dll
 0002:00000214       __imp_SysAllocString       10042214     oleaut32:OLEAUT32.dll
 0002:00000218       __imp_SysFreeString        10042218     oleaut32:OLEAUT32.dll
 0002:0000021c       __imp_SysStringLen         1004221c     oleaut32:OLEAUT32.dll
 0002:00000220       __imp_VarR8FromStr         10042220     oleaut32:OLEAUT32.dll
 0002:00000224       __imp_VarDecFromR8         10042224     oleaut32:OLEAUT32.dll
 0002:00000228       \177OLEAUT32_NULL_THUNK_DATA 10042228     oleaut32:OLEAUT32.dll
 0002:0000022c       __imp_StringFromGUID2      1004222c     ole32:ole32.dll
 0002:00000230       __imp_CreateBindCtx        10042230     ole32:ole32.dll
 0002:00000234       __imp_CoCreateInstance     10042234     ole32:ole32.dll
 0002:00000238       __imp_CoTaskMemFree        10042238     ole32:ole32.dll
 0002:0000023c       __imp_CoTaskMemRealloc     1004223c     ole32:ole32.dll
 0002:00000240       __imp_CoCreateGuid         10042240     ole32:ole32.dll
 0002:00000244       __imp_CoTaskMemAlloc       10042244     ole32:ole32.dll
 0002:00000248       \177ole32_NULL_THUNK_DATA  10042248     ole32:ole32.dll
 0002:0000024c       __imp_StrCmpNA             1004224c     ossvcs:ossvcs.dll
 0002:00000250       \177ossvcs_NULL_THUNK_DATA 10042250     ossvcs:ossvcs.dll
 0002:00000254       __imp_StrCmpNIA            10042254     shlwapi:shlwapi.dll
 0002:00000258       __imp_PathIsURLW           10042258     shlwapi:shlwapi.dll
 0002:0000025c       __imp_UrlIsW               1004225c     shlwapi:shlwapi.dll
 0002:00000260       __imp_PathCreateFromUrlW   10042260     shlwapi:shlwapi.dll
 0002:00000264       __imp_RegOpenKeyExA        10042264     shlwapi:shlwapi.dll
 0002:00000268       \177shlwapi_NULL_THUNK_DATA 10042268     shlwapi:shlwapi.dll
 0002:000004b0       ?g_sigFreeCell@@3KA        100424b0     exsmime_ALL:vcelpool.obj
 0002:000004b4       ?g_sigUsedCell@@3KA        100424b4     exsmime_ALL:vcelpool.obj
 0002:000004b8       ?g_sigFreePage@@3KA        100424b8     exsmime_ALL:vcelpool.obj
 0002:000004bc       ?g_sigPFPage@@3KA          100424bc     exsmime_ALL:vcelpool.obj
 0002:000004c0       ?g_sigCFPage@@3KA          100424c0     exsmime_ALL:vcelpool.obj
 0002:000004f0       ?g_achOEMtoupper@@3PAEA    100424f0     exsmime_ALL:strutil.obj
 0002:000005f0       ?s_szDefaultType@CHdrContentType@@1PAEA 100425f0     exsmime_ALL:HdrCntType.obj
 0002:000005f8       ?s_szDefaultSubType@CHdrContentType@@1PAEA 100425f8     exsmime_ALL:HdrCntType.obj
 0002:00000600       ?s_szMultipartType@CHdrContentType@@1PAEA 10042600     exsmime_ALL:HdrCntType.obj
 0002:0000060c       ?s_szMixedSubType@CHdrContentType@@1PAEA 1004260c     exsmime_ALL:HdrCntType.obj
 0002:00000614       ?CryptDecodeAlloc@CapiUtil@@3U_CRYPT_DECODE_PARA@@A 10042614     exsmime_ALL:capiutil.obj
 0002:00000620       ?CryptEncodeAlloc@CapiUtil@@3U_CRYPT_ENCODE_PARA@@A 10042620     exsmime_ALL:capiutil.obj
 0002:0000062c       ?data@?$_CComChainData@VCMimeHeader@@VCHdrReceived@@@ATL@@2U_ATL_CHAINDATA@2@A 1004262c     exsmime_ALL:HdrFactory.obj
 0002:00000634       ?s_szDefaultDisposition@@3PAEA 10042634     exsmime_ALL:HdrCntDisp.obj
 0002:00000640       _pRawDllMain               10042640     atls:atlbase.obj
 0002:00000648       ?rgulPower10@@3PAKA        10042648     atlosapis:decarith.obj
 0002:00000670       ?PowerOvfl@@3PAUDECOVFL@@A 10042670     atlosapis:decarith.obj
 0002:000006b0       g_dblTenThousand           100426b0     atlosapis:oleconv.obj
 0002:000006b8       __security_cookie          100426b8     corelib0:seccinit.obj
 0002:000006bc       __security_cookie_complement 100426bc     corelib0:seccinit.obj
 0002:000006c0       ?m_bInitFailed@CAtlBaseModule@ATL@@2_NA 100426c0     exsmime_ALL:ExSMime.obj
 0002:000006c4       ?_pPerfRegFunc@ATL@@3P6AJPAUHINSTANCE__@@@ZA 100426c4     exsmime_ALL:ExSMime.obj
 0002:000006c8       ?_pPerfUnRegFunc@ATL@@3P6AJXZA 100426c8     exsmime_ALL:ExSMime.obj
 0002:000006cc       ?_AtlRegisterPerUser@ATL@@3_NA 100426cc     exsmime_ALL:ExSMime.obj
 0002:000006d0       ?_pAtlModule@ATL@@3PAVCAtlModule@1@A 100426d0     exsmime_ALL:ExSMime.obj
 0002:000006d4       ?m_libid@CAtlModule@ATL@@2U_GUID@@A 100426d4     exsmime_ALL:ExSMime.obj
 0002:000006e4       ?_pModule@ATL@@3PAVCComModule@1@A 100426e4     exsmime_ALL:ExSMime.obj
 0002:000006e8       ??_B?1??VTFromRegType@CRegParser@ATL@@KAHPBGAAG@Z@51 100426e8     exsmime_ALL:ExSMime.obj
 0002:000006ec       ?map@?1??VTFromRegType@CRegParser@ATL@@KAHPBGAAG@Z@4QBUtypemap@?1??123@KAH01@Z@B 100426ec     exsmime_ALL:ExSMime.obj
 0002:0000070c       ?_Module@@3VCMIMEModule@@A 1004270c     exsmime_ALL:ExSMime.obj
 0002:00000750       __@@_PchSym_@00@UygUDAJBUkirezgvUlhhexhUvchnrnvUnrnvUlyqUzineHUivgzroUhgwzucOlyq@exsmime 10042750     exsmime_ALL:stdafx.obj
 0002:00000754       __@@_PchSym_@00@UygUDAJBUkirezgvUlhhexhUvchnrnvUwhgifxgUlyqUzineHUivgzroUvchwhkxsOlyq@dstruct 10042754     exsmime_ALL:exsdspch.obj
 0002:00000758       ?s_szBoundaryPrefix@CHdrContentType@@1PAEA 10042758     exsmime_ALL:HdrCntType.obj
 0002:0000075c       ?g_hinstUrlmon@@3PAUHINSTANCE__@@A 1004275c     exsmime_ALL:dllload.obj
 0002:00000764       __@@_PchSym_@00@UygUDAJBUkirezgvUlhhexhUvchnrnvUxlnnlmUlyqUzineHUivgzroUvchxnkxsOlyq@exsmime_common 10042764     exsmime_ALL:exscmpch.obj
 0002:00000768       ?_AtlComModule@ATL@@3VCAtlComModule@1@A 10042768     atls:atlcommodule.obj
 0002:0000078c       __afxForceAtlRawDllMain    1004278c     atls:atlbase.obj
 0002:00000790       ?_AtlModuleInstance@ATL@@3PAUHINSTANCE__@@A 10042790     atls:atlbase.obj
 0002:00000794       ?_AtlBaseModule@ATL@@3VCAtlBaseModule@1@A 10042794     atls:atlbase.obj
 0002:000007c8       ?_pAtlRawDllMain@@3P6AHPAXK0@ZA 100427c8     atls:atlbase.obj
 0002:000007cc       __@@_PchSym_@00@UxsvozmCBUlgsvihUzgoJUhixUzgohUlyqUzineHUivgzroUhgwzucOlyq@atls 100427cc     atls:stdafx.obj
 0002:000007d0       __@@_PchSym_@00@UxsvozmCBUlgsvihUzgoJUhixUlhzkrUlyqUzineHUivgzroUhgwrmxOlyq@atlosapis 100427d0     atlosapis:stdinc.obj
 0002:000007d4       _exitflag                  100427d4     corelib0:cexit.obj
 0002:000007d8       __onexitend                100427d8     <common>
 0002:000007dc       __onexitbegin              100427dc     <common>
 0002:000007e0       g_pcsExit                  100427e0     <common>

 entry point at        0001:0003fdb0

 Static symbols

 0001:00031030       ?CryptAllocFunc@@YAPAXI@Z  10032030 f   exsmime_ALL:capiutil.obj
 0001:00031048       ?CryptFreeFunc@@YAXPAX@Z   10032048 f   exsmime_ALL:capiutil.obj
 0001:000398f8       ?CompareByteBlob@@YAHPBX0@Z 1003a8f8 f   exsmime_ALL:PublicKeys.obj
 0001:0003b560       ?MapMonthToLong@@YAJPAEI@Z 1003c560 f   exsmime_ALL:HdrDate.obj
 0001:0003e014       ?HardTypeCheck@@YAJPAUtagVARIANT@@0KKH@Z 1003f014 f   atlosapis:relop.obj
 0001:0003fcc0       _DllMainCRTStartupHelper   10040cc0 f   corelib0:pegdmain.obj
 0001:0004007c       doexit                     1004107c f   corelib0:cexit.obj
 0001:0004046c       ??__E_Module@@YAXXZ        1004146c f   exsmime_ALL:ExSMime.obj
 0001:0004048c       ??__E_AtlComModule@ATL@@YAXXZ 1004148c f   atls:atlcommodule.obj
 0001:000404ac       ??__E_AtlBaseModule@ATL@@YAXXZ 100414ac f   atls:atlbase.obj
 0001:000404cc       ??__F_Module@@YAXXZ        100414cc f   exsmime_ALL:ExSMime.obj
 0001:000404e8       ??__F_AtlComModule@ATL@@YAXXZ 100414e8 f   atls:atlcommodule.obj
 0001:000404f4       ??__F_AtlBaseModule@ATL@@YAXXZ 100414f4 f   atls:atlbase.obj
