 htmlhelp

 Timestamp is 618b1598 (Tue Nov 09 17:43:04 2021)

 Preferred load address is 00010000

 Start         Length     Name                   Class
 0001:00000000 00000004H .CRT$XCA                CODE
 0001:00000004 00000004H .CRT$XCZ                CODE
 0001:00000008 00000004H .CRT$XIA                CODE
 0001:0000000c 00000004H .CRT$XIZ                CODE
 0001:00000010 00000004H .CRT$XPA                CODE
 0001:00000014 00000004H .CRT$XPZ                CODE
 0001:00000018 00000004H .CRT$XTA                CODE
 0001:0000001c 00000004H .CRT$XTZ                CODE
 0001:00000020 000006b0H .rdata                  CODE
 0001:000006d0 00000025H .rdata$debug            CODE
 0001:000006f8 00005298H .text                   CODE
 0001:00005990 00000028H .xdata                  CODE
 0001:000059b8 0000008cH .idata$2                CODE
 0001:00005a44 00000014H .idata$3                CODE
 0001:00005a58 000001b4H .idata$4                CODE
 0001:00005c0c 0000013cH .idata$6                CODE
 0001:00005d48 00000000H .edata                  CODE
 0002:00000000 000001b4H .idata$5                DATA
 0002:000001b8 000000d8H .data                   DATA
 0002:00000290 00000030H .bss                    DATA
 0003:00000000 00000490H .pdata                  DATA
 0004:00000000 00000118H .rsrc$01                DATA
 0004:00000120 000021b8H .rsrc$02                DATA

  Address         Publics by Value              Rva+Base       Lib:Object

 0000:00000000       ___safe_se_handler_table   00000000     <absolute>
 0000:00000000       ___safe_se_handler_count   00000000     <absolute>
 0001:00000000       __xc_a                     00011000     corelib0:crt0init.obj
 0001:00000004       __xc_z                     00011004     corelib0:crt0init.obj
 0001:00000008       __xi_a                     00011008     corelib0:crt0init.obj
 0001:0000000c       __xi_z                     0001100c     corelib0:crt0init.obj
 0001:00000010       __xp_a                     00011010     corelib0:crt0init.obj
 0001:00000014       __xp_z                     00011014     corelib0:crt0init.obj
 0001:00000018       __xt_a                     00011018     corelib0:crt0init.obj
 0001:0000001c       __xt_z                     0001101c     corelib0:crt0init.obj
 0001:0000003c       ??_C@_1BI@LCAMAEGF@?$AAH?$AAT?$AAM?$AAL?$AAH?$AAE?$AAL?$AAP?$AA_?$AAW?$AAC?$AA?$AA@ 0001103c     htmlhelp:htmlhelp.obj
 0001:00000054       ??_C@_1BM@ELBEMHAL@?$AAh?$AAe?$AAl?$AAp?$AA?3?$AAc?$AAo?$AAn?$AAt?$AAe?$AAn?$AAt?$AAs?$AA?$AA@ 00011054     htmlhelp:htmlhelp.obj
 0001:00000070       CLSID_WebBrowser           00011070     htmlhelp:htmlhelp.obj
 0001:00000080       IID_IWebBrowser2           00011080     htmlhelp:htmlhelp.obj
 0001:00000090       DIID_DWebBrowserEvents2    00011090     htmlhelp:htmlhelp.obj
 0001:000000a0       CLSID_HelpProtocol         000110a0     htmlhelp:htmlhelp.obj
 0001:000000b0       ??_C@_1BI@BHBGDAPD@?$AAH?$AAT?$AAM?$AAL?$AAH?$AAe?$AAl?$AAp?$AAM?$AAT?$AAX?$AA?$AA@ 000110b0     htmlhelp:htmlhelp.obj
 0001:000000c8       ??_7IOleClientSite@@6B@    000110c8     htmlhelp:htmlhelp.obj
 0001:000000ec       ??_7CMainWnd@@6BIOleContainer@@@ 000110ec     htmlhelp:htmlhelp.obj
 0001:00000104       ??_7CMainWnd@@6BIOleClientSite@@@ 00011104     htmlhelp:htmlhelp.obj
 0001:00000128       ??_7CMainWnd@@6BIOleInPlaceSite@@@ 00011128     htmlhelp:htmlhelp.obj
 0001:00000164       ??_7CMainWnd@@6BIServiceProvider@@@ 00011164     htmlhelp:htmlhelp.obj
 0001:00000174       ??_7CMainWnd@@6BDWebBrowserEvents2@@@ 00011174     htmlhelp:htmlhelp.obj
 0001:00000190       ??_7CMainWnd@@6BIDocHostUIHandler@@@ 00011190     htmlhelp:htmlhelp.obj
 0001:000001d8       ??_7CMainWnd@@6BIDocHostShowUI@@@ 000111d8     htmlhelp:htmlhelp.obj
 0001:000001ec       ??_7CMainWnd@@6BIHTMLOMWindowServices@@@ 000111ec     htmlhelp:htmlhelp.obj
 0001:00000208       ??_C@_17LGKOMLJ@?$AA?4?$AA?4?$AA?4?$AA?$AA@ 00011208     htmlhelp:htmlhelp.obj
 0001:00000210       ??_7IOleInPlaceSite@@6B@   00011210     htmlhelp:htmlhelp.obj
 0001:0000024c       ??_C@_1O@NNDBMFLO@?$AAc?$AAt?$AAl?$AAp?$AAn?$AAl?$AA?$AA@ 0001124c     htmlhelp:htmlhelp.obj
 0001:0000025c       ??_C@_1BI@DKKNLMLJ@?$AAi?$AAn?$AAe?$AAt?$AAc?$AAp?$AAl?$AA?4?$AAc?$AAp?$AAl?$AA?$AA@ 0001125c     htmlhelp:htmlhelp.obj
 0001:00000274       ??_7CHelpProtocolCF@@6BIClassFactory@@@ 00011274     htmlhelp:htmlhelp.obj
 0001:00000288       ??_7CHelpProtocolCF@@6BIInternetProtocolInfo@@@ 00011288     htmlhelp:htmlhelp.obj
 0001:000002a4       ??_C@_11LOCGONAA@?$AA?$AA@ 000112a4     htmlhelp:htmlhelp.obj
 0001:000002a8       ??_C@_1CE@JHEMIBLN@?$AAm?$AAs?$AAc?$AAt?$AAl?$AAs?$AA_?$AAp?$AAr?$AAo?$AAg?$AAr?$AAe?$AAs?$AAs?$AA3?$AA2?$AA?$AA@ 000112a8     htmlhelp:htmlhelp.obj
 0001:000002cc       ??_C@_19FCEHBCGP@?$AAh?$AAe?$AAl?$AAp?$AA?$AA@ 000112cc     htmlhelp:htmlhelp.obj
 0001:000002d8       ??_C@_1BC@LMLCHEDG@?$AAS?$AAt?$AAa?$AAc?$AAk?$AAR?$AAe?$AAs?$AA?$AA@ 000112d8     htmlhelp:htmlhelp.obj
 0001:000002f0       ??_C@_1FE@LPOHPINE@?$AAS?$AAO?$AAF?$AAT?$AAW?$AAA?$AAR?$AAE?$AA?2?$AAM?$AAi?$AAc?$AAr?$AAo?$AAs?$AAo?$AAf?$AAt?$AA?2?$AAI?$AAn?$AAt?$AAe?$AAr?$AAn?$AAe?$AAt?$AA?5?$AAE?$AAx?$AAp?$AAl@ 000112f0     htmlhelp:htmlhelp.obj
 0001:00000344       ??_C@_1M@IOEKEMKC@?$AAh?$AAe?$AAl?$AAp?$AA?3?$AA?$AA@ 00011344     htmlhelp:htmlhelp.obj
 0001:00000350       ??_C@_1M@OJHIIMOK@?$AAh?$AAt?$AAt?$AAp?$AA?3?$AA?$AA@ 00011350     htmlhelp:htmlhelp.obj
 0001:0000035c       ??_C@_1M@COFMOMBK@?$AAf?$AAi?$AAl?$AAe?$AA?3?$AA?$AA@ 0001135c     htmlhelp:htmlhelp.obj
 0001:00000368       ??_C@_0BB@BAFPDHKB@?$DM?$CB?9?9?5PEGHELP?5?9?9?$DO?$AA@ 00011368     htmlhelp:helpfile.obj
 0001:0000037c       ??_C@_08NOHPLOOI@?$DMA?5NAME?$DN?$AA@ 0001137c     htmlhelp:helpfile.obj
 0001:00000388       ??_C@_1BA@FLCPIJCD@?$AAf?$AAi?$AAl?$AAe?$AA?3?$AA?1?$AA?1?$AA?$AA@ 00011388     htmlhelp:helpfile.obj
 0001:00000398       ??_C@_1BE@IBBOHCDA@?$AA?2?$AAW?$AAi?$AAn?$AAd?$AAo?$AAw?$AAs?$AA?2?$AA?$AA@ 00011398     htmlhelp:helpfile.obj
 0001:000003ac       ??_C@_1CC@HAHJFOAG@?$AAD?$AAe?$AAf?$AAa?$AAu?$AAl?$AAt?$AA_?$AAC?$AAo?$AAd?$AAe?$AAP?$AAa?$AAg?$AAe?$AA?$AA@ 000113ac     htmlhelp:helpfile.obj
 0001:000003d0       ??_C@_1GG@GDJJKEHC@?$AAS?$AAo?$AAf?$AAt?$AAw?$AAa?$AAr?$AAe?$AA?2?$AAM?$AAi?$AAc?$AAr?$AAo?$AAs?$AAo?$AAf?$AAt?$AA?2?$AAI?$AAn?$AAt?$AAe?$AAr?$AAn?$AAe?$AAt?$AA?5?$AAE?$AAx?$AAp?$AAl@ 000113d0     htmlhelp:helpfile.obj
 0001:00000438       ??_C@_04CNFBMMBE@?$DMHR?$DO?$AA@ 00011438     htmlhelp:helpfile.obj
 0001:00000440       ??_7CHelpProtocol@@6B@     00011440     htmlhelp:helpprot.obj
 0001:00000474       ??_C@_1BE@GIJHKGPE@?$AAt?$AAe?$AAx?$AAt?$AA?1?$AAh?$AAt?$AAm?$AAl?$AA?$AA@ 00011474     htmlhelp:helpprot.obj
 0001:00000488       ??_C@_19BHBAHPON@?$AA?4?$AAh?$AAt?$AAm?$AA?$AA@ 00011488     htmlhelp:helpprot.obj
 0001:00000494       ??_C@_1BC@FJJOJCAH@?$AAc?$AAo?$AAn?$AAt?$AAe?$AAn?$AAt?$AAs?$AA?$AA@ 00011494     htmlhelp:helpprot.obj
 0001:0000055c       ??_C@_15BEKNHFPD@?$AA?$CC?$AA?$DO?$AA?$AA@ 0001155c     htmlhelp:helpstm.obj
 0001:00000564       ??_C@_13NEIAEHFG@?$AA?$CC?$AA?$AA@ 00011564     htmlhelp:helpstm.obj
 0001:00000568       ??_7CHelpStream@@6B@       00011568     htmlhelp:helpstm.obj
 0001:000005a0       IID_IOleCommandTarget      000115a0     uuid:ieuuid.obj
 0001:000005b0       IID_IDocHostUIHandler      000115b0     uuid:ieuuid.obj
 0001:000005c0       IID_IDocHostShowUI         000115c0     uuid:ieuuid.obj
 0001:000005d0       IID_IHTMLOMWindowServices  000115d0     uuid:ieuuid.obj
 0001:000005e0       IID_IServiceProvider       000115e0     uuid:ieuuid.obj
 0001:000005f0       IID_IInternetProtocolRoot  000115f0     uuid:ieuuid.obj
 0001:00000600       IID_IInternetProtocol      00011600     uuid:ieuuid.obj
 0001:00000610       IID_IInternetProtocolInfo  00011610     uuid:ieuuid.obj
 0001:00000620       IID_IDispatch              00011620     uuid:dcomuuid.obj
 0001:00000630       IID_IStream                00011630     uuid:dcomuuid.obj
 0001:00000640       IID_IConnectionPointContainer 00011640     uuid:dcomuuid.obj
 0001:00000650       IID_IOleContainer          00011650     uuid:dcomuuid.obj
 0001:00000660       IID_IOleClientSite         00011660     uuid:dcomuuid.obj
 0001:00000670       IID_IOleObject             00011670     uuid:dcomuuid.obj
 0001:00000680       IID_IOleWindow             00011680     uuid:dcomuuid.obj
 0001:00000690       IID_IOleInPlaceActiveObject 00011690     uuid:dcomuuid.obj
 0001:000006a0       IID_IOleInPlaceSite        000116a0     uuid:dcomuuid.obj
 0001:000006b0       IID_IUnknown               000116b0     uuid:dcomuuid.obj
 0001:000006c0       IID_IClassFactory          000116c0     uuid:dcomuuid.obj
 0001:00000780       WinMainCRTStartup          00011780 f   corelib0:pegwmain.obj
 0001:00000898       exit                       00011898 f   corelib0:cexit.obj
 0001:000008a4       _exit                      000118a4 f   corelib0:cexit.obj
 0001:000008dc       _initterm                  000118dc f   corelib0:crt0dat.obj
 0001:00000908       _cinit                     00011908 f   corelib0:crt0dat.obj
 0001:00000968       __security_init_cookie     00011968 f   corelib0:seccinit.obj
 0001:000009b4       __crt_ExitProcess          000119b4 f   corelib0:exitproc_proxy.obj
 0001:000009c0       _XcptFilter                000119c0 f   corelib1:COREDLL.dll
 0001:000009d0       __C_specific_handler       000119d0 f   corelib1:COREDLL.dll
 0001:000009e0       free                       000119e0 f   corelib1:COREDLL.dll
 0001:000009f0       __security_gen_cookie2     000119f0 f   corelib1:COREDLL.dll
 0001:00000a00       DeleteCriticalSection      00011a00 f   coredll:COREDLL.dll
 0001:00000a10       InterlockedExchange        00011a10 f   coredll:COREDLL.dll
 0001:00000a20       TerminateProcess           00011a20 f   coredll:COREDLL.dll
 0001:00000a30       ?CheckPreviousInstance@@YAHPAPAX@Z 00011a30 f   htmlhelp:htmlhelp.obj
 0001:00000a84       ??1CMainWnd@@QAA@XZ        00011a84 f   htmlhelp:htmlhelp.obj
 0001:00000b18       ?QueryInterface@CMainWnd@@UAAJABU_GUID@@PAPAX@Z 00011b18 f i htmlhelp:htmlhelp.obj
 0001:00000d20       ?AddRef@CMainWnd@@UAAKXZ   00011d20 f i htmlhelp:htmlhelp.obj
 0001:00000d38       ?ParseDisplayName@CMainWnd@@UAAJPAUIBindCtx@@PAGPAKPAPAUIMoniker@@@Z 00011d38 f i htmlhelp:htmlhelp.obj
 0001:00000d44       ?EnumObjects@CMainWnd@@UAAJKPAPAUIEnumUnknown@@@Z 00011d44 f i htmlhelp:htmlhelp.obj
 0001:00000d50       ?LockContainer@CMainWnd@@UAAJH@Z 00011d50 f i htmlhelp:htmlhelp.obj
 0001:00000d58       ?SaveObject@CMainWnd@@UAAJXZ 00011d58 f i htmlhelp:htmlhelp.obj
 0001:00000d64       ?GetMoniker@CMainWnd@@UAAJKKPAPAUIMoniker@@@Z 00011d64 f i htmlhelp:htmlhelp.obj
 0001:00000d70       ?GetContainer@CMainWnd@@UAAJPAPAUIOleContainer@@@Z 00011d70 f i htmlhelp:htmlhelp.obj
 0001:00000d7c       ?ShowObject@CMainWnd@@UAAJXZ 00011d7c f i htmlhelp:htmlhelp.obj
 0001:00000d88       ?OnShowWindow@CMainWnd@@UAAJH@Z 00011d88 f i htmlhelp:htmlhelp.obj
 0001:00000d94       ?RequestNewObjectLayout@CMainWnd@@UAAJXZ 00011d94 f i htmlhelp:htmlhelp.obj
 0001:00000da0       ?GetWindow@CMainWnd@@UAAJPAPAUHWND__@@@Z 00011da0 f i htmlhelp:htmlhelp.obj
 0001:00000db0       ?ContextSensitiveHelp@CMainWnd@@UAAJH@Z 00011db0 f i htmlhelp:htmlhelp.obj
 0001:00000dbc       ?CanInPlaceActivate@CMainWnd@@UAAJXZ 00011dbc f i htmlhelp:htmlhelp.obj
 0001:00000dc4       ?OnInPlaceActivate@CMainWnd@@UAAJXZ 00011dc4 f i htmlhelp:htmlhelp.obj
 0001:00000dd4       ?OnUIActivate@CMainWnd@@UAAJXZ 00011dd4 f i htmlhelp:htmlhelp.obj
 0001:00000de0       ?GetWindowContext@CMainWnd@@UAAJPAPAUIOleInPlaceFrame@@PAPAUIOleInPlaceUIWindow@@PAUtagRECT@@2PAUtagOIFI@@@Z 00011de0 f i htmlhelp:htmlhelp.obj
 0001:00000e44       ?Scroll@CMainWnd@@UAAJUtagSIZE@@@Z 00011e44 f i htmlhelp:htmlhelp.obj
 0001:00000e5c       ?OnUIDeactivate@CMainWnd@@UAAJH@Z 00011e5c f i htmlhelp:htmlhelp.obj
 0001:00000e68       ?OnInPlaceDeactivate@CMainWnd@@UAAJXZ 00011e68 f i htmlhelp:htmlhelp.obj
 0001:00000e78       ?DiscardUndoState@CMainWnd@@UAAJXZ 00011e78 f i htmlhelp:htmlhelp.obj
 0001:00000e84       ?DeactivateAndUndo@CMainWnd@@UAAJXZ 00011e84 f i htmlhelp:htmlhelp.obj
 0001:00000e90       ?OnPosRectChange@CMainWnd@@UAAJPBUtagRECT@@@Z 00011e90 f i htmlhelp:htmlhelp.obj
 0001:00000e9c       ?QueryService@CMainWnd@@UAAJABU_GUID@@0PAPAX@Z 00011e9c f i htmlhelp:htmlhelp.obj
 0001:00000ef4       ?GetTypeInfoCount@CMainWnd@@UAAJPAI@Z 00011ef4 f i htmlhelp:htmlhelp.obj
 0001:00000f00       ?GetTypeInfo@CMainWnd@@UAAJIKPAPAUITypeInfo@@@Z 00011f00 f i htmlhelp:htmlhelp.obj
 0001:00000f0c       ?GetIDsOfNames@CMainWnd@@UAAJABU_GUID@@PAPAGIKPAJ@Z 00011f0c f i htmlhelp:htmlhelp.obj
 0001:00000f18       ?EnableModeless@CMainWnd@@UAAJH@Z 00011f18 f i htmlhelp:htmlhelp.obj
 0001:00000f24       ?FilterDataObject@CMainWnd@@UAAJPAUIDataObject@@PAPAU2@@Z 00011f24 f i htmlhelp:htmlhelp.obj
 0001:00000f30       ?GetDropTarget@CMainWnd@@UAAJPAUIDropTarget@@PAPAU2@@Z 00011f30 f i htmlhelp:htmlhelp.obj
 0001:00000f3c       ?GetExternal@CMainWnd@@UAAJPAPAUIDispatch@@@Z 00011f3c f i htmlhelp:htmlhelp.obj
 0001:00000f48       ?GetOptionKeyPath@CMainWnd@@UAAJPAPAGK@Z 00011f48 f i htmlhelp:htmlhelp.obj
 0001:00000f54       ?HideUI@CMainWnd@@UAAJXZ   00011f54 f i htmlhelp:htmlhelp.obj
 0001:00000f60       ?OnDocWindowActivate@CMainWnd@@UAAJH@Z 00011f60 f i htmlhelp:htmlhelp.obj
 0001:00000f6c       ?OnFrameWindowActivate@CMainWnd@@UAAJH@Z 00011f6c f i htmlhelp:htmlhelp.obj
 0001:00000f78       ?ResizeBorder@CMainWnd@@UAAJPBUtagRECT@@PAUIOleInPlaceUIWindow@@H@Z 00011f78 f i htmlhelp:htmlhelp.obj
 0001:00000f84       ?ShowContextMenu@CMainWnd@@UAAJKPAUtagPOINT@@PAUIUnknown@@PAUIDispatch@@@Z 00011f84 f i htmlhelp:htmlhelp.obj
 0001:00000f90       ?ShowUI@CMainWnd@@UAAJKPAUIOleInPlaceActiveObject@@PAUIOleCommandTarget@@PAUIOleInPlaceFrame@@PAUIOleInPlaceUIWindow@@@Z 00011f90 f i htmlhelp:htmlhelp.obj
 0001:00000f98       ?TranslateAcceleratorW@CMainWnd@@UAAJPAUtagMSG@@PBU_GUID@@K@Z 00011f98 f i htmlhelp:htmlhelp.obj
 0001:00000fa4       ?TranslateUrl@CMainWnd@@UAAJKPAGPAPAG@Z 00011fa4 f i htmlhelp:htmlhelp.obj
 0001:00000fb0       ?UpdateUI@CMainWnd@@UAAJXZ 00011fb0 f i htmlhelp:htmlhelp.obj
 0001:00000fbc       ?ShowHelp@CMainWnd@@UAAJPAUHWND__@@PAGIKUtagPOINT@@PAUIDispatch@@@Z 00011fbc f i htmlhelp:htmlhelp.obj
 0001:00000fd4       ?ShowMessage@CMainWnd@@UAAJPAUHWND__@@PAG1K1KPAJ@Z 00011fd4 f i htmlhelp:htmlhelp.obj
 0001:0000100c       ?Activate@CMainWnd@@IAAJPAUIOleObject@@@Z 0001200c f   htmlhelp:htmlhelp.obj
 0001:00001074       ?InitEvents@CMainWnd@@IAAJXZ 00012074 f   htmlhelp:htmlhelp.obj
 0001:00001160       ?GetHostInfo@CMainWnd@@UAAJPAU_DOCHOSTUIINFO@@@Z 00012160 f   htmlhelp:htmlhelp.obj
 0001:00001178       ?Invoke@CMainWnd@@UAAJJABU_GUID@@KGPAUtagDISPPARAMS@@PAUtagVARIANT@@PAUtagEXCEPINFO@@PAI@Z 00012178 f   htmlhelp:htmlhelp.obj
 0001:000013d8       ?moveTo@CMainWnd@@UAAJJJ@Z 000123d8 f   htmlhelp:htmlhelp.obj
 0001:00001414       ?moveBy@CMainWnd@@UAAJJJ@Z 00012414 f   htmlhelp:htmlhelp.obj
 0001:00001470       ?resizeTo@CMainWnd@@UAAJJJ@Z 00012470 f   htmlhelp:htmlhelp.obj
 0001:000014c0       ?resizeBy@CMainWnd@@UAAJJJ@Z 000124c0 f   htmlhelp:htmlhelp.obj
 0001:00001548       ?CreateCommandBar@CMainWnd@@IAAHXZ 00012548 f   htmlhelp:htmlhelp.obj
 0001:00001668       ?JumpToTop@CMainWnd@@IAAXXZ 00012668 f   htmlhelp:htmlhelp.obj
 0001:00001708       ?PreTranslateMessage@CMainWnd@@QAAHPAUtagMSG@@@Z 00012708 f   htmlhelp:htmlhelp.obj
 0001:00001778       ?ChangeFontSize@CMainWnd@@IAAXH@Z 00012778 f   htmlhelp:htmlhelp.obj
 0001:00001808       ?Close@CMainWnd@@QAAXXZ    00012808 f   htmlhelp:htmlhelp.obj
 0001:000018bc       ?FindString@CMainWnd@@IAAJXZ 000128bc f   htmlhelp:htmlhelp.obj
 0001:000019b4       ?QueryInterface@CMainWnd@@WBI@AAJABU_GUID@@PAPAX@Z 000129b4 f i htmlhelp:htmlhelp.obj
 0001:000019bc       ?QueryInterface@CMainWnd@@WBM@AAJABU_GUID@@PAPAX@Z 000129bc f i htmlhelp:htmlhelp.obj
 0001:000019c4       ?AddRef@CMainWnd@@W3AAKXZ  000129c4 f i htmlhelp:htmlhelp.obj
 0001:000019cc       ?AddRef@CMainWnd@@W7AAKXZ  000129cc f i htmlhelp:htmlhelp.obj
 0001:000019d4       ?QueryInterface@CMainWnd@@W3AAJABU_GUID@@PAPAX@Z 000129d4 f i htmlhelp:htmlhelp.obj
 0001:000019dc       ?AddRef@CMainWnd@@WM@AAKXZ 000129dc f i htmlhelp:htmlhelp.obj
 0001:000019e4       ?QueryInterface@CMainWnd@@W7AAJABU_GUID@@PAPAX@Z 000129e4 f i htmlhelp:htmlhelp.obj
 0001:000019ec       ?AddRef@CMainWnd@@WBA@AAKXZ 000129ec f i htmlhelp:htmlhelp.obj
 0001:000019f4       ?QueryInterface@CMainWnd@@WM@AAJABU_GUID@@PAPAX@Z 000129f4 f i htmlhelp:htmlhelp.obj
 0001:000019fc       ?AddRef@CMainWnd@@WBE@AAKXZ 000129fc f i htmlhelp:htmlhelp.obj
 0001:00001a04       ?QueryInterface@CMainWnd@@WBA@AAJABU_GUID@@PAPAX@Z 00012a04 f i htmlhelp:htmlhelp.obj
 0001:00001a0c       ?AddRef@CMainWnd@@WBI@AAKXZ 00012a0c f i htmlhelp:htmlhelp.obj
 0001:00001a14       ?QueryInterface@CMainWnd@@WBE@AAJABU_GUID@@PAPAX@Z 00012a14 f i htmlhelp:htmlhelp.obj
 0001:00001a1c       ?AddRef@CMainWnd@@WBM@AAKXZ 00012a1c f i htmlhelp:htmlhelp.obj
 0001:00001a24       ?CreateBrowser@CMainWnd@@IAAPAUHWND__@@XZ 00012a24 f   htmlhelp:htmlhelp.obj
 0001:00001c7c       ?HandleCommand@CMainWnd@@QAAJIJ@Z 00012c7c f   htmlhelp:htmlhelp.obj
 0001:00001f24       ?MainWndProc@CMainWnd@@SAJPAUHWND__@@IIJ@Z 00012f24 f   htmlhelp:htmlhelp.obj
 0001:00002190       ?Release@CMainWnd@@UAAKXZ  00013190 f i htmlhelp:htmlhelp.obj
 0001:000021c8       ?QueryInterface@CHelpProtocolCF@@W3AAJABU_GUID@@PAPAX@Z 000131c8 f i htmlhelp:htmlhelp.obj
 0001:000021d0       ?Release@CHelpProtocolCF@@W3AAKXZ 000131d0 f i htmlhelp:htmlhelp.obj
 0001:000021d8       ?AddRef@CHelpProtocolCF@@W3AAKXZ 000131d8 f i htmlhelp:htmlhelp.obj
 0001:000021e0       ??0CMainWnd@@QAA@XZ        000131e0 f   htmlhelp:htmlhelp.obj
 0001:000022b4       ?RegisterMainWnd@@YAHXZ    000132b4 f   htmlhelp:htmlhelp.obj
 0001:00002358       ?Create@CMainWnd@@QAAHXZ   00013358 f   htmlhelp:htmlhelp.obj
 0001:0000254c       ?Release@CMainWnd@@W7AAKXZ 0001354c f i htmlhelp:htmlhelp.obj
 0001:00002554       ?Release@CMainWnd@@WM@AAKXZ 00013554 f i htmlhelp:htmlhelp.obj
 0001:0000255c       ?Release@CMainWnd@@WBA@AAKXZ 0001355c f i htmlhelp:htmlhelp.obj
 0001:00002564       ?Release@CMainWnd@@WBE@AAKXZ 00013564 f i htmlhelp:htmlhelp.obj
 0001:0000256c       ?Release@CMainWnd@@WBI@AAKXZ 0001356c f i htmlhelp:htmlhelp.obj
 0001:00002574       ?Release@CMainWnd@@WBM@AAKXZ 00013574 f i htmlhelp:htmlhelp.obj
 0001:0000257c       ?Release@CMainWnd@@W3AAKXZ 0001357c f i htmlhelp:htmlhelp.obj
 0001:00002584       ?NewWindow@@YAKPAX@Z       00013584 f   htmlhelp:htmlhelp.obj
 0001:00002778       ?HandleNewWindow2@@YAJPAGPAUtagDISPPARAMS@@@Z 00013778 f   htmlhelp:htmlhelp.obj
 0001:000028e4       WinMain                    000138e4 f   htmlhelp:htmlhelp.obj
 0001:00002bc8       ?CurrentByte@FileStream@@QAAHPAE@Z 00013bc8 f   htmlhelp:helpfile.obj
 0001:00002c10       ?Close@FileStream@@QAAXXZ  00013c10 f   htmlhelp:helpfile.obj
 0001:00002c44       ?NextByte@FileStream@@QAAHPAE@Z 00013c44 f   htmlhelp:helpfile.obj
 0001:00002d08       ?Rewind@FileStream@@QAAHPAEH@Z 00013d08 f   htmlhelp:helpfile.obj
 0001:00002e00       ?Open@FileStream@@QAAJPAG@Z 00013e00 f   htmlhelp:helpfile.obj
 0001:00002ef0       ?Read@FileStream@@QAAPAUStorage_t@@HH@Z 00013ef0 f   htmlhelp:helpfile.obj
 0001:00002fb4       ?Merge@Storage_t@@QAAJPAU1@@Z 00013fb4 f   htmlhelp:helpfile.obj
 0001:00003058       ?ConvertFromUnicode@Storage_t@@QAAJXZ 00014058 f   htmlhelp:helpfile.obj
 0001:000031d8       ?GetHeader@HelpFile@@QAAPAUStorage_t@@XZ 000141d8 f   htmlhelp:helpfile.obj
 0001:00003200       ?GetFirstPage@HelpFile@@QAAPAUStorage_t@@XZ 00014200 f   htmlhelp:helpfile.obj
 0001:00003230       ?GetFooter@HelpFile@@QAAPAUStorage_t@@XZ 00014230 f   htmlhelp:helpfile.obj
 0001:00003294       ?GetNamedPage@HelpFile@@QAAPAUStorage_t@@PAG@Z 00014294 f   htmlhelp:helpfile.obj
 0001:000032f0       ?IsHelpPage@HelpFile@@QAAHPAG@Z 000142f0 f   htmlhelp:helpfile.obj
 0001:00003348       ?MatchStr@HelpFile@@AAAHPBD@Z 00014348 f   htmlhelp:helpfile.obj
 0001:00003434       ?Add@Storage_t@@QAAJPAEH@Z 00014434 f   htmlhelp:helpfile.obj
 0001:00003458       ?Close@HelpFile@@QAAXXZ    00014458 f   htmlhelp:helpfile.obj
 0001:000034cc       ?OpenFile@HelpFile@@QAAJPAG@Z 000144cc f   htmlhelp:helpfile.obj
 0001:000037e8       ?ReplaceInterfaceFn@@YAXPAPAUIUnknown@@PAU1@@Z 000147e8 f   htmlhelp:helpprot.obj
 0001:00003820       ?AddRef@CHelpProtocolCF@@UAAKXZ 00014820 f   htmlhelp:helpprot.obj
 0001:00003834       ?QueryInterface@CHelpProtocolCF@@UAAJABU_GUID@@PAPAX@Z 00014834 f   htmlhelp:helpprot.obj
 0001:000038d4       ?LockServer@CHelpProtocolCF@@UAAJH@Z 000148d4 f   htmlhelp:helpprot.obj
 0001:000038dc       ?UnwrapSpecialUrl@@YAPAGPBG@Z 000148dc f   htmlhelp:helpprot.obj
 0001:00003960       ??1CHelpProtocol@@QAA@XZ   00014960 f   htmlhelp:helpprot.obj
 0001:000039b0       ?AddRef@CHelpProtocol@@UAAKXZ 000149b0 f   htmlhelp:helpprot.obj
 0001:000039c4       ?QueryInterface@CHelpProtocol@@UAAJABU_GUID@@PAPAX@Z 000149c4 f   htmlhelp:helpprot.obj
 0001:00003a50       ?Abort@CHelpProtocol@@UAAJJK@Z 00014a50 f   htmlhelp:helpprot.obj
 0001:00003a88       ?Terminate@CHelpProtocol@@UAAJK@Z 00014a88 f   htmlhelp:helpprot.obj
 0001:00003adc       ?Suspend@CHelpProtocol@@UAAJXZ 00014adc f   htmlhelp:helpprot.obj
 0001:00003ae8       ?Resume@CHelpProtocol@@UAAJXZ 00014ae8 f   htmlhelp:helpprot.obj
 0001:00003af4       ?Read@CHelpProtocol@@UAAJPAXKPAK@Z 00014af4 f   htmlhelp:helpprot.obj
 0001:00003b1c       ?Seek@CHelpProtocol@@UAAJT_LARGE_INTEGER@@KPAT_ULARGE_INTEGER@@@Z 00014b1c f   htmlhelp:helpprot.obj
 0001:00003b70       ?LockRequest@CHelpProtocol@@UAAJK@Z 00014b70 f   htmlhelp:helpprot.obj
 0001:00003b78       ?UnlockRequest@CHelpProtocol@@UAAJXZ 00014b78 f   htmlhelp:helpprot.obj
 0001:00003b80       ?_ReportData@CHelpProtocol@@QAAXK@Z 00014b80 f   htmlhelp:helpprot.obj
 0001:00003bb4       ?ParseAndBind@CHelpProtocol@@QAAJXZ 00014bb4 f   htmlhelp:helpprot.obj
 0001:00003cc4       ?ParseUrl@CHelpProtocolCF@@UAAJPBGW4_tagPARSEACTION@@KPAGKPAKK@Z 00014cc4 f   htmlhelp:helpprot.obj
 0001:00003ee4       ?CombineUrl@CHelpProtocolCF@@UAAJPBG0KPAGKPAKK@Z 00014ee4 f   htmlhelp:helpprot.obj
 0001:000042ec       ?CompareUrl@CHelpProtocolCF@@UAAJPBG0K@Z 000152ec f   htmlhelp:helpprot.obj
 0001:000042f8       ?QueryInfo@CHelpProtocolCF@@UAAJPBGW4_tagQUERYOPTION@@KPAXKPAKK@Z 000152f8 f   htmlhelp:helpprot.obj
 0001:00004368       ?Release@CHelpProtocol@@UAAKXZ 00015368 f   htmlhelp:helpprot.obj
 0001:0000439c       ?Start@CHelpProtocol@@UAAJPBGPAUIInternetProtocolSink@@PAUIInternetBindInfo@@KK@Z 0001539c f   htmlhelp:helpprot.obj
 0001:00004510       ?Continue@CHelpProtocol@@UAAJPAU_tagPROTOCOLDATA@@@Z 00015510 f   htmlhelp:helpprot.obj
 0001:0000453c       ?Release@CHelpProtocolCF@@UAAKXZ 0001553c f   htmlhelp:helpprot.obj
 0001:00004580       ??0CHelpProtocol@@QAA@PAVCHelpProtocolCF@@@Z 00015580 f   htmlhelp:helpprot.obj
 0001:000045e4       ?CreateInstance@CHelpProtocolCF@@UAAJPAUIUnknown@@ABU_GUID@@PAPAX@Z 000155e4 f   htmlhelp:helpprot.obj
 0001:00004694       ?AddRef@CHelpStream@@UAAKXZ 00015694 f   htmlhelp:helpstm.obj
 0001:000046a8       ?QueryInterface@CHelpStream@@UAAJABU_GUID@@PAPAX@Z 000156a8 f   htmlhelp:helpstm.obj
 0001:0000471c       ?AddFileToList@@YAHPAPAPAGPAG@Z 0001571c f   htmlhelp:helpstm.obj
 0001:000048a0       ?GetContentsPage@CHelpStream@@QAAPAUStorage_t@@XZ 000158a0 f   htmlhelp:helpstm.obj
 0001:00004c94       ?Read@CHelpStream@@UAAJPAXKPAK@Z 00015c94 f   htmlhelp:helpstm.obj
 0001:00004d14       ?Seek@CHelpStream@@UAAJT_LARGE_INTEGER@@KPAT_ULARGE_INTEGER@@@Z 00015d14 f   htmlhelp:helpstm.obj
 0001:00004dec       ?CopyTo@CHelpStream@@UAAJPAUIStream@@T_ULARGE_INTEGER@@PAT3@2@Z 00015dec f   htmlhelp:helpstm.obj
 0001:00004ea4       ?Stat@CHelpStream@@UAAJPAUtagSTATSTG@@K@Z 00015ea4 f   htmlhelp:helpstm.obj
 0001:00004ef4       ?Init@CHelpStream@@QAAJPAVHelpFile@@PAG@Z 00015ef4 f   htmlhelp:helpstm.obj
 0001:000051d8       ??1CHelpStream@@QAA@XZ     000161d8 f   htmlhelp:helpstm.obj
 0001:00005220       ?Write@CHelpStream@@UAAJPBXKPAK@Z 00016220 f i htmlhelp:helpstm.obj
 0001:0000522c       ?SetSize@CHelpStream@@UAAJT_ULARGE_INTEGER@@@Z 0001622c f i htmlhelp:helpstm.obj
 0001:00005244       ?Commit@CHelpStream@@UAAJK@Z 00016244 f i htmlhelp:helpstm.obj
 0001:00005250       ?Revert@CHelpStream@@UAAJXZ 00016250 f i htmlhelp:helpstm.obj
 0001:0000525c       ?LockRegion@CHelpStream@@UAAJT_ULARGE_INTEGER@@0K@Z 0001625c f i htmlhelp:helpstm.obj
 0001:00005274       ?UnlockRegion@CHelpStream@@UAAJT_ULARGE_INTEGER@@0K@Z 00016274 f i htmlhelp:helpstm.obj
 0001:0000528c       ?Clone@CHelpStream@@UAAJPAPAUIStream@@@Z 0001628c f i htmlhelp:helpstm.obj
 0001:00005298       ??0CHelpStream@@QAA@XZ     00016298 f   htmlhelp:helpstm.obj
 0001:000052bc       ?Release@CHelpStream@@UAAKXZ 000162bc f   htmlhelp:helpstm.obj
 0001:000052f0       CoCreateInstance           000162f0 f   ole32:ole32.dll
 0001:00005300       CoUninitialize             00016300 f   ole32:ole32.dll
 0001:00005310       CoInitializeEx             00016310 f   ole32:ole32.dll
 0001:00005320       SysFreeString              00016320 f   oleaut32:OLEAUT32.dll
 0001:00005330       SysAllocString             00016330 f   oleaut32:OLEAUT32.dll
 0001:00005340       SysAllocStringLen          00016340 f   oleaut32:OLEAUT32.dll
 0001:00005350       CoInternetGetSession       00016350 f   urlmon:urlmon.dll
 0001:00005360       CoInternetParseUrl         00016360 f   urlmon:urlmon.dll
 0001:00005370       ReleaseBindInfo            00016370 f   urlmon:urlmon.dll
 0001:00005380       CoInternetCombineUrl       00016380 f   urlmon:urlmon.dll
 0001:00005390       UrlGetPartW                00016390 f   shlwapi:shlwapi.dll
 0001:000053a0       UrlCanonicalizeW           000163a0 f   shlwapi:shlwapi.dll
 0001:000053b0       ConvertINetUnicodeToMultiByte 000163b0 f   mlang:MLANG.dll
 0001:000053c0       CommandBar_Height          000163c0 f   commctrl:commctrl.dll
 0001:000053d0       CommandBar_AddAdornments   000163d0 f   commctrl:commctrl.dll
 0001:000053e0       CommandBar_AddBitmap       000163e0 f   commctrl:commctrl.dll
 0001:000053f0       CommandBar_Create          000163f0 f   commctrl:commctrl.dll
 0001:00005400       InitCommonControlsEx       00016400 f   commctrl:commctrl.dll
 0001:00005410       __GSHandlerCheckCommon     00016410 f   corelib0:gshandler.obj
 0001:0000544c       __GSHandlerCheck           0001644c f   corelib0:gshandler.obj
 0001:0000546c       __security_check_cookie    0001646c f   corelib0:armsecgs.obj
 0001:0000547c       __gsfailure                0001647c     corelib0:armsecgs.obj
 0001:000054c0       wcslen                     000164c0 f   corelib1:COREDLL.dll
 0001:000054d0       _purecall                  000164d0 f   corelib1:COREDLL.dll
 0001:000054e0       memcmp                     000164e0 f   corelib1:COREDLL.dll
 0001:000054f0       wcscat                     000164f0 f   corelib1:COREDLL.dll
 0001:00005500       wcsncpy                    00016500 f   corelib1:COREDLL.dll
 0001:00005510       ??3@YAXPAX@Z               00016510 f   corelib1:COREDLL.dll
 0001:00005520       ??2@YAPAXI@Z               00016520 f   corelib1:COREDLL.dll
 0001:00005530       _wcsnicmp                  00016530 f   corelib1:COREDLL.dll
 0001:00005540       memcpy                     00016540 f   corelib1:COREDLL.dll
 0001:00005550       _wcsicmp                   00016550 f   corelib1:COREDLL.dll
 0001:00005560       toupper                    00016560 f   corelib1:COREDLL.dll
 0001:00005570       _isctype                   00016570 f   corelib1:COREDLL.dll
 0001:00005580       wcscpy                     00016580 f   corelib1:COREDLL.dll
 0001:00005590       wcschr                     00016590 f   corelib1:COREDLL.dll
 0001:000055a0       wcsrchr                    000165a0 f   corelib1:COREDLL.dll
 0001:000055b0       wcsncmp                    000165b0 f   corelib1:COREDLL.dll
 0001:000055c0       memmove                    000165c0 f   corelib1:COREDLL.dll
 0001:000055d0       memset                     000165d0 f   corelib1:COREDLL.dll
 0001:000055e0       __report_gsfailure         000165e0 f   corelib1:COREDLL.dll
 0001:000055f0       EventModify                000165f0 f   coredll:COREDLL.dll
 0001:00005600       CloseHandle                00016600 f   coredll:COREDLL.dll
 0001:00005610       GetLastError               00016610 f   coredll:COREDLL.dll
 0001:00005620       CreateMutexW               00016620 f   coredll:COREDLL.dll
 0001:00005630       InterlockedIncrement       00016630 f   coredll:COREDLL.dll
 0001:00005640       IsWindowVisible            00016640 f   coredll:COREDLL.dll
 0001:00005650       GetClientRect              00016650 f   coredll:COREDLL.dll
 0001:00005660       MessageBoxW                00016660 f   coredll:COREDLL.dll
 0001:00005670       PostMessageW               00016670 f   coredll:COREDLL.dll
 0001:00005680       SetWindowTextW             00016680 f   coredll:COREDLL.dll
 0001:00005690       SetWindowPos               00016690 f   coredll:COREDLL.dll
 0001:000056a0       SendMessageW               000166a0 f   coredll:COREDLL.dll
 0001:000056b0       GetWindowRect              000166b0 f   coredll:COREDLL.dll
 0001:000056c0       TranslateAcceleratorW      000166c0 f   coredll:COREDLL.dll
 0001:000056d0       SystemParametersInfoW      000166d0 f   coredll:COREDLL.dll
 0001:000056e0       SetWindowLongW             000166e0 f   coredll:COREDLL.dll
 0001:000056f0       GetWindowLongW             000166f0 f   coredll:COREDLL.dll
 0001:00005700       DestroyWindow              00016700 f   coredll:COREDLL.dll
 0001:00005710       ShellExecuteEx             00016710 f   coredll:COREDLL.dll
 0001:00005720       DefWindowProcW             00016720 f   coredll:COREDLL.dll
 0001:00005730       SetForegroundWindow        00016730 f   coredll:COREDLL.dll
 0001:00005740       StringCchCopyW             00016740 f   coredll:COREDLL.dll
 0001:00005750       PostQuitMessage            00016750 f   coredll:COREDLL.dll
 0001:00005760       InterlockedDecrement       00016760 f   coredll:COREDLL.dll
 0001:00005770       RegisterClassW             00016770 f   coredll:COREDLL.dll
 0001:00005780       GetSysColorBrush           00016780 f   coredll:COREDLL.dll
 0001:00005790       LoadCursorW                00016790 f   coredll:COREDLL.dll
 0001:000057a0       LoadAcceleratorsW          000167a0 f   coredll:COREDLL.dll
 0001:000057b0       SetFocus                   000167b0 f   coredll:COREDLL.dll
 0001:000057c0       CreateWindowExW            000167c0 f   coredll:COREDLL.dll
 0001:000057d0       LoadStringW                000167d0 f   coredll:COREDLL.dll
 0001:000057e0       DispatchMessageW           000167e0 f   coredll:COREDLL.dll
 0001:000057f0       TranslateMessage           000167f0 f   coredll:COREDLL.dll
 0001:00005800       GetMessageW                00016800 f   coredll:COREDLL.dll
 0001:00005810       WaitForSingleObject        00016810 f   coredll:COREDLL.dll
 0001:00005820       CreateThread               00016820 f   coredll:COREDLL.dll
 0001:00005830       CreateEventW               00016830 f   coredll:COREDLL.dll
 0001:00005840       PeekMessageW               00016840 f   coredll:COREDLL.dll
 0001:00005850       RegCloseKey                00016850 f   coredll:COREDLL.dll
 0001:00005860       RegQueryValueExW           00016860 f   coredll:COREDLL.dll
 0001:00005870       RegOpenKeyExW              00016870 f   coredll:COREDLL.dll
 0001:00005880       Sleep                      00016880 f   coredll:COREDLL.dll
 0001:00005890       FindWindowW                00016890 f   coredll:COREDLL.dll
 0001:000058a0       StringCchCatW              000168a0 f   coredll:COREDLL.dll
 0001:000058b0       LocalFree                  000168b0 f   coredll:COREDLL.dll
 0001:000058c0       GetFileSize                000168c0 f   coredll:COREDLL.dll
 0001:000058d0       SetFilePointer             000168d0 f   coredll:COREDLL.dll
 0001:000058e0       ReadFile                   000168e0 f   coredll:COREDLL.dll
 0001:000058f0       CreateFileW                000168f0 f   coredll:COREDLL.dll
 0001:00005900       LocalAlloc                 00016900 f   coredll:COREDLL.dll
 0001:00005910       LocalReAlloc               00016910 f   coredll:COREDLL.dll
 0001:00005920       GetACP                     00016920 f   coredll:COREDLL.dll
 0001:00005930       MultiByteToWideChar        00016930 f   coredll:COREDLL.dll
 0001:00005940       CompareStringW             00016940 f   coredll:COREDLL.dll
 0001:00005950       SHGetShortcutTarget        00016950 f   coredll:COREDLL.dll
 0001:00005960       FindNextFileW              00016960 f   coredll:COREDLL.dll
 0001:00005970       FindClose                  00016970 f   coredll:COREDLL.dll
 0001:00005980       FindFirstFileW             00016980 f   coredll:COREDLL.dll
 0001:000059b8       __IMPORT_DESCRIPTOR_COREDLL 000169b8     corelib1:COREDLL.dll
 0001:000059cc       __IMPORT_DESCRIPTOR_ole32  000169cc     ole32:ole32.dll
 0001:000059e0       __IMPORT_DESCRIPTOR_OLEAUT32 000169e0     oleaut32:OLEAUT32.dll
 0001:000059f4       __IMPORT_DESCRIPTOR_urlmon 000169f4     urlmon:urlmon.dll
 0001:00005a08       __IMPORT_DESCRIPTOR_shlwapi 00016a08     shlwapi:shlwapi.dll
 0001:00005a1c       __IMPORT_DESCRIPTOR_MLANG  00016a1c     mlang:MLANG.dll
 0001:00005a30       __IMPORT_DESCRIPTOR_commctrl 00016a30     commctrl:commctrl.dll
 0001:00005a44       __NULL_IMPORT_DESCRIPTOR   00016a44     corelib1:COREDLL.dll
 0002:00000000       __imp__XcptFilter          00017000     corelib1:COREDLL.dll
 0002:00000004       __imp___C_specific_handler 00017004     corelib1:COREDLL.dll
 0002:00000008       __imp_free                 00017008     corelib1:COREDLL.dll
 0002:0000000c       __imp___security_gen_cookie2 0001700c     corelib1:COREDLL.dll
 0002:00000010       __imp_DeleteCriticalSection 00017010     coredll:COREDLL.dll
 0002:00000014       __imp_InterlockedExchange  00017014     coredll:COREDLL.dll
 0002:00000018       __imp_TerminateProcess     00017018     coredll:COREDLL.dll
 0002:0000001c       __imp_FindClose            0001701c     coredll:COREDLL.dll
 0002:00000020       __imp_FindNextFileW        00017020     coredll:COREDLL.dll
 0002:00000024       __imp_SHGetShortcutTarget  00017024     coredll:COREDLL.dll
 0002:00000028       __imp_CompareStringW       00017028     coredll:COREDLL.dll
 0002:0000002c       __imp_MultiByteToWideChar  0001702c     coredll:COREDLL.dll
 0002:00000030       __imp_GetACP               00017030     coredll:COREDLL.dll
 0002:00000034       __imp_LocalReAlloc         00017034     coredll:COREDLL.dll
 0002:00000038       __imp_LocalAlloc           00017038     coredll:COREDLL.dll
 0002:0000003c       __imp_CreateFileW          0001703c     coredll:COREDLL.dll
 0002:00000040       __imp_ReadFile             00017040     coredll:COREDLL.dll
 0002:00000044       __imp_SetFilePointer       00017044     coredll:COREDLL.dll
 0002:00000048       __imp_GetFileSize          00017048     coredll:COREDLL.dll
 0002:0000004c       __imp_LocalFree            0001704c     coredll:COREDLL.dll
 0002:00000050       __imp_StringCchCatW        00017050     coredll:COREDLL.dll
 0002:00000054       __imp_FindWindowW          00017054     coredll:COREDLL.dll
 0002:00000058       __imp_Sleep                00017058     coredll:COREDLL.dll
 0002:0000005c       __imp_RegOpenKeyExW        0001705c     coredll:COREDLL.dll
 0002:00000060       __imp_RegQueryValueExW     00017060     coredll:COREDLL.dll
 0002:00000064       __imp_RegCloseKey          00017064     coredll:COREDLL.dll
 0002:00000068       __imp_PeekMessageW         00017068     coredll:COREDLL.dll
 0002:0000006c       __imp_CreateEventW         0001706c     coredll:COREDLL.dll
 0002:00000070       __imp_CreateThread         00017070     coredll:COREDLL.dll
 0002:00000074       __imp_WaitForSingleObject  00017074     coredll:COREDLL.dll
 0002:00000078       __imp_GetMessageW          00017078     coredll:COREDLL.dll
 0002:0000007c       __imp_wcslen               0001707c     corelib1:COREDLL.dll
 0002:00000080       __imp__purecall            00017080     corelib1:COREDLL.dll
 0002:00000084       __imp_memcmp               00017084     corelib1:COREDLL.dll
 0002:00000088       __imp_wcscat               00017088     corelib1:COREDLL.dll
 0002:0000008c       __imp_wcsncpy              0001708c     corelib1:COREDLL.dll
 0002:00000090       __imp_??3@YAXPAX@Z         00017090     corelib1:COREDLL.dll
 0002:00000094       __imp_??2@YAPAXI@Z         00017094     corelib1:COREDLL.dll
 0002:00000098       __imp__wcsnicmp            00017098     corelib1:COREDLL.dll
 0002:0000009c       __imp_memcpy               0001709c     corelib1:COREDLL.dll
 0002:000000a0       __imp__wcsicmp             000170a0     corelib1:COREDLL.dll
 0002:000000a4       __imp_toupper              000170a4     corelib1:COREDLL.dll
 0002:000000a8       __imp__isctype             000170a8     corelib1:COREDLL.dll
 0002:000000ac       __imp_wcscpy               000170ac     corelib1:COREDLL.dll
 0002:000000b0       __imp_wcschr               000170b0     corelib1:COREDLL.dll
 0002:000000b4       __imp_wcsrchr              000170b4     corelib1:COREDLL.dll
 0002:000000b8       __imp_wcsncmp              000170b8     corelib1:COREDLL.dll
 0002:000000bc       __imp_memmove              000170bc     corelib1:COREDLL.dll
 0002:000000c0       __imp_memset               000170c0     corelib1:COREDLL.dll
 0002:000000c4       __imp___report_gsfailure   000170c4     corelib1:COREDLL.dll
 0002:000000c8       __imp_EventModify          000170c8     coredll:COREDLL.dll
 0002:000000cc       __imp_CloseHandle          000170cc     coredll:COREDLL.dll
 0002:000000d0       __imp_GetLastError         000170d0     coredll:COREDLL.dll
 0002:000000d4       __imp_CreateMutexW         000170d4     coredll:COREDLL.dll
 0002:000000d8       __imp_InterlockedIncrement 000170d8     coredll:COREDLL.dll
 0002:000000dc       __imp_IsWindowVisible      000170dc     coredll:COREDLL.dll
 0002:000000e0       __imp_GetClientRect        000170e0     coredll:COREDLL.dll
 0002:000000e4       __imp_MessageBoxW          000170e4     coredll:COREDLL.dll
 0002:000000e8       __imp_PostMessageW         000170e8     coredll:COREDLL.dll
 0002:000000ec       __imp_SetWindowTextW       000170ec     coredll:COREDLL.dll
 0002:000000f0       __imp_SetWindowPos         000170f0     coredll:COREDLL.dll
 0002:000000f4       __imp_SendMessageW         000170f4     coredll:COREDLL.dll
 0002:000000f8       __imp_GetWindowRect        000170f8     coredll:COREDLL.dll
 0002:000000fc       __imp_TranslateAcceleratorW 000170fc     coredll:COREDLL.dll
 0002:00000100       __imp_SystemParametersInfoW 00017100     coredll:COREDLL.dll
 0002:00000104       __imp_SetWindowLongW       00017104     coredll:COREDLL.dll
 0002:00000108       __imp_GetWindowLongW       00017108     coredll:COREDLL.dll
 0002:0000010c       __imp_DestroyWindow        0001710c     coredll:COREDLL.dll
 0002:00000110       __imp_ShellExecuteEx       00017110     coredll:COREDLL.dll
 0002:00000114       __imp_DefWindowProcW       00017114     coredll:COREDLL.dll
 0002:00000118       __imp_SetForegroundWindow  00017118     coredll:COREDLL.dll
 0002:0000011c       __imp_StringCchCopyW       0001711c     coredll:COREDLL.dll
 0002:00000120       __imp_PostQuitMessage      00017120     coredll:COREDLL.dll
 0002:00000124       __imp_InterlockedDecrement 00017124     coredll:COREDLL.dll
 0002:00000128       __imp_RegisterClassW       00017128     coredll:COREDLL.dll
 0002:0000012c       __imp_GetSysColorBrush     0001712c     coredll:COREDLL.dll
 0002:00000130       __imp_LoadCursorW          00017130     coredll:COREDLL.dll
 0002:00000134       __imp_LoadAcceleratorsW    00017134     coredll:COREDLL.dll
 0002:00000138       __imp_SetFocus             00017138     coredll:COREDLL.dll
 0002:0000013c       __imp_CreateWindowExW      0001713c     coredll:COREDLL.dll
 0002:00000140       __imp_LoadStringW          00017140     coredll:COREDLL.dll
 0002:00000144       __imp_DispatchMessageW     00017144     coredll:COREDLL.dll
 0002:00000148       __imp_TranslateMessage     00017148     coredll:COREDLL.dll
 0002:0000014c       __imp_FindFirstFileW       0001714c     coredll:COREDLL.dll
 0002:00000150       \177COREDLL_NULL_THUNK_DATA 00017150     corelib1:COREDLL.dll
 0002:00000154       __imp_ConvertINetUnicodeToMultiByte 00017154     mlang:MLANG.dll
 0002:00000158       \177MLANG_NULL_THUNK_DATA  00017158     mlang:MLANG.dll
 0002:0000015c       __imp_SysAllocStringLen    0001715c     oleaut32:OLEAUT32.dll
 0002:00000160       __imp_SysAllocString       00017160     oleaut32:OLEAUT32.dll
 0002:00000164       __imp_SysFreeString        00017164     oleaut32:OLEAUT32.dll
 0002:00000168       \177OLEAUT32_NULL_THUNK_DATA 00017168     oleaut32:OLEAUT32.dll
 0002:0000016c       __imp_InitCommonControlsEx 0001716c     commctrl:commctrl.dll
 0002:00000170       __imp_CommandBar_Create    00017170     commctrl:commctrl.dll
 0002:00000174       __imp_CommandBar_Height    00017174     commctrl:commctrl.dll
 0002:00000178       __imp_CommandBar_AddAdornments 00017178     commctrl:commctrl.dll
 0002:0000017c       __imp_CommandBar_AddBitmap 0001717c     commctrl:commctrl.dll
 0002:00000180       \177commctrl_NULL_THUNK_DATA 00017180     commctrl:commctrl.dll
 0002:00000184       __imp_CoUninitialize       00017184     ole32:ole32.dll
 0002:00000188       __imp_CoInitializeEx       00017188     ole32:ole32.dll
 0002:0000018c       __imp_CoCreateInstance     0001718c     ole32:ole32.dll
 0002:00000190       \177ole32_NULL_THUNK_DATA  00017190     ole32:ole32.dll
 0002:00000194       __imp_UrlGetPartW          00017194     shlwapi:shlwapi.dll
 0002:00000198       __imp_UrlCanonicalizeW     00017198     shlwapi:shlwapi.dll
 0002:0000019c       \177shlwapi_NULL_THUNK_DATA 0001719c     shlwapi:shlwapi.dll
 0002:000001a0       __imp_CoInternetGetSession 000171a0     urlmon:urlmon.dll
 0002:000001a4       __imp_CoInternetParseUrl   000171a4     urlmon:urlmon.dll
 0002:000001a8       __imp_ReleaseBindInfo      000171a8     urlmon:urlmon.dll
 0002:000001ac       __imp_CoInternetCombineUrl 000171ac     urlmon:urlmon.dll
 0002:000001b0       \177urlmon_NULL_THUNK_DATA 000171b0     urlmon:urlmon.dll
 0002:000001b8       __security_cookie          000171b8     corelib0:seccinit.obj
 0002:000001bc       __security_cookie_complement 000171bc     corelib0:seccinit.obj
 0002:000001c0       ?g_dwMainWindowStackSize@@3KA 000171c0     htmlhelp:htmlhelp.obj
 0002:000001c4       ?s_szContents@@3PBGB       000171c4     htmlhelp:htmlhelp.obj
 0002:000001c8       ?csz_HTMLHELP@@3PBGB       000171c8     htmlhelp:htmlhelp.obj
 0002:00000284       ?s_szFilePrefix@@3PBGB     00017284     htmlhelp:helpfile.obj
 0002:00000288       ?s_szNamePrefix@@3PBDB     00017288     htmlhelp:helpfile.obj
 0002:0000028c       ?s_szPegHelpMarker@@3PBDB  0001728c     htmlhelp:helpfile.obj
 0002:00000290       _exitflag                  00017290     corelib0:cexit.obj
 0002:00000294       ?g_cfhelpProtocol@@3PAVCHelpProtocolCF@@A 00017294     htmlhelp:htmlhelp.obj
 0002:00000298       ?glThreadCount@@3JA        00017298     htmlhelp:htmlhelp.obj
 0002:0000029c       ?ghWndAddressEdit@@3PAUHWND__@@A 0001729c     htmlhelp:htmlhelp.obj
 0002:000002a0       ?ghExitEvent@@3PAXA        000172a0     htmlhelp:htmlhelp.obj
 0002:000002a4       ?g_hInstance@@3PAUHINSTANCE__@@A 000172a4     htmlhelp:htmlhelp.obj
 0002:000002a8       ?g_dwDefaultCP@@3KA        000172a8     htmlhelp:helpfile.obj
 0002:000002b4       __onexitend                000172b4     <common>
 0002:000002b8       __onexitbegin              000172b8     <common>
 0002:000002bc       g_pcsExit                  000172bc     <common>

 entry point at        0001:00000780

 Static symbols

 0001:00000700       WinMainCRTStartupHelper    00011700 f   corelib0:pegwmain.obj
 0001:000007b0       doexit                     000117b0 f   corelib0:cexit.obj
