 k.coredll

 Timestamp is 618b1528 (Tue Nov 09 17:41:12 2021)

 Preferred load address is 10000000

 Start         Length     Name                   Class
 0001:00000000 00000004H .CRT$XCA                CODE
 0001:00000004 00000010H .CRT$XCU                CODE
 0001:00000014 00000004H .CRT$XCZ                CODE
 0001:00000018 00000004H .CRT$XIA                CODE
 0001:0000001c 00000004H .CRT$XIZ                CODE
 0001:00000020 00000004H .CRT$XPA                CODE
 0001:00000024 00000004H .CRT$XPZ                CODE
 0001:00000028 00000004H .CRT$XTA                CODE
 0001:0000002c 00000004H .CRT$XTZ                CODE
 0001:00000030 00000000H .FPCRT                  CODE
 0001:00000030 00007340H .rdata                  CODE
 0001:00007370 00000026H .rdata$debug            CODE
 0001:00007398 00000460H .rdata$r                CODE
 0001:00007800 00075eb4H .text                   CODE
 0001:0007d6b4 00000050H .text$yc                CODE
 0001:0007d704 00000060H .text$yd                CODE
 0001:0007d768 000014b4H .xdata                  CODE
 0001:0007ec1c 000001b0H .xdata$x                CODE
 0001:0007edd0 0000f6bcH .edata                  CODE
 0002:00000000 00000008H .CCRT$A                 DATA
 0002:00000008 00000000H .CCRT$M                 DATA
 0002:00000008 00000008H .CCRT$Z                 DATA
 0002:00000010 000003bcH .data                   DATA
 0002:000003e0 00000f04H .bss                    DATA
 0003:00000000 00006c60H .pdata                  DATA

  Address         Publics by Value              Rva+Base       Lib:Object

 0000:00000000       ___safe_se_handler_count   00000000     <absolute>
 0000:00000000       ___safe_se_handler_table   00000000     <absolute>
 0001:00000000       __xc_a                     10001000     corelib0:crt0init.obj
 0001:00000014       __xc_z                     10001014     corelib0:crt0init.obj
 0001:00000018       __xi_a                     10001018     corelib0:crt0init.obj
 0001:0000001c       __xi_z                     1000101c     corelib0:crt0init.obj
 0001:00000020       __xp_a                     10001020     corelib0:crt0init.obj
 0001:00000024       __xp_z                     10001024     corelib0:crt0init.obj
 0001:00000028       __xt_a                     10001028     corelib0:crt0init.obj
 0001:0000002c       __xt_z                     1000102c     corelib0:crt0init.obj
 0001:00000050       ??_7exception@std@@6B@     10001050     k.coredll_ALL:stdexcpt.obj
 0001:00000058       ??_C@_0BC@EOODALEL@Unknown?5exception?$AA@ 10001058     k.coredll_ALL:stdexcpt.obj
 0001:00000070       ??_7type_info@@6B@         10001070     k.coredll_ALL:typinfo.obj
 0001:000000d8       ??_C@_1BI@NHMPNLJI@?$AAL?$AAa?$AAy?$AAo?$AAu?$AAt?$AA?5?$AAT?$AAe?$AAx?$AAt?$AA?$AA@ 100010d8     k.coredll_ALL:Imm.obj
 0001:000000f0       ??_C@_1BC@NFOAKJDK@?$AAI?$AAm?$AAe?$AA?5?$AAF?$AAi?$AAl?$AAe?$AA?$AA@ 100010f0     k.coredll_ALL:Imm.obj
 0001:00000108       ??_C@_1FC@LMFMOIEA@?$AAS?$AAy?$AAs?$AAt?$AAe?$AAm?$AA?2?$AAC?$AAu?$AAr?$AAr?$AAe?$AAn?$AAt?$AAC?$AAo?$AAn?$AAt?$AAr?$AAo?$AAl?$AAS?$AAe?$AAt?$AA?2?$AAC?$AAo?$AAn?$AAt?$AAr?$AAo?$AAl@ 10001108     k.coredll_ALL:Imm.obj
 0001:0000015c       ??_C@_1DA@FKJDDCGN@?$AAK?$AAe?$AAy?$AAb?$AAo?$AAa?$AAr?$AAd?$AA?5?$AAL?$AAa?$AAy?$AAo?$AAu?$AAt?$AA?2?$AAP?$AAr?$AAe?$AAl?$AAo?$AAa?$AAd?$AA?$AA@ 1000115c     k.coredll_ALL:Imm.obj
 0001:0000018c       ??_C@_1CC@LFININNE@?$AAI?$AAM?$AAM?$AAI?$AAn?$AAi?$AAt?$AA_?$AAS?$AAE?$AAC?$AAC?$AAh?$AAe?$AAc?$AAk?$AA?$AA@ 1000118c     k.coredll_ALL:Imm.obj
 0001:000001b0       ??_C@_1CO@LPFONOMN@?$AAI?$AAM?$AAM?$AAI?$AAn?$AAi?$AAt?$AA_?$AAS?$AAI?$AAP?$AAS?$AAe?$AAt?$AAA?$AAc?$AAt?$AAi?$AAv?$AAa?$AAt?$AAe?$AA?$AA@ 100011b0     k.coredll_ALL:Imm.obj
 0001:000001e0       ??_C@_1CO@EMOKJBCP@?$AAI?$AAM?$AAM?$AAI?$AAn?$AAi?$AAt?$AA_?$AAS?$AAe?$AAn?$AAd?$AAI?$AAM?$AAE?$AAC?$AAo?$AAn?$AAt?$AAe?$AAx?$AAt?$AA?$AA@ 100011e0     k.coredll_ALL:Imm.obj
 0001:00000210       ??_C@_1CA@NBPGBPD@?$AAI?$AAM?$AAM?$AAI?$AAn?$AAi?$AAt?$AA_?$AAR?$AAe?$AAa?$AAd?$AAR?$AAe?$AAg?$AA?$AA@ 10001210     k.coredll_ALL:Imm.obj
 0001:00000230       ??_C@_1CE@FFOOPNM@?$AAI?$AAM?$AAM?$AAI?$AAn?$AAi?$AAt?$AA_?$AAI?$AAm?$AAe?$AAS?$AAe?$AAl?$AAe?$AAc?$AAt?$AA?$AA@ 10001230     k.coredll_ALL:Imm.obj
 0001:00000254       ??_C@_1DI@NPCAIBEE@?$AAI?$AAM?$AAM?$AAI?$AAn?$AAi?$AAt?$AA_?$AAD?$AAe?$AAf?$AAa?$AAu?$AAl?$AAt?$AAI?$AAm?$AAe?$AAW?$AAn?$AAd?$AAC?$AAr?$AAe?$AAa?$AAt?$AAe?$AA?$AA@ 10001254     k.coredll_ALL:Imm.obj
 0001:0000028c       ??_C@_1CA@NJJILOMO@?$AAI?$AAM?$AAM?$AAI?$AAn?$AAi?$AAt?$AA_?$AAL?$AAo?$AAa?$AAd?$AAI?$AAM?$AAE?$AA?$AA@ 1000128c     k.coredll_ALL:Imm.obj
 0001:000002ac       ??_C@_1CE@EGOMHFAM@?$AAI?$AAm?$AAe?$AAS?$AAw?$AAi?$AAt?$AAc?$AAh?$AA_?$AAL?$AAo?$AAa?$AAd?$AAN?$AAe?$AAw?$AA?$AA@ 100012ac     k.coredll_ALL:Imm.obj
 0001:000002d0       ??_C@_1CI@MLMAHHLF@?$AAI?$AAm?$AAe?$AAS?$AAw?$AAi?$AAt?$AAc?$AAh?$AA_?$AAU?$AAn?$AAL?$AAo?$AAa?$AAd?$AAO?$AAl?$AAd?$AA?$AA@ 100012d0     k.coredll_ALL:Imm.obj
 0001:000002f8       ??_C@_1DC@EGJCGLFC@?$AAI?$AAm?$AAe?$AAS?$AAw?$AAi?$AAt?$AAc?$AAh?$AA_?$AAA?$AAc?$AAt?$AAi?$AAv?$AAa?$AAt?$AAe?$AAL?$AAa?$AAy?$AAo?$AAu?$AAt?$AA?$AA@ 100012f8     k.coredll_ALL:Imm.obj
 0001:0000032c       ??_C@_1DC@ICPKABJO@?$AAI?$AAM?$AAM?$AAI?$AAn?$AAi?$AAt?$AA_?$AAS?$AAe?$AAt?$AAA?$AAc?$AAt?$AAi?$AAv?$AAe?$AAC?$AAo?$AAn?$AAt?$AAe?$AAx?$AAt?$AA?$AA@ 1000132c     k.coredll_ALL:Imm.obj
 0001:00000394       ??_7ImeInfoEntry@@6B@      10001394     k.coredll_ALL:Imm.obj
 0001:00000398       ??_C@_1BO@GPADPFKA@?$AA?2?$AAm?$AAd?$AAd?$AAc?$AAe?$AAp?$AAe?$AAr?$AAf?$AA?4?$AAl?$AAo?$AAg?$AA?$AA@ 10001398     k.coredll_ALL:Imm.obj
 0001:000003b8       ??_C@_1BA@MBHGFBLI@?$AAI?$AAM?$AAM?$AAP?$AAe?$AAr?$AAf?$AA?$AA@ 100013b8     k.coredll_ALL:Imm.obj
 0001:000003c8       ??_C@_15KNBIKKIN@?$AA?$CF?$AAd?$AA?$AA@ 100013c8     k.coredll_ALL:Imm.obj
 0001:000003d0       ??_C@_1BG@DIEMFBIE@?$AA?2?$AAk?$AAe?$AAy?$AAb?$AAo?$AAa?$AAr?$AAd?$AA?2?$AA?$AA@ 100013d0     k.coredll_ALL:Imm.obj
 0001:000003e8       ??_C@_1BK@DDJFAFJP@?$AA?$CF?$AAs?$AA?$CF?$AAs?$AA?$CF?$AA0?$AA4?$AAx?$AA?$CF?$AAs?$AA?$CF?$AAs?$AA?$AA@ 100013e8     k.coredll_ALL:Imm.obj
 0001:00000404       ??_C@_1M@NEKJOFMI@?$AAl?$AAa?$AAn?$AAg?$AA_?$AA?$AA@ 10001404     k.coredll_ALL:Imm.obj
 0001:00000410       ??_C@_1BM@ECGIMKOM@?$AAS?$AAy?$AAs?$AAt?$AAe?$AAm?$AA?2?$AAI?$AAn?$AAp?$AAu?$AAt?$AA?2?$AA?$AA@ 10001410     k.coredll_ALL:Imm.obj
 0001:0000042c       ??_C@_1BC@NADMPNBO@?$AA?$CF?$AAs?$AA?$CF?$AAs?$AA?$CF?$AA0?$AA4?$AAx?$AA?$AA@ 1000142c     k.coredll_ALL:Imm.obj
 0001:00000440       ??_C@_1GI@LBPPMOKF@?$AA?$HL?$AA?$CF?$AA0?$AA8?$AAl?$AAX?$AA?9?$AA?$CF?$AA0?$AA4?$AAX?$AA?9?$AA?$CF?$AA0?$AA4?$AAX?$AA?9?$AA?$CF?$AA0?$AA2?$AAX?$AA?$CF?$AA0?$AA2?$AAX?$AA?9?$AA?$CF?$AA0?$AA2?$AAX?$AA?$CF?$AA0@ 10001440     k.coredll_ALL:Imm.obj
 0001:000004c4       ??_C@_1BI@FMEEAPKL@?$AAD?$AAe?$AAf?$AAa?$AAu?$AAl?$AAt?$AA?5?$AAI?$AAm?$AAe?$AA?$AA@ 100014c4     k.coredll_ALL:Imm.obj
 0001:000004dc       ??_C@_17LDADEION@?$AAI?$AAM?$AAE?$AA?$AA@ 100014dc     k.coredll_ALL:Imm.obj
 0001:000004e4       ?s_sigValid@CWindow@@0IB   100014e4     k.coredll_ALL:twinuser.obj
 0001:000004e8       ?nothrow@std@@3Unothrow_t@1@B 100014e8     k.coredll_ALL:nomemory.obj
 0001:000004f0       ??_7bad_alloc@std@@6B@     100014f0     k.coredll_ALL:nomemory.obj
 0001:000004f8       ??_C@_0P@GHFPNOJB@bad?5allocation?$AA@ 100014f8     k.coredll_ALL:nomemory.obj
 0001:00000507       ?_C@?1??_Nullstr@?$basic_string@DU?$char_traits@D@std@@V?$allocator@D@2@@std@@CAPBDXZ@4DB 10001507     k.coredll_ALL:string.obj
 0001:000005a0       ??_7logic_error@std@@6B@   100015a0     k.coredll_ALL:string.obj
 0001:000005b0       ??_7out_of_range@std@@6B@  100015b0     k.coredll_ALL:string.obj
 0001:000005f0       ??_C@_0BI@CFPLBAOH@invalid?5string?5position?$AA@ 100015f0     k.coredll_ALL:string.obj
 0001:0000063c       ??_C@_00CNPNBAHC@?$AA@     1000163c     k.coredll_ALL:string.obj
 0001:00000678       ??_7length_error@std@@6B@  10001678     k.coredll_ALL:string.obj
 0001:000006b8       ??_C@_0BA@JFNIOLAK@string?5too?5long?$AA@ 100016b8     k.coredll_ALL:string.obj
 0001:000006c8       ??_C@_1BG@HOCOHIJB@?$AAC?$AAl?$AAi?$AAe?$AAn?$AAt?$AAI?$AAn?$AAf?$AAo?$AA?$AA@ 100016c8     k.coredll_ALL:tdevice.obj
 0001:000006e0       ??_C@_17OGBPPHLA@?$AAH?$AAn?$AAd?$AA?$AA@ 100016e0     k.coredll_ALL:tdevice.obj
 0001:000006e8       ??_C@_1BO@JJBEOHCE@?$AAD?$AAr?$AAi?$AAv?$AAe?$AAr?$AAs?$AA?2?$AAA?$AAc?$AAt?$AAi?$AAv?$AAe?$AA?$AA@ 100016e8     k.coredll_ALL:tdevice.obj
 0001:00000708       ??_C@_1BA@OILHPODD@?$AA?$CF?$AAs?$AA?2?$AA?$CF?$AA0?$AA2?$AAu?$AA?$AA@ 10001708     k.coredll_ALL:tdevice.obj
 0001:00000718       ??_C@_1BC@MNBDMDLK@?$AA?$CF?$AAs?$AA?2?$AA?$CF?$AAs?$AA?$CL?$AA?$CF?$AAs?$AA?$AA@ 10001718     k.coredll_ALL:tdevice.obj
 0001:0000072c       ??_C@_1BG@IEKMLBMF@?$AA?$CF?$AAs?$AA?2?$AA?$CF?$AAs?$AA?$CL?$AA?$CF?$AA0?$AA8?$AAx?$AA?$AA@ 1000172c     k.coredll_ALL:tdevice.obj
 0001:00000748       ??_C@_1HE@PBGCMBIM@?$AA?$CF?$AAs?$AA?2?$AA?$CF?$AAs?$AA?$CL?$AA?$HL?$AA?$CF?$AA0?$AA8?$AAl?$AAX?$AA?9?$AA?$CF?$AA0?$AA4?$AAX?$AA?9?$AA?$CF?$AA0?$AA4?$AAX?$AA?9?$AA?$CF?$AA0?$AA2?$AAX?$AA?$CF?$AA0?$AA2?$AAX?$AA?9@ 10001748     k.coredll_ALL:tdevice.obj
 0001:000007bc       ??_C@_1BC@EKAHPNMF@?$AA$?$AAd?$AAe?$AAv?$AAi?$AAc?$AAe?$AA?2?$AA?$AA@ 100017bc     k.coredll_ALL:tdevice.obj
 0001:000007d0       ??_C@_1BE@JEONLPHA@?$AAb?$AAy?$AAB?$AAu?$AAs?$AAN?$AAa?$AAm?$AAe?$AA?$AA@ 100017d0     k.coredll_ALL:tdevice.obj
 0001:000007e4       ??_C@_1BK@CPLNPJGD@?$AAb?$AAy?$AAD?$AAe?$AAv?$AAi?$AAc?$AAe?$AAN?$AAa?$AAm?$AAe?$AA?$AA@ 100017e4     k.coredll_ALL:tdevice.obj
 0001:00000800       ??_C@_1BK@CNAOAKKI@?$AAb?$AAy?$AAL?$AAe?$AAg?$AAa?$AAc?$AAy?$AAN?$AAa?$AAm?$AAe?$AA?$AA@ 10001800     k.coredll_ALL:tdevice.obj
 0001:0000081c       ??_C@_1CC@MEPOBJNM@?$AAb?$AAy?$AAI?$AAn?$AAt?$AAe?$AAr?$AAf?$AAa?$AAc?$AAe?$AAC?$AAl?$AAa?$AAs?$AAs?$AA?$AA@ 1000181c     k.coredll_ALL:tdevice.obj
 0001:00000840       ??_C@_1BC@FAAOGHMH@?$AAb?$AAy?$AAP?$AAa?$AAr?$AAe?$AAn?$AAt?$AA?$AA@ 10001840     k.coredll_ALL:tdevice.obj
 0001:00000858       ??_C@_1GC@MIJCAPDC@?$AA?$CF?$AA0?$AA8?$AAx?$AA?9?$AA?$CF?$AA0?$AA4?$AAx?$AA?9?$AA?$CF?$AA0?$AA4?$AAx?$AA?9?$AA?$CF?$AA0?$AA2?$AAx?$AA?$CF?$AA0?$AA2?$AAx?$AA?9?$AA?$CF?$AA0?$AA2?$AAx?$AA?$CF?$AA0?$AA2?$AAx@ 10001858     k.coredll_ALL:tservices.obj
 0001:000008c0       ??_C@_1GG@HENFDGCJ@?$AA?$HL?$AA?$CF?$AA0?$AA8?$AAx?$AA?9?$AA?$CF?$AA0?$AA4?$AAx?$AA?9?$AA?$CF?$AA0?$AA4?$AAx?$AA?9?$AA?$CF?$AA0?$AA2?$AAx?$AA?$CF?$AA0?$AA2?$AAx?$AA?9?$AA?$CF?$AA0?$AA2?$AAx?$AA?$CF?$AA0?$AA2@ 100018c0     k.coredll_ALL:tservices.obj
 0001:00000928       ??_C@_1EO@PBHPLCEK@?$AA?$HL?$AA6?$AAD?$AA4?$AA3?$AA1?$AA7?$AAA?$AA0?$AA?9?$AAB?$AA5?$AAA?$AA2?$AA?9?$AA4?$AA6?$AA2?$AAc?$AA?9?$AA9?$AAC?$AA5?$AA9?$AA?9?$AA1?$AAE?$AA7?$AA0?$AAD?$AA2?$AA6@ 10001928     k.coredll_ALL:tservices.obj
 0001:00000978       ??_C@_1BI@PNGKNFOO@?$AAs?$AAe?$AAr?$AAv?$AAi?$AAc?$AAe?$AAs?$AA?2?$AA?$CF?$AAs?$AA?$AA@ 10001978     k.coredll_ALL:tservices.obj
 0001:00000990       ??_C@_1BI@BGGFPMGI@?$AA?2?$AAR?$AAe?$AAl?$AAe?$AAa?$AAs?$AAe?$AA?2?$AA?$CF?$AAs?$AA?$AA@ 10001990     k.coredll_ALL:tkfuncs.obj
 0001:000009a8       ??_C@_13FPGAJAPJ@?$AA?2?$AA?$AA@ 100019a8     k.coredll_ALL:tkfuncs.obj
 0001:000009ac       ??_C@_1BA@LKILKMDA@?$AAu?$AAi?$AAp?$AAr?$AAo?$AAx?$AAy?$AA?$AA@ 100019ac     k.coredll_ALL:tkfuncs.obj
 0001:000009bc       ??_C@_1M@EHMLAHON@?$AAU?$AAI?$AAP?$AA1?$AA?3?$AA?$AA@ 100019bc     k.coredll_ALL:tkfuncs.obj
 0001:000009c8       ??_C@_1CK@KHLEJPPJ@?$AA?$CB?$AA?$CB?$AA?$CB?$AAC?$AAa?$AAl?$AAl?$AAi?$AAn?$AAg?$AA?5?$AA?$CF?$AAs?$AA?$CB?$AA?$CB?$AA?$CB?$AA?$AN?$AA?6?$AA?$AN?$AA?6?$AA?$AA@ 100019c8     k.coredll_ALL:tkfuncs.obj
 0001:000009f8       ??_C@_1KE@EOGFMOLI@?$AAI?$AAf?$AA?5?$AAt?$AAh?$AAe?$AA?5?$AAp?$AAo?$AAi?$AAn?$AAt?$AAe?$AAr?$AA?5?$AAy?$AAo?$AAu?$AA?8?$AAr?$AAe?$AA?5?$AAm?$AAa?$AAp?$AAp?$AAi?$AAn?$AAg?$AA?5?$AAi?$AAs@ 100019f8     k.coredll_ALL:tkfuncs.obj
 0001:00000aa0       ??_C@_1KG@NAGGFHMD@?$AAa?$AAc?$AAc?$AAe?$AAs?$AAs?$AA?5?$AAi?$AAt?$AA?5?$AAa?$AAs?$AAy?$AAn?$AAc?$AAh?$AAr?$AAo?$AAn?$AAo?$AAu?$AAs?$AAl?$AAy?$AA?5?$AA?$CI?$AAe?$AA?4?$AAg?$AA?4?$AA?5?$AAa@ 10001aa0     k.coredll_ALL:tkfuncs.obj
 0001:00000b48       ??_C@_1KG@DMCNMICL@?$AAi?$AAs?$AA?5?$AAn?$AAo?$AA?5?$AAn?$AAe?$AAe?$AAd?$AA?5?$AAt?$AAo?$AA?5?$AAc?$AAa?$AAl?$AAl?$AA?5?$AAM?$AAa?$AAp?$AAC?$AAa?$AAl?$AAl?$AAe?$AAr?$AAP?$AAt?$AAr?$AA?4@ 10001b48     k.coredll_ALL:tkfuncs.obj
 0001:00000bf0       ??_C@_1KI@EKAHGHCJ@?$AAf?$AAo?$AAr?$AA?5?$AAy?$AAo?$AAu?$AA?4?$AA?5?$AAA?$AAs?$AAs?$AAu?$AAm?$AAi?$AAn?$AAg?$AA?5?$AAy?$AAo?$AAu?$AA?8?$AAr?$AAe?$AA?5?$AAg?$AAi?$AAv?$AAi?$AAn?$AAg?$AA?5@ 10001bf0     k.coredll_ALL:tkfuncs.obj
 0001:00000c98       ??_C@_1JK@CKMIJBF@?$AAI?$AAn?$AA?5?$AAc?$AAa?$AAs?$AAe?$AA?5?$AAy?$AAo?$AAu?$AA?5?$AAn?$AAe?$AAe?$AAd?$AA?5?$AAt?$AAo?$AA?5?$AAa?$AAc?$AAc?$AAe?$AAs?$AAs?$AA?5?$AAt?$AAh?$AAe?$AA?5?$AAp@ 10001c98     k.coredll_ALL:tkfuncs.obj
 0001:00000d38       ??_C@_1EI@BFCLFBIK@?$AA?5?$AA?5?$AA?5?$AA?5?$AA?$CI?$AA1?$AA?$CJ?$AA?5?$AAC?$AAo?$AAp?$AAy?$AA?9?$AAi?$AAn?$AA?1?$AAC?$AAo?$AAp?$AAy?$AA?9?$AAo?$AAu?$AAt?$AA?5?$AAy?$AAo?$AAu?$AAr?$AAs?$AAe?$AAl@ 10001d38     k.coredll_ALL:tkfuncs.obj
 0001:00000d80       ??_C@_1EE@PIDHIBPL@?$AA?5?$AA?5?$AA?5?$AA?5?$AA?$CI?$AA2?$AA?$CJ?$AA?5?$AAV?$AAi?$AAr?$AAt?$AAu?$AAa?$AAl?$AAC?$AAo?$AAp?$AAy?$AA?5?$AAt?$AAh?$AAe?$AA?5?$AAp?$AAo?$AAi?$AAn?$AAt?$AAe?$AAr?$AA?$AN@ 10001d80     k.coredll_ALL:tkfuncs.obj
 0001:00000dc8       ??_C@_1KO@KGKBNIMD@?$AA?5?$AA?5?$AA?5?$AA?5?$AA?$CI?$AA3?$AA?$CJ?$AA?5?$AAS?$AAa?$AAv?$AAe?$AA?5?$AAc?$AAu?$AAr?$AAr?$AAe?$AAn?$AAt?$AA?5?$AAp?$AAr?$AAo?$AAc?$AAe?$AAs?$AAs?$AA?5?$AAi?$AAd?$AA?0@ 10001dc8     k.coredll_ALL:tkfuncs.obj
 0001:00000e78       ??_C@_1KO@NEFEFKMM@?$AA?5?$AA?5?$AA?5?$AA?5?$AA?5?$AA?5?$AA?5?$AA?5?$AAa?$AAn?$AAd?$AA?5?$AAu?$AAs?$AAe?$AA?5?$AA?8?$AAS?$AAw?$AAi?$AAt?$AAc?$AAh?$AAT?$AAo?$AAP?$AAr?$AAo?$AAc?$AAe?$AAs?$AAs@ 10001e78     k.coredll_ALL:tkfuncs.obj
 0001:00000f28       ??_C@_1BK@FCANOICL@?$AAM?$AAa?$AAp?$AAC?$AAa?$AAl?$AAl?$AAe?$AAr?$AAP?$AAt?$AAr?$AA?$AA@ 10001f28     k.coredll_ALL:tkfuncs.obj
 0001:00000f44       ??_C@_1CK@DAJOHPKP@?$AAM?$AAa?$AAp?$AAP?$AAt?$AAr?$AAT?$AAo?$AAP?$AAr?$AAo?$AAc?$AAW?$AAi?$AAt?$AAh?$AAS?$AAi?$AAz?$AAe?$AA?$AA@ 10001f44     k.coredll_ALL:tkfuncs.obj
 0001:00000fd8       ??_C@_1DA@IBFGCKKH@?$AAS?$AAY?$AAS?$AAT?$AAE?$AAM?$AA?1?$AAB?$AAa?$AAt?$AAt?$AAe?$AAr?$AAy?$AAA?$AAP?$AAI?$AAs?$AAR?$AAe?$AAa?$AAd?$AAy?$AA?$AA@ 10001fd8     k.coredll_ALL:tbattery.obj
 0001:00001008       ??_C@_1O@GDMEKBD@?$AAN?$AAo?$AAt?$AAi?$AAf?$AAy?$AA?$AA@ 10002008     k.coredll_ALL:tnotify.obj
 0001:00001018       ??_C@_1M@BPFJNNBM@?$AAN?$AAF?$AAY?$AA0?$AA?3?$AA?$AA@ 10002018     k.coredll_ALL:tnotify.obj
 0001:00001024       ??_C@_1DG@BODLIKMO@?$AAS?$AAY?$AAS?$AAT?$AAE?$AAM?$AA?1?$AAC?$AAO?$AAR?$AAE?$AAD?$AAL?$AAL?$AA_?$AAR?$AAE?$AAA?$AAD?$AAY?$AA_?$AAE?$AAV?$AAE?$AAN?$AAT?$AA?$AA@ 10002024     k.coredll_ALL:tnotify.obj
 0001:00001170       ??_C@_1GI@NIDKIJEA@?$AAl?$AAo?$AAo?$AAp?$AA?5?$AAi?$AAn?$AA?5?$AAf?$AAr?$AAe?$AAe?$AA?5?$AAb?$AAl?$AAk?$AAs?$AA?5?$AA?$FL?$AA?$CF?$AAd?$AA?$FN?$AA?$FL?$AA?$CF?$AAd?$AA?$FN?$AA?5?$AAi?$AAn?$AA?5?$AAr?$AAg@ 10002170     k.coredll_ALL:rheap.obj
 0001:000011d8       ??_C@_1FG@PBIAOIB@?$AAf?$AAr?$AAe?$AAe?$AA?5?$AAb?$AAl?$AAk?$AA?5?$AA?$FL?$AA?$CF?$AAd?$AA?$FN?$AA?$FL?$AA?$CF?$AAd?$AA?$FN?$AA?5?$AAi?$AAn?$AA?5?$AAr?$AAg?$AAn?$AA?5?$AA0?$AAx?$AA?$CF?$AA8?$AA?4?$AA8?$AAl@ 100021d8     k.coredll_ALL:rheap.obj
 0001:00001230       ??_C@_1FI@OFIHELH@?$AAa?$AAl?$AAl?$AAo?$AAc?$AA?5?$AAb?$AAl?$AAk?$AA?5?$AA?$FL?$AA?$CF?$AAd?$AA?$FN?$AA?$FL?$AA?$CF?$AAd?$AA?$FN?$AA?5?$AAi?$AAn?$AA?5?$AAr?$AAg?$AAn?$AA?5?$AA0?$AAx?$AA?$CF?$AA8?$AA?4?$AA8@ 10002230     k.coredll_ALL:rheap.obj
 0001:00001288       cszTimeZones               10002288     k.coredll_ALL:time.obj
 0001:000012a0       cszID                      100022a0     k.coredll_ALL:time.obj
 0001:000012a8       szDefaultTZID              100022a8     k.coredll_ALL:time.obj
 0001:000012c0       cszTZI                     100022c0     k.coredll_ALL:time.obj
 0001:000012c8       cszStd                     100022c8     k.coredll_ALL:time.obj
 0001:000012d0       cszDlt                     100022d0     k.coredll_ALL:time.obj
 0001:000012d8       cszDisplay                 100022d8     k.coredll_ALL:time.obj
 0001:000012e8       cszDynDST                  100022e8     k.coredll_ALL:time.obj
 0001:00001300       cszFirstEntry              10002300     k.coredll_ALL:time.obj
 0001:00001318       cszLastEntry               10002318     k.coredll_ALL:time.obj
 0001:0000132c       cszSystemTimezone          1000232c     k.coredll_ALL:time.obj
 0001:00001354       cszSystemTime              10002354     k.coredll_ALL:time.obj
 0001:00001360       cszTZID                    10002360     k.coredll_ALL:time.obj
 0001:0000136c       ??_C@_1M@KPOMGKAA@?$AAD?$AAS?$AAT?$AA0?$AA?3?$AA?$AA@ 1000236c     k.coredll_ALL:time.obj
 0001:00001378       ??_C@_1CM@CIOKOPNJ@?$AAP?$AAa?$AAc?$AAi?$AAf?$AAi?$AAc?$AA?5?$AAS?$AAt?$AAa?$AAn?$AAd?$AAa?$AAr?$AAd?$AA?5?$AAT?$AAi?$AAm?$AAe?$AA?$AA@ 10002378     k.coredll_ALL:time.obj
 0001:000013a4       ??_C@_1CM@BPFKCOJO@?$AAP?$AAa?$AAc?$AAi?$AAf?$AAi?$AAc?$AA?5?$AAD?$AAa?$AAy?$AAl?$AAi?$AAg?$AAh?$AAt?$AA?5?$AAT?$AAi?$AAm?$AAe?$AA?$AA@ 100023a4     k.coredll_ALL:time.obj
 0001:000013d0       ??_C@_1BA@GHOECOCL@?$AAD?$AAe?$AAf?$AAa?$AAu?$AAl?$AAt?$AA?$AA@ 100023d0     k.coredll_ALL:time.obj
 0001:000013e0       ??_C@_0L@CBFAMKHA@CePerfInit?$AA@ 100023e0     k.coredll_ALL:tkprofile.obj
 0001:000013ec       ??_C@_1BG@LAMFDIML@?$AAC?$AAe?$AAP?$AAe?$AAr?$AAf?$AA?4?$AAd?$AAl?$AAl?$AA?$AA@ 100023ec     k.coredll_ALL:tkprofile.obj
 0001:00001404       ??_C@_0N@GMGPBJKN@CePerfDeinit?$AA@ 10002404     k.coredll_ALL:tkprofile.obj
 0001:00001414       ??_C@_1BK@KKNLFJGK@?$AAn?$AAl?$AAs?$AA?2?$AAc?$AAo?$AAd?$AAe?$AAp?$AAa?$AAg?$AAe?$AA?$AA@ 10002414     k.coredll_ALL:codepage.obj
 0001:00001430       ??_C@_11LOCGONAA@?$AA?$AA@ 10002430     k.coredll_ALL:loader.obj
 0001:00001434       ??_C@_1O@JJGJOKMI@?$AAN?$AAK?$AA?4?$AAE?$AAX?$AAE?$AA?$AA@ 10002434     k.coredll_ALL:loader.obj
 0001:00001448       ??_C@_1FI@ONEBACH@?$AA?$CB?$AA?$CB?$AA?$CB?$AA?5?$AAP?$AAl?$AAe?$AAa?$AAs?$AAe?$AA?5?$AAC?$AAh?$AAe?$AAc?$AAk?$AA?5?$AAy?$AAo?$AAu?$AAr?$AA?5?$AAS?$AAY?$AAS?$AAG?$AAE?$AAN?$AA?5?$AAv?$AAa?$AAr@ 10002448     k.coredll_ALL:loader.obj
 0001:000014a0       ??_C@_1EK@MDFBEFFB@?$AAE?$AAR?$AAR?$AAO?$AAR?$AA?3?$AA?5?$AAc?$AAo?$AAu?$AAl?$AAd?$AA?5?$AAn?$AAo?$AAt?$AA?5?$AAr?$AAe?$AAs?$AAo?$AAl?$AAv?$AAe?$AA?5?$AAi?$AAm?$AAp?$AAo?$AAr?$AAt?$AA?5@ 100024a0     k.coredll_ALL:loader.obj
 0001:000014f0       ??_C@_1EO@PGGPFENP@?$AAE?$AAR?$AAR?$AAO?$AAR?$AA?3?$AA?5?$AAf?$AAu?$AAn?$AAc?$AAt?$AAi?$AAo?$AAn?$AA?5?$AA?$EA?$AA?5?$AAO?$AAr?$AAd?$AAi?$AAn?$AAa?$AAl?$AA?5?$AA?$CF?$AAd?$AA?5?$AAm?$AAi?$AAs@ 100024f0     k.coredll_ALL:loader.obj
 0001:00001540       ??_C@_1BG@FDKKJJHG@?$AAs?$AAS?$AAh?$AAo?$AAr?$AAt?$AAT?$AAi?$AAm?$AAe?$AA?$AA@ 10002540     k.coredll_ALL:locale.obj
 0001:00001558       ??_C@_1BC@GNPFBONO@?$AAs?$AAC?$AAo?$AAu?$AAn?$AAt?$AAr?$AAy?$AA?$AA@ 10002558     k.coredll_ALL:locale.obj
 0001:0000156c       ??_C@_1BC@FBNDIHEJ@?$AAi?$AAC?$AAo?$AAu?$AAn?$AAt?$AAr?$AAy?$AA?$AA@ 1000256c     k.coredll_ALL:locale.obj
 0001:00001580       ??_C@_1BC@DHBCKFIL@?$AAN?$AAu?$AAm?$AAS?$AAh?$AAa?$AAp?$AAe?$AA?$AA@ 10002580     k.coredll_ALL:locale.obj
 0001:00001594       ??_C@_1BG@ECGECKCC@?$AAi?$AAP?$AAa?$AAp?$AAe?$AAr?$AAS?$AAi?$AAz?$AAe?$AA?$AA@ 10002594     k.coredll_ALL:locale.obj
 0001:000015ac       ??_C@_1CC@IKPEMJKB@?$AAi?$AAF?$AAi?$AAr?$AAs?$AAt?$AAW?$AAe?$AAe?$AAk?$AAO?$AAf?$AAY?$AAe?$AAa?$AAr?$AA?$AA@ 100025ac     k.coredll_ALL:locale.obj
 0001:000015d0       ??_C@_1CA@BHFEBCHP@?$AAi?$AAF?$AAi?$AAr?$AAs?$AAt?$AAD?$AAa?$AAy?$AAO?$AAf?$AAW?$AAe?$AAe?$AAk?$AA?$AA@ 100025d0     k.coredll_ALL:locale.obj
 0001:000015f0       ??_C@_1BM@BJIIIMHC@?$AAs?$AAN?$AAe?$AAg?$AAa?$AAt?$AAi?$AAv?$AAe?$AAS?$AAi?$AAg?$AAn?$AA?$AA@ 100025f0     k.coredll_ALL:locale.obj
 0001:0000160c       ??_C@_1BM@LKJGNIEF@?$AAs?$AAP?$AAo?$AAs?$AAi?$AAt?$AAi?$AAv?$AAe?$AAS?$AAi?$AAg?$AAn?$AA?$AA@ 1000260c     k.coredll_ALL:locale.obj
 0001:00001628       ??_C@_1M@HBBPJGMC@?$AAS?$AA2?$AA3?$AA5?$AA9?$AA?$AA@ 10002628     k.coredll_ALL:locale.obj
 0001:00001634       ??_C@_1M@NIANCKLM@?$AAS?$AA1?$AA1?$AA5?$AA9?$AA?$AA@ 10002634     k.coredll_ALL:locale.obj
 0001:00001640       ??_C@_1BA@OPCCHKMF@?$AAi?$AAT?$AAL?$AAZ?$AAe?$AAr?$AAo?$AA?$AA@ 10002640     k.coredll_ALL:locale.obj
 0001:00001650       ??_C@_1BM@CKEFHKKC@?$AAi?$AAC?$AAa?$AAl?$AAe?$AAn?$AAd?$AAa?$AAr?$AAT?$AAy?$AAp?$AAe?$AA?$AA@ 10002650     k.coredll_ALL:locale.obj
 0001:0000166c       ??_C@_1BI@CHIELMND@?$AAi?$AAT?$AAi?$AAm?$AAe?$AAP?$AAr?$AAe?$AAf?$AAi?$AAx?$AA?$AA@ 1000266c     k.coredll_ALL:locale.obj
 0001:00001684       ??_C@_1M@PGBIOJBO@?$AAi?$AAT?$AAi?$AAm?$AAe?$AA?$AA@ 10002684     k.coredll_ALL:locale.obj
 0001:00001690       ??_C@_1M@CGIKCABA@?$AAi?$AAD?$AAa?$AAt?$AAe?$AA?$AA@ 10002690     k.coredll_ALL:locale.obj
 0001:0000169c       ??_C@_1BI@GBIDBDIF@?$AAs?$AAT?$AAi?$AAm?$AAe?$AAF?$AAo?$AAr?$AAm?$AAa?$AAt?$AA?$AA@ 1000269c     k.coredll_ALL:locale.obj
 0001:000016b4       ??_C@_1BG@BCHDPHMF@?$AAs?$AAY?$AAe?$AAa?$AAr?$AAM?$AAo?$AAn?$AAt?$AAh?$AA?$AA@ 100026b4     k.coredll_ALL:locale.obj
 0001:000016cc       ??_C@_1BE@INEJIBGA@?$AAs?$AAL?$AAo?$AAn?$AAg?$AAD?$AAa?$AAt?$AAe?$AA?$AA@ 100026cc     k.coredll_ALL:locale.obj
 0001:000016e0       ??_C@_1BG@IDDIFAHI@?$AAs?$AAS?$AAh?$AAo?$AAr?$AAt?$AAD?$AAa?$AAt?$AAe?$AA?$AA@ 100026e0     k.coredll_ALL:locale.obj
 0001:000016f8       ??_C@_1M@BADHOMID@?$AAs?$AAT?$AAi?$AAm?$AAe?$AA?$AA@ 100026f8     k.coredll_ALL:locale.obj
 0001:00001704       ??_C@_1M@MAKFCFIN@?$AAs?$AAD?$AAa?$AAt?$AAe?$AA?$AA@ 10002704     k.coredll_ALL:locale.obj
 0001:00001710       ??_C@_1BC@MLIFGDBH@?$AAi?$AAN?$AAe?$AAg?$AAC?$AAu?$AAr?$AAr?$AA?$AA@ 10002710     k.coredll_ALL:locale.obj
 0001:00001724       ??_C@_1BE@HLCODNEK@?$AAi?$AAC?$AAu?$AAr?$AAr?$AAe?$AAn?$AAc?$AAy?$AA?$AA@ 10002724     k.coredll_ALL:locale.obj
 0001:00001738       ??_C@_1CA@CHGMOOJI@?$AAi?$AAI?$AAn?$AAt?$AAl?$AAC?$AAu?$AAr?$AAr?$AAD?$AAi?$AAg?$AAi?$AAt?$AAs?$AA?$AA@ 10002738     k.coredll_ALL:locale.obj
 0001:00001758       ??_C@_1BI@KMFAMONH@?$AAi?$AAC?$AAu?$AAr?$AAr?$AAD?$AAi?$AAg?$AAi?$AAt?$AAs?$AA?$AA@ 10002758     k.coredll_ALL:locale.obj
 0001:00001770       ??_C@_1BK@DPHLLBEP@?$AAs?$AAM?$AAo?$AAn?$AAG?$AAr?$AAo?$AAu?$AAp?$AAi?$AAn?$AAg?$AA?$AA@ 10002770     k.coredll_ALL:locale.obj
 0001:0000178c       ??_C@_1CA@EADILEGO@?$AAs?$AAM?$AAo?$AAn?$AAT?$AAh?$AAo?$AAu?$AAs?$AAa?$AAn?$AAd?$AAS?$AAe?$AAp?$AA?$AA@ 1000278c     k.coredll_ALL:locale.obj
 0001:000017ac       ??_C@_1BO@PJHAOMOA@?$AAs?$AAM?$AAo?$AAn?$AAD?$AAe?$AAc?$AAi?$AAm?$AAa?$AAl?$AAS?$AAe?$AAp?$AA?$AA@ 100027ac     k.coredll_ALL:locale.obj
 0001:000017cc       ??_C@_1M@JDKIBKPE@?$AAS?$AAI?$AAS?$AAy?$AAm?$AA?$AA@ 100027cc     k.coredll_ALL:locale.obj
 0001:000017d8       ??_C@_1BE@MMPNDGFB@?$AAs?$AAC?$AAu?$AAr?$AAr?$AAe?$AAn?$AAc?$AAy?$AA?$AA@ 100027d8     k.coredll_ALL:locale.obj
 0001:000017ec       ??_C@_1BG@EJPGAAIC@?$AAi?$AAN?$AAe?$AAg?$AAN?$AAu?$AAm?$AAb?$AAe?$AAr?$AA?$AA@ 100027ec     k.coredll_ALL:locale.obj
 0001:00001804       ??_C@_1O@CKDEPPOB@?$AAi?$AAL?$AAZ?$AAe?$AAr?$AAo?$AA?$AA@ 10002804     k.coredll_ALL:locale.obj
 0001:00001814       ??_C@_1BM@NGLHILHI@?$AAs?$AAN?$AAa?$AAt?$AAi?$AAv?$AAe?$AAD?$AAi?$AAg?$AAi?$AAt?$AAs?$AA?$AA@ 10002814     k.coredll_ALL:locale.obj
 0001:00001830       ??_C@_1BA@PDGPNLM@?$AAi?$AAD?$AAi?$AAg?$AAi?$AAt?$AAs?$AA?$AA@ 10002830     k.coredll_ALL:locale.obj
 0001:00001840       ??_C@_1BE@FIGGMMFN@?$AAs?$AAG?$AAr?$AAo?$AAu?$AAp?$AAi?$AAn?$AAg?$AA?$AA@ 10002840     k.coredll_ALL:locale.obj
 0001:00001854       ??_C@_1BE@KELAMGMN@?$AAs?$AAT?$AAh?$AAo?$AAu?$AAs?$AAa?$AAn?$AAd?$AA?$AA@ 10002854     k.coredll_ALL:locale.obj
 0001:00001868       ??_C@_1BC@MCLDJCMN@?$AAs?$AAD?$AAe?$AAc?$AAi?$AAm?$AAa?$AAl?$AA?$AA@ 10002868     k.coredll_ALL:locale.obj
 0001:0000187c       ??_C@_1BC@KIENJPBL@?$AAi?$AAM?$AAe?$AAa?$AAs?$AAu?$AAr?$AAe?$AA?$AA@ 1000287c     k.coredll_ALL:locale.obj
 0001:00001890       ??_C@_1M@PFDHHOIO@?$AAs?$AAL?$AAi?$AAs?$AAt?$AA?$AA@ 10002890     k.coredll_ALL:locale.obj
 0001:000018a0       regnames                   100028a0     k.coredll_ALL:locale.obj
 0001:000019e0       langid                     100029e0     k.coredll_ALL:locale.obj
 0001:00001af4       hexval                     10002af4     k.coredll_ALL:locale.obj
 0001:00001b04       ??_C@_1O@MDPBHMK@?$AAh?$AAH?$AAm?$AAs?$AAt?$AA?8?$AA?$AA@ 10002b04     k.coredll_ALL:locale.obj
 0001:00001b14       ??_C@_1M@FPDBMACJ@?$AAd?$AAM?$AAy?$AAg?$AA?8?$AA?$AA@ 10002b14     k.coredll_ALL:locale.obj
 0001:00001b20       ??_C@_15LHNHECKK@?$AA?$CF?$AAx?$AA?$AA@ 10002b20     k.coredll_ALL:locale.obj
 0001:00001b28       ??_C@_15NLDJLKHO@?$AA1?$AA2?$AA?$AA@ 10002b28     k.coredll_ALL:locale.obj
 0001:00001b30       ??_C@_15MJIMBFJA@?$AA1?$AA1?$AA?$AA@ 10002b30     k.coredll_ALL:locale.obj
 0001:00001b38       ??_C@_15HBDAHCPF@?$AA1?$AA0?$AA?$AA@ 10002b38     k.coredll_ALL:locale.obj
 0001:00001b40       ??_C@_13FDJIJHMI@?$AA9?$AA?$AA@ 10002b40     k.coredll_ALL:locale.obj
 0001:00001b44       ??_C@_13IEJJBAMJ@?$AA2?$AA?$AA@ 10002b44     k.coredll_ALL:locale.obj
 0001:00001b48       ??_C@_13JGCMLPCH@?$AA1?$AA?$AA@ 10002b48     k.coredll_ALL:locale.obj
 0001:00001b50       ??_C@_1GM@GOIOMKOA@?$AAC?$AAo?$AAn?$AAt?$AAr?$AAo?$AAl?$AA?5?$AAP?$AAa?$AAn?$AAe?$AAl?$AA?2?$AAI?$AAn?$AAt?$AAe?$AAr?$AAn?$AAa?$AAt?$AAi?$AAo?$AAn?$AAa?$AAl?$AA?2?$AAC?$AAa?$AAl?$AAe@ 10002b50     k.coredll_ALL:locale.obj
 0001:00001bbc       ??_C@_15OLMMKIPI@?$AAM?$AAy?$AA?$AA@ 10002bbc     k.coredll_ALL:locale.obj
 0001:00001bc4       ??_C@_17GLINHIHD@?$AAd?$AAM?$AAy?$AA?$AA@ 10002bc4     k.coredll_ALL:locale.obj
 0001:00001bcc       ??_C@_13ODFOLHGE@?$AA?8?$AA?$AA@ 10002bcc     k.coredll_ALL:locale.obj
 0001:00001be0       ??_C@_1M@IAHOEEDC@?$AAL?$AAA?$AAS?$AA0?$AA?3?$AA?$AA@ 10002be0     k.coredll_ALL:tlassd.obj
 0001:00001bec       ??_7?$ioctl_proxy@PAX@ce@@6B@ 10002bec     k.coredll_ALL:tlassd.obj
 0001:00001bf0       ??_7NullAppendStream@ce@@6B@ 10002bf0     k.coredll_ALL:tlassd.obj
 0001:00001c00       ??_7MemoryAppendStream@ce@@6B@ 10002c00     k.coredll_ALL:tlassd.obj
 0001:00001c10       ??_C@_1BK@FPGAIHIB@?$AA?2?$AAS?$AAt?$AAo?$AAr?$AAe?$AAM?$AAg?$AAr?$AA?2?$AA?$CF?$AAs?$AA?$AA@ 10002c10     k.coredll_ALL:tstoreapi.obj
 0001:00001c2c       ??_C@_1BE@MAHEDHGH@?$AA?2?$AAS?$AAt?$AAo?$AAr?$AAe?$AAM?$AAg?$AAr?$AA?$AA@ 10002c2c     k.coredll_ALL:tstoreapi.obj
 0001:00001c40       ??_C@_1M@EIANNJJK@?$AAC?$AAR?$AAD?$AA0?$AA?3?$AA?$AA@ 10002c40     k.coredll_ALL:tcredapi.obj
 0001:00001c4c       ??_C@_1CA@JJGKNHBK@?$AAC?$AAP?$AAD?$AAu?$AAp?$AAl?$AAi?$AAc?$AAa?$AAt?$AAe?$AAH?$AAa?$AAs?$AAh?$AA?$AA@ 10002c4c     k.coredll_ALL:cryptapi.obj
 0001:00001c6c       ??_C@_1BO@FHELJOCD@?$AAC?$AAP?$AAD?$AAu?$AAp?$AAl?$AAi?$AAc?$AAa?$AAt?$AAe?$AAK?$AAe?$AAy?$AA?$AA@ 10002c6c     k.coredll_ALL:cryptapi.obj
 0001:00001c8c       ??_C@_1BO@EBFDMBBD@?$AAC?$AAP?$AAG?$AAe?$AAt?$AAH?$AAa?$AAs?$AAh?$AAP?$AAa?$AAr?$AAa?$AAm?$AA?$AA@ 10002c8c     k.coredll_ALL:cryptapi.obj
 0001:00001cac       ??_C@_1BO@MBJFAMLF@?$AAC?$AAP?$AAS?$AAe?$AAt?$AAH?$AAa?$AAs?$AAh?$AAP?$AAa?$AAr?$AAa?$AAm?$AA?$AA@ 10002cac     k.coredll_ALL:cryptapi.obj
 0001:00001ccc       ??_C@_1BO@BEEHLJEE@?$AAC?$AAP?$AAG?$AAe?$AAt?$AAP?$AAr?$AAo?$AAv?$AAP?$AAa?$AAr?$AAa?$AAm?$AA?$AA@ 10002ccc     k.coredll_ALL:cryptapi.obj
 0001:00001cec       ??_C@_1BO@JEIBHEOC@?$AAC?$AAP?$AAS?$AAe?$AAt?$AAP?$AAr?$AAo?$AAv?$AAP?$AAa?$AAr?$AAa?$AAm?$AA?$AA@ 10002cec     k.coredll_ALL:cryptapi.obj
 0001:00001d0c       ??_C@_1BK@KEKFCEA@?$AAC?$AAP?$AAG?$AAe?$AAt?$AAU?$AAs?$AAe?$AAr?$AAK?$AAe?$AAy?$AA?$AA@ 10002d0c     k.coredll_ALL:cryptapi.obj
 0001:00001d28       ??_C@_1BI@FBPIPMFO@?$AAC?$AAP?$AAG?$AAe?$AAn?$AAR?$AAa?$AAn?$AAd?$AAo?$AAm?$AA?$AA@ 10002d28     k.coredll_ALL:cryptapi.obj
 0001:00001d40       ??_C@_1CE@PHEKJLCC@?$AAC?$AAP?$AAV?$AAe?$AAr?$AAi?$AAf?$AAy?$AAS?$AAi?$AAg?$AAn?$AAa?$AAt?$AAu?$AAr?$AAe?$AA?$AA@ 10002d40     k.coredll_ALL:cryptapi.obj
 0001:00001d64       ??_C@_1BG@CBDHGEOF@?$AAC?$AAP?$AAS?$AAi?$AAg?$AAn?$AAH?$AAa?$AAs?$AAh?$AA?$AA@ 10002d64     k.coredll_ALL:cryptapi.obj
 0001:00001d7c       ??_C@_1BM@EDOLNCIK@?$AAC?$AAP?$AAD?$AAe?$AAs?$AAt?$AAr?$AAo?$AAy?$AAH?$AAa?$AAs?$AAh?$AA?$AA@ 10002d7c     k.coredll_ALL:cryptapi.obj
 0001:00001d98       ??_C@_1CC@EILGMJAK@?$AAC?$AAP?$AAH?$AAa?$AAs?$AAh?$AAS?$AAe?$AAs?$AAs?$AAi?$AAo?$AAn?$AAK?$AAe?$AAy?$AA?$AA@ 10002d98     k.coredll_ALL:cryptapi.obj
 0001:00001dbc       ??_C@_1BG@GLECFNPH@?$AAC?$AAP?$AAH?$AAa?$AAs?$AAh?$AAD?$AAa?$AAt?$AAa?$AA?$AA@ 10002dbc     k.coredll_ALL:cryptapi.obj
 0001:00001dd4       ??_C@_1BK@PMDBDILI@?$AAC?$AAP?$AAC?$AAr?$AAe?$AAa?$AAt?$AAe?$AAH?$AAa?$AAs?$AAh?$AA?$AA@ 10002dd4     k.coredll_ALL:cryptapi.obj
 0001:00001df0       ??_C@_1BE@PNHEKFAD@?$AAC?$AAP?$AAD?$AAe?$AAc?$AAr?$AAy?$AAp?$AAt?$AA?$AA@ 10002df0     k.coredll_ALL:cryptapi.obj
 0001:00001e04       ??_C@_1BE@BMCEAPHP@?$AAC?$AAP?$AAE?$AAn?$AAc?$AAr?$AAy?$AAp?$AAt?$AA?$AA@ 10002e04     k.coredll_ALL:cryptapi.obj
 0001:00001e18       ??_C@_1BI@JAGEFIJG@?$AAC?$AAP?$AAI?$AAm?$AAp?$AAo?$AAr?$AAt?$AAK?$AAe?$AAy?$AA?$AA@ 10002e18     k.coredll_ALL:cryptapi.obj
 0001:00001e30       ??_C@_1BI@IJALFIIC@?$AAC?$AAP?$AAE?$AAx?$AAp?$AAo?$AAr?$AAt?$AAK?$AAe?$AAy?$AA?$AA@ 10002e30     k.coredll_ALL:cryptapi.obj
 0001:00001e48       ??_C@_1BM@EHKBIAFJ@?$AAC?$AAP?$AAG?$AAe?$AAt?$AAK?$AAe?$AAy?$AAP?$AAa?$AAr?$AAa?$AAm?$AA?$AA@ 10002e48     k.coredll_ALL:cryptapi.obj
 0001:00001e64       ??_C@_1BM@FBMMGBDL@?$AAC?$AAP?$AAS?$AAe?$AAt?$AAK?$AAe?$AAy?$AAP?$AAa?$AAr?$AAa?$AAm?$AA?$AA@ 10002e64     k.coredll_ALL:cryptapi.obj
 0001:00001e80       ??_C@_1BK@OEJDONGI@?$AAC?$AAP?$AAD?$AAe?$AAs?$AAt?$AAr?$AAo?$AAy?$AAK?$AAe?$AAy?$AA?$AA@ 10002e80     k.coredll_ALL:cryptapi.obj
 0001:00001e9c       ??_C@_1BI@IFGMEPEL@?$AAC?$AAP?$AAD?$AAe?$AAr?$AAi?$AAv?$AAe?$AAK?$AAe?$AAy?$AA?$AA@ 10002e9c     k.coredll_ALL:cryptapi.obj
 0001:00001eb4       ??_C@_1BC@GBOEIIHK@?$AAC?$AAP?$AAG?$AAe?$AAn?$AAK?$AAe?$AAy?$AA?$AA@ 10002eb4     k.coredll_ALL:cryptapi.obj
 0001:00001ec8       ??_C@_1CC@CLIDDOMB@?$AAC?$AAP?$AAR?$AAe?$AAl?$AAe?$AAa?$AAs?$AAe?$AAC?$AAo?$AAn?$AAt?$AAe?$AAx?$AAt?$AA?$AA@ 10002ec8     k.coredll_ALL:cryptapi.obj
 0001:00001eec       ??_C@_1CC@ILMPANGD@?$AAC?$AAP?$AAA?$AAc?$AAq?$AAu?$AAi?$AAr?$AAe?$AAC?$AAo?$AAn?$AAt?$AAe?$AAx?$AAt?$AA?$AA@ 10002eec     k.coredll_ALL:cryptapi.obj
 0001:00001f10       FunctionNames              10002f10     k.coredll_ALL:cryptapi.obj
 0001:00001f70       OptionalFunctionNames      10002f70     k.coredll_ALL:cryptapi.obj
 0001:00001f80       szmachinetypeW             10002f80     k.coredll_ALL:cryptapi.obj
 0001:00001fe8       szproviderW                10002fe8     k.coredll_ALL:cryptapi.obj
 0001:00002038       szenumprovidersW           10003038     k.coredll_ALL:cryptapi.obj
 0001:00002088       szprovidertypesW           10003088     k.coredll_ALL:cryptapi.obj
 0001:000020e4       ??_C@_19BIEPDBPA@?$AAT?$AAy?$AAp?$AAe?$AA?$AA@ 100030e4     k.coredll_ALL:cryptapi.obj
 0001:000020f0       ??_C@_1BG@LNLMFOAB@?$AAI?$AAm?$AAa?$AAg?$AAe?$AA?5?$AAP?$AAa?$AAt?$AAh?$AA?$AA@ 100030f0     k.coredll_ALL:cryptapi.obj
 0001:00002108       ??_C@_19DINFBLAK@?$AAN?$AAa?$AAm?$AAe?$AA?$AA@ 10003108     k.coredll_ALL:cryptapi.obj
 0001:00002114       ??_C@_17DJGGJCGD@?$AAI?$AAr?$AAq?$AA?$AA@ 10003114     k.coredll_ALL:isrcfg.obj
 0001:0000211c       ??_C@_1BA@BDHDGOBO@?$AAS?$AAy?$AAs?$AAI?$AAn?$AAt?$AAr?$AA?$AA@ 1000311c     k.coredll_ALL:isrcfg.obj
 0001:0000212c       ??_C@_1BG@NELPJJNN@?$AAI?$AAs?$AAr?$AAH?$AAa?$AAn?$AAd?$AAl?$AAe?$AAr?$AA?$AA@ 1000312c     k.coredll_ALL:isrcfg.obj
 0001:00002144       ??_C@_1O@MDNCMDKF@?$AAI?$AAs?$AAr?$AAD?$AAl?$AAl?$AA?$AA@ 10003144     k.coredll_ALL:isrcfg.obj
 0001:00002154       ??_C@_1BK@JHFNDMGF@?$AAD?$AAe?$AAv?$AAi?$AAc?$AAe?$AAN?$AAu?$AAm?$AAb?$AAe?$AAr?$AA?$AA@ 10003154     k.coredll_ALL:pcicfg.obj
 0001:00002170       ??_C@_1BO@PJDCCDMH@?$AAF?$AAu?$AAn?$AAc?$AAt?$AAi?$AAo?$AAn?$AAN?$AAu?$AAm?$AAb?$AAe?$AAr?$AA?$AA@ 10003170     k.coredll_ALL:pcicfg.obj
 0001:00002190       ??_C@_1BM@BLGPIPGJ@?$AAI?$AAn?$AAs?$AAt?$AAa?$AAn?$AAc?$AAe?$AAI?$AAn?$AAd?$AAe?$AAx?$AA?$AA@ 10003190     k.coredll_ALL:pcicfg.obj
 0001:000021ac       ??_C@_1M@OAHBGIFG@?$AAC?$AAl?$AAa?$AAs?$AAs?$AA?$AA@ 100031ac     k.coredll_ALL:pcicfg.obj
 0001:000021b8       ??_C@_1BC@EKJLLFOF@?$AAS?$AAu?$AAb?$AAC?$AAl?$AAa?$AAs?$AAs?$AA?$AA@ 100031b8     k.coredll_ALL:pcicfg.obj
 0001:000021cc       ??_C@_1O@KNNEPINE@?$AAP?$AAr?$AAo?$AAg?$AAI?$AAF?$AA?$AA@ 100031cc     k.coredll_ALL:pcicfg.obj
 0001:000021dc       ??_C@_1BC@NPAECANO@?$AAV?$AAe?$AAn?$AAd?$AAo?$AAr?$AAI?$AAD?$AA?$AA@ 100031dc     k.coredll_ALL:pcicfg.obj
 0001:000021f0       ??_C@_1BC@FDHFOMEN@?$AAD?$AAe?$AAv?$AAi?$AAc?$AAe?$AAI?$AAD?$AA?$AA@ 100031f0     k.coredll_ALL:pcicfg.obj
 0001:00002204       ??_C@_1BG@MHMGNMDC@?$AAR?$AAe?$AAv?$AAi?$AAs?$AAi?$AAo?$AAn?$AAI?$AAD?$AA?$AA@ 10003204     k.coredll_ALL:pcicfg.obj
 0001:0000221c       ??_C@_1BI@FPBCIDAH@?$AAS?$AAu?$AAb?$AAV?$AAe?$AAn?$AAd?$AAo?$AAr?$AAI?$AAD?$AA?$AA@ 1000321c     k.coredll_ALL:pcicfg.obj
 0001:00002234       ??_C@_1BI@JFAEBNDD@?$AAS?$AAu?$AAb?$AAS?$AAy?$AAs?$AAt?$AAe?$AAm?$AAI?$AAD?$AA?$AA@ 10003234     k.coredll_ALL:pcicfg.obj
 0001:0000224c       ??_C@_1M@PEPOCCHH@?$AAI?$AAo?$AAL?$AAe?$AAn?$AA?$AA@ 1000324c     k.coredll_ALL:memcfg.obj
 0001:00002258       ??_C@_1O@JMCNHCBG@?$AAI?$AAo?$AAB?$AAa?$AAs?$AAe?$AA?$AA@ 10003258     k.coredll_ALL:memcfg.obj
 0001:00002268       ??_C@_1O@LBBNFMDB@?$AAM?$AAe?$AAm?$AAL?$AAe?$AAn?$AA?$AA@ 10003268     k.coredll_ALL:memcfg.obj
 0001:00002278       ??_C@_1BA@INLDIDEN@?$AAM?$AAe?$AAm?$AAB?$AAa?$AAs?$AAe?$AA?$AA@ 10003278     k.coredll_ALL:memcfg.obj
 0001:00002288       ??_C@_1BE@MNDDMKMB@?$AAB?$AAu?$AAs?$AAN?$AAu?$AAm?$AAb?$AAe?$AAr?$AA?$AA@ 10003288     k.coredll_ALL:memcfg.obj
 0001:0000229c       ??_C@_1BM@MHMIAMLB@?$AAI?$AAn?$AAt?$AAe?$AAr?$AAf?$AAa?$AAc?$AAe?$AAT?$AAy?$AAp?$AAe?$AA?$AA@ 1000329c     k.coredll_ALL:memcfg.obj
 0001:000022b8       ??_C@_1DO@ILJGFADP@?$AAP?$AAo?$AAw?$AAe?$AAr?$AAM?$AAa?$AAn?$AAa?$AAg?$AAe?$AAr?$AA?1?$AAN?$AAo?$AAt?$AAi?$AAf?$AAi?$AAc?$AAa?$AAt?$AAi?$AAo?$AAn?$AAQ?$AAu?$AAe?$AAu?$AAe?$AA?$AA@ 100032b8     k.coredll_ALL:tpm.obj
 0001:000022f8       ??_C@_1M@EHDMPNDP@?$AAP?$AAn?$AAp?$AAI?$AAd?$AA?$AA@ 100032f8     k.coredll_ALL:devices.obj
 0001:00002304       ??_C@_1M@DFKENGJN@?$AA?$CF?$AAs?$AA?2?$AA?$CF?$AAs?$AA?$AA@ 10003304     k.coredll_ALL:devices.obj
 0001:00002310       ??_C@_17KACEIPNC@?$AAK?$AAe?$AAy?$AA?$AA@ 10003310     k.coredll_ALL:devices.obj
 0001:00002318       ??_C@_17JCBKHJFJ@?$AAM?$AAU?$AAI?$AA?$AA@ 10003318     k.coredll_ALL:mui.obj
 0001:00002320       ??_C@_1BA@OJPADBKG@?$AAS?$AAy?$AAs?$AAL?$AAa?$AAn?$AAg?$AA?$AA@ 10003320     k.coredll_ALL:mui.obj
 0001:00002330       ??_C@_1BA@LOIHNCHK@?$AAC?$AAu?$AAr?$AAL?$AAa?$AAn?$AAg?$AA?$AA@ 10003330     k.coredll_ALL:mui.obj
 0001:00002340       ??_C@_1DM@OPGDLBFC@?$AA?2?$AAw?$AAi?$AAn?$AAd?$AAo?$AAw?$AAs?$AA?2?$AAc?$AAo?$AAr?$AAe?$AAd?$AAl?$AAl?$AA?4?$AAd?$AAl?$AAl?$AA?4?$AA?$DP?$AA?$DP?$AA?$DP?$AA?$DP?$AA?4?$AAM?$AAU?$AAI?$AA?$AA@ 10003340     k.coredll_ALL:mui.obj
 0001:0000237c       ??_C@_13EJFHHPOP@?$AA?$CF?$AA?$AA@ 1000337c     k.coredll_ALL:fmtmsg.obj
 0001:00002380       ??_C@_13HOIJIPNN@?$AA?5?$AA?$AA@ 10003380     k.coredll_ALL:fmtmsg.obj
 0001:00002384       ??_C@_13KDLDGPGJ@?$AA?7?$AA?$AA@ 10003384     k.coredll_ALL:fmtmsg.obj
 0001:00002388       ??_C@_15JNBOKNOG@?$AA?$AN?$AA?6?$AA?$AA@ 10003388     k.coredll_ALL:fmtmsg.obj
 0001:00002390       ??_C@_13CMNBPIDO@?$AA?$AN?$AA?$AA@ 10003390     k.coredll_ALL:fmtmsg.obj
 0001:00002394       ??_C@_1BC@DNCBBMLH@?$AA?$CF?$AA?$CF?$AA?$CF?$AAu?$AA?$CB?$AA?$CF?$AAs?$AA?$CB?$AA?$AA@ 10003394     k.coredll_ALL:fmtmsg.obj
 0001:000023a8       ??_C@_19PBHPHAE@?$AA?$CF?$AA?$CF?$AA?$CF?$AAu?$AA?$AA@ 100033a8     k.coredll_ALL:fmtmsg.obj
 0001:000023b4       ??_C@_15GANGMFKL@?$AA?$CF?$AAs?$AA?$AA@ 100033b4     k.coredll_ALL:fmtmsg.obj
 0001:000023bc       flagMap                    100033bc     k.coredll_ALL:th32heap.obj
 0001:000024d4       ??_C@_1CE@JBIFJMCE@?$AAP?$AAa?$AAr?$AAe?$AAn?$AAt?$AAB?$AAr?$AAa?$AAn?$AAc?$AAh?$AAB?$AAu?$AAi?$AAl?$AAd?$AA?$AA@ 100034d4     k.coredll_ALL:buildinfo.obj
 0001:000024f8       ??_C@_1BE@DLBHMLBM@?$AAT?$AAi?$AAm?$AAe?$AAS?$AAt?$AAa?$AAm?$AAp?$AA?$AA@ 100034f8     k.coredll_ALL:buildinfo.obj
 0001:0000250c       ??_C@_1BA@GHNIFAMD@?$AAB?$AAu?$AAi?$AAl?$AAd?$AAe?$AAr?$AA?$AA@ 1000350c     k.coredll_ALL:buildinfo.obj
 0001:0000251c       ??_C@_1M@DEGBNNDL@?$AAL?$AAa?$AAb?$AAe?$AAl?$AA?$AA@ 1000351c     k.coredll_ALL:buildinfo.obj
 0001:00002528       ??_C@_1CA@CLFFKBBL@?$AAS?$AAy?$AAs?$AAt?$AAe?$AAm?$AA?2?$AAV?$AAe?$AAr?$AAs?$AAi?$AAo?$AAn?$AAs?$AA?$AA@ 10003528     k.coredll_ALL:buildinfo.obj
 0001:00002548       ??_C@_1BC@IOPCLKDG@?$AA?$CF?$AAs?$AA?4?$AA?$CF?$AAs?$AA?4?$AA?$CF?$AAs?$AA?$AA@ 10003548     k.coredll_ALL:buildinfo.obj
 0001:0000255c       ??_C@_1BK@LDOFFGJI@?$AA?$CF?$AAs?$AA?4?$AA?$CF?$AAs?$AA?$CI?$AA?$CF?$AAs?$AA?$CJ?$AA?4?$AA?$CF?$AAs?$AA?$AA@ 1000355c     k.coredll_ALL:buildinfo.obj
 0001:00002578       ??_C@_1BC@IAJOOGDH@?$AAB?$AAu?$AAi?$AAl?$AAd?$AAl?$AAa?$AAb?$AA?$AA@ 10003578     k.coredll_ALL:buildinfo.obj
 0001:0000258c       ??_C@_1CE@EGLBMAMB@?$AAS?$AAH?$AAG?$AAe?$AAt?$AAO?$AAp?$AAe?$AAn?$AAF?$AAi?$AAl?$AAe?$AAN?$AAa?$AAm?$AAe?$AA?$AA@ 1000358c     k.coredll_ALL:fileopen.obj
 0001:000025b0       ??_C@_1CE@MPONEGLI@?$AAS?$AAH?$AAG?$AAe?$AAt?$AAS?$AAa?$AAv?$AAe?$AAF?$AAi?$AAl?$AAe?$AAN?$AAa?$AAm?$AAe?$AA?$AA@ 100035b0     k.coredll_ALL:fileopen.obj
 0001:000025d4       ??_C@_1BG@KCJJBFAD@?$AAC?$AAe?$AAC?$AAr?$AAe?$AAd?$AAF?$AAr?$AAe?$AAe?$AA?$AA@ 100035d4     k.coredll_ALL:username.obj
 0001:000025ec       ??_C@_1BG@NJIPCJNA@?$AAC?$AAe?$AAC?$AAr?$AAe?$AAd?$AAR?$AAe?$AAa?$AAd?$AA?$AA@ 100035ec     k.coredll_ALL:username.obj
 0001:00002604       ??_C@_1BI@HLLGKMIP@?$AAs?$AAe?$AAc?$AAu?$AAr?$AA3?$AA2?$AA?4?$AAd?$AAl?$AAl?$AA?$AA@ 10003604     k.coredll_ALL:username.obj
 0001:0000261c       ??_C@_1DI@HFDNKLGP@?$AAC?$AAo?$AAn?$AAt?$AAr?$AAo?$AAl?$AA?5?$AAP?$AAa?$AAn?$AAe?$AAl?$AA?2?$AAI?$AAn?$AAt?$AAe?$AAr?$AAn?$AAa?$AAt?$AAi?$AAo?$AAn?$AAa?$AAl?$AA?$AA@ 1000361c     k.coredll_ALL:nlsapi.obj
 0001:00002654       ??_C@_1O@EKJBMENL@?$AAL?$AAo?$AAc?$AAa?$AAl?$AAe?$AA?$AA@ 10003654     k.coredll_ALL:nlsapi.obj
 0001:00002664       ??_C@_1BG@KAOJNKEJ@?$AAD?$AAe?$AAf?$AAa?$AAu?$AAl?$AAt?$AAA?$AAC?$AAP?$AA?$AA@ 10003664     k.coredll_ALL:nlsapi.obj
 0001:0000267c       ??_C@_17FJAAFCEM@?$AAn?$AAl?$AAs?$AA?$AA@ 1000367c     k.coredll_ALL:nlsapi.obj
 0001:00002684       ??_C@_1BG@LFGDMIHL@?$AAD?$AAe?$AAf?$AAa?$AAu?$AAl?$AAt?$AAO?$AAC?$AAP?$AA?$AA@ 10003684     k.coredll_ALL:nlsapi.obj
 0001:000026a0       ??_C@_1EM@ONGNFEAJ@?$AAC?$AAo?$AAn?$AAt?$AAr?$AAo?$AAl?$AA?5?$AAP?$AAa?$AAn?$AAe?$AAl?$AA?2?$AAI?$AAn?$AAt?$AAe?$AAr?$AAn?$AAa?$AAt?$AAi?$AAo?$AAn?$AAa?$AAl?$AA?2?$AAC?$AAa?$AAl?$AAe@ 100036a0     k.coredll_ALL:nlsapi.obj
 0001:000026ec       ??_C@_1BE@JIHFKFIP@?$AA?$CI?$AAD?$AAe?$AAf?$AAa?$AAu?$AAl?$AAt?$AA?$CJ?$AA?$AA@ 100036ec     k.coredll_ALL:nlsapi.obj
 0001:00002700       ??_C@_1FI@IFFDAPGE@?$AAS?$AAY?$AAS?$AAT?$AAE?$AAM?$AA?2?$AAC?$AAu?$AAr?$AAr?$AAe?$AAn?$AAt?$AAC?$AAo?$AAn?$AAt?$AAr?$AAo?$AAl?$AAS?$AAe?$AAt?$AA?2?$AAC?$AAo?$AAn?$AAt?$AAr?$AAo?$AAl@ 10003700     k.coredll_ALL:nlsapi.obj
 0001:00002758       ??_C@_1BG@IDPMNIFP@?$AAL?$AAo?$AAc?$AAa?$AAl?$AAe?$AAN?$AAa?$AAm?$AAe?$AA?$AA@ 10003758     k.coredll_ALL:nlsapi.obj
 0001:00002770       ??_C@_1CK@GAIPJKMF@?$AAI?$AAs?$AAF?$AAo?$AAr?$AAc?$AAe?$AAP?$AAi?$AAx?$AAe?$AAl?$AAD?$AAo?$AAu?$AAb?$AAl?$AAi?$AAn?$AAg?$AA?$AA@ 10003770     k.coredll_ALL:UsrCoredllCallbacks.obj
 0001:0000279c       ??_C@_1M@DBGHFLGE@?$AAS?$AAN?$AAA?$AA0?$AA?3?$AA?$AA@ 1000379c     k.coredll_ALL:api.obj
 0001:000027a8       ??_C@_1CC@LNJFKMBK@?$AAS?$AAH?$AAC?$AAr?$AAe?$AAa?$AAt?$AAe?$AAS?$AAh?$AAo?$AAr?$AAt?$AAc?$AAu?$AAt?$AA?$AA@ 100037a8     k.coredll_ALL:shortcut.obj
 0001:000027cc       ??_C@_1CG@KHDOLBDN@?$AAS?$AAH?$AAC?$AAr?$AAe?$AAa?$AAt?$AAe?$AAS?$AAh?$AAo?$AAr?$AAt?$AAc?$AAu?$AAt?$AAE?$AAx?$AA?$AA@ 100037cc     k.coredll_ALL:shortcut.obj
 0001:000027f4       ??_C@_1CI@EMHGIAGA@?$AAS?$AAH?$AAG?$AAe?$AAt?$AAS?$AAh?$AAo?$AAr?$AAt?$AAc?$AAu?$AAt?$AAT?$AAa?$AAr?$AAg?$AAe?$AAt?$AA?$AA@ 100037f4     k.coredll_ALL:shortcut.obj
 0001:0000281c       ??_C@_1CE@OKMNPDLN@?$AAS?$AAH?$AAA?$AAd?$AAd?$AAT?$AAo?$AAR?$AAe?$AAc?$AAe?$AAn?$AAt?$AAD?$AAo?$AAc?$AAs?$AA?$AA@ 1000381c     k.coredll_ALL:shortcut.obj
 0001:00002840       ??_C@_1BM@FJAFLHAI@?$AAS?$AAH?$AAG?$AAe?$AAt?$AAF?$AAi?$AAl?$AAe?$AAI?$AAn?$AAf?$AAo?$AA?$AA@ 10003840     k.coredll_ALL:fileinfo.obj
 0001:0000285c       ??_C@_1DM@HDJNFDOF@?$AAS?$AAY?$AAS?$AAT?$AAE?$AAM?$AA?2?$AAE?$AAx?$AAp?$AAl?$AAo?$AAr?$AAe?$AAr?$AA?2?$AAS?$AAh?$AAe?$AAl?$AAl?$AA?5?$AAF?$AAo?$AAl?$AAd?$AAe?$AAr?$AAs?$AA?$AA@ 1000385c     k.coredll_ALL:fileinfo.obj
 0001:00002898       ??_C@_1M@FHMAIGFB@?$AAF?$AAo?$AAn?$AAt?$AAs?$AA?$AA@ 10003898     k.coredll_ALL:fileinfo.obj
 0001:000028a4       ??_C@_1CC@EFMDJBCH@?$AAA?$AAp?$AAp?$AAl?$AAi?$AAc?$AAa?$AAt?$AAi?$AAo?$AAn?$AA?5?$AAD?$AAa?$AAt?$AAa?$AA?$AA@ 100038a4     k.coredll_ALL:fileinfo.obj
 0001:000028c8       ??_C@_1BA@HLGGGPNC@?$AAW?$AAi?$AAn?$AAd?$AAo?$AAw?$AAs?$AA?$AA@ 100038c8     k.coredll_ALL:fileinfo.obj
 0001:000028d8       ??_C@_1BM@EFAOKEIH@?$AAP?$AAr?$AAo?$AAg?$AAr?$AAa?$AAm?$AA?5?$AAF?$AAi?$AAl?$AAe?$AAs?$AA?$AA@ 100038d8     k.coredll_ALL:fileinfo.obj
 0001:000028f4       ??_C@_1BI@GHDPBHNA@?$AAM?$AAy?$AA?5?$AAP?$AAi?$AAc?$AAt?$AAu?$AAr?$AAe?$AAs?$AA?$AA@ 100038f4     k.coredll_ALL:fileinfo.obj
 0001:0000290c       ??_C@_1BK@GDCGLOBA@?$AAM?$AAy?$AA?5?$AAR?$AAi?$AAn?$AAg?$AAt?$AAo?$AAn?$AAe?$AAs?$AA?$AA@ 1000390c     k.coredll_ALL:fileinfo.obj
 0001:00002928       ??_C@_1O@GDCODDIN@?$AAT?$AAh?$AAe?$AAm?$AAe?$AAs?$AA?$AA@ 10003928     k.coredll_ALL:fileinfo.obj
 0001:00002938       ??_C@_1BA@CBCBMBGJ@?$AAD?$AAe?$AAs?$AAk?$AAt?$AAo?$AAp?$AA?$AA@ 10003938     k.coredll_ALL:fileinfo.obj
 0001:00002948       ??_C@_1BG@KKMFCJJO@?$AAS?$AAt?$AAa?$AAr?$AAt?$AA?5?$AAM?$AAe?$AAn?$AAu?$AA?$AA@ 10003948     k.coredll_ALL:fileinfo.obj
 0001:00002960       ??_C@_1BC@IEKACCOI@?$AAM?$AAy?$AA?5?$AAM?$AAu?$AAs?$AAi?$AAc?$AA?$AA@ 10003960     k.coredll_ALL:fileinfo.obj
 0001:00002974       ??_C@_1BE@PPMKFLIL@?$AAM?$AAy?$AA?5?$AAV?$AAi?$AAd?$AAe?$AAo?$AAs?$AA?$AA@ 10003974     k.coredll_ALL:fileinfo.obj
 0001:00002988       ??_C@_1O@CMKINKFN@?$AAR?$AAe?$AAc?$AAe?$AAn?$AAt?$AA?$AA@ 10003988     k.coredll_ALL:fileinfo.obj
 0001:00002998       ??_C@_1BC@PBJCNCJO@?$AAP?$AAr?$AAo?$AAg?$AAr?$AAa?$AAm?$AAs?$AA?$AA@ 10003998     k.coredll_ALL:fileinfo.obj
 0001:000029ac       ??_C@_1BK@MJDABIGH@?$AAM?$AAy?$AA?5?$AAD?$AAo?$AAc?$AAu?$AAm?$AAe?$AAn?$AAt?$AAs?$AA?$AA@ 100039ac     k.coredll_ALL:fileinfo.obj
 0001:000029c8       ??_C@_1BE@PDPMPIAC@?$AAF?$AAa?$AAv?$AAo?$AAr?$AAi?$AAt?$AAe?$AAs?$AA?$AA@ 100039c8     k.coredll_ALL:fileinfo.obj
 0001:000029dc       ??_C@_1BA@FPDLCHBC@?$AAS?$AAt?$AAa?$AAr?$AAt?$AAU?$AAp?$AA?$AA@ 100039dc     k.coredll_ALL:fileinfo.obj
 0001:000029ec       ??_C@_1BI@IGBINLPG@?$AAc?$AAe?$AAs?$AAh?$AAe?$AAl?$AAl?$AA?4?$AAd?$AAl?$AAl?$AA?$AA@ 100039ec     k.coredll_ALL:shmisc.obj
 0001:00002a04       ??_C@_1BK@HMCKJION@?$AAa?$AAy?$AAg?$AAs?$AAh?$AAe?$AAl?$AAl?$AA?4?$AAd?$AAl?$AAl?$AA?$AA@ 10003a04     k.coredll_ALL:shmisc.obj
 0001:00002a20       ??_C@_1CE@LINGOCGE@?$AAS?$AAH?$AAS?$AAh?$AAo?$AAw?$AAO?$AAu?$AAt?$AAO?$AAf?$AAM?$AAe?$AAm?$AAo?$AAr?$AAy?$AA?$AA@ 10003a20     k.coredll_ALL:shmisc.obj
 0001:00002a44       ??_C@_1DG@DBMHEFHA@?$AAS?$AAI?$AAP?$AA?5?$AAW?$AAn?$AAd?$AA?5?$AAA?$AAu?$AAt?$AAo?$AA?9?$AAD?$AAe?$AAp?$AAl?$AAo?$AAy?$AA?5?$AAS?$AAt?$AAa?$AAt?$AAu?$AAs?$AA?$AA@ 10003a44     k.coredll_ALL:sipauto.obj
 0001:00002a88       ??_C@_17OADJODNB@?$AA?$CF?$AAl?$AAd?$AA?$AA@ 10003a88     k.coredll_ALL:shlexec.obj
 0001:00002a90       ??_C@_15BHOFONJE@?$AA?$CF?$AAX?$AA?$AA@ 10003a90     k.coredll_ALL:shlexec.obj
 0001:00002a98       ??_C@_1BO@LNMJHMPG@?$AAM?$AAD?$AAP?$AAG?$AA?2?$AAA?$AAp?$AAp?$AAL?$AAa?$AAu?$AAn?$AAc?$AAh?$AA?$AA@ 10003a98     k.coredll_ALL:shlexec.obj
 0001:00002ab8       ??_C@_1BE@DKFDNDOE@?$AAL?$AAa?$AAu?$AAn?$AAc?$AAh?$AAi?$AAn?$AAg?$AA?$AA@ 10003ab8     k.coredll_ALL:shlexec.obj
 0001:00002acc       ??_C@_19GBMGDAIM@?$AA?$CC?$AA?$CF?$AAs?$AA?$CC?$AA?$AA@ 10003acc     k.coredll_ALL:shlexec.obj
 0001:00002ad8       ??_C@_1CI@MAEFHGE@?$AA?$CF?$AAs?$AA?2?$AAS?$AAh?$AAe?$AAl?$AAl?$AA?2?$AA?$CF?$AAs?$AA?2?$AAC?$AAo?$AAm?$AAm?$AAa?$AAn?$AAd?$AA?$AA@ 10003ad8     k.coredll_ALL:shlexec.obj
 0001:00002b00       ??_C@_13NEIAEHFG@?$AA?$CC?$AA?$AA@ 10003b00     k.coredll_ALL:shlexec.obj
 0001:00002b04       ??_C@_19DOGDICKI@?$AA?4?$AAe?$AAx?$AAe?$AA?$AA@ 10003b04     k.coredll_ALL:shlexec.obj
 0001:00002b10       ??_C@_19FJECFBDK@?$AA?3?$AA?3?$AA?$CF?$AAs?$AA?$AA@ 10003b10     k.coredll_ALL:shlexec.obj
 0001:00002b1c       ??_C@_1M@MOFLFCEC@?$AA?$CF?$AAs?$AA?5?$AA?$CF?$AAs?$AA?$AA@ 10003b1c     k.coredll_ALL:shlexec.obj
 0001:00002b28       ??_C@_1CC@IAKDAMCL@?$AAS?$AAh?$AAe?$AAl?$AAl?$AA?2?$AA?$CF?$AAs?$AA?2?$AAC?$AAo?$AAm?$AAm?$AAa?$AAn?$AAd?$AA?$AA@ 10003b28     k.coredll_ALL:shlexec.obj
 0001:00002b4c       ??_C@_19BDAJEHDN@?$AAo?$AAp?$AAe?$AAn?$AA?$AA@ 10003b4c     k.coredll_ALL:shlexec.obj
 0001:00002b58       ??_C@_1BK@IBPJPEFD@?$AAU?$AAR?$AAL?$AA?5?$AAP?$AAr?$AAo?$AAt?$AAo?$AAc?$AAo?$AAl?$AA?$AA@ 10003b58     k.coredll_ALL:shlexec.obj
 0001:00002b74       ??_C@_1M@COFMOMBK@?$AAf?$AAi?$AAl?$AAe?$AA?3?$AA?$AA@ 10003b74     k.coredll_ALL:shlexec.obj
 0001:00002b80       ??_C@_1BA@FLCPIJCD@?$AAf?$AAi?$AAl?$AAe?$AA?3?$AA?1?$AA?1?$AA?$AA@ 10003b80     k.coredll_ALL:shlexec.obj
 0001:00002b90       ??_C@_1M@GDKKHBKI@?$AAS?$AAI?$AAP?$AA0?$AA?3?$AA?$AA@ 10003b90     k.coredll_ALL:sipapi.obj
 0001:00002b9c       wszKey                     10003b9c     k.coredll_ALL:stioinit.obj
 0001:00002bbc       wszValName                 10003bbc     k.coredll_ALL:stioinit.obj
 0001:00002bd0       wszSpeedValName            10003bd0     k.coredll_ALL:stioinit.obj
 0001:00002be4       ??_C@_0BA@OFEKGFFN@GetCommTimeouts?$AA@ 10003be4     k.coredll_ALL:stioinit.obj
 0001:00002bf4       ??_C@_0N@NHAHINCA@GetCommState?$AA@ 10003bf4     k.coredll_ALL:stioinit.obj
 0001:00002c04       ??_C@_0BA@NHFMBHEE@SetCommTimeouts?$AA@ 10003c04     k.coredll_ALL:stioinit.obj
 0001:00002c14       ??_C@_0N@KDLJEBGM@SetCommState?$AA@ 10003c14     k.coredll_ALL:stioinit.obj
 0001:00002c24       ??_C@_1CA@PMHDNDGC@?$AAD?$AAr?$AAi?$AAv?$AAe?$AAr?$AAs?$AA?2?$AAC?$AAo?$AAn?$AAs?$AAo?$AAl?$AAe?$AA?$AA@ 10003c24     k.coredll_ALL:stioinit.obj
 0001:00002c44       ??_C@_0BB@HKOKMKHD@ActivateDeviceEx?$AA@ 10003c44     k.coredll_ALL:stioinit.obj
 0001:00002c58       ??_C@_0BB@IKFCLJM@DeactivateDevice?$AA@ 10003c58     k.coredll_ALL:stioinit.obj
 0001:00002c6c       ??_C@_0CD@MKCILEDE@GetDeviceInformationByDeviceHand@ 10003c6c     k.coredll_ALL:stioinit.obj
 0001:00002c90       ??_C@_1M@FFOOHKJB@?$AAC?$AAO?$AAX?$AAX?$AA?3?$AA?$AA@ 10003c90     k.coredll_ALL:stioinit.obj
 0001:00002cc0       ??_7bad_cast@std@@6B@      10003cc0     k.coredll_ALL:rtti.obj
 0001:00002ccc       ??_7bad_typeid@std@@6B@    10003ccc     k.coredll_ALL:rtti.obj
 0001:00002cd8       ??_7__non_rtti_object@std@@6B@ 10003cd8     k.coredll_ALL:rtti.obj
 0001:00002ce0       ??_C@_0CE@FFJAJLDK@Attempted?5a?5typeid?5of?5NULL?5point@ 10003ce0     k.coredll_ALL:rtti.obj
 0001:00002d04       ??_C@_0CB@CGKGGDFI@Access?5violation?5?9?5no?5RTTI?5data?$CB@ 10003d04     k.coredll_ALL:rtti.obj
 0001:00002d28       ??_C@_0BC@JNJNLHBP@Bad?5dynamic_cast?$CB?$AA@ 10003d28     k.coredll_ALL:rtti.obj
 0001:00002d3c       DoubleFormat               10003d3c     k.coredll_ALL:intrncvt.obj
 0001:00002d54       FloatFormat                10003d54     k.coredll_ALL:intrncvt.obj
 0001:00002d6c       ??_C@_1M@OLNOBINK@?$AA?$CF?$AA0?$AA8?$AAl?$AAx?$AA?$AA@ 10003d6c     k.coredll_ALL:tapilib.obj
 0001:00002d78       ??_C@_1M@FMBJDHJK@?$AAP?$AAH?$AAO?$AAN?$AAE?$AA?$AA@ 10003d78     k.coredll_ALL:tapilib.obj
 0001:00002d84       ??_C@_19DHLJGKHC@?$AAL?$AAI?$AAN?$AAE?$AA?$AA@ 10003d84     k.coredll_ALL:tapilib.obj
 0001:00002d90       ??_C@_19KDCPGMII@?$AAT?$AAA?$AAP?$AAI?$AA?$AA@ 10003d90     k.coredll_ALL:tapilib.obj
 0001:00002d9c       ??_C@_0BA@OEECKJGD@BCryptGenRandom?$AA@ 10003d9c     k.coredll_ALL:rand_s.obj
 0001:00002dac       ??_C@_1BG@OACMLAMN@?$AAB?$AAC?$AAR?$AAY?$AAP?$AAT?$AA?4?$AAD?$AAL?$AAL?$AA?$AA@ 10003dac     k.coredll_ALL:rand_s.obj
 0001:00002dc4       ??_C@_0BB@CBCHFKM@DefaultImeWndGet?$AA@ 10003dc4     k.coredll_ALL:immpriv.obj
 0001:00002dd8       ??_C@_0BD@FONIKLPM@ImmGetIMCLockCount?$AA@ 10003dd8     k.coredll_ALL:immpriv.obj
 0001:00002dec       ??_C@_0O@FMCBOIJM@ImmCreateIMCC?$AA@ 10003dec     k.coredll_ALL:immpriv.obj
 0001:00002dfc       ??_C@_0P@GODJKMIA@ImmDestroyIMCC?$AA@ 10003dfc     k.coredll_ALL:immpriv.obj
 0001:00002e0c       ??_C@_0O@CINKLALG@ImmReSizeIMCC?$AA@ 10003e0c     k.coredll_ALL:immpriv.obj
 0001:00002e1c       ??_C@_0P@DIHAJOAP@ImmGetIMCCSize?$AA@ 10003e1c     k.coredll_ALL:immpriv.obj
 0001:00002e2c       ??_C@_0BB@FCFPOMFK@ImmCreateContext?$AA@ 10003e2c     k.coredll_ALL:immpriv.obj
 0001:00002e40       ??_C@_0L@JGAMEFKO@ImmLockIMC?$AA@ 10003e40     k.coredll_ALL:immpriv.obj
 0001:00002e4c       ??_C@_0N@PDIACEGP@ImmUnlockIMC?$AA@ 10003e4c     k.coredll_ALL:immpriv.obj
 0001:00002e5c       ??_C@_0BC@MABKKECL@ImmDestroyContext?$AA@ 10003e5c     k.coredll_ALL:immpriv.obj
 0001:00002e70       ??_C@_0BB@GAPKNCDL@ImmGetOpenStatus?$AA@ 10003e70     k.coredll_ALL:immpriv.obj
 0001:00002e84       ??_C@_0BB@BPOEGBEM@ImmSetOpenStatus?$AA@ 10003e84     k.coredll_ALL:immpriv.obj
 0001:00002e98       ??_C@_0O@JHCEAIH@DefaultImcGet?$AA@ 10003e98     k.coredll_ALL:immpriv.obj
 0001:00002ea8       ??_C@_0BE@NEOMLMGC@ImmSetActiveContext?$AA@ 10003ea8     k.coredll_ALL:immpriv.obj
 0001:00002ebc       ??_C@_0BE@BDEIBNIK@ImmAssociateContext?$AA@ 10003ebc     k.coredll_ALL:immpriv.obj
 0001:00002ed0       ??_C@_0BG@DDNNLDIF@ImmAssociateContextEx?$AA@ 10003ed0     k.coredll_ALL:immpriv.obj
 0001:00002ee8       ??_C@_0BG@CBDHANEM@ImmGetCandidateWindow?$AA@ 10003ee8     k.coredll_ALL:immpriv.obj
 0001:00002f00       ??_C@_0BH@PFJIAOEP@ImmGetCompositionFontW?$AA@ 10003f00     k.coredll_ALL:immpriv.obj
 0001:00002f18       ??_C@_0BI@OLHJLMOO@ImmGetCompositionWindow?$AA@ 10003f18     k.coredll_ALL:immpriv.obj
 0001:00002f30       ??_C@_0BH@GMNMAKPF@ImmGetConversionStatus?$AA@ 10003f30     k.coredll_ALL:immpriv.obj
 0001:00002f48       ??_C@_0BG@IALGDJND@ImmGetStatusWindowPos?$AA@ 10003f48     k.coredll_ALL:immpriv.obj
 0001:00002f60       ??_C@_0BJ@BIPOEMOA@ImmGetCompositionStringW?$AA@ 10003f60     k.coredll_ALL:immpriv.obj
 0001:00002f7c       ??_C@_0BK@CMGCELA@ImmGetCandidateListCountW?$AA@ 10003f7c     k.coredll_ALL:immpriv.obj
 0001:00002f98       ??_C@_0BF@INEDHPDK@ImmGetCandidateListW?$AA@ 10003f98     k.coredll_ALL:immpriv.obj
 0001:00002fb0       ??_C@_0BB@IKGELMKC@ImmGetGuideLineW?$AA@ 10003fb0     k.coredll_ALL:immpriv.obj
 0001:00002fc4       ??_C@_0BG@NLBNDLKE@ImmSetCandidateWindow?$AA@ 10003fc4     k.coredll_ALL:immpriv.obj
 0001:00002fdc       ??_C@_0BH@FLLDEODD@ImmSetCompositionFontW?$AA@ 10003fdc     k.coredll_ALL:immpriv.obj
 0001:00002ff4       ??_C@_0BI@LCGEKKLJ@ImmSetCompositionWindow?$AA@ 10003ff4     k.coredll_ALL:immpriv.obj
 0001:0000300c       ??_C@_0BH@MCPHEKIJ@ImmSetConversionStatus?$AA@ 1000400c     k.coredll_ALL:immpriv.obj
 0001:00003024       ??_C@_0BG@HKJMAPDL@ImmSetStatusWindowPos?$AA@ 10004024     k.coredll_ALL:immpriv.obj
 0001:0000303c       ??_C@_0BJ@ONKIJFKB@ImmSetCompositionStringW?$AA@ 1000403c     k.coredll_ALL:immpriv.obj
 0001:00003058       ??_C@_0BG@CEMBACJL@ImmGetConversionListW?$AA@ 10004058     k.coredll_ALL:immpriv.obj
 0001:00003070       ??_C@_0BE@LPNAGBML@ImmGetDefaultIMEWnd?$AA@ 10004070     k.coredll_ALL:immpriv.obj
 0001:00003084       ??_C@_0BD@LAEMGHE@ImmGenerateMessage?$AA@ 10004084     k.coredll_ALL:immpriv.obj
 0001:00003098       ??_C@_0BB@CEHHIDO@ImmGetVirtualKey?$AA@ 10004098     k.coredll_ALL:immpriv.obj
 0001:000030ac       ??_C@_0BF@LOBGHPAI@ImmGetKeyboardLayout?$AA@ 100040ac     k.coredll_ALL:immpriv.obj
 0001:000030c4       ??_C@_0N@DGMAHKKE@ImmEnableIME?$AA@ 100040c4     k.coredll_ALL:immpriv.obj
 0001:000030d4       ??_C@_0O@IBBIJLBJ@ImmDisableIME?$AA@ 100040d4     k.coredll_ALL:immpriv.obj
 0001:000030e4       ??_C@_0N@OLIMKHEA@ImmNotifyIME?$AA@ 100040e4     k.coredll_ALL:immpriv.obj
 0001:000030f4       ??_C@_0L@PGFOMHLI@ImmEscapeW?$AA@ 100040f4     k.coredll_ALL:immpriv.obj
 0001:00003100       ??_C@_0BC@BECLFCLJ@ImmActivateLayout?$AA@ 10004100     k.coredll_ALL:immpriv.obj
 0001:00003114       ??_C@_0BE@GBDDC@ImmSendNotification?$AA@ 10004114     k.coredll_ALL:immpriv.obj
 0001:00003128       ??_C@_0BB@EAHIHCJ@ImmRegisterWordW?$AA@ 10004128     k.coredll_ALL:immpriv.obj
 0001:0000313c       ??_C@_0BD@JDHCBEIN@ImmUnregisterWordW?$AA@ 1000413c     k.coredll_ALL:immpriv.obj
 0001:00003150       ??_C@_0BJ@HMLILJCH@ImmGetRegisterWordStyleW?$AA@ 10004150     k.coredll_ALL:immpriv.obj
 0001:0000316c       ??_C@_0BF@MCKFHGFC@ImmEnumRegisterWordW?$AA@ 1000416c     k.coredll_ALL:immpriv.obj
 0001:00003184       ??_C@_0BB@IEDKBENO@ImmConfigureIMEW?$AA@ 10004184     k.coredll_ALL:immpriv.obj
 0001:00003198       ??_C@_0BE@PBHEJAFK@ImmGetImeMenuItemsW?$AA@ 10004198     k.coredll_ALL:immpriv.obj
 0001:000031ac       ??_C@_08EPDNLFJN@ImmIsIME?$AA@ 100041ac     k.coredll_ALL:immpriv.obj
 0001:000031b8       ??_C@_0BD@HPLFKLEC@ImmGetIMEFileNameW?$AA@ 100041b8     k.coredll_ALL:immpriv.obj
 0001:000031cc       ??_C@_0BD@CPFBAGDA@ImmGetDescriptionW?$AA@ 100041cc     k.coredll_ALL:immpriv.obj
 0001:000031e0       ??_C@_0BC@BOFPIAIK@ImmGetUIClassName?$AA@ 100041e0     k.coredll_ALL:immpriv.obj
 0001:000031f4       ??_C@_0P@KLJNOAPA@ImmGetProperty?$AA@ 100041f4     k.coredll_ALL:immpriv.obj
 0001:00003204       ??_C@_0BC@OMCMFCHK@ImmSimulateHotKey?$AA@ 10004204     k.coredll_ALL:immpriv.obj
 0001:00003218       ??_C@_0BE@HEMDDHKL@ImmTranslateMessage?$AA@ 10004218     k.coredll_ALL:immpriv.obj
 0001:0000322c       ??_C@_0O@HPILKKJJ@ImmProcessKey?$AA@ 1000422c     k.coredll_ALL:immpriv.obj
 0001:0000323c       ??_C@_0BA@IFKAHMPP@ImmSetImeWndIMC?$AA@ 1000423c     k.coredll_ALL:immpriv.obj
 0001:0000324c       ??_C@_0BD@FLEKJJEI@ImmRequestMessageW?$AA@ 1000424c     k.coredll_ALL:immpriv.obj
 0001:00003260       ??_C@_0BB@MMPIGEFO@ImmUpdateHKLList?$AA@ 10004260     k.coredll_ALL:immpriv.obj
 0001:00003274       ??_C@_0BK@CFCOFLF@?5Complete?5Object?5Locator?8?$AA@ 10004274     k.coredll_ALL:undname.obj
 0001:00003290       ??_C@_0BN@MECKDCOJ@?5Class?5Hierarchy?5Descriptor?8?$AA@ 10004290     k.coredll_ALL:undname.obj
 0001:000032b0       ??_C@_0BD@LGICGFMM@?5Base?5Class?5Array?8?$AA@ 100042b0     k.coredll_ALL:undname.obj
 0001:000032c4       ??_C@_0BM@LDKODKLH@?5Base?5Class?5Descriptor?5at?5?$CI?$AA@ 100042c4     k.coredll_ALL:undname.obj
 0001:000032e0       ??_C@_0BC@DAFEJGAK@?5Type?5Descriptor?8?$AA@ 100042e0     k.coredll_ALL:undname.obj
 0001:000032f4       ??_C@_0BM@PMGGMLDN@?$GAlocal?5static?5thread?5guard?8?$AA@ 100042f4     k.coredll_ALL:undname.obj
 0001:00003310       ??_C@_0CL@FGIJHLCE@?$GAmanaged?5vector?5copy?5constructor@ 10004310     k.coredll_ALL:undname.obj
 0001:0000333c       ??_C@_0CJ@GJELGAMM@?$GAvector?5vbase?5copy?5constructor?5i@ 1000433c     k.coredll_ALL:undname.obj
 0001:00003368       ??_C@_0CD@CGAJBKEJ@?$GAvector?5copy?5constructor?5iterato@ 10004368     k.coredll_ALL:undname.obj
 0001:0000338c       ??_C@_0CB@PDBIFEP@?$GAdynamic?5atexit?5destructor?5for?5?8@ 1000438c     k.coredll_ALL:undname.obj
 0001:000033b0       ??_C@_0BL@CLIPGLGB@?$GAdynamic?5initializer?5for?5?8?$AA@ 100043b0     k.coredll_ALL:undname.obj
 0001:000033cc       ??_C@_0CM@FCBBDIGB@?$GAeh?5vector?5vbase?5copy?5constructo@ 100043cc     k.coredll_ALL:undname.obj
 0001:000033f8       ??_C@_0CG@HLDDJMAG@?$GAeh?5vector?5copy?5constructor?5iter@ 100043f8     k.coredll_ALL:undname.obj
 0001:00003420       ??_C@_0CF@IMGKMJNO@?$GAmanaged?5vector?5destructor?5itera@ 10004420     k.coredll_ALL:undname.obj
 0001:00003448       ??_C@_0CG@CFDHKGGD@?$GAmanaged?5vector?5constructor?5iter@ 10004448     k.coredll_ALL:undname.obj
 0001:00003470       ??_C@_0BN@CKNJLHMB@?$GAplacement?5delete?$FL?$FN?5closure?8?$AA@ 10004470     k.coredll_ALL:undname.obj
 0001:00003490       ??_C@_0BL@CNOONJFP@?$GAplacement?5delete?5closure?8?$AA@ 10004490     k.coredll_ALL:undname.obj
 0001:000034ac       ??_C@_0P@HJKNJFNN@?$GAomni?5callsig?8?$AA@ 100044ac     k.coredll_ALL:undname.obj
 0001:000034bc       ??_C@_09LBNFPBCA@?5delete?$FL?$FN?$AA@ 100044bc     k.coredll_ALL:undname.obj
 0001:000034c8       ??_C@_06FHBGPFGH@?5new?$FL?$FN?$AA@ 100044c8     k.coredll_ALL:undname.obj
 0001:000034d0       ??_C@_0CE@IIHCMGGL@?$GAlocal?5vftable?5constructor?5closu@ 100044d0     k.coredll_ALL:undname.obj
 0001:000034f4       ??_C@_0BA@KKLDJDLB@?$GAlocal?5vftable?8?$AA@ 100044f4     k.coredll_ALL:undname.obj
 0001:00003504       ??_C@_05KHLCHHI@?$GARTTI?$AA@ 10004504     k.coredll_ALL:undname.obj
 0001:0000350c       ??_C@_03KLGMFNMG@?$GAEH?$AA@ 1000450c     k.coredll_ALL:undname.obj
 0001:00003510       ??_C@_0BA@KBCDOMBN@?$GAudt?5returning?8?$AA@ 10004510     k.coredll_ALL:undname.obj
 0001:00003520       ??_C@_0BL@LLKPOHJI@?$GAcopy?5constructor?5closure?8?$AA@ 10004520     k.coredll_ALL:undname.obj
 0001:0000353c       ??_C@_0CH@OOJPLCPH@?$GAeh?5vector?5vbase?5constructor?5ite@ 1000453c     k.coredll_ALL:undname.obj
 0001:00003564       ??_C@_0CA@GCEOPDGL@?$GAeh?5vector?5destructor?5iterator?8?$AA@ 10004564     k.coredll_ALL:undname.obj
 0001:00003584       ??_C@_0CB@JONCMFFK@?$GAeh?5vector?5constructor?5iterator?8@ 10004584     k.coredll_ALL:undname.obj
 0001:000035a8       ??_C@_0BL@NILFHHPC@?$GAvirtual?5displacement?5map?8?$AA@ 100045a8     k.coredll_ALL:undname.obj
 0001:000035c4       ??_C@_0CE@IKBNEHA@?$GAvector?5vbase?5constructor?5iterat@ 100045c4     k.coredll_ALL:undname.obj
 0001:000035e8       ??_C@_0BN@LFPFMEDL@?$GAvector?5destructor?5iterator?8?$AA@ 100045e8     k.coredll_ALL:undname.obj
 0001:00003608       ??_C@_0BO@PFGOCPJJ@?$GAvector?5constructor?5iterator?8?$AA@ 10004608     k.coredll_ALL:undname.obj
 0001:00003628       ??_C@_0BN@IMDCHIKM@?$GAscalar?5deleting?5destructor?8?$AA@ 10004628     k.coredll_ALL:undname.obj
 0001:00003648       ??_C@_0BO@OBMKPJIG@?$GAdefault?5constructor?5closure?8?$AA@ 10004648     k.coredll_ALL:undname.obj
 0001:00003668       ??_C@_0BN@DEGPLNFK@?$GAvector?5deleting?5destructor?8?$AA@ 10004668     k.coredll_ALL:undname.obj
 0001:00003688       ??_C@_0BD@JDLKDPAB@?$GAvbase?5destructor?8?$AA@ 10004688     k.coredll_ALL:undname.obj
 0001:0000369c       ??_C@_08OBABFOLI@?$GAstring?8?$AA@ 1000469c     k.coredll_ALL:undname.obj
 0001:000036a8       ??_C@_0BF@KDPPACIK@?$GAlocal?5static?5guard?8?$AA@ 100046a8     k.coredll_ALL:undname.obj
 0001:000036c0       ??_C@_08LLFFHHDJ@?$GAtypeof?8?$AA@ 100046c0     k.coredll_ALL:undname.obj
 0001:000036cc       ??_C@_07FEEIOKP@?$GAvcall?8?$AA@ 100046cc     k.coredll_ALL:undname.obj
 0001:000036d4       ??_C@_09BLBHBJP@?$GAvbtable?8?$AA@ 100046d4     k.coredll_ALL:undname.obj
 0001:000036e0       ??_C@_09IFPLHPGF@?$GAvftable?8?$AA@ 100046e0     k.coredll_ALL:undname.obj
 0001:000036ec       ??_C@_02MHEGNOJ@?$FO?$DN?$AA@ 100046ec     k.coredll_ALL:undname.obj
 0001:000036f0       ??_C@_02DHLNPPGH@?$HM?$DN?$AA@ 100046f0     k.coredll_ALL:undname.obj
 0001:000036f4       ??_C@_02FGJGFEAB@?$CG?$DN?$AA@ 100046f4     k.coredll_ALL:undname.obj
 0001:000036f8       ??_C@_03CDNPDDLA@?$DM?$DM?$DN?$AA@ 100046f8     k.coredll_ALL:undname.obj
 0001:000036fc       ??_C@_03IKFCCPFF@?$DO?$DO?$DN?$AA@ 100046fc     k.coredll_ALL:undname.obj
 0001:00003700       ??_C@_02FENAOKFI@?$CF?$DN?$AA@ 10004700     k.coredll_ALL:undname.obj
 0001:00003704       ??_C@_02FJEHGPIO@?1?$DN?$AA@ 10004704     k.coredll_ALL:undname.obj
 0001:00003708       ??_C@_02FKMDLLOA@?9?$DN?$AA@ 10004708     k.coredll_ALL:undname.obj
 0001:0000370c       ??_C@_02FOEOMHFC@?$CL?$DN?$AA@ 1000470c     k.coredll_ALL:undname.obj
 0001:00003710       ??_C@_02FPIMKNGF@?$CK?$DN?$AA@ 10004710     k.coredll_ALL:undname.obj
 0001:00003714       ??_C@_02NONPIBCD@?$HM?$HM?$AA@ 10004714     k.coredll_ALL:undname.obj
 0001:00003718       ??_C@_02PPKAJPJL@?$CG?$CG?$AA@ 10004718     k.coredll_ALL:undname.obj
 0001:0000371c       ??_C@_01DNKMNLPK@?$HM?$AA@ 1000471c     k.coredll_ALL:undname.obj
 0001:00003720       ??_C@_01JKBOJNNK@?$FO?$AA@ 10004720     k.coredll_ALL:undname.obj
 0001:00003724       ??_C@_01PJKLJHI@?$HO?$AA@  10004724     k.coredll_ALL:undname.obj
 0001:00003728       ??_C@_02HCKGKOFO@?$CI?$CJ?$AA@ 10004728     k.coredll_ALL:undname.obj
 0001:0000372c       ??_C@_01IHBHIGKO@?0?$AA@   1000472c     k.coredll_ALL:undname.obj
 0001:00003730       ??_C@_02EEKDKGMJ@?$DO?$DN?$AA@ 10004730     k.coredll_ALL:undname.obj
 0001:00003734       ??_C@_01PPODPGHN@?$DO?$AA@ 10004734     k.coredll_ALL:undname.obj
 0001:00003738       ??_C@_02EHCHHCKH@?$DM?$DN?$AA@ 10004738     k.coredll_ALL:undname.obj
 0001:0000373c       ??_C@_01MNNFJEPP@?$DM?$AA@ 1000473c     k.coredll_ALL:undname.obj
 0001:00003740       ??_C@_01FGNFDNOH@?$CF?$AA@ 10004740     k.coredll_ALL:undname.obj
 0001:00003744       ??_C@_01KMDKNFGN@?1?$AA@   10004744     k.coredll_ALL:undname.obj
 0001:00003748       ??_C@_03MNHNFDLC@?9?$DO?$CK?$AA@ 10004748     k.coredll_ALL:undname.obj
 0001:0000374c       ??_C@_01HNPIGOCE@?$CG?$AA@ 1000474c     k.coredll_ALL:undname.obj
 0001:00003750       ??_C@_01MIFGBAGJ@?$CL?$AA@ 10004750     k.coredll_ALL:undname.obj
 0001:00003754       ??_C@_01JOAMLHOP@?9?$AA@   10004754     k.coredll_ALL:undname.obj
 0001:00003758       ??_C@_02BAABKJLB@?9?9?$AA@ 10004758     k.coredll_ALL:undname.obj
 0001:0000375c       ??_C@_02ECNGHCIF@?$CL?$CL?$AA@ 1000475c     k.coredll_ALL:undname.obj
 0001:00003760       ??_C@_01NBENCBCI@?$CK?$AA@ 10004760     k.coredll_ALL:undname.obj
 0001:00003764       ??_C@_02HBOOOICD@?9?$DO?$AA@ 10004764     k.coredll_ALL:undname.obj
 0001:00003768       ??_C@_08LHJFAFGD@operator?$AA@ 10004768     k.coredll_ALL:undname.obj
 0001:00003774       ??_C@_02GPECMEKF@?$FL?$FN?$AA@ 10004774     k.coredll_ALL:undname.obj
 0001:00003778       ??_C@_02FDNJECIE@?$CB?$DN?$AA@ 10004778     k.coredll_ALL:undname.obj
 0001:0000377c       ??_C@_02EGOFBIJA@?$DN?$DN?$AA@ 1000477c     k.coredll_ALL:undname.obj
 0001:00003780       ??_C@_01DCLJPIOD@?$CB?$AA@ 10004780     k.coredll_ALL:undname.obj
 0001:00003784       ??_C@_02FODMEDOG@?$DM?$DM?$AA@ 10004784     k.coredll_ALL:undname.obj
 0001:00003788       ??_C@_02GPIOPFAK@?$DO?$DO?$AA@ 10004788     k.coredll_ALL:undname.obj
 0001:0000378c       ??_C@_01NEMOKFLO@?$DN?$AA@ 1000478c     k.coredll_ALL:undname.obj
 0001:00003790       ??_C@_07FPCDHGMM@?5delete?$AA@ 10004790     k.coredll_ALL:undname.obj
 0001:00003798       ??_C@_04NIHEBCM@?5new?$AA@ 10004798     k.coredll_ALL:undname.obj
 0001:000037a0       ??_C@_0M@GFIIJFMG@__unaligned?$AA@ 100047a0     k.coredll_ALL:undname.obj
 0001:000037ac       ??_C@_0L@PILCLIHE@__restrict?$AA@ 100047ac     k.coredll_ALL:undname.obj
 0001:000037b8       ??_C@_07JOMMBBKO@__ptr64?$AA@ 100047b8     k.coredll_ALL:undname.obj
 0001:000037c0       ??_C@_06GHPCKEAG@__eabi?$AA@ 100047c0     k.coredll_ALL:undname.obj
 0001:000037c8       ??_C@_09HIJEGCPM@__clrcall?$AA@ 100047c8     k.coredll_ALL:undname.obj
 0001:000037d4       ??_C@_0L@JMKHOMEK@__fastcall?$AA@ 100047d4     k.coredll_ALL:undname.obj
 0001:000037e0       ??_C@_0L@NPHFGOKO@__thiscall?$AA@ 100047e0     k.coredll_ALL:undname.obj
 0001:000037ec       ??_C@_09IFJBGAPI@__stdcall?$AA@ 100047ec     k.coredll_ALL:undname.obj
 0001:000037f8       ??_C@_08GHMPAG@__pascal?$AA@ 100047f8     k.coredll_ALL:undname.obj
 0001:00003804       ??_C@_07KOLFKCDI@__cdecl?$AA@ 10004804     k.coredll_ALL:undname.obj
 0001:0000380c       ??_C@_08EHJDFFNH@__based?$CI?$AA@ 1000480c     k.coredll_ALL:undname.obj
 0001:000039a0       ??_7charNode@@6B@          100049a0     k.coredll_ALL:undname.obj
 0001:000039b0       ??_7pDNameNode@@6B@        100049b0     k.coredll_ALL:undname.obj
 0001:000039c0       ??_7DNameStatusNode@@6B@   100049c0     k.coredll_ALL:undname.obj
 0001:000039d0       ??_7pairNode@@6B@          100049d0     k.coredll_ALL:undname.obj
 0001:000039e0       ??_7pcharNode@@6B@         100049e0     k.coredll_ALL:undname.obj
 0001:000039ec       ??_C@_04OKOHEJBO@?5?$DP?$DP?5?$AA@ 100049ec     k.coredll_ALL:undname.obj
 0001:000039f4       ??_C@_06EEGAIFAK@?$HLflat?$HN?$AA@ 100049f4     k.coredll_ALL:undname.obj
 0001:000039fc       ??_C@_05JIBOFOHK@?$HLfor?5?$AA@ 100049fc     k.coredll_ALL:undname.obj
 0001:00003a04       ??_C@_0BN@IBLMMFAP@?$GAnon?9type?9template?9parameter?$AA@ 10004a04     k.coredll_ALL:undname.obj
 0001:00003a24       ??_C@_09EBBEKKIH@unsigned?5?$AA@ 10004a24     k.coredll_ALL:undname.obj
 0001:00003a30       ??_C@_05CJIMAING@long?5?$AA@ 10004a30     k.coredll_ALL:undname.obj
 0001:00003a38       ??_C@_04LAHKHJMA@int?5?$AA@ 10004a38     k.coredll_ALL:undname.obj
 0001:00003a40       ??_C@_06EHJMALKF@short?5?$AA@ 10004a40     k.coredll_ALL:undname.obj
 0001:00003a48       ??_C@_05CIHEBHNO@char?5?$AA@ 10004a48     k.coredll_ALL:undname.obj
 0001:00003a50       ??_C@_04GKJNKENE@void?$AA@ 10004a50     k.coredll_ALL:undname.obj
 0001:00003a58       ??_C@_0L@EGPHHEKN@?$DMellipsis?$DO?$AA@ 10004a58     k.coredll_ALL:undname.obj
 0001:00003a64       ??_C@_03KHICJKCI@?4?4?4?$AA@ 10004a64     k.coredll_ALL:undname.obj
 0001:00003a68       ??_C@_0M@ELJOJFFH@?0?$DMellipsis?$DO?$AA@ 10004a68     k.coredll_ALL:undname.obj
 0001:00003a74       ??_C@_04EENFHACM@?0?4?4?4?$AA@ 10004a74     k.coredll_ALL:undname.obj
 0001:00003a7c       ??_C@_07HDJPLPEK@?5throw?$CI?$AA@ 10004a7c     k.coredll_ALL:undname.obj
 0001:00003a84       ??_C@_02GOGNNPBN@?$CJ?$FL?$AA@ 10004a84     k.coredll_ALL:undname.obj
 0001:00003a88       ??_C@_02MDINNEEG@s?5?$AA@  10004a88     k.coredll_ALL:undname.obj
 0001:00003a8c       ??_C@_0BE@EODMJLIF@?$GAtemplate?9parameter?$AA@ 10004a8c     k.coredll_ALL:undname.obj
 0001:00003aa0       ??_C@_01GEODFPGF@?8?$AA@   10004aa0     k.coredll_ALL:undname.obj
 0001:00003aa4       ??_C@_04HIBGFPH@NULL?$AA@  10004aa4     k.coredll_ALL:undname.obj
 0001:00003aac       ??_C@_0O@GKABPPIF@cli?3?3pin_ptr?$DM?$AA@ 10004aac     k.coredll_ALL:undname.obj
 0001:00003abc       ??_C@_0M@EALIELKG@cli?3?3array?$DM?$AA@ 10004abc     k.coredll_ALL:undname.obj
 0001:00003ac8       ??_C@_05BEFAKPML@void?5?$AA@ 10004ac8     k.coredll_ALL:undname.obj
 0001:00003ad0       ??_C@_02OHHJMEON@?8?8?$AA@ 10004ad0     k.coredll_ALL:undname.obj
 0001:00003ad4       ??_C@_0BG@JNJLAMPM@?$GAanonymous?5namespace?8?$AA@ 10004ad4     k.coredll_ALL:undname.obj
 0001:00003aec       ??_C@_01NLNLIGKH@?$GA?$AA@ 10004aec     k.coredll_ALL:undname.obj
 0001:00003af0       ??_C@_0O@KHGCOMHP@generic?9type?9?$AA@ 10004af0     k.coredll_ALL:undname.obj
 0001:00003b00       ??_C@_0BE@JAEOCHPE@template?9parameter?9?$AA@ 10004b00     k.coredll_ALL:undname.obj
 0001:00003b14       ??_C@_02MOLJINC@?3?3?$AA@  10004b14     k.coredll_ALL:undname.obj
 0001:00003b18       ??_C@_0P@GCIFDJCJ@?$GAunknown?5ecsu?8?$AA@ 10004b18     k.coredll_ALL:undname.obj
 0001:00003b28       ??_C@_06MOJHIBMG@union?5?$AA@ 10004b28     k.coredll_ALL:undname.obj
 0001:00003b30       ??_C@_07DIBCDNGL@struct?5?$AA@ 10004b30     k.coredll_ALL:undname.obj
 0001:00003b38       ??_C@_06LJBABKPM@class?5?$AA@ 10004b38     k.coredll_ALL:undname.obj
 0001:00003b40       ??_C@_05LJGMCFOG@enum?5?$AA@ 10004b40     k.coredll_ALL:undname.obj
 0001:00003b48       ??_C@_08KOFANOFK@coclass?5?$AA@ 10004b48     k.coredll_ALL:undname.obj
 0001:00003b54       ??_C@_0N@DLIEFKNA@cointerface?5?$AA@ 10004b54     k.coredll_ALL:undname.obj
 0001:00003b64       ??_C@_02KCKGHPCA@?$CJ?5?$AA@ 10004b64     k.coredll_ALL:undname.obj
 0001:00003b68       ??_C@_0M@DHNBOJMP@extern?5?$CCC?$CC?5?$AA@ 10004b68     k.coredll_ALL:undname.obj
 0001:00003b74       ??_C@_08KJLFOPNE@?$FLthunk?$FN?3?$AA@ 10004b74     k.coredll_ALL:undname.obj
 0001:00003b80       ??_C@_08GPDDCMKI@public?3?5?$AA@ 10004b80     k.coredll_ALL:undname.obj
 0001:00003b8c       ??_C@_0M@GAIFPFIP@protected?3?5?$AA@ 10004b8c     k.coredll_ALL:undname.obj
 0001:00003b98       ??_C@_09LAPHOOG@private?3?5?$AA@ 10004b98     k.coredll_ALL:undname.obj
 0001:00003ba4       ??_C@_08NIEOINHE@virtual?5?$AA@ 10004ba4     k.coredll_ALL:undname.obj
 0001:00003bb0       ??_C@_07PGOEDBHP@static?5?$AA@ 10004bb0     k.coredll_ALL:undname.obj
 0001:00003bb8       ??_C@_0DA@HGFJFBBE@?$GAtemplate?5static?5data?5member?5des@ 10004bb8     k.coredll_ALL:undname.obj
 0001:00003be8       ??_C@_0DB@ILEFOCIJ@?$GAtemplate?5static?5data?5member?5con@ 10004be8     k.coredll_ALL:undname.obj
 0001:00003c1c       ??_C@_0CB@KJDOOODE@?$GAlocal?5static?5destructor?5helper?8@ 10004c1c     k.coredll_ALL:undname.obj
 0001:00003c40       ??_C@_0L@HNGCOGAE@?$GAadjustor?$HL?$AA@ 10004c40     k.coredll_ALL:undname.obj
 0001:00003c4c       ??_C@_0L@GHPFDFH@?$GAvtordisp?$HL?$AA@ 10004c4c     k.coredll_ALL:undname.obj
 0001:00003c58       ??_C@_0N@CBHHHENL@?$GAvtordispex?$HL?$AA@ 10004c58     k.coredll_ALL:undname.obj
 0001:00003c68       ??_C@_01CLKCMJKC@?5?$AA@   10004c68     k.coredll_ALL:undname.obj
 0001:00003c6c       ??_C@_02IGFCGPIL@?$HN?8?$AA@ 10004c6c     k.coredll_ALL:undname.obj
 0001:00003c70       ??_C@_03OPGICMGF@?$HN?8?5?$AA@ 10004c70     k.coredll_ALL:undname.obj
 0001:00003c74       ??_C@_06LIJLOJAG@const?5?$AA@ 10004c74     k.coredll_ALL:undname.obj
 0001:00003c7c       ??_C@_09GAIEOBLP@volatile?5?$AA@ 10004c7c     k.coredll_ALL:undname.obj
 0001:00003c88       ??_C@_04HEJADOOB@CV?3?5?$AA@ 10004c88     k.coredll_ALL:undname.obj
 0001:00003c90       ??_C@_08PABEKFH@volatile?$AA@ 10004c90     k.coredll_ALL:undname.obj
 0001:00003c9c       ??_C@_09EFNPDFFP@?5volatile?$AA@ 10004c9c     k.coredll_ALL:undname.obj
 0001:00003ca8       ??_C@_05BNCCCJPP@const?$AA@ 10004ca8     k.coredll_ALL:undname.obj
 0001:00003cb0       ??_C@_07EDHNAJHC@signed?5?$AA@ 10004cb0     k.coredll_ALL:undname.obj
 0001:00003cb8       ??_C@_04DDKJGDCM@bool?$AA@ 10004cb8     k.coredll_ALL:undname.obj
 0001:00003cc0       ??_C@_09EEKGDCPH@?$DMunknown?$DO?$AA@ 10004cc0     k.coredll_ALL:undname.obj
 0001:00003ccc       ??_C@_07CLGGIAMF@wchar_t?$AA@ 10004ccc     k.coredll_ALL:undname.obj
 0001:00003cd4       ??_C@_07NFANNNEC@UNKNOWN?$AA@ 10004cd4     k.coredll_ALL:undname.obj
 0001:00003cdc       ??_C@_08GAHOLHEO@__int128?$AA@ 10004cdc     k.coredll_ALL:undname.obj
 0001:00003ce8       ??_C@_07OFLPPHGP@__int32?$AA@ 10004ce8     k.coredll_ALL:undname.obj
 0001:00003cf0       ??_C@_07LFCOJCAC@__int64?$AA@ 10004cf0     k.coredll_ALL:undname.obj
 0001:00003cf8       ??_C@_07ICFHOGAF@__int16?$AA@ 10004cf8     k.coredll_ALL:undname.obj
 0001:00003d00       ??_C@_06GCICPBLB@__w64?5?$AA@ 10004d00     k.coredll_ALL:undname.obj
 0001:00003d08       ??_C@_06EBGKOKIG@__int8?$AA@ 10004d08     k.coredll_ALL:undname.obj
 0001:00003d10       ??_C@_06BNJCAIGJ@double?$AA@ 10004d10     k.coredll_ALL:undname.obj
 0001:00003d18       ??_C@_05KNFBNCOH@float?$AA@ 10004d18     k.coredll_ALL:undname.obj
 0001:00003d20       ??_C@_04GOKPGOLB@long?$AA@ 10004d20     k.coredll_ALL:undname.obj
 0001:00003d28       ??_C@_03JBIPMCLC@int?$AA@  10004d28     k.coredll_ALL:undname.obj
 0001:00003d2c       ??_C@_05BFKKPKCG@short?$AA@ 10004d2c     k.coredll_ALL:undname.obj
 0001:00003d34       ??_C@_04ENMBGAPA@char?$AA@ 10004d34     k.coredll_ALL:undname.obj
 0001:00003d3c       ??_C@_1BG@FGOLFIBN@?$AAS?$AAh?$AAi?$AAm?$AAE?$AAn?$AAg?$AAi?$AAn?$AAe?$AA?$AA@ 10004d3c     k.coredll_ALL:AppVerifier.obj
 0001:00003d54       ??_C@_1BK@GHKCOFPP@?$AAa?$AAp?$AAp?$AAv?$AAe?$AAr?$AAi?$AAf?$AA?4?$AAe?$AAx?$AAe?$AA?$AA@ 10004d54     k.coredll_ALL:AppVerifier.obj
 0001:00003d70       ??_C@_1BI@DCMBNCHE@?$AAA?$AAp?$AAp?$AAV?$AAe?$AAr?$AAi?$AAf?$AAi?$AAe?$AAr?$AA?$AA@ 10004d70     k.coredll_ALL:AppVerifier.obj
 0001:00003d88       ??_C@_1CC@GLPOLHKJ@?$AAG?$AAe?$AAt?$AAF?$AAu?$AAn?$AAc?$AAt?$AAi?$AAo?$AAn?$AAT?$AAa?$AAb?$AAl?$AAe?$AA?$AA@ 10004d88     k.coredll_ALL:AppVerifier.obj
 0001:00003dac       ??_C@_1M@PFGMOIKN@?$AA?$CF?$AAs?$AA?9?$AA?$CF?$AAS?$AA?$AA@ 10004dac     k.coredll_ALL:AppVerifier.obj
 0001:00003db8       ??_C@_1M@JIJACILF@?$AA?$CF?$AAs?$AA?9?$AA?$CF?$AAd?$AA?$AA@ 10004db8     k.coredll_ALL:AppVerifier.obj
 0001:00003dc4       ??_C@_1CE@PLOFIDKH@?$AAS?$AAh?$AAi?$AAm?$AAE?$AAn?$AAg?$AAi?$AAn?$AAe?$AA?2?$AA?$CF?$AAs?$AA?$CF?$AAs?$AA?$CF?$AAs?$AA?$AA@ 10004dc4     k.coredll_ALL:AppVerifier.obj
 0001:00003de8       ??_C@_15GMODHJMI@?$AAk?$AA?4?$AA?$AA@ 10004de8     k.coredll_ALL:AppVerifier.obj
 0001:00003df0       ??_C@_1O@BCNEIBLG@?$AAn?$AAk?$AA?4?$AAe?$AAx?$AAe?$AA?$AA@ 10004df0     k.coredll_ALL:AppVerifier.obj
 0001:00003e00       ??_C@_19BHIGINDB@?$AA?4?$AAd?$AAl?$AAl?$AA?$AA@ 10004e00     k.coredll_ALL:AppVerifier.obj
 0001:00003e0c       ??_C@_1M@IOPAHBLA@?$AA?$HL?$AAa?$AAl?$AAl?$AA?$HN?$AA?$AA@ 10004e0c     k.coredll_ALL:AppVerifier.obj
 0001:00003e18       ??_C@_1CA@FALALJKL@?$AAS?$AAh?$AAi?$AAm?$AAP?$AAr?$AAo?$AAc?$AAe?$AAs?$AAs?$AAD?$AAl?$AAl?$AAs?$AA?$AA@ 10004e18     k.coredll_ALL:AppVerifier.obj
 0001:00003e38       ??_C@_1BO@OMCFPDBN@?$AAk?$AA?4?$AAt?$AAo?$AAo?$AAl?$AAh?$AAe?$AAl?$AAp?$AA?4?$AAd?$AAl?$AAl?$AA?$AA@ 10004e38     k.coredll_ALL:AppVerifier.obj
 0001:00003e58       ??_C@_1BK@PIKPIDMI@?$AAt?$AAo?$AAo?$AAl?$AAh?$AAe?$AAl?$AAp?$AA?4?$AAd?$AAl?$AAl?$AA?$AA@ 10004e58     k.coredll_ALL:AppVerifier.obj
 0001:00003e78       ??_C@_1JK@NAPIODGG@?$AAE?$AAR?$AAR?$AAO?$AAR?$AA?3?$AA?5?$AAf?$AAu?$AAn?$AAc?$AAt?$AAi?$AAo?$AAn?$AA?5?$AA?$EA?$AA?5?$AAO?$AAr?$AAd?$AAi?$AAn?$AAa?$AAl?$AA?5?$AA?$CF?$AAd?$AA?5?$AAm?$AAi?$AAs@ 10004e78     k.coredll_ALL:AppVerifier.obj
 0001:00003f18       ??_C@_1HG@MPMMBJCD@?$AA?$CF?$AAs?$AA?3?$AA?5?$AAI?$AAm?$AAp?$AAo?$AAr?$AAt?$AAi?$AAn?$AAg?$AA?5?$AA?8?$AA?$CF?$AAS?$AA?8?$AA?5?$AAf?$AAr?$AAo?$AAm?$AA?5?$AAA?$AAp?$AAp?$AAl?$AAi?$AAc?$AAa?$AAt@ 10004f18     k.coredll_ALL:AppVerifier.obj
 0001:00003f90       ??_C@_1IC@FFNPKCCF@?$AA?$CF?$AAs?$AA?3?$AA?5?$AAI?$AAm?$AAp?$AAo?$AAr?$AAt?$AAi?$AAn?$AAg?$AA?5?$AAo?$AAr?$AAd?$AAi?$AAn?$AAa?$AAl?$AA?5?$AA?$CF?$AAu?$AA?5?$AAf?$AAr?$AAo?$AAm?$AA?5?$AAA?$AAp@ 10004f90     k.coredll_ALL:AppVerifier.obj
 0001:00004014       ??_C@_1BG@LIHDHPDO@?$AAS?$AAh?$AAi?$AAm?$AAN?$AAo?$AAt?$AAi?$AAf?$AAy?$AA?$AA@ 10005014     k.coredll_ALL:AppVerifier.obj
 0001:0000402c       ??_C@_1BE@NMFIMKAA@?$AA?2?$AAw?$AAi?$AAn?$AAd?$AAo?$AAw?$AAs?$AA?2?$AA?$AA@ 1000502c     k.coredll_ALL:VirtualNlsFileSet.obj
 0001:00004040       ??_C@_1BE@KKDMCBL@?$AAw?$AAi?$AAn?$AAc?$AAe?$AA?4?$AAn?$AAl?$AAs?$AA?$AA@ 10005040     k.coredll_ALL:VirtualNlsFileSet.obj
 0001:00004054       ??_C@_1CI@JDOJFKGM@?$AA?2?$AAw?$AAi?$AAn?$AAd?$AAo?$AAw?$AAs?$AA?2?$AAw?$AAi?$AAn?$AAc?$AAe?$AA?$CK?$AA?4?$AAn?$AAl?$AAs?$AA?$AA@ 10005054     k.coredll_ALL:VirtualNlsFileSet.obj
 0001:0000407c       ??_C@_1DE@BAHJJPN@?$AAN?$AAl?$AAs?$AAD?$AAl?$AAl?$AAC?$AAo?$AAd?$AAe?$AAP?$AAa?$AAg?$AAe?$AAT?$AAr?$AAa?$AAn?$AAs?$AAl?$AAa?$AAt?$AAi?$AAo?$AAn?$AA?$AA@ 1000507c     k.coredll_ALL:nlstable.obj
 0001:000040b0       cBase64                    100050b0     k.coredll_ALL:utf.obj
 0001:000040f8       fShiftChar                 100050f8     k.coredll_ALL:utf.obj
 0001:00004178       nBitBase64                 10005178     k.coredll_ALL:utf.obj
 0001:000041f8       ??_C@_1CA@HIGMMOMG@?$AAS?$AAo?$AAr?$AAt?$AAC?$AAl?$AAo?$AAs?$AAe?$AAH?$AAa?$AAn?$AAd?$AAl?$AAe?$AA?$AA@ 100051f8     k.coredll_ALL:sorting.obj
 0001:00004218       ??_C@_1BM@PBMFIMIP@?$AAS?$AAo?$AAr?$AAt?$AAG?$AAe?$AAt?$AAH?$AAa?$AAn?$AAd?$AAl?$AAe?$AA?$AA@ 10005218     k.coredll_ALL:sorting.obj
 0001:00004234       ??_C@_1BI@OIDOGHE@?$AAs?$AAo?$AAr?$AAt?$AAi?$AAn?$AAg?$AA?4?$AAd?$AAl?$AAl?$AA?$AA@ 10005234     k.coredll_ALL:sorting.obj
 0001:0000424c       ??_C@_09HHCCIICH@k?4coredll?$AA@ 1000524c     k.coredll_ALL:dllheapfunc.obj
 0001:00004258       ??_C@_0O@PJCAJINO@k?4coredll?4dll?$AA@ 10005258     k.coredll_ALL:dllheapfunc.obj
 0001:00004268       ??_C@_07JCLOJJIO@coredll?$AA@ 10005268     k.coredll_ALL:dllheapfunc.obj
 0001:00004270       ??_C@_0M@NJDDNEPH@coredll?4dll?$AA@ 10005270     k.coredll_ALL:dllheapfunc.obj
 0001:0000427c       g_pFuncTblLocale           1000527c     k.coredll_ALL:wrapper.obj
 0001:00004280       g_pFuncTblNormalize        10005280     k.coredll_ALL:wrapper.obj
 0001:00004284       ??_C@_1DM@JDCGPPKI@?$AAG?$AAe?$AAt?$AAC?$AAa?$AAl?$AAe?$AAn?$AAd?$AAa?$AAr?$AAS?$AAu?$AAp?$AAp?$AAo?$AAr?$AAt?$AAe?$AAd?$AAD?$AAa?$AAt?$AAe?$AAR?$AAa?$AAn?$AAg?$AAe?$AA?$AA@ 10005284     k.coredll_ALL:wrapper.obj
 0001:000042c0       ??_C@_1CK@NMJJOMPI@?$AAG?$AAe?$AAt?$AAC?$AAa?$AAl?$AAe?$AAn?$AAd?$AAa?$AAr?$AAD?$AAa?$AAy?$AAO?$AAf?$AAY?$AAe?$AAa?$AAr?$AA?$AA@ 100052c0     k.coredll_ALL:wrapper.obj
 0001:000042ec       ??_C@_1CM@GKFDOIJP@?$AAG?$AAe?$AAt?$AAC?$AAa?$AAl?$AAe?$AAn?$AAd?$AAa?$AAr?$AAD?$AAa?$AAy?$AAs?$AAI?$AAn?$AAY?$AAe?$AAa?$AAr?$AA?$AA@ 100052ec     k.coredll_ALL:wrapper.obj
 0001:00004318       ??_C@_1CM@JCDADHNO@?$AAG?$AAe?$AAt?$AAF?$AAi?$AAr?$AAs?$AAt?$AAD?$AAa?$AAy?$AAW?$AAe?$AAe?$AAk?$AAO?$AAf?$AAY?$AAe?$AAa?$AAr?$AA?$AA@ 10005318     k.coredll_ALL:wrapper.obj
 0001:00004344       ??_C@_1DA@MGNAGFAO@?$AAG?$AAe?$AAt?$AAC?$AAa?$AAl?$AAe?$AAn?$AAd?$AAa?$AAr?$AAM?$AAo?$AAn?$AAt?$AAh?$AAs?$AAI?$AAn?$AAY?$AAe?$AAa?$AAr?$AA?$AA@ 10005344     k.coredll_ALL:wrapper.obj
 0001:00004374       ??_C@_1CO@LBNPPONL@?$AAG?$AAe?$AAt?$AAC?$AAa?$AAl?$AAe?$AAn?$AAd?$AAa?$AAr?$AAD?$AAa?$AAy?$AAs?$AAI?$AAn?$AAM?$AAo?$AAn?$AAt?$AAh?$AA?$AA@ 10005374     k.coredll_ALL:wrapper.obj
 0001:000043a4       ??_C@_1CM@PLFEOKHL@?$AAG?$AAe?$AAt?$AAC?$AAa?$AAl?$AAe?$AAn?$AAd?$AAa?$AAr?$AAW?$AAe?$AAe?$AAk?$AAN?$AAu?$AAm?$AAb?$AAe?$AAr?$AA?$AA@ 100053a4     k.coredll_ALL:wrapper.obj
 0001:000043d0       ??_C@_1DA@LKJPHGIC@?$AAU?$AAp?$AAd?$AAa?$AAt?$AAe?$AAC?$AAa?$AAl?$AAe?$AAn?$AAd?$AAa?$AAr?$AAD?$AAa?$AAy?$AAO?$AAf?$AAW?$AAe?$AAe?$AAk?$AA?$AA@ 100053d0     k.coredll_ALL:wrapper.obj
 0001:00004400       ??_C@_1DO@HDKJOFJK@?$AAC?$AAo?$AAn?$AAv?$AAe?$AAr?$AAt?$AAS?$AAy?$AAs?$AAt?$AAe?$AAm?$AAT?$AAi?$AAm?$AAe?$AAT?$AAo?$AAC?$AAa?$AAl?$AAD?$AAa?$AAt?$AAe?$AAT?$AAi?$AAm?$AAe?$AA?$AA@ 10005400     k.coredll_ALL:wrapper.obj
 0001:00004440       ??_C@_1DO@OBNDEMJM@?$AAC?$AAo?$AAn?$AAv?$AAe?$AAr?$AAt?$AAC?$AAa?$AAl?$AAD?$AAa?$AAt?$AAe?$AAT?$AAi?$AAm?$AAe?$AAT?$AAo?$AAS?$AAy?$AAs?$AAt?$AAe?$AAm?$AAT?$AAi?$AAm?$AAe?$AA?$AA@ 10005440     k.coredll_ALL:wrapper.obj
 0001:00004480       ??_C@_1DA@DDKALBC@?$AAG?$AAe?$AAt?$AAC?$AAa?$AAl?$AAe?$AAn?$AAd?$AAa?$AAr?$AAD?$AAa?$AAt?$AAe?$AAF?$AAo?$AAr?$AAm?$AAa?$AAt?$AAE?$AAx?$AA?$AA@ 10005480     k.coredll_ALL:wrapper.obj
 0001:000044b0       ??_C@_1CE@POFFBFHC@?$AAI?$AAs?$AAV?$AAa?$AAl?$AAi?$AAd?$AAL?$AAo?$AAc?$AAa?$AAl?$AAe?$AAN?$AAa?$AAm?$AAe?$AA?$AA@ 100054b0     k.coredll_ALL:wrapper.obj
 0001:000044d4       ??_C@_1DC@HAOGHGIO@?$AAG?$AAe?$AAt?$AAU?$AAs?$AAe?$AAr?$AAD?$AAe?$AAf?$AAa?$AAu?$AAl?$AAt?$AAL?$AAo?$AAc?$AAa?$AAl?$AAe?$AAN?$AAa?$AAm?$AAe?$AA?$AA@ 100054d4     k.coredll_ALL:wrapper.obj
 0001:00004508       ??_C@_1CA@HLJLELIJ@?$AAG?$AAe?$AAt?$AAT?$AAi?$AAm?$AAe?$AAF?$AAo?$AAr?$AAm?$AAa?$AAt?$AAE?$AAx?$AA?$AA@ 10005508     k.coredll_ALL:wrapper.obj
 0001:00004528       ??_C@_1DG@KOODIFMC@?$AAG?$AAe?$AAt?$AAS?$AAy?$AAs?$AAt?$AAe?$AAm?$AAD?$AAe?$AAf?$AAa?$AAu?$AAl?$AAt?$AAL?$AAo?$AAc?$AAa?$AAl?$AAe?$AAN?$AAa?$AAm?$AAe?$AA?$AA@ 10005528     k.coredll_ALL:wrapper.obj
 0001:00004560       ??_C@_1CE@NLGAJBAI@?$AAG?$AAe?$AAt?$AAN?$AAu?$AAm?$AAb?$AAe?$AAr?$AAF?$AAo?$AAr?$AAm?$AAa?$AAt?$AAE?$AAx?$AA?$AA@ 10005560     k.coredll_ALL:wrapper.obj
 0001:00004584       ??_C@_1CI@GLLELKIN@?$AAG?$AAe?$AAt?$AAD?$AAu?$AAr?$AAa?$AAt?$AAi?$AAo?$AAn?$AAF?$AAo?$AAr?$AAm?$AAa?$AAt?$AAE?$AAx?$AA?$AA@ 10005584     k.coredll_ALL:wrapper.obj
 0001:000045ac       ??_C@_1CA@EFICEMO@?$AAG?$AAe?$AAt?$AAD?$AAa?$AAt?$AAe?$AAF?$AAo?$AAr?$AAm?$AAa?$AAt?$AAE?$AAx?$AA?$AA@ 100055ac     k.coredll_ALL:wrapper.obj
 0001:000045cc       ??_C@_1CI@BFINKJNG@?$AAG?$AAe?$AAt?$AAC?$AAu?$AAr?$AAr?$AAe?$AAn?$AAc?$AAy?$AAF?$AAo?$AAr?$AAm?$AAa?$AAt?$AAE?$AAx?$AA?$AA@ 100055cc     k.coredll_ALL:wrapper.obj
 0001:000045f4       ??_C@_1CE@FIKELMEP@?$AAR?$AAe?$AAs?$AAo?$AAl?$AAv?$AAe?$AAL?$AAo?$AAc?$AAa?$AAl?$AAe?$AAN?$AAa?$AAm?$AAe?$AA?$AA@ 100055f4     k.coredll_ALL:wrapper.obj
 0001:00004618       ??_C@_1CE@CNOLMOL@?$AAG?$AAe?$AAt?$AAC?$AAa?$AAl?$AAe?$AAn?$AAd?$AAa?$AAr?$AAI?$AAn?$AAf?$AAo?$AAE?$AAx?$AA?$AA@ 10005618     k.coredll_ALL:wrapper.obj
 0001:0000463c       ??_C@_1CE@BCKMJDBH@?$AAE?$AAn?$AAu?$AAm?$AAT?$AAi?$AAm?$AAe?$AAF?$AAo?$AAr?$AAm?$AAa?$AAt?$AAs?$AAE?$AAx?$AA?$AA@ 1000563c     k.coredll_ALL:wrapper.obj
 0001:00004660       ??_C@_1CI@OEEMED@?$AAE?$AAn?$AAu?$AAm?$AAD?$AAa?$AAt?$AAe?$AAF?$AAo?$AAr?$AAm?$AAa?$AAt?$AAs?$AAE?$AAx?$AAE?$AAx?$AA?$AA@ 10005660     k.coredll_ALL:wrapper.obj
 0001:00004688       ??_C@_1CK@JCCMJALE@?$AAE?$AAn?$AAu?$AAm?$AAC?$AAa?$AAl?$AAe?$AAn?$AAd?$AAa?$AAr?$AAI?$AAn?$AAf?$AAo?$AAE?$AAx?$AAE?$AAx?$AA?$AA@ 10005688     k.coredll_ALL:wrapper.obj
 0001:000046b4       ??_C@_1CI@MDHAEDPB@?$AAE?$AAn?$AAu?$AAm?$AAS?$AAy?$AAs?$AAt?$AAe?$AAm?$AAL?$AAo?$AAc?$AAa?$AAl?$AAe?$AAs?$AAE?$AAx?$AA?$AA@ 100056b4     k.coredll_ALL:wrapper.obj
 0001:000046dc       ??_C@_1CA@FKIPKEPK@?$AAG?$AAe?$AAt?$AAL?$AAo?$AAc?$AAa?$AAl?$AAe?$AAI?$AAn?$AAf?$AAo?$AAE?$AAx?$AA?$AA@ 100056dc     k.coredll_ALL:wrapper.obj
 0001:000046fc       ??_C@_1CC@CFBAAGNM@?$AAL?$AAC?$AAI?$AAD?$AAT?$AAo?$AAL?$AAo?$AAc?$AAa?$AAl?$AAe?$AAN?$AAa?$AAm?$AAe?$AA?$AA@ 100056fc     k.coredll_ALL:wrapper.obj
 0001:00004720       ??_C@_1CC@NFAPJNAP@?$AAL?$AAo?$AAc?$AAa?$AAl?$AAe?$AAN?$AAa?$AAm?$AAe?$AAT?$AAo?$AAL?$AAC?$AAI?$AAD?$AA?$AA@ 10005720     k.coredll_ALL:wrapper.obj
 0001:00004744       ??_C@_1CC@MMCBIEDG@?$AAG?$AAe?$AAt?$AAS?$AAt?$AAr?$AAi?$AAn?$AAg?$AAS?$AAc?$AAr?$AAi?$AAp?$AAt?$AAs?$AA?$AA@ 10005744     k.coredll_ALL:wrapper.obj
 0001:00004768       ??_C@_1BM@DDPOGFMH@?$AAV?$AAe?$AAr?$AAi?$AAf?$AAy?$AAS?$AAc?$AAr?$AAi?$AAp?$AAt?$AAs?$AA?$AA@ 10005768     k.coredll_ALL:wrapper.obj
 0001:00004784       ??_C@_1CK@OGPOLINP@?$AAI?$AAd?$AAn?$AAT?$AAo?$AAN?$AAa?$AAm?$AAe?$AAp?$AAr?$AAe?$AAp?$AAU?$AAn?$AAi?$AAc?$AAo?$AAd?$AAe?$AA?$AA@ 10005784     k.coredll_ALL:wrapper.obj
 0001:000047b0       ??_C@_1BK@HIMOKINI@?$AAI?$AAd?$AAn?$AAT?$AAo?$AAU?$AAn?$AAi?$AAc?$AAo?$AAd?$AAe?$AA?$AA@ 100057b0     k.coredll_ALL:wrapper.obj
 0001:000047cc       ??_C@_1BG@OLNENFPO@?$AAI?$AAd?$AAn?$AAT?$AAo?$AAA?$AAs?$AAc?$AAi?$AAi?$AA?$AA@ 100057cc     k.coredll_ALL:wrapper.obj
 0001:000047e4       ??_C@_1CG@MPNFGIJA@?$AAI?$AAs?$AAN?$AAo?$AAr?$AAm?$AAa?$AAl?$AAi?$AAz?$AAe?$AAd?$AAS?$AAt?$AAr?$AAi?$AAn?$AAg?$AA?$AA@ 100057e4     k.coredll_ALL:wrapper.obj
 0001:0000480c       ??_C@_1CA@LJLNGMLP@?$AAN?$AAo?$AAr?$AAm?$AAa?$AAl?$AAi?$AAz?$AAe?$AAS?$AAt?$AAr?$AAi?$AAn?$AAg?$AA?$AA@ 1000580c     k.coredll_ALL:wrapper.obj
 0001:0000482c       ??_C@_1CO@OGAPDDOJ@?$AA?2?$AAW?$AAi?$AAn?$AAd?$AAo?$AAw?$AAs?$AA?2?$AAn?$AAo?$AAr?$AAm?$AAa?$AAl?$AAi?$AAz?$AAe?$AA?4?$AAd?$AAl?$AAl?$AA?$AA@ 1000582c     k.coredll_ALL:wrapper.obj
 0001:0000485c       ??_C@_1CI@IPACIAGL@?$AA?2?$AAW?$AAi?$AAn?$AAd?$AAo?$AAw?$AAs?$AA?2?$AAl?$AAo?$AAc?$AAa?$AAl?$AAe?$AA?4?$AAd?$AAl?$AAl?$AA?$AA@ 1000585c     k.coredll_ALL:wrapper.obj
 0001:00006000       ??_C@_17OABLBPC@?$AA?$CD?$AA?$CF?$AAd?$AA?$AA@ 10007000     k.coredll_ALL:AssetManagement.obj
 0001:000061c8       ?m_dwThreadDeathTimeout@CHandleArray@@1KB 100071c8     k.coredll_ALL:handlearray.obj
 0001:000061cc       ??_7CNotifiable@@6B@       100071cc     k.coredll_ALL:handlearray.obj
 0001:000061e4       ??_7CNotifyWindow@@6B@     100071e4     k.coredll_ALL:notify.obj
 0001:00006200       ??_7CNotifyMsgQueue@@6B@   10007200     k.coredll_ALL:notify.obj
 0001:0000621c       ??_7CNotifyCallback@@6B@   1000721c     k.coredll_ALL:notify.obj
 0001:00006238       ?m_szDefaultRegistryValue@CNotify@@1QBGB 10007238     k.coredll_ALL:notifybase.obj
 0001:00006248       ??_7CNotify@@6B@           10007248     k.coredll_ALL:notifybase.obj
 0001:0000626c       c_szDotExe                 1000726c     k.coredll_ALL:shcore.obj
 0001:00006278       c_szSlash                  10007278     k.coredll_ALL:shcore.obj
 0001:0000627c       c_szDotLnk                 1000727c     k.coredll_ALL:shcore.obj
 0001:00006288       ??_C@_13NOLLCAOD@?$AA?$AA?$AA?$AA@ 10007288     k.coredll_ALL:shcore.obj
 0001:00006290       ??_C@_1HE@KAEKHNAE@?$AAE?$AAR?$AAR?$AAO?$AAR?$AA?3?$AA?5?$AAF?$AAa?$AAi?$AAl?$AAe?$AAd?$AA?5?$AAt?$AAo?$AA?5?$AAC?$AAo?$AAn?$AAv?$AAe?$AAr?$AAt?$AA?5?$AAt?$AAo?$AA?5?$AAw?$AAi?$AAd?$AAe@ 10007290     k.coredll_ALL:write.obj
 0001:00006470       ??_C@_05KLBDPFGC@e?$CL000?$AA@ 10007470     k.coredll_ALL:cvt.obj
 0001:00006478       ??_C@_1O@CEDCILHN@?$AA?$CI?$AAn?$AAu?$AAl?$AAl?$AA?$CJ?$AA?$AA@ 10007478     k.coredll_ALL:output.obj
 0001:00006488       ??_C@_06OJHGLDPL@?$CInull?$CJ?$AA@ 10007488     k.coredll_ALL:output.obj
 0001:00006490       __lookuptable              10007490     k.coredll_ALL:output.obj
 0001:000064f0       __lookuptable_s            100074f0     k.coredll_ALL:output.obj
 0001:00006994       ??_C@_02DIKIINKA@MZ?$AA@   10007994     k.coredll_ALL:verfile.obj
 0001:00006998       ??_7ResourceModuleCache@@6B@ 10007998     k.coredll_ALL:ResourceModuleCache.obj
 0001:000069a0       ??_C@_1BE@HOGKILGE@?$AAF?$AAP?$AAC?$AAR?$AAT?$AA?4?$AAD?$AAL?$AAL?$AA?$AA@ 100079a0     k.coredll_ALL:fpredirFixup.obj
 0001:000069b8       _pow10pos                  100079b8     k.coredll_ALL:constpow.obj
 0001:00006b88       _pow10neg                  10007b88     k.coredll_ALL:constpow.obj
 0001:00006d58       ??_C@_06IMKFLFPG@1?$CDQNAN?$AA@ 10007d58     k.coredll_ALL:x10fout.obj
 0001:00006d60       ??_C@_06PGGFOGJG@1?$CDSNAN?$AA@ 10007d60     k.coredll_ALL:x10fout.obj
 0001:00006d68       ??_C@_05PHHOCPM@1?$CDIND?$AA@ 10007d68     k.coredll_ALL:x10fout.obj
 0001:00006d70       ??_C@_05DNEBIAHO@1?$CDINF?$AA@ 10007d70     k.coredll_ALL:x10fout.obj
 0001:00006d78       ??_C@_0BC@CJOEOOLD@?$BA?$BA?$AE?$AF?$AC?$AN?w?$IGH?$IG?$CK?$AI?$AG?60?$BO0?$AA@ 10007d78     k.coredll_ALL:verhash.obj
 0001:00006d8c       ??_C@_0BE@EFOHOCBI@?$BC?$BA?$AE?$AA?$AF?$AF?$AC?$AN?w?$IGH?$IG?$CK?$AI?$AG?$AM0?50?$AA@ 10007d8c     k.coredll_ALL:verhash.obj
 0001:00006da0       ??_C@_0BD@FEPGPFFJ@?$BB?$EA?$AE?$AD?$AC?$AE?$ADe?$ABH?$IG?$GA?7?$AG?$AL0O0?$AA@ 10007da0     k.coredll_ALL:verhash.obj
 0001:00006db4       ??_C@_0BF@EDODLPON@?$BD?$EA?$AE?$AA?$AF?$AD?$AC?$AE?$ADe?$ABH?$IG?$GA?7?$AG?$AN0Q0?$AA@ 10007db4     k.coredll_ALL:verhash.obj
 0001:00006dcc       ??_C@_0BD@GHAHJINA@?$BB0?$AE?$AC?$AC?$AE?$ADe?$ABH?$IG?$GA?7?$AG?$AL0?$DP0?$AA@ 10007dcc     k.coredll_ALL:verhash.obj
 0001:00006de0       ??_C@_0BF@DOGPNGDE@?$BD0?$AE?$AA?$AF?$AC?$AC?$AE?$ADe?$ABH?$IG?$GA?7?$AG?$AN0A0?$AA@ 10007de0     k.coredll_ALL:verhash.obj
 0001:00006df8       ??_C@_0BD@HMEKNDEK@?$BB?5?$AE?$AB?$AC?$AE?$ADe?$ABH?$IG?$GA?7?$AG?$AL0?10?$AA@ 10007df8     k.coredll_ALL:verhash.obj
 0001:00006e0c       ??_C@_0BF@KDJAKBLD@?$BD?5?$AE?$AA?$AF?$AB?$AC?$AE?$ADe?$ABH?$IG?$GA?7?$AG?$AN010?$AA@ 10007e0c     k.coredll_ALL:verhash.obj
 0001:00006e24       ??_C@_01LOCGONAA@?$AA?$AA@ 10007e24     k.coredll_ALL:verhash.obj
 0001:00006e28       ??_C@_0P@FMHJMPIN@?$AN?$BE?$AE?$BK?$AC?$AD?$AO?$CL?$AF?$AG?$AH0?$BP0?$AA@ 10007e28     k.coredll_ALL:verhash.obj
 0001:00006e38       ??_C@_0BB@PDOOHHHN@?$AP?$BE?$AE?$AA?$AF?$BK?$AC?$AD?$AO?$CL?$AF?$AG?70?$CB0?$AA@ 10007e38     k.coredll_ALL:verhash.obj
 0001:00006f88       ??_7MD5Wrapper@@6B@        10007f88     k.coredll_ALL:verhash.obj
 0001:00006f94       ??_7?$SHA2Wrapper@USHA256_CTX@@$0CA@$0IAAM@$1?SHA256Init@@YAXPAU1@@Z$1?SHA256Update@@YAX0PBEI@Z$1?SHA256Final@@YAX0QAE@Z@@6B@ 10007f94     k.coredll_ALL:verhash.obj
 0001:00006fa0       ??_7?$SHA2Wrapper@USHA512_CTX@@$0DA@$0IAAN@$1?SHA384Init@@YAXPAU1@@Z$1?SHA512Update@@YAX0PBEI@Z$1?SHA384Final@@YAX0QAE@Z@@6B@ 10007fa0     k.coredll_ALL:verhash.obj
 0001:00006fac       ??_7?$SHA2Wrapper@USHA512_CTX@@$0EA@$0IAAO@$1?SHA512Init@@YAXPAU1@@Z$1?SHA512Update@@YAX0PBEI@Z$1?SHA512Final@@YAX0QAE@Z@@6B@ 10007fac     k.coredll_ALL:verhash.obj
 0001:00006fb8       ??_7SHA1Wrapper@@6B@       10007fb8     k.coredll_ALL:verhash.obj
 0001:00006ff0       SHA512Magic                10007ff0     k.coredll_ALL:shaconst.obj
 0001:00007270       SHA256Magic                10008270     k.coredll_ALL:shaconst.obj
 0001:00007398       ??_R4exception@std@@6B@    10008398     k.coredll_ALL:stdexcpt.obj
 0001:000073ac       ??_R3exception@std@@8      100083ac     k.coredll_ALL:stdexcpt.obj
 0001:000073bc       ??_R2exception@std@@8      100083bc     k.coredll_ALL:stdexcpt.obj
 0001:000073c4       ??_R1A@?0A@EA@exception@std@@8 100083c4     k.coredll_ALL:stdexcpt.obj
 0001:000073e0       ??_R4type_info@@6B@        100083e0     k.coredll_ALL:typinfo.obj
 0001:000073f4       ??_R3type_info@@8          100083f4     k.coredll_ALL:typinfo.obj
 0001:00007404       ??_R2type_info@@8          10008404     k.coredll_ALL:typinfo.obj
 0001:0000740c       ??_R1A@?0A@EA@type_info@@8 1000840c     k.coredll_ALL:typinfo.obj
 0001:00007428       ??_R4bad_alloc@std@@6B@    10008428     k.coredll_ALL:nomemory.obj
 0001:0000743c       ??_R3bad_alloc@std@@8      1000843c     k.coredll_ALL:nomemory.obj
 0001:0000744c       ??_R2bad_alloc@std@@8      1000844c     k.coredll_ALL:nomemory.obj
 0001:00007458       ??_R1A@?0A@EA@bad_alloc@std@@8 10008458     k.coredll_ALL:nomemory.obj
 0001:00007474       ??_R4logic_error@std@@6B@  10008474     k.coredll_ALL:string.obj
 0001:00007488       ??_R3logic_error@std@@8    10008488     k.coredll_ALL:string.obj
 0001:00007498       ??_R2logic_error@std@@8    10008498     k.coredll_ALL:string.obj
 0001:000074a4       ??_R1A@?0A@EA@logic_error@std@@8 100084a4     k.coredll_ALL:string.obj
 0001:000074c0       ??_R4out_of_range@std@@6B@ 100084c0     k.coredll_ALL:string.obj
 0001:000074d4       ??_R3out_of_range@std@@8   100084d4     k.coredll_ALL:string.obj
 0001:000074e4       ??_R2out_of_range@std@@8   100084e4     k.coredll_ALL:string.obj
 0001:000074f4       ??_R1A@?0A@EA@out_of_range@std@@8 100084f4     k.coredll_ALL:string.obj
 0001:00007510       ??_R4length_error@std@@6B@ 10008510     k.coredll_ALL:string.obj
 0001:00007524       ??_R3length_error@std@@8   10008524     k.coredll_ALL:string.obj
 0001:00007534       ??_R2length_error@std@@8   10008534     k.coredll_ALL:string.obj
 0001:00007544       ??_R1A@?0A@EA@length_error@std@@8 10008544     k.coredll_ALL:string.obj
 0001:00007560       ??_R4bad_cast@std@@6B@     10008560     k.coredll_ALL:rtti.obj
 0001:00007574       ??_R3bad_cast@std@@8       10008574     k.coredll_ALL:rtti.obj
 0001:00007584       ??_R2bad_cast@std@@8       10008584     k.coredll_ALL:rtti.obj
 0001:00007590       ??_R1A@?0A@EA@bad_cast@std@@8 10008590     k.coredll_ALL:rtti.obj
 0001:000075ac       ??_R4bad_typeid@std@@6B@   100085ac     k.coredll_ALL:rtti.obj
 0001:000075c0       ??_R3bad_typeid@std@@8     100085c0     k.coredll_ALL:rtti.obj
 0001:000075d0       ??_R2bad_typeid@std@@8     100085d0     k.coredll_ALL:rtti.obj
 0001:000075dc       ??_R1A@?0A@EA@bad_typeid@std@@8 100085dc     k.coredll_ALL:rtti.obj
 0001:000075f8       ??_R4__non_rtti_object@std@@6B@ 100085f8     k.coredll_ALL:rtti.obj
 0001:0000760c       ??_R3__non_rtti_object@std@@8 1000860c     k.coredll_ALL:rtti.obj
 0001:0000761c       ??_R2__non_rtti_object@std@@8 1000861c     k.coredll_ALL:rtti.obj
 0001:0000762c       ??_R1A@?0A@EA@__non_rtti_object@std@@8 1000862c     k.coredll_ALL:rtti.obj
 0001:00007648       ??_R3DNameNode@@8          10008648     k.coredll_ALL:undname.obj
 0001:00007658       ??_R2DNameNode@@8          10008658     k.coredll_ALL:undname.obj
 0001:00007660       ??_R1A@?0A@EA@DNameNode@@8 10008660     k.coredll_ALL:undname.obj
 0001:0000767c       ??_R4charNode@@6B@         1000867c     k.coredll_ALL:undname.obj
 0001:00007690       ??_R3charNode@@8           10008690     k.coredll_ALL:undname.obj
 0001:000076a0       ??_R2charNode@@8           100086a0     k.coredll_ALL:undname.obj
 0001:000076ac       ??_R1A@?0A@EA@charNode@@8  100086ac     k.coredll_ALL:undname.obj
 0001:000076c8       ??_R4pDNameNode@@6B@       100086c8     k.coredll_ALL:undname.obj
 0001:000076dc       ??_R3pDNameNode@@8         100086dc     k.coredll_ALL:undname.obj
 0001:000076ec       ??_R2pDNameNode@@8         100086ec     k.coredll_ALL:undname.obj
 0001:000076f8       ??_R1A@?0A@EA@pDNameNode@@8 100086f8     k.coredll_ALL:undname.obj
 0001:00007714       ??_R4DNameStatusNode@@6B@  10008714     k.coredll_ALL:undname.obj
 0001:00007728       ??_R3DNameStatusNode@@8    10008728     k.coredll_ALL:undname.obj
 0001:00007738       ??_R2DNameStatusNode@@8    10008738     k.coredll_ALL:undname.obj
 0001:00007744       ??_R1A@?0A@EA@DNameStatusNode@@8 10008744     k.coredll_ALL:undname.obj
 0001:00007760       ??_R4pairNode@@6B@         10008760     k.coredll_ALL:undname.obj
 0001:00007774       ??_R3pairNode@@8           10008774     k.coredll_ALL:undname.obj
 0001:00007784       ??_R2pairNode@@8           10008784     k.coredll_ALL:undname.obj
 0001:00007790       ??_R1A@?0A@EA@pairNode@@8  10008790     k.coredll_ALL:undname.obj
 0001:000077ac       ??_R4pcharNode@@6B@        100087ac     k.coredll_ALL:undname.obj
 0001:000077c0       ??_R3pcharNode@@8          100087c0     k.coredll_ALL:undname.obj
 0001:000077d0       ??_R2pcharNode@@8          100087d0     k.coredll_ALL:undname.obj
 0001:000077dc       ??_R1A@?0A@EA@pcharNode@@8 100087dc     k.coredll_ALL:undname.obj
 0001:00007808       UpdateAPISetInfo           10008808 f   k.coredll_ALL:coredll.obj
 0001:00007924       DirectHandleCall           10008924 f   k.coredll_ALL:coredll.obj
 0001:0000794c       ReleaseProcCS              1000894c f   k.coredll_ALL:coredll.obj
 0001:0000797c       CoreDllInit                1000897c f   k.coredll_ALL:coredll.obj
 0001:00007a54       ??0exception@std@@QAA@XZ   10008a54 f   k.coredll_ALL:stdexcpt.obj
 0001:00007a70       ??0exception@std@@QAA@PBD@Z 10008a70 f   k.coredll_ALL:stdexcpt.obj
 0001:00007ac0       ??0exception@std@@QAA@ABV01@@Z 10008ac0 f   k.coredll_ALL:stdexcpt.obj
 0001:00007b2c       ??1exception@std@@UAA@XZ   10008b2c f   k.coredll_ALL:stdexcpt.obj
 0001:00007b50       ?what@exception@std@@UBAPBDXZ 10008b50 f   k.coredll_ALL:stdexcpt.obj
 0001:00007b68       ??_Eexception@std@@UAAPAXI@Z 10008b68 f i k.coredll_ALL:stdexcpt.obj
 0001:00007b68       ??_Gexception@std@@UAAPAXI@Z 10008b68 f i k.coredll_ALL:stdexcpt.obj
 0001:00007ba4       ??4exception@std@@QAAAAV01@ABV01@@Z 10008ba4 f   k.coredll_ALL:stdexcpt.obj
 0001:00007be8       ??1type_info@@UAA@XZ       10008be8 f   k.coredll_ALL:typinfo.obj
 0001:00007c0c       ??_Gtype_info@@UAAPAXI@Z   10008c0c f i k.coredll_ALL:typinfo.obj
 0001:00007c0c       ??_Etype_info@@UAAPAXI@Z   10008c0c f i k.coredll_ALL:typinfo.obj
 0001:00007c48       ??8type_info@@QBAHABV0@@Z  10008c48 f   k.coredll_ALL:typinfo.obj
 0001:00007c6c       ??9type_info@@QBAHABV0@@Z  10008c6c f   k.coredll_ALL:typinfo.obj
 0001:00007c90       ?before@type_info@@QBAHABV1@@Z 10008c90 f   k.coredll_ALL:typinfo.obj
 0001:00007cb4       ?raw_name@type_info@@QBAPBDXZ 10008cb4 f   k.coredll_ALL:typinfo.obj
 0001:00007cbc       ??0type_info@@AAA@ABV0@@Z  10008cbc f   k.coredll_ALL:typinfo.obj
 0001:00007cd0       ??4type_info@@AAAAAV0@ABV0@@Z 10008cd0 f   k.coredll_ALL:typinfo.obj
 0001:00007cd4       ??2@YAPAXI@Z               10008cd4 f   k.coredll_ALL:new.obj
 0001:00007ce8       ??2@YAPAXIABUnothrow_t@std@@@Z 10008ce8 f   k.coredll_ALL:newop2.obj
 0001:00007d28       ??3@YAXPAX@Z               10008d28 f   k.coredll_ALL:delete.obj
 0001:00007d2c       ??3@YAXPAXABUnothrow_t@std@@@Z 10008d2c f   k.coredll_ALL:delete3.obj
 0001:00007d38       ??_L@YAXPAXIHP6AX0@Z1@Z    10008d38 f   k.coredll_ALL:ehvecctr.obj
 0001:00007dd8       ?__ArrayUnwind@@YAXPAXIHP6AX0@Z@Z 10008dd8 f   k.coredll_ALL:ehvecdtr.obj
 0001:00007e7c       ??_M@YAXPAXIHP6AX0@Z@Z     10008e7c f   k.coredll_ALL:ehvecdtr.obj
 0001:00007f18       ??_N@YAXPAXIHP6AX0@Z1@Z    10008f18 f   k.coredll_ALL:ehveccvb.obj
 0001:00007fb4       ??_U@YAPAXI@Z              10008fb4 f   k.coredll_ALL:new2.obj
 0001:00007fb8       ??_U@YAPAXIABUnothrow_t@std@@@Z 10008fb8 f   k.coredll_ALL:newop3.obj
 0001:00007fbc       ??_V@YAXPAX@Z              10008fbc f   k.coredll_ALL:delete2.obj
 0001:00007fc0       ??_V@YAXPAXABUnothrow_t@std@@@Z 10008fc0 f   k.coredll_ALL:delete4.obj
 0001:00007fcc       ??__C@YAXPAX0IHP6AX00@ZP6AX0@Z@Z 10008fcc f   k.coredll_ALL:ehvccctr.obj
 0001:0000807c       ??__D@YAXPAX0IHP6AX00@ZP6AX0@Z@Z 1000907c f   k.coredll_ALL:ehvcccvb.obj
 0001:00008130       CePerfOpenSession          10009130 f i k.coredll_ALL:Imm.obj
 0001:00008228       CePerfCloseSession         10009228 f i k.coredll_ALL:Imm.obj
 0001:000082c4       CePerfRegisterBulk         100092c4 f i k.coredll_ALL:Imm.obj
 0001:00008338       CePerfBeginDuration        10009338 f i k.coredll_ALL:Imm.obj
 0001:000083ac       CePerfEndDuration          100093ac f i k.coredll_ALL:Imm.obj
 0001:0000843c       ?MDPGPerfOpenSession@@YAJPAPAXPBG@Z 1000943c f i k.coredll_ALL:Imm.obj
 0001:000084c8       ?StartCePerf@@YAXXZ        100094c8 f i k.coredll_ALL:Imm.obj
 0001:00008500       ?End@CePerfObj@@QAAXXZ     10009500 f i k.coredll_ALL:Imm.obj
 0001:00008548       ImmSIPanelState            10009548 f   k.coredll_ALL:Imm.obj
 0001:00008550       ?Initialize@HimcPrivateList_t@@CAXXZ 10009550 f   k.coredll_ALL:Imm.obj
 0001:0000857c       ?List_Add@HimcPrivateList_t@@SAXPAVHimcPrivate@@@Z 1000957c f   k.coredll_ALL:Imm.obj
 0001:000085b0       ?List_Remove@HimcPrivateList_t@@SAXPAVHimcPrivate@@@Z 100095b0 f   k.coredll_ALL:Imm.obj
 0001:00008608       ?GetDefaultContextForThread@HimcPrivateList_t@@SAKK@Z 10009608 f   k.coredll_ALL:Imm.obj
 0001:00008678       ?IsExistedInList@HimcPrivateList_t@@SAHPBVHimcPrivate@@@Z 10009678 f   k.coredll_ALL:Imm.obj
 0001:000086cc       ?GetImeModeSaver@@YAPAUtagIMEMODESAVER@@PAUtagINPUTCONTEXT@@PAUHKL__@@@Z 100096cc f   k.coredll_ALL:Imm.obj
 0001:0000874c       ?DestroyImeModeSaver@@YAXPAUtagINPUTCONTEXT@@@Z 1000974c f   k.coredll_ALL:Imm.obj
 0001:000087a4       ?GetImePrivateModeSaver@@YAPAUtagIMEPRIVATESAVER@@PAUtagIMEMODESAVER@@PAUHKL__@@@Z 100097a4 f   k.coredll_ALL:Imm.obj
 0001:00008810       ?RestorePrivateMode@@YAHPAUtagINPUTCONTEXT@@PAUtagIMEMODESAVER@@PAUHKL__@@@Z 10009810 f   k.coredll_ALL:Imm.obj
 0001:00008848       ImmCreateIMCC              10009848 f   k.coredll_ALL:Imm.obj
 0001:00008888       ImmDestroyIMCC             10009888 f   k.coredll_ALL:Imm.obj
 0001:000088b8       ImmLockIMCC                100098b8 f   k.coredll_ALL:Imm.obj
 0001:000088bc       ImmUnlockIMCC              100098bc f   k.coredll_ALL:Imm.obj
 0001:000088c4       ImmGetIMCCLockCount        100098c4 f   k.coredll_ALL:Imm.obj
 0001:000088cc       ImmReSizeIMCC              100098cc f   k.coredll_ALL:Imm.obj
 0001:0000891c       ImmGetIMCCSize             1000991c f   k.coredll_ALL:Imm.obj
 0001:0000894c       ImmCreateContext           1000994c f   k.coredll_ALL:Imm.obj
 0001:000089d8       ImmReleaseContext          100099d8 f   k.coredll_ALL:Imm.obj
 0001:00008a68       ?InternalGetCompositionStringW@@YAJPAUtagCOMPOSITIONSTRING@@KPAXK@Z 10009a68 f   k.coredll_ALL:Imm.obj
 0001:00008cd4       ImmIsUIMessageW            10009cd4 f   k.coredll_ALL:Imm.obj
 0001:00008d70       ImmGetKeyboardLayout       10009d70 f   k.coredll_ALL:Imm.obj
 0001:00008dcc       ImmEnableIME               10009dcc f   k.coredll_ALL:Imm.obj
 0001:00008e24       ?HexFromChar@@YAKG@Z       10009e24 f   k.coredll_ALL:Imm.obj
 0001:00008e70       ?LoadSupportedHKLInfoForInputLanguage@@YAXKPAU_GUID@@@Z 10009e70 f   k.coredll_ALL:Imm.obj
 0001:00009238       ?UpdateKeyboardLayoutWithGuid@@YAHPAU_GUID@@@Z 1000a238 f   k.coredll_ALL:Imm.obj
 0001:000093a0       ?OpenParentKey@KbdLayoutPreload@@SA_NPAPAUHKEY__@@@Z 1000a3a0 f   k.coredll_ALL:Imm.obj
 0001:000093f0       ?ReadHkl@KbdLayoutPreload@@SA_NPAUHKEY__@@HPAPAUHKL__@@@Z 1000a3f0 f   k.coredll_ALL:Imm.obj
 0001:000094f8       ?OpenParentKey@KbdLayoutInfo@@SA_NPAPAUHKEY__@@@Z 1000a4f8 f   k.coredll_ALL:Imm.obj
 0001:00009548       ?ReadImeInfo@KbdLayoutInfo@@SA_NPAUHKEY__@@PAUHKL__@@QAG2@Z 1000a548 f   k.coredll_ALL:Imm.obj
 0001:00009684       ?FindByHkl@ImeInfoEntry@@SAPAV1@PAUHKL__@@@Z 1000a684 f   k.coredll_ALL:Imm.obj
 0001:000096b4       ?CurrentThreadIsUsingThisIME@ImeInfoEntry@@QAAHXZ 1000a6b4 f   k.coredll_ALL:Imm.obj
 0001:00009710       ?AddCurrentThreadToUserThreadList@ImeInfoEntry@@QAAXXZ 1000a710 f   k.coredll_ALL:Imm.obj
 0001:00009768       ?RemoveCurrentThreadFromUserThreadList@ImeInfoEntry@@QAAXXZ 1000a768 f   k.coredll_ALL:Imm.obj
 0001:000097d0       ?RemoveAllUserThreads@ImeInfoEntry@@QAAXXZ 1000a7d0 f   k.coredll_ALL:Imm.obj
 0001:00009814       ImmSendNotification        1000a814 f   k.coredll_ALL:Imm.obj
 0001:00009910       ImmIsIME                   1000a910 f   k.coredll_ALL:Imm.obj
 0001:00009974       ImmGetIMEFileNameW         1000a974 f   k.coredll_ALL:Imm.obj
 0001:00009a50       ImmGetDescriptionW         1000aa50 f   k.coredll_ALL:Imm.obj
 0001:00009b24       ?KeyStateFlagsToKeyState@@YAXIQAE@Z 1000ab24 f   k.coredll_ALL:Imm.obj
 0001:00009d6c       ?ImmUpdateHKLList@@YAHXZ   1000ad6c f   k.coredll_ALL:Imm.obj
 0001:00009f2c       ??_EImeInfoEntry@@UAAPAXI@Z 1000af2c f i k.coredll_ALL:Imm.obj
 0001:00009f2c       ??_GImeInfoEntry@@UAAPAXI@Z 1000af2c f i k.coredll_ALL:Imm.obj
 0001:00009f5c       ?DefaultImeWndCreate@@YAPAUHWND__@@PAUHINSTANCE__@@@Z 1000af5c f   k.coredll_ALL:Imm.obj
 0001:0000a070       ?DefaultImeWndGet@@YAPAUHWND__@@XZ 1000b070 f   k.coredll_ALL:Imm.obj
 0001:0000a0cc       ?HimcToHimcp@HimcPrivate@@SAPAV1@K@Z 1000b0cc f   k.coredll_ALL:Imm.obj
 0001:0000a160       ?MarkAsDefaultContext@HimcPrivate@@SAXK_N@Z 1000b160 f   k.coredll_ALL:Imm.obj
 0001:0000a194       ImmGetIMCLockCount         1000b194 f   k.coredll_ALL:Imm.obj
 0001:0000a1dc       ImmUnlockIMC               1000b1dc f   k.coredll_ALL:Imm.obj
 0001:0000a230       ?DefaultImcGet@@YAKXZ      1000b230 f   k.coredll_ALL:Imm.obj
 0001:0000a2ec       ImmGetContext              1000b2ec f   k.coredll_ALL:Imm.obj
 0001:0000a2f8       ImmGetDefaultIMEWnd        1000b2f8 f   k.coredll_ALL:Imm.obj
 0001:0000a330       ?LoadSystemImeInfo@ImeInfoEntry@@CAXXZ 1000b330 f   k.coredll_ALL:Imm.obj
 0001:0000a4f4       ?Lock@ImeInfoEntry@@SAPAV1@PAUHKL__@@@Z 1000b4f4 f   k.coredll_ALL:Imm.obj
 0001:0000a608       ?ImeSelect@ImeInfoEntry@@QAAXKH@Z 1000b608 f   k.coredll_ALL:Imm.obj
 0001:0000a668       ?ImmIme_ImeSetCompositionString@ImeInfoEntry@@SAHKKPBXK0K@Z 1000b668 f   k.coredll_ALL:Imm.obj
 0001:0000a72c       ?ImmIme_ImeConversionListW@ImeInfoEntry@@SAKKPBGPAUtagCANDIDATELIST@@KI@Z 1000b72c f   k.coredll_ALL:Imm.obj
 0001:0000a7cc       ImmNotifyIME               1000b7cc f   k.coredll_ALL:Imm.obj
 0001:0000a890       ImmEscapeW                 1000b890 f   k.coredll_ALL:Imm.obj
 0001:0000a950       ImmRegisterWordW           1000b950 f   k.coredll_ALL:Imm.obj
 0001:0000aa10       ImmUnregisterWordW         1000ba10 f   k.coredll_ALL:Imm.obj
 0001:0000aad0       ImmGetRegisterWordStyleW   1000bad0 f   k.coredll_ALL:Imm.obj
 0001:0000ab84       ImmEnumRegisterWordW       1000bb84 f   k.coredll_ALL:Imm.obj
 0001:0000ac68       ImmConfigureIMEW           1000bc68 f   k.coredll_ALL:Imm.obj
 0001:0000ad2c       ImmGetImeMenuItemsW        1000bd2c f   k.coredll_ALL:Imm.obj
 0001:0000ae18       ?ImmGetUIClassName@@YAPAGXZ 1000be18 f   k.coredll_ALL:Imm.obj
 0001:0000ae90       ImmGetProperty             1000be90 f   k.coredll_ALL:Imm.obj
 0001:0000af68       ?PreLoadSysInfo@ImeInfoEntry@@CAHXZ 1000bf68 f   k.coredll_ALL:Imm.obj
 0001:0000afcc       ?ImmIme_IsIMEValid@ImeInfoEntry@@SAHPAUHKL__@@@Z 1000bfcc f   k.coredll_ALL:Imm.obj
 0001:0000b010       ?get_lock@?$singleton@V?$free_list@$0GE@Vallocator@ce@@@ce@@$03V?$static_allocator@V?$free_list@$0GE@Vallocator@ce@@@ce@@$03@2@@ce@@KAAAVcritical_section@2@XZ 1000c010 f i k.coredll_ALL:Imm.obj
 0001:0000b064       ?ThreadImcsNotifyCompositionStr@HimcPrivateList_t@@SAXK@Z 1000c064 f   k.coredll_ALL:Imm.obj
 0001:0000b0c8       ?Destroy@HimcPrivate@@AAA_NW4DestroyListOp@@@Z 1000c0c8 f   k.coredll_ALL:Imm.obj
 0001:0000b1d0       ?ImmCreateContextActual@HimcPrivate@@AAAPAUtagINPUTCONTEXT@@PAPAVImeInfoEntry@@@Z 1000c1d0 f   k.coredll_ALL:Imm.obj
 0001:0000b2e8       ?Lock@HimcPrivate@@QAAPAUtagINPUTCONTEXT@@XZ 1000c2e8 f   k.coredll_ALL:Imm.obj
 0001:0000b3b4       ImmLockIMC                 1000c3b4 f   k.coredll_ALL:Imm.obj
 0001:0000b408       ?ImmGetImcInfo@@YAHKPAXPAUHimcPrivateInfo@@@Z 1000c408 f   k.coredll_ALL:Imm.obj
 0001:0000b56c       ImmDestroyContext          1000c56c f   k.coredll_ALL:Imm.obj
 0001:0000b5dc       ImmGetOpenStatus           1000c5dc f   k.coredll_ALL:Imm.obj
 0001:0000b654       ImmSetOpenStatus           1000c654 f   k.coredll_ALL:Imm.obj
 0001:0000b748       ImmGetCandidateWindow      1000c748 f   k.coredll_ALL:Imm.obj
 0001:0000b840       ImmGetCompositionFontW     1000c840 f   k.coredll_ALL:Imm.obj
 0001:0000b918       ImmGetCompositionWindow    1000c918 f   k.coredll_ALL:Imm.obj
 0001:0000b9f0       ImmGetConversionStatus     1000c9f0 f   k.coredll_ALL:Imm.obj
 0001:0000bad8       ImmGetStatusWindowPos      1000cad8 f   k.coredll_ALL:Imm.obj
 0001:0000bbac       ImmGetCompositionStringW   1000cbac f   k.coredll_ALL:Imm.obj
 0001:0000bce0       ImmGetCandidateListCountW  1000cce0 f   k.coredll_ALL:Imm.obj
 0001:0000bdc8       ImmGetCandidateListW       1000cdc8 f   k.coredll_ALL:Imm.obj
 0001:0000bf04       ?ImmGetGuideLineWorker@@YAKKKPAEK@Z 1000cf04 f   k.coredll_ALL:Imm.obj
 0001:0000c068       ImmGetGuideLineW           1000d068 f   k.coredll_ALL:Imm.obj
 0001:0000c0b8       ImmSetCandidateWindow      1000d0b8 f   k.coredll_ALL:Imm.obj
 0001:0000c208       ImmSetCompositionFontW     1000d208 f   k.coredll_ALL:Imm.obj
 0001:0000c34c       ImmSetCompositionWindow    1000d34c f   k.coredll_ALL:Imm.obj
 0001:0000c488       ImmSetConversionStatus     1000d488 f   k.coredll_ALL:Imm.obj
 0001:0000c654       ImmSetStatusWindowPos      1000d654 f   k.coredll_ALL:Imm.obj
 0001:0000c9ec       ImmSetCompositionStringW   1000d9ec f   k.coredll_ALL:Imm.obj
 0001:0000cabc       ImmGetConversionListW      1000dabc f   k.coredll_ALL:Imm.obj
 0001:0000cb84       ImmGenerateMessage         1000db84 f   k.coredll_ALL:Imm.obj
 0001:0000cd40       ImmGetVirtualKey           1000dd40 f   k.coredll_ALL:Imm.obj
 0001:0000cdb4       ?ImmPostMessages@@YAXPAUHWND__@@KHPBK@Z 1000ddb4 f   k.coredll_ALL:Imm.obj
 0001:0000ce08       ?CSymbolToggle@@YAHKPAUHKL__@@PAUHWND__@@@Z 1000de08 f   k.coredll_ALL:Imm.obj
 0001:0000ce6c       ?TShapeToggle@@YAHKPAUHKL__@@PAUHWND__@@@Z 1000de6c f   k.coredll_ALL:Imm.obj
 0001:0000ced0       ?KEnglishHangul@@YAHK@Z    1000ded0 f   k.coredll_ALL:Imm.obj
 0001:0000cf70       ?KShapeToggle@@YAHK@Z      1000df70 f   k.coredll_ALL:Imm.obj
 0001:0000cff0       ?KHanjaConvert@@YAHK@Z     1000dff0 f   k.coredll_ALL:Imm.obj
 0001:0000d060       ?ImmTranslateMessage@@YAHPAUHWND__@@IIJHIIPAH@Z 1000e060 f   k.coredll_ALL:Imm.obj
 0001:0000d314       ImmSetImeWndIMC            1000e314 f   k.coredll_ALL:Imm.obj
 0001:0000d35c       ImmRequestMessageW         1000e35c f   k.coredll_ALL:Imm.obj
 0001:0000d430       ?DestroyContextsByThreadId@HimcPrivateList_t@@SAXK@Z 1000e430 f   k.coredll_ALL:Imm.obj
 0001:0000d49c       ?SwitchLayout@HimcPrivate@@AAAXPAVImeInfoEntry@@0@Z 1000e49c f   k.coredll_ALL:Imm.obj
 0001:0000d79c       ImmDisableIME              1000e79c f   k.coredll_ALL:Imm.obj
 0001:0000d82c       ?ImmIme_ImeSetActiveContext@ImeInfoEntry@@SAXKH@Z 1000e82c f   k.coredll_ALL:Imm.obj
 0001:0000d8a8       Imm_DllEntry               1000e8a8 f   k.coredll_ALL:Imm.obj
 0001:0000d918       ?ThreadImcsSwitchLayouts@HimcPrivateList_t@@SAXPAVImeInfoEntry@@0H@Z 1000e918 f   k.coredll_ALL:Imm.obj
 0001:0000d97c       ?ImmSetActiveContext@@YAHPAUHWND__@@KH@Z 1000e97c f   k.coredll_ALL:Imm.obj
 0001:0000dcac       ImmAssociateContext        1000ecac f   k.coredll_ALL:Imm.obj
 0001:0000ddb4       ImmAssociateContextEx      1000edb4 f   k.coredll_ALL:Imm.obj
 0001:0000dec0       ?Activate@ImeInfoEntry@@CAXPAUHKL__@@0@Z 1000eec0 f   k.coredll_ALL:Imm.obj
 0001:0000e060       ?ImmIme_Switch@ImeInfoEntry@@SAXPAUHKL__@@0@Z 1000f060 f   k.coredll_ALL:Imm.obj
 0001:0000e0b8       ImmActivateLayout          1000f0b8 f   k.coredll_ALL:Imm.obj
 0001:0000e184       ?IMENonIMEToggle@@YAHPAUHKL__@@PAUHWND__@@HG@Z 1000f184 f   k.coredll_ALL:Imm.obj
 0001:0000e2c8       ?JCloseOpen@@YAHKPAUHKL__@@PAUHWND__@@@Z 1000f2c8 f   k.coredll_ALL:Imm.obj
 0001:0000e380       ?CIMENonIMEToggle@@YAHKPAUHKL__@@PAUHWND__@@G@Z 1000f380 f   k.coredll_ALL:Imm.obj
 0001:0000e438       ?HotKeyIdDispatcher@@YAHPAUHWND__@@KK@Z 1000f438 f   k.coredll_ALL:Imm.obj
 0001:0000e6e4       ImmSimulateHotKey          1000f6e4 f   k.coredll_ALL:Imm.obj
 0001:0000e748       ?ImmProcessKey@@YAKPAUHWND__@@IJKIPAU_GUID@@@Z 1000f748 f   k.coredll_ALL:Imm.obj
 0001:0000e9b4       ?DrainDelayedBootWork@@YAJPAUHWND__@@II@Z 1000f9b4 f   k.coredll_ALL:DelayedBootWorkNoApi.obj
 0001:0000e9bc       ?DelayedBootWorkComplete@@YAJK@Z 1000f9bc f   k.coredll_ALL:DelayedBootWorkNoApi.obj
 0001:0000e9c4       ?RegisterDelayedBootWork@@YAJKKKPAPAXPAK@Z 1000f9c4 f   k.coredll_ALL:DelayedBootWorkNoApi.obj
 0001:0000ea04       ?IsValidGESTUREINFODATA@@YAHPBUGESTUREINFODATA@@@Z 1000fa04 f i k.coredll_ALL:twinuser.obj
 0001:0000ea4c       UnregisterClassW           1000fa4c f   k.coredll_ALL:twinuser.obj
 0001:0000eaa0       CreateWindowExW            1000faa0 f   k.coredll_ALL:twinuser.obj
 0001:0000eb4c       PostQuitMessage            1000fb4c f   k.coredll_ALL:twinuser.obj
 0001:0000eb68       TranslateMessage           1000fb68 f   k.coredll_ALL:twinuser.obj
 0001:0000ebbc       InSendMessage              1000fbbc f   k.coredll_ALL:twinuser.obj
 0001:0000ebd8       GetQueueStatus             1000fbd8 f   k.coredll_ALL:twinuser.obj
 0001:0000ebf4       GetCapture                 1000fbf4 f   k.coredll_ALL:twinuser.obj
 0001:0000ec10       SetCapture                 1000fc10 f   k.coredll_ALL:twinuser.obj
 0001:0000ec2c       ReleaseCapture             1000fc2c f   k.coredll_ALL:twinuser.obj
 0001:0000ec48       WindowFromPoint            1000fc48 f   k.coredll_ALL:twinuser.obj
 0001:0000ec74       ChildWindowFromPoint       1000fc74 f   k.coredll_ALL:twinuser.obj
 0001:0000eca0       ScreenToClient             1000fca0 f   k.coredll_ALL:twinuser.obj
 0001:0000ecc0       SetWindowTextW             1000fcc0 f   k.coredll_ALL:twinuser.obj
 0001:0000ecdc       GetWindowTextW             1000fcdc f   k.coredll_ALL:twinuser.obj
 0001:0000ed48       GetDCEx                    1000fd48 f   k.coredll_ALL:twinuser.obj
 0001:0000ed64       GetClassLongW              1000fd64 f   k.coredll_ALL:twinuser.obj
 0001:0000ed80       SetClassLongW              1000fd80 f   k.coredll_ALL:twinuser.obj
 0001:0000ed9c       DestroyWindow              1000fd9c f   k.coredll_ALL:twinuser.obj
 0001:0000edb8       ShowWindow                 1000fdb8 f   k.coredll_ALL:twinuser.obj
 0001:0000edd4       UpdateWindow               1000fdd4 f   k.coredll_ALL:twinuser.obj
 0001:0000edf0       RedrawWindow               1000fdf0 f   k.coredll_ALL:twinuser.obj
 0001:0000ee24       SetParent                  1000fe24 f   k.coredll_ALL:twinuser.obj
 0001:0000ee40       GetActiveWindow            1000fe40 f   k.coredll_ALL:twinuser.obj
 0001:0000ee5c       AdjustWindowRectEx         1000fe5c f   k.coredll_ALL:twinuser.obj
 0001:0000ee94       CreatePopupMenu            1000fe94 f   k.coredll_ALL:twinuser.obj
 0001:0000eeb0       InsertMenuW                1000feb0 f   k.coredll_ALL:twinuser.obj
 0001:0000eef8       AppendMenuW                1000fef8 f   k.coredll_ALL:twinuser.obj
 0001:0000ef30       RemoveMenu                 1000ff30 f   k.coredll_ALL:twinuser.obj
 0001:0000ef4c       DestroyMenu                1000ff4c f   k.coredll_ALL:twinuser.obj
 0001:0000ef68       TrackPopupMenuEx           1000ff68 f   k.coredll_ALL:twinuser.obj
 0001:0000efa4       LoadMenuW                  1000ffa4 f   k.coredll_ALL:twinuser.obj
 0001:0000efe0       EnableMenuItem             1000ffe0 f   k.coredll_ALL:twinuser.obj
 0001:0000effc       GetMenuDefaultItem         1000fffc f   k.coredll_ALL:twinuser.obj
 0001:0000f018       SetMenuDefaultItem         10010018 f   k.coredll_ALL:twinuser.obj
 0001:0000f034       SetMenuItemBitmaps         10010034 f   k.coredll_ALL:twinuser.obj
 0001:0000f060       MoveWindow                 10010060 f   k.coredll_ALL:twinuser.obj
 0001:0000f094       GetUpdateRgn               10010094 f   k.coredll_ALL:twinuser.obj
 0001:0000f0b0       GetUpdateRect              100100b0 f   k.coredll_ALL:twinuser.obj
 0001:0000f0d4       BringWindowToTop           100100d4 f   k.coredll_ALL:twinuser.obj
 0001:0000f0f0       GetWindowTextLengthW       100100f0 f   k.coredll_ALL:twinuser.obj
 0001:0000f10c       IsChild                    1001010c f   k.coredll_ALL:twinuser.obj
 0001:0000f128       GetWindowDC                10010128 f   k.coredll_ALL:twinuser.obj
 0001:0000f144       SetFocus                   10010144 f   k.coredll_ALL:twinuser.obj
 0001:0000f160       ValidateRect               10010160 f   k.coredll_ALL:twinuser.obj
 0001:0000f180       ValidateRgn                10010180 f   k.coredll_ALL:twinuser.obj
 0001:0000f19c       InvalidateRgn              1001019c f   k.coredll_ALL:twinuser.obj
 0001:0000f1b8       LoadBitmapW                100101b8 f   k.coredll_ALL:twinuser.obj
 0001:0000f1f4       CheckMenuItem              100101f4 f   k.coredll_ALL:twinuser.obj
 0001:0000f210       CheckMenuRadioItem         10010210 f   k.coredll_ALL:twinuser.obj
 0001:0000f23c       LoadIconW                  1001023c f   k.coredll_ALL:twinuser.obj
 0001:0000f278       DrawIconEx                 10010278 f   k.coredll_ALL:twinuser.obj
 0001:0000f2c4       DestroyIcon                100102c4 f   k.coredll_ALL:twinuser.obj
 0001:0000f2e0       BeginDeferWindowPos        100102e0 f   k.coredll_ALL:twinuser.obj
 0001:0000f2fc       DeferWindowPos             100102fc f   k.coredll_ALL:twinuser.obj
 0001:0000f340       EndDeferWindowPos          10010340 f   k.coredll_ALL:twinuser.obj
 0001:0000f35c       GetMonitorInfo             1001035c f   k.coredll_ALL:twinuser.obj
 0001:0000f3a4       EnumDisplayDevices         100103a4 f   k.coredll_ALL:twinuser.obj
 0001:0000f3fc       EnumDisplaySettings        100103fc f   k.coredll_ALL:twinuser.obj
 0001:0000f454       EnumDisplayMonitors        10010454 f   k.coredll_ALL:twinuser.obj
 0001:0000f488       MonitorFromPoint           10010488 f   k.coredll_ALL:twinuser.obj
 0001:0000f4b4       MonitorFromRect            100104b4 f   k.coredll_ALL:twinuser.obj
 0001:0000f4d8       MonitorFromWindow          100104d8 f   k.coredll_ALL:twinuser.obj
 0001:0000f4f4       ChangeDisplaySettingsEx    100104f4 f   k.coredll_ALL:twinuser.obj
 0001:0000f588       GetMessageSource           10010588 f   k.coredll_ALL:twinuser.obj
 0001:0000f5a4       SetWindowsHookExW          100105a4 f   k.coredll_ALL:twinuser.obj
 0001:0000f5c0       UnhookWindowsHookEx        100105c0 f   k.coredll_ALL:twinuser.obj
 0001:0000f5dc       CallNextHookEx             100105dc f   k.coredll_ALL:twinuser.obj
 0001:0000f5e4       RegisterHotKey             100105e4 f   k.coredll_ALL:twinuser.obj
 0001:0000f610       RegisterPostIMEProcessedHotkey 10010610 f   k.coredll_ALL:twinuser.obj
 0001:0000f63c       UnregisterHotKey           1001063c f   k.coredll_ALL:twinuser.obj
 0001:0000f658       UnregisterFunc1            10010658 f   k.coredll_ALL:twinuser.obj
 0001:0000f674       AllKeys                    10010674 f   k.coredll_ALL:twinuser.obj
 0001:0000f690       AccessibilitySoundSentryEvent 10010690 f   k.coredll_ALL:twinuser.obj
 0001:0000f6ac       SetWindowRgn               100106ac f   k.coredll_ALL:twinuser.obj
 0001:0000f6c8       GetWindowRgn               100106c8 f   k.coredll_ALL:twinuser.obj
 0001:0000f6e4       GetDesktopWindow           100106e4 f   k.coredll_ALL:twinuser.obj
 0001:0000f700       DestroyCursor              10010700 f   k.coredll_ALL:twinuser.obj
 0001:0000f71c       GetCursor                  1001071c f   k.coredll_ALL:twinuser.obj
 0001:0000f738       GetCursorPos               10010738 f   k.coredll_ALL:twinuser.obj
 0001:0000f758       LoadCursorW                10010758 f   k.coredll_ALL:twinuser.obj
 0001:0000f794       LoadAnimatedCursor         10010794 f   k.coredll_ALL:twinuser.obj
 0001:0000f7b0       SetCursorPos               100107b0 f   k.coredll_ALL:twinuser.obj
 0001:0000f7cc       ShowCursor                 100107cc f   k.coredll_ALL:twinuser.obj
 0001:0000f7e8       RegisterWindowMessageW     100107e8 f   k.coredll_ALL:twinuser.obj
 0001:0000f804       QASetWindowsJournalHook    10010804 f   k.coredll_ALL:twinuser.obj
 0001:0000f824       QAUnhookWindowsJournalHook 10010824 f   k.coredll_ALL:twinuser.obj
 0001:0000f840       GetMessageWNoWait          10010840 f   k.coredll_ALL:twinuser.obj
 0001:0000f878       TouchCalibrate             10010878 f   k.coredll_ALL:twinuser.obj
 0001:0000f894       DisableCaretSystemWide     10010894 f   k.coredll_ALL:twinuser.obj
 0001:0000f8b0       EnableCaretSystemWide      100108b0 f   k.coredll_ALL:twinuser.obj
 0001:0000f8cc       EnableHardwareKeyboard     100108cc f   k.coredll_ALL:twinuser.obj
 0001:0000f8e8       GetAsyncShiftFlags         100108e8 f   k.coredll_ALL:twinuser.obj
 0001:0000f904       MsgWaitForMultipleObjectsEx 10010904 f   k.coredll_ALL:twinuser.obj
 0001:0000f970       SetAssociatedMenu          10010970 f   k.coredll_ALL:twinuser.obj
 0001:0000f98c       GetAssociatedMenu          1001098c f   k.coredll_ALL:twinuser.obj
 0001:0000f9a8       DrawMenuBar                100109a8 f   k.coredll_ALL:twinuser.obj
 0001:0000f9c4       SetSysColors               100109c4 f   k.coredll_ALL:twinuser.obj
 0001:0000fa4c       DrawFrameControl           10010a4c f   k.coredll_ALL:twinuser.obj
 0001:0000fa80       ClipCursor                 10010a80 f   k.coredll_ALL:twinuser.obj
 0001:0000faa0       EndDialog                  10010aa0 f   k.coredll_ALL:twinuser.obj
 0001:0000fabc       GetDlgItem                 10010abc f   k.coredll_ALL:twinuser.obj
 0001:0000fad8       SetScrollPos               10010ad8 f   k.coredll_ALL:twinuser.obj
 0001:0000faf4       SetScrollRange             10010af4 f   k.coredll_ALL:twinuser.obj
 0001:0000fb20       GetScrollInfo              10010b20 f   k.coredll_ALL:twinuser.obj
 0001:0000fb40       MapVirtualKeyW             10010b40 f   k.coredll_ALL:twinuser.obj
 0001:0000fb90       GetClassNameW              10010b90 f   k.coredll_ALL:twinuser.obj
 0001:0000fbec       MapWindowPoints            10010bec f   k.coredll_ALL:twinuser.obj
 0001:0000fc4c       LoadImageW                 10010c4c f   k.coredll_ALL:twinuser.obj
 0001:0000fcac       GetForegroundWindow        10010cac f   k.coredll_ALL:twinuser.obj
 0001:0000fcc8       SetForegroundWindow        10010cc8 f   k.coredll_ALL:twinuser.obj
 0001:0000fce4       SetActiveWindow            10010ce4 f   k.coredll_ALL:twinuser.obj
 0001:0000fd00       CreateCaret                10010d00 f   k.coredll_ALL:twinuser.obj
 0001:0000fd1c       DestroyCaret               10010d1c f   k.coredll_ALL:twinuser.obj
 0001:0000fd38       HideCaret                  10010d38 f   k.coredll_ALL:twinuser.obj
 0001:0000fd54       ShowCaret                  10010d54 f   k.coredll_ALL:twinuser.obj
 0001:0000fd70       SetCaretPos                10010d70 f   k.coredll_ALL:twinuser.obj
 0001:0000fd8c       GetCaretPos                10010d8c f   k.coredll_ALL:twinuser.obj
 0001:0000fdac       SetCaretBlinkTime          10010dac f   k.coredll_ALL:twinuser.obj
 0001:0000fdc8       GetCaretBlinkTime          10010dc8 f   k.coredll_ALL:twinuser.obj
 0001:0000fde4       GetClassInfoW              10010de4 f   k.coredll_ALL:twinuser.obj
 0001:0000fe58       GetNextDlgTabItem          10010e58 f   k.coredll_ALL:twinuser.obj
 0001:0000fe74       GetNextDlgGroupItem        10010e74 f   k.coredll_ALL:twinuser.obj
 0001:0000fe90       SetDlgItemInt              10010e90 f   k.coredll_ALL:twinuser.obj
 0001:0000feac       GetDlgItemInt              10010eac f   k.coredll_ALL:twinuser.obj
 0001:0000fec8       CheckRadioButton           10010ec8 f   k.coredll_ALL:twinuser.obj
 0001:0000fee4       SendDlgItemMessageW        10010ee4 f   k.coredll_ALL:twinuser.obj
 0001:0000ff10       SetDlgItemTextW            10010f10 f   k.coredll_ALL:twinuser.obj
 0001:0000ff2c       GetDlgItemTextW            10010f2c f   k.coredll_ALL:twinuser.obj
 0001:0000ff90       FindWindowW                10010f90 f   k.coredll_ALL:twinuser.obj
 0001:0000ffc8       SetTimer                   10010fc8 f   k.coredll_ALL:twinuser.obj
 0001:0000ffe4       KillTimer                  10010fe4 f   k.coredll_ALL:twinuser.obj
 0001:00010000       ExtractIconExW             10011000 f   k.coredll_ALL:twinuser.obj
 0001:0001002c       CreateMenu                 1001102c f   k.coredll_ALL:twinuser.obj
 0001:00010048       GetSubMenu                 10011048 f   k.coredll_ALL:twinuser.obj
 0001:00010064       EnableWindow               10011064 f   k.coredll_ALL:twinuser.obj
 0001:00010080       IsWindowEnabled            10011080 f   k.coredll_ALL:twinuser.obj
 0001:0001009c       ScrollDC                   1001109c f   k.coredll_ALL:twinuser.obj
 0001:000100e8       ScrollWindowEx             100110e8 f   k.coredll_ALL:twinuser.obj
 0001:0001013c       OpenClipboard              1001113c f   k.coredll_ALL:twinuser.obj
 0001:00010158       CloseClipboard             10011158 f   k.coredll_ALL:twinuser.obj
 0001:00010174       GetClipboardOwner          10011174 f   k.coredll_ALL:twinuser.obj
 0001:00010190       SetClipboardData           10011190 f   k.coredll_ALL:twinuser.obj
 0001:000101c8       GetClipboardData           100111c8 f   k.coredll_ALL:twinuser.obj
 0001:000101e8       CountClipboardFormats      100111e8 f   k.coredll_ALL:twinuser.obj
 0001:00010204       EnumClipboardFormats       10011204 f   k.coredll_ALL:twinuser.obj
 0001:00010220       GetClipboardFormatNameW    10011220 f   k.coredll_ALL:twinuser.obj
 0001:00010288       EmptyClipboard             10011288 f   k.coredll_ALL:twinuser.obj
 0001:000102a4       IsClipboardFormatAvailable 100112a4 f   k.coredll_ALL:twinuser.obj
 0001:000102c0       GetPriorityClipboardFormat 100112c0 f   k.coredll_ALL:twinuser.obj
 0001:0001031c       GetOpenClipboardWindow     1001131c f   k.coredll_ALL:twinuser.obj
 0001:00010338       MessageBeep                10011338 f   k.coredll_ALL:twinuser.obj
 0001:00010354       GetClipboardDataAlloc      10011354 f   k.coredll_ALL:twinuser.obj
 0001:00010374       SetMenuItemInfoW           10011374 f   k.coredll_ALL:twinuser.obj
 0001:000103d0       GetMenuItemInfoW           100113d0 f   k.coredll_ALL:twinuser.obj
 0001:0001042c       GetMessagePos              1001142c f   k.coredll_ALL:twinuser.obj
 0001:00010448       SendMessageTimeout         10011448 f   k.coredll_ALL:twinuser.obj
 0001:00010484       GetMessageQueueReadyTimeStamp 10011484 f   k.coredll_ALL:twinuser.obj
 0001:000104a0       SendNotifyMessageW         100114a0 f   k.coredll_ALL:twinuser.obj
 0001:000104bc       PostThreadMessageW         100114bc f   k.coredll_ALL:twinuser.obj
 0001:000104d8       EnumWindows                100114d8 f   k.coredll_ALL:twinuser.obj
 0001:000104f4       MapDialogRect              100114f4 f   k.coredll_ALL:twinuser.obj
 0001:00010514       GetDialogBaseUnits         10011514 f   k.coredll_ALL:twinuser.obj
 0001:00010530       GetDoubleClickTime         10011530 f   k.coredll_ALL:twinuser.obj
 0001:0001054c       GetWindowThreadProcessId   1001154c f   k.coredll_ALL:twinuser.obj
 0001:00010568       CreateIconIndirect         10011568 f   k.coredll_ALL:twinuser.obj
 0001:00010588       SetCursor                  10011588 f   k.coredll_ALL:twinuser.obj
 0001:000105a4       GetKeyboardStatus          100115a4 f   k.coredll_ALL:twinuser.obj
 0001:000105c0       GetKeyboardType            100115c0 f   k.coredll_ALL:twinuser.obj
 0001:000105dc       GetKeyboardLayout          100115dc f   k.coredll_ALL:twinuser.obj
 0001:000105f8       GetKeyboardLayoutList      100115f8 f   k.coredll_ALL:twinuser.obj
 0001:00010628       LoadKeyboardLayoutW        10011628 f   k.coredll_ALL:twinuser.obj
 0001:00010644       GetKeyboardLayoutNameW     10011644 f   k.coredll_ALL:twinuser.obj
 0001:00010664       ActivateKeyboardLayout     10011664 f   k.coredll_ALL:twinuser.obj
 0001:00010680       GlobalAddAtomW             10011680 f   k.coredll_ALL:twinuser.obj
 0001:000106b8       GlobalDeleteAtom           100116b8 f   k.coredll_ALL:twinuser.obj
 0001:000106d8       GlobalFindAtomW            100116d8 f   k.coredll_ALL:twinuser.obj
 0001:00010710       PostKeybdMessageEx         10011710 f   k.coredll_ALL:twinuser.obj
 0001:000107bc       PostKeybdMessage           100117bc f   k.coredll_ALL:twinuser.obj
 0001:00010860       GetKeybdGuidFromKeybdMessage 10011860 f   k.coredll_ALL:twinuser.obj
 0001:0001088c       GetLastInputType           1001188c f   k.coredll_ALL:twinuser.obj
 0001:000108a8       SetLastInputType           100118a8 f   k.coredll_ALL:twinuser.obj
 0001:000108c4       SetCurrentInputLanguage    100118c4 f   k.coredll_ALL:twinuser.obj
 0001:000108e0       GetCurrentInputLanguage    100118e0 f   k.coredll_ALL:twinuser.obj
 0001:000108fc       GetMouseMovePoints         100118fc f   k.coredll_ALL:twinuser.obj
 0001:00010938       SystemIdleTimerReset       10011938 f   k.coredll_ALL:twinuser.obj
 0001:00010954       SetKeyboardTarget          10011954 f   k.coredll_ALL:twinuser.obj
 0001:00010970       GetKeyboardTarget          10011970 f   k.coredll_ALL:twinuser.obj
 0001:0001098c       NotifyWinUserSystem        1001198c f   k.coredll_ALL:twinuser.obj
 0001:000109a8       RegisterTaskBar            100119a8 f   k.coredll_ALL:twinuser.obj
 0001:000109c4       RegisterTaskBarEx          100119c4 f   k.coredll_ALL:twinuser.obj
 0001:000109e0       RegisterDesktop            100119e0 f   k.coredll_ALL:twinuser.obj
 0001:000109fc       RegisterSIPanel            100119fc f   k.coredll_ALL:twinuser.obj
 0001:00010a18       RectangleAnimation         10011a18 f   k.coredll_ALL:twinuser.obj
 0001:00010a3c       ShellModalEnd              10011a3c f   k.coredll_ALL:twinuser.obj
 0001:00010a58       GwesPowerOffSystem         10011a58 f   k.coredll_ALL:twinuser.obj
 0001:00010a74       GwesPowerDown              10011a74 f   k.coredll_ALL:twinuser.obj
 0001:00010a90       GwesPowerUp                10011a90 f   k.coredll_ALL:twinuser.obj
 0001:00010aac       KeybdGetDeviceInfo         10011aac f   k.coredll_ALL:twinuser.obj
 0001:00010ac8       KeybdInitStates            10011ac8 f   k.coredll_ALL:twinuser.obj
 0001:00010aec       KeybdVKeyToUnicode         10011aec f   k.coredll_ALL:twinuser.obj
 0001:00010ba8       SetProp                    10011ba8 f   k.coredll_ALL:twinuser.obj
 0001:00010be0       GetProp                    10011be0 f   k.coredll_ALL:twinuser.obj
 0001:00010c14       RemoveProp                 10011c14 f   k.coredll_ALL:twinuser.obj
 0001:00010c48       EnumPropsEx                10011c48 f   k.coredll_ALL:twinuser.obj
 0001:00010c64       PostMessageW               10011c64 f   k.coredll_ALL:twinuser.obj
 0001:00010c80       CallWindowProcW            10011c80 f   k.coredll_ALL:twinuser.obj
 0001:00010cac       SendMessageW               10011cac f   k.coredll_ALL:twinuser.obj
 0001:00010cc8       GetMessageW                10011cc8 f   k.coredll_ALL:twinuser.obj
 0001:00010d00       DispatchMessageW           10011d00 f   k.coredll_ALL:twinuser.obj
 0001:00010d4c       RegisterForwardKeys        10011d4c f   k.coredll_ALL:twinuser.obj
 0001:00010d68       UnregisterForwardKeys      10011d68 f   k.coredll_ALL:twinuser.obj
 0001:00010d84       IsForwardKey               10011d84 f   k.coredll_ALL:twinuser.obj
 0001:00010da0       ForwardKeyMessages         10011da0 f   k.coredll_ALL:twinuser.obj
 0001:00010dbc       StartKeyForwarding         10011dbc f   k.coredll_ALL:twinuser.obj
 0001:00010dd8       StopKeyForwarding          10011dd8 f   k.coredll_ALL:twinuser.obj
 0001:00010df4       SetWindowPos               10011df4 f   k.coredll_ALL:twinuser.obj
 0001:00010e30       GetWindowRect              10011e30 f   k.coredll_ALL:twinuser.obj
 0001:00010e50       GetClientRect              10011e50 f   k.coredll_ALL:twinuser.obj
 0001:00010e70       InvalidateRect             10011e70 f   k.coredll_ALL:twinuser.obj
 0001:00010e94       GetWindow                  10011e94 f   k.coredll_ALL:twinuser.obj
 0001:00010eb0       GetSystemMetrics           10011eb0 f   k.coredll_ALL:twinuser.obj
 0001:00010f28       ClientToScreen             10011f28 f   k.coredll_ALL:twinuser.obj
 0001:00010f48       SetWindowLongW             10011f48 f   k.coredll_ALL:twinuser.obj
 0001:00010f64       GetWindowLongW             10011f64 f   k.coredll_ALL:twinuser.obj
 0001:00010f80       BeginPaint                 10011f80 f   k.coredll_ALL:twinuser.obj
 0001:00010fa0       EndPaint                   10011fa0 f   k.coredll_ALL:twinuser.obj
 0001:00010fc0       GetDC                      10011fc0 f   k.coredll_ALL:twinuser.obj
 0001:00010fdc       ReleaseDC                  10011fdc f   k.coredll_ALL:twinuser.obj
 0001:00010ff8       DefWindowProcW             10011ff8 f   k.coredll_ALL:twinuser.obj
 0001:00011248       GetParent                  10012248 f   k.coredll_ALL:twinuser.obj
 0001:00011264       GetFocus                   10012264 f   k.coredll_ALL:twinuser.obj
 0001:00011280       GetSysColor                10012280 f   k.coredll_ALL:twinuser.obj
 0001:000112f0       IsWindow                   100122f0 f   k.coredll_ALL:twinuser.obj
 0001:0001130c       DeleteMenu                 1001230c f   k.coredll_ALL:twinuser.obj
 0001:00011328       IsWindowVisible            10012328 f   k.coredll_ALL:twinuser.obj
 0001:00011344       GetAsyncKeyState           10012344 f   k.coredll_ALL:twinuser.obj
 0001:00011360       GetKeyState                10012360 f   k.coredll_ALL:twinuser.obj
 0001:0001137c       GetDlgCtrlID               1001237c f   k.coredll_ALL:twinuser.obj
 0001:00011398       keybd_event                10012398 f   k.coredll_ALL:twinuser.obj
 0001:000113e4       keybd_eventEx              100123e4 f   k.coredll_ALL:twinuser.obj
 0001:00011444       SetScrollInfo              10012444 f   k.coredll_ALL:twinuser.obj
 0001:00011474       PeekMessageW               10012474 f   k.coredll_ALL:twinuser.obj
 0001:000114b4       GetForegroundInfo          100124b4 f   k.coredll_ALL:twinuser.obj
 0001:000114f8       GetForegroundKeyboardTarget 100124f8 f   k.coredll_ALL:twinuser.obj
 0001:00011520       GetForegroundKeyboardLayoutHandle 10012520 f   k.coredll_ALL:twinuser.obj
 0001:00011548       IsDialogMessageW           10012548 f   k.coredll_ALL:twinuser.obj
 0001:00011568       DefDlgProcW                10012568 f   k.coredll_ALL:twinuser.obj
 0001:00011584       TranslateAcceleratorW      10012584 f   k.coredll_ALL:twinuser.obj
 0001:000115e0       RegisterClipboardFormatW   100125e0 f   k.coredll_ALL:twinuser.obj
 0001:000115fc       mouse_event                100125fc f   k.coredll_ALL:twinuser.obj
 0001:0001165c       GetClipCursor              1001265c f   k.coredll_ALL:twinuser.obj
 0001:0001167c       SendInput                  1001267c f   k.coredll_ALL:twinuser.obj
 0001:00011704       EnableGestures             10012704 f   k.coredll_ALL:twinuser.obj
 0001:00011730       DisableGestures            10012730 f   k.coredll_ALL:twinuser.obj
 0001:0001175c       QueryGestures              1001275c f   k.coredll_ALL:twinuser.obj
 0001:00011780       GetGestureInfo             10012780 f   k.coredll_ALL:twinuser.obj
 0001:00011828       GetGestureExtraArguments   10012828 f   k.coredll_ALL:twinuser.obj
 0001:000118e0       Gesture                    100128e0 f   k.coredll_ALL:twinuser.obj
 0001:0001193c       GestureBeginSession        1001293c f   k.coredll_ALL:twinuser.obj
 0001:00011988       GestureEndSession          10012988 f   k.coredll_ALL:twinuser.obj
 0001:000119d4       SetWindowCursorPreference  100129d4 f   k.coredll_ALL:twinuser.obj
 0001:000119f0       GetWindowCursorPreference  100129f0 f   k.coredll_ALL:twinuser.obj
 0001:00011a0c       SetSystemCursorPreference  10012a0c f   k.coredll_ALL:twinuser.obj
 0001:00011a28       GetSystemCursorPreference  10012a28 f   k.coredll_ALL:twinuser.obj
 0001:00011a44       GetWindowTextWDirect       10012a44 f   k.coredll_ALL:twinuser.obj
 0001:00011ab0       ShowStartupWindow          10012ab0 f   k.coredll_ALL:twinuser.obj
 0001:00011ad0       ShowStartupWindowBypassWantStartupScreen 10012ad0 f   k.coredll_ALL:twinuser.obj
 0001:00011af0       GetIconInfo                10012af0 f   k.coredll_ALL:twinuser.obj
 0001:00011b10       SetDialogAutoScrollBar     10012b10 f   k.coredll_ALL:twinuser.obj
 0001:00011b2c       SetWindowPosOnRotate       10012b2c f   k.coredll_ALL:twinuser.obj
 0001:00011b70       AnimateRects               10012b70 f   k.coredll_ALL:twinuser.obj
 0001:00011b90       GetWindowOpacity           10012b90 f   k.coredll_ALL:twinuser.obj
 0001:00011bac       SetWindowOpacity           10012bac f   k.coredll_ALL:twinuser.obj
 0001:00011bc8       UpdateWindowSurface        10012bc8 f   k.coredll_ALL:twinuser.obj
 0001:00011c30       GetWindowCompositionFlags  10012c30 f   k.coredll_ALL:twinuser.obj
 0001:00011c4c       SetWindowCompositionFlags  10012c4c f   k.coredll_ALL:twinuser.obj
 0001:00011c68       ?MinimizeFullScreenExclusive@@YAXXZ 10012c68 f   k.coredll_ALL:twinuser.obj
 0001:00011c84       OpenDisplayConfiguration   10012c84 f   k.coredll_ALL:twinuser.obj
 0001:00011ca0       CloseDisplayConfiguration  10012ca0 f   k.coredll_ALL:twinuser.obj
 0001:00011cbc       GetFallbackModuleNamesForDisplayConfiguration 10012cbc f   k.coredll_ALL:twinuser.obj
 0001:00011ce8       RegisterGesture            10012ce8 f   k.coredll_ALL:twinuser.obj
 0001:00011d04       CreateCursor               10012d04 f   k.coredll_ALL:twinuser.obj
 0001:00011dc8       ??1bad_alloc@std@@UAA@XZ   10012dc8 f i k.coredll_ALL:nomemory.obj
 0001:00011ddc       ??_Gbad_alloc@std@@UAAPAXI@Z 10012ddc f i k.coredll_ALL:nomemory.obj
 0001:00011ddc       ??_Ebad_alloc@std@@UAAPAXI@Z 10012ddc f i k.coredll_ALL:nomemory.obj
 0001:00011e0c       ??0bad_alloc@std@@QAA@ABV01@@Z 10012e0c f i k.coredll_ALL:nomemory.obj
 0001:00011e2c       ?_Nomemory@std@@YAXXZ      10012e2c f   k.coredll_ALL:nomemory.obj
 0001:00011ea4       ?_Tidy@?$basic_string@DU?$char_traits@D@std@@V?$allocator@D@2@@std@@AAAX_N@Z 10012ea4 f i k.coredll_ALL:string.obj
 0001:00011ef0       ??1?$basic_string@DU?$char_traits@D@std@@V?$allocator@D@2@@std@@QAA@XZ 10012ef0 f i k.coredll_ALL:string.obj
 0001:00011f00       ?_Copy@?$basic_string@DU?$char_traits@D@std@@V?$allocator@D@2@@std@@AAAXI@Z 10012f00 f i k.coredll_ALL:string.obj
 0001:0001202c       ??1logic_error@std@@UAA@XZ 1001302c f i k.coredll_ALL:string.obj
 0001:00012054       ?what@logic_error@std@@UBAPBDXZ 10013054 f i k.coredll_ALL:string.obj
 0001:0001206c       ??_Elogic_error@std@@UAAPAXI@Z 1001306c f i k.coredll_ALL:string.obj
 0001:0001206c       ??_Glogic_error@std@@UAAPAXI@Z 1001306c f i k.coredll_ALL:string.obj
 0001:000120a8       ??1out_of_range@std@@UAA@XZ 100130a8 f i k.coredll_ALL:string.obj
 0001:000120d0       ??_Gout_of_range@std@@UAAPAXI@Z 100130d0 f i k.coredll_ALL:string.obj
 0001:000120d0       ??_Eout_of_range@std@@UAAPAXI@Z 100130d0 f i k.coredll_ALL:string.obj
 0001:00012114       ?_Xran@std@@YAXXZ          10013114 f   k.coredll_ALL:string.obj
 0001:00012180       ?erase@?$basic_string@DU?$char_traits@D@std@@V?$allocator@D@2@@std@@QAAAAV12@II@Z 10013180 f i k.coredll_ALL:string.obj
 0001:00012208       ?assign@?$basic_string@DU?$char_traits@D@std@@V?$allocator@D@2@@std@@QAAAAV12@ABV12@II@Z 10013208 f i k.coredll_ALL:string.obj
 0001:00012328       ??0logic_error@std@@QAA@ABV?$basic_string@DU?$char_traits@D@std@@V?$allocator@D@2@@1@@Z 10013328 f i k.coredll_ALL:string.obj
 0001:000123a8       ??0logic_error@std@@QAA@ABV01@@Z 100133a8 f i k.coredll_ALL:string.obj
 0001:00012418       ??1length_error@std@@UAA@XZ 10013418 f i k.coredll_ALL:string.obj
 0001:00012440       ??_Glength_error@std@@UAAPAXI@Z 10013440 f i k.coredll_ALL:string.obj
 0001:00012440       ??_Elength_error@std@@UAAPAXI@Z 10013440 f i k.coredll_ALL:string.obj
 0001:0001247c       ??0length_error@std@@QAA@ABV01@@Z 1001347c f i k.coredll_ALL:string.obj
 0001:0001249c       ??0out_of_range@std@@QAA@ABV01@@Z 1001349c f i k.coredll_ALL:string.obj
 0001:000124c4       ?_Xlen@std@@YAXXZ          100134c4 f   k.coredll_ALL:string.obj
 0001:00012530       ?_Grow@?$basic_string@DU?$char_traits@D@std@@V?$allocator@D@2@@std@@AAA_NI_N@Z 10013530 f i k.coredll_ALL:string.obj
 0001:00012644       ?_Doraise@logic_error@std@@MBAXXZ 10013644 f i k.coredll_ALL:string.obj
 0001:0001266c       ?_Doraise@length_error@std@@MBAXXZ 1001366c f i k.coredll_ALL:string.obj
 0001:000126a0       ?_Doraise@out_of_range@std@@MBAXXZ 100136a0 f i k.coredll_ALL:string.obj
 0001:000126d4       ?assign@?$basic_string@DU?$char_traits@D@std@@V?$allocator@D@2@@std@@QAAAAV12@PBDI@Z 100136d4 f i k.coredll_ALL:string.obj
 0001:00012720       ?_Split@?$basic_string@DU?$char_traits@D@std@@V?$allocator@D@2@@std@@AAAXXZ 10013720 f i k.coredll_ALL:string.obj
 0001:0001276c       ?set_terminate@std@@YAP6AXXZP6AXXZ@Z 1001376c f   k.coredll_ALL:user.obj
 0001:00012784       ?set_unexpected@std@@YAP6AXXZP6AXXZ@Z 10013784 f   k.coredll_ALL:user.obj
 0001:0001279c       ?__set_inconsistency@@YAP6AXXZP6AXXZ@Z 1001379c f   k.coredll_ALL:user.obj
 0001:000127bc       ?terminate@std@@YAXXZ      100137bc f   k.coredll_ALL:hooks.obj
 0001:00012810       ?unexpected@std@@YAXXZ     10013810 f   k.coredll_ALL:hooks.obj
 0001:00012830       ?_inconsistency@@YAXXZ     10013830 f   k.coredll_ALL:hooks.obj
 0001:00012850       ?_set_new_handler@@YAP6AHI@ZP6AHI@Z@Z 10013850 f   k.coredll_ALL:handler.obj
 0001:00012868       ?_query_new_handler@@YAP6AHI@ZXZ 10013868 f   k.coredll_ALL:handler.obj
 0001:00012878       _callnewh                  10013878 f   k.coredll_ALL:handler.obj
 0001:000128a8       ?_set_new_mode@@YAHH@Z     100138a8 f   k.coredll_ALL:new_mode.obj
 0001:000128cc       ?_query_new_mode@@YAHXZ    100138cc f   k.coredll_ALL:new_mode.obj
 0001:000128dc       ?name@type_info@@QBAPBDXZ  100138dc f   k.coredll_ALL:typname.obj
 0001:0001299c       ?set_new_handler@@YAP6AXXZP6AXXZ@Z 1001399c f   k.coredll_ALL:setnewh.obj
 0001:000129c0       __FrameUnwindToState       100139c0 f   k.coredll_ALL:frame.obj
 0001:00012c6c       ?_DestructExceptionObject@@YAXPAUEHExceptionRecord@@E@Z 10013c6c f   k.coredll_ALL:frame.obj
 0001:00012cc8       ?uncaught_exception@std@@YA_NXZ 10013cc8 f   k.coredll_ALL:frame.obj
 0001:00012cec       ?_OffsetToAddress@@YAPAXHPAKK@Z 10013cec f   k.coredll_ALL:frame.obj
 0001:00012d28       ?FindFrameInfo@@YAPAU_FrameInfo@@PAK@Z 10013d28 f   k.coredll_ALL:frame.obj
 0001:00012d58       ?FindCatchFrameInfo@@YAPAU_FrameInfo@@PAK@Z 10013d58 f   k.coredll_ALL:frame.obj
 0001:00012d88       ?_GetRangeOfTrysToCheck@@YAPBU_s_TryBlockMapEntry@@PBU_s_FuncInfo@@HHPAI1@Z 10013d88 f   k.coredll_ALL:frame.obj
 0001:00013624       __InternalCxxFrameHandler  10014624 f   k.coredll_ALL:frame.obj
 0001:00013744       __CxxFrameHandler3         10014744 f   k.coredll_ALL:frame.obj
 0001:0001376c       __CxxFrameHandler          1001476c f   k.coredll_ALL:frame.obj
 0001:00013794       xxx_ADBCreateAccount       10014794 f   k.coredll_ALL:tadb.obj
 0001:000137ac       xxx_ADBDeleteAccount       100147ac f   k.coredll_ALL:tadb.obj
 0001:000137c4       xxx_ADBGetAccountProperty  100147c4 f   k.coredll_ALL:tadb.obj
 0001:000137dc       xxx_ADBSetAccountProperties 100147dc f   k.coredll_ALL:tadb.obj
 0001:000137f4       xxx_ADBGetAccountSecurityInfo 100147f4 f   k.coredll_ALL:tadb.obj
 0001:0001380c       xxx_ADBAddAccountToGroup   1001480c f   k.coredll_ALL:tadb.obj
 0001:00013824       xxx_ADBRemoveAccountFromGroup 10014824 f   k.coredll_ALL:tadb.obj
 0001:0001383c       xxx_ADBEnumAccounts        1001483c f   k.coredll_ALL:tadb.obj
 0001:00013854       xxx_ADBAccountIDFromName   10014854 f   k.coredll_ALL:tadb.obj
 0001:0001386c       xxx_ADBNameFromAccountID   1001486c f   k.coredll_ALL:tadb.obj
 0001:00013884       xxx_ADBEnumAccountsInGroup 10014884 f   k.coredll_ALL:tadb.obj
 0001:0001389c       xxx_AFDDnsQuery_W          1001489c f   k.coredll_ALL:tPmFunc.obj
 0001:000138e0       xxx_AfdDNSRecordListFree   100148e0 f   k.coredll_ALL:tPmFunc.obj
 0001:00013904       xxx_AFD_UpdateOrModifyRecords 10014904 f   k.coredll_ALL:tPmFunc.obj
 0001:00013950       xxx_PMSocket               10014950 f   k.coredll_ALL:tPmFunc.obj
 0001:0001398c       xxx_PMSelect               1001498c f   k.coredll_ALL:tPmFunc.obj
 0001:000139e8       xxx_PMInstallProvider      100149e8 f   k.coredll_ALL:tPmFunc.obj
 0001:00013a24       xxx_PMEnumProtocols        10014a24 f   k.coredll_ALL:tPmFunc.obj
 0001:00013a60       xxx_PMFindProvider         10014a60 f   k.coredll_ALL:tPmFunc.obj
 0001:00013ab4       xxx_PMInstallNameSpace     10014ab4 f   k.coredll_ALL:tPmFunc.obj
 0001:00013af0       xxx_PMEnumNameSpaceProviders 10014af0 f   k.coredll_ALL:tPmFunc.obj
 0001:00013b24       xxx_PMFindNameSpaces       10014b24 f   k.coredll_ALL:tPmFunc.obj
 0001:00013b58       xxx_PMAddrConvert          10014b58 f   k.coredll_ALL:tPmFunc.obj
 0001:00013bb4       xxx_PMAccept               10014bb4 f   k.coredll_ALL:tPmFunc.obj
 0001:00013bf8       xxx_PMBind                 10014bf8 f   k.coredll_ALL:tPmFunc.obj
 0001:00013c1c       xxx_PMConnect              10014c1c f   k.coredll_ALL:tPmFunc.obj
 0001:00013c40       xxx_PMIoctl                10014c40 f   k.coredll_ALL:tPmFunc.obj
 0001:00013ca4       xxx_PMListen               10014ca4 f   k.coredll_ALL:tPmFunc.obj
 0001:00013cc8       xxx_PMRecv                 10014cc8 f   k.coredll_ALL:tPmFunc.obj
 0001:00013cfc       xxx_PMRecvFrom             10014cfc f   k.coredll_ALL:tPmFunc.obj
 0001:00013d48       xxx_PMRecvEx               10014d48 f   k.coredll_ALL:tPmFunc.obj
 0001:00013dc4       xxx_PMSend                 10014dc4 f   k.coredll_ALL:tPmFunc.obj
 0001:00013df8       xxx_PMSendTo               10014df8 f   k.coredll_ALL:tPmFunc.obj
 0001:00013e3c       xxx_PMSendEx               10014e3c f   k.coredll_ALL:tPmFunc.obj
 0001:00013e98       xxx_PMSendMsg              10014e98 f   k.coredll_ALL:tPmFunc.obj
 0001:00013eec       xxx_PMShutdown             10014eec f   k.coredll_ALL:tPmFunc.obj
 0001:00013f10       xxx_PMGetsockname          10014f10 f   k.coredll_ALL:tPmFunc.obj
 0001:00013f34       xxx_PMGetpeername          10014f34 f   k.coredll_ALL:tPmFunc.obj
 0001:00013f58       xxx_PMGetSockOpt           10014f58 f   k.coredll_ALL:tPmFunc.obj
 0001:00013f94       xxx_PMSetSockOpt           10014f94 f   k.coredll_ALL:tPmFunc.obj
 0001:00013fc8       xxx_PMWakeup               10014fc8 f   k.coredll_ALL:tPmFunc.obj
 0001:00013fec       xxx_PMGetOverlappedResult  10014fec f   k.coredll_ALL:tPmFunc.obj
 0001:00014028       xxx_PMEventSelect          10015028 f   k.coredll_ALL:tPmFunc.obj
 0001:0001404c       xxx_PMEnumNetworkEvents    1001504c f   k.coredll_ALL:tPmFunc.obj
 0001:00014070       xxx_PMCloseSocket          10015070 f   k.coredll_ALL:tPmFunc.obj
 0001:00014094       xxx_RasDial                10015094 f   k.coredll_ALL:tafdfunc.obj
 0001:000140ec       xxx_RasHangup              100150ec f   k.coredll_ALL:tafdfunc.obj
 0001:00014110       xxx_RasEnumEntries         10015110 f   k.coredll_ALL:tafdfunc.obj
 0001:00014164       xxx_RasGetEntryDialParams  10015164 f   k.coredll_ALL:tafdfunc.obj
 0001:00014190       xxx_RasSetEntryDialParams  10015190 f   k.coredll_ALL:tafdfunc.obj
 0001:000141bc       xxx_RasGetEntryProperties  100151bc f   k.coredll_ALL:tafdfunc.obj
 0001:0001422c       xxx_RasSetEntryProperties  1001522c f   k.coredll_ALL:tafdfunc.obj
 0001:00014268       xxx_RasValidateEntryName   10015268 f   k.coredll_ALL:tafdfunc.obj
 0001:0001428c       xxx_RasDeleteEntry         1001528c f   k.coredll_ALL:tafdfunc.obj
 0001:000142b0       xxx_RasRenameEntry         100152b0 f   k.coredll_ALL:tafdfunc.obj
 0001:000142d4       xxx_RasEnumConnections     100152d4 f   k.coredll_ALL:tafdfunc.obj
 0001:00014314       xxx_RasGetConnectStatus    10015314 f   k.coredll_ALL:tafdfunc.obj
 0001:0001433c       xxx_RasGetEntryDevConfig   1001533c f   k.coredll_ALL:tafdfunc.obj
 0001:00014394       xxx_RasSetEntryDevConfig   10015394 f   k.coredll_ALL:tafdfunc.obj
 0001:000143e8       xxx_RasIOControl           100153e8 f   k.coredll_ALL:tafdfunc.obj
 0001:0001442c       RasEnumDevicesW            1001542c f   k.coredll_ALL:tafdfunc.obj
 0001:00014480       RasGetProjectionInfoW      10015480 f   k.coredll_ALL:tafdfunc.obj
 0001:000144c8       RasGetLinkStatistics       100154c8 f   k.coredll_ALL:tafdfunc.obj
 0001:00014518       RasGetDispPhoneNumW        10015518 f   k.coredll_ALL:tafdfunc.obj
 0001:000145b0       RasDevConfigDialogEditW    100155b0 f   k.coredll_ALL:tafdfunc.obj
 0001:000146a0       RasGetEapUserData          100156a0 f   k.coredll_ALL:tafdfunc.obj
 0001:00014724       RasSetEapUserData          10015724 f   k.coredll_ALL:tafdfunc.obj
 0001:000147a8       RasGetEapConnectionData    100157a8 f   k.coredll_ALL:tafdfunc.obj
 0001:0001482c       RasSetEapConnectionData    1001582c f   k.coredll_ALL:tafdfunc.obj
 0001:000148b0       xxx_AFDSocket              100158b0 f   k.coredll_ALL:tafdfunc.obj
 0001:000148e4       xxx_AFS_Unmount            100158e4 f   k.coredll_ALL:textfile.obj
 0001:00014910       xxx_AFS_CreateDirectoryW   10015910 f   k.coredll_ALL:textfile.obj
 0001:0001495c       xxx_AFS_RemoveDirectoryW   1001595c f   k.coredll_ALL:textfile.obj
 0001:00014990       xxx_AFS_GetFileAttributesW 10015990 f   k.coredll_ALL:textfile.obj
 0001:000149c4       xxx_AFS_SetFileAttributesW 100159c4 f   k.coredll_ALL:textfile.obj
 0001:00014a00       xxx_AFS_CreateFileW        10015a00 f   k.coredll_ALL:textfile.obj
 0001:00014a84       xxx_AFS_DeleteFileW        10015a84 f   k.coredll_ALL:textfile.obj
 0001:00014ab8       xxx_AFS_MoveFileW          10015ab8 f   k.coredll_ALL:textfile.obj
 0001:00014af4       xxx_AFS_FindFirstFileW     10015af4 f   k.coredll_ALL:textfile.obj
 0001:00014b40       xxx_AFS_RegisterFileSystemFunction 10015b40 f   k.coredll_ALL:textfile.obj
 0001:00014b74       xxx_AFS_PrestoChangoFileName 10015b74 f   k.coredll_ALL:textfile.obj
 0001:00014bb0       xxx_AFS_CloseAllFileHandles 10015bb0 f   k.coredll_ALL:textfile.obj
 0001:00014be4       xxx_AFS_GetDiskFreeSpace   10015be4 f   k.coredll_ALL:textfile.obj
 0001:00014c38       xxx_AFS_NotifyMountedFS    10015c38 f   k.coredll_ALL:textfile.obj
 0001:00014c6c       xxx_AFS_FindFirstChangeNotificationW 10015c6c f   k.coredll_ALL:textfile.obj
 0001:00014cb8       xxx_AFS_FsIoControlW       10015cb8 f   k.coredll_ALL:textfile.obj
 0001:00014d24       xxx_AFS_SetFileSecurityW   10015d24 f   k.coredll_ALL:textfile.obj
 0001:00014d70       xxx_AFS_GetFileSecurityW   10015d70 f   k.coredll_ALL:textfile.obj
 0001:00014dc4       A_SHAInit                  10015dc4 f   k.coredll_ALL:sha.obj
 0001:00014e14       SHATransform               10015e14 f   k.coredll_ALL:sha.obj
 0001:0001609c       A_SHAUpdate                1001709c f   k.coredll_ALL:sha.obj
 0001:00016198       A_SHAFinal                 10017198 f   k.coredll_ALL:sha.obj
 0001:000162a0       AddFontResourceW           100172a0 f   k.coredll_ALL:twingdi.obj
 0001:000162bc       PatBlt                     100172bc f   k.coredll_ALL:twingdi.obj
 0001:000162f0       InvertRect                 100172f0 f   k.coredll_ALL:twingdi.obj
 0001:00016310       BitBlt                     10017310 f   k.coredll_ALL:twingdi.obj
 0001:0001635c       CombineRgn                 1001735c f   k.coredll_ALL:twingdi.obj
 0001:00016378       CreateBitmap               10017378 f   k.coredll_ALL:twingdi.obj
 0001:00016438       CreateCompatibleBitmap     10017438 f   k.coredll_ALL:twingdi.obj
 0001:00016454       SetBitmapBits              10017454 f   k.coredll_ALL:twingdi.obj
 0001:0001647c       CreateCompatibleDC         1001747c f   k.coredll_ALL:twingdi.obj
 0001:00016498       CreateDIBPatternBrushPt    10017498 f   k.coredll_ALL:twingdi.obj
 0001:000164bc       CreateFontIndirectW        100174bc f   k.coredll_ALL:twingdi.obj
 0001:000164dc       CreateRectRgnIndirect      100174dc f   k.coredll_ALL:twingdi.obj
 0001:000164fc       CreatePenIndirect          100174fc f   k.coredll_ALL:twingdi.obj
 0001:0001651c       CreateSolidBrush           1001751c f   k.coredll_ALL:twingdi.obj
 0001:00016538       DeleteDC                   10017538 f   k.coredll_ALL:twingdi.obj
 0001:00016554       DeleteObject               10017554 f   k.coredll_ALL:twingdi.obj
 0001:00016598       DrawEdge                   10017598 f   k.coredll_ALL:twingdi.obj
 0001:000165cc       DrawFocusRect              100175cc f   k.coredll_ALL:twingdi.obj
 0001:000165ec       DrawTextW                  100175ec f   k.coredll_ALL:twingdi.obj
 0001:000166ac       Ellipse                    100176ac f   k.coredll_ALL:twingdi.obj
 0001:000166d8       EnumFontFamiliesW          100176d8 f   k.coredll_ALL:twingdi.obj
 0001:000166f4       EnumFontsW                 100176f4 f   k.coredll_ALL:twingdi.obj
 0001:00016710       ExcludeClipRect            10017710 f   k.coredll_ALL:twingdi.obj
 0001:0001673c       ExtTextOutW                1001773c f   k.coredll_ALL:twingdi.obj
 0001:000167e8       SetTextAlign               100177e8 f   k.coredll_ALL:twingdi.obj
 0001:00016804       GetTextAlign               10017804 f   k.coredll_ALL:twingdi.obj
 0001:00016820       FillRect                   10017820 f   k.coredll_ALL:twingdi.obj
 0001:00016844       GetBkColor                 10017844 f   k.coredll_ALL:twingdi.obj
 0001:00016860       GetBkMode                  10017860 f   k.coredll_ALL:twingdi.obj
 0001:0001687c       GetClipRgn                 1001787c f   k.coredll_ALL:twingdi.obj
 0001:00016898       GetClipBox                 10017898 f   k.coredll_ALL:twingdi.obj
 0001:000168b8       GetCurrentObject           100178b8 f   k.coredll_ALL:twingdi.obj
 0001:000168d4       GetDeviceCaps              100178d4 f   k.coredll_ALL:twingdi.obj
 0001:000168f0       GetNearestColor            100178f0 f   k.coredll_ALL:twingdi.obj
 0001:0001690c       GetObjectW                 1001790c f   k.coredll_ALL:twingdi.obj
 0001:00016954       GetObjectType              10017954 f   k.coredll_ALL:twingdi.obj
 0001:00016970       GetPixel                   10017970 f   k.coredll_ALL:twingdi.obj
 0001:0001698c       GetRegionData              1001798c f   k.coredll_ALL:twingdi.obj
 0001:000169b4       GetSysColorBrush           100179b4 f   k.coredll_ALL:twingdi.obj
 0001:000169d0       GetRgnBox                  100179d0 f   k.coredll_ALL:twingdi.obj
 0001:000169f0       GetStockObject             100179f0 f   k.coredll_ALL:twingdi.obj
 0001:00016a0c       GetTextColor               10017a0c f   k.coredll_ALL:twingdi.obj
 0001:00016a28       GetTextExtentExPointW      10017a28 f   k.coredll_ALL:twingdi.obj
 0001:00016ad8       GetTextFaceW               10017ad8 f   k.coredll_ALL:twingdi.obj
 0001:00016b30       GetTextMetricsW            10017b30 f   k.coredll_ALL:twingdi.obj
 0001:00016b50       GetOutlineTextMetricsW     10017b50 f   k.coredll_ALL:twingdi.obj
 0001:00016b78       GetFontData                10017b78 f   k.coredll_ALL:twingdi.obj
 0001:00016ba4       GetCharWidth32             10017ba4 f   k.coredll_ALL:twingdi.obj
 0001:00016c18       GetCharABCWidths           10017c18 f   k.coredll_ALL:twingdi.obj
 0001:00016c9c       GetCharABCWidthsI          10017c9c f   k.coredll_ALL:twingdi.obj
 0001:00016d30       IntersectClipRect          10017d30 f   k.coredll_ALL:twingdi.obj
 0001:00016d5c       MaskBlt                    10017d5c f   k.coredll_ALL:twingdi.obj
 0001:00016dc4       OffsetRgn                  10017dc4 f   k.coredll_ALL:twingdi.obj
 0001:00016de0       MoveToEx                   10017de0 f   k.coredll_ALL:twingdi.obj
 0001:00016e0c       LineTo                     10017e0c f   k.coredll_ALL:twingdi.obj
 0001:00016e28       GetCurrentPositionEx       10017e28 f   k.coredll_ALL:twingdi.obj
 0001:00016e48       Polygon                    10017e48 f   k.coredll_ALL:twingdi.obj
 0001:00016ea4       Polyline                   10017ea4 f   k.coredll_ALL:twingdi.obj
 0001:00016f00       PtInRegion                 10017f00 f   k.coredll_ALL:twingdi.obj
 0001:00016f1c       Rectangle                  10017f1c f   k.coredll_ALL:twingdi.obj
 0001:00016f48       RectInRegion               10017f48 f   k.coredll_ALL:twingdi.obj
 0001:00016f68       RemoveFontResourceW        10017f68 f   k.coredll_ALL:twingdi.obj
 0001:00016f84       RestoreDC                  10017f84 f   k.coredll_ALL:twingdi.obj
 0001:00016fa0       RoundRect                  10017fa0 f   k.coredll_ALL:twingdi.obj
 0001:00016fdc       SaveDC                     10017fdc f   k.coredll_ALL:twingdi.obj
 0001:00016ff8       SelectClipRgn              10017ff8 f   k.coredll_ALL:twingdi.obj
 0001:00017014       SelectObject               10018014 f   k.coredll_ALL:twingdi.obj
 0001:00017030       SetBkColor                 10018030 f   k.coredll_ALL:twingdi.obj
 0001:0001704c       SetBkMode                  1001804c f   k.coredll_ALL:twingdi.obj
 0001:00017068       SetBrushOrgEx              10018068 f   k.coredll_ALL:twingdi.obj
 0001:00017094       SetPixel                   10018094 f   k.coredll_ALL:twingdi.obj
 0001:000170b0       SetTextColor               100180b0 f   k.coredll_ALL:twingdi.obj
 0001:000170cc       StretchBlt                 100180cc f   k.coredll_ALL:twingdi.obj
 0001:00017128       StretchDIBits              10018128 f   k.coredll_ALL:twingdi.obj
 0001:00017198       SetDIBitsToDevice          10018198 f   k.coredll_ALL:twingdi.obj
 0001:00017204       CreatePalette              10018204 f   k.coredll_ALL:twingdi.obj
 0001:00017280       SelectPalette              10018280 f   k.coredll_ALL:twingdi.obj
 0001:0001729c       RealizePalette             1001829c f   k.coredll_ALL:twingdi.obj
 0001:000172b8       GetPaletteEntries          100182b8 f   k.coredll_ALL:twingdi.obj
 0001:00017314       SetPaletteEntries          10018314 f   k.coredll_ALL:twingdi.obj
 0001:00017370       GetSystemPaletteEntries    10018370 f   k.coredll_ALL:twingdi.obj
 0001:000173cc       GetNearestPaletteIndex     100183cc f   k.coredll_ALL:twingdi.obj
 0001:000173e8       GetDIBColorTable           100183e8 f   k.coredll_ALL:twingdi.obj
 0001:00017444       SetDIBColorTable           10018444 f   k.coredll_ALL:twingdi.obj
 0001:000174a0       CreatePen                  100184a0 f   k.coredll_ALL:twingdi.obj
 0001:000174bc       StartDocW                  100184bc f   k.coredll_ALL:twingdi.obj
 0001:00017508       EndDoc                     10018508 f   k.coredll_ALL:twingdi.obj
 0001:00017524       StartPage                  10018524 f   k.coredll_ALL:twingdi.obj
 0001:00017540       EndPage                    10018540 f   k.coredll_ALL:twingdi.obj
 0001:0001755c       AbortDoc                   1001855c f   k.coredll_ALL:twingdi.obj
 0001:00017578       SetAbortProc               10018578 f   k.coredll_ALL:twingdi.obj
 0001:00017594       CreateDCW                  10018594 f   k.coredll_ALL:twingdi.obj
 0001:00017604       CreateRectRgn              10018604 f   k.coredll_ALL:twingdi.obj
 0001:00017620       ExtCreateRegion            10018620 f   k.coredll_ALL:twingdi.obj
 0001:00017644       FillRgn                    10018644 f   k.coredll_ALL:twingdi.obj
 0001:00017660       SetROP2                    10018660 f   k.coredll_ALL:twingdi.obj
 0001:0001767c       GetROP2                    1001867c f   k.coredll_ALL:twingdi.obj
 0001:00017698       RectVisible                10018698 f   k.coredll_ALL:twingdi.obj
 0001:000176b8       SetRectRgn                 100186b8 f   k.coredll_ALL:twingdi.obj
 0001:000176e4       CreatePatternBrush         100186e4 f   k.coredll_ALL:twingdi.obj
 0001:00017700       SetViewportOrgEx           10018700 f   k.coredll_ALL:twingdi.obj
 0001:0001772c       GetViewportOrgEx           1001872c f   k.coredll_ALL:twingdi.obj
 0001:0001774c       OffsetViewportOrgEx        1001874c f   k.coredll_ALL:twingdi.obj
 0001:00017778       GetViewportExtEx           10018778 f   k.coredll_ALL:twingdi.obj
 0001:00017798       SetWindowOrgEx             10018798 f   k.coredll_ALL:twingdi.obj
 0001:000177c4       GetWindowOrgEx             100187c4 f   k.coredll_ALL:twingdi.obj
 0001:000177e4       GetWindowExtEx             100187e4 f   k.coredll_ALL:twingdi.obj
 0001:00017804       TransparentImage           10018804 f   k.coredll_ALL:twingdi.obj
 0001:00017860       GradientFill               10018860 f   k.coredll_ALL:twingdi.obj
 0001:00017904       TranslateCharsetInfo       10018904 f   k.coredll_ALL:twingdi.obj
 0001:00017958       ExtEscape                  10018958 f   k.coredll_ALL:twingdi.obj
 0001:000179c0       BitmapEscape               100189c0 f   k.coredll_ALL:twingdi.obj
 0001:00017a28       CeRemoveFontResource       10018a28 f   k.coredll_ALL:twingdi.obj
 0001:00017a44       EnableEUDC                 10018a44 f   k.coredll_ALL:twingdi.obj
 0001:00017a60       GetGweApiSetTables         10018a60 f   k.coredll_ALL:twingdi.obj
 0001:00017ad4       GetStretchBltMode          10018ad4 f   k.coredll_ALL:twingdi.obj
 0001:00017af0       SetStretchBltMode          10018af0 f   k.coredll_ALL:twingdi.obj
 0001:00017b0c       AlphaBlend                 10018b0c f   k.coredll_ALL:twingdi.obj
 0001:00017b70       EnumFontFamiliesExW        10018b70 f   k.coredll_ALL:twingdi.obj
 0001:00017bac       SetLayout                  10018bac f   k.coredll_ALL:twingdi.obj
 0001:00017bc8       GetLayout                  10018bc8 f   k.coredll_ALL:twingdi.obj
 0001:00017be4       SetTextCharacterExtra      10018be4 f   k.coredll_ALL:twingdi.obj
 0001:00017c00       GetTextCharacterExtra      10018c00 f   k.coredll_ALL:twingdi.obj
 0001:00017c1c       AddFontMemResourceEx       10018c1c f   k.coredll_ALL:twingdi.obj
 0001:00017c38       RemoveFontMemResourceEx    10018c38 f   k.coredll_ALL:twingdi.obj
 0001:00017c54       xxx_RegisterDevice         10018c54 f   k.coredll_ALL:tdevice.obj
 0001:00017c70       xxx_DeregisterDevice       10018c70 f   k.coredll_ALL:tdevice.obj
 0001:00017c8c       xxx_LoadFSD                10018c8c f   k.coredll_ALL:tdevice.obj
 0001:00017ca0       xxx_LoadFSDEx              10018ca0 f   k.coredll_ALL:tdevice.obj
 0001:00017cb4       xxx_ActivateDevice         10018cb4 f   k.coredll_ALL:tdevice.obj
 0001:00017d10       xxx_ActivateDeviceEx       10018d10 f   k.coredll_ALL:tdevice.obj
 0001:00017d2c       xxx_REL_UDriverProcIoControl 10018d2c f   k.coredll_ALL:tdevice.obj
 0001:00017d60       xxx_CreateAsyncIoHandle    10018d60 f   k.coredll_ALL:tdevice.obj
 0001:00017d7c       xxx_SetIoProgress          10018d7c f   k.coredll_ALL:tdevice.obj
 0001:00017d98       xxx_CompleteAsyncIo        10018d98 f   k.coredll_ALL:tdevice.obj
 0001:00017db4       xxx_EnableDeviceDriver     10018db4 f   k.coredll_ALL:tdevice.obj
 0001:00017dd0       xxx_DisableDeviceDriver    10018dd0 f   k.coredll_ALL:tdevice.obj
 0001:00017dec       xxx_GetDeviceDriverStatus  10018dec f   k.coredll_ALL:tdevice.obj
 0001:00017e08       xxx_DeactivateDevice       10018e08 f   k.coredll_ALL:tdevice.obj
 0001:00017e24       xxx_CeResyncFilesys        10018e24 f   k.coredll_ALL:tdevice.obj
 0001:00017e40       GetDeviceHandleFromContext 10018e40 f   k.coredll_ALL:tdevice.obj
 0001:00017ef4       xxx_RegOpenProcessKey      10018ef4 f   k.coredll_ALL:tdevice.obj
 0001:00017f50       xxx_ResourceCreateList     10018f50 f   k.coredll_ALL:tdevice.obj
 0001:00017f6c       xxx_ResourceDestroyList    10018f6c f   k.coredll_ALL:tdevice.obj
 0001:00017f88       xxx_ResourceRequest        10018f88 f   k.coredll_ALL:tdevice.obj
 0001:00017fa8       xxx_ResourceRequestEx      10018fa8 f   k.coredll_ALL:tdevice.obj
 0001:00017fc4       xxx_ResourceRelease        10018fc4 f   k.coredll_ALL:tdevice.obj
 0001:00017fe4       xxx_ResourceMarkAsShareable 10018fe4 f   k.coredll_ALL:tdevice.obj
 0001:00018000       xxx_GetDeviceByIndex       10019000 f   k.coredll_ALL:tdevice.obj
 0001:0001801c       xxx_GetDeviceInformationByDeviceHandle 1001901c f   k.coredll_ALL:tdevice.obj
 0001:00018038       xxx_GetDeviceInformationByFileHandle 10019038 f   k.coredll_ALL:tdevice.obj
 0001:00018074       FindFirstDevice            10019074 f   k.coredll_ALL:tdevice.obj
 0001:000182bc       FindNextDevice             100192bc f   k.coredll_ALL:tdevice.obj
 0001:000182f8       xxx_EnumDeviceInterfaces   100192f8 f   k.coredll_ALL:tdevice.obj
 0001:00018324       ?svsutil_ReadGuidW@@YAHPBGPAU_GUID@@H@Z 10019324 f i k.coredll_ALL:tservices.obj
 0001:000183fc       ?OpenServiceBusHandle@@YAPAXXZ 100193fc f   k.coredll_ALL:tservices.obj
 0001:000184f4       xxx_ActivateService        100194f4 f   k.coredll_ALL:tservices.obj
 0001:000185dc       xxx_RegisterService        100195dc f   k.coredll_ALL:tservices.obj
 0001:000185f8       xxx_DeregisterService      100195f8 f   k.coredll_ALL:tservices.obj
 0001:00018754       xxx_CloseAllServiceHandles 10019754 f   k.coredll_ALL:tservices.obj
 0001:0001875c       xxx_CreateServiceHandle    1001975c f   k.coredll_ALL:tservices.obj
 0001:00018770       xxx_GetServiceByIndex      10019770 f   k.coredll_ALL:tservices.obj
 0001:00018784       xxx_ServiceIoControl       10019784 f   k.coredll_ALL:tservices.obj
 0001:000187b8       xxx_ServiceAddPort         100197b8 f   k.coredll_ALL:tservices.obj
 0001:00018828       xxx_ServiceUnbindPorts     10019828 f   k.coredll_ALL:tservices.obj
 0001:00018860       xxx_EnumServices           10019860 f   k.coredll_ALL:tservices.obj
 0001:000188dc       xxx_GetServiceHandle       100198dc f   k.coredll_ALL:tservices.obj
 0001:00018934       xxx_ServiceClosePort       10019934 f   k.coredll_ALL:tservices.obj
 0001:000189a4       xxx_GetProcAddrBits        100199a4 f   k.coredll_ALL:tkfuncs.obj
 0001:000189ac       xxx_GetProcFromPtr         100199ac f   k.coredll_ALL:tkfuncs.obj
 0001:000189b4       xxx_SetHandleOwner         100199b4 f   k.coredll_ALL:tkfuncs.obj
 0001:000189bc       xxx_GetCallerProcessIndex  100199bc f   k.coredll_ALL:tkfuncs.obj
 0001:000189c4       xxx_GetProcessIndexFromID  100199c4 f   k.coredll_ALL:tkfuncs.obj
 0001:000189cc       xxx_GetProcessIDFromIndex  100199cc f   k.coredll_ALL:tkfuncs.obj
 0001:000189d4       xxx_SetKMode               100199d4 f   k.coredll_ALL:tkfuncs.obj
 0001:000189dc       xxx_SetProcPermissions     100199dc f   k.coredll_ALL:tkfuncs.obj
 0001:000189e4       xxx_GetCurrentPermissions  100199e4 f   k.coredll_ALL:tkfuncs.obj
 0001:000189ec       xxx_MapPtrToProcess        100199ec f   k.coredll_ALL:tkfuncs.obj
 0001:000189f0       xxx_MapPtrUnsecure         100199f0 f   k.coredll_ALL:tkfuncs.obj
 0001:000189f4       xxx_CeMapArgumentArray     100199f4 f   k.coredll_ALL:tkfuncs.obj
 0001:000189fc       xxx_QueryAPISetID          100199fc f   k.coredll_ALL:tkfuncs.obj
 0001:00018a30       xxx_PerformCallBack4       10019a30 f   k.coredll_ALL:tkfuncs.obj
 0001:00018a54       xxx_EventModify            10019a54 f   k.coredll_ALL:tkfuncs.obj
 0001:00018a88       xxx_IsNamedEventSignaled   10019a88 f   k.coredll_ALL:tkfuncs.obj
 0001:00018aa4       xxx_CreateEventW           10019aa4 f   k.coredll_ALL:tkfuncs.obj
 0001:00018ac0       xxx_OpenEventW             10019ac0 f   k.coredll_ALL:tkfuncs.obj
 0001:00018adc       xxx_GetEventData           10019adc f   k.coredll_ALL:tkfuncs.obj
 0001:00018b08       xxx_SetEventData           10019b08 f   k.coredll_ALL:tkfuncs.obj
 0001:00018b3c       xxx_Sleep                  10019b3c f   k.coredll_ALL:tkfuncs.obj
 0001:00018b58       xxx_WaitForMultipleObjects 10019b58 f   k.coredll_ALL:tkfuncs.obj
 0001:00018b90       xxx_WaitForSingleObject    10019b90 f   k.coredll_ALL:tkfuncs.obj
 0001:00018be0       xxx_SuspendThread          10019be0 f   k.coredll_ALL:tkfuncs.obj
 0001:00018c20       xxx_ResumeThread           10019c20 f   k.coredll_ALL:tkfuncs.obj
 0001:00018c8c       xxx_GetThreadContext       10019c8c f   k.coredll_ALL:tkfuncs.obj
 0001:00018cc0       xxx_SetThreadContext       10019cc0 f   k.coredll_ALL:tkfuncs.obj
 0001:00018cf4       xxx_SetThreadPriority      10019cf4 f   k.coredll_ALL:tkfuncs.obj
 0001:00018d28       xxx_GetThreadPriority      10019d28 f   k.coredll_ALL:tkfuncs.obj
 0001:00018d68       xxx_GetThreadId            10019d68 f   k.coredll_ALL:tkfuncs.obj
 0001:00018d94       xxx_GetProcessIdOfThread   10019d94 f   k.coredll_ALL:tkfuncs.obj
 0001:00018dc0       xxx_CeGetThreadPriority    10019dc0 f   k.coredll_ALL:tkfuncs.obj
 0001:00018e00       xxx_CeSetThreadPriority    10019e00 f   k.coredll_ALL:tkfuncs.obj
 0001:00018e34       xxx_CeGetThreadQuantum     10019e34 f   k.coredll_ALL:tkfuncs.obj
 0001:00018e74       xxx_CeSetThreadQuantum     10019e74 f   k.coredll_ALL:tkfuncs.obj
 0001:00018ea8       xxx_TerminateThread        10019ea8 f   k.coredll_ALL:tkfuncs.obj
 0001:00018ef8       xxx_GetThreadCallStack     10019ef8 f   k.coredll_ALL:tkfuncs.obj
 0001:00018f44       xxx_GetCallStackSnapshot   10019f44 f   k.coredll_ALL:tkfuncs.obj
 0001:00018f70       xxx_CeSetDirectCall        10019f70 f   k.coredll_ALL:tkfuncs.obj
 0001:00018f8c       xxx_SetLastError           10019f8c f   k.coredll_ALL:tkfuncs.obj
 0001:00018fa8       xxx_GetLastError           10019fa8 f   k.coredll_ALL:tkfuncs.obj
 0001:00018fc4       xxx_GetExitCodeThread      10019fc4 f   k.coredll_ALL:tkfuncs.obj
 0001:00018fe0       xxx_GetExitCodeProcess     10019fe0 f   k.coredll_ALL:tkfuncs.obj
 0001:00018ffc       xxx_GetProcessId           10019ffc f   k.coredll_ALL:tkfuncs.obj
 0001:00019028       xxx_CeGetProcessAccount    1001a028 f   k.coredll_ALL:tkfuncs.obj
 0001:00019030       xxx_CeGetThreadAccount     1001a030 f   k.coredll_ALL:tkfuncs.obj
 0001:00019038       xxx_GetOwnerProcess        1001a038 f   k.coredll_ALL:tkfuncs.obj
 0001:00019040       xxx_TlsCall                1001a040 f   k.coredll_ALL:tkfuncs.obj
 0001:00019130       xxx_IsBadCodePtr           1001a130 f   k.coredll_ALL:tkfuncs.obj
 0001:00019158       xxx_IsBadReadPtr           1001a158 f   k.coredll_ALL:tkfuncs.obj
 0001:00019180       xxx_IsBadWritePtr          1001a180 f   k.coredll_ALL:tkfuncs.obj
 0001:000191a8       xxx_VirtualAlloc           1001a1a8 f   k.coredll_ALL:tkfuncs.obj
 0001:000191fc       xxx_VirtualFree            1001a1fc f   k.coredll_ALL:tkfuncs.obj
 0001:00019248       xxx_VirtualAllocEx         1001a248 f   k.coredll_ALL:tkfuncs.obj
 0001:0001929c       xxx_VirtualAllocWithTag    1001a29c f   k.coredll_ALL:tkfuncs.obj
 0001:000192f0       xxx_VirtualFreeEx          1001a2f0 f   k.coredll_ALL:tkfuncs.obj
 0001:0001933c       xxx_VirtualFreeWithTag     1001a33c f   k.coredll_ALL:tkfuncs.obj
 0001:00019388       xxx_VirtualProtectEx       1001a388 f   k.coredll_ALL:tkfuncs.obj
 0001:00019400       xxx_CeLoadLibraryInProcess 1001a400 f   k.coredll_ALL:tkfuncs.obj
 0001:00019434       xxx_VirtualProtect         1001a434 f   k.coredll_ALL:tkfuncs.obj
 0001:00019460       xxx_VirtualQueryEx         1001a460 f   k.coredll_ALL:tkfuncs.obj
 0001:000194a4       xxx_VirtualQuery           1001a4a4 f   k.coredll_ALL:tkfuncs.obj
 0001:000194e8       xxx_CeVirtualSharedAlloc   1001a4e8 f   k.coredll_ALL:tkfuncs.obj
 0001:00019508       xxx_CeVirtualSharedAllocWithTag 1001a508 f   k.coredll_ALL:tkfuncs.obj
 0001:00019524       xxx_CeMapUserAddressesToVoid 1001a524 f   k.coredll_ALL:tkfuncs.obj
 0001:00019560       xxx_LockPages              1001a560 f   k.coredll_ALL:tkfuncs.obj
 0001:000195c0       xxx_UnlockPages            1001a5c0 f   k.coredll_ALL:tkfuncs.obj
 0001:00019610       xxx_AllocPhysMem           1001a610 f   k.coredll_ALL:tkfuncs.obj
 0001:00019664       xxx_FreePhysMem            1001a664 f   k.coredll_ALL:tkfuncs.obj
 0001:000196ac       xxx_SleepTillTick          1001a6ac f   k.coredll_ALL:tkfuncs.obj
 0001:000196c8       xxx_DuplicateHandle        1001a6c8 f   k.coredll_ALL:tkfuncs.obj
 0001:00019704       xxx_CreateLocaleView       1001a704 f   k.coredll_ALL:tkfuncs.obj
 0001:00019720       xxx_GetTickCount           1001a720 f   k.coredll_ALL:tkfuncs.obj
 0001:0001973c       xxx_GetProcessVersion      1001a73c f   k.coredll_ALL:tkfuncs.obj
 0001:00019758       xxx_GetModuleFileNameW     1001a758 f   k.coredll_ALL:tkfuncs.obj
 0001:000197a8       xxx_GetModuleHandleW       1001a7a8 f   k.coredll_ALL:tkfuncs.obj
 0001:00019820       xxx_QueryPerformanceCounter 1001a820 f   k.coredll_ALL:tkfuncs.obj
 0001:0001983c       xxx_QueryPerformanceFrequency 1001a83c f   k.coredll_ALL:tkfuncs.obj
 0001:00019858       xxx_WriteDebugLED          1001a858 f   k.coredll_ALL:tkfuncs.obj
 0001:00019874       xxx_ForcePageout           1001a874 f   k.coredll_ALL:tkfuncs.obj
 0001:00019890       xxx_GetThreadTimes         1001a890 f   k.coredll_ALL:tkfuncs.obj
 0001:000198bc       xxx_GetProcessTimes        1001a8bc f   k.coredll_ALL:tkfuncs.obj
 0001:00019908       xxx_OutputDebugStringW     1001a908 f   k.coredll_ALL:tkfuncs.obj
 0001:00019924       xxx_GetSystemInfo          1001a924 f   k.coredll_ALL:tkfuncs.obj
 0001:00019940       xxx_IsProcessorFeaturePresent 1001a940 f   k.coredll_ALL:tkfuncs.obj
 0001:0001995c       xxx_QueryInstructionSet    1001a95c f   k.coredll_ALL:tkfuncs.obj
 0001:00019978       xxx_RaiseException         1001a978 f   k.coredll_ALL:tkfuncs.obj
 0001:0001999c       xxx_RegisterDbgZones       1001a99c f   k.coredll_ALL:tkfuncs.obj
 0001:000199b8       xxx_SetDaylightTime        1001a9b8 f   k.coredll_ALL:tkfuncs.obj
 0001:00019ac8       xxx_CreateFileMappingW     1001aac8 f   k.coredll_ALL:tkfuncs.obj
 0001:00019b38       xxx_CreateFileForMappingW  1001ab38 f   k.coredll_ALL:tkfuncs.obj
 0001:00019bec       xxx_UnmapViewOfFile        1001abec f   k.coredll_ALL:tkfuncs.obj
 0001:00019c20       xxx_UnmapViewOfFileInProcess 1001ac20 f   k.coredll_ALL:tkfuncs.obj
 0001:00019c54       xxx_FlushViewOfFile        1001ac54 f   k.coredll_ALL:tkfuncs.obj
 0001:00019c90       xxx_FlushViewOfFileMaybe   1001ac90 f   k.coredll_ALL:tkfuncs.obj
 0001:00019c98       xxx_MapViewOfFile          1001ac98 f   k.coredll_ALL:tkfuncs.obj
 0001:00019cec       xxx_MapViewOfFileInProcess 1001acec f   k.coredll_ALL:tkfuncs.obj
 0001:00019d40       xxx_KernelIoControl        1001ad40 f   k.coredll_ALL:tkfuncs.obj
 0001:00019d74       CreateWatchDogTimer        1001ad74 f   k.coredll_ALL:tkfuncs.obj
 0001:00019df0       OpenWatchDogTimer          1001adf0 f   k.coredll_ALL:tkfuncs.obj
 0001:00019e5c       StartWatchDogTimer         1001ae5c f   k.coredll_ALL:tkfuncs.obj
 0001:00019eb4       StopWatchDogTimer          1001aeb4 f   k.coredll_ALL:tkfuncs.obj
 0001:00019f0c       RefreshWatchDogTimer       1001af0c f   k.coredll_ALL:tkfuncs.obj
 0001:0001a088       xxx_KernelLibIoControl     1001b088 f   k.coredll_ALL:tkfuncs.obj
 0001:0001a15c       xxx_CreateStaticMapping    1001b15c f   k.coredll_ALL:tkfuncs.obj
 0001:0001a178       xxx_DeleteStaticMapping    1001b178 f   k.coredll_ALL:tkfuncs.obj
 0001:0001a194       xxx_ReleaseMutex           1001b194 f   k.coredll_ALL:tkfuncs.obj
 0001:0001a1c0       xxx_CreateMutexW           1001b1c0 f   k.coredll_ALL:tkfuncs.obj
 0001:0001a1dc       xxx_CreateSemaphoreW       1001b1dc f   k.coredll_ALL:tkfuncs.obj
 0001:0001a1f8       xxx_ReleaseSemaphore       1001b1f8 f   k.coredll_ALL:tkfuncs.obj
 0001:0001a234       xxx_AddEventAccess         1001b234 f   k.coredll_ALL:tkfuncs.obj
 0001:0001a23c       xxx_CreateAPISet           1001b23c f   k.coredll_ALL:tkfuncs.obj
 0001:0001a258       xxx_VirtualCopy            1001b258 f   k.coredll_ALL:tkfuncs.obj
 0001:0001a2a8       xxx_VirtualAllocCopyEx     1001b2a8 f   k.coredll_ALL:tkfuncs.obj
 0001:0001a2f4       xxx_VirtualCopyEx          1001b2f4 f   k.coredll_ALL:tkfuncs.obj
 0001:0001a348       xxx_VirtualSetAttributes   1001b348 f   k.coredll_ALL:tkfuncs.obj
 0001:0001a39c       xxx_VirtualSetAttributesEx 1001b39c f   k.coredll_ALL:tkfuncs.obj
 0001:0001a3f0       xxx_CeModuleJit            1001b3f0 f   k.coredll_ALL:tkfuncs.obj
 0001:0001a3f8       ?ConvertAccessMode@@YAKK@Z 1001b3f8 f   k.coredll_ALL:tkfuncs.obj
 0001:0001a428       ?ConvertCreateMode@@YAKK@Z 1001b428 f   k.coredll_ALL:tkfuncs.obj
 0001:0001a4b4       xxx_U_ropen                1001b4b4 f   k.coredll_ALL:tkfuncs.obj
 0001:0001a560       xxx_U_rread                1001b560 f   k.coredll_ALL:tkfuncs.obj
 0001:0001a590       xxx_U_rwrite               1001b590 f   k.coredll_ALL:tkfuncs.obj
 0001:0001a5c0       xxx_U_rlseek               1001b5c0 f   k.coredll_ALL:tkfuncs.obj
 0001:0001a5cc       xxx_NKvDbgPrintfW          1001b5cc f   k.coredll_ALL:tkfuncs.obj
 0001:0001a5e8       NKDbgPrintfW               1001b5e8 f   k.coredll_ALL:tkfuncs.obj
 0001:0001a614       xxx_ProfileSyscall         1001b614 f   k.coredll_ALL:tkfuncs.obj
 0001:0001a618       xxx_GetRomFileInfo         1001b618 f   k.coredll_ALL:tkfuncs.obj
 0001:0001a634       xxx_GetRomFileBytes        1001b634 f   k.coredll_ALL:tkfuncs.obj
 0001:0001a660       xxx_CacheRangeFlush        1001b660 f   k.coredll_ALL:tkfuncs.obj
 0001:0001a690       xxx_CacheSync              1001b690 f   k.coredll_ALL:tkfuncs.obj
 0001:0001a6cc       xxx_AddTrackedItem         1001b6cc f   k.coredll_ALL:tkfuncs.obj
 0001:0001a6d4       xxx_DeleteTrackedItem      1001b6d4 f   k.coredll_ALL:tkfuncs.obj
 0001:0001a6dc       xxx_PrintTrackedItem       1001b6dc f   k.coredll_ALL:tkfuncs.obj
 0001:0001a6e4       xxx_GetKPhys               1001b6e4 f   k.coredll_ALL:tkfuncs.obj
 0001:0001a700       xxx_GiveKPhys              1001b700 f   k.coredll_ALL:tkfuncs.obj
 0001:0001a71c       xxx_RegisterTrackedItem    1001b71c f   k.coredll_ALL:tkfuncs.obj
 0001:0001a724       xxx_FilterTrackedItem      1001b724 f   k.coredll_ALL:tkfuncs.obj
 0001:0001a728       xxx_SetKernelAlarm         1001b728 f   k.coredll_ALL:tkfuncs.obj
 0001:0001a744       xxx_RefreshKernelAlarm     1001b744 f   k.coredll_ALL:tkfuncs.obj
 0001:0001a760       xxx_SetOOMEventEx          1001b760 f   k.coredll_ALL:tkfuncs.obj
 0001:0001a79c       xxx_SetOOMEvent            1001b79c f   k.coredll_ALL:tkfuncs.obj
 0001:0001a7e4       xxx_StringCompress         1001b7e4 f   k.coredll_ALL:tkfuncs.obj
 0001:0001a800       xxx_StringDecompress       1001b800 f   k.coredll_ALL:tkfuncs.obj
 0001:0001a81c       xxx_BinaryCompress         1001b81c f   k.coredll_ALL:tkfuncs.obj
 0001:0001a838       xxx_BinaryDecompress       1001b838 f   k.coredll_ALL:tkfuncs.obj
 0001:0001a864       xxx_DecompressBinaryBlock  1001b864 f   k.coredll_ALL:tkfuncs.obj
 0001:0001a880       xxx_InputDebugCharW        1001b880 f   k.coredll_ALL:tkfuncs.obj
 0001:0001a89c       xxx_IsBadPtr               1001b89c f   k.coredll_ALL:tkfuncs.obj
 0001:0001a8b8       xxx_GetFSHeapInfo          1001b8b8 f   k.coredll_ALL:tkfuncs.obj
 0001:0001a8d4       xxx_PrepareThreadExit      1001b8d4 f   k.coredll_ALL:tkfuncs.obj
 0001:0001a8f0       xxx_GetCallerProcess       1001b8f0 f   k.coredll_ALL:tkfuncs.obj
 0001:0001a90c       xxx_GetCallerVMProcessId   1001b90c f   k.coredll_ALL:tkfuncs.obj
 0001:0001a928       xxx_GetDirectCallerProcessId 1001b928 f   k.coredll_ALL:tkfuncs.obj
 0001:0001a944       xxx_GetIdleTime            1001b944 f   k.coredll_ALL:tkfuncs.obj
 0001:0001a960       xxx_SetLowestScheduledPriority 1001b960 f   k.coredll_ALL:tkfuncs.obj
 0001:0001a97c       xxx_CeGetCurrentTrust      1001b97c f   k.coredll_ALL:tkfuncs.obj
 0001:0001a984       xxx_CeGetCallerTrust       1001b984 f   k.coredll_ALL:tkfuncs.obj
 0001:0001a98c       xxx_SetTimeZoneBias        1001b98c f   k.coredll_ALL:tkfuncs.obj
 0001:0001a9a8       xxx_SetCleanRebootFlag     1001b9a8 f   k.coredll_ALL:tkfuncs.obj
 0001:0001aa20       xxx_PowerOffSystem         1001ba20 f   k.coredll_ALL:tkfuncs.obj
 0001:0001aa3c       xxx_SetDbgZone             1001ba3c f   k.coredll_ALL:tkfuncs.obj
 0001:0001aa68       xxx_TurnOnProfiling        1001ba68 f   k.coredll_ALL:tkfuncs.obj
 0001:0001aa6c       xxx_TurnOffProfiling       1001ba6c f   k.coredll_ALL:tkfuncs.obj
 0001:0001aa70       xxx_SetHandleOwnerWorkaround 1001ba70 f   k.coredll_ALL:tkfuncs.obj
 0001:0001aacc       xxx_LoadIntChainHandler    1001bacc f   k.coredll_ALL:tkfuncs.obj
 0001:0001aae8       xxx_FreeIntChainHandler    1001bae8 f   k.coredll_ALL:tkfuncs.obj
 0001:0001ab04       xxx_IntChainHandlerIoControl 1001bb04 f   k.coredll_ALL:tkfuncs.obj
 0001:0001ab30       xxx_LoadKernelLibrary      1001bb30 f   k.coredll_ALL:tkfuncs.obj
 0001:0001ab4c       xxx_InterruptInitialize    1001bb4c f   k.coredll_ALL:tkfuncs.obj
 0001:0001ab68       xxx_InterruptDone          1001bb68 f   k.coredll_ALL:tkfuncs.obj
 0001:0001ab84       xxx_InterruptDisable       1001bb84 f   k.coredll_ALL:tkfuncs.obj
 0001:0001aba0       xxx_InterruptMask          1001bba0 f   k.coredll_ALL:tkfuncs.obj
 0001:0001abbc       xxx_SetPowerOffHandler     1001bbbc f   k.coredll_ALL:tkfuncs.obj
 0001:0001abdc       xxx_SetGwesPowerHandler    1001bbdc f   k.coredll_ALL:tkfuncs.obj
 0001:0001abfc       AttachDebugger             1001bbfc f   k.coredll_ALL:tkfuncs.obj
 0001:0001ac18       xxx_ConnectDebugger        1001bc18 f   k.coredll_ALL:tkfuncs.obj
 0001:0001ac20       xxx_ConnectHdstub          1001bc20 f   k.coredll_ALL:tkfuncs.obj
 0001:0001ac28       xxx_ConnectOsAxsT0         1001bc28 f   k.coredll_ALL:tkfuncs.obj
 0001:0001ac30       xxx_ConnectOsAxsT1         1001bc30 f   k.coredll_ALL:tkfuncs.obj
 0001:0001ac38       xxx_SetHardwareWatch       1001bc38 f   k.coredll_ALL:tkfuncs.obj
 0001:0001ac54       xxx_RegisterAPISet         1001bc54 f   k.coredll_ALL:tkfuncs.obj
 0001:0001ac94       xxx_CreateAPIHandle        1001bc94 f   k.coredll_ALL:tkfuncs.obj
 0001:0001acc8       xxx_CreateAPIHandleWithAccess 1001bcc8 f   k.coredll_ALL:tkfuncs.obj
 0001:0001ad0c       xxx_VerifyAPIHandle        1001bd0c f   k.coredll_ALL:tkfuncs.obj
 0001:0001ad40       xxx_RegisterDirectMethods  1001bd40 f   k.coredll_ALL:tkfuncs.obj
 0001:0001ad74       xxx_CeRegisterAccessMask   1001bd74 f   k.coredll_ALL:tkfuncs.obj
 0001:0001adb0       xxx_LockAPIHandle          1001bdb0 f   k.coredll_ALL:tkfuncs.obj
 0001:0001adf4       xxx_UnlockAPIHandle        1001bdf4 f   k.coredll_ALL:tkfuncs.obj
 0001:0001ae28       xxx_GetHandleServerId      1001be28 f   k.coredll_ALL:tkfuncs.obj
 0001:0001ae44       xxx_PPSHRestart            1001be44 f   k.coredll_ALL:tkfuncs.obj
 0001:0001ae48       xxx_DebugNotify            1001be48 f   k.coredll_ALL:tkfuncs.obj
 0001:0001ae64       xxx_WaitForDebugEvent      1001be64 f   k.coredll_ALL:tkfuncs.obj
 0001:0001ae80       xxx_ContinueDebugEvent     1001be80 f   k.coredll_ALL:tkfuncs.obj
 0001:0001ae9c       xxx_DebugActiveProcess     1001be9c f   k.coredll_ALL:tkfuncs.obj
 0001:0001aeb8       xxx_FlushInstructionCache  1001beb8 f   k.coredll_ALL:tkfuncs.obj
 0001:0001aef4       xxx_ReadProcessMemory      1001bef4 f   k.coredll_ALL:tkfuncs.obj
 0001:0001af48       xxx_WriteProcessMemory     1001bf48 f   k.coredll_ALL:tkfuncs.obj
 0001:0001af9c       xxx_OpenProcess            1001bf9c f   k.coredll_ALL:tkfuncs.obj
 0001:0001afb8       xxx_OpenThread             1001bfb8 f   k.coredll_ALL:tkfuncs.obj
 0001:0001afd4       xxx_GetModuleInformation   1001bfd4 f   k.coredll_ALL:tkfuncs.obj
 0001:0001b020       xxx_CeSetProcessVersion    1001c020 f   k.coredll_ALL:tkfuncs.obj
 0001:0001b054       xxx_THCreateSnapshot       1001c054 f   k.coredll_ALL:tkfuncs.obj
 0001:0001b070       xxx_NotifyForceCleanboot   1001c070 f   k.coredll_ALL:tkfuncs.obj
 0001:0001b0b4       xxx_CreateProcessW         1001c0b4 f   k.coredll_ALL:tkfuncs.obj
 0001:0001b0f8       int_CreateProcessW         1001c0f8 f   k.coredll_ALL:tkfuncs.obj
 0001:0001b1e4       xxx_CeCreateProcessEx      1001c1e4 f   k.coredll_ALL:tkfuncs.obj
 0001:0001b200       xxx_CreateThread           1001c200 f   k.coredll_ALL:tkfuncs.obj
 0001:0001b234       xxx_TerminateProcess       1001c234 f   k.coredll_ALL:tkfuncs.obj
 0001:0001b268       xxx_SetStdioPathW          1001c268 f   k.coredll_ALL:tkfuncs.obj
 0001:0001b284       xxx_GetStdioPathW          1001c284 f   k.coredll_ALL:tkfuncs.obj
 0001:0001b2a0       xxx_ReadRegistryFromOEM    1001c2a0 f   k.coredll_ALL:tkfuncs.obj
 0001:0001b2bc       xxx_WriteRegistryToOEM     1001c2bc f   k.coredll_ALL:tkfuncs.obj
 0001:0001b2d8       xxx_CeGetRandomSeed        1001c2d8 f   k.coredll_ALL:tkfuncs.obj
 0001:0001b2f4       xxx_UpdateNLSInfoEx        1001c2f4 f   k.coredll_ALL:tkfuncs.obj
 0001:0001b310       xxx_UpdateNLSInfo          1001c310 f   k.coredll_ALL:tkfuncs.obj
 0001:0001b330       xxx_PageOutModule          1001c330 f   k.coredll_ALL:tkfuncs.obj
 0001:0001b378       xxx_CeGetOwnerAccount      1001c378 f   k.coredll_ALL:tkfuncs.obj
 0001:0001b380       xxx_CeGetGroupAccount      1001c380 f   k.coredll_ALL:tkfuncs.obj
 0001:0001b388       xxx_CeImpersonateToken     1001c388 f   k.coredll_ALL:tkfuncs.obj
 0001:0001b390       xxx_CeDuplicateToken       1001c390 f   k.coredll_ALL:tkfuncs.obj
 0001:0001b398       xxx_CeCreateToken          1001c398 f   k.coredll_ALL:tkfuncs.obj
 0001:0001b3a0       xxx_CeAccessCheck          1001c3a0 f   k.coredll_ALL:tkfuncs.obj
 0001:0001b3a8       xxx_CeGetAccessMask        1001c3a8 f   k.coredll_ALL:tkfuncs.obj
 0001:0001b3b0       xxx_CePrivilegeCheck       1001c3b0 f   k.coredll_ALL:tkfuncs.obj
 0001:0001b3b8       xxx_CeSerializeTokenData   1001c3b8 f   k.coredll_ALL:tkfuncs.obj
 0001:0001b3c0       xxx_CeDeserializeTokenData 1001c3c0 f   k.coredll_ALL:tkfuncs.obj
 0001:0001b3c8       xxx_CeImpersonateCurrentProcess 1001c3c8 f   k.coredll_ALL:tkfuncs.obj
 0001:0001b3e8       xxx_CeRevertToSelf         1001c3e8 f   k.coredll_ALL:tkfuncs.obj
 0001:0001b408       xxx_DebugActiveProcessStop 1001c408 f   k.coredll_ALL:tkfuncs.obj
 0001:0001b424       xxx_DebugSetProcessKillOnExit 1001c424 f   k.coredll_ALL:tkfuncs.obj
 0001:0001b440       xxx_CeGetProcessTrust      1001c440 f   k.coredll_ALL:tkfuncs.obj
 0001:0001b448       xxx_CeGetModuleInfo        1001c448 f   k.coredll_ALL:tkfuncs.obj
 0001:0001b494       xxx_CheckRemoteDebuggerPresent 1001c494 f   k.coredll_ALL:tkfuncs.obj
 0001:0001b4c8       xxx_CreateMsgQueue         1001c4c8 f   k.coredll_ALL:tkfuncs.obj
 0001:0001b4e4       xxx_OpenMsgQueue           1001c4e4 f   k.coredll_ALL:tkfuncs.obj
 0001:0001b528       xxx_ReadMsgQueue           1001c528 f   k.coredll_ALL:tkfuncs.obj
 0001:0001b584       xxx_ReadMsgQueueEx         1001c584 f   k.coredll_ALL:tkfuncs.obj
 0001:0001b5e0       xxx_WriteMsgQueue          1001c5e0 f   k.coredll_ALL:tkfuncs.obj
 0001:0001b62c       xxx_GetMsgQueueInfo        1001c62c f   k.coredll_ALL:tkfuncs.obj
 0001:0001b660       xxx_CloseMsgQueue          1001c660 f   k.coredll_ALL:tkfuncs.obj
 0001:0001b694       xxx_RemoteLocalAlloc       1001c694 f   k.coredll_ALL:tkfuncs.obj
 0001:0001b6b0       xxx_RemoteLocalReAlloc     1001c6b0 f   k.coredll_ALL:tkfuncs.obj
 0001:0001b6cc       xxx_RemoteLocalSize        1001c6cc f   k.coredll_ALL:tkfuncs.obj
 0001:0001b6e8       xxx_RemoteLocalFree        1001c6e8 f   k.coredll_ALL:tkfuncs.obj
 0001:0001b704       xxx_PSLNotify              1001c704 f   k.coredll_ALL:tkfuncs.obj
 0001:0001b720       xxx_SystemMemoryLow        1001c720 f   k.coredll_ALL:tkfuncs.obj
 0001:0001b73c       xxx_WaitForAPIReady        1001c73c f   k.coredll_ALL:tkfuncs.obj
 0001:0001b764       xxx_CeOpenFileHandle       1001c764 f   k.coredll_ALL:tkfuncs.obj
 0001:0001b7bc       xxx_CeCallUserProc         1001c7bc f   k.coredll_ALL:tkfuncs.obj
 0001:0001bacc       xxx_SetAPIErrorHandler     1001cacc f   k.coredll_ALL:tkfuncs.obj
 0001:0001bb00       CePowerOffProcessor        1001cb00 f   k.coredll_ALL:tkfuncs.obj
 0001:0001bb24       CePowerOnProcessor         1001cb24 f   k.coredll_ALL:tkfuncs.obj
 0001:0001bb48       CeResetStack               1001cb48 f   k.coredll_ALL:tkfuncs.obj
 0001:0001bb64       CeGetIdleTimeEx            1001cb64 f   k.coredll_ALL:tkfuncs.obj
 0001:0001bbc8       CeGetProcessorState        1001cbc8 f   k.coredll_ALL:tkfuncs.obj
 0001:0001bbe8       CeGetThreadAffinity        1001cbe8 f   k.coredll_ALL:tkfuncs.obj
 0001:0001bc1c       CeSetThreadAffinity        1001cc1c f   k.coredll_ALL:tkfuncs.obj
 0001:0001bc50       CeGetProcessAffinity       1001cc50 f   k.coredll_ALL:tkfuncs.obj
 0001:0001bc84       CeSetProcessAffinity       1001cc84 f   k.coredll_ALL:tkfuncs.obj
 0001:0001bcb8       ?ShowWarning@@YAXPBG@Z     1001ccb8 f   k.coredll_ALL:tkfuncs.obj
 0001:0001bd3c       xxx_MapCallerPtr           1001cd3c f   k.coredll_ALL:tkfuncs.obj
 0001:0001bd58       xxx_MapPtrToProcWithSize   1001cd58 f   k.coredll_ALL:tkfuncs.obj
 0001:0001bd74       CloseHandle                1001cd74 f   k.coredll_ALL:tkfuncs.obj
 0001:0001bdb0       xxx_U_rclose               1001cdb0 f   k.coredll_ALL:tkfuncs.obj
 0001:0001bdb4       xxx_CreateDirectoryW       1001cdb4 f   k.coredll_ALL:tfsmain.obj
 0001:0001bdd0       xxx_RemoveDirectoryW       1001cdd0 f   k.coredll_ALL:tfsmain.obj
 0001:0001bdec       xxx_MoveFileW              1001cdec f   k.coredll_ALL:tfsmain.obj
 0001:0001be08       xxx_DeleteFileW            1001ce08 f   k.coredll_ALL:tfsmain.obj
 0001:0001be24       xxx_GetDiskFreeSpaceExW    1001ce24 f   k.coredll_ALL:tfsmain.obj
 0001:0001be50       xxx_FindFirstFileExW       1001ce50 f   k.coredll_ALL:tfsmain.obj
 0001:0001be90       xxx_SetFileAttributesW     1001ce90 f   k.coredll_ALL:tfsmain.obj
 0001:0001beac       xxx_GetFileSize            1001ceac f   k.coredll_ALL:tfsmain.obj
 0001:0001bee0       xxx_GetFileInformationByHandle 1001cee0 f   k.coredll_ALL:tfsmain.obj
 0001:0001bf1c       xxx_FlushFileBuffers       1001cf1c f   k.coredll_ALL:tfsmain.obj
 0001:0001bf48       xxx_GetFileTime            1001cf48 f   k.coredll_ALL:tfsmain.obj
 0001:0001bf8c       xxx_SetFileTime            1001cf8c f   k.coredll_ALL:tfsmain.obj
 0001:0001bfd0       xxx_SetEndOfFile           1001cfd0 f   k.coredll_ALL:tfsmain.obj
 0001:0001bffc       xxx_FindClose              1001cffc f   k.coredll_ALL:tfsmain.obj
 0001:0001c000       xxx_FindNextFileW          1001d000 f   k.coredll_ALL:tfsmain.obj
 0001:0001c03c       xxx_DeleteAndRenameFile    1001d03c f   k.coredll_ALL:tfsmain.obj
 0001:0001c058       xxx_SignalStarted          1001d058 f   k.coredll_ALL:tfsmain.obj
 0001:0001c074       xxx_GetStoreInformation    1001d074 f   k.coredll_ALL:tfsmain.obj
 0001:0001c090       ?CopySortsFromEx@@YAXPAU_SORTORDERSPEC@@PAU__CEDB_SORTORDERSPECEX@@G@Z 1001d090 f   k.coredll_ALL:tfsmain.obj
 0001:0001c0ec       xxx_CeOidGetInfoEx         1001d0ec f   k.coredll_ALL:tfsmain.obj
 0001:0001c258       xxx_CeOidGetInfo           1001d258 f   k.coredll_ALL:tfsmain.obj
 0001:0001c26c       xxx_CeRegisterFileSystemNotification 1001d26c f   k.coredll_ALL:tfsmain.obj
 0001:0001c288       xxx_RegisterAFSEx          1001d288 f   k.coredll_ALL:tfsmain.obj
 0001:0001c2b4       xxx_DeregisterAFS          1001d2b4 f   k.coredll_ALL:tfsmain.obj
 0001:0001c2d0       xxx_RegisterAFSName        1001d2d0 f   k.coredll_ALL:tfsmain.obj
 0001:0001c2ec       xxx_DeregisterAFSName      1001d2ec f   k.coredll_ALL:tfsmain.obj
 0001:0001c308       xxx_GetSystemMemoryDivision 1001d308 f   k.coredll_ALL:tfsmain.obj
 0001:0001c324       xxx_SetSystemMemoryDivision 1001d324 f   k.coredll_ALL:tfsmain.obj
 0001:0001c340       xxx_DumpFileSystemHeap     1001d340 f   k.coredll_ALL:tfsmain.obj
 0001:0001c344       xxx_FileSystemPowerFunction 1001d344 f   k.coredll_ALL:tfsmain.obj
 0001:0001c360       xxx_CloseAllFileHandles    1001d360 f   k.coredll_ALL:tfsmain.obj
 0001:0001c37c       xxx_ReadFileWithSeek       1001d37c f   k.coredll_ALL:tfsmain.obj
 0001:0001c3d8       xxx_WriteFileWithSeek      1001d3d8 f   k.coredll_ALL:tfsmain.obj
 0001:0001c434       xxx_ReadFileScatter        1001d434 f   k.coredll_ALL:tfsmain.obj
 0001:0001c470       xxx_WriteFileGather        1001d470 f   k.coredll_ALL:tfsmain.obj
 0001:0001c4ac       xxx_LockFileEx             1001d4ac f   k.coredll_ALL:tfsmain.obj
 0001:0001c500       xxx_UnlockFileEx           1001d500 f   k.coredll_ALL:tfsmain.obj
 0001:0001c54c       xxx_GetTempPathW           1001d54c f   k.coredll_ALL:tfsmain.obj
 0001:0001c58c       xxx_IsSystemFile           1001d58c f   k.coredll_ALL:tfsmain.obj
 0001:0001c5a8       xxx_RequestDeviceNotifications 1001d5a8 f   k.coredll_ALL:tfsmain.obj
 0001:0001c5c4       xxx_StopDeviceNotifications 1001d5c4 f   k.coredll_ALL:tfsmain.obj
 0001:0001c5e0       xxx_AdvertiseInterface     1001d5e0 f   k.coredll_ALL:tfsmain.obj
 0001:0001c604       xxx_AdvertiseInterfaceEx   1001d604 f   k.coredll_ALL:tfsmain.obj
 0001:0001c620       xxx_CeCreateTokenFromAccount 1001d620 f   k.coredll_ALL:tfsmain.obj
 0001:0001c634       xxx_CeCvtStrToSD           1001d634 f   k.coredll_ALL:tfsmain.obj
 0001:0001c650       xxx_CeCvtSDToStr           1001d650 f   k.coredll_ALL:tfsmain.obj
 0001:0001c67c       xxx_LoaderVerifierInitialize 1001d67c f   k.coredll_ALL:tfsmain.obj
 0001:0001c698       xxx_LoaderVerifierUninitialize 1001d698 f   k.coredll_ALL:tfsmain.obj
 0001:0001c6b4       xxx_LoaderVerifierAuthenticateFile 1001d6b4 f   k.coredll_ALL:tfsmain.obj
 0001:0001c6fc       xxx_LoaderVerifierAuthorize 1001d6fc f   k.coredll_ALL:tfsmain.obj
 0001:0001c734       xxx_LoaderVerifierGetHash  1001d734 f   k.coredll_ALL:tfsmain.obj
 0001:0001c78c       xxx_LoaderVerifierAddToBlockList 1001d78c f   k.coredll_ALL:tfsmain.obj
 0001:0001c7a8       xxx_LoaderVerifierRemoveFromBlockList 1001d7a8 f   k.coredll_ALL:tfsmain.obj
 0001:0001c7c4       xxx_LoaderVerifierIsInBlockList 1001d7c4 f   k.coredll_ALL:tfsmain.obj
 0001:0001c7e0       xxx_LoaderVerifierEnumBlockList 1001d7e0 f   k.coredll_ALL:tfsmain.obj
 0001:0001c80c       xxx_SampleCounterForEntropyPool 1001d80c f   k.coredll_ALL:tfsmain.obj
 0001:0001c828       InitializeCriticalSection  1001d828 f   k.coredll_ALL:apis.obj
 0001:0001c860       DeleteCriticalSection      1001d860 f   k.coredll_ALL:apis.obj
 0001:0001c898       EnterCriticalSection       1001d898 f   k.coredll_ALL:apis.obj
 0001:0001c940       TryEnterCriticalSection    1001d940 f   k.coredll_ALL:apis.obj
 0001:0001c9c0       LeaveCriticalSection       1001d9c0 f   k.coredll_ALL:apis.obj
 0001:0001ca68       IsAPIReady                 1001da68 f   k.coredll_ALL:apis.obj
 0001:0001ca90       GetAPIAddress              1001da90 f   k.coredll_ALL:apis.obj
 0001:0001cae8       CeSafeCopyMemory           1001dae8 f   k.coredll_ALL:apis.obj
 0001:0001cb38       SystemParametersInfoW      1001db38 f   k.coredll_ALL:apis.obj
 0001:0001cd58       GlobalMemoryStatus         1001dd58 f   k.coredll_ALL:apis.obj
 0001:0001ce34       AttachHdstub               1001de34 f   k.coredll_ALL:apis.obj
 0001:0001ce3c       AttachOsAxsT0              1001de3c f   k.coredll_ALL:apis.obj
 0001:0001ce44       AttachOsAxsT1              1001de44 f   k.coredll_ALL:apis.obj
 0001:0001ce4c       SetInterruptEvent          1001de4c f   k.coredll_ALL:apis.obj
 0001:0001ceb0       CeSetPowerOnEvent          1001deb0 f   k.coredll_ALL:apis.obj
 0001:0001cee4       GetTempFileNameW           1001dee4 f   k.coredll_ALL:apis.obj
 0001:0001d150       CeGetCanonicalPathNameW    1001e150 f   k.coredll_ALL:apis.obj
 0001:0001d318       CopyFileExW                1001e318 f   k.coredll_ALL:apis.obj
 0001:0001d890       CopyFileW                  1001e890 f   k.coredll_ALL:apis.obj
 0001:0001d8cc       GetFileAttributesExW       1001e8cc f   k.coredll_ALL:apis.obj
 0001:0001d9a8       CeZeroPointer              1001e9a8 f   k.coredll_ALL:apis.obj
 0001:0001d9ac       MatchesWildcardMask        1001e9ac f   k.coredll_ALL:apis.obj
 0001:0001da94       ForcePixelDoubling         1001ea94 f   k.coredll_ALL:apis.obj
 0001:0001da9c       IsForcePixelDoubling       1001ea9c f   k.coredll_ALL:apis.obj
 0001:0001daa4       SetCriticalProcess         1001eaa4 f   k.coredll_ALL:apis.obj
 0001:0001dabc       __GetUserKData             1001eabc f   k.coredll_ALL:apis.obj
 0001:0001daec       TlsGetValue                1001eaec f   k.coredll_ALL:apis.obj
 0001:0001db5c       TlsSetValue                1001eb5c f   k.coredll_ALL:apis.obj
 0001:0001dc08       CaptureDumpFileOnDevice2   1001ec08 f   k.coredll_ALL:apis.obj
 0001:0001dd44       CeReportFault              1001ed44 f   k.coredll_ALL:apis.obj
 0001:0001dd6c       CaptureDumpFileOnDevice    1001ed6c f   k.coredll_ALL:apis.obj
 0001:0001dd74       ReportFault                1001ed74 f   k.coredll_ALL:apis.obj
 0001:0001dd9c       xxx_ReportEventW           1001ed9c f   k.coredll_ALL:teventlog.obj
 0001:0001dde8       xxx_RegisterEventSourceW   1001ede8 f   k.coredll_ALL:teventlog.obj
 0001:0001de04       xxx_DeregisterEventSource  1001ee04 f   k.coredll_ALL:teventlog.obj
 0001:0001de20       xxx_ClearEventLogW         1001ee20 f   k.coredll_ALL:teventlog.obj
 0001:0001de3c       xxx_OpenEventLogW          1001ee3c f   k.coredll_ALL:teventlog.obj
 0001:0001de58       xxx_CloseEventLog          1001ee58 f   k.coredll_ALL:teventlog.obj
 0001:0001de74       xxx_BackupEventLogW        1001ee74 f   k.coredll_ALL:teventlog.obj
 0001:0001de90       xxx_LockEventLog           1001ee90 f   k.coredll_ALL:teventlog.obj
 0001:0001deac       xxx_UnLockEventLog         1001eeac f   k.coredll_ALL:teventlog.obj
 0001:0001dec8       xxx_ReadEventLogRaw        1001eec8 f   k.coredll_ALL:teventlog.obj
 0001:0001deec       ?IsBatteryDriverReady@@YAKXZ 1001eeec f   k.coredll_ALL:tbattery.obj
 0001:0001e0cc       GetSystemPowerStatusEx     1001f0cc f   k.coredll_ALL:tbattery.obj
 0001:0001e148       GetSystemPowerStatusEx2    1001f148 f   k.coredll_ALL:tbattery.obj
 0001:0001e1d4       BatteryGetLifeTimeInfo     1001f1d4 f   k.coredll_ALL:tbattery.obj
 0001:0001e294       BatteryDrvrGetLevels       1001f294 f   k.coredll_ALL:tbattery.obj
 0001:0001e328       BatteryDrvrSupportsChangeNotification 1001f328 f   k.coredll_ALL:tbattery.obj
 0001:0001e3b4       BatteryNotifyOfTimeChange  1001f3b4 f   k.coredll_ALL:tbattery.obj
 0001:0001e3b8       I_BatteryNotifyOfTimeChange 1001f3b8 f   k.coredll_ALL:tbattery.obj
 0001:0001e434       xxx_DeviceIoControl        1001f434 f   k.coredll_ALL:twinbase.obj
 0001:0001e498       xxx_ForwardDeviceIoControl 1001f498 f   k.coredll_ALL:twinbase.obj
 0001:0001e4fc       xxx_GetFileAttributesW     1001f4fc f   k.coredll_ALL:twinbase.obj
 0001:0001e518       xxx_FindFirstFileW         1001f518 f   k.coredll_ALL:twinbase.obj
 0001:0001e538       xxx_CreateFileW            1001f538 f   k.coredll_ALL:twinbase.obj
 0001:0001e574       xxx_ReadFile               1001f574 f   k.coredll_ALL:twinbase.obj
 0001:0001e5c0       xxx_WriteFile              1001f5c0 f   k.coredll_ALL:twinbase.obj
 0001:0001e60c       xxx_SetFilePointer         1001f60c f   k.coredll_ALL:twinbase.obj
 0001:0001e650       xxx_FindFirstChangeNotificationW 1001f650 f   k.coredll_ALL:twinbase.obj
 0001:0001e66c       xxx_FindNextChangeNotification 1001f66c f   k.coredll_ALL:twinbase.obj
 0001:0001e688       xxx_FindCloseChangeNotification 1001f688 f   k.coredll_ALL:twinbase.obj
 0001:0001e6a4       xxx_CeGetFileNotificationInfo 1001f6a4 f   k.coredll_ALL:twinbase.obj
 0001:0001e6d8       xxx_CeFsIoControlW         1001f6d8 f   k.coredll_ALL:twinbase.obj
 0001:0001e71c       xxx_CeGetVolumeInfoW       1001f71c f   k.coredll_ALL:twinbase.obj
 0001:0001e79c       xxx_GetFileSecurityW       1001f79c f   k.coredll_ALL:twinbase.obj
 0001:0001e7c8       xxx_SetFileSecurityW       1001f7c8 f   k.coredll_ALL:twinbase.obj
 0001:0001e7e4       xxx_CancelIo               1001f7e4 f   k.coredll_ALL:twinbase.obj
 0001:0001e810       xxx_CancelIoEx             1001f810 f   k.coredll_ALL:twinbase.obj
 0001:0001e84c       xxx_SecureWipeAllVolumes   1001f84c f   k.coredll_ALL:twinbase.obj
 0001:0001f048       ?CeFreeRwTls@@YAXKPAX@Z    10020048 f   k.coredll_ALL:cerwlock.obj
 0001:0001f05c       CeIsRwLockAcquired         1002005c f   k.coredll_ALL:cerwlock.obj
 0001:0001f0d4       CeReleaseRwLock            100200d4 f   k.coredll_ALL:cerwlock.obj
 0001:0001f13c       CeAcquireRwLock            1002013c f   k.coredll_ALL:cerwlock.obj
 0001:0001f18c       CeDeleteRwLock             1002018c f   k.coredll_ALL:cerwlock.obj
 0001:0001f1d0       CeCreateRwLock             100201d0 f   k.coredll_ALL:cerwlock.obj
 0001:0001f284       CeInitializeRwLocks        10020284 f   k.coredll_ALL:cerwlock.obj
 0001:0001f2b4       xxx_CeGetDBInformationByHandle 100202b4 f   k.coredll_ALL:twindbas2.obj
 0001:0001f2e8       xxx_CeFindFirstDatabaseEx  100202e8 f   k.coredll_ALL:twindbas2.obj
 0001:0001f304       xxx_CeFindNextDatabaseEx   10020304 f   k.coredll_ALL:twindbas2.obj
 0001:0001f338       xxx_CeCreateDatabaseEx2    10020338 f   k.coredll_ALL:twindbas2.obj
 0001:0001f354       xxx_CeSetDatabaseInfoEx2   10020354 f   k.coredll_ALL:twindbas2.obj
 0001:0001f370       xxx_CeOpenDatabaseEx2      10020370 f   k.coredll_ALL:twindbas2.obj
 0001:0001f3a4       xxx_CeDeleteDatabaseEx     100203a4 f   k.coredll_ALL:twindbas2.obj
 0001:0001f3c0       xxx_CeSeekDatabaseEx       100203c0 f   k.coredll_ALL:twindbas2.obj
 0001:0001f40c       xxx_CeDeleteRecord         1002040c f   k.coredll_ALL:twindbas2.obj
 0001:0001f440       xxx_CeReadRecordPropsEx    10020440 f   k.coredll_ALL:twindbas2.obj
 0001:0001f56c       xxx_CeSeekDatabase         1002056c f   k.coredll_ALL:twindbas2.obj
 0001:0001f5b8       xxx_CeReadRecordProps      100205b8 f   k.coredll_ALL:twindbas2.obj
 0001:0001f5e4       xxx_CeWriteRecordProps     100205e4 f   k.coredll_ALL:twindbas2.obj
 0001:0001f628       xxx_CeEnumDBVolumes        10020628 f   k.coredll_ALL:twindbas2.obj
 0001:0001f660       xxx_CeMountDBVol           10020660 f   k.coredll_ALL:twindbas2.obj
 0001:0001f67c       xxx_CeUnmountDBVol         1002067c f   k.coredll_ALL:twindbas2.obj
 0001:0001f698       xxx_CeFlushDBVol           10020698 f   k.coredll_ALL:twindbas2.obj
 0001:0001f6b4       xxx_CeOidGetInfoEx2        100206b4 f   k.coredll_ALL:twindbas2.obj
 0001:0001f6d0       xxx_CeChangeDatabaseLCID   100206d0 f   k.coredll_ALL:twindbas2.obj
 0001:0001f6ec       xxx_CeCreateDatabaseWithProps 100206ec f   k.coredll_ALL:twindbas2.obj
 0001:0001f758       xxx_CeAddDatabaseProps     10020758 f   k.coredll_ALL:twindbas2.obj
 0001:0001f7c4       xxx_CeRemoveDatabaseProps  100207c4 f   k.coredll_ALL:twindbas2.obj
 0001:0001f81c       xxx_CeMountDBVolEx         1002081c f   k.coredll_ALL:twindbas2.obj
 0001:0001f838       xxx_CeCreateSession        10020838 f   k.coredll_ALL:twindbas2.obj
 0001:0001f854       xxx_CeAddSyncPartner       10020854 f   k.coredll_ALL:twindbas2.obj
 0001:0001f870       xxx_CeRemoveSyncPartner    10020870 f   k.coredll_ALL:twindbas2.obj
 0001:0001f88c       xxx_CeTrackDatabase        1002088c f   k.coredll_ALL:twindbas2.obj
 0001:0001f8a8       xxx_CeRemoveDatabaseTracking 100208a8 f   k.coredll_ALL:twindbas2.obj
 0001:0001f8c4       xxx_CeTrackProperty        100208c4 f   k.coredll_ALL:twindbas2.obj
 0001:0001f8e0       xxx_CePurgeTrackingData    100208e0 f   k.coredll_ALL:twindbas2.obj
 0001:0001f8fc       xxx_CePurgeTrackingGenerations 100208fc f   k.coredll_ALL:twindbas2.obj
 0001:0001f924       xxx_CeGetDatabaseProps     10020924 f   k.coredll_ALL:twindbas2.obj
 0001:0001f990       xxx_CeSetSessionOption     10020990 f   k.coredll_ALL:twindbas2.obj
 0001:0001f9cc       xxx_CeGetDatabaseSession   100209cc f   k.coredll_ALL:twindbas2.obj
 0001:0001f9f8       xxx_CeBeginTransaction     100209f8 f   k.coredll_ALL:twindbas2.obj
 0001:0001fa2c       xxx_CeEndTransaction       10020a2c f   k.coredll_ALL:twindbas2.obj
 0001:0001fa60       xxx_CeOpenDatabaseInSession 10020a60 f   k.coredll_ALL:twindbas2.obj
 0001:0001fafc       xxx_CeOpenStream           10020afc f   k.coredll_ALL:twindbas2.obj
 0001:0001fb38       xxx_CeStreamRead           10020b38 f   k.coredll_ALL:twindbas2.obj
 0001:0001fb7c       xxx_CeStreamWrite          10020b7c f   k.coredll_ALL:twindbas2.obj
 0001:0001fbc0       xxx_CeStreamSaveChanges    10020bc0 f   k.coredll_ALL:twindbas2.obj
 0001:0001fbec       xxx_CeStreamSeek           10020bec f   k.coredll_ALL:twindbas2.obj
 0001:0001fc30       xxx_CeStreamSetSize        10020c30 f   k.coredll_ALL:twindbas2.obj
 0001:0001fc64       xxx_CeBeginSyncSession     10020c64 f   k.coredll_ALL:twindbas2.obj
 0001:0001fcc0       xxx_CeEndSyncSession       10020cc0 f   k.coredll_ALL:twindbas2.obj
 0001:0001fcf4       xxx_CeGetChangedRecordCnt  10020cf4 f   k.coredll_ALL:twindbas2.obj
 0001:0001fd30       xxx_CeGetChangedRecords    10020d30 f   k.coredll_ALL:twindbas2.obj
 0001:0001fd6c       xxx_CeFindNextChangedRecord 10020d6c f   k.coredll_ALL:twindbas2.obj
 0001:0001fd98       xxx_CeGetPropChangeInfo    10020d98 f   k.coredll_ALL:twindbas2.obj
 0001:0001fddc       xxx_CeGetRecordChangeInfo  10020ddc f   k.coredll_ALL:twindbas2.obj
 0001:0001fe18       xxx_CeMarkRecord           10020e18 f   k.coredll_ALL:twindbas2.obj
 0001:0001fe54       xxx_CeAttachCustomTrackingData 10020e54 f   k.coredll_ALL:twindbas2.obj
 0001:0001fe98       xxx_CeGetCustomTrackingData 10020e98 f   k.coredll_ALL:twindbas2.obj
 0001:00020274       xxx_CeOpenCallerBuffer     10021274 f   k.coredll_ALL:tkmarshal.obj
 0001:000203b8       xxx_CeCloseCallerBuffer    100213b8 f   k.coredll_ALL:tkmarshal.obj
 0001:00020454       xxx_CeAllocAsynchronousBuffer 10021454 f   k.coredll_ALL:tkmarshal.obj
 0001:00020608       xxx_CeFreeAsynchronousBuffer 10021608 f   k.coredll_ALL:tkmarshal.obj
 0001:00020730       xxx_CeFlushAsynchronousBuffer 10021730 f   k.coredll_ALL:tkmarshal.obj
 0001:000207e0       xxx_CeAllocDuplicateBuffer 100217e0 f   k.coredll_ALL:tkmarshal.obj
 0001:00020858       xxx_CeFreeDuplicateBuffer  10021858 f   k.coredll_ALL:tkmarshal.obj
 0001:000208a0       xxx_CeRegisterReplNotification 100218a0 f   k.coredll_ALL:tfsreplbit.obj
 0001:000208bc       xxx_CeGetReplChangeMask    100218bc f   k.coredll_ALL:tfsreplbit.obj
 0001:000208d8       xxx_CeSetReplChangeMask    100218d8 f   k.coredll_ALL:tfsreplbit.obj
 0001:000208f4       xxx_CeGetReplChangeBitsEx  100218f4 f   k.coredll_ALL:tfsreplbit.obj
 0001:00020910       xxx_CeSetReplChangeBitsEx  10021910 f   k.coredll_ALL:tfsreplbit.obj
 0001:0002092c       xxx_CeClearReplChangeBitsEx 1002192c f   k.coredll_ALL:tfsreplbit.obj
 0001:00020948       xxx_CeGetReplOtherBitsEx   10021948 f   k.coredll_ALL:tfsreplbit.obj
 0001:00020964       xxx_CeSetReplOtherBitsEx   10021964 f   k.coredll_ALL:tfsreplbit.obj
 0001:00020980       ?InitNotifyThunks@@YAHXZ   10021980 f   k.coredll_ALL:tnotify.obj
 0001:00020aa0       ?FlattenCeUserNotificationAndTrigger@@YAHPAUUserNotificationTrigger@@PAUUserNotificationType@@KPAPAEPAK@Z 10021aa0 f   k.coredll_ALL:tnotify.obj
 0001:00020e5c       CeSetUserNotification      10021e5c f   k.coredll_ALL:tnotify.obj
 0001:00020f78       CeSetUserNotificationEx    10021f78 f   k.coredll_ALL:tnotify.obj
 0001:00021054       CeClearUserNotification    10022054 f   k.coredll_ALL:tnotify.obj
 0001:00021108       CeRunAppAtTime             10022108 f   k.coredll_ALL:tnotify.obj
 0001:000211f8       CeRunAppAtEvent            100221f8 f   k.coredll_ALL:tnotify.obj
 0001:000212c8       CeHandleAppNotifications   100222c8 f   k.coredll_ALL:tnotify.obj
 0001:00021390       CeGetUserNotificationPreferences 10022390 f   k.coredll_ALL:tnotify.obj
 0001:000214d0       CeEventHasOccurred         100224d0 f   k.coredll_ALL:tnotify.obj
 0001:00021598       CeGetUserNotificationHandles 10022598 f   k.coredll_ALL:tnotify.obj
 0001:0002160c       CeGetUserNotification      1002260c f   k.coredll_ALL:tnotify.obj
 0001:00021728       CeGetNotificationThreadId  10022728 f   k.coredll_ALL:tnotify.obj
 0001:000217a8       xxx_CePolicyIsEnabled      100227a8 f   k.coredll_ALL:spolicy.obj
 0001:000217b0       xxx_CeOpenModuleByPolicy   100227b0 f   k.coredll_ALL:spolicy.obj
 0001:000217dc       xxx_CePolicyCheck          100227dc f   k.coredll_ALL:spolicy.obj
 0001:000217e4       xxx_CePolicyCheckByCanonicalName 100227e4 f   k.coredll_ALL:spolicy.obj
 0001:000217ec       xxx_CePolicyOpen           100227ec f   k.coredll_ALL:spolicy.obj
 0001:00021818       xxx_CePolicyOpenByCanonicalName 10022818 f   k.coredll_ALL:spolicy.obj
 0001:00021844       xxx_CePolicyCheckByHandle  10022844 f   k.coredll_ALL:spolicy.obj
 0001:0002184c       xxx_CePolicyGetAccessGranted 1002284c f   k.coredll_ALL:spolicy.obj
 0001:0002185c       xxx_CePolicyGetCustomData  1002285c f   k.coredll_ALL:spolicy.obj
 0001:00021888       xxx_CePolicyIoControl      10022888 f   k.coredll_ALL:spolicy.obj
 0001:000218b4       xxx_CePolicyRegisterCanonicalizer 100228b4 f   k.coredll_ALL:spolicy.obj
 0001:000218e0       xxx_CePolicyGetCanonicalName 100228e0 f   k.coredll_ALL:spolicy.obj
 0001:0002190c       xxx_CePolicyRuleBeginTransaction 1002290c f   k.coredll_ALL:spolicy.obj
 0001:00021938       xxx_CePolicyRuleAbortTransaction 10022938 f   k.coredll_ALL:spolicy.obj
 0001:00021964       xxx_CePolicyRuleCommitTransaction 10022964 f   k.coredll_ALL:spolicy.obj
 0001:00021990       xxx_CePolicyRuleFindFirst  10022990 f   k.coredll_ALL:spolicy.obj
 0001:000219bc       xxx_CePolicyRuleFindNext   100229bc f   k.coredll_ALL:spolicy.obj
 0001:000219e8       xxx_CePolicyRuleCreate     100229e8 f   k.coredll_ALL:spolicy.obj
 0001:00021a14       xxx_CePolicyRuleOpen       10022a14 f   k.coredll_ALL:spolicy.obj
 0001:00021a40       xxx_CePolicyRuleDelete     10022a40 f   k.coredll_ALL:spolicy.obj
 0001:00021a6c       xxx_CePolicyRuleGetInfo    10022a6c f   k.coredll_ALL:spolicy.obj
 0001:00021a98       xxx_CePolicyRuleReadRawData 10022a98 f   k.coredll_ALL:spolicy.obj
 0001:00021ac4       xxx_CePolicyRuleAddRawData 10022ac4 f   k.coredll_ALL:spolicy.obj
 0001:00021af0       xxx_CePolicyRuleCommit     10022af0 f   k.coredll_ALL:spolicy.obj
 0001:00021b1c       xxx_CePolicyRuleBuildRawData 10022b1c f   k.coredll_ALL:spolicy.obj
 0001:00021b48       xxx_CePolicyRuleParseRawData 10022b48 f   k.coredll_ALL:spolicy.obj
 0001:00021b74       xxx_CeContextCreate        10022b74 f   k.coredll_ALL:spolicy.obj
 0001:00021ba0       xxx_CeContextAdd           10022ba0 f   k.coredll_ALL:spolicy.obj
 0001:00021bcc       xxx_CeContextRemove        10022bcc f   k.coredll_ALL:spolicy.obj
 0001:00021bf8       xxx_CeContextGetData       10022bf8 f   k.coredll_ALL:spolicy.obj
 0001:00021c90       xxx_CeFindFirstDatabase    10022c90 f   k.coredll_ALL:twindbas.obj
 0001:00021cb8       xxx_CeFindNextDatabase     10022cb8 f   k.coredll_ALL:twindbas.obj
 0001:00021cf4       xxx_CeCreateDatabaseEx     10022cf4 f   k.coredll_ALL:twindbas.obj
 0001:00021dd4       xxx_CeCreateDatabase       10022dd4 f   k.coredll_ALL:twindbas.obj
 0001:00021ea8       xxx_CeSetDatabaseInfoEx    10022ea8 f   k.coredll_ALL:twindbas.obj
 0001:00021fa0       xxx_CeSetDatabaseInfo      10022fa0 f   k.coredll_ALL:twindbas.obj
 0001:00021fb4       xxx_CeOpenDatabaseEx       10022fb4 f   k.coredll_ALL:twindbas.obj
 0001:00021ffc       xxx_CeOpenDatabase         10022ffc f   k.coredll_ALL:twindbas.obj
 0001:00022074       xxx_CeDeleteDatabase       10023074 f   k.coredll_ALL:twindbas.obj
 0001:0002209c       xxx_CeFreeNotification     1002309c f   k.coredll_ALL:twindbas.obj
 0001:000220bc       xxx_ControlTraceW          100230bc f   k.coredll_ALL:tevnt.obj
 0001:00022150       xxx_EnableTraceEx          10023150 f   k.coredll_ALL:tevnt.obj
 0001:000221c8       xxx_EnumerateTraceGuidsEx  100231c8 f   k.coredll_ALL:tevnt.obj
 0001:000221fc       xxx_StartTraceW            100231fc f   k.coredll_ALL:tevnt.obj
 0001:0002226c       xxx_EventProviderEnabled   1002326c f   k.coredll_ALL:tevnt.obj
 0001:00022328       xxx_EventEnabled           10023328 f   k.coredll_ALL:tevnt.obj
 0001:00022368       xxx_EventRegister          10023368 f   k.coredll_ALL:tevnt.obj
 0001:00022468       xxx_EventUnregister        10023468 f   k.coredll_ALL:tevnt.obj
 0001:000224bc       xxx_EventWrite             100234bc f   k.coredll_ALL:tevnt.obj
 0001:00022578       TraceProviderCallbackThread 10023578 f   k.coredll_ALL:tevnt.obj
 0001:00022724       xxx_RegisterTraceGuidsW    10023724 f   k.coredll_ALL:tevnt.obj
 0001:00022978       xxx_UnregisterTraceGuids   10023978 f   k.coredll_ALL:tevnt.obj
 0001:000229c0       xxx_GetTraceLoggerHandle   100239c0 f   k.coredll_ALL:tevnt.obj
 0001:00022a18       xxx_GetTraceEnableLevel    10023a18 f   k.coredll_ALL:tevnt.obj
 0001:00022a74       xxx_GetTraceEnableFlags    10023a74 f   k.coredll_ALL:tevnt.obj
 0001:00022ad4       xxx_TraceMessageVa         10023ad4 f   k.coredll_ALL:tevnt.obj
 0001:00022c40       xxx_TraceMessage           10023c40 f   k.coredll_ALL:tevnt.obj
 0001:00022cbc       xxx_CeEventSubscribe       10023cbc f   k.coredll_ALL:tevnt.obj
 0001:00022d2c       xxx_CeEventNext            10023d2c f   k.coredll_ALL:tevnt.obj
 0001:00022d74       xxx_CeEventRead            10023d74 f   k.coredll_ALL:tevnt.obj
 0001:00022dec       xxx_CeEventClose           10023dec f   k.coredll_ALL:tevnt.obj
 0001:00022e40       xxx_RegCloseKey            10023e40 f   k.coredll_ALL:twinreg.obj
 0001:00022e5c       xxx_RegFlushKey            10023e5c f   k.coredll_ALL:twinreg.obj
 0001:00022e78       xxx_RegCreateKeyExW        10023e78 f   k.coredll_ALL:twinreg.obj
 0001:00022ec4       xxx_RegDeleteKeyW          10023ec4 f   k.coredll_ALL:twinreg.obj
 0001:00022ee0       xxx_RegDeleteValueW        10023ee0 f   k.coredll_ALL:twinreg.obj
 0001:00022efc       xxx_RegEnumValueW          10023efc f   k.coredll_ALL:twinreg.obj
 0001:00022f88       xxx_RegEnumKeyExW          10023f88 f   k.coredll_ALL:twinreg.obj
 0001:0002302c       xxx_RegOpenKeyExW          1002402c f   k.coredll_ALL:twinreg.obj
 0001:00023058       xxx_RegQueryInfoKeyW       10024058 f   k.coredll_ALL:twinreg.obj
 0001:000230f8       xxx_RegQueryValueExW       100240f8 f   k.coredll_ALL:twinreg.obj
 0001:0002314c       xxx_RegSetValueExW         1002414c f   k.coredll_ALL:twinreg.obj
 0001:00023180       xxx_RegCopyFile            10024180 f   k.coredll_ALL:twinreg.obj
 0001:0002319c       xxx_RegRestoreFile         1002419c f   k.coredll_ALL:twinreg.obj
 0001:000231b8       xxx_RegSaveKey             100241b8 f   k.coredll_ALL:twinreg.obj
 0001:000231d4       xxx_RegReplaceKey          100241d4 f   k.coredll_ALL:twinreg.obj
 0001:000231f0       xxx_RegSetKeySecurity      100241f0 f   k.coredll_ALL:twinreg.obj
 0001:000231f8       xxx_RegGetKeySecurity      100241f8 f   k.coredll_ALL:twinreg.obj
 0001:00023210       xxx_SetCurrentUser         10024210 f   k.coredll_ALL:twinreg.obj
 0001:0002322c       xxx_SetUserData            1002422c f   k.coredll_ALL:twinreg.obj
 0001:00023248       xxx_GetUserDirectory       10024248 f   k.coredll_ALL:twinreg.obj
 0001:00023268       xxx_CryptProtectData       10024268 f   k.coredll_ALL:twinreg.obj
 0001:000233a8       xxx_CryptUnprotectData     100243a8 f   k.coredll_ALL:twinreg.obj
 0001:00023570       xxx_GenRandom              10024570 f   k.coredll_ALL:twinreg.obj
 0001:00023598       xxx_CeFindFirstRegChange   10024598 f   k.coredll_ALL:twinreg.obj
 0001:000235b4       xxx_CeFindNextRegChange    100245b4 f   k.coredll_ALL:twinreg.obj
 0001:000235d0       xxx_CeFindCloseRegChange   100245d0 f   k.coredll_ALL:twinreg.obj
 0001:000235ec       xxx_CeRegTestSetValueW     100245ec f   k.coredll_ALL:twinreg.obj
 0001:00023630       xxx_CeRegGetInfo           10024630 f   k.coredll_ALL:twinreg.obj
 0001:000236a0       xxx_CeRegGetNotificationInfo 100246a0 f   k.coredll_ALL:twinreg.obj
 0001:000245d4       EnumerateHeapItems         100255d4 f   k.coredll_ALL:rheap.obj
 0001:00024890       RHeapFreeWithCaller        10025890 f   k.coredll_ALL:rheap.obj
 0001:00024bc0       RHeapFree                  10025bc0 f   k.coredll_ALL:rheap.obj
 0001:00024bc8       RHeapSize                  10025bc8 f   k.coredll_ALL:rheap.obj
 0001:00024de4       RHeapCompact               10025de4 f   k.coredll_ALL:rheap.obj
 0001:00024e84       RHeapValidate              10025e84 f   k.coredll_ALL:rheap.obj
 0001:00025180       CompactAllHeaps            10026180 f   k.coredll_ALL:rheap.obj
 0001:000251d4       CeRemoteHeapTranslatePointer 100261d4 f   k.coredll_ALL:rheap.obj
 0001:0002525c       CeGetModuleHeapInfo        1002625c f   k.coredll_ALL:rheap.obj
 0001:00025834       RHeapAlloc                 10026834 f   k.coredll_ALL:rheap.obj
 0001:00025b80       RHeapReAlloc               10026b80 f   k.coredll_ALL:rheap.obj
 0001:00025f04       RHeapDestroy               10026f04 f   k.coredll_ALL:rheap.obj
 0001:00025fbc       DoRHeapCreate              10026fbc f   k.coredll_ALL:rheap.obj
 0001:000262fc       RHeapCreate                100272fc f   k.coredll_ALL:rheap.obj
 0001:00026344       CeRemoteHeapCreate         10027344 f   k.coredll_ALL:rheap.obj
 0001:000263e0       LMemInit                   100273e0 f   k.coredll_ALL:rheap.obj
 0001:00026464       FileTimeToLocalFileTime    10027464 f   k.coredll_ALL:time.obj
 0001:000264a4       LocalFileTimeToFileTime    100274a4 f   k.coredll_ALL:time.obj
 0001:000264e0       GetCurrentFT               100274e0 f   k.coredll_ALL:time.obj
 0001:00026500       CompareFileTime            10027500 f   k.coredll_ALL:time.obj
 0001:00026540       SystemTimeToFileTime       10027540 f   k.coredll_ALL:time.obj
 0001:0002655c       FileTimeToSystemTime       1002755c f   k.coredll_ALL:time.obj
 0001:00026578       GetSystemTime              10027578 f   k.coredll_ALL:time.obj
 0001:00026598       GetSystemTimeAsFileTime    10027598 f   k.coredll_ALL:time.obj
 0001:000266c4       SetSystemTime              100276c4 f   k.coredll_ALL:time.obj
 0001:000266cc       GetLocalTime               100276cc f   k.coredll_ALL:time.obj
 0001:000266ec       SetLocalTime               100276ec f   k.coredll_ALL:time.obj
 0001:000266f4       CeGetRawTime               100276f4 f   k.coredll_ALL:time.obj
 0001:00026710       CeGetRawTimeOffset         10027710 f   k.coredll_ALL:time.obj
 0001:0002673c       GetDefaultTimeZoneInformation 1002773c f   k.coredll_ALL:time.obj
 0001:00026998       GetTimeZoneInformation     10027998 f   k.coredll_ALL:time.obj
 0001:00026cec       SetTimeZoneInformation     10027cec f   k.coredll_ALL:time.obj
 0001:00027180       SetTimeZoneInformationByID 10028180 f   k.coredll_ALL:time.obj
 0001:0002761c       GetTimeZoneInformationID   1002861c f   k.coredll_ALL:time.obj
 0001:000277dc       InvalidateCachedTimeZoneList 100287dc f   k.coredll_ALL:time.obj
 0001:0002782c       InitializeTimeZoneList     1002882c f   k.coredll_ALL:time.obj
 0001:00027840       GetTimeZoneList            10028840 f   k.coredll_ALL:time.obj
 0001:00027bb8       LocalAlloc                 10028bb8 f   k.coredll_ALL:heap.obj
 0001:00027c20       LocalAllocTrace            10028c20 f   k.coredll_ALL:heap.obj
 0001:00027c24       LocalSize                  10028c24 f   k.coredll_ALL:heap.obj
 0001:00027c68       LocalFree                  10028c68 f   k.coredll_ALL:heap.obj
 0001:00027ca8       HeapCreate                 10028ca8 f   k.coredll_ALL:heap.obj
 0001:00027cd8       CeHeapCreate               10028cd8 f   k.coredll_ALL:heap.obj
 0001:00027d48       HeapReAlloc                10028d48 f   k.coredll_ALL:heap.obj
 0001:00027dc0       HeapAlloc                  10028dc0 f   k.coredll_ALL:heap.obj
 0001:00027e20       HeapAllocTrace             10028e20 f   k.coredll_ALL:heap.obj
 0001:00027e24       HeapFree                   10028e24 f   k.coredll_ALL:heap.obj
 0001:00027e70       HeapSize                   10028e70 f   k.coredll_ALL:heap.obj
 0001:00027ebc       HeapDestroy                10028ebc f   k.coredll_ALL:heap.obj
 0001:00027ef8       HeapCompact                10028ef8 f   k.coredll_ALL:heap.obj
 0001:00027f2c       GetProcessHeap             10028f2c f   k.coredll_ALL:heap.obj
 0001:00027f3c       HeapValidate               10028f3c f   k.coredll_ALL:heap.obj
 0001:00027f8c       LocalReAlloc               10028f8c f   k.coredll_ALL:heap.obj
 0001:00028018       ProfileStart               10029018 f   k.coredll_ALL:tkprofile.obj
 0001:00028070       ProfileStartEx             10029070 f   k.coredll_ALL:tkprofile.obj
 0001:000280ac       ProfileStop                100290ac f   k.coredll_ALL:tkprofile.obj
 0001:000280f0       ProfileCaptureStatus       100290f0 f   k.coredll_ALL:tkprofile.obj
 0001:00028134       xxx_DumpKCallProfile       10029134 f   k.coredll_ALL:tkprofile.obj
 0001:00028138       xxx_CeLogData              10029138 f   k.coredll_ALL:tkprofile.obj
 0001:000281ac       xxx_CeLogSetZones          100291ac f   k.coredll_ALL:tkprofile.obj
 0001:000281ec       xxx_CeLogGetZones          100291ec f   k.coredll_ALL:tkprofile.obj
 0001:0002825c       xxx_CeLogReSync            1002925c f   k.coredll_ALL:tkprofile.obj
 0001:0002829c       CELOG_HeapCreate           1002929c f   k.coredll_ALL:tkprofile.obj
 0001:00028344       CELOG_HeapAlloc            10029344 f   k.coredll_ALL:tkprofile.obj
 0001:00028458       CELOG_HeapRealloc          10029458 f   k.coredll_ALL:tkprofile.obj
 0001:00028574       CELOG_HeapFree             10029574 f   k.coredll_ALL:tkprofile.obj
 0001:00028678       CELOG_HeapDestroy          10029678 f   k.coredll_ALL:tkprofile.obj
 0001:00028710       CePerfDLLSetup             10029710 f   k.coredll_ALL:tkprofile.obj
 0001:00028800       CePerfDLLCleanup           10029800 f   k.coredll_ALL:tkprofile.obj
 0001:00028880       IsPSLBoundary              10029880 f i k.coredll_ALL:exdsptch.obj
 0001:000288c4       SetExceptionHandler        100298c4 f   k.coredll_ALL:exdsptch.obj
 0001:000288d4       CeSetExtendedPdata         100298d4 f   k.coredll_ALL:exdsptch.obj
 0001:000288ec       GetStkHighLimit            100298ec f   k.coredll_ALL:exdsptch.obj
 0001:00028918       MatchesExtRange            10029918 f   k.coredll_ALL:exdsptch.obj
 0001:00028960       LookupPDataFormExt         10029960 f   k.coredll_ALL:exdsptch.obj
 0001:000289d4       RtlLookupFunctionEntry     100299d4 f   k.coredll_ALL:exdsptch.obj
 0001:00028b40       RtlpVirtualUnwind          10029b40 f   k.coredll_ALL:exdsptch.obj
 0001:00028b94       RtlUnwindOneFrame          10029b94 f   k.coredll_ALL:exdsptch.obj
 0001:00028c6c       RtlUnwind                  10029c6c f   k.coredll_ALL:exdsptch.obj
 0001:00028fb4       RtlDispatchHelper          10029fb4 f   k.coredll_ALL:exdsptch.obj
 0001:000290c4       DoRtlDispatchException     1002a0c4 f   k.coredll_ALL:exdsptch.obj
 0001:00029404       SingleSegmentNls_GetDWWeight 1002a404 f   k.coredll_ALL:codepage.obj
 0001:00029578       GetDWWeight                1002a578 f   k.coredll_ALL:codepage.obj
 0001:00029744       GET_DWWT_SM                1002a744 f   k.coredll_ALL:codepage.obj
 0001:000297ac       IsValidCodePage            1002a7ac f   k.coredll_ALL:codepage.obj
 0001:00029808       GetCPInfo                  1002a808 f   k.coredll_ALL:codepage.obj
 0001:000298f4       SingleSegmentNls_FindCompr2 1002a8f4 f   k.coredll_ALL:codepage.obj
 0001:00029974       FindCompr2                 1002a974 f   k.coredll_ALL:codepage.obj
 0001:000299d4       SingleSegmentNls_FindCompr3 1002a9d4 f   k.coredll_ALL:codepage.obj
 0001:00029a74       FindCompr3                 1002aa74 f   k.coredll_ALL:codepage.obj
 0001:00029ae0       SingleSegmentNls_FindComprTable 1002aae0 f   k.coredll_ALL:codepage.obj
 0001:00029b1c       FindComprTable             1002ab1c f   k.coredll_ALL:codepage.obj
 0001:00029b70       SingleSegmentNls_GetCompositeChars 1002ab70 f   k.coredll_ALL:codepage.obj
 0001:00029c0c       GetCompositeChars          1002ac0c f   k.coredll_ALL:codepage.obj
 0001:0002ae3c       IsDBCSLeadByteEx           1002be3c f   k.coredll_ALL:codepage.obj
 0001:0002aeb4       IsDBCSLeadByte             1002beb4 f   k.coredll_ALL:codepage.obj
 0001:0002b24c       MultiByteToWideChar        1002c24c f   k.coredll_ALL:codepage.obj
 0001:0002b54c       WideCharToMultiByte        1002c54c f   k.coredll_ALL:codepage.obj
 0001:0002c0e0       CharLowerW                 1002d0e0 f   k.coredll_ALL:codepage.obj
 0001:0002c12c       CharUpperW                 1002d12c f   k.coredll_ALL:codepage.obj
 0001:0002c178       CharLowerBuffW             1002d178 f   k.coredll_ALL:codepage.obj
 0001:0002c1bc       CharUpperBuffW             1002d1bc f   k.coredll_ALL:codepage.obj
 0001:0002c208       ?SingleSegmentNls_EnumSystemCodePagesW@@YAHP6AHPAG@ZKPAU_NlsWrapperData@@PAKPAI@Z 1002d208 f   k.coredll_ALL:codepage.obj
 0001:0002c578       EnumSystemCodePagesW       1002d578 f   k.coredll_ALL:codepage.obj
 0001:0002c624       CharPrevW                  1002d624 f   k.coredll_ALL:codepage.obj
 0001:0002c634       CharNextW                  1002d634 f   k.coredll_ALL:codepage.obj
 0001:0002c644       GetStringTypeExW           1002d644 f   k.coredll_ALL:codepage.obj
 0001:0002c700       GetStringTypeW             1002d700 f   k.coredll_ALL:codepage.obj
 0001:0002c734       CompareStringEx            1002d734 f   k.coredll_ALL:codepage.obj
 0001:0002c778       CompareStringW             1002d778 f   k.coredll_ALL:codepage.obj
 0001:0002c820       CompareStringOrdinal       1002d820 f   k.coredll_ALL:codepage.obj
 0001:0002c83c       FindStringOrdinal          1002d83c f   k.coredll_ALL:codepage.obj
 0001:0002c860       ?ReverseBytes@@YAHPBGHPAGH@Z 1002d860 f   k.coredll_ALL:codepage.obj
 0001:0002c90c       LCMapStringEx              1002d90c f   k.coredll_ALL:codepage.obj
 0001:0002cba4       SingleSegmentNls_FoldLigatures 1002dba4 f   k.coredll_ALL:codepage.obj
 0001:0002cd30       SingleSegmentNls_FoldCZone 1002dd30 f   k.coredll_ALL:codepage.obj
 0001:0002cdac       FoldCZone                  1002ddac f   k.coredll_ALL:codepage.obj
 0001:0002ce50       FoldPreComposed            1002de50 f   k.coredll_ALL:codepage.obj
 0001:0002cf9c       ?FoldComposite@@YAHPBGHPAGH@Z 1002df9c f   k.coredll_ALL:codepage.obj
 0001:0002d0e0       FoldStringW                1002e0e0 f   k.coredll_ALL:codepage.obj
 0001:0002d6d4       lstrcmpW                   1002e6d4 f   k.coredll_ALL:codepage.obj
 0001:0002d750       lstrcmpiW                  1002e750 f   k.coredll_ALL:codepage.obj
 0001:0002d7cc       IsNLSDefinedString         1002e7cc f   k.coredll_ALL:codepage.obj
 0001:0002d7f0       LCMapStringW               1002e7f0 f   k.coredll_ALL:codepage.obj
 0001:0002d898       xxx_CheckPassword          1002e898 f   k.coredll_ALL:tfspass.obj
 0001:0002d8b4       xxx_SetPassword            1002e8b4 f   k.coredll_ALL:tfspass.obj
 0001:0002d8d0       xxx_GetPasswordActive      1002e8d0 f   k.coredll_ALL:tfspass.obj
 0001:0002d8f0       xxx_SetPasswordActive      1002e8f0 f   k.coredll_ALL:tfspass.obj
 0001:0002d930       xxx_SetPasswordStatus      1002e930 f   k.coredll_ALL:tfspass.obj
 0001:0002d94c       xxx_GetPasswordStatus      1002e94c f   k.coredll_ALL:tfspass.obj
 0001:0002d968       ClearCommBreak             1002e968 f   k.coredll_ALL:serial.obj
 0001:0002d9a4       ClearCommError             1002e9a4 f   k.coredll_ALL:serial.obj
 0001:0002da28       EscapeCommFunction         1002ea28 f   k.coredll_ALL:serial.obj
 0001:0002db08       GetCommMask                1002eb08 f   k.coredll_ALL:serial.obj
 0001:0002db4c       GetCommModemStatus         1002eb4c f   k.coredll_ALL:serial.obj
 0001:0002db90       GetCommProperties          1002eb90 f   k.coredll_ALL:serial.obj
 0001:0002dbd4       GetCommState               1002ebd4 f   k.coredll_ALL:serial.obj
 0001:0002dc18       GetCommTimeouts            1002ec18 f   k.coredll_ALL:serial.obj
 0001:0002dc5c       PurgeComm                  1002ec5c f   k.coredll_ALL:serial.obj
 0001:0002dca0       SetCommBreak               1002eca0 f   k.coredll_ALL:serial.obj
 0001:0002dcdc       SetCommMask                1002ecdc f   k.coredll_ALL:serial.obj
 0001:0002dd20       SetCommState               1002ed20 f   k.coredll_ALL:serial.obj
 0001:0002dd5c       SetCommTimeouts            1002ed5c f   k.coredll_ALL:serial.obj
 0001:0002dd98       SetupComm                  1002ed98 f   k.coredll_ALL:serial.obj
 0001:0002dde4       TransmitCommChar           1002ede4 f   k.coredll_ALL:serial.obj
 0001:0002de28       WaitCommEvent              1002ee28 f   k.coredll_ALL:serial.obj
 0001:0002dfd4       ?ResolveImpHintStr@@YAKPAU_USERMODULELIST@@PBUExpHdr@@KPBD@Z 1002efd4 f   k.coredll_ALL:loader.obj
 0001:0002e128       ?FindRWOptrByRva@@YAPBUo32_lite@@PBU1@HK@Z 1002f128 f   k.coredll_ALL:loader.obj
 0001:0002e584       DisableThreadLibraryCalls  1002f584 f   k.coredll_ALL:loader.obj
 0001:0002e5bc       MainThreadBaseFunc         1002f5bc f   k.coredll_ALL:loader.obj
 0001:0002e5c0       ExitThread                 1002f5c0 f   k.coredll_ALL:loader.obj
 0001:0002e628       ThreadExceptionExit        1002f628 f   k.coredll_ALL:loader.obj
 0001:0002e62c       IsProcessDying             1002f62c f   k.coredll_ALL:loader.obj
 0001:0002e63c       IsPrimaryThread            1002f63c f   k.coredll_ALL:loader.obj
 0001:0002e644       LoadLibraryExW             1002f644 f   k.coredll_ALL:loader.obj
 0001:0002e648       int_LoadLibraryExW         1002f648 f   k.coredll_ALL:loader.obj
 0001:0002e6b0       LoadLibraryW               1002f6b0 f   k.coredll_ALL:loader.obj
 0001:0002e6bc       LoadDriver                 1002f6bc f   k.coredll_ALL:loader.obj
 0001:0002e6c8       FreeLibrary                1002f6c8 f   k.coredll_ALL:loader.obj
 0001:0002e6e4       GetCommandLineW            1002f6e4 f   k.coredll_ALL:loader.obj
 0001:0002e6f4       GetProcName                1002f6f4 f   k.coredll_ALL:loader.obj
 0001:0002e704       FreeLibraryAndExitThread   1002f704 f   k.coredll_ALL:loader.obj
 0001:0002e8f0       ThreadBaseFunc             1002f8f0 f   k.coredll_ALL:loader.obj
 0001:0002e910       ?ResolveImpOrd@@YAKPAU_USERMODULELIST@@PBUExpHdr@@K@Z 1002f910 f   k.coredll_ALL:loader.obj
 0001:0002e9e4       GetProcAddressA            1002f9e4 f   k.coredll_ALL:loader.obj
 0001:0002ea34       GetProcAddressW            1002fa34 f   k.coredll_ALL:loader.obj
 0001:0002eab4       GetProcAddressInProcess    1002fab4 f   k.coredll_ALL:loader.obj
 0001:0002eb78       ?LoaderInit@@YAHPAX@Z      1002fb78 f   k.coredll_ALL:loader.obj
 0001:0002ec10       GetTimeFormatEx            1002fc10 f   k.coredll_ALL:format.obj
 0001:0002ec70       GetTimeFormatW             1002fc70 f   k.coredll_ALL:format.obj
 0001:0002ed00       GetDateFormatEx            1002fd00 f   k.coredll_ALL:format.obj
 0001:0002ed70       GetDateFormatW             1002fd70 f   k.coredll_ALL:format.obj
 0001:0002ee08       GetNumberFormatEx          1002fe08 f   k.coredll_ALL:format.obj
 0001:0002ee68       GetNumberFormatW           1002fe68 f   k.coredll_ALL:format.obj
 0001:0002eef8       GetCurrencyFormatEx        1002fef8 f   k.coredll_ALL:format.obj
 0001:0002ef58       GetCurrencyFormatW         1002ff58 f   k.coredll_ALL:format.obj
 0001:0002efe8       GetDurationFormatEx        1002ffe8 f   k.coredll_ALL:format.obj
 0001:0002f070       GetDurationFormat          10030070 f   k.coredll_ALL:format.obj
 0001:0002f118       GetCalendarDateFormatEx    10030118 f   k.coredll_ALL:format.obj
 0001:0002f170       ConvertCalDateTimeToSystemTime 10030170 f   k.coredll_ALL:format.obj
 0001:0002f198       ConvertSystemTimeToCalDateTime 10030198 f   k.coredll_ALL:format.obj
 0001:0002f1c0       UpdateCalendarDayOfWeek    100301c0 f   k.coredll_ALL:format.obj
 0001:0002f1e8       GetCalendarWeekNumber      100301e8 f   k.coredll_ALL:format.obj
 0001:0002f210       GetCalendarMonthsInYear    10030210 f   k.coredll_ALL:format.obj
 0001:0002f238       GetCalendarDaysInMonth     10030238 f   k.coredll_ALL:format.obj
 0001:0002f260       GetFirstDayWeekOfYear      10030260 f   k.coredll_ALL:format.obj
 0001:0002f288       GetCalendarDaysInYear      10030288 f   k.coredll_ALL:format.obj
 0001:0002f2b0       GetCalendarDayOfYear       100302b0 f   k.coredll_ALL:format.obj
 0001:0002f2d8       GetCalendarSupportedDateRange 100302d8 f   k.coredll_ALL:format.obj
 0001:0002f300       FindLCTypeByRegStr         10030300 f   k.coredll_ALL:locale.obj
 0001:0002f350       FindRegStrByLCType         10030350 f   k.coredll_ALL:locale.obj
 0001:0002f390       NLSSetMultipleReg          10030390 f   k.coredll_ALL:locale.obj
 0001:0002f4cc       LocaleNameToLCID           100304cc f   k.coredll_ALL:locale.obj
 0001:0002f4f4       LCIDToLocaleName           100304f4 f   k.coredll_ALL:locale.obj
 0001:0002f51c       GetNlsTables               1003051c f   k.coredll_ALL:locale.obj
 0001:0002f6e4       IsValidSeparatorString     100306e4 f   k.coredll_ALL:locale.obj
 0001:0002f740       IsValidGroupingString      10030740 f   k.coredll_ALL:locale.obj
 0001:0002f7c4       GetACP                     100307c4 f   k.coredll_ALL:locale.obj
 0001:0002f7d8       GetOEMCP                   100307d8 f   k.coredll_ALL:locale.obj
 0001:0002f7e8       SetACP                     100307e8 f   k.coredll_ALL:locale.obj
 0001:0002f7f4       SetOEMCP                   100307f4 f   k.coredll_ALL:locale.obj
 0001:0002f800       SetSystemDefaultLCID       10030800 f   k.coredll_ALL:locale.obj
 0001:0002f808       SetUserDefaultLCID         10030808 f   k.coredll_ALL:locale.obj
 0001:0002f810       NormalLangFromLCid         10030810 f   k.coredll_ALL:locale.obj
 0001:0002f89c       BinarySearchCompDW         1003089c f   k.coredll_ALL:locale.obj
 0001:0002f8f0       BinarySearchCompW          100308f0 f   k.coredll_ALL:locale.obj
 0001:0002f948       BinarySearchRangeW         10030948 f   k.coredll_ALL:locale.obj
 0001:0002f9ac       BinarySearch2Table         100309ac f   k.coredll_ALL:locale.obj
 0001:0002fa08       BinarySearchCaseTable      10030a08 f   k.coredll_ALL:locale.obj
 0001:0002fa7c       SingleSegmentNls_GetCTypeInfo 10030a7c f   k.coredll_ALL:locale.obj
 0001:0002faf8       GetCTypeInfo               10030af8 f   k.coredll_ALL:locale.obj
 0001:0002fb5c       SingleSegmentNls_FindLangId 10030b5c f   k.coredll_ALL:locale.obj
 0001:0002fb98       FindLangId                 10030b98 f   k.coredll_ALL:locale.obj
 0001:0002fbf4       SingleSegmentNls_FindLangIdNoOverride 10030bf4 f   k.coredll_ALL:locale.obj
 0001:0002fc30       FindLangIdNoOverride       10030c30 f   k.coredll_ALL:locale.obj
 0001:0002fc8c       SingleSegmentNls_FindCodeId 10030c8c f   k.coredll_ALL:locale.obj
 0001:0002fcc8       FindCodeId                 10030cc8 f   k.coredll_ALL:locale.obj
 0001:0002fd24       IsValidLocaleName          10030d24 f   k.coredll_ALL:locale.obj
 0001:0002fd54       IsValidLocale              10030d54 f   k.coredll_ALL:locale.obj
 0001:0002fe30       NLSCFixedHexToStr          10030e30 f   k.coredll_ALL:locale.obj
 0001:0002fea4       NLSCStrCpy                 10030ea4 f   k.coredll_ALL:locale.obj
 0001:0002fef8       NLSGetString               10030ef8 f   k.coredll_ALL:locale.obj
 0001:0002ff9c       DBCanonicalize             10030f9c f   k.coredll_ALL:locale.obj
 0001:00030170       GetLocaleInfoEx            10031170 f   k.coredll_ALL:locale.obj
 0001:000301a0       GetLocaleInfoW             100311a0 f   k.coredll_ALL:locale.obj
 0001:0003025c       ReplaceSeparators          1003125c f   k.coredll_ALL:locale.obj
 0001:000304c4       LOCALE_ICALENDARTYPE_CALLBACK 100314c4 f   k.coredll_ALL:locale.obj
 0001:000304dc       ConvertDefaultLocale       100314dc f   k.coredll_ALL:locale.obj
 0001:00030520       GetSystemDefaultLocaleName 10031520 f   k.coredll_ALL:locale.obj
 0001:00030548       GetSystemDefaultLCID       10031548 f   k.coredll_ALL:locale.obj
 0001:00030558       GetSystemDefaultLangID     10031558 f   k.coredll_ALL:locale.obj
 0001:0003056c       GetUserDefaultLocaleName   1003156c f   k.coredll_ALL:locale.obj
 0001:00030594       GetUserDefaultLCID         10031594 f   k.coredll_ALL:locale.obj
 0001:000305a4       GetUserDefaultLangID       100315a4 f   k.coredll_ALL:locale.obj
 0001:000305b8       ResolveLocaleName          100315b8 f   k.coredll_ALL:locale.obj
 0001:000305e0       GetCalendarInfoEx          100315e0 f   k.coredll_ALL:locale.obj
 0001:00030650       GetCalendarInfoW           10031650 f   k.coredll_ALL:locale.obj
 0001:00030708       EnumTimeFormatsEx          10031708 f   k.coredll_ALL:locale.obj
 0001:00030730       EnumTimeFormatsWCallbackWrapper 10031730 f   k.coredll_ALL:locale.obj
 0001:00030744       EnumTimeFormatsW           10031744 f   k.coredll_ALL:locale.obj
 0001:0003080c       EnumDateFormatsExEx        1003180c f   k.coredll_ALL:locale.obj
 0001:00030834       EnumDateFormatsExWCallbackWrapper 10031834 f   k.coredll_ALL:locale.obj
 0001:00030848       EnumDateFormatsExW         10031848 f   k.coredll_ALL:locale.obj
 0001:00030910       EnumDateFormatsWCallbackWrapper 10031910 f   k.coredll_ALL:locale.obj
 0001:00030924       EnumDateFormatsW           10031924 f   k.coredll_ALL:locale.obj
 0001:000309ec       EnumSystemLocalesEx        100319ec f   k.coredll_ALL:locale.obj
 0001:00030a1c       EnumEnumSystemLocalesWCallbackWrapper 10031a1c f   k.coredll_ALL:locale.obj
 0001:00030ab4       EnumSystemLocalesW         10031ab4 f   k.coredll_ALL:locale.obj
 0001:00030b50       EnumCalendarInfoExEx       10031b50 f   k.coredll_ALL:locale.obj
 0001:00030ba8       EnumCalendarInfoProcExWCallbackWrapper 10031ba8 f   k.coredll_ALL:locale.obj
 0001:00030bbc       EnumCalendarInfoExW        10031bbc f   k.coredll_ALL:locale.obj
 0001:00030c78       EnumCalendarInfoProcWCallbackWrapper 10031c78 f   k.coredll_ALL:locale.obj
 0001:00030c8c       EnumCalendarInfoW          10031c8c f   k.coredll_ALL:locale.obj
 0001:00030d50       NlsConvertIntegerToString  10031d50 f   k.coredll_ALL:locale.obj
 0001:00030e9c       SetTwoDigitYearInfo        10031e9c f   k.coredll_ALL:locale.obj
 0001:000310c4       NlsGetStrLenW              100320c4 f   k.coredll_ALL:locale.obj
 0001:0003119c       SetCalendarInfoW           1003219c f   k.coredll_ALL:locale.obj
 0001:000312a8       NormalPageFromPage         100322a8 f   k.coredll_ALL:locale.obj
 0001:00031374       IsValidCalendarTypeString  10032374 f   k.coredll_ALL:locale.obj
 0001:000313e4       SetLocaleInfoW             100323e4 f   k.coredll_ALL:locale.obj
 0001:00031bd0       GetSystemDefaultLCIDInternal 10032bd0 f   k.coredll_ALL:locale.obj
 0001:00031c68       ConvertThreadToFiber       10032c68 f   k.coredll_ALL:fiber.obj
 0001:00031d48       DeleteFiber                10032d48 f   k.coredll_ALL:fiber.obj
 0001:00031e30       GetCurrentFiber            10032e30 f   k.coredll_ALL:fiber.obj
 0001:00031e44       GetFiberData               10032e44 f   k.coredll_ALL:fiber.obj
 0001:00031e64       SwitchToFiber              10032e64 f   k.coredll_ALL:fiber.obj
 0001:00031f5c       CreateFiber                10032f5c f   k.coredll_ALL:fiber.obj
 0001:000320a4       SetRect                    100330a4 f   k.coredll_ALL:rectapi.obj
 0001:000320b8       SetRectEmpty               100330b8 f   k.coredll_ALL:rectapi.obj
 0001:000320f0       CopyRect                   100330f0 f   k.coredll_ALL:rectapi.obj
 0001:0003213c       IsRectEmpty                1003313c f   k.coredll_ALL:rectapi.obj
 0001:00032160       PtInRect                   10033160 f   k.coredll_ALL:rectapi.obj
 0001:000321a8       OffsetRect                 100331a8 f   k.coredll_ALL:rectapi.obj
 0001:000321e4       InflateRect                100331e4 f   k.coredll_ALL:rectapi.obj
 0001:0003221c       IntersectRect              1003321c f   k.coredll_ALL:rectapi.obj
 0001:000322c0       UnionRect                  100332c0 f   k.coredll_ALL:rectapi.obj
 0001:000323e8       EqualRect                  100333e8 f   k.coredll_ALL:rectapi.obj
 0001:00032430       SubtractRect               10033430 f   k.coredll_ALL:rectapi.obj
 0001:0003254c       LoadAcceleratorsW          1003354c f   k.coredll_ALL:accel_c.obj
 0001:00032588       CreateAcceleratorTableW    10033588 f   k.coredll_ALL:accel_c.obj
 0001:00032650       DestroyAcceleratorTable    10033650 f   k.coredll_ALL:accel_c.obj
 0001:000326a8       CreateDIBSection           100336a8 f   k.coredll_ALL:gdi_c.obj
 0001:000327d4       xxx_EqualRgn               100337d4 f   k.coredll_ALL:gdi_c.obj
 0001:000328a4       MessageBoxW_I              100338a4 f   k.coredll_ALL:messagedialogboxthunk.obj
 0001:000328d8       DialogBoxIndirectParamW    100338d8 f   k.coredll_ALL:messagedialogboxthunk.obj
 0001:00032934       CreateDialogIndirectParamW 10033934 f   k.coredll_ALL:messagedialogboxthunk.obj
 0001:00032980       ?Reserve@AppendStream@ce@@QAAKIQAI@Z 10033980 f i k.coredll_ALL:tlassd.obj
 0001:000329c8       ?size@NullAppendStream@ce@@UBAIXZ 100339c8 f i k.coredll_ALL:tlassd.obj
 0001:000329d0       ?WaitForCompletionAndPumpMessages@@YAKQAXKKK@Z 100339d0 f i k.coredll_ALL:tlassd.obj
 0001:00032aac       ?LoadDriver@@YA_NXZ        10033aac f   k.coredll_ALL:tlassd.obj
 0001:00032b20       ?pc_call@?$ioctl_proxy@PAX@ce@@MAAKPAXK@Z 10033b20 f i k.coredll_ALL:tlassd.obj
 0001:00032bd8       ?isRoomFor@NullAppendStream@ce@@EBA_NK@Z 10033bd8 f i k.coredll_ALL:tlassd.obj
 0001:00032be0       ?writeToOffset@NullAppendStream@ce@@EAAXKQBXK@Z 10033be0 f i k.coredll_ALL:tlassd.obj
 0001:00032be4       ?verify_ptr@NullAppendStream@ce@@EAAPAXII@Z 10033be4 f i k.coredll_ALL:tlassd.obj
 0001:00032bec       ?_Grow@?$_string_t@G$0BA@U?$char_traits@G@ce@@Vallocator@2@@ce@@IAA_NI@Z 10033bec f i k.coredll_ALL:tlassd.obj
 0001:00032c7c       ?unmarshal@?$pc_marshaler_for_psl_buffer_wrapper@XX@ce@@QBA?AV?$psl_buffer_wrapper@PAX@2@AAVStream@2@@Z 10033c7c f i k.coredll_ALL:tlassd.obj
 0001:00032d00       ?write_back@?$pc_marshaler_for_psl_buffer_wrapper@XX@ce@@QAAKABV?$psl_buffer_wrapper@PAX@2@@Z 10033d00 f i k.coredll_ALL:tlassd.obj
 0001:00032d40       ?assign@?$_string_t@G$0BA@U?$char_traits@G@ce@@Vallocator@2@@ce@@QAA_NPBGII@Z 10033d40 f i k.coredll_ALL:tlassd.obj
 0001:00032da8       ??$Append@X@AppendStream@ce@@QAAKQAXIQAPAX@Z 10033da8 f i k.coredll_ALL:tlassd.obj
 0001:00032e00       ??$Append@$$CBU_GUID@@@AppendStream@ce@@QAAKQBU_GUID@@IQAPBU2@@Z 10033e00 f i k.coredll_ALL:tlassd.obj
 0001:00032e70       ??$Append@K@AppendStream@ce@@QAAKQAKIQAPAK@Z 10033e70 f i k.coredll_ALL:tlassd.obj
 0001:00032ee0       ??$marshal_w_alignment_of@X@?$pc_marshaler_for_psl_buffer_wrapper@XX@ce@@QAAKAAVAppendStream@1@ABV01@@Z 10033ee0 f i k.coredll_ALL:tlassd.obj
 0001:00032f2c       ??$Append@$$CBG@AppendStream@ce@@QAAKQBGIQAPBG@Z 10033f2c f i k.coredll_ALL:tlassd.obj
 0001:00032f9c       ?size@MemoryAppendStream@ce@@UBAIXZ 10033f9c f i k.coredll_ALL:tlassd.obj
 0001:00032fa4       ?isRoomFor@MemoryAppendStream@ce@@EBA_NK@Z 10033fa4 f i k.coredll_ALL:tlassd.obj
 0001:00032fc0       ?verify_ptr@MemoryAppendStream@ce@@UAAPAXII@Z 10033fc0 f i k.coredll_ALL:tlassd.obj
 0001:00032fcc       ?writeToOffset@MemoryAppendStream@ce@@EAAXKQBXK@Z 10033fcc f i k.coredll_ALL:tlassd.obj
 0001:00032ff0       ?write_back@?$pc_message1@PAXPBU_GUID@@@detail@ce@@QAAKAAVStream@3@ABV123@@Z 10033ff0 f i k.coredll_ALL:tlassd.obj
 0001:00033044       ??0?$_string_t@G$0BA@U?$char_traits@G@ce@@Vallocator@2@@ce@@QAA@PBG@Z 10034044 f i k.coredll_ALL:tlassd.obj
 0001:000330bc       ?cbStream@?$pc_marshaler_string@$$CBG@ce@@ABAKXZ 100340bc f i k.coredll_ALL:tlassd.obj
 0001:00033124       ?write_back@?$pc_message2@PAXKV?$out_argument@V?$psl_buffer_wrapper@PAX@ce@@@detail@ce@@@detail@ce@@QAAKAAVStream@3@ABV123@@Z 10034124 f i k.coredll_ALL:tlassd.obj
 0001:00033180       ?marshal@?$pc_marshaler_string@$$CBG@ce@@QAAKAAVAppendStream@2@ABV?$pc_marshaler@PBG@2@@Z 10034180 f i k.coredll_ALL:tlassd.obj
 0001:000331d0       ?unmarshal@?$pc_marshaler_string@$$CBG@ce@@QBAPBGAAVStream@2@@Z 100341d0 f i k.coredll_ALL:tlassd.obj
 0001:00033290       ??$getCbForStream@V?$pc_message0@PAX@detail@ce@@@?$pc_proxy@PAX@ce@@IAAKABV?$pc_message0@PAX@detail@1@AAK@Z 10034290 f i k.coredll_ALL:tlassd.obj
 0001:00033324       ?marshal@?$pc_message1@PAXPBU_GUID@@@detail@ce@@QAAKAAVAppendStream@3@ABV123@@Z 10034324 f i k.coredll_ALL:tlassd.obj
 0001:00033384       ?write_back@?$pc_message3@PAXKV?$out_argument@V?$psl_buffer_wrapper@PAX@ce@@@detail@ce@@V?$in_out_argument@PAK@23@@detail@ce@@QAAKAAVStream@3@ABV123@@Z 10034384 f i k.coredll_ALL:tlassd.obj
 0001:000333d8       ?marshal@?$pc_message1@PAXPAUPSL_HANDLE__@ce@@@detail@ce@@QAAKAAVAppendStream@3@ABV123@@Z 100343d8 f i k.coredll_ALL:tlassd.obj
 0001:00033420       ?marshal@?$pc_message1@PAXPAUHWND__@@@detail@ce@@QAAKAAVAppendStream@3@ABV123@@Z 10034420 f i k.coredll_ALL:tlassd.obj
 0001:00033468       ?marshal@?$pc_message1@PAXK@detail@ce@@QAAKAAVAppendStream@3@ABV123@@Z 10034468 f i k.coredll_ALL:tlassd.obj
 0001:000334b8       ??$getCbForStream@V?$pc_message1@PAXPAUPSL_HANDLE__@ce@@@detail@ce@@@?$pc_proxy@PAX@ce@@IAAKABV?$pc_message1@PAXPAUPSL_HANDLE__@ce@@@detail@1@AAK@Z 100344b8 f i k.coredll_ALL:tlassd.obj
 0001:00033558       ??$getCbForStream@V?$pc_message1@PAXPAUHWND__@@@detail@ce@@@?$pc_proxy@PAX@ce@@IAAKABV?$pc_message1@PAXPAUHWND__@@@detail@1@AAK@Z 10034558 f i k.coredll_ALL:tlassd.obj
 0001:000335f0       ?Create@MemoryAppendStream@ce@@SAPAV12@I@Z 100345f0 f i k.coredll_ALL:tlassd.obj
 0001:0003366c       ??$prepare_message_and_pc_call@V?$pc_message0@PAX@detail@ce@@@?$pc_proxy@PAX@ce@@IAAKAAV?$pc_message0@PAX@detail@1@@Z 1003466c f i k.coredll_ALL:tlassd.obj
 0001:00033758       ??$prepare_message_and_pc_call@V?$pc_message1@PAXPAUPSL_HANDLE__@ce@@@detail@ce@@@?$pc_proxy@PAX@ce@@IAAKAAV?$pc_message1@PAXPAUPSL_HANDLE__@ce@@@detail@1@@Z 10034758 f i k.coredll_ALL:tlassd.obj
 0001:00033830       ??$prepare_message_and_pc_call@V?$pc_message1@PAXPAUHWND__@@@detail@ce@@@?$pc_proxy@PAX@ce@@IAAKAAV?$pc_message1@PAXPAUHWND__@@@detail@1@@Z 10034830 f i k.coredll_ALL:tlassd.obj
 0001:00033908       ?marshal@?$pc_message3@PAXKV?$out_argument@V?$psl_buffer_wrapper@PAX@ce@@@detail@ce@@V?$in_out_argument@PAK@23@@detail@ce@@QAAKAAVAppendStream@3@ABV123@@Z 10034908 f i k.coredll_ALL:tlassd.obj
 0001:00033968       ?marshal@?$pc_message3@PAXPBU_GUID@@PBGPAUHWND__@@@detail@ce@@QAAKAAVAppendStream@3@ABV123@@Z 10034968 f i k.coredll_ALL:tlassd.obj
 0001:000339b4       ??$getCbForStream@V?$pc_message3@PAXKV?$out_argument@V?$psl_buffer_wrapper@PAX@ce@@@detail@ce@@V?$in_out_argument@PAK@23@@detail@ce@@@?$pc_proxy@PAX@ce@@IAAKABV?$pc_message3@PAXKV?$out_argument@V?$psl_buffer_wrapper@PAX@ce@@@detail@ce@@V?$in_out_argument@PAK@23@@detail@1@AAK@Z 100349b4 f i k.coredll_ALL:tlassd.obj
 0001:00033a4c       ??$prepare_message_and_pc_call@V?$pc_message3@PAXKV?$out_argument@V?$psl_buffer_wrapper@PAX@ce@@@detail@ce@@V?$in_out_argument@PAK@23@@detail@ce@@@?$pc_proxy@PAX@ce@@IAAKAAV?$pc_message3@PAXKV?$out_argument@V?$psl_buffer_wrapper@PAX@ce@@@detail@ce@@V?$in_out_argument@PAK@23@@detail@1@@Z 10034a4c f i k.coredll_ALL:tlassd.obj
 0001:00033b18       ?LASSGetResult@lassd_srv_proxy@@QAAHPAX@Z 10034b18 f i k.coredll_ALL:tlassd.obj
 0001:00033b60       ?LASSClose@lassd_srv_proxy@@QAAHPAX@Z 10034b60 f i k.coredll_ALL:tlassd.obj
 0001:00033bb8       ?LASSReloadConfig@lassd_srv_proxy@@QAAHXZ 10034bb8 f i k.coredll_ALL:tlassd.obj
 0001:00033bf8       ?LASSEnroll@lassd_srv_proxy@@QAAHPAUHWND__@@@Z 10034bf8 f i k.coredll_ALL:tlassd.obj
 0001:00033c40       LASSClose                  10034c40 f   k.coredll_ALL:tlassd.obj
 0001:00033cd0       LASSGetResult              10034cd0 f   k.coredll_ALL:tlassd.obj
 0001:00033d60       LASSReloadConfig           10034d60 f   k.coredll_ALL:tlassd.obj
 0001:00033de8       CreateEnrollmentConfigDialog 10034de8 f   k.coredll_ALL:tlassd.obj
 0001:00033e78       ??$call@KV?$out_argument@V?$psl_buffer_wrapper@PAX@ce@@@detail@ce@@V?$in_out_argument@PAK@23@@?$pc_proxy@PAX@ce@@QAAKGKV?$out_argument@V?$psl_buffer_wrapper@PAX@ce@@@detail@1@V?$in_out_argument@PAK@31@@Z 10034e78 f i k.coredll_ALL:tlassd.obj
 0001:00033ec4       ?LASSGetValue@lassd_srv_proxy@@QAAHKPAXKPAK@Z 10034ec4 f i k.coredll_ALL:tlassd.obj
 0001:00033f20       LASSGetValue               10034f20 f   k.coredll_ALL:tlassd.obj
 0001:00033fc8       ?marshal@?$pc_message6@PAXPBU_GUID@@PBGPAUHWND__@@KKPAUPSL_HANDLE__@ce@@@detail@ce@@QAAKAAVAppendStream@3@ABV123@@Z 10034fc8 f i k.coredll_ALL:tlassd.obj
 0001:00034014       ??$getCbForStream@V?$pc_message6@PAXPBU_GUID@@PBGPAUHWND__@@KKPAUPSL_HANDLE__@ce@@@detail@ce@@@?$pc_proxy@PAX@ce@@IAAKABV?$pc_message6@PAXPBU_GUID@@PBGPAUHWND__@@KKPAUPSL_HANDLE__@ce@@@detail@1@AAK@Z 10035014 f i k.coredll_ALL:tlassd.obj
 0001:000340ac       ??$prepare_message_and_pc_call@V?$pc_message6@PAXPBU_GUID@@PBGPAUHWND__@@KKPAUPSL_HANDLE__@ce@@@detail@ce@@@?$pc_proxy@PAX@ce@@IAAKAAV?$pc_message6@PAXPBU_GUID@@PBGPAUHWND__@@KKPAUPSL_HANDLE__@ce@@@detail@1@@Z 100350ac f i k.coredll_ALL:tlassd.obj
 0001:00034188       ?LASSVerifyUserAsync@lassd_srv_proxy@@QAAPAXPBU_GUID@@PBGPAUHWND__@@KPAX@Z 10035188 f i k.coredll_ALL:tlassd.obj
 0001:0003421c       VerifyUserAsync            1003521c f   k.coredll_ALL:tlassd.obj
 0001:000342cc       VerifyUser                 100352cc f   k.coredll_ALL:tlassd.obj
 0001:00034334       xxx_OpenStore              10035334 f   k.coredll_ALL:tstoreapi.obj
 0001:00034404       xxx_DismountStore          10035404 f   k.coredll_ALL:tstoreapi.obj
 0001:00034430       xxx_FormatStore            10035430 f   k.coredll_ALL:tstoreapi.obj
 0001:0003445c       xxx_FindFirstStore         1003545c f   k.coredll_ALL:tstoreapi.obj
 0001:00034488       xxx_FindNextStore          10035488 f   k.coredll_ALL:tstoreapi.obj
 0001:000344c4       xxx_FindCloseStore         100354c4 f   k.coredll_ALL:tstoreapi.obj
 0001:000344c8       xxx_GetStoreInfo           100354c8 f   k.coredll_ALL:tstoreapi.obj
 0001:000344fc       xxx_CreatePartition        100354fc f   k.coredll_ALL:tstoreapi.obj
 0001:00034550       xxx_CreatePartitionEx      10035550 f   k.coredll_ALL:tstoreapi.obj
 0001:000345ac       xxx_DeletePartition        100355ac f   k.coredll_ALL:tstoreapi.obj
 0001:000345e0       xxx_OpenPartition          100355e0 f   k.coredll_ALL:tstoreapi.obj
 0001:0003461c       xxx_MountPartition         1003561c f   k.coredll_ALL:tstoreapi.obj
 0001:00034648       xxx_DismountPartition      10035648 f   k.coredll_ALL:tstoreapi.obj
 0001:00034674       xxx_RenamePartition        10035674 f   k.coredll_ALL:tstoreapi.obj
 0001:000346a8       xxx_SetPartitionAttributes 100356a8 f   k.coredll_ALL:tstoreapi.obj
 0001:000346dc       xxx_GetPartitionInfo       100356dc f   k.coredll_ALL:tstoreapi.obj
 0001:00034710       xxx_FormatPartition        10035710 f   k.coredll_ALL:tstoreapi.obj
 0001:0003474c       xxx_FormatPartitionEx      1003574c f   k.coredll_ALL:tstoreapi.obj
 0001:00034788       xxx_FindFirstPartition     10035788 f   k.coredll_ALL:tstoreapi.obj
 0001:000347c4       xxx_FindNextPartition      100357c4 f   k.coredll_ALL:tstoreapi.obj
 0001:00034800       xxx_FindClosePartition     10035800 f   k.coredll_ALL:tstoreapi.obj
 0001:00034804       ?UnMarshallCred@@YAKPAU_CRED@@K@Z 10035804 f i k.coredll_ALL:tcredapi.obj
 0001:000348a0       ?GetCredSvcHandle@@YAHXZ   100358a0 f   k.coredll_ALL:tcredapi.obj
 0001:00034928       CredFree                   10035928 f   k.coredll_ALL:tcredapi.obj
 0001:00034938       ?unmarshal@?$pc_marshaler_for_psl_buffer_wrapper@EU_CRED@@@ce@@QBA?AV?$psl_buffer_wrapper@PAE@2@AAVStream@2@@Z 10035938 f i k.coredll_ALL:tcredapi.obj
 0001:000349bc       ?unmarshal@?$pc_marshaler_for_psl_buffer_wrapper@EE@ce@@QBA?AV?$psl_buffer_wrapper@PAE@2@AAVStream@2@@Z 100359bc f i k.coredll_ALL:tcredapi.obj
 0001:00034a40       ?write_back@?$pc_marshaler_for_psl_buffer_wrapper@EU_CRED@@@ce@@QAAKABV?$psl_buffer_wrapper@PAE@2@@Z 10035a40 f i k.coredll_ALL:tcredapi.obj
 0001:00034a80       ??0?$pc_marshaler@PAU_CRED@@@ce@@QAA@PAU_CRED@@@Z 10035a80 f i k.coredll_ALL:tcredapi.obj
 0001:00034ad8       ?write_back@?$pc_marshaler@VCRED_OUT@@@ce@@QAAKABV?$psl_buffer_wrapper@PAE@2@@Z 10035ad8 f i k.coredll_ALL:tcredapi.obj
 0001:00034b60       ??$Append@U_CRED@@@AppendStream@ce@@QAAKQAU_CRED@@IQAPAU2@@Z 10035b60 f i k.coredll_ALL:tcredapi.obj
 0001:00034bd0       ??$Append@E@AppendStream@ce@@QAAKQAEIQAPAE@Z 10035bd0 f i k.coredll_ALL:tcredapi.obj
 0001:00034c28       ??$marshal_w_alignment_of@U_CRED@@@?$pc_marshaler_for_psl_buffer_wrapper@EU_CRED@@@ce@@QAAKAAVAppendStream@1@ABV01@@Z 10035c28 f i k.coredll_ALL:tcredapi.obj
 0001:00034c74       ??$marshal_w_alignment_of@E@?$pc_marshaler_for_psl_buffer_wrapper@EE@ce@@QAAKAAVAppendStream@1@ABV01@@Z 10035c74 f i k.coredll_ALL:tcredapi.obj
 0001:00034cc0       ?unmarshal@?$pc_marshaler@PAU_CRED@@@ce@@QBAPAU_CRED@@AAVStream@2@@Z 10035cc0 f i k.coredll_ALL:tcredapi.obj
 0001:00034d4c       ?marshal@?$pc_marshaler@PAU_CRED@@@ce@@QAAKAAVAppendStream@2@ABV12@@Z 10035d4c f i k.coredll_ALL:tcredapi.obj
 0001:00034dc8       ?marshal@?$pc_message1@PAXPBG@detail@ce@@QAAKAAVAppendStream@3@ABV123@@Z 10035dc8 f i k.coredll_ALL:tcredapi.obj
 0001:00034e1c       ?write_back@?$pc_message1@PAXPBG@detail@ce@@QAAKAAVStream@3@ABV123@@Z 10035e1c f i k.coredll_ALL:tcredapi.obj
 0001:00034e60       ?marshal@?$pc_message1@PAXPAU_CRED@@@detail@ce@@QAAKAAVAppendStream@3@ABV123@@Z 10035e60 f i k.coredll_ALL:tcredapi.obj
 0001:00034eb4       ?write_back@?$pc_message1@PAXPAU_CRED@@@detail@ce@@QAAKAAVStream@3@ABV123@@Z 10035eb4 f i k.coredll_ALL:tcredapi.obj
 0001:00034f00       ??$getCbForStream@V?$pc_message2@PAXPAU_CRED@@K@detail@ce@@@?$pc_proxy@PAX@ce@@IAAKABV?$pc_message2@PAXPAU_CRED@@K@detail@1@AAK@Z 10035f00 f i k.coredll_ALL:tcredapi.obj
 0001:00034f98       ??$prepare_message_and_pc_call@V?$pc_message2@PAXPAU_CRED@@K@detail@ce@@@?$pc_proxy@PAX@ce@@IAAKAAV?$pc_message2@PAXPAU_CRED@@K@detail@1@@Z 10035f98 f i k.coredll_ALL:tcredapi.obj
 0001:00035074       ?marshal@?$pc_message4@PAXPBGKKK@detail@ce@@QAAKAAVAppendStream@3@ABV123@@Z 10036074 f i k.coredll_ALL:tcredapi.obj
 0001:000350b8       ?write_back@?$pc_message5@PAXPBGKKKV?$out_argument@VCRED_OUT@@@detail@ce@@@detail@ce@@QAAKAAVStream@3@ABV123@@Z 100360b8 f i k.coredll_ALL:tcredapi.obj
 0001:0003511c       ??$getCbForStream@V?$pc_message4@PAXPBGKKK@detail@ce@@@?$pc_proxy@PAX@ce@@IAAKABV?$pc_message4@PAXPBGKKK@detail@1@AAK@Z 1003611c f i k.coredll_ALL:tcredapi.obj
 0001:000351b4       ??$prepare_message_and_pc_call@V?$pc_message4@PAXPBGKKK@detail@ce@@@?$pc_proxy@PAX@ce@@IAAKAAV?$pc_message4@PAXPBGKKK@detail@1@@Z 100361b4 f i k.coredll_ALL:tcredapi.obj
 0001:00035280       ?marshal@?$pc_message6@PAXPBGKKKV?$out_argument@VCRED_OUT@@@detail@ce@@V?$out_argument@PAK@23@@detail@ce@@QAAKAAVAppendStream@3@ABV123@@Z 10036280 f i k.coredll_ALL:tcredapi.obj
 0001:000352e0       ?write_back@?$pc_message6@PAXPBGKKKV?$out_argument@VCRED_OUT@@@detail@ce@@V?$out_argument@PAK@23@@detail@ce@@QAAKAAVStream@3@ABV123@@Z 100362e0 f i k.coredll_ALL:tcredapi.obj
 0001:0003533c       ??$getCbForStream@V?$pc_message6@PAXPBGKKKV?$out_argument@VCRED_OUT@@@detail@ce@@V?$out_argument@PAK@23@@detail@ce@@@?$pc_proxy@PAX@ce@@IAAKABV?$pc_message6@PAXPBGKKKV?$out_argument@VCRED_OUT@@@detail@ce@@V?$out_argument@PAK@23@@detail@1@AAK@Z 1003633c f i k.coredll_ALL:tcredapi.obj
 0001:000353d4       CredWrite                  100363d4 f   k.coredll_ALL:tcredapi.obj
 0001:00035488       ??$prepare_message_and_pc_call@V?$pc_message6@PAXPBGKKKV?$out_argument@VCRED_OUT@@@detail@ce@@V?$out_argument@PAK@23@@detail@ce@@@?$pc_proxy@PAX@ce@@IAAKAAV?$pc_message6@PAXPBGKKKV?$out_argument@VCRED_OUT@@@detail@ce@@V?$out_argument@PAK@23@@detail@1@@Z 10036488 f i k.coredll_ALL:tcredapi.obj
 0001:00035554       CredDelete                 10036554 f   k.coredll_ALL:tcredapi.obj
 0001:00035604       ??$call@PBGKKKV?$out_argument@VCRED_OUT@@@detail@ce@@V?$out_argument@PAK@23@@?$pc_proxy@PAX@ce@@QAAKGPBGKKKV?$out_argument@VCRED_OUT@@@detail@1@V?$out_argument@PAK@31@@Z 10036604 f i k.coredll_ALL:tcredapi.obj
 0001:00035664       CredRead                   10036664 f   k.coredll_ALL:tcredapi.obj
 0001:000357f4       StrToLW                    100367f4 f   k.coredll_ALL:cryptapi.obj
 0001:00035830       CryptContextAddRef         10036830 f   k.coredll_ALL:cryptapi.obj
 0001:000358e0       CryptReleaseContext        100368e0 f   k.coredll_ALL:cryptapi.obj
 0001:00035a10       CryptSetProvParam          10036a10 f   k.coredll_ALL:cryptapi.obj
 0001:00035b5c       CryptEnumProviderTypesW    10036b5c f   k.coredll_ALL:cryptapi.obj
 0001:00035e04       CryptEnumProvidersW        10036e04 f   k.coredll_ALL:cryptapi.obj
 0001:00036140       EnterProviderCritSec       10037140 f   k.coredll_ALL:cryptapi.obj
 0001:000361c0       EnterKeyCritSec            100371c0 f   k.coredll_ALL:cryptapi.obj
 0001:00036240       EnterHashCritSec           10037240 f   k.coredll_ALL:cryptapi.obj
 0001:000362b8       BuildVKey                  100372b8 f   k.coredll_ALL:cryptapi.obj
 0001:0003634c       BuildVHash                 1003734c f   k.coredll_ALL:cryptapi.obj
 0001:000363d4       CProvVerifyImage           100373d4 f   k.coredll_ALL:cryptapi.obj
 0001:000363e8       CPReturnhWnd               100373e8 f   k.coredll_ALL:cryptapi.obj
 0001:000364a4       IsEncryptionPermitted      100374a4 f   k.coredll_ALL:cryptapi.obj
 0001:000364ac       VerifyCSPSignature         100374ac f   k.coredll_ALL:cryptapi.obj
 0001:000364f0       CryptAcquireContextW       100374f0 f   k.coredll_ALL:cryptapi.obj
 0001:00036c50       CryptGenKey                10037c50 f   k.coredll_ALL:cryptapi.obj
 0001:00036da8       CryptDuplicateKey          10037da8 f   k.coredll_ALL:cryptapi.obj
 0001:00036f64       CryptDeriveKey             10037f64 f   k.coredll_ALL:cryptapi.obj
 0001:000371e8       CryptDestroyKey            100381e8 f   k.coredll_ALL:cryptapi.obj
 0001:00037348       CryptSetKeyParam           10038348 f   k.coredll_ALL:cryptapi.obj
 0001:00037494       CryptGetKeyParam           10038494 f   k.coredll_ALL:cryptapi.obj
 0001:000375e4       CryptGenRandom             100385e4 f   k.coredll_ALL:cryptapi.obj
 0001:000376cc       CryptGetUserKey            100386cc f   k.coredll_ALL:cryptapi.obj
 0001:0003781c       CryptExportKey             1003881c f   k.coredll_ALL:cryptapi.obj
 0001:00037a00       CryptImportKey             10038a00 f   k.coredll_ALL:cryptapi.obj
 0001:00037ca8       CryptEncrypt               10038ca8 f   k.coredll_ALL:cryptapi.obj
 0001:00037e94       CryptDecrypt               10038e94 f   k.coredll_ALL:cryptapi.obj
 0001:00038078       CryptCreateHash            10039078 f   k.coredll_ALL:cryptapi.obj
 0001:00038274       CryptDuplicateHash         10039274 f   k.coredll_ALL:cryptapi.obj
 0001:00038438       CryptHashData              10039438 f   k.coredll_ALL:cryptapi.obj
 0001:00038590       CryptHashSessionKey        10039590 f   k.coredll_ALL:cryptapi.obj
 0001:00038740       CryptDestroyHash           10039740 f   k.coredll_ALL:cryptapi.obj
 0001:00038878       LocalSignHashW             10039878 f   k.coredll_ALL:cryptapi.obj
 0001:000389cc       CryptSignHashW             100399cc f   k.coredll_ALL:cryptapi.obj
 0001:000389f8       LocalVerifySignatureW      100399f8 f   k.coredll_ALL:cryptapi.obj
 0001:00038bb0       CryptVerifySignatureW      10039bb0 f   k.coredll_ALL:cryptapi.obj
 0001:00038bdc       CryptGetProvParam          10039bdc f   k.coredll_ALL:cryptapi.obj
 0001:00038cdc       CryptSetHashParam          10039cdc f   k.coredll_ALL:cryptapi.obj
 0001:00038e28       CryptGetHashParam          10039e28 f   k.coredll_ALL:cryptapi.obj
 0001:00038f78       CryptGetDefaultProviderW   10039f78 f   k.coredll_ALL:cryptapi.obj
 0001:00039218       CryptSetProviderW          1003a218 f   k.coredll_ALL:cryptapi.obj
 0001:00039388       CryptSetProviderExW        1003a388 f   k.coredll_ALL:cryptapi.obj
 0001:00039814       DDKReg_GetIsrInfo          1003a814 f   k.coredll_ALL:isrcfg.obj
 0001:00039998       DDKReg_GetPciInfo          1003a998 f   k.coredll_ALL:pcicfg.obj
 0001:00039e78       DDKReg_GetWindowInfo       1003ae78 f   k.coredll_ALL:memcfg.obj
 0001:00039fec       DSA_Create                 1003afec f   k.coredll_ALL:dynarray.obj
 0001:0003a030       DSA_Destroy                1003b030 f   k.coredll_ALL:dynarray.obj
 0001:0003a084       DSA_GetItem                1003b084 f   k.coredll_ALL:dynarray.obj
 0001:0003a0d0       DSA_GetItemPtr             1003b0d0 f   k.coredll_ALL:dynarray.obj
 0001:0003a100       DSA_DeleteItem             1003b100 f   k.coredll_ALL:dynarray.obj
 0001:0003a1fc       DSA_Search                 1003b1fc f   k.coredll_ALL:dynarray.obj
 0001:0003a35c       DSA_Grow                   1003b35c f   k.coredll_ALL:dynarray.obj
 0001:0003a420       DSA_Clone                  1003b420 f   k.coredll_ALL:dynarray.obj
 0001:0003a4a8       DSA_DeleteAllItems         1003b4a8 f   k.coredll_ALL:dynarray.obj
 0001:0003a4f0       ?SwapItems@@YAXPAUSORTPARAMS2@@HH@Z 1003b4f0 f i k.coredll_ALL:dynarray.obj
 0001:0003a54c       ?HeapSortPushDown@@YAXPAUSORTPARAMS2@@HH@Z 1003b54c f   k.coredll_ALL:dynarray.obj
 0001:0003a668       DPA_CreateEx               1003b668 f   k.coredll_ALL:dynarray.obj
 0001:0003a6c8       DPA_Destroy                1003b6c8 f   k.coredll_ALL:dynarray.obj
 0001:0003a720       DPA_GetPtr                 1003b720 f   k.coredll_ALL:dynarray.obj
 0001:0003a748       DPA_GetPtrIndex            1003b748 f   k.coredll_ALL:dynarray.obj
 0001:0003a7a0       DPA_Grow                   1003b7a0 f   k.coredll_ALL:dynarray.obj
 0001:0003a858       DPA_SetPtr                 1003b858 f   k.coredll_ALL:dynarray.obj
 0001:0003a8b4       DPA_InsertPtr              1003b8b4 f   k.coredll_ALL:dynarray.obj
 0001:0003a96c       DPA_DeletePtr              1003b96c f   k.coredll_ALL:dynarray.obj
 0001:0003aa60       DPA_DeleteAllPtrs          1003ba60 f   k.coredll_ALL:dynarray.obj
 0001:0003aab0       DPA_EnumCallback           1003bab0 f   k.coredll_ALL:dynarray.obj
 0001:0003ab08       DPA_DestroyCallback        1003bb08 f   k.coredll_ALL:dynarray.obj
 0001:0003ab20       ?DPA_MergeThem@@YAXPAUSORTPARAMS@@HH@Z 1003bb20 f   k.coredll_ALL:dynarray.obj
 0001:0003abe8       ?DPA_MergeSort2@@YAXPAUSORTPARAMS@@HH@Z 1003bbe8 f   k.coredll_ALL:dynarray.obj
 0001:0003ac90       ?DPA_MergeSort@@YAHPAUSORTPARAMS@@@Z 1003bc90 f   k.coredll_ALL:dynarray.obj
 0001:0003acec       DPA_Search                 1003bcec f   k.coredll_ALL:dynarray.obj
 0001:0003adfc       DSA_EnumCallback           1003bdfc f   k.coredll_ALL:dynarray.obj
 0001:0003ae68       DSA_DestroyCallback        1003be68 f   k.coredll_ALL:dynarray.obj
 0001:0003ae80       DSA_SetItem                1003be80 f   k.coredll_ALL:dynarray.obj
 0001:0003aef4       DSA_SetRange               1003bef4 f   k.coredll_ALL:dynarray.obj
 0001:0003af8c       DSA_InsertItem             1003bf8c f   k.coredll_ALL:dynarray.obj
 0001:0003b02c       ?HeapSort@@YAHPAUSORTPARAMS2@@@Z 1003c02c f   k.coredll_ALL:dynarray.obj
 0001:0003b0c8       DPA_Create                 1003c0c8 f   k.coredll_ALL:dynarray.obj
 0001:0003b0d0       DPA_Clone                  1003c0d0 f   k.coredll_ALL:dynarray.obj
 0001:0003b154       DPA_Sort                   1003c154 f   k.coredll_ALL:dynarray.obj
 0001:0003b190       DSA_Sort                   1003c190 f   k.coredll_ALL:dynarray.obj
 0001:0003b1dc       xxx_GetSystemPowerState    1003c1dc f   k.coredll_ALL:tpm.obj
 0001:0003b224       xxx_SetSystemPowerState    1003c224 f   k.coredll_ALL:tpm.obj
 0001:0003b2dc       xxx_SetPowerRequirement    1003c2dc f   k.coredll_ALL:tpm.obj
 0001:0003b350       xxx_ReleasePowerRequirement 1003c350 f   k.coredll_ALL:tpm.obj
 0001:0003b388       xxx_RequestPowerNotifications 1003c388 f   k.coredll_ALL:tpm.obj
 0001:0003b3d8       xxx_StopPowerNotifications 1003c3d8 f   k.coredll_ALL:tpm.obj
 0001:0003b410       xxx_DevicePowerNotify      1003c410 f   k.coredll_ALL:tpm.obj
 0001:0003b458       xxx_RegisterPowerRelationship 1003c458 f   k.coredll_ALL:tpm.obj
 0001:0003b4a8       xxx_ReleasePowerRelationship 1003c4a8 f   k.coredll_ALL:tpm.obj
 0001:0003b4e0       xxx_SetDevicePower         1003c4e0 f   k.coredll_ALL:tpm.obj
 0001:0003b528       xxx_GetDevicePower         1003c528 f   k.coredll_ALL:tpm.obj
 0001:0003b570       PowerPolicyNotify          1003c570 f   k.coredll_ALL:tpm.obj
 0001:0003b678       UpdateSelectionState       1003c678 f   k.coredll_ALL:ccpselect.obj
 0001:0003b6c0       EndSelection               1003c6c0 f   k.coredll_ALL:ccpselect.obj
 0001:0003b710       EnumActive                 1003c710 f   k.coredll_ALL:devices.obj
 0001:0003b940       EnumDevices                1003c940 f   k.coredll_ALL:devices.obj
 0001:0003b94c       EnumPnpIds                 1003c94c f   k.coredll_ALL:devices.obj
 0001:0003b960       GetDeviceKeys              1003c960 f   k.coredll_ALL:devices.obj
 0001:0003bbd8       GetSystemDefaultUILanguage 1003cbd8 f   k.coredll_ALL:mui.obj
 0001:0003bc40       GetUserDefaultUILanguage   1003cc40 f   k.coredll_ALL:mui.obj
 0001:0003bcac       SetUserDefaultUILanguage   1003ccac f   k.coredll_ALL:mui.obj
 0001:0003bd58       EnumUILanguagesW           1003cd58 f   k.coredll_ALL:mui.obj
 0001:0003c188       FindResourceW              1003d188 f   k.coredll_ALL:resource.obj
 0001:0003c254       FindResourceForDisplayConfiguration 1003d254 f   k.coredll_ALL:resource.obj
 0001:0003c278       LoadResource               1003d278 f   k.coredll_ALL:resource.obj
 0001:0003c3d0       LoadStringW                1003d3d0 f   k.coredll_ALL:resource.obj
 0001:0003c58c       SizeofResource             1003d58c f   k.coredll_ALL:resource.obj
 0001:0003c7b4       ExtractResourceWithSize    1003d7b4 f   k.coredll_ALL:resource.obj
 0001:0003c82c       ExtractResource            1003d82c f   k.coredll_ALL:resource.obj
 0001:0003c834       VerQueryValueW             1003d834 f   k.coredll_ALL:resource.obj
 0001:0003ca40       GetFileVersionInfoSizeW    1003da40 f   k.coredll_ALL:resource.obj
 0001:0003cad0       GetFileVersionInfoW        1003dad0 f   k.coredll_ALL:resource.obj
 0001:0003cb8c       KernExtractIconsWithSize   1003db8c f   k.coredll_ALL:resource.obj
 0001:0003cd7c       KernExtractIcons           1003dd7c f   k.coredll_ALL:resource.obj
 0001:0003cdac       AllocVMBuf                 1003ddac f   k.coredll_ALL:fmtmsg.obj
 0001:0003ce44       FreeVMBuf                  1003de44 f   k.coredll_ALL:fmtmsg.obj
 0001:0003ce78       vmmakespace                1003de78 f   k.coredll_ALL:fmtmsg.obj
 0001:0003cefc       vmbufcpy                   1003defc f   k.coredll_ALL:fmtmsg.obj
 0001:0003cf48       vmprintfHandler            1003df48 f   k.coredll_ALL:fmtmsg.obj
 0001:0003cfa4       vmprintf                   1003dfa4 f   k.coredll_ALL:fmtmsg.obj
 0001:0003d08c       FormatMessage2             1003e08c f   k.coredll_ALL:fmtmsg.obj
 0001:0003d654       FormatMessageW             1003e654 f   k.coredll_ALL:fmtmsg.obj
 0001:0003d8e8       IsDebuggerPresent          1003e8e8 f i k.coredll_ALL:crtsupp.obj
 0001:0003d92c       __crt_fatal                1003e92c f   k.coredll_ALL:crtsupp.obj
 0001:0003d9c4       __crt_get_storage__fcvt    1003e9c4 f   k.coredll_ALL:crtsupp.obj
 0001:0003d9f4       __crt_get_storage_rand     1003e9f4 f   k.coredll_ALL:crtsupp.obj
 0001:0003da08       __crt_get_storage_strtok   1003ea08 f   k.coredll_ALL:crtsupp.obj
 0001:0003da1c       __crt_get_storage_wcstok   1003ea1c f   k.coredll_ALL:crtsupp.obj
 0001:0003da30       __crt_get_storage_EH       1003ea30 f   k.coredll_ALL:crtsupp.obj
 0001:0003da44       __crt_ExitProcess          1003ea44 f   k.coredll_ALL:crtsupp.obj
 0001:0003da78       __crtRaiseException        1003ea78 f   k.coredll_ALL:crtsupp.obj
 0001:0003da9c       __crtIsDebuggerPresent     1003ea9c f   k.coredll_ALL:crtsupp.obj
 0001:0003daa0       GetCRTFlags                1003eaa0 f   k.coredll_ALL:crtsupp.obj
 0001:0003dab4       SetCRTFlag                 1003eab4 f   k.coredll_ALL:crtsupp.obj
 0001:0003dad4       ClearCRTFlag               1003ead4 f   k.coredll_ALL:crtsupp.obj
 0001:0003daf4       InitCRTStorage             1003eaf4 f   k.coredll_ALL:crtsupp.obj
 0001:0003db24       ClearCRTStorage            1003eb24 f   k.coredll_ALL:crtsupp.obj
 0001:0003db74       CrtEntry                   1003eb74 f   k.coredll_ALL:crtsupp.obj
 0001:0003dbec       __crt_unrecoverable_error  1003ebec f   k.coredll_ALL:crtsupp.obj
 0001:0003dc84       xxx_GetDeviceUniqueID      1003ec84 f   k.coredll_ALL:DeviceId_proxy.obj
 0001:0003dcb8       THGrow                     1003ecb8 f   k.coredll_ALL:th32heap.obj
 0001:0003dd68       EnumFillHeapItem           1003ed68 f   k.coredll_ALL:th32heap.obj
 0001:0003ddf0       GetHeapSnapshot            1003edf0 f   k.coredll_ALL:th32heap.obj
 0001:0003df24       GetInputScopes             1003ef24 f   k.coredll_ALL:InputScope.obj
 0001:0003e0f4       GetInputScopePhrases       1003f0f4 f   k.coredll_ALL:InputScope.obj
 0001:0003e6e8       GetInputScopeSrgs          1003f6e8 f   k.coredll_ALL:InputScope.obj
 0001:0003e924       ??$adjacent_find@PAW4InputScope@@@std@@YAPAW4InputScope@@PAW41@0@Z 1003f924 f i k.coredll_ALL:InputScope.obj
 0001:0003e964       ??$_Insertion_sort_1@PAW4InputScope@@W41@@std@@YAXPAW4InputScope@@00@Z 1003f964 f i k.coredll_ALL:InputScope.obj
 0001:0003e9e8       ??$unique_copy@PAW4InputScope@@PAW41@@std@@YAPAW4InputScope@@PAW41@00@Z 1003f9e8 f i k.coredll_ALL:InputScope.obj
 0001:0003ea30       ??$_Unguarded_partition@PAW4InputScope@@W41@@std@@YAPAW4InputScope@@PAW41@0W41@@Z 1003fa30 f i k.coredll_ALL:InputScope.obj
 0001:0003ea78       ??$_Sort@PAW4InputScope@@W41@@std@@YAXPAW4InputScope@@00@Z 1003fa78 f i k.coredll_ALL:InputScope.obj
 0001:0003eb34       ??$_Sort_0@PAW4InputScope@@W41@@std@@YAXPAW4InputScope@@00@Z 1003fb34 f i k.coredll_ALL:InputScope.obj
 0001:0003ebb0       SetInputScopes             1003fbb0 f   k.coredll_ALL:InputScope.obj
 0001:0003f1c8       SetInputScope              100401c8 f   k.coredll_ALL:InputScope.obj
 0001:0003f200       GetOSBuildInfo             10040200 f   k.coredll_ALL:buildinfo.obj
 0001:0003f34c       GetOSBuildString           1004034c f   k.coredll_ALL:buildinfo.obj
 0001:0003f3f8       GetOpenFileNameW           100403f8 f   k.coredll_ALL:fileopen.obj
 0001:0003f490       GetSaveFileNameW           10040490 f   k.coredll_ALL:fileopen.obj
 0001:0003f52c       GetOverlappedResult        1004052c f   k.coredll_ALL:asyncio.obj
 0001:0003f5c8       GetStringScripts           100405c8 f   k.coredll_ALL:unicode.obj
 0001:0003f610       VerifyScripts              10040610 f   k.coredll_ALL:unicode.obj
 0001:0003f658       xxx_GetUserNameEx          10040658 f   k.coredll_ALL:username.obj
 0001:0003f7d4       GetVersionExW              100407d4 f   k.coredll_ALL:versionstd.obj
 0001:0003f81c       NormalizeString            1004081c f   k.coredll_ALL:normalize.obj
 0001:0003f864       IsNormalizedString         10040864 f   k.coredll_ALL:normalize.obj
 0001:0003f88c       IdnToAscii                 1004088c f   k.coredll_ALL:normalize.obj
 0001:0003f8d4       IdnToNameprepUnicode       100408d4 f   k.coredll_ALL:normalize.obj
 0001:0003f91c       IdnToUnicode               1004091c f   k.coredll_ALL:normalize.obj
 0001:0003f964       ImageList_Create           10040964 f   k.coredll_ALL:tcommctr.obj
 0001:0003f990       ImageList_Destroy          10040990 f   k.coredll_ALL:tcommctr.obj
 0001:0003f9ac       ImageList_GetImageCount    100409ac f   k.coredll_ALL:tcommctr.obj
 0001:0003f9c8       ImageList_Add              100409c8 f   k.coredll_ALL:tcommctr.obj
 0001:0003f9e4       ImageList_ReplaceIcon      100409e4 f   k.coredll_ALL:tcommctr.obj
 0001:0003fa00       ImageList_SetBkColor       10040a00 f   k.coredll_ALL:tcommctr.obj
 0001:0003fa1c       ImageList_GetBkColor       10040a1c f   k.coredll_ALL:tcommctr.obj
 0001:0003fa38       ImageList_SetOverlayImage  10040a38 f   k.coredll_ALL:tcommctr.obj
 0001:0003fa54       ImageList_Draw             10040a54 f   k.coredll_ALL:tcommctr.obj
 0001:0003fa88       ImageList_Replace          10040a88 f   k.coredll_ALL:tcommctr.obj
 0001:0003faa4       ImageList_AddMasked        10040aa4 f   k.coredll_ALL:tcommctr.obj
 0001:0003fac0       ImageList_DrawEx           10040ac0 f   k.coredll_ALL:tcommctr.obj
 0001:0003fb14       ImageList_DrawIndirect     10040b14 f   k.coredll_ALL:tcommctr.obj
 0001:0003fb34       ImageList_Remove           10040b34 f   k.coredll_ALL:tcommctr.obj
 0001:0003fb50       ImageList_GetIcon          10040b50 f   k.coredll_ALL:tcommctr.obj
 0001:0003fb6c       ImageList_LoadImage        10040b6c f   k.coredll_ALL:tcommctr.obj
 0001:0003fbd4       ImageList_BeginDrag        10040bd4 f   k.coredll_ALL:tcommctr.obj
 0001:0003fbf0       ImageList_EndDrag          10040bf0 f   k.coredll_ALL:tcommctr.obj
 0001:0003fc0c       ImageList_DragEnter        10040c0c f   k.coredll_ALL:tcommctr.obj
 0001:0003fc28       ImageList_DragLeave        10040c28 f   k.coredll_ALL:tcommctr.obj
 0001:0003fc44       ImageList_DragMove         10040c44 f   k.coredll_ALL:tcommctr.obj
 0001:0003fc60       ImageList_SetDragCursorImage 10040c60 f   k.coredll_ALL:tcommctr.obj
 0001:0003fc7c       ImageList_DragShowNolock   10040c7c f   k.coredll_ALL:tcommctr.obj
 0001:0003fc98       ImageList_GetDragImage     10040c98 f   k.coredll_ALL:tcommctr.obj
 0001:0003fcc0       ImageList_GetIconSize      10040cc0 f   k.coredll_ALL:tcommctr.obj
 0001:0003fcdc       ImageList_SetIconSize      10040cdc f   k.coredll_ALL:tcommctr.obj
 0001:0003fcf8       ImageList_GetImageInfo     10040cf8 f   k.coredll_ALL:tcommctr.obj
 0001:0003fd18       ImageList_Merge            10040d18 f   k.coredll_ALL:tcommctr.obj
 0001:0003fd4c       ImageList_CopyDitherImage  10040d4c f   k.coredll_ALL:tcommctr.obj
 0001:0003fd88       ImageList_Copy             10040d88 f   k.coredll_ALL:tcommctr.obj
 0001:0003fdb4       ImageList_Duplicate        10040db4 f   k.coredll_ALL:tcommctr.obj
 0001:0003fdd0       ImageList_SetImageCount    10040dd0 f   k.coredll_ALL:tcommctr.obj
 0001:0003fdec       ImmGetContextFromWindowGwe 10040dec f   k.coredll_ALL:timm.obj
 0001:0003fe08       ImmAssociateValueWithGwesMessageQueue 10040e08 f   k.coredll_ALL:timm.obj
 0001:0003fe24       ImmAssociateContextWithWindowGwe 10040e24 f   k.coredll_ALL:timm.obj
 0001:0003fe60       ImmSetHotKey               10040e60 f   k.coredll_ALL:timm.obj
 0001:0003fe7c       ImmGetHotKey               10040e7c f   k.coredll_ALL:timm.obj
 0001:000400a8       ReinitLocale               100410a8 f   k.coredll_ALL:nlsapi.obj
 0001:000402c4       NLSFindOverride            100412c4 f   k.coredll_ALL:nlsapi.obj
 0001:00040454       NLSSetOverride             10041454 f   k.coredll_ALL:nlsapi.obj
 0001:000406b4       NLSSetCodePage             100416b4 f   k.coredll_ALL:nlsapi.obj
 0001:00040978       NLSSetDefaultLCID          10041978 f   k.coredll_ALL:nlsapi.obj
 0001:00040cf0       NLSGetOwnerProcessVersion  10041cf0 f   k.coredll_ALL:nlsapi.obj
 0001:00040d24       InitLocale                 10041d24 f   k.coredll_ALL:nlsapi.obj
 0001:00040e0c       InitializeUsrCoredllCallbacks 10041e0c f   k.coredll_ALL:UsrCoredllCallbacks.obj
 0001:00040f50       InterlockedFunctionArea    10041f50 f   k.coredll_ALL:intrlock.obj
 0001:00040fbc       V6_WriteBarrier            10041fbc f   k.coredll_ALL:intrlock.obj
 0001:00040fc8       InterlockedExchange        10041fc8 f   k.coredll_ALL:intrlock.obj
 0001:00040fd4       InterlockedTestExchange    10041fd4 f   k.coredll_ALL:intrlock.obj
 0001:00040fe0       InterlockedCompareExchange 10041fe0 f   k.coredll_ALL:intrlock.obj
 0001:00040fec       InterlockedExchangeAdd     10041fec f   k.coredll_ALL:intrlock.obj
 0001:00040ffc       InterlockedIncrement       10041ffc f   k.coredll_ALL:intrlock.obj
 0001:00041010       InterlockedDecrement       10042010 f   k.coredll_ALL:intrlock.obj
 0001:00041024       DataMemoryBarrier          10042024 f   k.coredll_ALL:intrlock.obj
 0001:00041030       DataSyncBarrier            10042030 f   k.coredll_ALL:intrlock.obj
 0001:0004103c       InitInterlockedFunctions   1004203c f   k.coredll_ALL:intrlock.obj
 0001:00041098       RemoteHeapAlloc            10042098 f   k.coredll_ALL:rmem.obj
 0001:000410a0       RemoteHeapReAlloc          100420a0 f   k.coredll_ALL:rmem.obj
 0001:000410a8       RemoteHeapFree             100420a8 f   k.coredll_ALL:rmem.obj
 0001:000410b0       RemoteHeapSize             100420b0 f   k.coredll_ALL:rmem.obj
 0001:000410b8       LocalAllocInProcess        100420b8 f   k.coredll_ALL:rmem.obj
 0001:000410c0       LocalFreeInProcess         100420c0 f   k.coredll_ALL:rmem.obj
 0001:000410c4       LocalSizeInProcess         100420c4 f   k.coredll_ALL:rmem.obj
 0001:000410cc       MD5Init                    100420cc f   k.coredll_ALL:md5c.obj
 0001:00041110       TransformMD5               10042110 f   k.coredll_ALL:md5c.obj
 0001:00041b14       MD5Update                  10042b14 f   k.coredll_ALL:md5c.obj
 0001:00041c24       MD5Final                   10042c24 f   k.coredll_ALL:md5c.obj
 0001:00041ce0       xxx_MessageBoxW            10042ce0 f   k.coredll_ALL:twingwes.obj
 0001:00041ce4       MulDiv                     10042ce4 f   k.coredll_ALL:muldiv.obj
 0001:00041d4c       ?IsNLedDriverReady@@YAKXZ  10042d4c f   k.coredll_ALL:tnled.obj
 0001:00041e64       NLedGetDeviceInfo          10042e64 f   k.coredll_ALL:tnled.obj
 0001:00041f44       NLedSetDevice              10042f44 f   k.coredll_ALL:tnled.obj
 0001:00041fd0       OpenDeviceKey              10042fd0 f   k.coredll_ALL:devreg.obj
 0001:000420b4       RandBit                    100430b4 f   k.coredll_ALL:random.obj
 0001:00042100       Random                     10043100 f   k.coredll_ALL:random.obj
 0001:00042124       RegisterClassW             10043124 f   k.coredll_ALL:tregclass.obj
 0001:0004217c       RegistryGetDWORD           1004317c f   k.coredll_ALL:api.obj
 0001:00042248       RegistryGetString          10043248 f   k.coredll_ALL:api.obj
 0001:0004230c       RegistrySetDWORD           1004330c f   k.coredll_ALL:api.obj
 0001:000423fc       RegistrySetString          100433fc f   k.coredll_ALL:api.obj
 0001:00042510       RegistryTestExchangeDWORD  10043510 f   k.coredll_ALL:api.obj
 0001:00042654       RegistryNotifyApp          10043654 f   k.coredll_ALL:api.obj
 0001:000427e0       RegistryNotifyWindow       100437e0 f   k.coredll_ALL:api.obj
 0001:000428c8       RegistryNotifyMsgQueue     100438c8 f   k.coredll_ALL:api.obj
 0001:000429a0       RegistryNotifyCallback     100439a0 f   k.coredll_ALL:api.obj
 0001:00042a78       RegistryCloseNotification  10043a78 f   k.coredll_ALL:api.obj
 0001:00042aa8       RegistryStopNotification   10043aa8 f   k.coredll_ALL:api.obj
 0001:00042b98       RegistryBatchNotification  10043b98 f   k.coredll_ALL:api.obj
 0001:00042bb4       RegistryDeleteValue        10043bb4 f   k.coredll_ALL:api.obj
 0001:00042c90       RtlpExecuteHandlerForException 10043c90     k.coredll_ALL:RtlSup.obj
 0001:00042cb8       RtlpExceptionHandler       10043cb8 f   k.coredll_ALL:RtlSup.obj
 0001:00042ce4       RtlpExecuteHandlerForUnwind 10043ce4     k.coredll_ALL:RtlSup.obj
 0001:00042d0c       RtlpUnwindHandler          10043d0c f   k.coredll_ALL:RtlSup.obj
 0001:00042d30       RtlResumeFromContext       10043d30 f   k.coredll_ALL:RtlSup.obj
 0001:00042d7c       RtlFinishResumeFromContextThumb 10043d7c     k.coredll_ALL:RtlSup.obj
 0001:00042dac       RtlReportUnhandledException 10043dac f   k.coredll_ALL:RtlSup.obj
 0001:00042dc8       xxRtlDispatchException     10043dc8     k.coredll_ALL:RtlSup.obj
 0001:00042de0       RtlDispatchException       10043de0 f   k.coredll_ALL:RtlSup.obj
 0001:00042de8       SHCreateShortcut           10043de8 f   k.coredll_ALL:shortcut.obj
 0001:00042e5c       SHCreateShortcutEx         10043e5c f   k.coredll_ALL:shortcut.obj
 0001:00042ee0       SHGetShortcutTarget        10043ee0 f   k.coredll_ALL:shortcut.obj
 0001:00042f5c       xxx_SHAddToRecentDocs      10043f5c f   k.coredll_ALL:shortcut.obj
 0001:00042fbc       SHGetShortcutTargetI       10043fbc f   k.coredll_ALL:shortcut.obj
 0001:00043034       xxx_Shell_NotifyIcon       10044034 f   k.coredll_ALL:tshellap.obj
 0001:00043088       xxx_SHCreateExplorerInstance 10044088 f   k.coredll_ALL:tshellap.obj
 0001:000430d8       SHGetFileInfo              100440d8 f   k.coredll_ALL:fileinfo.obj
 0001:0004316c       ?BuildPath@@YAHPAGH@Z      1004416c f   k.coredll_ALL:fileinfo.obj
 0001:000432fc       SHGetSpecialFolderPath     100442fc f   k.coredll_ALL:fileinfo.obj
 0001:0004360c       SHLoadDIBitmap             1004460c f   k.coredll_ALL:loaddib.obj
 0001:00043760       ?GetCEShell@@YAPAUHINSTANCE__@@XZ 10044760 f   k.coredll_ALL:shmisc.obj
 0001:000437a0       ?GetAygShell@@YAPAUHINSTANCE__@@XZ 100447a0 f   k.coredll_ALL:shmisc.obj
 0001:000437cc       SHLoadIndirectString       100447cc f   k.coredll_ALL:shmisc.obj
 0001:000438cc       SHShowOutOfMemory          100448cc f   k.coredll_ALL:shmisc.obj
 0001:00043944       SHSipSetAutoDeploy         10044944 f   k.coredll_ALL:sipauto.obj
 0001:000439d0       SHSipGetAutoDeploy         100449d0 f   k.coredll_ALL:sipauto.obj
 0001:00043a6c       CePerfRegisterTrackedItem  10044a6c f i k.coredll_ALL:shlexec.obj
 0001:00043af0       ?_GetNextParm@@YAPAGPBGPAGI@Z 10044af0 f   k.coredll_ALL:shlexec.obj
 0001:00043c50       ?ReplaceParameters@@YAIPAGIPBG11HPAK@Z 10044c50 f   k.coredll_ALL:shlexec.obj
 0001:00043ea4       ?MapWin32ErrToHINST@@YAPAUHINSTANCE__@@I@Z 10044ea4 f   k.coredll_ALL:shlexec.obj
 0001:00043fa0       ?MDPGPerfGetAppLaunchSession@@YAJPAPAX@Z 10044fa0 f i k.coredll_ALL:shlexec.obj
 0001:00043fec       ?MDPGPerfBeginAppLaunchDuration@@YAJPBG@Z 10044fec f i k.coredll_ALL:shlexec.obj
 0001:000440e8       ?IWinExec@@YAPAXPAUHWND__@@PBG@Z 100450e8 f   k.coredll_ALL:shlexec.obj
 0001:00044380       ShellExecuteEx             10045380 f   k.coredll_ALL:shlexec.obj
 0001:00045448       ?TestSIP@@YAHXZ            10046448 f   k.coredll_ALL:sipapi.obj
 0001:000454c0       SipPreference              100464c0 f   k.coredll_ALL:sipapi.obj
 0001:0004552c       SipStatus                  1004652c f   k.coredll_ALL:sipapi.obj
 0001:00045564       SipSetDefaultRect          10046564 f   k.coredll_ALL:sipapi.obj
 0001:00045618       SipRegisterNotification    10046618 f   k.coredll_ALL:sipapi.obj
 0001:000456a0       SipShowIM                  100466a0 f   k.coredll_ALL:sipapi.obj
 0001:00045760       SipGetInfo                 10046760 f   k.coredll_ALL:sipapi.obj
 0001:00045930       SipSetInfo                 10046930 f   k.coredll_ALL:sipapi.obj
 0001:00045aa0       SipGetCurrentIM            10046aa0 f   k.coredll_ALL:sipapi.obj
 0001:00045b58       SipSetCurrentIM            10046b58 f   k.coredll_ALL:sipapi.obj
 0001:00045c14       SipEnumIM                  10046c14 f   k.coredll_ALL:sipapi.obj
 0001:00045dfc       SipImmSetActiveContextNotify 10046dfc f   k.coredll_ALL:sipapi.obj
 0001:00045ea0       SipGetSupportedInputLanguages 10046ea0 f   k.coredll_ALL:sipapi.obj
 0001:00045fec       StringCopyWorkerA          10046fec f   k.coredll_ALL:strsafea.obj
 0001:00046044       StringCopyExWorkerA        10047044 f   k.coredll_ALL:strsafea.obj
 0001:000461f0       StringCopyNWorkerA         100471f0 f   k.coredll_ALL:strsafea.obj
 0001:00046258       StringCopyNExWorkerA       10047258 f   k.coredll_ALL:strsafea.obj
 0001:00046428       StringLengthWorkerA        10047428 f   k.coredll_ALL:strsafea.obj
 0001:0004648c       StringCchCopyA             1004748c f   k.coredll_ALL:strsafea.obj
 0001:000464a8       StringCbCopyA              100474a8 f   k.coredll_ALL:strsafea.obj
 0001:000464c4       StringCchCopyExA           100474c4 f   k.coredll_ALL:strsafea.obj
 0001:00046514       StringCbCopyExA            10047514 f   k.coredll_ALL:strsafea.obj
 0001:0004658c       StringCchCopyNA            1004758c f   k.coredll_ALL:strsafea.obj
 0001:000465ac       StringCbCopyNA             100475ac f   k.coredll_ALL:strsafea.obj
 0001:000465cc       StringCchLengthA           100475cc f   k.coredll_ALL:strsafea.obj
 0001:0004660c       StringCbLengthA            1004760c f   k.coredll_ALL:strsafea.obj
 0001:00046664       StringCatWorkerA           10047664 f   k.coredll_ALL:strsafea.obj
 0001:000466a0       StringCatExWorkerA         100476a0 f   k.coredll_ALL:strsafea.obj
 0001:0004688c       StringCatNWorkerA          1004788c f   k.coredll_ALL:strsafea.obj
 0001:000468d0       StringCatNExWorkerA        100478d0 f   k.coredll_ALL:strsafea.obj
 0001:00046b08       StringCchCatA              10047b08 f   k.coredll_ALL:strsafea.obj
 0001:00046b24       StringCbCatA               10047b24 f   k.coredll_ALL:strsafea.obj
 0001:00046b40       StringCchCatExA            10047b40 f   k.coredll_ALL:strsafea.obj
 0001:00046b90       StringCbCatExA             10047b90 f   k.coredll_ALL:strsafea.obj
 0001:00046c08       StringCchCatNA             10047c08 f   k.coredll_ALL:strsafea.obj
 0001:00046c24       StringCbCatNA              10047c24 f   k.coredll_ALL:strsafea.obj
 0001:00046c40       StringCchCatNExA           10047c40 f   k.coredll_ALL:strsafea.obj
 0001:00046c9c       StringCbCatNExA            10047c9c f   k.coredll_ALL:strsafea.obj
 0001:00046d20       StringCopyWorkerW          10047d20 f   k.coredll_ALL:strsafew.obj
 0001:00046d78       StringCopyExWorkerW        10047d78 f   k.coredll_ALL:strsafew.obj
 0001:00046f2c       StringCopyNWorkerW         10047f2c f   k.coredll_ALL:strsafew.obj
 0001:00046f94       StringCopyNExWorkerW       10047f94 f   k.coredll_ALL:strsafew.obj
 0001:0004716c       StringVPrintfWorkerW       1004816c f   k.coredll_ALL:strsafew.obj
 0001:000471d8       StringVPrintfExWorkerW     100481d8 f   k.coredll_ALL:strsafew.obj
 0001:000473bc       StringLengthWorkerW        100483bc f   k.coredll_ALL:strsafew.obj
 0001:00047420       StringCchCopyW             10048420 f   k.coredll_ALL:strsafew.obj
 0001:0004743c       StringCbCopyW              1004843c f   k.coredll_ALL:strsafew.obj
 0001:0004745c       StringCchCopyExW           1004845c f   k.coredll_ALL:strsafew.obj
 0001:000474ac       StringCbCopyExW            100484ac f   k.coredll_ALL:strsafew.obj
 0001:00047534       StringCchCopyNW            10048534 f   k.coredll_ALL:strsafew.obj
 0001:00047554       StringCbCopyNW             10048554 f   k.coredll_ALL:strsafew.obj
 0001:0004757c       StringCchCopyNExW          1004857c f   k.coredll_ALL:strsafew.obj
 0001:000475d8       StringCbCopyNExW           100485d8 f   k.coredll_ALL:strsafew.obj
 0001:00047670       StringCchVPrintfW          10048670 f   k.coredll_ALL:strsafew.obj
 0001:0004768c       StringCbVPrintfW           1004868c f   k.coredll_ALL:strsafew.obj
 0001:000476ac       StringCchPrintfW           100486ac f   k.coredll_ALL:strsafew.obj
 0001:000476d4       StringCbPrintfW            100486d4 f   k.coredll_ALL:strsafew.obj
 0001:00047700       StringCchPrintfExW         10048700 f   k.coredll_ALL:strsafew.obj
 0001:0004775c       StringCbPrintfExW          1004875c f   k.coredll_ALL:strsafew.obj
 0001:000477f8       StringCchVPrintfExW        100487f8 f   k.coredll_ALL:strsafew.obj
 0001:00047854       StringCbVPrintfExW         10048854 f   k.coredll_ALL:strsafew.obj
 0001:000478f0       StringCchLengthW           100488f0 f   k.coredll_ALL:strsafew.obj
 0001:00047930       StringCbLengthW            10048930 f   k.coredll_ALL:strsafew.obj
 0001:00047990       StringCatWorkerW           10048990 f   k.coredll_ALL:strsafew.obj
 0001:000479cc       StringCatExWorkerW         100489cc f   k.coredll_ALL:strsafew.obj
 0001:00047bdc       StringCatNWorkerW          10048bdc f   k.coredll_ALL:strsafew.obj
 0001:00047c20       StringCatNExWorkerW        10048c20 f   k.coredll_ALL:strsafew.obj
 0001:00047e60       StringCchCatW              10048e60 f   k.coredll_ALL:strsafew.obj
 0001:00047e7c       StringCbCatW               10048e7c f   k.coredll_ALL:strsafew.obj
 0001:00047e9c       StringCchCatExW            10048e9c f   k.coredll_ALL:strsafew.obj
 0001:00047eec       StringCbCatExW             10048eec f   k.coredll_ALL:strsafew.obj
 0001:00047f74       StringCchCatNW             10048f74 f   k.coredll_ALL:strsafew.obj
 0001:00047f90       StringCbCatNW              10048f90 f   k.coredll_ALL:strsafew.obj
 0001:00047fb4       StringCchCatNExW           10048fb4 f   k.coredll_ALL:strsafew.obj
 0001:00048010       StringCbCatNExW            10049010 f   k.coredll_ALL:strsafew.obj
 0001:000480a8       StringVPrintfWorkerA       100490a8 f   k.coredll_ALL:strsafea_sprintf.obj
 0001:0004810c       StringVPrintfExWorkerA     1004910c f   k.coredll_ALL:strsafea_sprintf.obj
 0001:000482e4       StringCchVPrintfA          100492e4 f   k.coredll_ALL:strsafea_sprintf.obj
 0001:00048300       StringCbVPrintfA           10049300 f   k.coredll_ALL:strsafea_sprintf.obj
 0001:0004831c       StringCchPrintfA           1004931c f   k.coredll_ALL:strsafea_sprintf.obj
 0001:00048344       StringCbPrintfA            10049344 f   k.coredll_ALL:strsafea_sprintf.obj
 0001:0004836c       StringCchPrintfExA         1004936c f   k.coredll_ALL:strsafea_sprintf.obj
 0001:000483c8       StringCbPrintfExA          100493c8 f   k.coredll_ALL:strsafea_sprintf.obj
 0001:00048454       StringCchVPrintfExA        10049454 f   k.coredll_ALL:strsafea_sprintf.obj
 0001:000484b0       StringCbVPrintfExA         100494b0 f   k.coredll_ALL:strsafea_sprintf.obj
 0001:00048544       UserCallWindowProc         10049544 f   k.coredll_ALL:UsrGweCallbacks.obj
 0001:00048648       UserSHSipPreference        10049648 f   k.coredll_ALL:UsrGweCallbacks.obj
 0001:00048720       UserSHCheckForContextMenu  10049720 f   k.coredll_ALL:UsrAygshellCallbacks.obj
 0001:00048804       UserDoEditContextMenu      10049804 f   k.coredll_ALL:UsrAygshellCallbacks.obj
 0001:0004889c       xxx_WNetAddConnection3W    1004989c f   k.coredll_ALL:twnet.obj
 0001:00048910       xxx_WNetCancelConnection2W 10049910 f   k.coredll_ALL:twnet.obj
 0001:00048964       xxx_WNetDisconnectDialog   10049964 f   k.coredll_ALL:twnet.obj
 0001:000489b0       xxx_WNetConnectionDialog1W 100499b0 f   k.coredll_ALL:twnet.obj
 0001:000489f8       xxx_WNetDisconnectDialog1W 100499f8 f   k.coredll_ALL:twnet.obj
 0001:00048a40       xxx_WNetGetConnectionW     10049a40 f   k.coredll_ALL:twnet.obj
 0001:00048aa4       xxx_WNetGetUniversalNameW  10049aa4 f   k.coredll_ALL:twnet.obj
 0001:00048b1c       xxx_WNetGetUserW           10049b1c f   k.coredll_ALL:twnet.obj
 0001:00048b80       xxx_WNetOpenEnumW          10049b80 f   k.coredll_ALL:twnet.obj
 0001:00048bf8       xxx_WNetEnumResourceW      10049bf8 f   k.coredll_ALL:twnet.obj
 0001:00048c70       xxx_WNetCloseEnum          10049c70 f   k.coredll_ALL:twnet.obj
 0001:00048cac       _CountLeadingZeros         10049cac f   k.coredll_ALL:countlead.obj
 0001:00048cd8       _CountLeadingZeros64       10049cd8 f   k.coredll_ALL:countlead.obj
 0001:00048d2c       _CountLeadingOnes          10049d2c f   k.coredll_ALL:countlead.obj
 0001:00048d58       _CountLeadingOnes64        10049d58 f   k.coredll_ALL:countlead.obj
 0001:00048d64       _CountLeadingSigns         10049d64 f   k.coredll_ALL:countlead.obj
 0001:00048d98       _CountLeadingSigns64       10049d98 f   k.coredll_ALL:countlead.obj
 0001:00048db0       _CountOneBits              10049db0 f   k.coredll_ALL:countonebits.obj
 0001:00048dfc       _CountOneBits64            10049dfc f   k.coredll_ALL:countonebits64.obj
 0001:00048eb4       InitPiob                   10049eb4 f   k.coredll_ALL:stioinit.obj
 0001:00048fb8       TermPiob                   10049fb8 f   k.coredll_ALL:stioinit.obj
 0001:0004906c       MarkConsoleForDereg        1004a06c f   k.coredll_ALL:stioinit.obj
 0001:000490d4       ConsoleRedirInit           1004a0d4 f   k.coredll_ALL:stioinit.obj
 0001:000491f0       OpenStdConsole             1004a1f0 f   k.coredll_ALL:stioinit.obj
 0001:0004964c       _getstdfilex               1004a64c f   k.coredll_ALL:stioinit.obj
 0001:0004968c       TermStdio                  1004a68c f   k.coredll_ALL:stioinit.obj
 0001:000496dc       LowioInit                  1004a6dc f   k.coredll_ALL:stioinit.obj
 0001:00049710       _InitStdioLib              1004a710 f   k.coredll_ALL:stioinit.obj
 0001:00049784       _MulHigh                   1004a784 f   k.coredll_ALL:mulhigh.obj
 0001:00049790       _MulUnsignedHigh           1004a790 f   k.coredll_ALL:mulunsignedhigh.obj
 0001:0004979c       _XcptFilter                1004a79c f   k.coredll_ALL:xcptfltr.obj
 0001:00049844       __C_specific_handler       1004a844 f   k.coredll_ALL:chandler.obj
 0001:00049998       __CxxThrowException        1004a998 f   k.coredll_ALL:throw.obj
 0001:000499e0       ??0bad_cast@std@@QAA@PBD@Z 1004a9e0 f i k.coredll_ALL:rtti.obj
 0001:00049a00       ??1bad_cast@std@@UAA@XZ    1004aa00 f i k.coredll_ALL:rtti.obj
 0001:00049a14       ??_Gbad_cast@std@@UAAPAXI@Z 1004aa14 f i k.coredll_ALL:rtti.obj
 0001:00049a14       ??_Ebad_cast@std@@UAAPAXI@Z 1004aa14 f i k.coredll_ALL:rtti.obj
 0001:00049a44       ??0bad_typeid@std@@QAA@PBD@Z 1004aa44 f i k.coredll_ALL:rtti.obj
 0001:00049a64       ??1bad_typeid@std@@UAA@XZ  1004aa64 f i k.coredll_ALL:rtti.obj
 0001:00049a78       ??_Ebad_typeid@std@@UAAPAXI@Z 1004aa78 f i k.coredll_ALL:rtti.obj
 0001:00049a78       ??_Gbad_typeid@std@@UAAPAXI@Z 1004aa78 f i k.coredll_ALL:rtti.obj
 0001:00049aa8       ??0__non_rtti_object@std@@QAA@PBD@Z 1004aaa8 f i k.coredll_ALL:rtti.obj
 0001:00049ac8       ??1__non_rtti_object@std@@UAA@XZ 1004aac8 f i k.coredll_ALL:rtti.obj
 0001:00049ae4       __RTtypeid                 1004aae4 f   k.coredll_ALL:rtti.obj
 0001:00049b7c       ??0bad_typeid@std@@QAA@ABV01@@Z 1004ab7c f i k.coredll_ALL:rtti.obj
 0001:00049b9c       ??_E__non_rtti_object@std@@UAAPAXI@Z 1004ab9c f i k.coredll_ALL:rtti.obj
 0001:00049b9c       ??_G__non_rtti_object@std@@UAAPAXI@Z 1004ab9c f i k.coredll_ALL:rtti.obj
 0001:00049bd4       __RTCastToVoid             1004abd4 f   k.coredll_ALL:rtti.obj
 0001:00049c6c       ??0__non_rtti_object@std@@QAA@ABV01@@Z 1004ac6c f i k.coredll_ALL:rtti.obj
 0001:00049fdc       __RTDynamicCast            1004afdc f   k.coredll_ALL:rtti.obj
 0001:0004a190       ??0bad_cast@std@@QAA@ABV01@@Z 1004b190 f i k.coredll_ALL:rtti.obj
 0001:0004a1b0       __report_gsfailure         1004b1b0     k.coredll_ALL:armsechr.obj
 0001:0004a21c       __rt_sdiv                  1004b21c f   k.coredll_ALL:__div.obj
 0001:0004a2f8       __rt_sdiv10                1004b2f8 f   k.coredll_ALL:__div10.obj
 0001:0004a338       __rt_udivrem64by64         1004b338     k.coredll_ALL:mdsdiv64.obj
 0001:0004a430       __rt_divrem64by64          1004b430     k.coredll_ALL:mdsdiv64.obj
 0001:0004a480       __rt_udiv64by64            1004b480     k.coredll_ALL:mdsdiv64.obj
 0001:0004a490       __rt_urem64by64            1004b490     k.coredll_ALL:mdsdiv64.obj
 0001:0004a4a8       __rt_sdiv64by64            1004b4a8     k.coredll_ALL:mdsdiv64.obj
 0001:0004a4b8       __rt_srem64by64            1004b4b8     k.coredll_ALL:mdsdiv64.obj
 0001:0004a4d0       __rt_srsh                  1004b4d0 f   k.coredll_ALL:rshi64.obj
 0001:0004a518       __rt_udiv                  1004b518 f   k.coredll_ALL:__udiv.obj
 0001:0004a5dc       __rt_udiv10                1004b5dc f   k.coredll_ALL:__udiv10.obj
 0001:0004a60c       __rt_ursh                  1004b60c f   k.coredll_ALL:rshui64.obj
 0001:0004a654       __security_gen_cookie2     1004b654 f   k.coredll_ALL:gscore.obj
 0001:0004a6dc       __security_gen_cookie      1004b6dc f   k.coredll_ALL:gscore.obj
 0001:0004a6ec       __report_gsfailure_context 1004b6ec f   k.coredll_ALL:gscore.obj
 0001:0004a700       __security_gen_cookie_cgr  1004b700 f   k.coredll_ALL:gscore2.obj
 0001:0004a808       __strgtold12               1004b808 f   k.coredll_ALL:strgtold.obj
 0001:0004ad00       abs                        1004bd00 f   k.coredll_ALL:abs.obj
 0001:0004ad0c       _abs64                     1004bd0c f   k.coredll_ALL:abs.obj
 0001:0004ad2c       _ZeroTail                  1004bd2c f   k.coredll_ALL:intrncvt.obj
 0001:0004ad90       _IncMan                    1004bd90 f   k.coredll_ALL:intrncvt.obj
 0001:0004adf0       _RoundMan                  1004bdf0 f   k.coredll_ALL:intrncvt.obj
 0001:0004ae78       _IsZeroMan                 1004be78 f   k.coredll_ALL:intrncvt.obj
 0001:0004aea8       _ShrMan                    1004bea8 f   k.coredll_ALL:intrncvt.obj
 0001:0004af1c       _ld12cvt                   1004bf1c f   k.coredll_ALL:intrncvt.obj
 0001:0004b118       _ld12tod                   1004c118 f   k.coredll_ALL:intrncvt.obj
 0001:0004b124       _ld12tof                   1004c124 f   k.coredll_ALL:intrncvt.obj
 0001:0004b130       _atodbl                    1004c130 f   k.coredll_ALL:intrncvt.obj
 0001:0004b168       _atoflt                    1004c168 f   k.coredll_ALL:intrncvt.obj
 0001:0004b1a0       _atoi64                    1004c1a0 f   k.coredll_ALL:atoi64.obj
 0001:0004b1ac       _byteswap_ushort           1004c1ac f   k.coredll_ALL:byteswap.obj
 0001:0004b1c4       _byteswap_ulong            1004c1c4 f   k.coredll_ALL:byteswap.obj
 0001:0004b1e8       _byteswap_uint64           1004c1e8 f   k.coredll_ALL:byteswap.obj
 0001:0004b2d0       _fcvt_s                    1004c2d0 f   k.coredll_ALL:fcvt.obj
 0001:0004b420       _fcvt                      1004c420 f   k.coredll_ALL:fcvt.obj
 0001:0004b4ec       _ecvt_s                    1004c4ec f   k.coredll_ALL:fcvt.obj
 0001:0004b638       _ecvt                      1004c638 f   k.coredll_ALL:fcvt.obj
 0001:0004b6a4       _flush                     1004c6a4 f   k.coredll_ALL:fflush.obj
 0001:0004b724       _deletestream              1004c724 f   k.coredll_ALL:fflush.obj
 0001:0004b798       _fcloseall                 1004c798 f   k.coredll_ALL:fflush.obj
 0001:0004b818       _fflush_lk                 1004c818 f   k.coredll_ALL:fflush.obj
 0001:0004b96c       fflush                     1004c96c f   k.coredll_ALL:fflush.obj
 0001:0004b9bc       _flushall                  1004c9bc f   k.coredll_ALL:fflush.obj
 0001:0004b9c4       _close                     1004c9c4 f   k.coredll_ALL:fopen.obj
 0001:0004ba00       _fclose_lk                 1004ca00 f   k.coredll_ALL:fopen.obj
 0001:0004be60       _wfopen                    1004ce60 f   k.coredll_ALL:fopen.obj
 0001:0004bfe8       fopen                      1004cfe8 f   k.coredll_ALL:fopen.obj
 0001:0004c010       fopen_s                    1004d010 f   k.coredll_ALL:fopen.obj
 0001:0004c058       _wfopen_s                  1004d058 f   k.coredll_ALL:fopen.obj
 0001:0004c0b0       _fileno                    1004d0b0 f   k.coredll_ALL:fopen.obj
 0001:0004c128       _wfdopen                   1004d128 f   k.coredll_ALL:fopen.obj
 0001:0004c3bc       _wfreopen_helper           1004d3bc f   k.coredll_ALL:fopen.obj
 0001:0004c510       _wfreopen                  1004d510 f   k.coredll_ALL:fopen.obj
 0001:0004c548       _wfreopen_s                1004d548 f   k.coredll_ALL:fopen.obj
 0001:0004c594       putwchar                   1004d594 f   k.coredll_ALL:fopen.obj
 0001:0004c5e0       getwchar                   1004d5e0 f   k.coredll_ALL:fopen.obj
 0001:0004c624       _setmode                   1004d624 f   k.coredll_ALL:fopen.obj
 0001:0004c6b4       fclose                     1004d6b4 f   k.coredll_ALL:fopen.obj
 0001:0004c720       _gcvt_s                    1004d720 f   k.coredll_ALL:gcvt.obj
 0001:0004c8a4       _gcvt                      1004d8a4 f   k.coredll_ALL:gcvt.obj
 0001:0004c8e0       _invalid_parameter         1004d8e0 f   k.coredll_ALL:invarg.obj
 0001:0004c94c       _set_invalid_parameter_handler 1004d94c f   k.coredll_ALL:invarg.obj
 0001:0004c97c       _get_invalid_parameter_handler 1004d97c f   k.coredll_ALL:invarg.obj
 0001:0004caa8       _set_printf_count_output   1004daa8 f   k.coredll_ALL:woutput.obj
 0001:0004caec       _get_printf_count_output   1004daec f   k.coredll_ALL:woutput.obj
 0001:0004cb38       _woutput                   1004db38 f   k.coredll_ALL:woutput.obj
 0001:0004d8c4       _getws_s                   1004e8c4 f   k.coredll_ALL:getws.obj
 0001:0004d8cc       _getws                     1004e8cc f   k.coredll_ALL:getws.obj
 0001:0004d9ac       iswctype                   1004e9ac f   k.coredll_ALL:loc2.obj
 0001:0004d9f8       _isctype                   1004e9f8 f   k.coredll_ALL:loc2.obj
 0001:0004da68       towlower                   1004ea68 f   k.coredll_ALL:loc2.obj
 0001:0004da78       towupper                   1004ea78 f   k.coredll_ALL:loc2.obj
 0001:0004daf8       _itoa                      1004eaf8 f   k.coredll_ALL:xtoa.obj
 0001:0004db2c       _ltoa                      1004eb2c f   k.coredll_ALL:xtoa.obj
 0001:0004db5c       _ultoa                     1004eb5c f   k.coredll_ALL:xtoa.obj
 0001:0004dc9c       _itoa_s                    1004ec9c f   k.coredll_ALL:xtoas.obj
 0001:0004dce0       _ltoa_s                    1004ece0 f   k.coredll_ALL:xtoas.obj
 0001:0004dd10       _ultoa_s                   1004ed10 f   k.coredll_ALL:xtoas.obj
 0001:0004dd9c       _itow                      1004ed9c f   k.coredll_ALL:xtow.obj
 0001:0004ddd0       _ltow                      1004edd0 f   k.coredll_ALL:xtow.obj
 0001:0004de00       _ultow                     1004ee00 f   k.coredll_ALL:xtow.obj
 0001:0004df40       _itow_s                    1004ef40 f   k.coredll_ALL:xtows.obj
 0001:0004df84       _ltow_s                    1004ef84 f   k.coredll_ALL:xtows.obj
 0001:0004dfb4       _ultow_s                   1004efb4 f   k.coredll_ALL:xtows.obj
 0001:0004dfd0       _rotl                      1004efd0 f   k.coredll_ALL:rotl.obj
 0001:0004dffc       _lrotl                     1004effc f   k.coredll_ALL:rotl.obj
 0001:0004e028       _rotl64                    1004f028 f   k.coredll_ALL:rotl.obj
 0001:0004e06c       _rotr                      1004f06c f   k.coredll_ALL:rotr.obj
 0001:0004e090       _lrotr                     1004f090 f   k.coredll_ALL:rotr.obj
 0001:0004e0b4       _rotr64                    1004f0b4 f   k.coredll_ALL:rotr.obj
 0001:0004e0e4       _mbmemset                  1004f0e4 f   k.coredll_ALL:mbmemset.obj
 0001:0004e180       _memccpy                   1004f180     k.coredll_ALL:amemccpy.obj
 0001:0004e1ac       _memicmp                   1004f1ac     k.coredll_ALL:amemicmp.obj
 0001:0004e204       _msize                     1004f204 f   k.coredll_ALL:msize.obj
 0001:0004e208       _purecall                  1004f208 f   k.coredll_ALL:purevirt.obj
 0001:0004e210       fputs2                     1004f210 f   k.coredll_ALL:fputs.obj
 0001:0004e38c       fputws                     1004f38c f   k.coredll_ALL:fputs.obj
 0001:0004e3a4       fputs                      1004f3a4 f   k.coredll_ALL:fputs.obj
 0001:0004e3bc       _putws                     1004f3bc f   k.coredll_ALL:fputs.obj
 0001:0004e410       puts                       1004f410 f   k.coredll_ALL:fputs.obj
 0001:0004e464       realloc                    1004f464 f   k.coredll_ALL:realloc.obj
 0001:0004e4e8       _recalloc                  1004f4e8 f   k.coredll_ALL:realloc.obj
 0001:0004e6a4       _vsnprintf                 1004f6a4 f   k.coredll_ALL:vsprintf.obj
 0001:0004e6c0       vsprintf                   1004f6c0 f   k.coredll_ALL:vsprintf.obj
 0001:0004e6e8       _snprintf                  1004f6e8 f   k.coredll_ALL:vsprintf.obj
 0001:0004e714       sprintf                    1004f714 f   k.coredll_ALL:vsprintf.obj
 0001:0004e984       _vsnprintf_s               1004f984 f   k.coredll_ALL:vsprintf.obj
 0001:0004e9a0       vsprintf_s                 1004f9a0 f   k.coredll_ALL:vsprintf.obj
 0001:0004e9c4       _snprintf_s                1004f9c4 f   k.coredll_ALL:vsprintf.obj
 0001:0004e9ec       sprintf_s                  1004f9ec f   k.coredll_ALL:vsprintf.obj
 0001:0004ea1c       _vscprintf                 1004fa1c f   k.coredll_ALL:vsprintf.obj
 0001:0004ea90       _scprintf                  1004fa90 f   k.coredll_ALL:vsprintf.obj
 0001:0004ebc4       _vsnwprintf                1004fbc4 f   k.coredll_ALL:vswprint.obj
 0001:0004ebe0       vswprintf                  1004fbe0 f   k.coredll_ALL:vswprint.obj
 0001:0004ec08       _snwprintf                 1004fc08 f   k.coredll_ALL:vswprint.obj
 0001:0004ec34       swprintf                   1004fc34 f   k.coredll_ALL:vswprint.obj
 0001:0004eeec       _vsnwprintf_s              1004feec f   k.coredll_ALL:vswprint.obj
 0001:0004ef08       vswprintf_s                1004ff08 f   k.coredll_ALL:vswprint.obj
 0001:0004ef2c       _snwprintf_s               1004ff2c f   k.coredll_ALL:vswprint.obj
 0001:0004ef54       swprintf_s                 1004ff54 f   k.coredll_ALL:vswprint.obj
 0001:0004ef84       _vscwprintf                1004ff84 f   k.coredll_ALL:vswprint.obj
 0001:0004eff8       _scwprintf                 1004fff8 f   k.coredll_ALL:vswprint.obj
 0001:0004f014       _strdup                    10050014 f   k.coredll_ALL:_strdup.obj
 0001:0004f058       _stricmp                   10050058 f   k.coredll_ALL:_stricmp.obj
 0001:0004f0e8       _strlwr                    100500e8 f   k.coredll_ALL:strlwr.obj
 0001:0004f11c       _strlwr_s                  1005011c f   k.coredll_ALL:strlwr.obj
 0001:0004f1b4       _strnicmp                  100501b4 f   k.coredll_ALL:_strnicmp.obj
 0001:0004f228       _strnset                   10050228 f   k.coredll_ALL:_strnset.obj
 0001:0004f25c       _strnset_s                 1005025c f   k.coredll_ALL:strnset_s.obj
 0001:0004f348       _strrev                    10050348 f   k.coredll_ALL:_strrev.obj
 0001:0004f388       _strset                    10050388 f   k.coredll_ALL:_strset.obj
 0001:0004f3a8       _strset_s                  100503a8 f   k.coredll_ALL:strset_s.obj
 0001:0004f718       _strtoi64                  10050718 f   k.coredll_ALL:strtoq.obj
 0001:0004f720       _strtoui64                 10050720 f   k.coredll_ALL:strtoq.obj
 0001:0004f728       _strupr                    10050728 f   k.coredll_ALL:strupr.obj
 0001:0004f75c       _strupr_s                  1005075c f   k.coredll_ALL:strupr.obj
 0001:0004f7f4       _swab                      100507f4 f   k.coredll_ALL:swab.obj
 0001:0004f828       _wcsdup                    10050828 f   k.coredll_ALL:_wcsdup.obj
 0001:0004f86c       _wcsicmp                   1005086c f   k.coredll_ALL:wcsicmp.obj
 0001:0004f8b8       _wcslwr                    100508b8 f   k.coredll_ALL:wcslwr.obj
 0001:0004f8fc       _wcslwr_s                  100508fc f   k.coredll_ALL:wcslwr.obj
 0001:0004f984       _wcsnicmp                  10050984 f   k.coredll_ALL:wcsnicmp.obj
 0001:0004f9e4       _wcsnset                   100509e4 f   k.coredll_ALL:_wcsnset.obj
 0001:0004fa18       _wcsnset_s                 10050a18 f   k.coredll_ALL:wcsnset_s.obj
 0001:0004fb04       _wcsrev                    10050b04 f   k.coredll_ALL:wcsrev.obj
 0001:0004fb44       _wcsset                    10050b44 f   k.coredll_ALL:_wcsset.obj
 0001:0004fb64       _wcsset_s                  10050b64 f   k.coredll_ALL:wcsset_s.obj
 0001:0004fee8       _wcstoi64                  10050ee8 f   k.coredll_ALL:wcstoq.obj
 0001:0004fef0       _wcstoui64                 10050ef0 f   k.coredll_ALL:wcstoq.obj
 0001:0004fef8       _wcsupr                    10050ef8 f   k.coredll_ALL:wcsupr.obj
 0001:0004ff3c       _wcsupr_s                  10050f3c f   k.coredll_ALL:wcsupr.obj
 0001:0004ffc4       _wtof                      10050fc4 f   k.coredll_ALL:wtof.obj
 0001:0004ffcc       _wtol                      10050fcc f   k.coredll_ALL:wtox.obj
 0001:0004ffd8       _wtoi                      10050fd8 f   k.coredll_ALL:wtox.obj
 0001:0004ffe4       _wtoi64                    10050fe4 f   k.coredll_ALL:wtoi64.obj
 0001:0004fff0       atof                       10050ff0 f   k.coredll_ALL:atof.obj
 0001:0004fff8       atol                       10050ff8 f   k.coredll_ALL:atox.obj
 0001:00050004       atoi                       10051004 f   k.coredll_ALL:atox.obj
 0001:00050010       bsearch                    10051010 f   k.coredll_ALL:bsearch.obj
 0001:00050138       bsearch_s                  10051138 f   k.coredll_ALL:bsearch_s.obj
 0001:00050268       _nh_malloc                 10051268 f   k.coredll_ALL:malloc.obj
 0001:000502b4       malloc                     100512b4 f   k.coredll_ALL:malloc.obj
 0001:000502c8       calloc                     100512c8 f   k.coredll_ALL:malloc.obj
 0001:00050338       clearerr_s                 10051338 f   k.coredll_ALL:clearerr.obj
 0001:000503ac       clearerr                   100513ac f   k.coredll_ALL:clearerr.obj
 0001:000503b0       feof                       100513b0 f   k.coredll_ALL:clearerr.obj
 0001:000503e4       ferror                     100513e4 f   k.coredll_ALL:clearerr.obj
 0001:00050418       difftime                   10051418 f   k.coredll_ALL:difftime.obj
 0001:00050434       div                        10051434 f   k.coredll_ALL:div.obj
 0001:00050478       fgetc                      10051478 f   k.coredll_ALL:fgetc.obj
 0001:00050518       getchar                    10051518 f   k.coredll_ALL:fgetc.obj
 0001:00050558       fgetpos                    10051558 f   k.coredll_ALL:fgetpos.obj
 0001:000505b0       fgets                      100515b0 f   k.coredll_ALL:fgets.obj
 0001:0005070c       fgetwc                     1005170c f   k.coredll_ALL:fgetwc.obj
 0001:00050770       fgetws                     10051770 f   k.coredll_ALL:fgetws.obj
 0001:00050954       vfprintf                   10051954 f   k.coredll_ALL:vfprintf.obj
 0001:0005095c       vfprintf_s                 1005195c f   k.coredll_ALL:vfprintf.obj
 0001:00050964       vprintf                    10051964 f   k.coredll_ALL:vfprintf.obj
 0001:000509b8       vprintf_s                  100519b8 f   k.coredll_ALL:vfprintf.obj
 0001:00050a0c       fprintf                    10051a0c f   k.coredll_ALL:vfprintf.obj
 0001:00050a2c       fprintf_s                  10051a2c f   k.coredll_ALL:vfprintf.obj
 0001:00050a4c       printf                     10051a4c f   k.coredll_ALL:vfprintf.obj
 0001:00050aac       printf_s                   10051aac f   k.coredll_ALL:vfprintf.obj
 0001:00050b0c       fputc                      10051b0c f   k.coredll_ALL:fputc.obj
 0001:00050bbc       putchar                    10051bbc f   k.coredll_ALL:fputc.obj
 0001:00050c04       fputwc                     10051c04 f   k.coredll_ALL:fputwc.obj
 0001:00050ec0       fread_s                    10051ec0 f   k.coredll_ALL:fread.obj
 0001:00050fe0       fread                      10051fe0 f   k.coredll_ALL:fread.obj
 0001:00051008       free                       10052008 f   k.coredll_ALL:free.obj
 0001:000510b8       fscanf                     100520b8 f   k.coredll_ALL:fscanf.obj
 0001:000510d8       fscanf_s                   100520d8 f   k.coredll_ALL:fscanf.obj
 0001:000510f8       _fseek_lk                  100520f8 f   k.coredll_ALL:fseek.obj
 0001:0005119c       fseek                      1005219c f   k.coredll_ALL:fseek.obj
 0001:0005124c       fsetpos                    1005224c f   k.coredll_ALL:fsetpos.obj
 0001:00051260       _ftell_lk                  10052260 f   k.coredll_ALL:ftell.obj
 0001:000513e0       ftell                      100523e0 f   k.coredll_ALL:ftell.obj
 0001:0005151c       vfwprintf                  1005251c f   k.coredll_ALL:vfwprint.obj
 0001:00051524       vfwprintf_s                10052524 f   k.coredll_ALL:vfwprint.obj
 0001:0005152c       vwprintf                   1005252c f   k.coredll_ALL:vfwprint.obj
 0001:00051580       vwprintf_s                 10052580 f   k.coredll_ALL:vfwprint.obj
 0001:000515d4       fwprintf                   100525d4 f   k.coredll_ALL:vfwprint.obj
 0001:000515f4       fwprintf_s                 100525f4 f   k.coredll_ALL:vfwprint.obj
 0001:00051614       wprintf                    10052614 f   k.coredll_ALL:vfwprint.obj
 0001:00051674       wprintf_s                  10052674 f   k.coredll_ALL:vfwprint.obj
 0001:000516d4       _fwrite_lk                 100526d4 f   k.coredll_ALL:fwrite.obj
 0001:0005183c       fwrite                     1005283c f   k.coredll_ALL:fwrite.obj
 0001:000519dc       fwscanf                    100529dc f   k.coredll_ALL:fwscanf.obj
 0001:000519fc       fwscanf_s                  100529fc f   k.coredll_ALL:fwscanf.obj
 0001:00051c7c       gets_s                     10052c7c f   k.coredll_ALL:gets.obj
 0001:00051c84       gets                       10052c84 f   k.coredll_ALL:gets.obj
 0001:00051df8       labs                       10052df8 f   k.coredll_ALL:labs.obj
 0001:00051e04       ldiv                       10052e04 f   k.coredll_ALL:ldiv.obj
 0001:00051e48       xxx_lineInitializeEx       10052e48 f   k.coredll_ALL:ttapi.obj
 0001:00051e8c       xxx_lineClose              10052e8c f   k.coredll_ALL:ttapi.obj
 0001:00051eb0       xxx_lineDeallocateCall     10052eb0 f   k.coredll_ALL:ttapi.obj
 0001:00051ed4       xxx_lineDrop               10052ed4 f   k.coredll_ALL:ttapi.obj
 0001:00051ef8       xxx_lineGetDevCaps         10052ef8 f   k.coredll_ALL:ttapi.obj
 0001:00051f2c       xxx_lineGetDevConfig       10052f2c f   k.coredll_ALL:ttapi.obj
 0001:00051f50       xxx_lineGetTranslateCaps   10052f50 f   k.coredll_ALL:ttapi.obj
 0001:00051f74       xxx_lineMakeCall           10052f74 f   k.coredll_ALL:ttapi.obj
 0001:00051fa8       xxx_lineNegotiateAPIVersion 10052fa8 f   k.coredll_ALL:ttapi.obj
 0001:00051fe4       xxx_lineOpen               10052fe4 f   k.coredll_ALL:ttapi.obj
 0001:00052038       xxx_lineSetDevConfig       10053038 f   k.coredll_ALL:ttapi.obj
 0001:0005205c       xxx_lineSetStatusMessages  1005305c f   k.coredll_ALL:ttapi.obj
 0001:00052080       xxx_lineTranslateAddress   10053080 f   k.coredll_ALL:ttapi.obj
 0001:000520c4       xxx_lineTranslateDialog    100530c4 f   k.coredll_ALL:ttapi.obj
 0001:000520f8       xxx_lineConfigDialogEdit   100530f8 f   k.coredll_ALL:ttapi.obj
 0001:00052134       xxx_lineGetID              10053134 f   k.coredll_ALL:ttapi.obj
 0001:00052170       xxx_lineAddProvider        10053170 f   k.coredll_ALL:ttapi.obj
 0001:00052194       xxx_lineSetCurrentLocation 10053194 f   k.coredll_ALL:ttapi.obj
 0001:000521b8       xxx_lineAccept             100531b8 f   k.coredll_ALL:ttapi.obj
 0001:000521dc       xxx_lineAddToConference    100531dc f   k.coredll_ALL:ttapi.obj
 0001:00052200       xxx_lineAnswer             10053200 f   k.coredll_ALL:ttapi.obj
 0001:00052224       xxx_lineBlindTransfer      10053224 f   k.coredll_ALL:ttapi.obj
 0001:00052248       xxx_lineCompleteTransfer   10053248 f   k.coredll_ALL:ttapi.obj
 0001:0005226c       xxx_lineDevSpecific        1005326c f   k.coredll_ALL:ttapi.obj
 0001:000522a0       xxx_lineDial               100532a0 f   k.coredll_ALL:ttapi.obj
 0001:000522c4       xxx_lineForward            100532c4 f   k.coredll_ALL:ttapi.obj
 0001:00052308       xxx_lineGenerateDigits     10053308 f   k.coredll_ALL:ttapi.obj
 0001:0005232c       xxx_lineGenerateTone       1005332c f   k.coredll_ALL:ttapi.obj
 0001:00052360       xxx_lineStartDTMF          10053360 f   k.coredll_ALL:ttapi.obj
 0001:00052384       xxx_lineStopDTMF           10053384 f   k.coredll_ALL:ttapi.obj
 0001:000523a8       xxx_lineGetAddressCaps     100533a8 f   k.coredll_ALL:ttapi.obj
 0001:000523e4       xxx_lineGetAddressID       100533e4 f   k.coredll_ALL:ttapi.obj
 0001:00052418       xxx_lineGetAddressStatus   10053418 f   k.coredll_ALL:ttapi.obj
 0001:0005243c       xxx_lineGetAppPriority     1005343c f   k.coredll_ALL:ttapi.obj
 0001:00052478       xxx_lineGetCallInfo        10053478 f   k.coredll_ALL:ttapi.obj
 0001:0005249c       xxx_lineGetCallStatus      1005349c f   k.coredll_ALL:ttapi.obj
 0001:000524c0       xxx_lineGetConfRelatedCalls 100534c0 f   k.coredll_ALL:ttapi.obj
 0001:000524e4       xxx_lineGetIcon            100534e4 f   k.coredll_ALL:ttapi.obj
 0001:00052508       xxx_lineGetLineDevStatus   10053508 f   k.coredll_ALL:ttapi.obj
 0001:0005252c       xxx_lineGetMessage         1005352c f   k.coredll_ALL:ttapi.obj
 0001:00052550       xxx_lineGetNewCalls        10053550 f   k.coredll_ALL:ttapi.obj
 0001:00052574       xxx_lineGetNumRings        10053574 f   k.coredll_ALL:ttapi.obj
 0001:00052598       xxx_lineGetProviderList    10053598 f   k.coredll_ALL:ttapi.obj
 0001:000525bc       xxx_lineGetStatusMessages  100535bc f   k.coredll_ALL:ttapi.obj
 0001:000525e0       xxx_lineHandoff            100535e0 f   k.coredll_ALL:ttapi.obj
 0001:00052604       xxx_lineHold               10053604 f   k.coredll_ALL:ttapi.obj
 0001:00052628       xxx_lineMonitorDigits      10053628 f   k.coredll_ALL:ttapi.obj
 0001:0005264c       xxx_lineMonitorMedia       1005364c f   k.coredll_ALL:ttapi.obj
 0001:00052670       xxx_lineNegotiateExtVersion 10053670 f   k.coredll_ALL:ttapi.obj
 0001:000526ac       xxx_linePickup             100536ac f   k.coredll_ALL:ttapi.obj
 0001:000526e0       xxx_linePrepareAddToConference 100536e0 f   k.coredll_ALL:ttapi.obj
 0001:00052704       xxx_lineRedirect           10053704 f   k.coredll_ALL:ttapi.obj
 0001:00052728       xxx_lineReleaseUserUserInfo 10053728 f   k.coredll_ALL:ttapi.obj
 0001:0005274c       xxx_lineRemoveFromConference 1005374c f   k.coredll_ALL:ttapi.obj
 0001:00052770       xxx_lineSendUserUserInfo   10053770 f   k.coredll_ALL:ttapi.obj
 0001:00052794       xxx_lineSetAppPriority     10053794 f   k.coredll_ALL:ttapi.obj
 0001:000527d0       xxx_lineSetCallParams      100537d0 f   k.coredll_ALL:ttapi.obj
 0001:00052804       xxx_lineSetCallPrivilege   10053804 f   k.coredll_ALL:ttapi.obj
 0001:00052828       xxx_lineSetMediaMode       10053828 f   k.coredll_ALL:ttapi.obj
 0001:0005284c       xxx_lineSetNumRings        1005384c f   k.coredll_ALL:ttapi.obj
 0001:00052870       xxx_lineSetTerminal        10053870 f   k.coredll_ALL:ttapi.obj
 0001:000528b4       xxx_lineSetTollList        100538b4 f   k.coredll_ALL:ttapi.obj
 0001:000528d8       xxx_lineSetupConference    100538d8 f   k.coredll_ALL:ttapi.obj
 0001:00052914       xxx_lineSetupTransfer      10053914 f   k.coredll_ALL:ttapi.obj
 0001:00052938       xxx_lineSwapHold           10053938 f   k.coredll_ALL:ttapi.obj
 0001:0005295c       xxx_lineUnhold             1005395c f   k.coredll_ALL:ttapi.obj
 0001:00052980       xxx_lineShutdown           10053980 f   k.coredll_ALL:ttapi.obj
 0001:000529a4       xxx_phoneInitializeEx      100539a4 f   k.coredll_ALL:ttapi.obj
 0001:000529e8       xxx_phoneClose             100539e8 f   k.coredll_ALL:ttapi.obj
 0001:00052a0c       xxx_phoneConfigDialog      10053a0c f   k.coredll_ALL:ttapi.obj
 0001:00052a30       xxx_phoneDevSpecific       10053a30 f   k.coredll_ALL:ttapi.obj
 0001:00052a54       xxx_phoneGetDevCaps        10053a54 f   k.coredll_ALL:ttapi.obj
 0001:00052a88       xxx_phoneGetGain           10053a88 f   k.coredll_ALL:ttapi.obj
 0001:00052aac       xxx_phoneGetHookSwitch     10053aac f   k.coredll_ALL:ttapi.obj
 0001:00052ad0       xxx_phoneGetIcon           10053ad0 f   k.coredll_ALL:ttapi.obj
 0001:00052af4       xxx_phoneGetID             10053af4 f   k.coredll_ALL:ttapi.obj
 0001:00052b18       xxx_phoneGetMessage        10053b18 f   k.coredll_ALL:ttapi.obj
 0001:00052b3c       xxx_phoneGetRing           10053b3c f   k.coredll_ALL:ttapi.obj
 0001:00052b60       xxx_phoneGetStatus         10053b60 f   k.coredll_ALL:ttapi.obj
 0001:00052b84       xxx_phoneGetStatusMessages 10053b84 f   k.coredll_ALL:ttapi.obj
 0001:00052ba8       xxx_phoneGetVolume         10053ba8 f   k.coredll_ALL:ttapi.obj
 0001:00052bcc       xxx_phoneNegotiateAPIVersion 10053bcc f   k.coredll_ALL:ttapi.obj
 0001:00052c08       xxx_phoneNegotiateExtVersion 10053c08 f   k.coredll_ALL:ttapi.obj
 0001:00052c44       xxx_phoneOpen              10053c44 f   k.coredll_ALL:ttapi.obj
 0001:00052c88       xxx_phoneSetGain           10053c88 f   k.coredll_ALL:ttapi.obj
 0001:00052cac       xxx_phoneSetHookSwitch     10053cac f   k.coredll_ALL:ttapi.obj
 0001:00052cd0       xxx_phoneSetRing           10053cd0 f   k.coredll_ALL:ttapi.obj
 0001:00052cf4       xxx_phoneSetStatusMessages 10053cf4 f   k.coredll_ALL:ttapi.obj
 0001:00052d18       xxx_phoneSetVolume         10053d18 f   k.coredll_ALL:ttapi.obj
 0001:00052d3c       xxx_phoneShutdown          10053d3c f   k.coredll_ALL:ttapi.obj
 0001:00052d68       TapiUserThread             10053d68 f   k.coredll_ALL:tapilib.obj
 0001:00052e3c       appShutdown                10053e3c f   k.coredll_ALL:tapilib.obj
 0001:00052f50       lineShutdown               10053f50 f   k.coredll_ALL:tapilib.obj
 0001:00052f54       MapLINEERR2PHONEERR        10053f54 f   k.coredll_ALL:tapilib.obj
 0001:00052fe0       phoneShutdown              10053fe0 f   k.coredll_ALL:tapilib.obj
 0001:00052ff8       tapilib_open_event         10053ff8 f   k.coredll_ALL:tapilib.obj
 0001:000530c0       appInitializeEx            100540c0 f   k.coredll_ALL:tapilib.obj
 0001:000533a8       lineInitializeEx           100543a8 f   k.coredll_ALL:tapilib.obj
 0001:000533ec       phoneInitializeEx          100543ec f   k.coredll_ALL:tapilib.obj
 0001:00053434       lineInitialize             10054434 f   k.coredll_ALL:tapilib.obj
 0001:00053490       longjmp                    10054490 f   k.coredll_ALL:longjmp.obj
 0001:000535f8       mbstowcs                   100545f8 f   k.coredll_ALL:mbstowcs.obj
 0001:0005362c       mbstowcs_s                 1005462c f   k.coredll_ALL:mbstowcs.obj
 0001:0005373c       memchr                     1005473c     k.coredll_ALL:memchr_arm.obj
 0001:00053768       memcmp                     10054768     k.coredll_ALL:memcmp.obj
 0001:00053840       memcpy                     10054840 f   k.coredll_ALL:memcpy.obj
 0001:000541e0       memcpy_s                   100551e0 f   k.coredll_ALL:memcpy_s.obj
 0001:00054298       memmove                    10055298     k.coredll_ALL:memmove.obj
 0001:00054a28       memmovebigblk              10055a28     k.coredll_ALL:memmove.obj
 0001:000554c0       memmove_s                  100564c0 f   k.coredll_ALL:memmove_s.obj
 0001:00055554       memset                     10056554     k.coredll_ALL:memset.obj
 0001:000555dc       qsort                      100565dc f   k.coredll_ALL:qsort.obj
 0001:0005599c       qsort_s                    1005699c f   k.coredll_ALL:qsort_s.obj
 0001:00055d80       srand                      10056d80 f   k.coredll_ALL:rand.obj
 0001:00055d98       rand                       10056d98 f   k.coredll_ALL:rand.obj
 0001:00055dd8       rand_s                     10056dd8 f   k.coredll_ALL:rand_s.obj
 0001:00055eec       scanf_helper               10056eec f   k.coredll_ALL:scanf.obj
 0001:00055fa0       scanf                      10056fa0 f   k.coredll_ALL:scanf.obj
 0001:00055fc0       scanf_s                    10056fc0 f   k.coredll_ALL:scanf.obj
 0001:00055fe0       _setjmp                    10056fe0 f   k.coredll_ALL:setjmp.obj
 0001:00055fe0       setjmp                     10056fe0 f   k.coredll_ALL:setjmp.obj
 0001:00055ff0       setvbuf                    10056ff0 f   k.coredll_ALL:setvbuf.obj
 0001:000561a8       sscanf                     100571a8 f   k.coredll_ALL:sscanf.obj
 0001:000561c8       sscanf_s                   100571c8 f   k.coredll_ALL:sscanf.obj
 0001:000561e8       strcat                     100571e8     k.coredll_ALL:mdsstrcat.obj
 0001:00056210       strcat_s                   10057210 f   k.coredll_ALL:strcat_s.obj
 0001:000562fc       strchr                     100572fc     k.coredll_ALL:astrchr.obj
 0001:00056320       strcmp                     10057320     k.coredll_ALL:mdsstrcmp.obj
 0001:00056410       strcpy                     10057410     k.coredll_ALL:strcpy.obj
 0001:00056494       strcpy_s                   10057494 f   k.coredll_ALL:strcpy_s.obj
 0001:00056540       strcspn                    10057540 f   k.coredll_ALL:strcspn.obj
 0001:00056608       strlen                     10057608     k.coredll_ALL:mdsstrlen.obj
 0001:0005666c       strncat                    1005766c     k.coredll_ALL:astrncat.obj
 0001:000566a8       strncat_s                  100576a8 f   k.coredll_ALL:strncat_s.obj
 0001:00056818       strncmp                    10057818     k.coredll_ALL:astrncmp.obj
 0001:00056848       strncpy                    10057848     k.coredll_ALL:astrncpy.obj
 0001:000568f0       strncpy_s                  100578f0 f   k.coredll_ALL:strncpy_s.obj
 0001:00056a18       strnlen                    10057a18 f   k.coredll_ALL:strlen_s.obj
 0001:00056a48       strpbrk                    10057a48 f   k.coredll_ALL:strpbrk.obj
 0001:00056a94       strrchr                    10057a94 f   k.coredll_ALL:strrchr.obj
 0001:00056ae0       strspn                     10057ae0 f   k.coredll_ALL:strspn.obj
 0001:00056bb4       strstr                     10057bb4 f   k.coredll_ALL:strstr.obj
 0001:00056c30       strtod                     10057c30 f   k.coredll_ALL:strtod.obj
 0001:00056d40       strtok                     10057d40 f   k.coredll_ALL:strtok.obj
 0001:00056e6c       strtok_s                   10057e6c f   k.coredll_ALL:strtok_s.obj
 0001:00057224       strtol                     10058224 f   k.coredll_ALL:strtol.obj
 0001:0005722c       strtoul                    1005822c f   k.coredll_ALL:strtol.obj
 0001:000572dc       swscanf                    100582dc f   k.coredll_ALL:swscanf.obj
 0001:000572fc       swscanf_s                  100582fc f   k.coredll_ALL:swscanf.obj
 0001:0005731c       tolower                    1005831c f   k.coredll_ALL:tolower.obj
 0001:0005732c       toupper                    1005832c f   k.coredll_ALL:toupper.obj
 0001:0005733c       ungetc                     1005833c f   k.coredll_ALL:ungetc.obj
 0001:000573a8       ungetwc                    100583a8 f   k.coredll_ALL:ungetwc.obj
 0001:00057414       wcscat                     10058414 f   k.coredll_ALL:wcscat.obj
 0001:00057440       wcscat_s                   10058440 f   k.coredll_ALL:wcscat_s.obj
 0001:0005752c       wcschr                     1005852c f   k.coredll_ALL:wcschr.obj
 0001:00057558       wcscmp                     10058558 f   k.coredll_ALL:wcscmp.obj
 0001:000575a0       wcscpy                     100585a0 f   k.coredll_ALL:wcscpy.obj
 0001:000575b8       wcscpy_s                   100585b8 f   k.coredll_ALL:wcscpy_s.obj
 0001:0005765c       wcscspn                    1005865c f   k.coredll_ALL:wcscspn.obj
 0001:000576b4       wcslen                     100586b4 f   k.coredll_ALL:wcslen.obj
 0001:000576d4       wcsncat                    100586d4 f   k.coredll_ALL:wcsncat.obj
 0001:00057718       wcsncat_s                  10058718 f   k.coredll_ALL:wcsncat_s.obj
 0001:00057888       wcsncmp                    10058888 f   k.coredll_ALL:wcsncmp.obj
 0001:000578d4       wcsncpy                    100588d4 f   k.coredll_ALL:wcsncpy.obj
 0001:00057930       wcsncpy_s                  10058930 f   k.coredll_ALL:wcsncpy_s.obj
 0001:00057a58       wcsnlen                    10058a58 f   k.coredll_ALL:wcslen_s.obj
 0001:00057a88       wcspbrk                    10058a88 f   k.coredll_ALL:wcspbrk.obj
 0001:00057ad4       wcsrchr                    10058ad4 f   k.coredll_ALL:wcsrchr.obj
 0001:00057b0c       wcsspn                     10058b0c f   k.coredll_ALL:wcsspn.obj
 0001:00057b60       wcsstr                     10058b60 f   k.coredll_ALL:wcsstr.obj
 0001:00057be4       wcstod                     10058be4 f   k.coredll_ALL:wcstod.obj
 0001:00057d9c       wcstok                     10058d9c f   k.coredll_ALL:wcstok.obj
 0001:00057e7c       wcstok_s                   10058e7c f   k.coredll_ALL:wcstok_s.obj
 0001:0005821c       wcstol                     1005921c f   k.coredll_ALL:wcstol.obj
 0001:00058224       wcstoul                    10059224 f   k.coredll_ALL:wcstol.obj
 0001:00058424       wcstombs                   10059424 f   k.coredll_ALL:wcstombs.obj
 0001:00058458       wcstombs_s                 10059458 f   k.coredll_ALL:wcstombs.obj
 0001:00058578       wscanf_helper              10059578 f   k.coredll_ALL:wscanf.obj
 0001:0005862c       wscanf                     1005962c f   k.coredll_ALL:wscanf.obj
 0001:0005864c       wscanf_s                   1005964c f   k.coredll_ALL:wscanf.obj
 0001:0005866c       wvsprintfW                 1005966c f   k.coredll_ALL:wsprintf.obj
 0001:000586a8       wsprintfW                  100596a8 f   k.coredll_ALL:wsprintf.obj
 0001:000586c4       ?MatchNode@@YAHPAU_DLIST@@PAX@Z 100596c4 f   k.coredll_ALL:cetls.obj
 0001:000586fc       ?DestroyNode@@YAHPAU_DLIST@@PAX@Z 100596fc f   k.coredll_ALL:cetls.obj
 0001:000587b0       CeTlsCoreInit              100597b0 f   k.coredll_ALL:cetls.obj
 0001:00058814       CeTlsFreeInCurrentThread   10059814 f   k.coredll_ALL:cetls.obj
 0001:000588b0       CeTlsThreadExit            100598b0 f   k.coredll_ALL:cetls.obj
 0001:00058954       CeTlsFreeInAllThreads      10059954 f   k.coredll_ALL:cetls.obj
 0001:00058990       CeTlsSetCleanupFunction    10059990 f   k.coredll_ALL:cetls.obj
 0001:000589e8       PCBFunctionArea            100599e8 f   k.coredll_ALL:armpcb.obj
 0001:00058a1c       MultiCorePCBGetDwordAtOffset 10059a1c f   k.coredll_ALL:armpcb.obj
 0001:00058a68       MultiCoreGetPCB            10059a68 f   k.coredll_ALL:armpcb.obj
 0001:00058a70       __PCBGetDwordAtOffset      10059a70 f   k.coredll_ALL:armpcb.obj
 0001:00058a78       PCBSetDwordAtOffset        10059a78 f   k.coredll_ALL:armpcb.obj
 0001:00058a80       PCBAddAtOffset             10059a80 f   k.coredll_ALL:armpcb.obj
 0001:00058a88       __GetPCB                   10059a88 f   k.coredll_ALL:armpcb.obj
 0001:00058a90       InitPCBFunctions           10059a90 f   k.coredll_ALL:armpcb.obj
 0001:00058b3c       ?DefaultImeWndGetInOwnerProcess@@YAPAUHWND__@@XZ 10059b3c f   k.coredll_ALL:immpriv.obj
 0001:00058bf0       ?ImmGetIMCLockCountInOwnerProcess@@YAKK@Z 10059bf0 f   k.coredll_ALL:immpriv.obj
 0001:00058ca4       ?ImmCreateIMCCInOwnerProcess@@YAKK@Z 10059ca4 f   k.coredll_ALL:immpriv.obj
 0001:00058d58       ?ImmDestroyIMCCInOwnerProcess@@YAKK@Z 10059d58 f   k.coredll_ALL:immpriv.obj
 0001:00058e0c       ?ImmReSizeIMCCInOwnerProcess@@YAKKK@Z 10059e0c f   k.coredll_ALL:immpriv.obj
 0001:00058ec4       ?ImmGetIMCCSizeInOwnerProcess@@YAKK@Z 10059ec4 f   k.coredll_ALL:immpriv.obj
 0001:00058f78       ?ImmCreateContextInOwnerProcess@@YAKXZ 10059f78 f   k.coredll_ALL:immpriv.obj
 0001:0005902c       ?ImmLockIMCInOwnerProcess@@YAPAUtagINPUTCONTEXT@@K@Z 1005a02c f   k.coredll_ALL:immpriv.obj
 0001:000590e0       ?ImmUnlockIMCInOwnerProcess@@YAHK@Z 1005a0e0 f   k.coredll_ALL:immpriv.obj
 0001:000591a0       ?ImmDestroyContextInOwnerProcess@@YAHK@Z 1005a1a0 f   k.coredll_ALL:immpriv.obj
 0001:00059260       ?ImmGetOpenStatusInOwnerProcess@@YAHK@Z 1005a260 f   k.coredll_ALL:immpriv.obj
 0001:00059320       ?ImmSetOpenStatusInOwnerProcess@@YAHKH@Z 1005a320 f   k.coredll_ALL:immpriv.obj
 0001:000593e4       ?DefaultImcGetInOwnerProcess@@YAKXZ 1005a3e4 f   k.coredll_ALL:immpriv.obj
 0001:00059498       ?ImmSetActiveContextInOwnerProcess@@YAHPAUHWND__@@KH@Z 1005a498 f   k.coredll_ALL:immpriv.obj
 0001:00059560       ?ImmAssociateContextInOwnerProcess@@YAKPAUHWND__@@K@Z 1005a560 f   k.coredll_ALL:immpriv.obj
 0001:00059618       ?ImmAssociateContextExInOwnerProcess@@YAHPAUHWND__@@KK@Z 1005a618 f   k.coredll_ALL:immpriv.obj
 0001:000596e0       ?ImmGetCandidateWindowInOwnerProcess@@YAHKKPAUtagCANDIDATEFORM@@@Z 1005a6e0 f   k.coredll_ALL:immpriv.obj
 0001:00059854       ?ImmGetCompositionFontWInOwnerProcess@@YAHKPAUtagLOGFONTW@@@Z 1005a854 f   k.coredll_ALL:immpriv.obj
 0001:000599c4       ?ImmGetCompositionWindowInOwnerProcess@@YAHKPAUtagCOMPOSITIONFORM@@@Z 1005a9c4 f   k.coredll_ALL:immpriv.obj
 0001:00059b34       ?ImmGetConversionStatusInOwnerProcess@@YAHKPAK0@Z 1005ab34 f   k.coredll_ALL:immpriv.obj
 0001:00059cd0       ?ImmGetStatusWindowPosInOwnerProcess@@YAHKPAUtagPOINT@@@Z 1005acd0 f   k.coredll_ALL:immpriv.obj
 0001:00059e40       ?ImmGetCompositionStringWInOwnerProcess@@YAJKKPAXK@Z 1005ae40 f   k.coredll_ALL:immpriv.obj
 0001:0005a018       ?ImmGetCandidateListCountWInOwnerProcess@@YAKKPAK@Z 1005b018 f   k.coredll_ALL:immpriv.obj
 0001:0005a184       ?ImmGetCandidateListWInOwnerProcess@@YAKKKPAUtagCANDIDATELIST@@K@Z 1005b184 f   k.coredll_ALL:immpriv.obj
 0001:0005a354       ?ImmGetGuideLineWInOwnerProcess@@YAKKKPAGK@Z 1005b354 f   k.coredll_ALL:immpriv.obj
 0001:0005a51c       ?ImmSetCandidateWindowInOwnerProcess@@YAHKPAUtagCANDIDATEFORM@@@Z 1005b51c f   k.coredll_ALL:immpriv.obj
 0001:0005a688       ?ImmSetCompositionFontWInOwnerProcess@@YAHKPAUtagLOGFONTW@@@Z 1005b688 f   k.coredll_ALL:immpriv.obj
 0001:0005a7f4       ?ImmSetCompositionWindowInOwnerProcess@@YAHKPAUtagCOMPOSITIONFORM@@@Z 1005b7f4 f   k.coredll_ALL:immpriv.obj
 0001:0005a960       ?ImmSetConversionStatusInOwnerProcess@@YAHKKK@Z 1005b960 f   k.coredll_ALL:immpriv.obj
 0001:0005aa28       ?ImmSetStatusWindowPosInOwnerProcess@@YAHKPAUtagPOINT@@@Z 1005ba28 f   k.coredll_ALL:immpriv.obj
 0001:0005ab94       ?ImmSetCompositionStringWInOwnerProcess@@YAHKKPBXK0K@Z 1005bb94 f   k.coredll_ALL:immpriv.obj
 0001:0005af4c       ?ImmGetConversionListWInOwnerProcess@@YAKPAUHKL__@@KPBGPAUtagCANDIDATELIST@@KI@Z 1005bf4c f   k.coredll_ALL:immpriv.obj
 0001:0005b230       ?ImmGetDefaultIMEWndInOwnerProcess@@YAPAUHWND__@@PAU1@@Z 1005c230 f   k.coredll_ALL:immpriv.obj
 0001:0005b2e4       ?ImmGenerateMessageInOwnerProcess@@YAHK@Z 1005c2e4 f   k.coredll_ALL:immpriv.obj
 0001:0005b3a4       ?ImmGetVirtualKeyInOwnerProcess@@YAIPAUHWND__@@@Z 1005c3a4 f   k.coredll_ALL:immpriv.obj
 0001:0005b458       ?ImmGetKeyboardLayoutInOwnerProcess@@YAPAUHKL__@@K@Z 1005c458 f   k.coredll_ALL:immpriv.obj
 0001:0005b50c       ?ImmEnableIMEInOwnerProcess@@YAHK@Z 1005c50c f   k.coredll_ALL:immpriv.obj
 0001:0005b5cc       ?ImmDisableIMEInOwnerProcess@@YAHK@Z 1005c5cc f   k.coredll_ALL:immpriv.obj
 0001:0005b68c       ?ImmNotifyIMEInOwnerProcess@@YAHKKKK@Z 1005c68c f   k.coredll_ALL:immpriv.obj
 0001:0005b758       ?ImmEscapeWInOwnerProcess@@YAJPAUHKL__@@KIPAX@Z 1005c758 f   k.coredll_ALL:immpriv.obj
 0001:0005b818       ?ImmActivateLayoutInOwnerProcess@@YAHPAUHKL__@@@Z 1005c818 f   k.coredll_ALL:immpriv.obj
 0001:0005b8d8       ?ImmSendNotificationInOwnerProcess@@YAHXZ 1005c8d8 f   k.coredll_ALL:immpriv.obj
 0001:0005b998       ?ImmRegisterWordWInOwnerProcess@@YAHPAUHKL__@@PBGK1@Z 1005c998 f   k.coredll_ALL:immpriv.obj
 0001:0005bd28       ?ImmUnregisterWordWInOwnerProcess@@YAHPAUHKL__@@PBGK1@Z 1005cd28 f   k.coredll_ALL:immpriv.obj
 0001:0005c0b8       ?ImmGetRegisterWordStyleWInOwnerProcess@@YAIPAUHKL__@@IPAUtagSTYLEBUFW@@@Z 1005d0b8 f   k.coredll_ALL:immpriv.obj
 0001:0005c288       ?ImmEnumRegisterWordWInOwnerProcess@@YAIPAUHKL__@@P6AHPBGK1PAX@Z1K12@Z 1005d288 f   k.coredll_ALL:immpriv.obj
 0001:0005c6b4       ?ImmConfigureIMEWInOwnerProcess@@YAHPAUHKL__@@PAUHWND__@@KPAX@Z 1005d6b4 f   k.coredll_ALL:immpriv.obj
 0001:0005ca74       ?ImmGetImeMenuItemsWInOwnerProcess@@YAKKKKPAUtagIMEMENUITEMINFOW@@0K@Z 1005da74 f   k.coredll_ALL:immpriv.obj
 0001:0005cd94       ?ImmIsIMEInOwnerProcess@@YAHPAUHKL__@@@Z 1005dd94 f   k.coredll_ALL:immpriv.obj
 0001:0005ce54       ?ImmGetIMEFileNameWInOwnerProcess@@YAIPAUHKL__@@PAGI@Z 1005de54 f   k.coredll_ALL:immpriv.obj
 0001:0005d01c       ?ImmGetDescriptionWInOwnerProcess@@YAIPAUHKL__@@PAGI@Z 1005e01c f   k.coredll_ALL:immpriv.obj
 0001:0005d1e4       ?ImmGetUIClassNameInOwnerProcess@@YAPAGXZ 1005e1e4 f   k.coredll_ALL:immpriv.obj
 0001:0005d298       ?ImmGetPropertyInOwnerProcess@@YAKPAUHKL__@@K@Z 1005e298 f   k.coredll_ALL:immpriv.obj
 0001:0005d350       ?ImmSimulateHotKeyInOwnerProcess@@YAHPAUHWND__@@K@Z 1005e350 f   k.coredll_ALL:immpriv.obj
 0001:0005d414       ?ImmTranslateMessageInOwnerProcess@@YAHPAUHWND__@@IIJHIIPAH@Z 1005e414 f   k.coredll_ALL:immpriv.obj
 0001:0005d5c0       ?ImmProcessKeyInOwnerProcess@@YAKPAUHWND__@@IJKIPAU_GUID@@@Z 1005e5c0 f   k.coredll_ALL:immpriv.obj
 0001:0005d74c       ?ImmSetImeWndIMCInOwnerProcess@@YAXKPAUHWND__@@@Z 1005e74c f   k.coredll_ALL:immpriv.obj
 0001:0005d7d8       ?ImmRequestMessageWInOwnerProcess@@YAJKIJ@Z 1005e7d8 f   k.coredll_ALL:immpriv.obj
 0001:0005d894       ?ImmUpdateHKLListInOwnerProcess@@YAHXZ 1005e894 f   k.coredll_ALL:immpriv.obj
 0001:0005d94c       ?LoadIme@ImeInfoEntry@@QAAXXZ 1005e94c f   k.coredll_ALL:IMELoader.obj
 0001:0005d958       ?UnloadIme@ImeInfoEntry@@QAAXXZ 1005e958 f   k.coredll_ALL:IMELoader.obj
 0001:0005d95c       ?Destructor@_HeapManager@@QAAXXZ 1005e95c f i k.coredll_ALL:undname.obj
 0001:0005d9a0       ?getNumberOfDimensions@UnDecorator@@CAHXZ 1005e9a0 f   k.coredll_ALL:undname.obj
 0001:0005da30       ?getTypeEncoding@UnDecorator@@CAHXZ 1005ea30 f i k.coredll_ALL:undname.obj
 0001:0005de40       ?getMemory@_HeapManager@@QAAPAXIH@Z 1005ee40 f   k.coredll_ALL:undname.obj
 0001:0005def0       ?length@charNode@@UBAHXZ   1005eef0 f i k.coredll_ALL:undname.obj
 0001:0005def8       ?getLastChar@charNode@@UBADXZ 1005eef8 f i k.coredll_ALL:undname.obj
 0001:0005df00       ?getString@charNode@@UBAPADPAD0@Z 1005ef00 f i k.coredll_ALL:undname.obj
 0001:0005df14       ??0pDNameNode@@QAA@PAVDName@@@Z 1005ef14 f   k.coredll_ALL:undname.obj
 0001:0005df48       ?length@pDNameNode@@UBAHXZ 1005ef48 f i k.coredll_ALL:undname.obj
 0001:0005df7c       ?getLastChar@pDNameNode@@UBADXZ 1005ef7c f i k.coredll_ALL:undname.obj
 0001:0005dfb0       ?getString@pDNameNode@@UBAPADPAD0@Z 1005efb0 f i k.coredll_ALL:undname.obj
 0001:0005dfe4       ?length@DNameStatusNode@@UBAHXZ 1005efe4 f i k.coredll_ALL:undname.obj
 0001:0005dfec       ?getLastChar@DNameStatusNode@@UBADXZ 1005efec f i k.coredll_ALL:undname.obj
 0001:0005e000       ?make@DNameStatusNode@@SAPAV1@W4DNameStatus@@@Z 1005f000 f i k.coredll_ALL:undname.obj
 0001:0005e08c       ?length@pairNode@@UBAHXZ   1005f08c f i k.coredll_ALL:undname.obj
 0001:0005e0d8       ?getLastChar@pairNode@@UBADXZ 1005f0d8 f i k.coredll_ALL:undname.obj
 0001:0005e108       ?getString@pairNode@@UBAPADPAD0@Z 1005f108 f i k.coredll_ALL:undname.obj
 0001:0005e154       ??0UnDecorator@@QAA@PADPBDHP6APADJ@ZK@Z 1005f154 f i k.coredll_ALL:undname.obj
 0001:0005e1b4       ?getDataIndirectType@UnDecorator@@CA?AVDName@@XZ 1005f1b4 f i k.coredll_ALL:undname.obj
 0001:0005e210       ?getThisType@UnDecorator@@CA?AVDName@@XZ 1005f210 f i k.coredll_ALL:undname.obj
 0001:0005e26c       ??0DName@@QAA@PAV0@@Z      1005f26c f   k.coredll_ALL:undname.obj
 0001:0005e2e8       ??0DName@@QAA@W4DNameStatus@@@Z 1005f2e8 f   k.coredll_ALL:undname.obj
 0001:0005e340       ?getString@DName@@QBAPADPADH@Z 1005f340 f i k.coredll_ALL:undname.obj
 0001:0005e3d8       ?append@DName@@AAAXPAVDNameNode@@@Z 1005f3d8 f   k.coredll_ALL:undname.obj
 0001:0005e434       ??4DName@@QAAAAV0@W4DNameStatus@@@Z 1005f434 f   k.coredll_ALL:undname.obj
 0001:0005e488       ??YReplicator@@QAAAAV0@ABVDName@@@Z 1005f488 f   k.coredll_ALL:undname.obj
 0001:0005e4f8       ??AReplicator@@QBA?AVDName@@H@Z 1005f4f8 f   k.coredll_ALL:undname.obj
 0001:0005e55c       ??0pcharNode@@QAA@PBDH@Z   1005f55c f   k.coredll_ALL:undname.obj
 0001:0005e5e0       ?length@pcharNode@@UBAHXZ  1005f5e0 f i k.coredll_ALL:undname.obj
 0001:0005e5e8       ?getLastChar@pcharNode@@UBADXZ 1005f5e8 f i k.coredll_ALL:undname.obj
 0001:0005e604       ?getString@pcharNode@@UBAPADPAD0@Z 1005f604 f i k.coredll_ALL:undname.obj
 0001:0005e648       ?getString@DNameStatusNode@@UBAPADPAD0@Z 1005f648 f i k.coredll_ALL:undname.obj
 0001:0005e6a0       ?getReturnType@UnDecorator@@CA?AVDName@@PAV2@@Z 1005f6a0 f   k.coredll_ALL:undname.obj
 0001:0005e6e8       ??YDName@@QAAAAV0@W4DNameStatus@@@Z 1005f6e8 f   k.coredll_ALL:undname.obj
 0001:0005e74c       ?doPchar@DName@@AAAXPBDH@Z 1005f74c f   k.coredll_ALL:undname.obj
 0001:0005e814       ??0DName@@QAA@D@Z          1005f814 f   k.coredll_ALL:undname.obj
 0001:0005e854       ??0DName@@QAA@PBD@Z        1005f854 f   k.coredll_ALL:undname.obj
 0001:0005e8ac       ??0DName@@QAA@AAPBDD@Z     1005f8ac f   k.coredll_ALL:undname.obj
 0001:0005e9fc       ??0DName@@QAA@_K@Z         1005f9fc f   k.coredll_ALL:undname.obj
 0001:0005eab4       ??0DName@@QAA@_J@Z         1005fab4 f   k.coredll_ALL:undname.obj
 0001:0005eb90       ??YDName@@QAAAAV0@ABV0@@Z  1005fb90 f   k.coredll_ALL:undname.obj
 0001:0005ebf4       ??4DName@@QAAAAV0@D@Z      1005fbf4 f i k.coredll_ALL:undname.obj
 0001:0005ec34       ??4DName@@QAAAAV0@PBD@Z    1005fc34 f   k.coredll_ALL:undname.obj
 0001:0005ec80       ?getCallingConvention@UnDecorator@@CA?AVDName@@XZ 1005fc80 f   k.coredll_ALL:undname.obj
 0001:0005ee14       ?getVCallThunkType@UnDecorator@@CA?AVDName@@XZ 1005fe14 f i k.coredll_ALL:undname.obj
 0001:0005ee8c       ??YDName@@QAAAAV0@D@Z      1005fe8c f   k.coredll_ALL:undname.obj
 0001:0005ef04       ??YDName@@QAAAAV0@PBD@Z    1005ff04 f   k.coredll_ALL:undname.obj
 0001:0005efa4       ?getArgumentList@UnDecorator@@CA?AVDName@@XZ 1005ffa4 f   k.coredll_ALL:undname.obj
 0001:0005f0f8       ?getVdispMapType@UnDecorator@@CA?AVDName@@ABV2@@Z 100600f8 f i k.coredll_ALL:undname.obj
 0001:0005f16c       ??H@YA?AVDName@@DABV0@@Z   1006016c f i k.coredll_ALL:undname.obj
 0001:0005f1b0       ??H@YA?AVDName@@W4DNameStatus@@ABV0@@Z 100601b0 f i k.coredll_ALL:undname.obj
 0001:0005f1f4       ??H@YA?AVDName@@PBDABV0@@Z 100601f4 f i k.coredll_ALL:undname.obj
 0001:0005f238       ?getDimension@UnDecorator@@CA?AVDName@@_N@Z 10060238 f   k.coredll_ALL:undname.obj
 0001:0005f3ac       ?getEnumType@UnDecorator@@CA?AVDName@@XZ 100603ac f i k.coredll_ALL:undname.obj
 0001:0005f4cc       ?getArgumentTypes@UnDecorator@@CA?AVDName@@XZ 100604cc f   k.coredll_ALL:undname.obj
 0001:0005f604       ?getThrowTypes@UnDecorator@@CA?AVDName@@XZ 10060604 f   k.coredll_ALL:undname.obj
 0001:0005f6d0       ?getExtendedDataIndirectType@UnDecorator@@CA?AVDName@@AAPBDAA_NH@Z 100606d0 f   k.coredll_ALL:undname.obj
 0001:0005f8e8       ?getArrayType@UnDecorator@@CA?AVDName@@ABV2@@Z 100608e8 f i k.coredll_ALL:undname.obj
 0001:0005fb80       ?getLexicalFrame@UnDecorator@@CA?AVDName@@XZ 10060b80 f i k.coredll_ALL:undname.obj
 0001:0005fbd4       ?getVfTableType@UnDecorator@@CA?AVDName@@ABV2@@Z 10060bd4 f i k.coredll_ALL:undname.obj
 0001:0005fdac       ?getStringEncoding@UnDecorator@@CA?AVDName@@PADH@Z 10060dac f   k.coredll_ALL:undname.obj
 0001:0005fe98       ?getSignedDimension@UnDecorator@@CA?AVDName@@XZ 10060e98 f   k.coredll_ALL:undname.obj
 0001:0005ff18       ?getTemplateConstant@UnDecorator@@CA?AVDName@@XZ 10060f18 f   k.coredll_ALL:undname.obj
 0001:0006029c       ?getPtrRefDataType@UnDecorator@@CA?AVDName@@ABV2@H@Z 1006129c f i k.coredll_ALL:undname.obj
 0001:000603b4       ?getTemplateArgumentList@UnDecorator@@CA?AVDName@@XZ 100613b4 f   k.coredll_ALL:undname.obj
 0001:00060610       ?getOperatorName@UnDecorator@@CA?AVDName@@_NPA_N@Z 10061610 f i k.coredll_ALL:undname.obj
 0001:00060d24       ?getTemplateName@UnDecorator@@CA?AVDName@@_N@Z 10061d24 f   k.coredll_ALL:undname.obj
 0001:00060eb0       ?getZName@UnDecorator@@CA?AVDName@@_N0@Z 10061eb0 f   k.coredll_ALL:undname.obj
 0001:00061174       ?getScopedName@UnDecorator@@CA?AVDName@@XZ 10062174 f   k.coredll_ALL:undname.obj
 0001:000612e4       ?getECSUDataType@UnDecorator@@CA?AVDName@@XZ 100622e4 f   k.coredll_ALL:undname.obj
 0001:00061450       ?getSymbolName@UnDecorator@@CA?AVDName@@XZ 10062450 f i k.coredll_ALL:undname.obj
 0001:000614bc       ?getBasedType@UnDecorator@@CA?AVDName@@XZ 100624bc f   k.coredll_ALL:undname.obj
 0001:000615a8       ?composeDeclaration@UnDecorator@@CA?AVDName@@ABV2@@Z 100625a8 f i k.coredll_ALL:undname.obj
 0001:000622fc       ?getDecoratedName@UnDecorator@@CA?AVDName@@XZ 100632fc f   k.coredll_ALL:undname.obj
 0001:000625c0       ?getScope@UnDecorator@@CA?AVDName@@XZ 100635c0 f   k.coredll_ALL:undname.obj
 0001:000629b0       ?getFunctionIndirectType@UnDecorator@@CA?AVDName@@ABV2@@Z 100639b0 f   k.coredll_ALL:undname.obj
 0001:00062dfc       ?getDataIndirectType@UnDecorator@@CA?AVDName@@ABV2@PBD0H@Z 10063dfc f   k.coredll_ALL:undname.obj
 0001:000635d0       ??BUnDecorator@@QAAPADXZ   100645d0 f i k.coredll_ALL:undname.obj
 0001:000637a4       ?getPtrRefType@UnDecorator@@CA?AVDName@@ABV2@0PBD@Z 100647a4 f   k.coredll_ALL:undname.obj
 0001:000638fc       __unDName                  100648fc f   k.coredll_ALL:undname.obj
 0001:00063980       ?getBasicDataType@UnDecorator@@CA?AVDName@@ABV2@@Z 10064980 f   k.coredll_ALL:undname.obj
 0001:00063dfc       ?getPrimaryDataType@UnDecorator@@CA?AVDName@@ABV2@@Z 10064dfc f   k.coredll_ALL:undname.obj
 0001:00063fe8       ?getDataType@UnDecorator@@CA?AVDName@@PAV2@@Z 10064fe8 f   k.coredll_ALL:undname.obj
 0001:000640dc       ?getExternalDataType@UnDecorator@@CA?AVDName@@ABV2@@Z 100650dc f i k.coredll_ALL:undname.obj
 0001:00064184       _CRTDLL_INIT               10065184 f   k.coredll_ALL:crtlib.obj
 0001:00064230       InitStdio                  10065230 f   k.coredll_ALL:crtlib.obj
 0001:000642b4       _CallSettingFrame          100652b4     k.coredll_ALL:handlers.obj
 0001:000642f4       ?FindFrameForUnwind@@YAPAKPAKPBU_s_FuncInfo@@@Z 100652f4 f   k.coredll_ALL:mdframe.obj
 0001:0006432c       ?FindCatchFrame@@YAPAKPAKK@Z 1006532c f   k.coredll_ALL:mdframe.obj
 0001:00064364       ?AdjustFrameForCatch@@YAPAKPAKPBU_s_FuncInfo@@@Z 10065364 f   k.coredll_ALL:mdframe.obj
 0001:0006439c       ?GetCurrentState@@YAHPAKPAU_DISPATCHER_CONTEXT@@PBU_s_FuncInfo@@@Z 1006539c f   k.coredll_ALL:ehstate.obj
 0001:000643f0       DWORDToBigEndian           100653f0 f   k.coredll_ALL:uint4.obj
 0001:00064468       ?IsAppVerifierEnabled@@YAHXZ 10065468 f   k.coredll_ALL:AppVerifier.obj
 0001:0006452c       ?IsAppVerifierBinary@@YAHPAU_USERMODULELIST@@@Z 1006552c f   k.coredll_ALL:AppVerifier.obj
 0001:000645cc       ?PlainNamePart2@@YAPBGPBGH@Z 100655cc f   k.coredll_ALL:AppVerifier.obj
 0001:0006460c       ?GetFunctionTable@@YAPAGPAUHINSTANCE__@@@Z 1006560c f   k.coredll_ALL:AppVerifier.obj
 0001:00064654       ?LoadShim@@YAPAU_SHIM_INFO@@PBG@Z 10065654 f   k.coredll_ALL:AppVerifier.obj
 0001:00064710       ?FreeShim@@YAXPAU_SHIM_INFO@@@Z 10065710 f   k.coredll_ALL:AppVerifier.obj
 0001:00064758       ?DoesShimProvideThisFunction@@YAHPAU_SHIM_INFO@@PBGKK@Z 10065758 f   k.coredll_ALL:AppVerifier.obj
 0001:00064838       ?ShouldShimThisFunction@@YAPAU_SHIM_INFO@@PAU_MODULE_INFO@@PBGKK@Z 10065838 f   k.coredll_ALL:AppVerifier.obj
 0001:0006488c       ?OpenShimKey@@YAPAUHKEY__@@PBGH@Z 1006588c f   k.coredll_ALL:AppVerifier.obj
 0001:00064980       ?LoadShimsFromRegistry@@YAPAU_SHIM_INFO@@PAUHKEY__@@PAU_MODULE_INFO@@@Z 10065980 f   k.coredll_ALL:AppVerifier.obj
 0001:00064a8c       ?MergeShimInfoLists@@YAPAU_SHIM_INFO@@PAU1@0@Z 10065a8c f   k.coredll_ALL:AppVerifier.obj
 0001:00064ad0       ?LoadAllShims@@YAPAU_SHIM_INFO@@PAU_MODULE_INFO@@@Z 10065ad0 f   k.coredll_ALL:AppVerifier.obj
 0001:00064c04       ?GetModuleInfo@@YAPAU_MODULE_INFO@@K@Z 10065c04 f   k.coredll_ALL:AppVerifier.obj
 0001:00064c44       ?AddModuleInfo@@YAPAU_MODULE_INFO@@PBGPAU_USERMODULELIST@@@Z 10065c44 f   k.coredll_ALL:AppVerifier.obj
 0001:00064d04       ?FreeModuleInfo@@YAXPAU_MODULE_INFO@@@Z 10065d04 f   k.coredll_ALL:AppVerifier.obj
 0001:00064d48       ?AppVerifierDoLoadLibrary@@YAXPAU_USERMODULELIST@@PBG@Z 10065d48 f   k.coredll_ALL:AppVerifier.obj
 0001:00064e40       ?AppVerifierDoImports@@YAHPAU_USERMODULELIST@@KPBUinfo@@H@Z 10065e40 f   k.coredll_ALL:AppVerifier.obj
 0001:000650a0       ?AppVerifierUnDoDepends@@YAXPAU_USERMODULELIST@@@Z 100660a0 f   k.coredll_ALL:AppVerifier.obj
 0001:0006512c       ?AppVerifierDoNotify@@YAXPAU_USERMODULELIST@@K@Z 1006612c f   k.coredll_ALL:AppVerifier.obj
 0001:000651d0       ?AppVerifierUnlockLoader@@YAXXZ 100661d0 f   k.coredll_ALL:AppVerifier.obj
 0001:000651d4       ?AttachToRunning@@YAHPAU_USERMODULELIST@@@Z 100661d4 f   k.coredll_ALL:AppVerifier.obj
 0001:00065210       ?AppVerifierIoControl@@YAHKPAXK0KPAK@Z 10066210 f   k.coredll_ALL:AppVerifier.obj
 0001:00065238       xxx_SystemParametersInfo_GWE 10066238 f   k.coredll_ALL:tsystemparametersinfo.obj
 0001:00065254       InitPath                   10066254 f   k.coredll_ALL:cnnclpth.obj
 0001:00065264       PushPathNode               10066264 f   k.coredll_ALL:cnnclpth.obj
 0001:000652cc       PopPathNode                100662cc f   k.coredll_ALL:cnnclpth.obj
 0001:00065300       GetPathLength              10066300 f   k.coredll_ALL:cnnclpth.obj
 0001:00065344       PopPath                    10066344 f   k.coredll_ALL:cnnclpth.obj
 0001:0006543c       GetPathNodeType            1006643c f   k.coredll_ALL:cnnclpth.obj
 0001:0006548c       GetPathType                1006648c f   k.coredll_ALL:cnnclpth.obj
 0001:000654f8       GetIndexOfNextDirectoryInPath 100664f8 f   k.coredll_ALL:cnnclpth.obj
 0001:00065548       GetIndexOfNextPathNodeInPath 10066548 f   k.coredll_ALL:cnnclpth.obj
 0001:00065594       KDbgSanitize               10066594 f i k.coredll_ALL:unwind.obj
 0001:000672a4       RtlVirtualUnwind           100682a4 f   k.coredll_ALL:unwind.obj
 0001:000673e8       InitializeVirtualNls       100683e8 f   k.coredll_ALL:VirtualNlsFileSet.obj
 0001:000673fc       SetVirtualNlsReady         100683fc f   k.coredll_ALL:VirtualNlsFileSet.obj
 0001:00067410       IsVirtualNlsReady          10068410 f   k.coredll_ALL:VirtualNlsFileSet.obj
 0001:00067420       loadNlsSegment             10068420 f   k.coredll_ALL:VirtualNlsFileSet.obj
 0001:000674d8       addNlsSegment              100684d8 f   k.coredll_ALL:VirtualNlsFileSet.obj
 0001:0006763c       FindAndAddNlsSegments      1006863c f   k.coredll_ALL:VirtualNlsFileSet.obj
 0001:00067750       AddBaseNls                 10068750 f   k.coredll_ALL:VirtualNlsFileSet.obj
 0001:00067880       SegmentSupportsLocale      10068880 f   k.coredll_ALL:VirtualNlsFileSet.obj
 0001:000678ec       FindCpNode                 100688ec f   k.coredll_ALL:nlstable.obj
 0001:00067928       GetCodePageDLLPathName     10068928 f   k.coredll_ALL:nlstable.obj
 0001:00067a04       LoadCodePageAsDLL          10068a04 f   k.coredll_ALL:nlstable.obj
 0001:00067a90       IsDLL                      10068a90 f   k.coredll_ALL:nlstable.obj
 0001:00067aac       GetCodePageDllInfo         10068aac f   k.coredll_ALL:nlstable.obj
 0001:00067b2c       GetCPHashNode              10068b2c f   k.coredll_ALL:nlstable.obj
 0001:00067b48       UTFCPInfo                  10068b48 f   k.coredll_ALL:utf.obj
 0001:00067bd8       UTF7ToUnicode              10068bd8 f   k.coredll_ALL:utf.obj
 0001:00067d70       UTF8ToUnicode              10068d70 f   k.coredll_ALL:utf.obj
 0001:00067fe8       UnicodeToUTF7              10068fe8 f   k.coredll_ALL:utf.obj
 0001:00068200       UnicodeToUTF8              10069200 f   k.coredll_ALL:utf.obj
 0001:00068644       UTFToUnicode               10069644 f   k.coredll_ALL:utf.obj
 0001:00068750       UnicodeToUTF               10069750 f   k.coredll_ALL:utf.obj
 0001:00068844       InitSortingGlobals         10069844 f   k.coredll_ALL:sorting.obj
 0001:0006886c       NlsCompareInvariantNoCase  1006986c f   k.coredll_ALL:sorting.obj
 0001:0006891c       GetSortHashValue           1006991c f i k.coredll_ALL:sorting.obj
 0001:0006896c       FindSortHashNode           1006996c f i k.coredll_ALL:sorting.obj
 0001:00068a04       InsertSortHashNode         10069a04 f   k.coredll_ALL:sorting.obj
 0001:00068ab8       DefaultSortVersion         10069ab8 f i k.coredll_ALL:sorting.obj
 0001:00068b1c       VersionValue               10069b1c f i k.coredll_ALL:sorting.obj
 0001:00068b60       InitSortingDll             10069b60 f   k.coredll_ALL:sorting.obj
 0001:00068be4       MakeSortHashNode           10069be4 f   k.coredll_ALL:sorting.obj
 0001:00068d3c       GetSortNode                10069d3c f   k.coredll_ALL:sorting.obj
 0001:00068df8       SortCompareStringEx        10069df8 f   k.coredll_ALL:sorting.obj
 0001:00068e90       SortIsDefinedString        10069e90 f   k.coredll_ALL:sorting.obj
 0001:00068f10       SortCompareStringOrdinal   10069f10 f   k.coredll_ALL:sorting.obj
 0001:00068fa4       SortFindStringOrdinal      10069fa4 f   k.coredll_ALL:sorting.obj
 0001:00069040       SortGetSortKey             1006a040 f   k.coredll_ALL:sorting.obj
 0001:000690d8       SortChangeCase             1006a0d8 f   k.coredll_ALL:sorting.obj
 0001:00069440       ?DllHeapDoImports@@YAHPAU_MODULE@@KPBUinfo@@@Z 1006a440 f   k.coredll_ALL:dllheapfunc.obj
 0001:0006949c       InitFuncTableLocale        1006a49c f   k.coredll_ALL:wrapper.obj
 0001:000697d8       InitFuncTableNormalize     1006a7d8 f   k.coredll_ALL:wrapper.obj
 0001:000698c8       InitLocaleWrapper          1006a8c8 f   k.coredll_ALL:wrapper.obj
 0001:00069918       MDFiberSwitch              1006a918 f   k.coredll_ALL:stfarm.obj
 0001:00069990       ?_Buynode@?$list@U?$pair@V?$_string_t@G$0BA@U?$char_traits@G@ce@@Vallocator@2@@ce@@H@std@@Vallocator@ce@@@ce@@IAAPAU?$_ListNode@U?$pair@V?$_string_t@G$0BA@U?$char_traits@G@ce@@Vallocator@2@@ce@@H@std@@@list_impl@2@PAU342@@Z 1006a990 f i k.coredll_ALL:cspcache.obj
 0001:000699dc       ?erase@?$list@U?$pair@V?$_string_t@G$0BA@U?$char_traits@G@ce@@Vallocator@2@@ce@@H@std@@Vallocator@ce@@@ce@@QAA?AV?$iterator@U?$pair@V?$_string_t@G$0BA@U?$char_traits@G@ce@@Vallocator@2@@ce@@H@std@@@list_impl@2@V342@@Z 1006a9dc f i k.coredll_ALL:cspcache.obj
 0001:00069a4c       ?hash_function@?$hash_traits@V?$_string_t@G$0BA@U?$char_traits@G@ce@@Vallocator@2@@ce@@@ce@@QBAIABV?$_string_t@G$0BA@U?$char_traits@G@ce@@Vallocator@2@@2@@Z 1006aa4c f i k.coredll_ALL:cspcache.obj
 0001:00069a98       ?erase@?$list@U?$pair@V?$_string_t@G$0BA@U?$char_traits@G@ce@@Vallocator@2@@ce@@H@std@@Vallocator@ce@@@ce@@QAA?AV?$iterator@U?$pair@V?$_string_t@G$0BA@U?$char_traits@G@ce@@Vallocator@2@@ce@@H@std@@@list_impl@2@V342@0@Z 1006aa98 f i k.coredll_ALL:cspcache.obj
 0001:00069af0       ?erase@?$vector@U?$pair@V?$iterator@U?$pair@V?$_string_t@G$0BA@U?$char_traits@G@ce@@Vallocator@2@@ce@@H@std@@@list_impl@ce@@I@std@@Vallocator@ce@@U?$exponential_growth@$09@4@@ce@@QAAPAU?$pair@V?$iterator@U?$pair@V?$_string_t@G$0BA@U?$char_traits@G@ce@@Vallocator@2@@ce@@H@std@@@list_impl@ce@@I@std@@PAU34@0@Z 1006aaf0 f i k.coredll_ALL:cspcache.obj
 0001:00069b54       ??0?$_string_t@G$0BA@U?$char_traits@G@ce@@Vallocator@2@@ce@@QAA@ABV01@@Z 1006ab54 f i k.coredll_ALL:cspcache.obj
 0001:00069b9c       ?erase@?$vector@U?$pair@V?$iterator@U?$pair@V?$_string_t@G$0BA@U?$char_traits@G@ce@@Vallocator@2@@ce@@H@std@@@list_impl@ce@@I@std@@V?$reference_allocator@Vallocator@ce@@@details@ce@@U?$exponential_growth@$09@5@@ce@@QAAPAU?$pair@V?$iterator@U?$pair@V?$_string_t@G$0BA@U?$char_traits@G@ce@@Vallocator@2@@ce@@H@std@@@list_impl@ce@@I@std@@PAU34@0@Z 1006ab9c f i k.coredll_ALL:cspcache.obj
 0001:00069c00       ??$?8G$0BA@$0BA@U?$char_traits@G@ce@@Vallocator@1@V21@@ce@@YA_NABV?$_string_t@G$0BA@U?$char_traits@G@ce@@Vallocator@2@@0@0@Z 1006ac00 f i k.coredll_ALL:cspcache.obj
 0001:00069c4c       ?erase@?$hash@V?$hash_map_traits@V?$_string_t@G$0BA@U?$char_traits@G@ce@@Vallocator@2@@ce@@HU?$hash_traits@V?$_string_t@G$0BA@U?$char_traits@G@ce@@Vallocator@2@@ce@@@2@Vallocator@2@@details@ce@@@details@ce@@QAA?AV?$iterator@U?$pair@V?$_string_t@G$0BA@U?$char_traits@G@ce@@Vallocator@2@@ce@@H@std@@@list_impl@3@V453@@Z 1006ac4c f i k.coredll_ALL:cspcache.obj
 0001:00069cc4       ??$insert@U?$pair@V?$_string_t@G$0BA@U?$char_traits@G@ce@@Vallocator@2@@ce@@H@std@@@?$list@U?$pair@V?$_string_t@G$0BA@U?$char_traits@G@ce@@Vallocator@2@@ce@@H@std@@Vallocator@ce@@@ce@@QAA?AV?$iterator@U?$pair@V?$_string_t@G$0BA@U?$char_traits@G@ce@@Vallocator@2@@ce@@H@std@@@list_impl@1@V231@ABU?$pair@V?$_string_t@G$0BA@U?$char_traits@G@ce@@Vallocator@2@@ce@@H@std@@@Z 1006acc4 f i k.coredll_ALL:cspcache.obj
 0001:00069d1c       ??1?$hash@V?$hash_map_traits@V?$_string_t@G$0BA@U?$char_traits@G@ce@@Vallocator@2@@ce@@HU?$hash_traits@V?$_string_t@G$0BA@U?$char_traits@G@ce@@Vallocator@2@@ce@@@2@Vallocator@2@@details@ce@@@details@ce@@QAA@XZ 1006ad1c f i k.coredll_ALL:cspcache.obj
 0001:00069d5c       ?_Insert_dispatch@?$vector@U?$pair@V?$iterator@U?$pair@V?$_string_t@G$0BA@U?$char_traits@G@ce@@Vallocator@2@@ce@@H@std@@@list_impl@ce@@I@std@@Vallocator@ce@@U?$exponential_growth@$09@4@@ce@@AAA_NPAU?$pair@V?$iterator@U?$pair@V?$_string_t@G$0BA@U?$char_traits@G@ce@@Vallocator@2@@ce@@H@std@@@list_impl@ce@@I@std@@IABU34@ABUtrue_type@detail@2@@Z 1006ad5c f i k.coredll_ALL:cspcache.obj
 0001:00069fa4       ??0cspCache@@QAA@XZ        1006afa4 f i k.coredll_ALL:cspcache.obj
 0001:00069ff4       ?resize@?$vector@U?$pair@V?$iterator@U?$pair@V?$_string_t@G$0BA@U?$char_traits@G@ce@@Vallocator@2@@ce@@H@std@@@list_impl@ce@@I@std@@Vallocator@ce@@U?$exponential_growth@$09@4@@ce@@QAA_NIABU?$pair@V?$iterator@U?$pair@V?$_string_t@G$0BA@U?$char_traits@G@ce@@Vallocator@2@@ce@@H@std@@@list_impl@ce@@I@std@@@Z 1006aff4 f i k.coredll_ALL:cspcache.obj
 0001:0006a050       ?_ready@?$hash@V?$hash_map_traits@V?$_string_t@G$0BA@U?$char_traits@G@ce@@Vallocator@2@@ce@@HU?$hash_traits@V?$_string_t@G$0BA@U?$char_traits@G@ce@@Vallocator@2@@ce@@@2@Vallocator@2@@details@ce@@@details@ce@@IAA_NXZ 1006b050 f i k.coredll_ALL:cspcache.obj
 0001:0006a0a8       ?find@?$hash@V?$hash_map_traits@V?$_string_t@G$0BA@U?$char_traits@G@ce@@Vallocator@2@@ce@@HU?$hash_traits@V?$_string_t@G$0BA@U?$char_traits@G@ce@@Vallocator@2@@ce@@@2@Vallocator@2@@details@ce@@@details@ce@@QAA?AV?$iterator@U?$pair@V?$_string_t@G$0BA@U?$char_traits@G@ce@@Vallocator@2@@ce@@H@std@@@list_impl@3@ABV?$_string_t@G$0BA@U?$char_traits@G@ce@@Vallocator@2@@3@@Z 1006b0a8 f i k.coredll_ALL:cspcache.obj
 0001:0006a130       ?insert@?$hash@V?$hash_map_traits@V?$_string_t@G$0BA@U?$char_traits@G@ce@@Vallocator@2@@ce@@HU?$hash_traits@V?$_string_t@G$0BA@U?$char_traits@G@ce@@Vallocator@2@@ce@@@2@Vallocator@2@@details@ce@@@details@ce@@QAA?AV?$iterator@U?$pair@V?$_string_t@G$0BA@U?$char_traits@G@ce@@Vallocator@2@@ce@@H@std@@@list_impl@3@ABU?$pair@V?$_string_t@G$0BA@U?$char_traits@G@ce@@Vallocator@2@@ce@@H@std@@@Z 1006b130 f i k.coredll_ALL:cspcache.obj
 0001:0006a204       IsSignatureVerificationNeeded 1006b204 f   k.coredll_ALL:cspcache.obj
 0001:0006a274       RemoveCSPFromCache         1006b274 f   k.coredll_ALL:cspcache.obj
 0001:0006a308       ?insert@?$hash_map@V?$_string_t@G$0BA@U?$char_traits@G@ce@@Vallocator@2@@ce@@HU?$hash_traits@V?$_string_t@G$0BA@U?$char_traits@G@ce@@Vallocator@2@@ce@@@2@Vallocator@2@@ce@@QAA?AV?$iterator@U?$pair@V?$_string_t@G$0BA@U?$char_traits@G@ce@@Vallocator@2@@ce@@H@std@@@list_impl@2@ABV?$_string_t@G$0BA@U?$char_traits@G@ce@@Vallocator@2@@2@ABH@Z 1006b308 f i k.coredll_ALL:cspcache.obj
 0001:0006a374       AddCSPToCache              1006b374 f   k.coredll_ALL:cspcache.obj
 0001:0006a43c       ?InitTrustInfoForCECSPAuthenticode@@YAJHPAUMINCRYPT_TRUST_INFO@@QAUMINCRYPT_ROOT_CERT@@@Z 1006b43c f   k.coredll_ALL:cspcerts.obj
 0001:0006a4e4       IsCSPAuthenticodeSignatureTrusted 1006b4e4 f   k.coredll_ALL:cspcerts.obj
 0001:0006a5c0       FindResourceForDisplayConfiguration_I 1006b5c0 f   k.coredll_ALL:AssetManagement.obj
 0001:0006a834       ?MapInputScopesToInputMode@@YAKPBW4InputScope@@I@Z 1006b834 f   k.coredll_ALL:ModeMap.obj
 0001:0006a8b4       ??0CNotifiable@@QAA@XZ     1006b8b4 f   k.coredll_ALL:handlearray.obj
 0001:0006a8cc       ??1CNotifiable@@UAA@XZ     1006b8cc f   k.coredll_ALL:handlearray.obj
 0001:0006a8dc       ?AddRef@CNotifiable@@QAAKXZ 1006b8dc f   k.coredll_ALL:handlearray.obj
 0001:0006a8f4       ?Release@CNotifiable@@QAAKXZ 1006b8f4 f   k.coredll_ALL:handlearray.obj
 0001:0006a92c       ??0CHandleArray@@QAA@XZ    1006b92c f   k.coredll_ALL:handlearray.obj
 0001:0006a970       ??1CHandleArray@@QAA@XZ    1006b970 f   k.coredll_ALL:handlearray.obj
 0001:0006a9fc       ?ProcessNotifications@CHandleArray@@IAAXXZ 1006b9fc f   k.coredll_ALL:handlearray.obj
 0001:0006ac14       ??_ECNotifiable@@UAAPAXI@Z 1006bc14 f i k.coredll_ALL:handlearray.obj
 0001:0006ac14       ??_GCNotifiable@@UAAPAXI@Z 1006bc14 f i k.coredll_ALL:handlearray.obj
 0001:0006ac38       ?ThreadProc@CHandleArray@@KAKPAX@Z 1006bc38 f   k.coredll_ALL:handlearray.obj
 0001:0006ac48       ?Add@CHandleArray@@QAAJPAVCNotifiable@@@Z 1006bc48 f   k.coredll_ALL:handlearray.obj
 0001:0006ad5c       ?Remove@CHandleArray@@QAAJPAVCNotifiable@@@Z 1006bd5c f   k.coredll_ALL:handlearray.obj
 0001:0006ae34       ?Refresh@CHandleArray@@QAAJPAVCNotifiable@@@Z 1006be34 f   k.coredll_ALL:handlearray.obj
 0001:0006aeec       ??1CNotifyList@@IAA@XZ     1006beec f   k.coredll_ALL:notifylist.obj
 0001:0006af2c       ?InsertNewNode@CNotifyList@@IAAJPAPAUCNotifyListNode@1@@Z 1006bf2c f   k.coredll_ALL:notifylist.obj
 0001:0006afbc       ?Insert@CNotifyList@@SAJPAVCNotify@@@Z 1006bfbc f   k.coredll_ALL:notifylist.obj
 0001:0006b06c       ?Remove@CNotifyList@@SAJPAVCNotify@@H@Z 1006c06c f   k.coredll_ALL:notifylist.obj
 0001:0006b284       ?Refresh@CNotifyList@@SAJPAVCNotify@@@Z 1006c284 f   k.coredll_ALL:notifylist.obj
 0001:0006b2e8       ??0CNotifyWindow@@QAA@XZ   1006c2e8 f   k.coredll_ALL:notify.obj
 0001:0006b318       ?Refresh@CNotify@@UAAJXZ   1006c318 f i k.coredll_ALL:notify.obj
 0001:0006b324       ??0CNotifyMsgQueue@@QAA@XZ 1006c324 f   k.coredll_ALL:notify.obj
 0001:0006b350       ??1CNotifyMsgQueue@@UAA@XZ 1006c350 f   k.coredll_ALL:notify.obj
 0001:0006b380       ??0CNotifyCallback@@QAA@XZ 1006c380 f   k.coredll_ALL:notify.obj
 0001:0006b3ac       ??_ECNotifyWindow@@UAAPAXI@Z 1006c3ac f i k.coredll_ALL:notify.obj
 0001:0006b3ac       ??_GCNotifyWindow@@UAAPAXI@Z 1006c3ac f i k.coredll_ALL:notify.obj
 0001:0006b3dc       ?SetWindowInfo@CNotifyWindow@@QAAJPAUHWND__@@IK@Z 1006c3dc f   k.coredll_ALL:notify.obj
 0001:0006b428       ?FireNotification@CNotifyWindow@@UAAJKQAEK@Z 1006c428 f   k.coredll_ALL:notify.obj
 0001:0006b4b8       ??_ECNotifyMsgQueue@@UAAPAXI@Z 1006c4b8 f i k.coredll_ALL:notify.obj
 0001:0006b4b8       ??_GCNotifyMsgQueue@@UAAPAXI@Z 1006c4b8 f i k.coredll_ALL:notify.obj
 0001:0006b4dc       ?SetMsgQueueInfo@CNotifyMsgQueue@@QAAJPBGK@Z 1006c4dc f   k.coredll_ALL:notify.obj
 0001:0006b5a0       ?FireNotification@CNotifyMsgQueue@@UAAJKQAEK@Z 1006c5a0 f   k.coredll_ALL:notify.obj
 0001:0006b66c       ??_GCNotifyCallback@@UAAPAXI@Z 1006c66c f i k.coredll_ALL:notify.obj
 0001:0006b66c       ??_ECNotifyCallback@@UAAPAXI@Z 1006c66c f i k.coredll_ALL:notify.obj
 0001:0006b69c       ?SetCallbackInfo@CNotifyCallback@@QAAJP6AXPAUHREGNOTIFY__@@KQAEI@ZK@Z 1006c69c f   k.coredll_ALL:notify.obj
 0001:0006b6d0       ?FireNotification@CNotifyCallback@@UAAJKQAEK@Z 1006c6d0 f   k.coredll_ALL:notify.obj
 0001:0006b740       ??0CNotify@@QAA@XZ         1006c740 f   k.coredll_ALL:notifybase.obj
 0001:0006b7a0       ?Reset@CNotify@@IAAXXZ     1006c7a0 f   k.coredll_ALL:notifybase.obj
 0001:0006b860       ?GetWaitObject@CNotify@@UAAPAXXZ 1006c860 f   k.coredll_ALL:notifybase.obj
 0001:0006b868       ?GetWaitTimeout@CNotify@@UAAKK@Z 1006c868 f   k.coredll_ALL:notifybase.obj
 0001:0006b8fc       ??1CNotify@@UAA@XZ         1006c8fc f   k.coredll_ALL:notifybase.obj
 0001:0006b920       ?GetRegistryInfo@@YAJPAUHKEY__@@PAU_CE_REGISTRY_INFO@@@Z 1006c920 f   k.coredll_ALL:notifybase.obj
 0001:0006bccc       ?Initialize@CNotify@@QAAJPAUHKEY__@@PBG1PAUtagNOTIFICATIONCONDITION@@@Z 1006cccc f   k.coredll_ALL:notifybase.obj
 0001:0006bfe0       ?EnableBatching@CNotify@@QAAJKK@Z 1006cfe0 f   k.coredll_ALL:notifybase.obj
 0001:0006c078       ?HandleConditional@CNotify@@IAAJKPAEKK@Z 1006d078 f   k.coredll_ALL:notifybase.obj
 0001:0006c364       ?HandleBatching@CNotify@@IAAJKK@Z 1006d364 f   k.coredll_ALL:notifybase.obj
 0001:0006c3f4       ?HandleNotification@CNotify@@IAAJK@Z 1006d3f4 f   k.coredll_ALL:notifybase.obj
 0001:0006c5d0       ?Notify@CNotify@@UAAJK@Z   1006d5d0 f   k.coredll_ALL:notifybase.obj
 0001:0006c8cc       ?Timeout@CNotify@@UAAJK@Z  1006d8cc f   k.coredll_ALL:notifybase.obj
 0001:0006ca7c       ??_ECNotify@@UAAPAXI@Z     1006da7c f i k.coredll_ALL:notifybase.obj
 0001:0006ca7c       ??_GCNotify@@UAAPAXI@Z     1006da7c f i k.coredll_ALL:notifybase.obj
 0001:0006cab4       MessageBoxFromIDs          1006dab4 f   k.coredll_ALL:shcore.obj
 0001:0006cb80       Host_ShowFileError         1006db80 f   k.coredll_ALL:shcore.obj
 0001:0006cf18       PathGetArgs                1006df18 f   k.coredll_ALL:path.obj
 0001:0006cf90       PathRemoveArgs             1006df90 f   k.coredll_ALL:path.obj
 0001:0006cfe0       PathRemoveQuotesAndArgs    1006dfe0 f   k.coredll_ALL:path.obj
 0001:0006d040       PathFindExtension          1006e040 f   k.coredll_ALL:path.obj
 0001:0006d09c       PathFindFileName           1006e09c f   k.coredll_ALL:path.obj
 0001:0006d0e8       ?EatHexString@@YAHPBGHH@Z  1006e0e8 f   k.coredll_ALL:path.obj
 0001:0006d168       PathIsGUID                 1006e168 f   k.coredll_ALL:path.obj
 0001:0006d21c       PathIsLink                 1006e21c f   k.coredll_ALL:path.obj
 0001:0006d244       PathFileExists             1006e244 f   k.coredll_ALL:path.obj
 0001:0006d25c       PathRemoveExtension        1006e25c f   k.coredll_ALL:path.obj
 0001:0006d278       PathRemoveFileSpec         1006e278 f   k.coredll_ALL:path.obj
 0001:0006d2c0       ?SHStartMRUHookProc@@YAXPBU_SHELLEXECUTEINFO@@@Z 1006e2c0 f   k.coredll_ALL:aygstubs.obj
 0001:0006d2c4       GetRegisteredAppInfo       1006e2c4 f   k.coredll_ALL:aygstubs.obj
 0001:0006d2cc       SetRegisteredAppInfo       1006e2cc f   k.coredll_ALL:aygstubs.obj
 0001:0006d2d4       ?SHFindRunningRegApp@@YAHPAG0@Z 1006e2d4 f   k.coredll_ALL:aygstubs.obj
 0001:0006d2dc       ?GetProtocol@@YAHPBGPAGH@Z 1006e2dc f   k.coredll_ALL:aygstubs.obj
 0001:0006d2e4       ?DoMRUHook@@YAXPAU_SHELLEXECUTEINFO@@@Z 1006e2e4 f   k.coredll_ALL:mrustub.obj
 0001:0006d2e8       _FixupFPCrtThunk           1006e2e8     k.coredll_ALL:fpredirThunk.obj
 0001:0006d2f8       _stbuf                     1006e2f8 f   k.coredll_ALL:_sftbuf.obj
 0001:0006d3a0       _ftbuf                     1006e3a0 f   k.coredll_ALL:_sftbuf.obj
 0001:0006d3e4       _real_filbuf2              1006e3e4 f   k.coredll_ALL:_filbuf.obj
 0001:0006d508       _real_flsbuf2              1006e508 f   k.coredll_ALL:_filbuf.obj
 0001:0006d698       UnhandledExceptionFilter   1006e698 f   k.coredll_ALL:unhandled.obj
 0001:0006d714       __C_ExecuteExceptionFilter 1006e714     k.coredll_ALL:jmpuwind.obj
 0001:0006d714       __C_ExecuteTerminationHandler 1006e714 f   k.coredll_ALL:jmpuwind.obj
 0001:0006d754       __raise_int_divide_by_zero 1006e754 f   k.coredll_ALL:diverr.obj
 0001:0006d76c       __ld12mul                  1006e76c f   k.coredll_ALL:tenpow.obj
 0001:0006db80       __multtenpow12             1006eb80 f   k.coredll_ALL:tenpow.obj
 0001:0006dc48       __addl                     1006ec48 f   k.coredll_ALL:mantold.obj
 0001:0006dc68       __add_12                   1006ec68 f   k.coredll_ALL:mantold.obj
 0001:0006dd08       __shl_12                   1006ed08 f   k.coredll_ALL:mantold.obj
 0001:0006dd4c       __shr_12                   1006ed4c f   k.coredll_ALL:mantold.obj
 0001:0006dd90       __mtold12                  1006ed90 f   k.coredll_ALL:mantold.obj
 0001:0006dea8       _fptostr                   1006eea8 f   k.coredll_ALL:_fptostr.obj
 0001:0006dfe0       __dtold                    1006efe0 f   k.coredll_ALL:cfout.obj
 0001:0006e0c0       _fltout2                   1006f0c0 f   k.coredll_ALL:cfout.obj
 0001:0006e230       _write                     1006f230 f   k.coredll_ALL:write.obj
 0001:0006e3d8       _lock_validate_str         1006f3d8 f   k.coredll_ALL:lverify.obj
 0001:0006e48c       _getbuf                    1006f48c f   k.coredll_ALL:_getbuf.obj
 0001:0006e4e0       _freebuf                   1006f4e0 f   k.coredll_ALL:_getbuf.obj
 0001:0006e52c       _read                      1006f52c f   k.coredll_ALL:read.obj
 0001:0006e8c4       _lseek                     1006f8c4 f   k.coredll_ALL:lseek.obj
 0001:0006e8ec       _lseeki64                  1006f8ec f   k.coredll_ALL:lseek.obj
 0001:0006e92c       _get_errno_from_oserr      1006f92c f   k.coredll_ALL:dosmap.obj
 0001:0006e98c       _getstream                 1006f98c f   k.coredll_ALL:stream.obj
 0001:0006eb7c       _forcdecpt                 1006fb7c f   k.coredll_ALL:cvt.obj
 0001:0006ebe0       _cropzeros                 1006fbe0 f   k.coredll_ALL:cvt.obj
 0001:0006ec5c       _fassign                   1006fc5c f   k.coredll_ALL:cvt.obj
 0001:0006eec8       _cftoe                     1006fec8 f   k.coredll_ALL:cvt.obj
 0001:0006f190       _cftof                     10070190 f   k.coredll_ALL:cvt.obj
 0001:0006f2bc       _cftog                     100702bc f   k.coredll_ALL:cvt.obj
 0001:0006f450       _cfltcvt                   10070450 f   k.coredll_ALL:cvt.obj
 0001:0006f4b8       _encode_pointer            100704b8 f   k.coredll_ALL:encptr.obj
 0001:0006f4bc       _encoded_null              100704bc f   k.coredll_ALL:encptr.obj
 0001:0006f4c4       _decode_pointer            100704c4 f   k.coredll_ALL:encptr.obj
 0001:0006f4d0       _putwc_lk                  100704d0 f   k.coredll_ALL:putwclk.obj
 0001:0006f7ec       _output                    100707ec f   k.coredll_ALL:output.obj
 0001:00070374       _getwc_lk                  10071374 f   k.coredll_ALL:getwclk.obj
 0001:000704f8       _wchartodigit              100714f8 f   k.coredll_ALL:_wchartodigit.obj
 0001:00070698       _ftelli64_lk               10071698 f   k.coredll_ALL:ftelli64.obj
 0001:00070858       _ftelli64                  10071858 f   k.coredll_ALL:ftelli64.obj
 0001:000709d8       _input                     100719d8 f   k.coredll_ALL:input.obj
 0001:00071d60       _fseeki64_lk               10072d60 f   k.coredll_ALL:fseeki64.obj
 0001:00071e14       _fseeki64                  10072e14 f   k.coredll_ALL:fseeki64.obj
 0001:00071f74       _winput                    10072f74 f   k.coredll_ALL:winput.obj
 0001:000733e4       _ungetc_lk                 100743e4 f   k.coredll_ALL:ungetclk.obj
 0001:000734b8       _ungetwc_lk                100744b8 f   k.coredll_ALL:ungetwclk.obj
 0001:00073640       EnumerateDList             10074640 f   k.coredll_ALL:dlist.obj
 0001:0007368c       MinAsn1ParseCertificate    1007468c f   k.coredll_ALL:asn1parse.obj
 0001:0007370c       MinAsn1ParseAlgorithmIdentifier 1007470c f   k.coredll_ALL:asn1parse.obj
 0001:00073754       MinAsn1ParsePublicKeyInfo  10074754 f   k.coredll_ALL:asn1parse.obj
 0001:0007379c       MinAsn1ParseRSAPublicKey   1007479c f   k.coredll_ALL:asn1parse.obj
 0001:000737e4       MinAsn1ParseSignedData     100747e4 f   k.coredll_ALL:asn1parse.obj
 0001:00073824       MinAsn1ParseSignedDataCertificates 10074824 f   k.coredll_ALL:asn1parse.obj
 0001:000738fc       MinAsn1ParseAttributes     100748fc f   k.coredll_ALL:asn1parse.obj
 0001:000739d8       MinAsn1ParseIndirectData   100749d8 f   k.coredll_ALL:asn1parse.obj
 0001:00073a20       ?I_DigestFunction@@YAHPAXPAEK@Z 10074a20 f   k.coredll_ALL:verfile.obj
 0001:00073a80       ?I_IsNtPe32File@@YAHPAU_CRYPTOAPI_BLOB@@@Z 10074a80 f   k.coredll_ALL:verfile.obj
 0001:00073b18       MinCryptHashFile           10074b18 f   k.coredll_ALL:verfile.obj
 0001:00073d80       MinCryptVerifySignedFileEx 10074d80 f   k.coredll_ALL:verfile.obj
 0001:00073f84       ?_Buynode@?$list@U?$pair@V?$_string_t@G$0BA@U?$char_traits@G@ce@@Vallocator@2@@ce@@G@std@@Vallocator@ce@@@ce@@IAAPAU?$_ListNode@U?$pair@V?$_string_t@G$0BA@U?$char_traits@G@ce@@Vallocator@2@@ce@@G@std@@@list_impl@2@PAU342@@Z 10074f84 f i k.coredll_ALL:ResourceModuleCache.obj
 0001:00073fd0       ?_Buynode@?$list@U?$pair@_KK@std@@Vallocator@ce@@@ce@@IAAPAU?$_ListNode@U?$pair@_KK@std@@@list_impl@2@PAU342@@Z 10074fd0 f i k.coredll_ALL:ResourceModuleCache.obj
 0001:0007401c       ?erase@?$list@U?$pair@V?$_string_t@G$0BA@U?$char_traits@G@ce@@Vallocator@2@@ce@@G@std@@Vallocator@ce@@@ce@@QAA?AV?$iterator@U?$pair@V?$_string_t@G$0BA@U?$char_traits@G@ce@@Vallocator@2@@ce@@G@std@@@list_impl@2@V342@@Z 1007501c f i k.coredll_ALL:ResourceModuleCache.obj
 0001:0007408c       ?erase@?$list@U?$pair@_KK@std@@Vallocator@ce@@@ce@@QAA?AV?$iterator@U?$pair@_KK@std@@@list_impl@2@V342@@Z 1007508c f i k.coredll_ALL:ResourceModuleCache.obj
 0001:000740e8       ??$?8G$0BA@U?$char_traits@G@ce@@Vallocator@1@@ce@@YA_NABV?$_string_t@G$0BA@U?$char_traits@G@ce@@Vallocator@2@@0@PBG@Z 100750e8 f i k.coredll_ALL:ResourceModuleCache.obj
 0001:00074130       ?GetID@?$StringVector@$03@ResourceModuleCache@@QAAGPBG@Z 10075130 f i k.coredll_ALL:ResourceModuleCache.obj
 0001:000741a4       ?erase@?$list@U?$pair@V?$_string_t@G$0BA@U?$char_traits@G@ce@@Vallocator@2@@ce@@G@std@@Vallocator@ce@@@ce@@QAA?AV?$iterator@U?$pair@V?$_string_t@G$0BA@U?$char_traits@G@ce@@Vallocator@2@@ce@@G@std@@@list_impl@2@V342@0@Z 100751a4 f i k.coredll_ALL:ResourceModuleCache.obj
 0001:000741fc       ?erase@?$vector@U?$pair@V?$iterator@U?$pair@V?$_string_t@G$0BA@U?$char_traits@G@ce@@Vallocator@2@@ce@@G@std@@@list_impl@ce@@I@std@@Vallocator@ce@@U?$exponential_growth@$09@4@@ce@@QAAPAU?$pair@V?$iterator@U?$pair@V?$_string_t@G$0BA@U?$char_traits@G@ce@@Vallocator@2@@ce@@G@std@@@list_impl@ce@@I@std@@PAU34@0@Z 100751fc f i k.coredll_ALL:ResourceModuleCache.obj
 0001:00074260       ?erase@?$list@U?$pair@_KK@std@@Vallocator@ce@@@ce@@QAA?AV?$iterator@U?$pair@_KK@std@@@list_impl@2@V342@0@Z 10075260 f i k.coredll_ALL:ResourceModuleCache.obj
 0001:000742b8       ?erase@?$vector@U?$pair@V?$iterator@U?$pair@_KK@std@@@list_impl@ce@@I@std@@Vallocator@ce@@U?$exponential_growth@$09@4@@ce@@QAAPAU?$pair@V?$iterator@U?$pair@_KK@std@@@list_impl@ce@@I@std@@PAU34@0@Z 100752b8 f i k.coredll_ALL:ResourceModuleCache.obj
 0001:0007431c       ?_MoveForward@?$vector@V?$_string_t@G$0BA@U?$char_traits@G@ce@@Vallocator@2@@ce@@Vallocator@2@U?$incremental_growth@$03@2@@ce@@AAAXPAV?$_string_t@G$0BA@U?$char_traits@G@ce@@Vallocator@2@@2@0@Z 1007531c f i k.coredll_ALL:ResourceModuleCache.obj
 0001:00074384       ?_MoveBackward@?$vector@V?$_string_t@G$0BA@U?$char_traits@G@ce@@Vallocator@2@@ce@@V?$reference_allocator@Vallocator@ce@@@details@2@U?$incremental_growth@$03@2@@ce@@AAAXPAV?$_string_t@G$0BA@U?$char_traits@G@ce@@Vallocator@2@@2@0@Z 10075384 f i k.coredll_ALL:ResourceModuleCache.obj
 0001:000743f0       ?erase@?$vector@U?$pair@V?$iterator@U?$pair@_KK@std@@@list_impl@ce@@I@std@@V?$reference_allocator@Vallocator@ce@@@details@ce@@U?$exponential_growth@$09@5@@ce@@QAAPAU?$pair@V?$iterator@U?$pair@_KK@std@@@list_impl@ce@@I@std@@PAU34@0@Z 100753f0 f i k.coredll_ALL:ResourceModuleCache.obj
 0001:00074454       ?erase@?$vector@U?$pair@V?$iterator@U?$pair@V?$_string_t@G$0BA@U?$char_traits@G@ce@@Vallocator@2@@ce@@G@std@@@list_impl@ce@@I@std@@V?$reference_allocator@Vallocator@ce@@@details@ce@@U?$exponential_growth@$09@5@@ce@@QAAPAU?$pair@V?$iterator@U?$pair@V?$_string_t@G$0BA@U?$char_traits@G@ce@@Vallocator@2@@ce@@G@std@@@list_impl@ce@@I@std@@PAU34@0@Z 10075454 f i k.coredll_ALL:ResourceModuleCache.obj
 0001:000744b8       ??$insert@U?$pair@_KK@std@@@?$list@U?$pair@_KK@std@@Vallocator@ce@@@ce@@QAA?AV?$iterator@U?$pair@_KK@std@@@list_impl@1@V231@ABU?$pair@_KK@std@@@Z 100754b8 f i k.coredll_ALL:ResourceModuleCache.obj
 0001:0007451c       ?_MoveBackward@?$vector@V?$_string_t@G$0BA@U?$char_traits@G@ce@@Vallocator@2@@ce@@Vallocator@2@U?$incremental_growth@$03@2@@ce@@AAAXPAV?$_string_t@G$0BA@U?$char_traits@G@ce@@Vallocator@2@@2@0@Z 1007551c f i k.coredll_ALL:ResourceModuleCache.obj
 0001:00074588       ?erase@?$vector@V?$_string_t@G$0BA@U?$char_traits@G@ce@@Vallocator@2@@ce@@V?$reference_allocator@Vallocator@ce@@@details@2@U?$incremental_growth@$03@2@@ce@@QAAPAV?$_string_t@G$0BA@U?$char_traits@G@ce@@Vallocator@2@@2@PAV32@0@Z 10075588 f i k.coredll_ALL:ResourceModuleCache.obj
 0001:000745d4       ??$insert@U?$pair@V?$_string_t@G$0BA@U?$char_traits@G@ce@@Vallocator@2@@ce@@G@std@@@?$list@U?$pair@V?$_string_t@G$0BA@U?$char_traits@G@ce@@Vallocator@2@@ce@@G@std@@Vallocator@ce@@@ce@@QAA?AV?$iterator@U?$pair@V?$_string_t@G$0BA@U?$char_traits@G@ce@@Vallocator@2@@ce@@G@std@@@list_impl@1@V231@ABU?$pair@V?$_string_t@G$0BA@U?$char_traits@G@ce@@Vallocator@2@@ce@@G@std@@@Z 100755d4 f i k.coredll_ALL:ResourceModuleCache.obj
 0001:0007462c       ?erase@?$vector@V?$_string_t@G$0BA@U?$char_traits@G@ce@@Vallocator@2@@ce@@Vallocator@2@U?$incremental_growth@$03@2@@ce@@QAAPAV?$_string_t@G$0BA@U?$char_traits@G@ce@@Vallocator@2@@2@PAV32@0@Z 1007562c f i k.coredll_ALL:ResourceModuleCache.obj
 0001:00074678       ??1?$hash@V?$hash_map_traits@_KKU?$hash_traits@_K@ce@@Vallocator@2@@details@ce@@@details@ce@@QAA@XZ 10075678 f i k.coredll_ALL:ResourceModuleCache.obj
 0001:000746b8       ??1?$hash@V?$hash_map_traits@V?$_string_t@G$0BA@U?$char_traits@G@ce@@Vallocator@2@@ce@@GU?$hash_traits@V?$_string_t@G$0BA@U?$char_traits@G@ce@@Vallocator@2@@ce@@@2@Vallocator@2@@details@ce@@@details@ce@@QAA@XZ 100756b8 f i k.coredll_ALL:ResourceModuleCache.obj
 0001:000746f8       ?_Insert_dispatch@?$vector@U?$pair@V?$iterator@U?$pair@_KK@std@@@list_impl@ce@@I@std@@Vallocator@ce@@U?$exponential_growth@$09@4@@ce@@AAA_NPAU?$pair@V?$iterator@U?$pair@_KK@std@@@list_impl@ce@@I@std@@IABU34@ABUtrue_type@detail@2@@Z 100756f8 f i k.coredll_ALL:ResourceModuleCache.obj
 0001:00074940       ?_Insert_dispatch@?$vector@U?$pair@V?$iterator@U?$pair@V?$_string_t@G$0BA@U?$char_traits@G@ce@@Vallocator@2@@ce@@G@std@@@list_impl@ce@@I@std@@Vallocator@ce@@U?$exponential_growth@$09@4@@ce@@AAA_NPAU?$pair@V?$iterator@U?$pair@V?$_string_t@G$0BA@U?$char_traits@G@ce@@Vallocator@2@@ce@@G@std@@@list_impl@ce@@I@std@@IABU34@ABUtrue_type@detail@2@@Z 10075940 f i k.coredll_ALL:ResourceModuleCache.obj
 0001:00074b88       ?_Insert_dispatch@?$vector@V?$_string_t@G$0BA@U?$char_traits@G@ce@@Vallocator@2@@ce@@Vallocator@2@U?$incremental_growth@$03@2@@ce@@AAA_NPAV?$_string_t@G$0BA@U?$char_traits@G@ce@@Vallocator@2@@2@IABV32@ABUtrue_type@detail@2@@Z 10075b88 f i k.coredll_ALL:ResourceModuleCache.obj
 0001:00074de4       ??1ResourceModuleCache@@QAA@XZ 10075de4 f   k.coredll_ALL:ResourceModuleCache.obj
 0001:00074e30       ?resize@?$vector@U?$pair@V?$iterator@U?$pair@_KK@std@@@list_impl@ce@@I@std@@Vallocator@ce@@U?$exponential_growth@$09@4@@ce@@QAA_NIABU?$pair@V?$iterator@U?$pair@_KK@std@@@list_impl@ce@@I@std@@@Z 10075e30 f i k.coredll_ALL:ResourceModuleCache.obj
 0001:00074e8c       ?resize@?$vector@U?$pair@V?$iterator@U?$pair@V?$_string_t@G$0BA@U?$char_traits@G@ce@@Vallocator@2@@ce@@G@std@@@list_impl@ce@@I@std@@Vallocator@ce@@U?$exponential_growth@$09@4@@ce@@QAA_NIABU?$pair@V?$iterator@U?$pair@V?$_string_t@G$0BA@U?$char_traits@G@ce@@Vallocator@2@@ce@@G@std@@@list_impl@ce@@I@std@@@Z 10075e8c f i k.coredll_ALL:ResourceModuleCache.obj
 0001:00074ee8       ??0ResourceModuleCache@@QAA@XZ 10075ee8 f   k.coredll_ALL:ResourceModuleCache.obj
 0001:00074fcc       ?insert@?$vector@V?$_string_t@G$0BA@U?$char_traits@G@ce@@Vallocator@2@@ce@@Vallocator@2@U?$incremental_growth@$03@2@@ce@@QAAPAV?$_string_t@G$0BA@U?$char_traits@G@ce@@Vallocator@2@@2@PAV32@ABV32@@Z 10075fcc f i k.coredll_ALL:ResourceModuleCache.obj
 0001:00075030       ?_ready@?$hash@V?$hash_map_traits@_KKU?$hash_traits@_K@ce@@Vallocator@2@@details@ce@@@details@ce@@IAA_NXZ 10076030 f i k.coredll_ALL:ResourceModuleCache.obj
 0001:00075088       ?_ready@?$hash@V?$hash_map_traits@V?$_string_t@G$0BA@U?$char_traits@G@ce@@Vallocator@2@@ce@@GU?$hash_traits@V?$_string_t@G$0BA@U?$char_traits@G@ce@@Vallocator@2@@ce@@@2@Vallocator@2@@details@ce@@@details@ce@@IAA_NXZ 10076088 f i k.coredll_ALL:ResourceModuleCache.obj
 0001:000750e0       ?SetID@?$StringVector@$03@ResourceModuleCache@@QAAGPBG@Z 100760e0 f i k.coredll_ALL:ResourceModuleCache.obj
 0001:00075164       ?find@?$hash@V?$hash_map_traits@_KKU?$hash_traits@_K@ce@@Vallocator@2@@details@ce@@@details@ce@@QAA?AV?$iterator@U?$pair@_KK@std@@@list_impl@3@AB_K@Z 10076164 f i k.coredll_ALL:ResourceModuleCache.obj
 0001:000751ec       ?find@?$hash@V?$hash_map_traits@V?$_string_t@G$0BA@U?$char_traits@G@ce@@Vallocator@2@@ce@@GU?$hash_traits@V?$_string_t@G$0BA@U?$char_traits@G@ce@@Vallocator@2@@ce@@@2@Vallocator@2@@details@ce@@@details@ce@@QAA?AV?$iterator@U?$pair@V?$_string_t@G$0BA@U?$char_traits@G@ce@@Vallocator@2@@ce@@G@std@@@list_impl@3@ABV?$_string_t@G$0BA@U?$char_traits@G@ce@@Vallocator@2@@3@@Z 100761ec f i k.coredll_ALL:ResourceModuleCache.obj
 0001:00075274       ?insert@?$hash@V?$hash_map_traits@_KKU?$hash_traits@_K@ce@@Vallocator@2@@details@ce@@@details@ce@@QAA?AV?$iterator@U?$pair@_KK@std@@@list_impl@3@ABU?$pair@_KK@std@@@Z 10076274 f i k.coredll_ALL:ResourceModuleCache.obj
 0001:00075340       ?insert@?$hash@V?$hash_map_traits@V?$_string_t@G$0BA@U?$char_traits@G@ce@@Vallocator@2@@ce@@GU?$hash_traits@V?$_string_t@G$0BA@U?$char_traits@G@ce@@Vallocator@2@@ce@@@2@Vallocator@2@@details@ce@@@details@ce@@QAA?AV?$iterator@U?$pair@V?$_string_t@G$0BA@U?$char_traits@G@ce@@Vallocator@2@@ce@@G@std@@@list_impl@3@ABU?$pair@V?$_string_t@G$0BA@U?$char_traits@G@ce@@Vallocator@2@@ce@@G@std@@@Z 10076340 f i k.coredll_ALL:ResourceModuleCache.obj
 0001:00075414       ?GetID@?$StringHash@G@ResourceModuleCache@@QAAGPBG@Z 10076414 f i k.coredll_ALL:ResourceModuleCache.obj
 0001:00075470       ?insert@?$hash_map@V?$_string_t@G$0BA@U?$char_traits@G@ce@@Vallocator@2@@ce@@GU?$hash_traits@V?$_string_t@G$0BA@U?$char_traits@G@ce@@Vallocator@2@@ce@@@2@Vallocator@2@@ce@@QAA?AV?$iterator@U?$pair@V?$_string_t@G$0BA@U?$char_traits@G@ce@@Vallocator@2@@ce@@G@std@@@list_impl@2@ABV?$_string_t@G$0BA@U?$char_traits@G@ce@@Vallocator@2@@2@ABG@Z 10076470 f i k.coredll_ALL:ResourceModuleCache.obj
 0001:000754dc       ?GetKey@ResourceModuleCache@@AAA_KPBG00@Z 100764dc f   k.coredll_ALL:ResourceModuleCache.obj
 0001:00075554       ?Find@ResourceModuleCache@@UAAHPBG00PAK@Z 10076554 f   k.coredll_ALL:ResourceModuleCache.obj
 0001:0007560c       ?SetID@?$StringHash@G@ResourceModuleCache@@QAAGPBG@Z 1007660c f i k.coredll_ALL:ResourceModuleCache.obj
 0001:00075688       ?SetKey@ResourceModuleCache@@AAA_KPBG00@Z 10076688 f   k.coredll_ALL:ResourceModuleCache.obj
 0001:00075738       ?AddToCache@ResourceModuleCache@@UAAHPBG00K@Z 10076738 f   k.coredll_ALL:ResourceModuleCache.obj
 0001:000757f0       ?DetermineElapsedMillisecondsBetweenTickCounts@@YAKKK@Z 100767f0 f   k.coredll_ALL:regext.obj
 0001:0007583c       ?CompareStringI@@YAHPBG0H@Z 1007683c f   k.coredll_ALL:regext.obj
 0001:00075874       ?StrStrI@@YAPBGPBG0@Z      10076874 f   k.coredll_ALL:regext.obj
 0001:000758f0       ?ResLoadString@CStringRes@@QAAPAGI@Z 100768f0 f   k.coredll_ALL:cstrres.obj
 0001:000759c4       _FixupFPCrtRedirection     100769c4 f   k.coredll_ALL:fpredirFixup.obj
 0001:00075a40       $I10_OUTPUT                10076a40 f   k.coredll_ALL:x10fout.obj
 0001:00075eb4       __internal_wctomb_s        10076eb4 f   k.coredll_ALL:wctomb.obj
 0001:00075fe4       MinAsn1DecodeLength        10076fe4 f   k.coredll_ALL:asn1util.obj
 0001:00076088       MinAsn1ExtractContent      10077088 f   k.coredll_ALL:asn1util.obj
 0001:0007612c       MinAsn1ExtractValues       1007712c f   k.coredll_ALL:asn1util.obj
 0001:000763f0       MinAsn1FindAttribute       100773f0 f   k.coredll_ALL:asn1util.obj
 0001:00076458       SHA256Init                 10077458 f   k.coredll_ALL:sha256.obj
 0001:000764c4       SHA256Transform            100774c4 f   k.coredll_ALL:sha256.obj
 0001:000772a4       SHA256Update               100782a4 f   k.coredll_ALL:sha256.obj
 0001:000773a8       SHA256Final                100783a8 f   k.coredll_ALL:sha256.obj
 0001:00077480       ?I_CalculateImagePtrs@@YAHPAU_LOADED_IMAGE@@@Z 10078480 f   k.coredll_ALL:imagehack.obj
 0001:000775a8       ?I_MapIt@@YAHPAU_CRYPTOAPI_BLOB@@PAU_LOADED_IMAGE@@@Z 100785a8 f   k.coredll_ALL:imagehack.obj
 0001:000775f0       ??1EXCLUDE_LIST@@QAA@XZ    100785f0 f i k.coredll_ALL:imagehack.obj
 0001:0007762c       ?Init@EXCLUDE_LIST@@QAAHPAU_LOADED_IMAGE@@P6AHPAXPAEK@Z1@Z 1007862c f i k.coredll_ALL:imagehack.obj
 0001:00077694       ?Add@EXCLUDE_LIST@@QAAXKK@Z 10078694 f   k.coredll_ALL:imagehack.obj
 0001:000776f0       ?Emit@EXCLUDE_LIST@@QAAHPAEK@Z 100786f0 f   k.coredll_ALL:imagehack.obj
 0001:000777b8       imagehack_ImageGetDigestStream 100787b8 f   k.coredll_ALL:imagehack.obj
 0001:00077998       ?I_FindCertificate@@YAHPAU_LOADED_IMAGE@@KPAPAU_WIN_CERTIFICATE@@@Z 10078998 f   k.coredll_ALL:imagehack.obj
 0001:00077af4       imagehack_ImageGetCertificateData 10078af4 f   k.coredll_ALL:imagehack.obj
 0001:00077ba0       ?Finalize@HashWrapper@@QAAKQAEKQAK@Z 10078ba0 f i k.coredll_ALL:verhash.obj
 0001:00077be8       ?Update@MD5Wrapper@@EAAXQBEK@Z 10078be8 f i k.coredll_ALL:verhash.obj
 0001:00077bf0       ?ImplFinalize@MD5Wrapper@@EAAKQAEK@Z 10078bf0 f i k.coredll_ALL:verhash.obj
 0001:00077c30       ?ImplGetSize@MD5Wrapper@@EBAIXZ 10078c30 f i k.coredll_ALL:verhash.obj
 0001:00077c38       MinCryptDecodeHashAlgorithmIdentifier 10078c38 f   k.coredll_ALL:verhash.obj
 0001:00077cb8       MinCryptUpdateHashMemory   10078cb8 f   k.coredll_ALL:verhash.obj
 0001:00077cfc       ?I_ConvertParsedRSAPubKeyToBSafePubKey@@YAJQAU_CRYPTOAPI_BLOB@@PAU_BSAFE_PUB_KEY_CONTENT@@@Z 10078cfc f   k.coredll_ALL:verhash.obj
 0001:00077e04       ?I_VerifyPKCS1SigningFormat@@YAJPAUBSAFE_PUB_KEY@@IPAEK1@Z 10078e04 f   k.coredll_ALL:verhash.obj
 0001:00077fa8       MinCryptVerifySignedHash   10078fa8 f   k.coredll_ALL:verhash.obj
 0001:000780ec       ?Update@?$SHA2Wrapper@USHA256_CTX@@$0CA@$0IAAM@$1?SHA256Init@@YAXPAU1@@Z$1?SHA256Update@@YAX0PBEI@Z$1?SHA256Final@@YAX0QAE@Z@@EAAXQBEK@Z 100790ec f i k.coredll_ALL:verhash.obj
 0001:000780f4       ?ImplFinalize@?$SHA2Wrapper@USHA256_CTX@@$0CA@$0IAAM@$1?SHA256Init@@YAXPAU1@@Z$1?SHA256Update@@YAX0PBEI@Z$1?SHA256Final@@YAX0QAE@Z@@EAAKQAEK@Z 100790f4 f i k.coredll_ALL:verhash.obj
 0001:00078108       ?ImplGetSize@?$SHA2Wrapper@USHA256_CTX@@$0CA@$0IAAM@$1?SHA256Init@@YAXPAU1@@Z$1?SHA256Update@@YAX0PBEI@Z$1?SHA256Final@@YAX0QAE@Z@@EBAIXZ 10079108 f i k.coredll_ALL:verhash.obj
 0001:00078110       ?Update@?$SHA2Wrapper@USHA512_CTX@@$0DA@$0IAAN@$1?SHA384Init@@YAXPAU1@@Z$1?SHA512Update@@YAX0PBEI@Z$1?SHA384Final@@YAX0QAE@Z@@EAAXQBEK@Z 10079110 f i k.coredll_ALL:verhash.obj
 0001:00078118       ?ImplFinalize@?$SHA2Wrapper@USHA512_CTX@@$0DA@$0IAAN@$1?SHA384Init@@YAXPAU1@@Z$1?SHA512Update@@YAX0PBEI@Z$1?SHA384Final@@YAX0QAE@Z@@EAAKQAEK@Z 10079118 f i k.coredll_ALL:verhash.obj
 0001:0007812c       ?ImplGetSize@?$SHA2Wrapper@USHA512_CTX@@$0DA@$0IAAN@$1?SHA384Init@@YAXPAU1@@Z$1?SHA512Update@@YAX0PBEI@Z$1?SHA384Final@@YAX0QAE@Z@@EBAIXZ 1007912c f i k.coredll_ALL:verhash.obj
 0001:00078134       ?Update@?$SHA2Wrapper@USHA512_CTX@@$0EA@$0IAAO@$1?SHA512Init@@YAXPAU1@@Z$1?SHA512Update@@YAX0PBEI@Z$1?SHA512Final@@YAX0QAE@Z@@EAAXQBEK@Z 10079134 f i k.coredll_ALL:verhash.obj
 0001:0007813c       ?ImplFinalize@?$SHA2Wrapper@USHA512_CTX@@$0EA@$0IAAO@$1?SHA512Init@@YAXPAU1@@Z$1?SHA512Update@@YAX0PBEI@Z$1?SHA512Final@@YAX0QAE@Z@@EAAKQAEK@Z 1007913c f i k.coredll_ALL:verhash.obj
 0001:00078150       ?ImplGetSize@?$SHA2Wrapper@USHA512_CTX@@$0EA@$0IAAO@$1?SHA512Init@@YAXPAU1@@Z$1?SHA512Update@@YAX0PBEI@Z$1?SHA512Final@@YAX0QAE@Z@@EBAIXZ 10079150 f i k.coredll_ALL:verhash.obj
 0001:00078158       ?Update@SHA1Wrapper@@EAAXQBEK@Z 10079158 f i k.coredll_ALL:verhash.obj
 0001:00078160       ?ImplFinalize@SHA1Wrapper@@EAAKQAEK@Z 10079160 f i k.coredll_ALL:verhash.obj
 0001:00078174       ?ImplGetSize@SHA1Wrapper@@EBAIXZ 10079174 f i k.coredll_ALL:verhash.obj
 0001:0007817c       MinCryptCreateHashMemoryMTH 1007917c f   k.coredll_ALL:verhash.obj
 0001:00078280       MinCryptHashMemory         10079280 f   k.coredll_ALL:verhash.obj
 0001:00078308       I_MinCryptMapFile          10079308 f   k.coredll_ALL:fileutil.obj
 0001:0007845c       ?I_MinCryptFindSignerCertificateByIssuerAndSerialNumber@@YAPAU_CRYPTOAPI_BLOB@@PAU1@0KQAY0P@U1@@Z 1007945c f   k.coredll_ALL:verdata.obj
 0001:000784f8       ?I_MinCryptVerifySignerAuthenticatedAttributes@@YAJIQAEPAKPAU_CRYPTOAPI_BLOB@@@Z 100794f8 f   k.coredll_ALL:verdata.obj
 0001:00078604       MinCryptVerifySignedDataEx 10079604 f   k.coredll_ALL:verdata.obj
 0001:00078820       MinCryptVerifyAuthenticode 10079820 f   k.coredll_ALL:verdata.obj
 0001:000789b8       BSafeEncPublicEx           100799b8 f   k.coredll_ALL:rsa_pub.obj
 0001:00078ac8       BSafeEncPublic             10079ac8 f   k.coredll_ALL:rsa_pub.obj
 0001:00078ae4       SHA384Init                 10079ae4 f   k.coredll_ALL:sha512.obj
 0001:00078bc0       SHA512Init                 10079bc0 f   k.coredll_ALL:sha512.obj
 0001:00078c9c       SHA512Transform            10079c9c f   k.coredll_ALL:sha512.obj
 0001:0007b888       SHA512Update               1007c888 f   k.coredll_ALL:sha512.obj
 0001:0007b9b8       SHA512Final                1007c9b8 f   k.coredll_ALL:sha512.obj
 0001:0007bc2c       SHA384Final                1007cc2c f   k.coredll_ALL:sha512.obj
 0001:0007be98       ?I_MinCryptFindRootByName@@YAPAU_CRYPTOAPI_BLOB@@PAU1@PBUMINCRYPT_TRUST_INFO@@PAK@Z 1007ce98 f   k.coredll_ALL:vercert.obj
 0001:0007bf24       ?I_MinCryptFindRootByKey@@YAPAU_CRYPTOAPI_BLOB@@PAU1@PBUMINCRYPT_TRUST_INFO@@PAK@Z 1007cf24 f   k.coredll_ALL:vercert.obj
 0001:0007bfb0       ?I_MinCryptFindIssuerCertificateByName@@YAPAU_CRYPTOAPI_BLOB@@PAU1@KQAY0P@U1@@Z 1007cfb0 f   k.coredll_ALL:vercert.obj
 0001:0007c1e4       ?VerifyCertificateValidity@@YAJQAU_CRYPTOAPI_BLOB@@PBU_SYSTEMTIME@@@Z 1007d1e4 f   k.coredll_ALL:vercert.obj
 0001:0007c2bc       MinCryptVerifyCertificateEx 1007d2bc f   k.coredll_ALL:vercert.obj
 0001:0007c51c       BenalohSetup               1007d51c f   k.coredll_ALL:benaloh.obj
 0001:0007c634       BenalohMod                 1007d634 f   k.coredll_ALL:benaloh.obj
 0001:0007c774       BenalohModMultiply         1007d774 f   k.coredll_ALL:benaloh.obj
 0001:0007c7b0       BenalohScramblePowerTable  1007d7b0 f   k.coredll_ALL:benaloh.obj
 0001:0007c840       BenalohModExp              1007d840 f   k.coredll_ALL:benaloh.obj
 0001:0007cbd0       SetValDWORD                1007dbd0 f   k.coredll_ALL:rsa_math.obj
 0001:0007cbf4       DigitLen                   1007dbf4 f   k.coredll_ALL:rsa_math.obj
 0001:0007cc24       BitLen                     1007dc24 f   k.coredll_ALL:rsa_math.obj
 0001:0007cc7c       Compare                    1007dc7c f   k.coredll_ALL:rsa_math.obj
 0001:0007ccc8       Multiply                   1007dcc8 f   k.coredll_ALL:rsa_math.obj
 0001:0007cd4c       Square                     1007dd4c f   k.coredll_ALL:rsa_math.obj
 0001:0007cdf0       EstimateQuotient           1007ddf0 f   k.coredll_ALL:rsa_math.obj
 0001:0007ce80       Mod                        1007de80 f   k.coredll_ALL:rsa_math.obj
 0001:0007d0d0       Sub                        1007e0d0 f   k.coredll_ALL:rsa_fast.obj
 0001:0007d120       Add                        1007e120 f   k.coredll_ALL:rsa_fast.obj
 0001:0007d16c       BaseMult                   1007e16c f   k.coredll_ALL:rsa_fast.obj
 0001:0007d1cc       Accumulate                 1007e1cc f   k.coredll_ALL:rsa_fast.obj
 0001:0007d248       Reduce                     1007e248 f   k.coredll_ALL:rsa_fast.obj
 0001:0007d2c8       AccumulateSquares          1007e2c8 f   k.coredll_ALL:rsa_fast.obj
 0001:0007d31c       WinRegInit                 1007e31c f   corestub:swinreg.obj
 0001:0007d320       stub_CreateProcessW        1007e320 f   corestub:stkfuncs.obj
 0001:0007d364       stub_LoadLibraryExW        1007e364 f   corestub:stkfuncs.obj
 0001:0007d368       __GSHandlerCheckCommon     1007e368 f   corelib0:gshandler.obj
 0001:0007d3a4       __GSHandlerCheck           1007e3a4 f   corelib0:gshandler.obj
 0001:0007d3c4       __security_init_cookie     1007e3c4 f   corelib0:seccinit.obj
 0001:0007d410       __security_check_cookie    1007e410 f   corelib0:armsecgs.obj
 0001:0007d420       __gsfailure                1007e420     corelib0:armsecgs.obj
 0001:0007d464       __GSHandlerCheck_SEH       1007e464 f   corelib0:gshandlerseh.obj
 0001:0007d4b8       _onexit                    1007e4b8 f   corelib0:onexit.obj
 0001:0007d63c       atexit                     1007e63c f   corelib0:onexit.obj
 0001:0007d654       _cinit                     1007e654 f   corelib0:crt0dat.obj
 0001:0007d704       ??__Fcs@?1??get_lock@?$singleton@V?$free_list@$0GE@Vallocator@ce@@@ce@@$03V?$static_allocator@V?$free_list@$0GE@Vallocator@ce@@@ce@@$03@2@@ce@@KAAAVcritical_section@2@XZ@YAXXZ 1007e704 f i k.coredll_ALL:Imm.obj
 0001:0007ec1c       _TI2?AVbad_alloc@std@@     1007fc1c     k.coredll_ALL:nomemory.obj
 0001:0007ec2c       _CTA2?AVbad_alloc@std@@    1007fc2c     k.coredll_ALL:nomemory.obj
 0001:0007ec38       _CT??_R0?AVbad_alloc@std@@@8??0bad_alloc@std@@QAA@ABV01@@Z12 1007fc38     k.coredll_ALL:nomemory.obj
 0001:0007ec54       _CT??_R0?AVexception@std@@@8??0exception@std@@QAA@ABV01@@Z12 1007fc54     k.coredll_ALL:nomemory.obj
 0001:0007ec70       _TI3?AVout_of_range@std@@  1007fc70     k.coredll_ALL:string.obj
 0001:0007ec80       _CTA3?AVout_of_range@std@@ 1007fc80     k.coredll_ALL:string.obj
 0001:0007ec90       _CT??_R0?AVout_of_range@std@@@8??0out_of_range@std@@QAA@ABV01@@Z28 1007fc90     k.coredll_ALL:string.obj
 0001:0007ecac       _CT??_R0?AVlogic_error@std@@@8??0logic_error@std@@QAA@ABV01@@Z28 1007fcac     k.coredll_ALL:string.obj
 0001:0007ecc8       _TI3?AVlength_error@std@@  1007fcc8     k.coredll_ALL:string.obj
 0001:0007ecd8       _CTA3?AVlength_error@std@@ 1007fcd8     k.coredll_ALL:string.obj
 0001:0007ece8       _CT??_R0?AVlength_error@std@@@8??0length_error@std@@QAA@ABV01@@Z28 1007fce8     k.coredll_ALL:string.obj
 0001:0007ed04       _TI2?AVlogic_error@std@@   1007fd04     k.coredll_ALL:string.obj
 0001:0007ed14       _CTA2?AVlogic_error@std@@  1007fd14     k.coredll_ALL:string.obj
 0001:0007ed20       _TI2?AVbad_typeid@std@@    1007fd20     k.coredll_ALL:rtti.obj
 0001:0007ed30       _TI3?AV__non_rtti_object@std@@ 1007fd30     k.coredll_ALL:rtti.obj
 0001:0007ed40       _CTA3?AV__non_rtti_object@std@@ 1007fd40     k.coredll_ALL:rtti.obj
 0001:0007ed50       _CT??_R0?AV__non_rtti_object@std@@@8??0__non_rtti_object@std@@QAA@ABV01@@Z12 1007fd50     k.coredll_ALL:rtti.obj
 0001:0007ed6c       _CT??_R0?AVbad_typeid@std@@@8??0bad_typeid@std@@QAA@ABV01@@Z12 1007fd6c     k.coredll_ALL:rtti.obj
 0001:0007ed88       _CTA2?AVbad_typeid@std@@   1007fd88     k.coredll_ALL:rtti.obj
 0001:0007ed94       _TI2?AVbad_cast@std@@      1007fd94     k.coredll_ALL:rtti.obj
 0001:0007eda4       _CTA2?AVbad_cast@std@@     1007fda4     k.coredll_ALL:rtti.obj
 0001:0007edb0       _CT??_R0?AVbad_cast@std@@@8??0bad_cast@std@@QAA@ABV01@@Z12 1007fdb0     k.coredll_ALL:rtti.obj
 0002:00000010       ??_R0?AVexception@std@@@8  10090010     k.coredll_ALL:stdexcpt.obj
 0002:0000002c       ??_R0?AVtype_info@@@8      1009002c     k.coredll_ALL:typinfo.obj
 0002:00000048       ?g_rgPerfItems@@3PAU_CEPERF_BASIC_ITEM_DESCRIPTOR@@A 10090048     k.coredll_ALL:Imm.obj
 0002:000000fc       ??_R0?AVbad_alloc@std@@@8  100900fc     k.coredll_ALL:nomemory.obj
 0002:00000118       ??_R0?AVlogic_error@std@@@8 10090118     k.coredll_ALL:string.obj
 0002:00000138       ??_R0?AVout_of_range@std@@@8 10090138     k.coredll_ALL:string.obj
 0002:00000158       ??_R0?AVlength_error@std@@@8 10090158     k.coredll_ALL:string.obj
 0002:00000178       ?__pUnexpected@@3P6AXXZA   10090178     k.coredll_ALL:hooks.obj
 0002:0000017c       ?__pInconsistency@@3P6AXXZA 1009017c     k.coredll_ALL:hooks.obj
 0002:00000188       ?g_dwLockSlot@@3KA         10090188     k.coredll_ALL:cerwlock.obj
 0002:00000190       ?g_dwHeapAllocTag@@3KA     10090190     k.coredll_ALL:rheap.obj
 0002:00000194       g_hDSTService              10090194     k.coredll_ALL:time.obj
 0002:00000198       g_hTzRegChangeEvent        10090198     k.coredll_ALL:time.obj
 0002:0000019c       ?g_pszProgName@@3PBGB      1009019c     k.coredll_ALL:loader.obj
 0002:000001a0       ?g_pszCmdLine@@3PBGB       100901a0     k.coredll_ALL:loader.obj
 0002:000001a8       ?ghCredSvc@@3PAXA          100901a8     k.coredll_ALL:tcredapi.obj
 0002:000001c4       ?s_hPerfAppLaunchSession@?1??MDPGPerfGetAppLaunchSession@@YAJPAPAX@Z@4PAXA 100901c4     k.coredll_ALL:shlexec.obj
 0002:000001c8       _HUGE                      100901c8     k.coredll_ALL:fpredir.obj
 0002:000001d0       hCOMPort                   100901d0     k.coredll_ALL:stioinit.obj
 0002:000001d8       _XcptActTab                100901d8     k.coredll_ALL:xcptfltr.obj
 0002:00000250       _XcptActTabSize            10090250     k.coredll_ALL:xcptfltr.obj
 0002:00000254       _XcptActTabCount           10090254     k.coredll_ALL:xcptfltr.obj
 0002:00000258       ??_R0?AVbad_cast@std@@@8   10090258     k.coredll_ALL:rtti.obj
 0002:00000274       ??_R0?AVbad_typeid@std@@@8 10090274     k.coredll_ALL:rtti.obj
 0002:00000294       ??_R0?AV__non_rtti_object@std@@@8 10090294     k.coredll_ALL:rtti.obj
 0002:000002c8       ??_R0?AVDNameNode@@@8      100902c8     k.coredll_ALL:undname.obj
 0002:000002e0       ??_R0?AVcharNode@@@8       100902e0     k.coredll_ALL:undname.obj
 0002:000002f8       ??_R0?AVpDNameNode@@@8     100902f8     k.coredll_ALL:undname.obj
 0002:00000314       ??_R0?AVDNameStatusNode@@@8 10090314     k.coredll_ALL:undname.obj
 0002:00000334       ??_R0?AVpairNode@@@8       10090334     k.coredll_ALL:undname.obj
 0002:0000034c       ??_R0?AVpcharNode@@@8      1009034c     k.coredll_ALL:undname.obj
 0002:00000364       g_defaultSortVersion       10090364     k.coredll_ALL:sorting.obj
 0002:00000370       dwSizeCtx                  10090370     k.coredll_ALL:stfarm.obj
 0002:00000380       __nullstring               10090380     k.coredll_ALL:output.obj
 0002:00000384       __wnullstring              10090384     k.coredll_ALL:output.obj
 0002:000003c4       __security_cookie          100903c4     corelib0:seccinit.obj
 0002:000003c8       __security_cookie_complement 100903c8     corelib0:seccinit.obj
 0002:000003e0       g_ppfnCritCalls            100903e0     k.coredll_ALL:coredll.obj
 0002:000003e4       g_ppfnFysCalls             100903e4     k.coredll_ALL:coredll.obj
 0002:000003e8       g_csProc                   100903e8     k.coredll_ALL:coredll.obj
 0002:000003fc       g_csCFFM                   100903fc     k.coredll_ALL:coredll.obj
 0002:00000414       g_pfnKLibIoctl             10090414     k.coredll_ALL:coredll.obj
 0002:00000418       ?pGweApiSet2Entrypoints@@3PAVGweApiSet2_t@@A 10090418     k.coredll_ALL:coredll.obj
 0002:0000041c       Win32Methods               1009041c     k.coredll_ALL:coredll.obj
 0002:00000420       g_ppfnWin32Calls           10090420     k.coredll_ALL:coredll.obj
 0002:00000424       hInstCoreDll               10090424     k.coredll_ALL:coredll.obj
 0002:00000428       g_ppfnDevMgrCalls          10090428     k.coredll_ALL:coredll.obj
 0002:0000042c       ?pGweApiSet1Entrypoints@@3PAVGweApiSet1_t@@A 1009042c     k.coredll_ALL:coredll.obj
 0002:00000440       ?s_bSystemImeInfoLoadFail@ImeInfoEntry@@0_NA 10090440     k.coredll_ALL:Imm.obj
 0002:00000441       ?s_bSystemImeInfoLoadSuccess@ImeInfoEntry@@0_NA 10090441     k.coredll_ALL:Imm.obj
 0002:00000442       ?s_Initialized@HimcPrivateList_t@@0_NA 10090442     k.coredll_ALL:Imm.obj
 0002:00000444       ?s_phimcpHimcListHead@HimcPrivateList_t@@0PAVHimcPrivate@@A 10090444     k.coredll_ALL:Imm.obj
 0002:00000448       ?s_piieListHead@ImeInfoEntry@@0PAV1@A 10090448     k.coredll_ALL:Imm.obj
 0002:0000044c       ?s_CriticalSection@HimcPrivateList_t@@0UCRITICAL_SECTION@@A 1009044c     k.coredll_ALL:Imm.obj
 0002:00000460       ?s_csLoading@ImeInfoEntry@@0UCRITICAL_SECTION@@A 10090460     k.coredll_ALL:Imm.obj
 0002:00000474       ?g_bLayoutMgrLoaded@@3_NA  10090474     k.coredll_ALL:Imm.obj
 0002:00000478       ?g_SupportedHKL@@3UtagSUPPORTEDHKL@@A 10090478     k.coredll_ALL:Imm.obj
 0002:000004e8       ?g_fIMMPerfTurnPerfOn@@3HA 100904e8     k.coredll_ALL:Imm.obj
 0002:000004ec       pCePerfInternal            100904ec     k.coredll_ALL:Imm.obj
 0002:000004f0       ?g_hPerfSession@@3PAXA     100904f0     k.coredll_ALL:Imm.obj
 0002:000004f4       ??_B?1??get_lock@?$singleton@V?$free_list@$0GE@Vallocator@ce@@@ce@@$03V?$static_allocator@V?$free_list@$0GE@Vallocator@ce@@@ce@@$03@2@@ce@@KAAAVcritical_section@2@XZ@51 100904f4     k.coredll_ALL:Imm.obj
 0002:000004f8       ?cs@?1??get_lock@?$singleton@V?$free_list@$0GE@Vallocator@ce@@@ce@@$03V?$static_allocator@V?$free_list@$0GE@Vallocator@ce@@@ce@@$03@2@@ce@@KAAAVcritical_section@3@XZ@4V43@A 100904f8     k.coredll_ALL:Imm.obj
 0002:0000050c       ?_factory@?$singleton@V?$free_list@$0GE@Vallocator@ce@@@ce@@$03V?$static_allocator@V?$free_list@$0GE@Vallocator@ce@@@ce@@$03@2@@ce@@1Ulock_factory@12@A 1009050c     k.coredll_ALL:Imm.obj
 0002:00000528       ?__pTerminate@@3P6AXXZA    10090528     k.coredll_ALL:hooks.obj
 0002:0000052c       ?_pnhHeap@@3P6AHI@ZA       1009052c     k.coredll_ALL:handler.obj
 0002:00000530       _newmode                   10090530     k.coredll_ALL:new_mode.obj
 0002:00000540       SystemGUID                 10090540     k.coredll_ALL:tfsmain.obj
 0002:00000550       ?g_TraceBuffer@@3PCEC      10090550     k.coredll_ALL:tevnt.obj
 0002:00000558       ?g_fFullyCompacted@@3HA    10090558     k.coredll_ALL:rheap.obj
 0002:0000055c       g_phpListAll               1009055c     k.coredll_ALL:rheap.obj
 0002:00000560       g_csHeapList               10090560     k.coredll_ALL:rheap.obj
 0002:00000574       g_hProcessHeap             10090574     k.coredll_ALL:rheap.obj
 0002:00000578       ?g_ModuleHeapInfo@@3U_MODULEHEAPINFO@@A 10090578     k.coredll_ALL:rheap.obj
 0002:000005ec       g_dwNumTimeZoneEntries     100905ec     k.coredll_ALL:time.obj
 0002:000005f0       g_rgTimeZoneList           100905f0     k.coredll_ALL:time.obj
 0002:000005f4       ?g_hCePerfDLL@@3PAUHINSTANCE__@@A 100905f4     k.coredll_ALL:tkprofile.obj
 0002:000005f8       ?g_IsCePerfMissing@@3HA    100905f8     k.coredll_ALL:tkprofile.obj
 0002:00000604       g_fInitDone                10090604     k.coredll_ALL:loader.obj
 0002:00000608       IsExiting                  10090608     k.coredll_ALL:loader.obj
 0002:00000610       NKwvsprintfW               10090610     k.coredll_ALL:loader.obj
 0002:00000614       ?FindModule@@3P6APAU_USERMODULELIST@@PAUHINSTANCE__@@@ZA 10090614     k.coredll_ALL:loader.obj
 0002:00000828       Calendars                  10090828     k.coredll_ALL:locale.obj
 0002:00000860       hWnd                       10090860     k.coredll_ALL:cryptapi.obj
 0002:00000864       pbContextInfo              10090864     k.coredll_ALL:cryptapi.obj
 0002:00000868       cbContextInfo              10090868     k.coredll_ALL:cryptapi.obj
 0002:0000087c       ?pfnCeCredRead@@3P6AHPBGKKPAPAU_CECREDENTIAL@@@ZA 1009087c     k.coredll_ALL:username.obj
 0002:00000880       ?pfnCeCredFree@@3P6AHPAX@ZA 10090880     k.coredll_ALL:username.obj
 0002:000008a4       g_UsrCoredllCallbackArray  100908a4     k.coredll_ALL:UsrCoredllCallbacks.obj
 0002:000008e4       g_pfnGetCommState          100908e4     k.coredll_ALL:stioinit.obj
 0002:000008e8       g_pfnSetCommState          100908e8     k.coredll_ALL:stioinit.obj
 0002:000008ec       g_pfnSetCommTimeouts       100908ec     k.coredll_ALL:stioinit.obj
 0002:000008f0       g_pfnGetCommTimeouts       100908f0     k.coredll_ALL:stioinit.obj
 0002:00000900       _pxcptinfoptrs             10090900     k.coredll_ALL:xcptfltr.obj
 0002:00000928       ?g_CeTlsSlotPfn@@3PAP6AXKPAX@ZA 10090928     k.coredll_ALL:cetls.obj
 0002:00000a28       ?g_CeTlsActiveNodes@@3U_DLIST@@A 10090a28     k.coredll_ALL:cetls.obj
 0002:00000a30       ?g_maxTlsSlot@@3KA         10090a30     k.coredll_ALL:cetls.obj
 0002:00000a34       ?g_CeTlsFreeNodes@@3U_DLIST@@A 10090a34     k.coredll_ALL:cetls.obj
 0002:00000a3c       ?g_hCleanupThread@@3PAXA   10090a3c     k.coredll_ALL:cetls.obj
 0002:00000a40       ?g_CeTlsLock@@3UCRITICAL_SECTION@@A 10090a40     k.coredll_ALL:cetls.obj
 0002:00000a54       ?g_hCleanupEvent@@3PAXA    10090a54     k.coredll_ALL:cetls.obj
 0002:00000b58       ?pArgList@UnDecorator@@0PAVReplicator@@A 10090b58     k.coredll_ALL:undname.obj
 0002:00000b5c       ?pZNameList@UnDecorator@@0PAVReplicator@@A 10090b5c     k.coredll_ALL:undname.obj
 0002:00000b60       ?pTemplateArgList@UnDecorator@@0PAVReplicator@@A 10090b60     k.coredll_ALL:undname.obj
 0002:00000b64       ?gName@UnDecorator@@0PBDB  10090b64     k.coredll_ALL:undname.obj
 0002:00000b68       ?name@UnDecorator@@0PBDB   10090b68     k.coredll_ALL:undname.obj
 0002:00000b6c       ?outputString@UnDecorator@@0PADA 10090b6c     k.coredll_ALL:undname.obj
 0002:00000b70       ?maxStringLength@UnDecorator@@0HA 10090b70     k.coredll_ALL:undname.obj
 0002:00000b74       ?disableFlags@UnDecorator@@0KA 10090b74     k.coredll_ALL:undname.obj
 0002:00000b78       ?m_pGetParameter@UnDecorator@@0P6APADJ@ZA 10090b78     k.coredll_ALL:undname.obj
 0002:00000b7c       ?fExplicitTemplateParams@UnDecorator@@0_NA 10090b7c     k.coredll_ALL:undname.obj
 0002:00000b7d       ?fGetTemplateArgumentList@UnDecorator@@0_NA 10090b7d     k.coredll_ALL:undname.obj
 0002:00000b80       ??_B?1??make@DNameStatusNode@@SAPAV1@W4DNameStatus@@@Z@51 10090b80     k.coredll_ALL:undname.obj
 0002:00000b84       ?nodes@?1??make@DNameStatusNode@@SAPAV2@W4DNameStatus@@@Z@4PAV2@A 10090b84     k.coredll_ALL:undname.obj
 0002:00000bb4       ?process_modules@@3PAU_MODULE_INFO@@A 10090bb4     k.coredll_ALL:AppVerifier.obj
 0002:00000bb8       ?loading_shim@@3HA         10090bb8     k.coredll_ALL:AppVerifier.obj
 0002:00000bbc       ?g_bIsAppVerifierActive@@3HA 10090bbc     k.coredll_ALL:AppVerifier.obj
 0002:00000bc0       bVirtualNlsReady           10090bc0     k.coredll_ALL:VirtualNlsFileSet.obj
 0002:00000bc4       pTblPtrs                   10090bc4     k.coredll_ALL:nlstable.obj
 0002:00000bc8       g_definedDefaultSortVersion 10090bc8     k.coredll_ALL:sorting.obj
 0002:00000bcc       g_hSortingDll              10090bcc     k.coredll_ALL:sorting.obj
 0002:00000bd0       g_fSortingDLL              10090bd0     k.coredll_ALL:sorting.obj
 0002:00000bd4       g_pfSortGetHandle          10090bd4     k.coredll_ALL:sorting.obj
 0002:00000bd8       g_pfSortCloseHandle        10090bd8     k.coredll_ALL:sorting.obj
 0002:00000bdc       g_pInvariantSortList       10090bdc     k.coredll_ALL:sorting.obj
 0002:00000ca0       ?sm_NumRemovedNotPurged@CNotifyList@@1IA 10090ca0     k.coredll_ALL:notifylist.obj
 0002:00000ca4       ?sm_ppRemovedNotPurged@CNotifyList@@1PAPAVCNotify@@A 10090ca4     k.coredll_ALL:notifylist.obj
 0002:00000ca8       ?sm_NotifyList@CNotifyList@@1V1@A 10090ca8     k.coredll_ALL:notifylist.obj
 0002:00000cac       _stdbuf                    10090cac     k.coredll_ALL:_sftbuf.obj
 0002:00000cc0       g_FuncTblNormalize         10090cc0     <common>
 0002:00000ce0       g_FuncTblLocale            10090ce0     <common>
 0002:00000d60       g_csInvarianSort           10090d60     <common>
 0002:00000d80       g_pSortHash                10090d80     <common>
 0002:00000f80       pVirtualNlsSet             10090f80     <common>
 0002:00001204       fStdioInited               10091204     <common>
 0002:00001220       csStdioInitLock            10091220     <common>
 0002:00001234       _pfnfilbuf2                10091234     <common>
 0002:00001238       pfnTermStdio               10091238     <common>
 0002:0000123c       pfnInitStdio               1009123c     <common>
 0002:00001240       _pfnflsbuf2                10091240     <common>
 0002:00001260       csCrtTypeInfoLock          10091260     <common>
 0002:00001274       g_fCrtLegacyInputValidation 10091274     <common>
 0002:00001278       __pInvalidArgHandler       10091278     <common>
 0002:0000127c       _fltused                   1009127c     <common>
 0002:00001280       __piob                     10091280     <common>
 0002:000012a0       csIobScanLock              100912a0     <common>
 0002:000012b4       _nstream                   100912b4     <common>
 0002:000012b8       sr                         100912b8     <common>
 0002:000012bc       g_ppfnNetCfCalls           100912bc     <common>
 0002:000012c0       g_csTZList                 100912c0     <common>
 0002:000012d4       g_fIsCriticalProcess       100912d4     <common>
 0002:000012d8       __onexitend                100912d8     <common>
 0002:000012dc       __onexitbegin              100912dc     <common>
 0002:000012e0       g_pcsExit                  100912e0     <common>

 entry point at        0001:0000797c

 Static symbols

 0001:00007800       ?KMessageBoxW_I@@YAHPAUHWND__@@PBG1IPAUtagMSG@@I@Z 10008800 f   k.coredll_ALL:coredll.obj
 0001:00007d14       __catch$4242               10008d14 f   k.coredll_ALL:newop2.obj
 0001:000089e8       ?ImmGetConversionStatusForeground@@YAHPAK0@Z 100099e8 f   k.coredll_ALL:Imm.obj
 0001:00008c80       ?ImmGetCompositionStringForeground@@YAHPAJ@Z 10009c80 f   k.coredll_ALL:Imm.obj
 0001:00009c98       ?ImmRequestMessageWorker@@YAJKPAUHWND__@@IJ@Z 1000ac98 f   k.coredll_ALL:Imm.obj
 0001:0000c794       ?ImmSetCompositionStringWorker@@YAHKKPBXK0K@Z 1000d794 f   k.coredll_ALL:Imm.obj
 0001:0000d724       ?DestroyDefaultContextandImeWindow@@YAXXZ 1000e724 f   k.coredll_ALL:Imm.obj
 0001:00011fdc       __catch$7227               10012fdc f i k.coredll_ALL:string.obj
 0001:00012164       __unwind$7479              10013164 f   k.coredll_ALL:string.obj
 0001:00012384       __unwind$7730              10013384 f i k.coredll_ALL:string.obj
 0001:00012400       __unwind$7760              10013400 f i k.coredll_ALL:string.obj
 0001:00012514       __unwind$7880              10013514 f   k.coredll_ALL:string.obj
 0001:00012b48       ?CanThisExceptionObjectBeDestructed@@YAEPAUEHExceptionRecord@@E@Z 10013b48 f   k.coredll_ALL:frame.obj
 0001:00012e04       ?CallCatchBlock@@YAPAXPAUEHExceptionRecord@@PAKPAU_CONTEXT@@PBU_s_FuncInfo@@PAXHK@Z 10013e04 f   k.coredll_ALL:frame.obj
 0001:000130dc       ?BuildCatchObject@@YAXPAUEHExceptionRecord@@PAKPBU_s_HandlerType@@PBU_s_CatchableType@@@Z 100140dc f   k.coredll_ALL:frame.obj
 0001:0001327c       ?FindHandler@@YAEPAUEHExceptionRecord@@PAKPAU_CONTEXT@@PAU_DISPATCHER_CONTEXT@@PBU_s_FuncInfo@@H@Z 1001427c f   k.coredll_ALL:frame.obj
 0001:000199d8       ?AutoCloseCFFMHandle@@YAHPAX@Z 1001a9d8 f   k.coredll_ALL:tkfuncs.obj
 0001:00019f64       ?WatchDogAPI@@YAHKPBU_WDAPIStruct@@@Z 1001af64 f   k.coredll_ALL:tkfuncs.obj
 0001:0001e868       ?FindEntry@@YAPAU_OWNER_ENTRY@@PAUHRWLOCK__@@@Z 1001f868 f   k.coredll_ALL:cerwlock.obj
 0001:0001e900       ?AddEntry@@YAPAU_OWNER_ENTRY@@PAUHRWLOCK__@@@Z 1001f900 f   k.coredll_ALL:cerwlock.obj
 0001:0001e9cc       ?TrimOwnerTable@@YAXPAPAU_OWNER_ENTRY@@@Z 1001f9cc f   k.coredll_ALL:cerwlock.obj
 0001:0001ea94       ?UpdateLockState@@YAXPAU_CERWLOCK@@H@Z 1001fa94 f   k.coredll_ALL:cerwlock.obj
 0001:0001eb5c       ?ReleaseLock@@YAHPAUHRWLOCK__@@W4tagCERW_TYPE@@H@Z 1001fb5c f   k.coredll_ALL:cerwlock.obj
 0001:0001eca8       ?WaitForLock@@YAHPAXPAU_CERWLOCK@@PAK@Z 1001fca8 f   k.coredll_ALL:cerwlock.obj
 0001:0001ed84       ?AcquireLockShared@@YAHPAUHRWLOCK__@@K@Z 1001fd84 f   k.coredll_ALL:cerwlock.obj
 0001:0001ee80       ?BoostLockToExclusive@@YAHPAUHRWLOCK__@@PAU_OWNER_ENTRY@@K@Z 1001fe80 f   k.coredll_ALL:cerwlock.obj
 0001:0001ef38       ?AcquireLockExclusive@@YAHPAUHRWLOCK__@@K@Z 1001ff38 f   k.coredll_ALL:cerwlock.obj
 0001:0001fef0       ?GetBufferSize@@YAKPAXKKH@Z 10020ef0 f   k.coredll_ALL:tkmarshal.obj
 0001:000200a4       ?AllocDuplicateBuffer@@YAJPAPAXPAXKKKH@Z 100210a4 f   k.coredll_ALL:tkmarshal.obj
 0001:00020174       ?FlushDuplicateBuffer@@YAJPAX0KKH@Z 10021174 f   k.coredll_ALL:tkmarshal.obj
 0001:00021c24       ?CopySortsToEx@@YAXPAU__CEDB_SORTORDERSPECEX@@PAU_SORTORDERSPEC@@G@Z 10022c24 f   k.coredll_ALL:twindbas.obj
 0001:000236e4       ?AllocMemShare@@YAPAXPAXKKPAK@Z 100246e4 f   k.coredll_ALL:rheap.obj
 0001:000236f8       ?AllocMemShareExecutable@@YAPAXPAXKKPAK@Z 100246f8 f   k.coredll_ALL:rheap.obj
 0001:00023750       ?AllocMemVirt@@YAPAXPAXKKPAK@Z 10024750 f   k.coredll_ALL:rheap.obj
 0001:00023788       ?AllocMemVirtExecutable@@YAPAXPAXKKPAK@Z 10024788 f   k.coredll_ALL:rheap.obj
 0001:000237c0       ?FreeMemVirt@@YAHPAXKKK@Z  100247c0 f   k.coredll_ALL:rheap.obj
 0001:000237f4       ?FreeMemMappedFile@@YAHPAXKKK@Z 100247f4 f   k.coredll_ALL:rheap.obj
 0001:0002389c       ?AllocMemMappedFile@@YAPAXPAXKKPAK@Z 1002489c f   k.coredll_ALL:rheap.obj
 0001:00023a1c       ?TakeBlocks@@YAXPAU_RHRGN@@KK@Z 10024a1c f   k.coredll_ALL:rheap.obj
 0001:00023ad8       ?FreeBlocks@@YAXPAU_RHRGN@@KKK@Z 10024ad8 f   k.coredll_ALL:rheap.obj
 0001:00023ba4       ?CommitBlocks@@YAHPAU_RHRGN@@K@Z 10024ba4 f   k.coredll_ALL:rheap.obj
 0001:00023c14       ?CountFreeBlocks@@YAKPAU_RHRGN@@KK@Z 10024c14 f   k.coredll_ALL:rheap.obj
 0001:00023ce0       ?CountAllocBlocksFx@@YAKPAU_RHRGN@@K@Z 10024ce0 f   k.coredll_ALL:rheap.obj
 0001:00023d54       ?CountAllocBlocks@@YAKPAU_RHRGN@@K@Z 10024d54 f   k.coredll_ALL:rheap.obj
 0001:00023e34       ?DoFindBlockInRegion@@YAKPAU_RHRGN@@KKK@Z 10024e34 f   k.coredll_ALL:rheap.obj
 0001:00023f94       ?InitRegion@@YAHPAU_RHEAP@@PAU_RHRGN@@PAEKKKK@Z 10024f94 f   k.coredll_ALL:rheap.obj
 0001:000241b8       ?FindRegionByPtr@@YAPAU_RHRGN@@PAU_RHEAP@@PBEH@Z 100251b8 f   k.coredll_ALL:rheap.obj
 0001:00024280       ?DoRHeapValidatePtr@@YAPAU_RHVAITEM@@PAU_RHEAP@@PBEPAHH@Z 10025280 f   k.coredll_ALL:rheap.obj
 0001:000243a8       ?ValidateRegion@@YAHPAU_RHEAP@@PAU_RHRGN@@@Z 100253a8 f   k.coredll_ALL:rheap.obj
 0001:0002443c       ?EnumerateRegionItems@@YAHPAU_RHRGN@@P6AHPAEKKPAX@Z2@Z 1002543c f   k.coredll_ALL:rheap.obj
 0001:00024718       ?EnumCountSize@@YAHPAEKKPAX@Z 10025718 f   k.coredll_ALL:rheap.obj
 0001:00024734       ?DoRHeapCompactRegion@@YAIPAU_RHRGN@@@Z 10025734 f   k.coredll_ALL:rheap.obj
 0001:00024c9c       ?DoRHeapCompactRgnList@@YAIPAU_RHEAP@@PAU_RHRGN@@PAPAU2@@Z 10025c9c f   k.coredll_ALL:rheap.obj
 0001:00025318       ?RHeapGrowNewRegion@@YAPAU_RHRGN@@PAU_RHEAP@@KKPAK@Z 10026318 f   k.coredll_ALL:rheap.obj
 0001:000255ec       ?DoRHeapVMAlloc@@YAPAEPAU_RHEAP@@KK@Z 100265ec f   k.coredll_ALL:rheap.obj
 0001:000256d0       ?ReleaseHeapMemory@@YAXPAU_RHEAP@@@Z 100266d0 f   k.coredll_ALL:rheap.obj
 0001:000265b8       DoSetTime                  100275b8 f   k.coredll_ALL:time.obj
 0001:00026a50       Int_SetTimeZoneInformation 10027a50 f   k.coredll_ALL:time.obj
 0001:00026fc8       SetValidTimeZoneEntry      10027fc8 f   k.coredll_ALL:time.obj
 0001:00027338       ValidateTZID               10028338 f   k.coredll_ALL:time.obj
 0001:000274a0       GetDefaultTimeZoneInformationID 100284a0 f   k.coredll_ALL:time.obj
 0001:000276c4       CopyTimeZoneInformation    100286c4 f   k.coredll_ALL:time.obj
 0001:000295f4       ?GetLangExceptCasing@@YAGKKG@Z 1002a5f4 f   k.coredll_ALL:codepage.obj
 0001:00029c70       ?InsertCompositeForm@@YAHPAGPBG@Z 1002ac70 f   k.coredll_ALL:codepage.obj
 0001:00029d18       ?GetPreComposedChar@@YAGGG@Z 1002ad18 f   k.coredll_ALL:codepage.obj
 0001:00029db0       ?InsertFullWidthPreComposedForm@@YAHKKPBG0PAG1G@Z 1002adb0 f   k.coredll_ALL:codepage.obj
 0001:00029f2c       ?SingleSegmentNls_MapHalfKana@@YAHKKPBGHPAGH1G1GPAU_NlsWrapperData@@@Z 1002af2c f   k.coredll_ALL:codepage.obj
 0001:0002a298       ?MapHalfKana@@YAHKKPBGHPAGH1G1G@Z 1002b298 f   k.coredll_ALL:codepage.obj
 0001:0002a360       ?MapFullKana@@YAHKKPBGHPAGH1G1G@Z 1002b360 f   k.coredll_ALL:codepage.obj
 0001:0002a4dc       ?SingleSegmentNls_MapKanaWidth@@YAHKKPBGHPAGHPAU_NlsWrapperData@@@Z 1002b4dc f   k.coredll_ALL:codepage.obj
 0001:0002a9e8       ?MapNormalization@@YAHKKPBGHPAGH@Z 1002b9e8 f   k.coredll_ALL:codepage.obj
 0001:0002aec8       ?GetWCFromSB@@YAHPBUCodeDesc@@KPBEPAGPBG@Z 1002bec8 f   k.coredll_ALL:codepage.obj
 0001:0002afa0       ?GetSingleByteCharFromWideChar@@YAXPBUCodeDesc@@GPAEEPAH@Z 1002bfa0 f   k.coredll_ALL:codepage.obj
 0001:0002b01c       ?GetMultiByteCharFromWideChar@@YAXPBUCodeDesc@@GPAHPAGGH1@Z 1002c01c f   k.coredll_ALL:codepage.obj
 0001:0002b0a4       ?GetWCFromMB@@YAHPBUCodeDesc@@KPBE1PAG2PAH@Z 1002c0a4 f   k.coredll_ALL:codepage.obj
 0001:0002bf84       ?Int_towlower@@YAGG@Z      1002cf84 f   k.coredll_ALL:codepage.obj
 0001:0002c030       ?Int_towupper@@YAGG@Z      1002d030 f   k.coredll_ALL:codepage.obj
 0001:0002c428       ?EnumDllCodePagesW@@YAHP6AHPAG@ZKPAKPAI@Z 1002d428 f   k.coredll_ALL:codepage.obj
 0001:0002cdd0       ?FoldDigits@@YAHPBGHPAGH@Z 1002ddd0 f   k.coredll_ALL:codepage.obj
 0001:0002de74       ?CallDllMain@@YAHPAU_USERMODULELIST@@K@Z 1002ee74 f   k.coredll_ALL:loader.obj
 0001:0002df48       ?ResolveImpStr@@YAKPAU_USERMODULELIST@@PBUExpHdr@@PBD@Z 1002ef48 f   k.coredll_ALL:loader.obj
 0001:0002e050       ?ImportOneBlock@@YAKPAU_USERMODULELIST@@KPAK1@Z 1002f050 f   k.coredll_ALL:loader.obj
 0001:0002e178       ?DoImports@@YAHPAU_USERMODULELIST@@KPBUinfo@@@Z 1002f178 f   k.coredll_ALL:loader.obj
 0001:0002e394       ?UnDoDepends@@YAXPAU_USERMODULELIST@@@Z 1002f394 f   k.coredll_ALL:loader.obj
 0001:0002e494       ?DoImportAndCallDllMain@@YAPAU_USERMODULELIST@@PAU1@@Z 1002f494 f   k.coredll_ALL:loader.obj
 0001:0002e72c       ?FindForwardDll@@YAPAU_USERMODULELIST@@PBG@Z 1002f72c f   k.coredll_ALL:loader.obj
 0001:0002e7e4       ?AddrFromEat@@YAKPAU_USERMODULELIST@@K@Z 1002f7e4 f   k.coredll_ALL:loader.obj
 0001:0002e944       ?DoGetProcAddressA@@YAP6AHXZPAU_USERMODULELIST@@PBD@Z 1002f944 f   k.coredll_ALL:loader.obj
 0001:00031f00       FiberBaseFunc              10032f00 f   k.coredll_ALL:fiber.obj
 0001:00036448       __ltoaW                    10037448 f   k.coredll_ALL:cryptapi.obj
 0001:00039c70       ?RegReadWindowList@@YAKPAUHKEY__@@PAG1KPAKPAU_DEVICEWINDOW_tag@@@Z 1003ac70 f   k.coredll_ALL:memcfg.obj
 0001:0003be14       ?GetResourcInformation@@YAPBUinfo@@PAUHINSTANCE__@@PAPAU_USERMODULELIST@@PAK@Z 1003ce14 f   k.coredll_ALL:resource.obj
 0001:0003bec8       ?FindTypeByName@@YAKKKPBG@Z 1003cec8 f   k.coredll_ALL:resource.obj
 0001:0003bfa4       ?FindTypeByNum@@YAKKK@Z    1003cfa4 f   k.coredll_ALL:resource.obj
 0001:0003c024       ?DoFindResource@@YAPAUHRSRC__@@PBUinfo@@PBG1@Z 1003d024 f   k.coredll_ALL:resource.obj
 0001:0003c5f8       ?DoExtractResrouce@@YAPAEPAU_USERMODULELIST@@PBG1PAK@Z 1003d5f8 f   k.coredll_ALL:resource.obj
 0001:0003fe98       CreateNLSKey               10040e98 f   k.coredll_ALL:nlsapi.obj
 0001:0003fef4       CreateNLSKeyNew            10040ef4 f   k.coredll_ALL:nlsapi.obj
 0001:0003ff58       BuildOverrideList          10040f58 f   k.coredll_ALL:nlsapi.obj
 0001:000407f4       ClearInternationalList     100417f4 f   k.coredll_ALL:nlsapi.obj
 0001:00048e6c       LoadCoredllApi             10049e6c f   k.coredll_ALL:stioinit.obj
 0001:00049c8c       ?FindMITargetTypeInstance@@YAPBU_s_RTTIBaseClassDescriptor@@PAXPBU_s_RTTICompleteObjectLocator@@PAUTypeDescriptor@@H2@Z 1004ac8c f   k.coredll_ALL:rtti.obj
 0001:00049df8       ?FindVITargetTypeInstance@@YAPBU_s_RTTIBaseClassDescriptor@@PAXPBU_s_RTTICompleteObjectLocator@@PAUTypeDescriptor@@H2@Z 1004adf8 f   k.coredll_ALL:rtti.obj
 0001:0004b230       _fpcvt                     1004c230 f   k.coredll_ALL:fcvt.obj
 0001:0004b858       flsall                     1004c858 f   k.coredll_ALL:fflush.obj
 0001:0004ba48       _wfopen_int                1004ca48 f   k.coredll_ALL:fopen.obj
 0001:0004bea0       _fopen_int                 1004cea0 f   k.coredll_ALL:fopen.obj
 0001:0004c98c       write_multi_char           1004d98c f   k.coredll_ALL:woutput.obj
 0001:0004ca08       write_string               1004da08 f   k.coredll_ALL:woutput.obj
 0001:0004d740       _getws_helper              1004e740 f   k.coredll_ALL:getws.obj
 0001:0004da88       xtoa                       1004ea88 f   k.coredll_ALL:xtoa.obj
 0001:0004db74       xtoa_s                     1004eb74 f   k.coredll_ALL:xtoas.obj
 0001:0004dd2c       xtow                       1004ed2c f   k.coredll_ALL:xtow.obj
 0001:0004de18       xtow_s                     1004ee18 f   k.coredll_ALL:xtows.obj
 0001:0004e5c4       _vsntprintf_helper_broken  1004f5c4 f   k.coredll_ALL:vsprintf.obj
 0001:0004e748       _vsntprintf_helper         1004f748 f   k.coredll_ALL:vsprintf.obj
 0001:0004e860       _vsntprintf_s_helper       1004f860 f   k.coredll_ALL:vsprintf.obj
 0001:0004eaac       _vsntprintf_helper_broken  1004faac f   k.coredll_ALL:vswprint.obj
 0001:0004ec68       vsnwprintf_helper          1004fc68 f   k.coredll_ALL:vswprint.obj
 0001:0004edc8       vsnwprintf_s_helper        1004fdc8 f   k.coredll_ALL:vswprint.obj
 0001:0004f438       strtoxq                    10050438 f   k.coredll_ALL:strtoq.obj
 0001:0004fbf4       wcstoxq                    10050bf4 f   k.coredll_ALL:wcstoq.obj
 0001:00050890       vfprintf_helper            10051890 f   k.coredll_ALL:vfprintf.obj
 0001:00050c74       _fread_nolock_s            10051c74 f   k.coredll_ALL:fread.obj
 0001:0005100c       fscanf_helper              1005200c f   k.coredll_ALL:fscanf.obj
 0001:00051458       vfwprintf_helper           10052458 f   k.coredll_ALL:vfwprint.obj
 0001:00051930       fwscanf_helper             10052930 f   k.coredll_ALL:fwscanf.obj
 0001:00051a1c       _gets_helper               10052a1c f   k.coredll_ALL:gets.obj
 0001:000534a0       _mbstowcs_helper           100544a0 f   k.coredll_ALL:mbstowcs.obj
 0001:00056100       sscanf_helper              10057100 f   k.coredll_ALL:sscanf.obj
 0001:00057000       strtoxl                    10058000 f   k.coredll_ALL:strtol.obj
 0001:00057234       swscanf_helper             10058234 f   k.coredll_ALL:swscanf.obj
 0001:00057fd0       wcstoxl                    10058fd0 f   k.coredll_ALL:wcstol.obj
 0001:00058234       _wcstombs_helper           10059234 f   k.coredll_ALL:wcstombs.obj
 0001:00058ae0       ?GetUserCoreDllFunction@@YAP6AHXZPBD@Z 10059ae0 f   k.coredll_ALL:immpriv.obj
 0001:00064434       ?AvPrintfW@@YAXPAGKPBGZZ   10065434 f   k.coredll_ALL:AppVerifier.obj
 0001:000655dc       ?ReadCode32@@YAKK@Z        100665dc f   k.coredll_ALL:unwind.obj
 0001:00065630       ?PreviousPc@@YAKK@Z        10066630 f   k.coredll_ALL:unwind.obj
 0001:00065694       ?ArmCheckConditionCode@@YAHKK@Z 10066694 f   k.coredll_ALL:unwind.obj
 0001:00065770       ?ExecuteVPopDouble@@YAXKQAK0PAUe32_lite@@@Z 10066770 f   k.coredll_ALL:unwind.obj
 0001:000657c4       ?ExecuteLoadMultiple@@YAXKPAKPAUe32_lite@@@Z 100667c4 f   k.coredll_ALL:unwind.obj
 0001:0006587c       ?ClassifyIndirectBranch@@YA?AW4BRANCH_CLASS@@KKKPAUe32_lite@@@Z 1006687c f   k.coredll_ALL:unwind.obj
 0001:00065974       ?ThumbRecoverRegisterValue@@YAHPBGKKKPAKPAUe32_lite@@@Z 10066974 f   k.coredll_ALL:unwind.obj
 0001:00065b54       ?ThumbUnwindProlog@@YAHPBGKKPAU_CONTEXT@@PAUe32_lite@@@Z 10066b54 f   k.coredll_ALL:unwind.obj
 0001:000660dc       ?ThumbWalkEpilog@@YAHKKKPAU_CONTEXT@@PAUe32_lite@@@Z 100670dc f   k.coredll_ALL:unwind.obj
 0001:00066698       ?ThumbVirtualUnwind@@YAHKPBU_RUNTIME_FUNCTION@@PAU_CONTEXT@@PAEPAUe32_lite@@@Z 10067698 f   k.coredll_ALL:unwind.obj
 0001:000667d0       ?ArmExecuteDataProcess@@YAXKPAK@Z 100677d0 f   k.coredll_ALL:unwind.obj
 0001:00066984       ?ArmRecoverRegisterValue@@YAHPBKKKKPAKPAUe32_lite@@@Z 10067984 f   k.coredll_ALL:unwind.obj
 0001:00066a90       ?ArmIgnoreInstruction@@YAHK@Z 10067a90 f   k.coredll_ALL:unwind.obj
 0001:00066ba4       ?ArmUnwindProlog@@YAHPAKKKPAU_CONTEXT@@PAUe32_lite@@@Z 10067ba4 f   k.coredll_ALL:unwind.obj
 0001:00066df8       ?ArmWalkEpilog@@YAHKKKPAU_CONTEXT@@PAUe32_lite@@@Z 10067df8 f   k.coredll_ALL:unwind.obj
 0001:00067180       ?ArmVirtualUnwind@@YAHKPBU_RUNTIME_FUNCTION@@PAU_CONTEXT@@PAEPAUe32_lite@@@Z 10068180 f   k.coredll_ALL:unwind.obj
 0001:00069170       ?DllHeapImportOneBlock@@YAKPAK0PAU_MODULEHEAPINFO@@@Z 1006a170 f   k.coredll_ALL:dllheapfunc.obj
 0001:00069340       ?DllHeapScanImports@@YAXPAU_MODULE@@KPBUinfo@@PAU_MODULEHEAPINFO@@@Z 1006a340 f   k.coredll_ALL:dllheapfunc.obj
 0001:0006a54c       FindResourceInLibrary      1006b54c f   k.coredll_ALL:AssetManagement.obj
 0001:0006ba3c       ?OpenDeepestKey@@YAJPAU_CE_REGISTRY_INFO@@PBGPAPAUHKEY__@@PAPAG@Z 1006ca3c f   k.coredll_ALL:notifybase.obj
 0001:0006e170       __crtWriteFile             1006f170 f   k.coredll_ALL:write.obj
 0001:0006ecc4       _cftoe2                    1006fcc4 f   k.coredll_ALL:cvt.obj
 0001:0006f014       _cftof2                    10070014 f   k.coredll_ALL:cvt.obj
 0001:0006f6e8       write_char                 100706e8 f   k.coredll_ALL:output.obj
 0001:0006f77c       write_string               1007077c f   k.coredll_ALL:output.obj
 0001:000708e0       __check_float_string       100718e0 f   k.coredll_ALL:input.obj
 0001:0007097c       _inc                       1007197c f   k.coredll_ALL:input.obj
 0001:00071ecc       __check_float_string       10072ecc f   k.coredll_ALL:winput.obj
 0001:0007c024       ?DecodeFileTime@@YAJPAU_SYSTEMTIME@@PAU_CRYPTOAPI_BLOB@@@Z 1007d024 f   k.coredll_ALL:vercert.obj
 0001:0007c2ac       ?CompareHash@@YAHPBX0@Z    1007d2ac f   k.coredll_ALL:vercert.obj
 0001:0007d6b4       ??__E?_factory@?$singleton@V?$free_list@$0GE@Vallocator@ce@@@ce@@$03V?$static_allocator@V?$free_list@$0GE@Vallocator@ce@@@ce@@$03@2@@ce@@1Ulock_factory@12@A@@YAXXZ 1007e6b4 f   k.coredll_ALL:Imm.obj
 0001:0007d6b8       ??__Eg_CSPCache@@YAXXZ     1007e6b8 f   k.coredll_ALL:cspcache.obj
 0001:0007d6d8       ??__Eg_ResourceModuleCache@@YAXXZ 1007e6d8 f   k.coredll_ALL:AssetManagement.obj
 0001:0007d6f8       ??__E?sm_NotifyList@CNotifyList@@1V1@A@@YAXXZ 1007e6f8 f   k.coredll_ALL:notifylist.obj
 0001:0007d710       ??__Fnomem@?1??_Nomemory@std@@YAXXZ@YAXXZ 1007e710 f   k.coredll_ALL:nomemory.obj
 0001:0007d72c       ??__Fg_CSPCache@@YAXXZ     1007e72c f   k.coredll_ALL:cspcache.obj
 0001:0007d74c       ??__Fg_ResourceModuleCache@@YAXXZ 1007e74c f   k.coredll_ALL:AssetManagement.obj
 0001:0007d758       ??__F?sm_NotifyList@CNotifyList@@1V1@A@@YAXXZ 1007e758 f   k.coredll_ALL:notifylist.obj
