 kd

 Timestamp is 5ac64a28 (Thu Apr 05 09:09:12 2018)

 Preferred load address is 10000000

 Start         Length     Name                   Class
 0001:00000000 00001004H .rdata                  CODE
 0001:00001004 0000001fH .rdata$debug            CODE
 0001:00001040 00006a7cH .text                   CODE
 0001:00007abc 0000004cH .xdata                  CODE
 0001:00007b10 00000069H .edata                  CODE
 0002:00000000 0000080cH .data                   DATA
 0002:00000820 00007b08H .bss                    DATA
 0003:00000000 000002c8H .pdata                  DATA

  Address         Publics by Value              Rva+Base       Lib:Object

 0000:00000000       ___safe_se_handler_table   00000000     <absolute>
 0000:00000000       ___safe_se_handler_count   00000000     <absolute>
 0001:00000060       g_szFexARHelp              10001060     dbg.obj
 0001:00000324       szBPOpt_off                10001324     dbg.obj
 0001:00000360       g_szlHwAddrBpHelp          10001360     dbg.obj
 0001:000005a0       g_szFilterExceptionsHelp   100015a0     dbg.obj
 0001:0000081c       szBPOpt_on                 1000181c     dbg.obj
 0001:00000854       ??_C@_0BN@NIDCDMDG@ERROR?3?5Datatype?5Misalignment?$AA@ 10001854     dbg.obj
 0001:00000874       ??_C@_0BI@PHIDKBAF@ERROR?3?5Access?5Violation?$AA@ 10001874     dbg.obj
 0001:0000088c       ??_C@_0BJ@LKIEGLKC@ERROR?3?5Invalid?5Parameter?$AA@ 1000188c     dbg.obj
 0001:000008a8       ??_C@_0BI@LMDNBEPO@ERROR?3?5Buffer?5too?5small?$AA@ 100018a8     dbg.obj
 0001:000008c0       ??_C@_0CP@IOLBPAIE@ERROR?3?5Internal?5error?4?5Check?5COM@ 100018c0     dbg.obj
 0001:000008f0       ??_C@_1DK@DLKNMABP@?$AAE?$AAR?$AAR?$AAO?$AAR?$AA?3?$AA?5?$AAU?$AAn?$AAk?$AAn?$AAo?$AAw?$AAn?$AA?5?$AAE?$AAr?$AAr?$AAo?$AAr?$AA?5?$AA?$CI?$AA?$CF?$AA0?$AA8?$AAl?$AAX?$AA?$CJ?$AA?$AA@ 100018f0     dbg.obj
 0001:0000092c       ??_C@_1CC@DGOOAPMF@?$AA?7?$AA?7?$AAp?$AAE?$AAv?$AAe?$AAn?$AAt?$AA?5?$AA0?$AAx?$AA?$CF?$AA0?$AA8?$AAX?$AA?6?$AA?$AA@ 1000192c     dbg.obj
 0001:00000950       ??_C@_1EE@DCOCHIDA@?$AA?7?$AA?7?$AAp?$AAC?$AAr?$AAi?$AAt?$AAS?$AAe?$AAc?$AAt?$AA?5?$AA0?$AAx?$AA?$CF?$AA0?$AA8?$AAX?$AA?5?$AA?$CI?$AAp?$AAO?$AAw?$AAn?$AAe?$AAr?$AA?5?$AA0?$AAx?$AA?$CF?$AAX?$AA?$CJ@ 10001950     dbg.obj
 0001:00000998       ??_C@_1EG@KMCNHHKG@?$AA?7?$AA?7?$AAU?$AAn?$AAk?$AAn?$AAo?$AAw?$AAn?$AA?5?$AAo?$AAb?$AAj?$AAe?$AAc?$AAt?$AA?5?$AAt?$AAy?$AAp?$AAe?$AA?5?$AA?$CF?$AAd?$AA?5?$AA?$CI?$AA0?$AAx?$AA?$CF?$AA0?$AA8?$AAX@ 10001998     dbg.obj
 0001:000009e0       ??_C@_1CC@EMEPKFBK@?$AA?7?$AAp?$AAT?$AAh?$AAr?$AAe?$AAa?$AAd?$AA?5?$AA0?$AAx?$AA?$CF?$AA0?$AA8?$AAX?$AA?6?$AA?$AA@ 100019e0     dbg.obj
 0001:00000a04       ??_C@_1CO@INIAKGOC@?$AA?5?$AAp?$AAP?$AAr?$AAo?$AAc?$AAe?$AAs?$AAs?$AA?5?$AA?3?$AA?5?$AA0?$AAx?$AA?$CF?$AA0?$AA8?$AAX?$AA?5?$AA?$CF?$AAs?$AA?6?$AA?$AA@ 10001a04     dbg.obj
 0001:00000a34       ??_C@_19DJCNLLCE@?$AAn?$AAu?$AAl?$AAl?$AA?$AA@ 10001a34     dbg.obj
 0001:00000a40       ??_C@_1HK@EJMOEFAP@?$AAC?$AAr?$AAi?$AAt?$AAi?$AAc?$AAa?$AAl?$AA?5?$AAS?$AAe?$AAc?$AAt?$AAi?$AAo?$AAn?$AA?5?$AAI?$AAn?$AAf?$AAo?$AA?5?$AA?$CI?$AAs?$AAh?$AAo?$AAw?$AAs?$AA?5?$AAs?$AAy?$AAn@ 10001a40     dbg.obj
 0001:00000abc       ??_C@_1BC@BLBJHNOB@?$AAS?$AAu?$AAc?$AAc?$AAe?$AAs?$AAs?$AA?6?$AA?$AA@ 10001abc     dbg.obj
 0001:00000ad0       ??_C@_1CM@PANEMDOA@?$AAS?$AAu?$AAc?$AAc?$AAe?$AAs?$AAs?$AA?3?$AA?5?$AAD?$AAa?$AAt?$AAa?$AA?$DN?$AA0?$AAx?$AA?$CF?$AA0?$AA8?$AAX?$AA?6?$AA?$AA@ 10001ad0     dbg.obj
 0001:00000afc       ??_C@_1DM@NGLLBOHI@?$AAE?$AAR?$AAR?$AAO?$AAR?$AA?3?$AA?5?$AAD?$AAa?$AAt?$AAa?$AAt?$AAy?$AAp?$AAe?$AA?5?$AAM?$AAi?$AAs?$AAa?$AAl?$AAi?$AAg?$AAn?$AAm?$AAe?$AAn?$AAt?$AA?6?$AA?$AA@ 10001afc     dbg.obj
 0001:00000b38       ??_C@_1DC@JDBOHII@?$AAE?$AAR?$AAR?$AAO?$AAR?$AA?3?$AA?5?$AAA?$AAc?$AAc?$AAe?$AAs?$AAs?$AA?5?$AAV?$AAi?$AAo?$AAl?$AAa?$AAt?$AAi?$AAo?$AAn?$AA?6?$AA?$AA@ 10001b38     dbg.obj
 0001:00000b6c       ??_C@_1DE@DCCADFIK@?$AAE?$AAR?$AAR?$AAO?$AAR?$AA?3?$AA?5?$AAI?$AAn?$AAv?$AAa?$AAl?$AAi?$AAd?$AA?5?$AAP?$AAa?$AAr?$AAa?$AAm?$AAe?$AAt?$AAe?$AAr?$AA?6?$AA?$AA@ 10001b6c     dbg.obj
 0001:00000ba0       ??_C@_1CM@FLCOMONH@?$AAE?$AAR?$AAR?$AAO?$AAR?$AA?3?$AA?5?$AAU?$AAn?$AAk?$AAn?$AAo?$AAw?$AAn?$AA?5?$AAE?$AAr?$AAr?$AAo?$AAr?$AA?6?$AA?$AA@ 10001ba0     dbg.obj
 0001:00000bd0       ??_C@_1GM@EMEPCPCG@?$AAI?$AAO?$AA?5?$AAW?$AAr?$AAi?$AAt?$AAe?$AA?3?$AA?5?$AAA?$AAd?$AAd?$AAr?$AAe?$AAs?$AAs?$AA?$DN?$AA0?$AAx?$AA?$CF?$AA0?$AA8?$AAX?$AA?0?$AA?5?$AAS?$AAi?$AAz?$AAe?$AA?$DN?$AA?$CF@ 10001bd0     dbg.obj
 0001:00000c40       ??_C@_1FA@DGNBOBM@?$AAI?$AAO?$AA?5?$AAR?$AAe?$AAa?$AAd?$AA?3?$AA?5?$AAA?$AAd?$AAd?$AAr?$AAe?$AAs?$AAs?$AA?$DN?$AA0?$AAx?$AA?$CF?$AA0?$AA8?$AAX?$AA?0?$AA?5?$AAS?$AAi?$AAz?$AAe?$AA?$DN?$AA?$CF?$AAu@ 10001c40     dbg.obj
 0001:00000c90       ??_C@_15MAOEGKJF@?$AA?$CF?$AAS?$AA?$AA@ 10001c90     dbg.obj
 0001:00000c98       ??_C@_03NFKEKGGK@all?$AA@  10001c98     dbg.obj
 0001:00000c9c       ??_C@_1M@CCCHEHOB@?$AAE?$AAm?$AAp?$AAt?$AAy?$AA?$AA@ 10001c9c     dbg.obj
 0001:00000ca8       ??_C@_1CE@EAIJMDFN@?$AA?$FL?$AA0?$AAx?$AA?$CF?$AA0?$AA8?$AAX?$AA?5?$AA?9?$AA?5?$AA0?$AAx?$AA?$CF?$AA0?$AA8?$AAX?$AA?$FN?$AA?$AA@ 10001ca8     dbg.obj
 0001:00000ccc       ??_C@_1M@PEEDNGHP@?$AAA?$AAn?$AAy?$AA?5?$AA?5?$AA?$AA@ 10001ccc     dbg.obj
 0001:00000cd8       ??_C@_19MJDGABDA@?$AA?$CF?$AAS?$AA?5?$AA?5?$AA?$AA@ 10001cd8     dbg.obj
 0001:00000ce4       ??_C@_1BC@BJPCFCIG@?$AAM?$AAo?$AAd?$AAu?$AAl?$AAe?$AA?3?$AA?5?$AA?$AA@ 10001ce4     dbg.obj
 0001:00000cf8       ??_C@_17BGDJJMD@?$AA?$CF?$AAS?$AA?5?$AA?$AA@ 10001cf8     dbg.obj
 0001:00000d00       ??_C@_1BE@CEDMOIMA@?$AAP?$AAr?$AAo?$AAc?$AAe?$AAs?$AAs?$AA?3?$AA?5?$AA?$AA@ 10001d00     dbg.obj
 0001:00000d14       ??_C@_17GMPJMPF@?$AA?$CF?$AAs?$AA?5?$AA?$AA@ 10001d14     dbg.obj
 0001:00000d1c       ??_C@_1BK@IOIIEEK@?$AA?5?$AA?5?$AAH?$AAa?$AAn?$AAd?$AAl?$AAi?$AAn?$AAg?$AA?3?$AA?5?$AA?$AA@ 10001d1c     dbg.obj
 0001:00000d38       ??_C@_19CEHDLKKJ@?$AAA?$AAn?$AAy?$AA?5?$AA?$AA@ 10001d38     dbg.obj
 0001:00000d44       ??_C@_1BA@MFMMBPIG@?$AA0?$AAx?$AA?$CF?$AA0?$AA8?$AAX?$AA?5?$AA?$AA@ 10001d44     dbg.obj
 0001:00000d54       ??_C@_1M@FCEKCNGC@?$AA?$FL?$AA?$CF?$AAs?$AA?$FN?$AA?5?$AA?$AA@ 10001d54     dbg.obj
 0001:00000d60       ??_C@_1CC@JFFFIBMI@?$AAE?$AAx?$AAc?$AAe?$AAp?$AAt?$AAi?$AAo?$AAn?$AA?5?$AAC?$AAo?$AAd?$AAe?$AA?3?$AA?5?$AA?$AA@ 10001d60     dbg.obj
 0001:00000d84       ??_C@_1O@NBIOCEIJ@?$AA?5?$AA?5?$AAR?$AAu?$AAl?$AAe?$AA?$AA@ 10001d84     dbg.obj
 0001:00000d94       ??_C@_19FEGCELBM@?$AA?$CF?$AAu?$AA?3?$AA?5?$AA?$AA@ 10001d94     dbg.obj
 0001:00000da0       ??_C@_15CGCMLLAO@?$AA?5?$AA?6?$AA?$AA@ 10001da0     dbg.obj
 0001:00000da8       ??_C@_1DO@HGANFIAI@?$AA?6?$AAF?$AAi?$AAl?$AAt?$AAe?$AAr?$AA?5?$AAE?$AAx?$AAc?$AAe?$AAp?$AAt?$AAi?$AAo?$AAn?$AAs?$AA?5?$AAs?$AAt?$AAa?$AAt?$AAu?$AAs?$AA?3?$AA?5?$AA?$CF?$AAs?$AA?6?$AA?$AA@ 10001da8     dbg.obj
 0001:00000de8       ??_C@_17NBOBOEH@?$AAO?$AAF?$AAF?$AA?$AA@ 10001de8     dbg.obj
 0001:00000df0       ??_C@_15MLPIMJOL@?$AAO?$AAN?$AA?$AA@ 10001df0     dbg.obj
 0001:00000df8       ??_C@_1CM@HIEJLNBP@?$AAU?$AAn?$AAk?$AAn?$AAo?$AAw?$AAn?$AA?5?$AAc?$AAo?$AAm?$AAm?$AAa?$AAn?$AAd?$AA?5?$AA?8?$AA?$CF?$AAa?$AA?8?$AA?6?$AA?$AA@ 10001df8     dbg.obj
 0001:00000e24       ??_C@_02FHCGEIOA@cr?$AA@   10001e24     dbg.obj
 0001:00000e28       ??_C@_02FCGJFOGF@dr?$AA@   10001e28     dbg.obj
 0001:00000e2c       ??_C@_01OGPIMHDM@?$DP?$AA@ 10001e2c     dbg.obj
 0001:00000e30       ??_C@_02FEKCJMIO@ar?$AA@   10001e30     dbg.obj
 0001:00000e34       ??_C@_03MCADLMAF@off?$AA@  10001e34     dbg.obj
 0001:00000e38       ??_C@_02LIELOMNJ@on?$AA@   10001e38     dbg.obj
 0001:00000e3c       ??_C@_01EEMJAFIK@?6?$AA@   10001e3c     dbg.obj
 0001:00000e40       ??_C@_04CDAAPMAE@cbpd?$AA@ 10001e40     dbg.obj
 0001:00000e48       ??_C@_03IMAFNMAL@nml?$AA@  10001e48     dbg.obj
 0001:00000e4c       ??_C@_03GJAMHCAJ@fex?$AA@  10001e4c     dbg.obj
 0001:00000e50       ??_C@_04OMLFEMK@fvmp?$AA@  10001e50     dbg.obj
 0001:00000e58       ??_C@_03LLGAPLEG@iow?$AA@  10001e58     dbg.obj
 0001:00000e5c       ??_C@_03MGBHAPAD@ior?$AA@  10001e5c     dbg.obj
 0001:00000e60       ??_C@_02EODNHJKB@cs?$AA@   10001e60     dbg.obj
 0001:00000f24       ??_C@_1O@PFOLHNOG@?$AAA?$AAb?$AAs?$AAo?$AAr?$AAb?$AA?$AA@ 10001f24     kdfilter.obj
 0001:00000f34       ??_C@_1M@BNEKEHHI@?$AAB?$AAr?$AAe?$AAa?$AAk?$AA?$AA@ 10001f34     kdfilter.obj
 0001:00000f40       ??_C@_1O@BBJGCGCB@?$AAI?$AAg?$AAn?$AAo?$AAr?$AAe?$AA?$AA@ 10001f40     kdfilter.obj
 0001:00000f50       ??_C@_1BE@NJKOEJEF@?$AAU?$AAn?$AAh?$AAa?$AAn?$AAd?$AAl?$AAe?$AAd?$AA?$AA@ 10001f50     kdfilter.obj
 0001:00000f64       ??_C@_1BA@ENAKNNOF@?$AAK?$AAS?$AAa?$AAf?$AAe?$AAt?$AAy?$AA?$AA@ 10001f64     kdfilter.obj
 0001:00000f74       ??_C@_1BA@ILKPBFNA@?$AAU?$AAS?$AAa?$AAf?$AAe?$AAt?$AAy?$AA?$AA@ 10001f74     kdfilter.obj
 0001:00000f84       ??_C@_1BA@CNKNODBF@?$AAH?$AAa?$AAn?$AAd?$AAl?$AAe?$AAd?$AA?$AA@ 10001f84     kdfilter.obj
 0001:00000f94       ??_C@_1O@KKPPJBFG@?$AAC?$AAu?$AAs?$AAt?$AAo?$AAm?$AA?$AA@ 10001f94     kdfilter.obj
 0001:00001040       HasWMMX                    10002040 f   kdkernel.obj
 0001:00001078       PCBFunctionArea            10002078 f   armpcb.obj
 0001:000010ac       MultiCorePCBGetDwordAtOffset 100020ac f   armpcb.obj
 0001:000010f8       MultiCoreGetPCB            100020f8 f   armpcb.obj
 0001:00001100       __PCBGetDwordAtOffset      10002100 f   armpcb.obj
 0001:00001108       PCBSetDwordAtOffset        10002108 f   armpcb.obj
 0001:00001110       PCBAddAtOffset             10002110 f   armpcb.obj
 0001:00001118       __GetPCB                   10002118 f   armpcb.obj
 0001:00001120       InitPCBFunctions           10002120 f   armpcb.obj
 0001:00001170       ThreadStopFunc             10002170 f   kdasm.obj
 0001:00001178       __crt_unrecoverable_error  10002178 f   dbg.obj
 0001:000012e4       snprintf                   100022e4 f   dbg.obj
 0001:000013c4       ManagedBufferAppend        100023c4 f   dbg.obj
 0001:00001520       Kdstrtoul                  10002520 f   dbg.obj
 0001:00001744       AppendErrorToOutBuf        10002744 f   dbg.obj
 0001:00001824       MarshalCriticalSectionInfo 10002824 f   dbg.obj
 0001:00001998       MarshalIOReadWrite         10002998 f   dbg.obj
 0001:000023e8       ProcessAdvancedCmd         100033e8 f   dbg.obj
 0001:00002ca4       __C_specific_handler       10003ca4 f   dbg.obj
 0001:00002cc0       FlushICache                10003cc0 f   dbg.obj
 0001:00002ce8       GetWin32ExeName            10003ce8 f   dbg.obj
 0001:00002d28       GetWin32DLLNameFromAddress 10003d28 f   dbg.obj
 0001:00002e34       KdpResetBps                10003e34 f   kdapi.obj
 0001:00002e68       KdpSendKdApiCmdPacket      10003e68 f   kdapi.obj
 0001:00002ea8       KdpSendDbgMessage          10003ea8 f   kdapi.obj
 0001:00002f0c       KdpSendNotifAndDoCmdLoop   10003f0c f   kdapi.obj
 0001:0000303c       KdpReadVirtualMemory       1000403c f   kdapi.obj
 0001:00003110       KdpWriteVirtualMemory      10004110 f   kdapi.obj
 0001:000031c0       KdpSetContext              100041c0 f   kdapi.obj
 0001:0000321c       KdpSetNotifPacket          1000421c f   kdapi.obj
 0001:0000349c       KdpReportExceptionNotif    1000449c f   kdapi.obj
 0001:00003520       KdpReadPhysicalMemory      10004520 f   kdapi.obj
 0001:000035cc       KdpWritePhysicalMemory     100045cc f   kdapi.obj
 0001:0000366c       KdpContinue                1000466c f   kdapi.obj
 0001:00003894       KdpAdvancedCmd             10004894 f   kdapi.obj
 0001:00003900       KdpHandleKdApi             10004900 f   kdapi.obj
 0001:00003b30       KdpInstantiateSwBreakpoint 10004b30 f   kdbreak.obj
 0001:00003b9c       KdpAddBreakpoint           10004b9c f   kdbreak.obj
 0001:00003d14       KdpDeleteBreakpoint        10004d14 f   kdbreak.obj
 0001:00003ddc       KdpDeleteAllBreakpoints    10004ddc f   kdbreak.obj
 0001:00003e38       KdpFindUnusedBp            10004e38 f   kdbreak.obj
 0001:00003e74       KdpSetHwCodeBp             10004e74 f   kdbreak.obj
 0001:00003fa4       KdpManipulateBreakPoint    10004fa4 f   kdbreak.obj
 0001:00004230       KdpFindBreakpoint          10005230 f   kdbreak.obj
 0001:000042ac       KdpReadIoSpace             100052ac f   kdctrl.obj
 0001:000043b0       KdpWriteIoSpace            100053b0 f   kdctrl.obj
 0001:000044bc       EnableHDNotifs             100054bc f   kdinit.obj
 0001:00004584       KdpEnable                  10005584 f   kdinit.obj
 0001:0000475c       KdInit                     1000575c f   kdinit.obj
 0001:00004824       KdDLLEntry                 10005824 f   kdinit.obj
 0001:0000489c       DecodePacket               1000589c f   kdpacket.obj
 0001:000049d4       KdpReceivePacket           100059d4 f   kdpacket.obj
 0001:00004a9c       KdpSendPacket              10005a9c f   kdpacket.obj
 0001:00004c4c       GetHandlingLevelTypeName   10005c4c f   kdfilter.obj
 0001:00004c64       GetFilterRuleDecisionName  10005c64 f   kdfilter.obj
 0001:00004c80       IsRelevantField            10005c80 f   kdfilter.obj
 0001:00004c90       GetRuleWeightForField      10005c90 f   kdfilter.obj
 0001:00004d5c       GetFilterRuleDecision      10005d5c f   kdfilter.obj
 0001:00004f68       GetFreeFilterRuleInfoIndex 10005f68 f   kdfilter.obj
 0001:00004fa0       GetRelevantFilterRuleCount 10005fa0 f   kdfilter.obj
 0001:00004fcc       CopyFilterRuleInfo         10005fcc f   kdfilter.obj
 0001:00005078       IsValidFilterRule          10006078 f   kdfilter.obj
 0001:00005118       AddFilterRule              10006118 f   kdfilter.obj
 0001:000051a4       AddSimpleFilterRule        100061a4 f   kdfilter.obj
 0001:0000520c       RemoveFilterRule           1000620c f   kdfilter.obj
 0001:00005254       GetFilterRulePtr           10006254 f   kdfilter.obj
 0001:00005274       KDFex_IOControl            10006274 f   kdfilter.obj
 0001:00005400       FilterTrap                 10006400 f   kdfilter.obj
 0001:00005498       IOControl                  10006498 f   kdioctl.obj
 0001:000054d8       KdpRegisterKITL            100064d8 f   kdtrap.obj
 0001:000055e4       KdpSuspendBreakpointHitByKD 100065e4 f   kdtrap.obj
 0001:000056dc       KdpTrap                    100066dc f   kdtrap.obj
 0001:00005864       __GSHandlerCheckCommon     10006864 f   fulllibc:gshandler.obj
 0001:000058a0       __GSHandlerCheck           100068a0 f   fulllibc:gshandler.obj
 0001:000058c0       __security_check_cookie    100068c0 f   fulllibc:armsecgs.obj
 0001:000058d0       __gsfailure                100068d0     fulllibc:armsecgs.obj
 0001:00005914       __rt_udiv                  10006914 f   fulllibc:__udiv.obj
 0001:000059d8       strncpy_s                  100069d8 f   fulllibc:strncpy_s.obj
 0001:00005b00       strlen                     10006b00     fulllibc:mdsstrlen.obj
 0001:00005b64       strcmp                     10006b64     fulllibc:mdsstrcmp.obj
 0001:00005c60       memcpy                     10006c60 f   fulllibc:memcpy.obj
 0001:00006600       memset                     10007600     fulllibc:memset.obj
 0001:00006688       strncmp                    10007688     fulllibc:astrncmp.obj
 0001:000066b8       wcsnlen                    100076b8 f   fulllibc:wcslen_s.obj
 0001:000066e8       memcmp                     100076e8     fulllibc:memcmp.obj
 0001:000067b4       memmove                    100077b4     fulllibc:memmove.obj
 0001:00006f44       memmovebigblk              10007f44     fulllibc:memmove.obj
 0001:000079dc       strnlen                    100089dc f   fulllibc:strlen_s.obj
 0001:00007a0c       __raise_int_divide_by_zero 10008a0c f   fulllibc:diverr.obj
 0001:00007a24       _invalid_parameter         10008a24 f   fulllibc:invarg.obj
 0001:00007a90       __crtRaiseException        10008a90 f   fulllibc:raiseexc.obj
 0001:00007ab4       _decode_pointer            10008ab4 f   fulllibc:encptr.obj
 0001:00007ab8       __report_gsfailure         10008ab8 f   gsnull:gsnull.obj
 0002:00000010       szUnknownCommandError      10009010     dbg.obj
 0002:00000030       szTargetSideParmHelp       10009030     dbg.obj
 0002:000002b0       szTargetSideParmHelpOnPrimaryCpu 100092b0     dbg.obj
 0002:00000318       szFVMP_ON                  10009318     dbg.obj
 0002:00000334       szFVMP_OFF                 10009334     dbg.obj
 0002:00000350       szNML_ON                   10009350     dbg.obj
 0002:00000370       szNML_OFF                  10009370     dbg.obj
 0002:00000394       g_HostKdstubProtocolVersion 10009394     kdapi.obj
 0002:00000398       dpCurSettings              10009398     kdinit.obj
 0002:000007dc       g_cwszHandlingTypeNames    100097dc     kdfilter.obj
 0002:000007f0       g_cwszDecisionNames        100097f0     kdfilter.obj
 0002:00000800       g_fForceReload             10009800     kdtrap.obj
 0002:00000804       __security_cookie          10009804     gsnull:gsnull.obj
 0002:00000808       __security_cookie_complement 10009808     gsnull:gsnull.obj
 0002:00000820       g_fOverrideWMMXDetection   10009820     kdkernel.obj
 0002:00000824       g_fWMMXPresent             10009824     kdkernel.obj
 0002:00000828       g_cFrameInCallStack        10009828     dbg.obj
 0002:00000830       g_auxRuleInfo              10009830     dbg.obj
 0002:0000094c       g_fResendNotifPacket       1000994c     kdapi.obj
 0002:00000950       g_fValidOsAxsCmdPacket     10009950     kdapi.obj
 0002:00000954       g_fForceTestRomBp          10009954     kdbreak.obj
 0002:00000960       g_abMessageBuffer          10009960     kddata.obj
 0002:000047e0       g_fDbgKdStateMemoryChanged 1000d7e0     kddata.obj
 0002:000047ec       g_fKdbgRegistered          1000d7ec     kdinit.obj
 0002:000047f0       g_pdwModLoadNotifDbg       1000d7f0     kdinit.obj
 0002:00005348       g_fFilterExceptions        1000e348     kdfilter.obj
 0002:00005350       g_kdFexRules               1000e350     kdfilter.obj
 0002:00006f0c       g_dwLastKDTrapCurMSec      1000ff0c     kdtrap.obj
 0002:00006f10       g_hInstance                1000ff10     <common>
 0002:00006f14       g_pDebuggerData            1000ff14     <common>
 0002:00006f18       g_fDbgConnected            1000ff18     <common>
 0002:00006f1c       g_nTotalNumDistinctSwCodeBps 1000ff1c     <common>
 0002:00006f20       g_aBreakpointTable         1000ff20     <common>
 0002:00008320       NkCEProcessorType          10011320     <common>
 0002:00008324       __pInvalidArgHandler       10011324     <common>

 entry point at        0001:00004824

 Static symbols

 0001:000011f0       sprintf_temp               100021f0 f   dbg.obj
 0001:00001650       ParseParamString           10002650 f   dbg.obj
 0001:00001b1c       MarshalKdFexChangeRule     10002b1c f   dbg.obj
 0001:00001c6c       MarshalFilterExceptionsCmd 10002c6c f   dbg.obj
