 loaddbg

 Timestamp is 5ac64a28 (Thu Apr 05 09:09:12 2018)

 Preferred load address is 00010000

 Start         Length     Name                   Class
 0001:00000000 00000004H .CRT$XCA                CODE
 0001:00000004 00000004H .CRT$XCZ                CODE
 0001:00000008 00000004H .CRT$XIA                CODE
 0001:0000000c 00000004H .CRT$XIZ                CODE
 0001:00000010 00000004H .CRT$XPA                CODE
 0001:00000014 00000004H .CRT$XPZ                CODE
 0001:00000018 00000004H .CRT$XTA                CODE
 0001:0000001c 00000004H .CRT$XTZ                CODE
 0001:00000020 000000d4H .rdata                  CODE
 0001:000000f4 00000024H .rdata$debug            CODE
 0001:00000118 00000e14H .text                   CODE
 0001:00000f2c 00000030H .xdata                  CODE
 0001:00000f5c 00000014H .idata$2                CODE
 0001:00000f70 00000014H .idata$3                CODE
 0001:00000f84 00000074H .idata$4                CODE
 0001:00000ff8 0000000cH .idata$6                CODE
 0001:00001004 00000000H .edata                  CODE
 0002:00000000 00000074H .idata$5                DATA
 0002:00000078 00000454H .data                   DATA
 0002:000004cc 00000020H .bss                    DATA
 0003:00000000 000000b0H .pdata                  DATA

  Address         Publics by Value              Rva+Base       Lib:Object

 0000:00000000       ___safe_se_handler_count   00000000     <absolute>
 0000:00000000       ___safe_se_handler_table   00000000     <absolute>
 0001:00000000       __xc_a                     00011000     corelib0:crt0init.obj
 0001:00000004       __xc_z                     00011004     corelib0:crt0init.obj
 0001:00000008       __xi_a                     00011008     corelib0:crt0init.obj
 0001:0000000c       __xi_z                     0001100c     corelib0:crt0init.obj
 0001:00000010       __xp_a                     00011010     corelib0:crt0init.obj
 0001:00000014       __xp_z                     00011014     corelib0:crt0init.obj
 0001:00000018       __xt_a                     00011018     corelib0:crt0init.obj
 0001:0000001c       __xt_z                     0001101c     corelib0:crt0init.obj
 0001:0000003c       ??_C@_1BA@MCNKKFDK@?$AAL?$AAi?$AAb?$AAr?$AAa?$AAr?$AAy?$AA?$AA@ 0001103c     loaddbg.obj
 0001:0000004c       ??_C@_1CA@LIABLEAA@?$AAS?$AAY?$AAS?$AAT?$AAE?$AAM?$AA?2?$AAD?$AAe?$AAb?$AAu?$AAg?$AAg?$AAe?$AAr?$AA?$AA@ 0001104c     loaddbg.obj
 0001:0000006c       AUTO_LAUNCH_VALUE          0001106c     loaddbg.obj
 0001:00000080       ??_C@_19DPEAGDOD@?$AAi?$AAn?$AAi?$AAt?$AA?$AA@ 00011080     loaddbg.obj
 0001:0000008c       ??_C@_11LOCGONAA@?$AA?$AA@ 0001108c     loaddbg.obj
 0001:00000090       ??_C@_1BA@MAPBIHEC@?$AAd?$AAu?$AAm?$AAp?$AAr?$AAe?$AAg?$AA?$AA@ 00011090     loaddbg.obj
 0001:000000a0       ??_C@_1M@HFBIBOMF@?$AAn?$AAo?$AAr?$AAe?$AAg?$AA?$AA@ 000110a0     loaddbg.obj
 0001:000000ac       ??_C@_1M@OHFADMAJ@?$AAu?$AAn?$AAr?$AAe?$AAg?$AA?$AA@ 000110ac     loaddbg.obj
 0001:000000b8       ??_C@_17IKGAOHCI@?$AAr?$AAe?$AAg?$AA?$AA@ 000110b8     loaddbg.obj
 0001:000000c0       ??_C@_1M@LMGFDNE@?$AAn?$AAo?$AAr?$AAu?$AAn?$AA?$AA@ 000110c0     loaddbg.obj
 0001:000000cc       ??_C@_1O@MNAGHPDD@?$AAk?$AAd?$AA?4?$AAd?$AAl?$AAl?$AA?$AA@ 000110cc     loaddbg.obj
 0001:000000dc       ??_C@_1BI@PJGLPEJK@?$AAl?$AAo?$AAa?$AAd?$AAd?$AAb?$AAg?$AA?4?$AAe?$AAx?$AAe?$AA?$AA@ 000110dc     loaddbg.obj
 0001:00000118       RegisterDbg                00011118 f   loaddbg.obj
 0001:00000264       wmain                      00011264 f   loaddbg.obj
 0001:000004f0       RegDeleteValueW            000114f0 f   coredll:COREDLL.dll
 0001:00000500       RegOpenKeyExW              00011500 f   coredll:COREDLL.dll
 0001:00000510       RegDeleteKeyW              00011510 f   coredll:COREDLL.dll
 0001:00000520       RegCloseKey                00011520 f   coredll:COREDLL.dll
 0001:00000530       RegSetValueExW             00011530 f   coredll:COREDLL.dll
 0001:00000540       RegCreateKeyExW            00011540 f   coredll:COREDLL.dll
 0001:00000550       RegQueryValueExW           00011550 f   coredll:COREDLL.dll
 0001:00000560       AttachDebugger             00011560 f   coredll:COREDLL.dll
 0001:0000091c       mainWCRTStartup            0001191c f   corelib0:mainwcrt.obj
 0001:0000093c       __GSHandlerCheckCommon     0001193c f   corelib0:gshandler.obj
 0001:00000978       __GSHandlerCheck           00011978 f   corelib0:gshandler.obj
 0001:00000998       __security_init_cookie     00011998 f   corelib0:seccinit.obj
 0001:000009e4       __security_check_cookie    000119e4 f   corelib0:armsecgs.obj
 0001:000009f4       __gsfailure                000119f4     corelib0:armsecgs.obj
 0001:00000b20       exit                       00011b20 f   corelib0:cexit.obj
 0001:00000b2c       _exit                      00011b2c f   corelib0:cexit.obj
 0001:00000b64       _initterm                  00011b64 f   corelib0:crt0dat.obj
 0001:00000b90       _cinit                     00011b90 f   corelib0:crt0dat.obj
 0001:00000bf8       _onexit                    00011bf8 f   corelib0:onexit.obj
 0001:00000d7c       atexit                     00011d7c f   corelib0:onexit.obj
 0001:00000d94       __GSHandlerCheck_SEH       00011d94 f   corelib0:gshandlerseh.obj
 0001:00000de0       __crt_ExitProcess          00011de0 f   corelib0:exitproc_proxy.obj
 0001:00000dec       wcslen                     00011dec f   corelib1:COREDLL.dll
 0001:00000dfc       _wcsicmp                   00011dfc f   corelib1:COREDLL.dll
 0001:00000e0c       iswctype                   00011e0c f   corelib1:COREDLL.dll
 0001:00000e1c       free                       00011e1c f   corelib1:COREDLL.dll
 0001:00000e2c       malloc                     00011e2c f   corelib1:COREDLL.dll
 0001:00000e3c       memcpy                     00011e3c f   corelib1:COREDLL.dll
 0001:00000e4c       _XcptFilter                00011e4c f   corelib1:COREDLL.dll
 0001:00000e5c       __security_gen_cookie2     00011e5c f   corelib1:COREDLL.dll
 0001:00000e6c       __report_gsfailure         00011e6c f   corelib1:COREDLL.dll
 0001:00000e7c       realloc                    00011e7c f   corelib1:COREDLL.dll
 0001:00000e8c       _msize                     00011e8c f   corelib1:COREDLL.dll
 0001:00000e9c       __C_specific_handler       00011e9c f   corelib1:COREDLL.dll
 0001:00000eac       GetModuleFileNameW         00011eac f   coredll:COREDLL.dll
 0001:00000ebc       DeleteCriticalSection      00011ebc f   coredll:COREDLL.dll
 0001:00000ecc       InterlockedExchange        00011ecc f   coredll:COREDLL.dll
 0001:00000edc       EnterCriticalSection       00011edc f   coredll:COREDLL.dll
 0001:00000eec       InterlockedCompareExchange 00011eec f   coredll:COREDLL.dll
 0001:00000efc       InitializeCriticalSection  00011efc f   coredll:COREDLL.dll
 0001:00000f0c       LeaveCriticalSection       00011f0c f   coredll:COREDLL.dll
 0001:00000f1c       TerminateProcess           00011f1c f   coredll:COREDLL.dll
 0001:00000f5c       __IMPORT_DESCRIPTOR_COREDLL 00011f5c     coredll:COREDLL.dll
 0001:00000f70       __NULL_IMPORT_DESCRIPTOR   00011f70     coredll:COREDLL.dll
 0002:00000000       __imp_RegDeleteValueW      00013000     coredll:COREDLL.dll
 0002:00000004       __imp_RegOpenKeyExW        00013004     coredll:COREDLL.dll
 0002:00000008       __imp_RegDeleteKeyW        00013008     coredll:COREDLL.dll
 0002:0000000c       __imp_RegCloseKey          0001300c     coredll:COREDLL.dll
 0002:00000010       __imp_RegSetValueExW       00013010     coredll:COREDLL.dll
 0002:00000014       __imp_RegCreateKeyExW      00013014     coredll:COREDLL.dll
 0002:00000018       __imp_RegQueryValueExW     00013018     coredll:COREDLL.dll
 0002:0000001c       __imp_AttachDebugger       0001301c     coredll:COREDLL.dll
 0002:00000020       __imp_wcslen               00013020     corelib1:COREDLL.dll
 0002:00000024       __imp__wcsicmp             00013024     corelib1:COREDLL.dll
 0002:00000028       __imp_iswctype             00013028     corelib1:COREDLL.dll
 0002:0000002c       __imp_free                 0001302c     corelib1:COREDLL.dll
 0002:00000030       __imp_malloc               00013030     corelib1:COREDLL.dll
 0002:00000034       __imp_memcpy               00013034     corelib1:COREDLL.dll
 0002:00000038       __imp__XcptFilter          00013038     corelib1:COREDLL.dll
 0002:0000003c       __imp___security_gen_cookie2 0001303c     corelib1:COREDLL.dll
 0002:00000040       __imp___report_gsfailure   00013040     corelib1:COREDLL.dll
 0002:00000044       __imp_realloc              00013044     corelib1:COREDLL.dll
 0002:00000048       __imp__msize               00013048     corelib1:COREDLL.dll
 0002:0000004c       __imp___C_specific_handler 0001304c     corelib1:COREDLL.dll
 0002:00000050       __imp_GetModuleFileNameW   00013050     coredll:COREDLL.dll
 0002:00000054       __imp_DeleteCriticalSection 00013054     coredll:COREDLL.dll
 0002:00000058       __imp_InterlockedExchange  00013058     coredll:COREDLL.dll
 0002:0000005c       __imp_EnterCriticalSection 0001305c     coredll:COREDLL.dll
 0002:00000060       __imp_InterlockedCompareExchange 00013060     coredll:COREDLL.dll
 0002:00000064       __imp_InitializeCriticalSection 00013064     coredll:COREDLL.dll
 0002:00000068       __imp_LeaveCriticalSection 00013068     coredll:COREDLL.dll
 0002:0000006c       __imp_TerminateProcess     0001306c     coredll:COREDLL.dll
 0002:00000070       \177COREDLL_NULL_THUNK_DATA 00013070     coredll:COREDLL.dll
 0002:00000078       dpCurSettings              00013078     loaddbg.obj
 0002:000004bc       g_pszDllKey                000134bc     loaddbg.obj
 0002:000004c0       g_pszDllValue              000134c0     loaddbg.obj
 0002:000004c4       __security_cookie          000134c4     corelib0:seccinit.obj
 0002:000004c8       __security_cookie_complement 000134c8     corelib0:seccinit.obj
 0002:000004d0       __argc                     000134d0     corelib0:crtstrtg.obj
 0002:000004d4       __wargv                    000134d4     corelib0:crtstrtg.obj
 0002:000004d8       __argv                     000134d8     corelib0:crtstrtg.obj
 0002:000004dc       _exitflag                  000134dc     corelib0:cexit.obj
 0002:000004e0       __onexitend                000134e0     <common>
 0002:000004e4       __onexitbegin              000134e4     <common>
 0002:000004e8       g_pcsExit                  000134e8     <common>

 entry point at        0001:0000091c

 Static symbols

 0001:00000570       ?crtstart_FreeArguments@@YAXXZ 00011570 f   corelib0:mainwcrt.obj
 0001:0000058c       ?crtstart_CountSpaceW@@YAXAAH0PBG@Z 0001158c f   corelib0:mainwcrt.obj
 0001:00000664       ?crtstart_ParseArgsWW@@YAHPBG0AAHAAPAPAG@Z 00011664 f   corelib0:mainwcrt.obj
 0001:00000828       ?mainCRTStartupHelper@@YAXPAUHINSTANCE__@@PBG@Z 00011828 f   corelib0:mainwcrt.obj
 0001:00000a38       doexit                     00011a38 f   corelib0:cexit.obj
