 nsi

 Timestamp is 5cafa2b9 (Thu Apr 11 13:25:29 2019)

 Preferred load address is 10000000

 Start         Length     Name                   Class
 0001:00000000 00000004H .CRT$XCA                CODE
 0001:00000004 00000004H .CRT$XCZ                CODE
 0001:00000008 00000004H .CRT$XIA                CODE
 0001:0000000c 00000004H .CRT$XIZ                CODE
 0001:00000010 00000004H .CRT$XPA                CODE
 0001:00000014 00000004H .CRT$XPZ                CODE
 0001:00000018 00000004H .CRT$XTA                CODE
 0001:0000001c 00000004H .CRT$XTZ                CODE
 0001:00000020 00000028H .rdata                  CODE
 0001:00000048 00000020H .rdata$debug            CODE
 0001:00000068 000012b8H .text                   CODE
 0001:00001320 00000000H .xdata                  CODE
 0001:00001320 00000014H .idata$2                CODE
 0001:00001334 00000014H .idata$3                CODE
 0001:00001348 00000040H .idata$4                CODE
 0001:00001388 0000000cH .idata$6                CODE
 0001:000013a0 00000405H .edata                  CODE
 0002:00000000 00000040H .idata$5                DATA
 0002:00000040 00000010H .data                   DATA
 0002:00000050 00000010H .bss                    DATA
 0003:00000000 00000140H .pdata                  DATA

  Address         Publics by Value              Rva+Base       Lib:Object

 0000:00000000       ___safe_se_handler_table   00000000     <absolute>
 0000:00000000       ___safe_se_handler_count   00000000     <absolute>
 0001:00000000       __xc_a                     10001000     corelib0:crt0init.obj
 0001:00000004       __xc_z                     10001004     corelib0:crt0init.obj
 0001:00000008       __xi_a                     10001008     corelib0:crt0init.obj
 0001:0000000c       __xi_z                     1000100c     corelib0:crt0init.obj
 0001:00000010       __xp_a                     10001010     corelib0:crt0init.obj
 0001:00000014       __xp_z                     10001014     corelib0:crt0init.obj
 0001:00000018       __xt_a                     10001018     corelib0:crt0init.obj
 0001:0000001c       __xt_z                     1000101c     corelib0:crt0init.obj
 0001:0000003c       ??_C@_1M@GJDJHFDO@?$AAN?$AAS?$AAI?$AA1?$AA?3?$AA?$AA@ 1000103c     dllmain.obj
 0001:00000068       NsiOpenDevice              10001068 f   dllmain.obj
 0001:00000108       NsiCloseDevice             10001108 f   dllmain.obj
 0001:00000144       NsiIoctl                   10001144 f i dllmain.obj
 0001:000001c0       NsiGetParameterEx          100011c0 f   dllmain.obj
 0001:000001f8       NsiSetParameterEx          100011f8 f   dllmain.obj
 0001:00000230       NsiGetAllParametersEx      10001230 f   dllmain.obj
 0001:00000270       NsiGetAllPersistentParametersWithMaskEx 10001270 f   dllmain.obj
 0001:000002b0       NsiEnumerateObjectsAllParametersEx 100012b0 f   dllmain.obj
 0001:000002f0       NsiEnumerateObjectsAllPersistentParametersWithMaskEx 100012f0 f   dllmain.obj
 0001:00000330       NsiSetAllParametersEx      10001330 f   dllmain.obj
 0001:00000370       NsiSetAllPersistentParametersWithMaskEx 10001370 f   dllmain.obj
 0001:000003b0       NsiRegisterChangeNotificationEx 100013b0 f   dllmain.obj
 0001:00000404       NsiDeregisterChangeNotificationEx 10001404 f   dllmain.obj
 0001:00000444       NsiGetObjectSecurity       10001444 f   dllmain.obj
 0001:00000484       NsiSetObjectSecurity       10001484 f   dllmain.obj
 0001:000004c4       NsiRequestChangeNotificationEx 100014c4 f   dllmain.obj
 0001:00000528       NsiCancelChangeNotification 10001528 f   dllmain.obj
 0001:00000570       DllEntry                   10001570 f   dllmain.obj
 0001:0000059c       NsiGetAllParameters        1000159c f   nsi.obj
 0001:00000650       NsiGetAllPersistentParametersWithMask 10001650 f   nsi.obj
 0001:000006c0       NsiGetParameter            100016c0 f   nsi.obj
 0001:00000748       NsiEnumerateObjectsAllParameters 10001748 f   nsi.obj
 0001:00000808       NsiEnumerateObjectsAllPersistentParametersWithMask 10001808 f   nsi.obj
 0001:00000898       NsiSetAllParameters        10001898 f   nsi.obj
 0001:00000910       NsiSetAllPersistentParametersWithMask 10001910 f   nsi.obj
 0001:00000988       NsiSetParameter            10001988 f   nsi.obj
 0001:00000a14       NsiRegisterChangeNotification 10001a14 f   nsi.obj
 0001:00000a74       NsiDeregisterChangeNotification 10001a74 f   nsi.obj
 0001:00000ab0       NsiRequestChangeNotification 10001ab0 f   nsi.obj
 0001:00000ae4       NsiFreeTable               10001ae4 f   nsi.obj
 0001:00000b58       NsiAllocateAndGetTable     10001b58 f   nsi.obj
 0001:00000de0       NsiFreePersistentDataWithMaskTable 10001de0 f   nsi.obj
 0001:00000e38       NsiAllocateAndGetPersistentDataWithMaskTable 10001e38 f   nsi.obj
 0001:00001010       CloseHandle                10002010 f   coredll:COREDLL.dll
 0001:00001020       InterlockedCompareExchange 10002020 f   coredll:COREDLL.dll
 0001:00001030       GetLastError               10002030 f   coredll:COREDLL.dll
 0001:00001040       CreateFileW                10002040 f   coredll:COREDLL.dll
 0001:00001050       DeviceIoControl            10002050 f   coredll:COREDLL.dll
 0001:00001060       DisableThreadLibraryCalls  10002060 f   coredll:COREDLL.dll
 0001:00001070       HeapFree                   10002070 f   coredll:COREDLL.dll
 0001:00001080       GetProcessHeap             10002080 f   coredll:COREDLL.dll
 0001:00001090       HeapAlloc                  10002090 f   coredll:COREDLL.dll
 0001:000010a0       _DllEntryCRTStartup        100020a0 f   corelib0:pegdentry.obj
 0001:000011cc       _cexit                     100021cc f   corelib0:cexit.obj
 0001:000011dc       _initterm                  100021dc f   corelib0:crt0dat.obj
 0001:00001208       _cinit                     10002208 f   corelib0:crt0dat.obj
 0001:00001268       __security_init_cookie     10002268 f   corelib0:seccinit.obj
 0001:000012b4       __crt_ExitProcess          100022b4 f   corelib0:exitproc_proxy.obj
 0001:000012c0       memset                     100022c0 f   corelib1:COREDLL.dll
 0001:000012d0       free                       100022d0 f   corelib1:COREDLL.dll
 0001:000012e0       __security_gen_cookie2     100022e0 f   corelib1:COREDLL.dll
 0001:000012f0       DeleteCriticalSection      100022f0 f   coredll:COREDLL.dll
 0001:00001300       InterlockedExchange        10002300 f   coredll:COREDLL.dll
 0001:00001310       TerminateProcess           10002310 f   coredll:COREDLL.dll
 0001:00001320       __IMPORT_DESCRIPTOR_COREDLL 10002320     coredll:COREDLL.dll
 0001:00001334       __NULL_IMPORT_DESCRIPTOR   10002334     coredll:COREDLL.dll
 0002:00000000       __imp_CloseHandle          10003000     coredll:COREDLL.dll
 0002:00000004       __imp_InterlockedCompareExchange 10003004     coredll:COREDLL.dll
 0002:00000008       __imp_GetLastError         10003008     coredll:COREDLL.dll
 0002:0000000c       __imp_CreateFileW          1000300c     coredll:COREDLL.dll
 0002:00000010       __imp_DeviceIoControl      10003010     coredll:COREDLL.dll
 0002:00000014       __imp_DisableThreadLibraryCalls 10003014     coredll:COREDLL.dll
 0002:00000018       __imp_HeapFree             10003018     coredll:COREDLL.dll
 0002:0000001c       __imp_GetProcessHeap       1000301c     coredll:COREDLL.dll
 0002:00000020       __imp_HeapAlloc            10003020     coredll:COREDLL.dll
 0002:00000024       __imp_memset               10003024     corelib1:COREDLL.dll
 0002:00000028       __imp_free                 10003028     corelib1:COREDLL.dll
 0002:0000002c       __imp___security_gen_cookie2 1000302c     corelib1:COREDLL.dll
 0002:00000030       __imp_DeleteCriticalSection 10003030     coredll:COREDLL.dll
 0002:00000034       __imp_InterlockedExchange  10003034     coredll:COREDLL.dll
 0002:00000038       __imp_TerminateProcess     10003038     coredll:COREDLL.dll
 0002:0000003c       \177COREDLL_NULL_THUNK_DATA 1000303c     coredll:COREDLL.dll
 0002:00000040       g_NsiDeviceHandle          10003040     dllmain.obj
 0002:00000044       g_NsiAsyncDeviceHandle     10003044     dllmain.obj
 0002:00000048       __security_cookie          10003048     corelib0:seccinit.obj
 0002:0000004c       __security_cookie_complement 1000304c     corelib0:seccinit.obj
 0002:00000050       _exitflag                  10003050     corelib0:cexit.obj
 0002:00000054       __onexitend                10003054     <common>
 0002:00000058       __onexitbegin              10003058     <common>
 0002:0000005c       g_pcsExit                  1000305c     <common>

 entry point at        0001:000010a0

 Static symbols

 0001:000010e4       doexit                     100020e4 f   corelib0:cexit.obj
