 ole32

 Timestamp is 618b158a (Tue Nov 09 17:42:50 2021)

 Preferred load address is 10000000

 Start         Length     Name                   Class
 0001:00000000 00000004H .CRT$XCA                CODE
 0001:00000004 00000050H .CRT$XCU                CODE
 0001:00000054 00000004H .CRT$XCZ                CODE
 0001:00000058 00000004H .CRT$XIA                CODE
 0001:0000005c 00000004H .CRT$XIZ                CODE
 0001:00000060 00000004H .CRT$XPA                CODE
 0001:00000064 00000004H .CRT$XPZ                CODE
 0001:00000068 00000004H .CRT$XTA                CODE
 0001:0000006c 00000004H .CRT$XTZ                CODE
 0001:00000070 000087e4H .rdata                  CODE
 0001:00008854 00000022H .rdata$debug            CODE
 0001:00008878 00055c64H .text                   CODE
 0001:0005e4dc 000001b8H .text$yc                CODE
 0001:0005e694 000000fcH .text$yd                CODE
 0001:0005e790 000007f8H .xdata                  CODE
 0001:0005ef88 00000028H .idata$2                CODE
 0001:0005efb0 00000014H .idata$3                CODE
 0001:0005efc4 00000338H .idata$4                CODE
 0001:0005f2fc 00000684H .idata$6                CODE
 0001:0005f980 00000e14H .edata                  CODE
 0002:00000000 00005b70H .orpc                   CODE
 0003:00000000 00000338H .idata$5                DATA
 0003:00000338 00001a6cH .data                   DATA
 0003:00001da8 0000143cH .bss                    DATA
 0004:00000000 00004b68H .pdata                  DATA

  Address         Publics by Value              Rva+Base       Lib:Object

 0000:00000000       ___safe_se_handler_count   00000000     <absolute>
 0000:00000000       ___safe_se_handler_table   00000000     <absolute>
 0001:00000000       __xc_a                     10001000     corelib0:crt0init.obj
 0001:00000054       __xc_z                     10001054     corelib0:crt0init.obj
 0001:00000058       __xi_a                     10001058     corelib0:crt0init.obj
 0001:0000005c       __xi_z                     1000105c     corelib0:crt0init.obj
 0001:00000060       __xp_a                     10001060     corelib0:crt0init.obj
 0001:00000064       __xp_z                     10001064     corelib0:crt0init.obj
 0001:00000068       __xt_a                     10001068     corelib0:crt0init.obj
 0001:0000006c       __xt_z                     1000106c     corelib0:crt0init.obj
 0001:0000008c       IID_IStdIdentity           1000108c     ole32_ALL:COMPOBJ.obj
 0001:0000009c       IID_IInternalUnknown       1000109c     ole32_ALL:COMPOBJ.obj
 0001:000000ac       IID_INonNDRStub            100010ac     ole32_ALL:COMPOBJ.obj
 0001:000000bc       CLSID_FileMoniker          100010bc     ole32_ALL:COMPOBJ.obj
 0001:000000cc       CLSID_ItemMoniker          100010cc     ole32_ALL:COMPOBJ.obj
 0001:000000dc       CLSID_AntiMoniker          100010dc     ole32_ALL:COMPOBJ.obj
 0001:000000ec       CLSID_PointerMoniker       100010ec     ole32_ALL:COMPOBJ.obj
 0001:000000fc       CLSID_CompositeMoniker     100010fc     ole32_ALL:COMPOBJ.obj
 0001:0000010c       CLSID_ClassMoniker         1000110c     ole32_ALL:COMPOBJ.obj
 0001:0000011c       CLSID_ErrorObject          1000111c     ole32_ALL:COMPOBJ.obj
 0001:0000012c       ERROR_EXTENSION            1000112c     ole32_ALL:COMPOBJ.obj
 0001:0000013c       CLSID_PSOlePrx32           1000113c     ole32_ALL:COMPOBJ.obj
 0001:0000014c       CLSID_ObjrefMoniker        1000114c     ole32_ALL:COMPOBJ.obj
 0001:0000015c       CLSID_ComBinding           1000115c     ole32_ALL:COMPOBJ.obj
 0001:0000016c       CLSID_PSDispatch           1000116c     ole32_ALL:COMPOBJ.obj
 0001:0000017c       ??_7COleStaticMutexSem@@6B@ 1000117c     ole32_ALL:COMPOBJ.obj
 0001:00000180       ??_C@_1BG@POFIGNHI@?$AAS?$AAm?$AAa?$AAr?$AAt?$AAP?$AAh?$AAo?$AAn?$AAe?$AA?$AA@ 10001180     ole32_ALL:COMPOBJ.obj
 0001:00000198       ??_C@_1BK@LEFPDCAJ@?$AAo?$AAl?$AAe?$AAa?$AAu?$AAt?$AA3?$AA2?$AA?4?$AAd?$AAl?$AAl?$AA?$AA@ 10001198     ole32_ALL:COMPOBJ.obj
 0001:000001b8       ??_C@_1EE@LBDKGGBP@?$AAS?$AAo?$AAf?$AAt?$AAw?$AAa?$AAr?$AAe?$AA?2?$AAM?$AAi?$AAc?$AAr?$AAo?$AAs?$AAo?$AAf?$AAt?$AA?2?$AAO?$AAL?$AAE?$AA?2?$AAL?$AAe?$AAg?$AAa?$AAc?$AAy?$AAA?$AAp?$AAp@ 100011b8     ole32_ALL:COMPOBJ.obj
 0001:000001fc       ??_C@_1BE@JIPKLCGE@?$AA?2?$AAN?$AAe?$AAt?$AAw?$AAo?$AAr?$AAk?$AA?2?$AA?$AA@ 100011fc     ole32_ALL:CMONIMP.obj
 0001:00000210       ??_C@_1CM@JEBLOPBI@?$AAW?$AAN?$AAe?$AAt?$AAG?$AAe?$AAt?$AAU?$AAn?$AAi?$AAv?$AAe?$AAr?$AAs?$AAa?$AAl?$AAN?$AAa?$AAm?$AAe?$AAW?$AA?$AA@ 10001210     ole32_ALL:CMONIMP.obj
 0001:0000023c       ??_C@_1BI@CJKPFBEK@?$AAc?$AAo?$AAr?$AAe?$AAd?$AAl?$AAl?$AA?4?$AAd?$AAl?$AAl?$AA?$AA@ 1000123c     ole32_ALL:CMONIMP.obj
 0001:00000254       ??_C@_17FLNAHGDE@?$AAA?$AA?3?$AA?2?$AA?$AA@ 10001254     ole32_ALL:CMONIMP.obj
 0001:0000025c       ??_C@_13MGDFOILI@?$AA?$CB?$AA?$AA@ 1000125c     ole32_ALL:CMONIMP.obj
 0001:00000260       ??_C@_1CE@FOOPNGNJ@?$AA?$CB?$AA?$CC?$AA?8?$AA?$CK?$AA?$CL?$AA?0?$AA?1?$AA?$DL?$AA?$DM?$AA?$DN?$AA?$DO?$AA?$DP?$AA?$EA?$AA?$FL?$AA?$FN?$AA?$GA?$AA?$HM?$AA?$AA@ 10001260     ole32_ALL:CMONIMP.obj
 0001:00000284       ??_C@_1O@BGPMPFMD@?$AA?2?$AAC?$AAl?$AAs?$AAi?$AAd?$AA?$AA@ 10001284     ole32_ALL:COMPAPI.obj
 0001:00000294       ??_7CXmitRpcStream@@6B@    10001294     ole32_ALL:SOBJACT.obj
 0001:000002cc       ??_7CObjServer@@6B@        100012cc     ole32_ALL:SOBJACT.obj
 0001:000002e8       IID_IAccessControl         100012e8     ole32_ALL:SECURITY.obj
 0001:000002f8       ??_7CServerSecurity@@6B@   100012f8     ole32_ALL:SECURITY.obj
 0001:00000314       ??_C@_1CI@KHFCENDM@?$AAA?$AAu?$AAt?$AAh?$AAe?$AAn?$AAt?$AAi?$AAc?$AAa?$AAt?$AAi?$AAo?$AAn?$AAL?$AAe?$AAv?$AAe?$AAl?$AA?$AA@ 10001314     ole32_ALL:SECURITY.obj
 0001:0000033c       ??_C@_1BA@GHOECOCL@?$AAD?$AAe?$AAf?$AAa?$AAu?$AAl?$AAt?$AA?$AA@ 1000133c     ole32_ALL:SECURITY.obj
 0001:0000034c       ??_C@_1DA@ONHECMH@?$AAD?$AAe?$AAf?$AAa?$AAu?$AAl?$AAt?$AAA?$AAc?$AAc?$AAe?$AAs?$AAs?$AAP?$AAe?$AAr?$AAm?$AAi?$AAs?$AAs?$AAi?$AAo?$AAn?$AA?$AA@ 1000134c     ole32_ALL:SECURITY.obj
 0001:0000037c       ??_C@_1CO@LGJNIHNE@?$AAS?$AAO?$AAF?$AAT?$AAW?$AAA?$AAR?$AAE?$AA?2?$AAM?$AAi?$AAc?$AAr?$AAo?$AAs?$AAo?$AAf?$AAt?$AA?2?$AAO?$AAL?$AAE?$AA?$AA@ 1000137c     ole32_ALL:SECURITY.obj
 0001:000003ac       ??_C@_1CC@JNCNNNPK@?$AAA?$AAc?$AAc?$AAe?$AAs?$AAs?$AAP?$AAe?$AAr?$AAm?$AAi?$AAs?$AAs?$AAi?$AAo?$AAn?$AA?$AA@ 100013ac     ole32_ALL:SECURITY.obj
 0001:000003d0       ??_C@_1M@EJNEECMJ@?$AAA?$AAp?$AAp?$AAI?$AAD?$AA?$AA@ 100013d0     ole32_ALL:SECURITY.obj
 0001:000003dc       ??_C@_1O@DDBLFHF@?$AAA?$AAp?$AAp?$AAI?$AAD?$AA?2?$AA?$AA@ 100013dc     ole32_ALL:SECURITY.obj
 0001:000003ec       ??_7CFmCtrlUnknown@@6B@    100013ec     ole32_ALL:IPMRSHL.obj
 0001:000003f8       ??_7CFreeMarshaler@@6B@    100013f8     ole32_ALL:IPMRSHL.obj
 0001:0000041c       ??_C@_1BE@DBKAINNB@?$AAO?$AAL?$AAE?$AA3?$AA2?$AA?4?$AAD?$AAL?$AAL?$AA?$AA@ 1000141c     ole32_ALL:COBJACT.obj
 0001:000004d0       ?gRemUnknownIf@@3U_RPC_SERVER_INTERFACE@@B 100014d0     ole32_ALL:RIFTBL.obj
 0001:00000514       ??_7CUUIDHashTable@@6B@    10001514     ole32_ALL:RIFTBL.obj
 0001:00000524       ??_7CStringHashTable@@6B@  10001524     ole32_ALL:IPIDTBL.obj
 0001:00000534       ??_C@_1CE@DAFIIABK@?$AAS?$AAl?$AAo?$AAw?$AAR?$AAp?$AAc?$AAT?$AAi?$AAm?$AAe?$AAF?$AAa?$AAc?$AAt?$AAo?$AAr?$AA?$AA@ 10001534     ole32_ALL:CALLCTRL.obj
 0001:00000558       ??_C@_1CC@FHGFHEJK@?$AAO?$AAl?$AAe?$AAC?$AAo?$AAm?$AAp?$AAa?$AAt?$AAi?$AAb?$AAi?$AAl?$AAi?$AAt?$AAy?$AA?$AA@ 10001558     ole32_ALL:CALLCTRL.obj
 0001:0000057c       ??_7CMTARpcChnl@@6B@       1000157c     ole32_ALL:CALLCTRL.obj
 0001:000005a4       ??_7CAptRpcChnl@@6B@       100015a4     ole32_ALL:CALLCTRL.obj
 0001:000005d0       ??_7CClassMoniker@@6BIMoniker@@@ 100015d0     ole32_ALL:CLASSMON.obj
 0001:0000062c       ??_7CClassMoniker@@6BIROTData@@@ 1000162c     ole32_ALL:CLASSMON.obj
 0001:0000063c       ??_7CClassMoniker@@6BIMarshal@@@ 1000163c     ole32_ALL:CLASSMON.obj
 0001:00000660       ??_C@_13EBCNDICG@?$AA?3?$AA?$AA@ 10001660     ole32_ALL:CLASSMON.obj
 0001:00000664       ??_C@_1BO@KEAMHHIL@?$AAS?$AAy?$AAs?$AAA?$AAl?$AAl?$AAo?$AAc?$AAS?$AAt?$AAr?$AAi?$AAn?$AAg?$AA?$AA@ 10001664     ole32_ALL:CERROR.obj
 0001:00000684       ??_C@_1BC@EMAMFHHJ@?$AAo?$AAl?$AAe?$AAa?$AAu?$AAt?$AA3?$AA2?$AA?$AA@ 10001684     ole32_ALL:CERROR.obj
 0001:00000698       ??_C@_1BM@IPMMHKAH@?$AAS?$AAy?$AAs?$AAF?$AAr?$AAe?$AAe?$AAS?$AAt?$AAr?$AAi?$AAn?$AAg?$AA?$AA@ 10001698     ole32_ALL:CERROR.obj
 0001:000006b4       ??_C@_1CI@HONEEDOE@?$AAS?$AAy?$AAs?$AAR?$AAe?$AAA?$AAl?$AAl?$AAo?$AAc?$AAS?$AAt?$AAr?$AAi?$AAn?$AAg?$AAL?$AAe?$AAn?$AA?$AA@ 100016b4     ole32_ALL:CERROR.obj
 0001:000006dc       ??_C@_1CC@PACLCEDK@?$AAS?$AAy?$AAs?$AAS?$AAt?$AAr?$AAi?$AAn?$AAg?$AAB?$AAy?$AAt?$AAe?$AAL?$AAe?$AAn?$AA?$AA@ 100016dc     ole32_ALL:CERROR.obj
 0001:00000700       ??_7CErrorObject@@6BIErrorInfo@@@ 10001700     ole32_ALL:CERROR.obj
 0001:00000720       ??_7CErrorObject@@6BICreateErrorInfo@@@ 10001720     ole32_ALL:CERROR.obj
 0001:00000740       ??_7CErrorObject@@6BIMarshal@@@ 10001740     ole32_ALL:CERROR.obj
 0001:00000768       ??_7CCompositeMoniker@@6BIMoniker@@@ 10001768     ole32_ALL:CCOMPMON.obj
 0001:000007c8       ??_7CCompositeMoniker@@6BIROTData@@@ 100017c8     ole32_ALL:CCOMPMON.obj
 0001:000007d8       ??_7CCompositeMonikerEnum@@6B@ 100017d8     ole32_ALL:CCOMPMON.obj
 0001:000007f8       ??_7CBaseMoniker@@6BIMoniker@@@ 100017f8     ole32_ALL:CCOMPMON.obj
 0001:00000858       ??_7CBaseMoniker@@6BIROTData@@@ 10001858     ole32_ALL:CCOMPMON.obj
 0001:00000868       ??_7COAHolder@@6B@         10001868     ole32_ALL:oaholder.obj
 0001:0000088c       ??_7CMemStm@@6B@           1000188c     ole32_ALL:memstm.obj
 0001:000008c4       ?DEBUG_EXTENSION@@3U_GUID@@B 100018c4     ole32_ALL:CHANNELB.obj
 0001:000008d4       ??_7CErrorChannelHook@@6B@ 100018d4     ole32_ALL:CHANNELB.obj
 0001:000008f8       ??_7CRpcChannelBuffer@@6B@ 100018f8     ole32_ALL:CHANNELB.obj
 0001:00000920       ??_7CDebugChannelHook@@6B@ 10001920     ole32_ALL:CHANNELB.obj
 0001:00000944       ??_C@_17MKFMIEKO@?$AA?4?$AA?4?$AA?2?$AA?$AA@ 10001944     ole32_ALL:CFILEMON.obj
 0001:00000950       ??_7CFileMoniker@@6BIMoniker@@@ 10001950     ole32_ALL:CFILEMON.obj
 0001:000009b4       ??_7CFileMoniker@@6BIROTData@@@ 100019b4     ole32_ALL:CFILEMON.obj
 0001:000009c4       ??_C@_11LOCGONAA@?$AA?$AA@ 100019c4     ole32_ALL:CFILEMON.obj
 0001:000009c8       ??_7CRunningObjectTable@@6B@ 100019c8     ole32_ALL:CROT.obj
 0001:000009f0       ??_7CRotMonikerEnum@@6B@   100019f0     ole32_ALL:CROT.obj
 0001:00000a0c       ??_C@_1BO@EGEAFJOD@?$AAO?$AAl?$AAe?$AAD?$AAf?$AAR?$AAo?$AAo?$AAt?$AA?$CF?$AA0?$AA8?$AAl?$AAX?$AA?$AA@ 10001a0c     ole32_ALL:docfile.obj
 0001:00000a48       ??_C@_1HA@GIPCBIGD@?$AAn?$AAc?$AAa?$AAl?$AAr?$AAp?$AAc?$AA?3?$AA?$FL?$AAe?$AAp?$AAm?$AAa?$AAp?$AAp?$AAe?$AAr?$AA?0?$AAS?$AAe?$AAc?$AAu?$AAr?$AAi?$AAt?$AAy?$AA?$DN?$AAI?$AAm?$AAp?$AAe?$AAr@ 10001a48     ole32_ALL:RESOLVER.obj
 0001:00000ab8       CLSID_MyPSFactoryBuffer    10001ab8     ole32_ALL:transmit.obj
 0001:00000ac8       ??_7CPunkForRelease@@6B@   10001ac8     ole32_ALL:transmit.obj
 0001:00000ad4       ??_7CContinue@@6B@         10001ad4     ole32_ALL:transmit.obj
 0001:00000ae4       ??_7CStreamOnMessage@@6B@  10001ae4     ole32_ALL:transmit.obj
 0001:00000b68       ??_7CFileMonikerFactory@@6BIClassFactory@@@ 10001b68     ole32_ALL:CFACTORY.obj
 0001:00000b7c       ??_7CFileMonikerFactory@@6BIParseDisplayName@@@ 10001b7c     ole32_ALL:CFACTORY.obj
 0001:00000b8c       ??_7CObjrefMonikerFactory@@6BIClassFactory@@@ 10001b8c     ole32_ALL:CFACTORY.obj
 0001:00000ba0       ??_7CObjrefMonikerFactory@@6BIParseDisplayName@@@ 10001ba0     ole32_ALL:CFACTORY.obj
 0001:00000bb0       ??_7CClassMonikerFactory@@6BIClassFactory@@@ 10001bb0     ole32_ALL:CFACTORY.obj
 0001:00000bc4       ??_7CClassMonikerFactory@@6BIParseDisplayName@@@ 10001bc4     ole32_ALL:CFACTORY.obj
 0001:00000bd4       ??_7CDllHost@@6B@          10001bd4     ole32_ALL:DLLHOST.obj
 0001:00000be4       ??_C@_1O@POKAANMG@?$AAC?$AAl?$AAs?$AAi?$AAd?$AA?2?$AA?$AA@ 10001be4     ole32_ALL:PATTBL.obj
 0001:00000bf4       ??_C@_1BC@NKMMNMGL@?$AAF?$AAi?$AAl?$AAe?$AAT?$AAy?$AAp?$AAe?$AA?$AA@ 10001bf4     ole32_ALL:PATTBL.obj
 0001:00000c08       ??_7CExtHashTable@@6B@     10001c08     ole32_ALL:pexttbl.obj
 0001:00000c18       ??_C@_1CM@CMHGJDLG@?$AAO?$AAl?$AAe?$AAM?$AAa?$AAi?$AAn?$AAT?$AAh?$AAr?$AAe?$AAa?$AAd?$AAW?$AAn?$AAd?$AAC?$AAl?$AAa?$AAs?$AAs?$AA?$AA@ 10001c18     ole32_ALL:DLLCACHE.obj
 0001:00000c44       ??_C@_1CK@GPHPIOMF@?$AAO?$AAl?$AAe?$AAM?$AAa?$AAi?$AAn?$AAT?$AAh?$AAr?$AAe?$AAa?$AAd?$AAW?$AAn?$AAd?$AAN?$AAa?$AAm?$AAe?$AA?$AA@ 10001c44     ole32_ALL:DLLCACHE.obj
 0001:00000d04       ??_C@_1CA@HIFBNMAG@?$AAD?$AAl?$AAl?$AAC?$AAa?$AAn?$AAU?$AAn?$AAl?$AAo?$AAa?$AAd?$AAN?$AAo?$AAw?$AA?$AA@ 10001d04     ole32_ALL:DLLCACHE.obj
 0001:00000d24       ??_C@_1CE@GIIEPNKC@?$AAD?$AAl?$AAl?$AAG?$AAe?$AAt?$AAC?$AAl?$AAa?$AAs?$AAs?$AAO?$AAb?$AAj?$AAe?$AAc?$AAt?$AA?$AA@ 10001d24     ole32_ALL:DLLCACHE.obj
 0001:00000d48       ??_C@_1BM@NLEIHFDK@?$AAO?$AAL?$AAE?$AAC?$AAh?$AAa?$AAn?$AAn?$AAe?$AAl?$AAW?$AAn?$AAd?$AA?$AA@ 10001d48     ole32_ALL:CHANCONT.obj
 0001:00000d64       ??_C@_17LODAJCMP@?$AAO?$AAL?$AAE?$AA?$AA@ 10001d64     ole32_ALL:SERVICE.obj
 0001:00000d6c       ??_C@_1BA@EONDGCCM@?$AAn?$AAc?$AAa?$AAl?$AAr?$AAp?$AAc?$AA?$AA@ 10001d6c     ole32_ALL:SERVICE.obj
 0001:00000d7c       ??_C@_1BK@CAFFCECE@?$AAn?$AAc?$AAa?$AAl?$AAr?$AAp?$AAc?$AA?3?$AA?$FL?$AAO?$AAL?$AAE?$AA?$AA@ 10001d7c     ole32_ALL:SERVICE.obj
 0001:00000d98       ??_C@_13OHNMPHJM@?$AA?$FN?$AA?$AA@ 10001d98     ole32_ALL:SERVICE.obj
 0001:00000d9c       ??_C@_15JOGBDECP@?$AA?0?$AA?5?$AA?$AA@ 10001d9c     ole32_ALL:SERVICE.obj
 0001:00000da4       ??_C@_1BE@EMMNJCAI@?$AAE?$AAn?$AAd?$AAp?$AAo?$AAi?$AAn?$AAt?$AAs?$AA?$AA@ 10001da4     ole32_ALL:SERVICE.obj
 0001:00000db8       ??_C@_00CNPNBAHC@?$AA@     10001db8     ole32_ALL:CITEMMON.obj
 0001:00000dbc       ??_C@_13FPGAJAPJ@?$AA?2?$AA?$AA@ 10001dbc     ole32_ALL:CITEMMON.obj
 0001:00000dc0       ??_7CDelayUnlockContainer@@6B@ 10001dc0     ole32_ALL:CITEMMON.obj
 0001:00000dd0       ??_7CItemMoniker@@6BIMoniker@@@ 10001dd0     ole32_ALL:CITEMMON.obj
 0001:00000e30       ??_7CItemMoniker@@6BIROTData@@@ 10001e30     ole32_ALL:CITEMMON.obj
 0001:00000e40       ??_C@_17OFBPHKFE@?$AA?2?$AA?4?$AA?4?$AA?$AA@ 10001e40     ole32_ALL:CANTIMON.obj
 0001:00000e48       ??_7CAntiMoniker@@6BIMoniker@@@ 10001e48     ole32_ALL:CANTIMON.obj
 0001:00000ea8       ??_7CAntiMoniker@@6BIROTData@@@ 10001ea8     ole32_ALL:CANTIMON.obj
 0001:00000eb8       ??_7CBindCtx@@6B@          10001eb8     ole32_ALL:CBINDCTX.obj
 0001:00000ef0       ??_7CPointerMoniker@@6BIMoniker@@@ 10001ef0     ole32_ALL:CPTRMON.obj
 0001:00000f50       ??_7CPointerMoniker@@6BIROTData@@@ 10001f50     ole32_ALL:CPTRMON.obj
 0001:00000f60       ??_7CPointerMoniker@@6B@   10001f60     ole32_ALL:CPTRMON.obj
 0001:00000f88       ??_7CObjrefMoniker@@6BIMoniker@@@ 10001f88     ole32_ALL:cobjrmon.obj
 0001:00000fe8       ??_7CObjrefMoniker@@6BIROTData@@@ 10001fe8     ole32_ALL:cobjrmon.obj
 0001:00000ff8       ??_7CObjrefMoniker@@6B@    10001ff8     ole32_ALL:cobjrmon.obj
 0001:0000101c       ??_C@_1O@FOKAHLBC@?$AAo?$AAb?$AAj?$AAr?$AAe?$AAf?$AA?$AA@ 1000201c     ole32_ALL:cobjrmon.obj
 0001:0000102c       IID_IUnknown               1000202c     ole32_ALL:mega_i.obj
 0001:0000103c       IID_IClassFactory          1000203c     ole32_ALL:mega_i.obj
 0001:0000104c       IID_IMarshal               1000204c     ole32_ALL:mega_i.obj
 0001:0000105c       IID_IMalloc                1000205c     ole32_ALL:mega_i.obj
 0001:0000106c       IID_IMallocSpy             1000206c     ole32_ALL:mega_i.obj
 0001:0000107c       IID_IStdMarshalInfo        1000207c     ole32_ALL:mega_i.obj
 0001:0000108c       IID_IExternalConnection    1000208c     ole32_ALL:mega_i.obj
 0001:0000109c       IID_IMultiQI               1000209c     ole32_ALL:mega_i.obj
 0001:000010ac       IID_IEnumUnknown           100020ac     ole32_ALL:mega_i.obj
 0001:000010bc       IID_IBindCtx               100020bc     ole32_ALL:mega_i.obj
 0001:000010cc       IID_IEnumMoniker           100020cc     ole32_ALL:mega_i.obj
 0001:000010dc       IID_IRunnableObject        100020dc     ole32_ALL:mega_i.obj
 0001:000010ec       IID_IRunningObjectTable    100020ec     ole32_ALL:mega_i.obj
 0001:000010fc       IID_IPersist               100020fc     ole32_ALL:mega_i.obj
 0001:0000110c       IID_IPersistStream         1000210c     ole32_ALL:mega_i.obj
 0001:0000111c       IID_IMoniker               1000211c     ole32_ALL:mega_i.obj
 0001:0000112c       IID_IROTData               1000212c     ole32_ALL:mega_i.obj
 0001:0000113c       IID_IEnumString            1000213c     ole32_ALL:mega_i.obj
 0001:0000114c       IID_ISequentialStream      1000214c     ole32_ALL:mega_i.obj
 0001:0000115c       IID_IStream                1000215c     ole32_ALL:mega_i.obj
 0001:0000116c       IID_IEnumSTATSTG           1000216c     ole32_ALL:mega_i.obj
 0001:0000117c       IID_IStorage               1000217c     ole32_ALL:mega_i.obj
 0001:0000118c       IID_IPersistFile           1000218c     ole32_ALL:mega_i.obj
 0001:0000119c       IID_IPersistStorage        1000219c     ole32_ALL:mega_i.obj
 0001:000011ac       IID_ILockBytes             100021ac     ole32_ALL:mega_i.obj
 0001:000011bc       IID_IEnumFORMATETC         100021bc     ole32_ALL:mega_i.obj
 0001:000011cc       IID_IEnumSTATDATA          100021cc     ole32_ALL:mega_i.obj
 0001:000011dc       IID_IRootStorage           100021dc     ole32_ALL:mega_i.obj
 0001:000011ec       IID_IAdviseSink            100021ec     ole32_ALL:mega_i.obj
 0001:000011fc       IID_IAdviseSink2           100021fc     ole32_ALL:mega_i.obj
 0001:0000120c       IID_IDataObject            1000220c     ole32_ALL:mega_i.obj
 0001:0000121c       IID_IRpcChannelBuffer      1000221c     ole32_ALL:mega_i.obj
 0001:0000122c       IID_IRpcChannelBuffer2     1000222c     ole32_ALL:mega_i.obj
 0001:0000123c       IID_IPSFactoryBuffer       1000223c     ole32_ALL:mega_i.obj
 0001:0000124c       IID_IChannelHook           1000224c     ole32_ALL:mega_i.obj
 0001:0000125c       IID_IConnectionPoint       1000225c     ole32_ALL:mega_i.obj
 0001:0000126c       IID_IConnectionPointContainer 1000226c     ole32_ALL:mega_i.obj
 0001:0000127c       IID_IEnumConnections       1000227c     ole32_ALL:mega_i.obj
 0001:0000128c       IID_IEnumConnectionPoints  1000228c     ole32_ALL:mega_i.obj
 0001:0000129c       IID_IClientSecurity        1000229c     ole32_ALL:mega_i.obj
 0001:000012ac       IID_IServerSecurity        100022ac     ole32_ALL:mega_i.obj
 0001:000012bc       IID_IClassActivator        100022bc     ole32_ALL:mega_i.obj
 0001:000012cc       IID_IRpcOptions            100022cc     ole32_ALL:mega_i.obj
 0001:000012dc       IID_IFillLockBytes         100022dc     ole32_ALL:mega_i.obj
 0001:000012ec       IID_IProgressNotify        100022ec     ole32_ALL:mega_i.obj
 0001:000012fc       IID_ISurrogate             100022fc     ole32_ALL:mega_i.obj
 0001:0000130c       IID_IGlobalInterfaceTable  1000230c     ole32_ALL:mega_i.obj
 0001:0000131c       IID_IComBinding            1000231c     ole32_ALL:mega_i.obj
 0001:0000132c       IID_IOleAdviseHolder       1000232c     ole32_ALL:mega_i.obj
 0001:0000133c       IID_IOleCache              1000233c     ole32_ALL:mega_i.obj
 0001:0000134c       IID_IOleCache2             1000234c     ole32_ALL:mega_i.obj
 0001:0000135c       IID_IOleCacheControl       1000235c     ole32_ALL:mega_i.obj
 0001:0000136c       IID_IParseDisplayName      1000236c     ole32_ALL:mega_i.obj
 0001:0000137c       IID_IOleContainer          1000237c     ole32_ALL:mega_i.obj
 0001:0000138c       IID_IOleClientSite         1000238c     ole32_ALL:mega_i.obj
 0001:0000139c       IID_IOleObject             1000239c     ole32_ALL:mega_i.obj
 0001:000013ac       IID_IOleWindow             100023ac     ole32_ALL:mega_i.obj
 0001:000013bc       IID_IOleLink               100023bc     ole32_ALL:mega_i.obj
 0001:000013cc       IID_IOleItemContainer      100023cc     ole32_ALL:mega_i.obj
 0001:000013dc       IID_IOleInPlaceUIWindow    100023dc     ole32_ALL:mega_i.obj
 0001:000013ec       IID_IOleInPlaceActiveObject 100023ec     ole32_ALL:mega_i.obj
 0001:000013fc       IID_IOleInPlaceFrame       100023fc     ole32_ALL:mega_i.obj
 0001:0000140c       IID_IOleInPlaceObject      1000240c     ole32_ALL:mega_i.obj
 0001:0000141c       IID_IOleInPlaceSite        1000241c     ole32_ALL:mega_i.obj
 0001:0000142c       IID_IContinue              1000242c     ole32_ALL:mega_i.obj
 0001:0000143c       IID_IViewObject            1000243c     ole32_ALL:mega_i.obj
 0001:0000144c       IID_IViewObject2           1000244c     ole32_ALL:mega_i.obj
 0001:0000145c       IID_IDropTarget            1000245c     ole32_ALL:mega_i.obj
 0001:0000146c       IID_IEnumOLEVERB           1000246c     ole32_ALL:mega_i.obj
 0001:0000147c       IID_IServerHandler         1000247c     ole32_ALL:mega_i.obj
 0001:0000148c       IID_IClientSiteHandler     1000248c     ole32_ALL:mega_i.obj
 0001:0000149c       IID_IRemUnknown            1000249c     ole32_ALL:mega_i.obj
 0001:000014ac       IID_IObjServer             100024ac     ole32_ALL:mega_i.obj
 0001:000014bc       IID_IDSCM                  100024bc     ole32_ALL:mega_i.obj
 0001:000014cc       IID_IInterfaceFromWindowProp 100024cc     ole32_ALL:mega_i.obj
 0001:000014dc       IID_IRemUnknown2           100024dc     ole32_ALL:mega_i.obj
 0001:000014ec       IID_IRundown               100024ec     ole32_ALL:mega_i.obj
 0001:000014fc       IID_IDLLHost               100024fc     ole32_ALL:mega_i.obj
 0001:0000150c       GUID_NULL                  1000250c     ole32_ALL:dcomuuid.obj
 0001:0000151c       IID_IProxyManager          1000251c     ole32_ALL:dcomuuid.obj
 0001:0000152c       IID_IInternalMoniker       1000252c     ole32_ALL:dcomuuid.obj
 0001:0000153c       IID_IDfReserved1           1000253c     ole32_ALL:dcomuuid.obj
 0001:0000154c       CLSID_StdMarshal           1000254c     ole32_ALL:dcomuuid.obj
 0001:0000155c       CLSID_DCOMAccessControl    1000255c     ole32_ALL:dcomuuid.obj
 0001:0000156c       CLSID_StdGlobalInterfaceTable 1000256c     ole32_ALL:dcomuuid.obj
 0001:0000157c       CLSID_InProcFreeMarshaler  1000257c     ole32_ALL:dcomuuid.obj
 0001:0000158c       IID_IErrorInfo             1000258c     ole32_ALL:dcomuuid.obj
 0001:0000159c       IID_ICreateErrorInfo       1000259c     ole32_ALL:dcomuuid.obj
 0001:000015ac       IID_ISupportErrorInfo      100025ac     ole32_ALL:dcomuuid.obj
 0001:000015bc       ??_C@_1BI@EHGKGMCI@?$AAD?$AAe?$AAs?$AAi?$AAg?$AAn?$AAe?$AAr?$AA_?$AA4?$AA0?$AA?$AA@ 100025bc     ole32_ALL:OLE1GUID.obj
 0001:000015d4       ??_C@_19FABBOCGE@?$AAD?$AAr?$AAa?$AAw?$AA?$AA@ 100025d4     ole32_ALL:OLE1GUID.obj
 0001:000015e0       ??_C@_1BI@MPKFDDBB@?$AAC?$AAh?$AAa?$AAr?$AAP?$AAr?$AAe?$AAs?$AA_?$AA3?$AA0?$AA?$AA@ 100025e0     ole32_ALL:OLE1GUID.obj
 0001:000015f8       ??_C@_1BI@FLJOLOHB@?$AAC?$AAh?$AAa?$AAr?$AAi?$AAs?$AAm?$AAa?$AA_?$AA3?$AA0?$AA?$AA@ 100025f8     ole32_ALL:OLE1GUID.obj
 0001:00001610       ??_C@_1BC@GDMDMLGH@?$AAC?$AAh?$AAa?$AAr?$AAi?$AAs?$AAm?$AAa?$AA?$AA@ 10002610     ole32_ALL:OLE1GUID.obj
 0001:00001624       ??_C@_1BC@PFCKPBA@?$AAW?$AAP?$AAC?$AAh?$AAa?$AAr?$AAt?$AAs?$AA?$AA@ 10002624     ole32_ALL:OLE1GUID.obj
 0001:00001638       ??_C@_1BG@EIALJMKN@?$AAW?$AAP?$AAG?$AAr?$AAa?$AAp?$AAh?$AAi?$AAc?$AAs?$AA?$AA@ 10002638     ole32_ALL:OLE1GUID.obj
 0001:00001650       ??_C@_1BO@JMFMNDJB@?$AAA?$AAm?$AAi?$AAP?$AAr?$AAo?$AAD?$AAo?$AAc?$AAu?$AAm?$AAe?$AAn?$AAt?$AA?$AA@ 10002650     ole32_ALL:OLE1GUID.obj
 0001:00001670       ??_C@_1BC@DHKOHHFG@?$AAT?$AAe?$AAs?$AAt?$AAS?$AAe?$AAr?$AAv?$AA?$AA@ 10002670     ole32_ALL:OLE1GUID.obj
 0001:00001684       ??_C@_1BC@HJKDDDAC@?$AAM?$AAi?$AAn?$AAS?$AAv?$AAr?$AAM?$AAI?$AA?$AA@ 10002684     ole32_ALL:OLE1GUID.obj
 0001:00001698       ??_C@_1O@LPANPFDN@?$AAB?$AAi?$AAb?$AAR?$AAe?$AAf?$AA?$AA@ 10002698     ole32_ALL:OLE1GUID.obj
 0001:000016a8       ??_C@_1BM@KBMDIFPA@?$AAH?$AAi?$AAe?$AAr?$AAa?$AAr?$AAc?$AAh?$AAy?$AAL?$AAi?$AAs?$AAt?$AA?$AA@ 100026a8     ole32_ALL:OLE1GUID.obj
 0001:000016c4       ??_C@_1O@GFDGBBCG@?$AAM?$AAi?$AAn?$AAS?$AAv?$AAr?$AA?$AA@ 100026c4     ole32_ALL:OLE1GUID.obj
 0001:000016d4       ??_C@_1CG@LOBIAMJD@?$AAM?$AAS?$AAW?$AAo?$AAr?$AAk?$AAs?$AAS?$AAp?$AAr?$AAe?$AAa?$AAd?$AAs?$AAh?$AAe?$AAe?$AAt?$AA?$AA@ 100026d4     ole32_ALL:OLE1GUID.obj
 0001:000016fc       ??_C@_1BK@FKCIBFIO@?$AAM?$AAS?$AAW?$AAo?$AAr?$AAk?$AAs?$AAC?$AAh?$AAa?$AAr?$AAt?$AA?$AA@ 100026fc     ole32_ALL:OLE1GUID.obj
 0001:00001718       ??_C@_1BE@KAEGAPHP@?$AAM?$AAS?$AAP?$AAr?$AAo?$AAj?$AAe?$AAc?$AAt?$AA?$AA@ 10002718     ole32_ALL:OLE1GUID.obj
 0001:0000172c       ??_C@_1CG@OPCDINAC@?$AAM?$AAS?$AA_?$AAC?$AAl?$AAi?$AAp?$AAA?$AAr?$AAt?$AA_?$AAG?$AAa?$AAl?$AAl?$AAe?$AAr?$AAy?$AA?$AA@ 1000272c     ole32_ALL:OLE1GUID.obj
 0001:00001754       ??_C@_1O@DAIGLGAC@?$AAC?$AAl?$AAt?$AAe?$AAs?$AAt?$AA?$AA@ 10002754     ole32_ALL:OLE1GUID.obj
 0001:00001764       ??_C@_1BC@CFEJHAAD@?$AAS?$AAr?$AAv?$AAr?$AAT?$AAe?$AAs?$AAt?$AA?$AA@ 10002764     ole32_ALL:OLE1GUID.obj
 0001:00001778       ??_C@_1BK@FBJINLPC@?$AAI?$AAm?$AAp?$AAo?$AAr?$AAt?$AAS?$AAe?$AAr?$AAv?$AAe?$AAr?$AA?$AA@ 10002778     ole32_ALL:OLE1GUID.obj
 0001:00001794       ??_C@_1CC@JIKFBOCB@?$AAS?$AAh?$AAa?$AAp?$AAe?$AAw?$AAa?$AAr?$AAe?$AAV?$AAI?$AAS?$AAI?$AAO?$AA1?$AA0?$AA?$AA@ 10002794     ole32_ALL:OLE1GUID.obj
 0001:000017b8       ??_C@_1BG@KDNBBCOD@?$AAS?$AAt?$AAi?$AAc?$AAk?$AAy?$AAn?$AAo?$AAt?$AAe?$AA?$AA@ 100027b8     ole32_ALL:OLE1GUID.obj
 0001:000017d0       ??_C@_1BA@JPEDNJFL@?$AAF?$AAY?$AAI?$AAV?$AAi?$AAe?$AAw?$AA?$AA@ 100027d0     ole32_ALL:OLE1GUID.obj
 0001:000017e0       ??_C@_17LILCKFHE@?$AAF?$AAY?$AAI?$AA?$AA@ 100027e0     ole32_ALL:OLE1GUID.obj
 0001:000017e8       ??_C@_1BI@PGCNAHLJ@?$AAO?$AAb?$AAj?$AAM?$AAa?$AAk?$AAe?$AAr?$AAO?$AAL?$AAE?$AA?$AA@ 100027e8     ole32_ALL:OLE1GUID.obj
 0001:00001800       ??_C@_1BC@EGALGCD@?$AAH?$AAJ?$AAW?$AAI?$AAN?$AA1?$AA?4?$AA0?$AA?$AA@ 10002800     ole32_ALL:OLE1GUID.obj
 0001:00001814       ??_C@_1M@IPLDCJHN@?$AAC?$AAD?$AAr?$AAa?$AAw?$AA?$AA@ 10002814     ole32_ALL:OLE1GUID.obj
 0001:00001820       ??_C@_1BG@OFMMOLFK@?$AAC?$AAo?$AAr?$AAe?$AAl?$AAC?$AAh?$AAa?$AAr?$AAt?$AA?$AA@ 10002820     ole32_ALL:OLE1GUID.obj
 0001:00001838       ??_C@_1M@JNLAPPHP@?$AAC?$AAS?$AAh?$AAo?$AAw?$AA?$AA@ 10002838     ole32_ALL:OLE1GUID.obj
 0001:00001844       ??_C@_1BG@FNEDHOHM@?$AAP?$AAh?$AAo?$AAt?$AAo?$AAP?$AAa?$AAi?$AAn?$AAt?$AA?$AA@ 10002844     ole32_ALL:OLE1GUID.obj
 0001:0000185c       ??_C@_1BG@EMPAKCCD@?$AAD?$AAG?$AAr?$AAa?$AAp?$AAh?$AAD?$AAA?$AAT?$AAA?$AA?$AA@ 1000285c     ole32_ALL:OLE1GUID.obj
 0001:00001874       ??_C@_1BI@PLIKOMJP@?$AAD?$AAG?$AAr?$AAa?$AAp?$AAh?$AAC?$AAH?$AAA?$AAR?$AAT?$AA?$AA@ 10002874     ole32_ALL:OLE1GUID.obj
 0001:0000188c       ??_C@_1CC@PCBKMAPF@?$AAS?$AAt?$AAa?$AAn?$AAf?$AAo?$AAr?$AAd?$AAG?$AAr?$AAa?$AAp?$AAh?$AAi?$AAc?$AAs?$AA?$AA@ 1000288c     ole32_ALL:OLE1GUID.obj
 0001:000018b0       ??_C@_1CI@NEBMKEGM@?$AAC?$AAo?$AAr?$AAo?$AAm?$AAa?$AAn?$AAd?$AAe?$AAl?$AAO?$AAb?$AAj?$AAS?$AAe?$AAr?$AAv?$AAe?$AAr?$AA?$AA@ 100028b0     ole32_ALL:OLE1GUID.obj
 0001:000018d8       ??_C@_1CE@BMGGINEE@?$AAC?$AAo?$AAr?$AAo?$AAm?$AAa?$AAn?$AAd?$AAe?$AAl?$AAI?$AAn?$AAt?$AAe?$AAg?$AAr?$AAa?$AA?$AA@ 100028d8     ole32_ALL:OLE1GUID.obj
 0001:000018fc       ??_C@_1BA@HNHMNCKC@?$AAO?$AAl?$AAe?$AAD?$AAe?$AAm?$AAo?$AA?$AA@ 100028fc     ole32_ALL:OLE1GUID.obj
 0001:0000190c       ??_C@_1O@IIFBKFL@?$AAS?$AAr?$AAt?$AAI?$AAn?$AAv?$AA?$AA@ 1000290c     ole32_ALL:OLE1GUID.obj
 0001:0000191c       ??_C@_1O@LDBNLEIM@?$AAS?$AAr?$AAt?$AAe?$AAs?$AAt?$AA?$AA@ 1000291c     ole32_ALL:OLE1GUID.obj
 0001:0000192c       ??_C@_1BG@FBKIIDBG@?$AAS?$AAe?$AAr?$AAv?$AAe?$AAr?$AAD?$AAe?$AAm?$AAo?$AA?$AA@ 1000292c     ole32_ALL:OLE1GUID.obj
 0001:00001944       ??_C@_1BA@CKBGPJBG@?$AAM?$AAP?$AAl?$AAa?$AAy?$AAe?$AAr?$AA?$AA@ 10002944     ole32_ALL:OLE1GUID.obj
 0001:00001954       ??_C@_1BC@EAONNPJO@?$AAS?$AAo?$AAu?$AAn?$AAd?$AAR?$AAe?$AAc?$AA?$AA@ 10002954     ole32_ALL:OLE1GUID.obj
 0001:00001968       ??_C@_1BA@LJEMMLBI@?$AAP?$AAa?$AAc?$AAk?$AAa?$AAg?$AAe?$AA?$AA@ 10002968     ole32_ALL:OLE1GUID.obj
 0001:00001978       ??_C@_1BC@HIPLFNDP@?$AAE?$AAq?$AAu?$AAa?$AAt?$AAi?$AAo?$AAn?$AA?$AA@ 10002978     ole32_ALL:OLE1GUID.obj
 0001:0000198c       ??_C@_1O@LADPAOBI@?$AAP?$AAB?$AAr?$AAu?$AAs?$AAh?$AA?$AA@ 1000298c     ole32_ALL:OLE1GUID.obj
 0001:0000199c       ??_C@_1BA@KLFAFNHH@?$AAW?$AAo?$AAr?$AAd?$AAA?$AAr?$AAt?$AA?$AA@ 1000299c     ole32_ALL:OLE1GUID.obj
 0001:000019ac       ??_C@_1BA@HJAKOBHD@?$AAN?$AAo?$AAt?$AAe?$AA?9?$AAI?$AAt?$AA?$AA@ 100029ac     ole32_ALL:OLE1GUID.obj
 0001:000019bc       ??_C@_1O@NPIGPMID@?$AAM?$AAS?$AAD?$AAr?$AAa?$AAw?$AA?$AA@ 100029bc     ole32_ALL:OLE1GUID.obj
 0001:000019cc       ??_C@_1BA@DAKMJHJN@?$AAM?$AAS?$AAG?$AAr?$AAa?$AAp?$AAh?$AA?$AA@ 100029cc     ole32_ALL:OLE1GUID.obj
 0001:000019dc       ??_C@_1CA@JFDEFHAD@?$AAM?$AAS?$AAP?$AAo?$AAw?$AAe?$AAr?$AAP?$AAo?$AAi?$AAn?$AAt?$AAS?$AAh?$AAo?$AA?$AA@ 100029dc     ole32_ALL:OLE1GUID.obj
 0001:000019fc       ??_C@_1BK@FICNKANE@?$AAM?$AAS?$AAP?$AAo?$AAw?$AAe?$AAr?$AAP?$AAo?$AAi?$AAn?$AAt?$AA?$AA@ 100029fc     ole32_ALL:OLE1GUID.obj
 0001:00001a18       ??_C@_1BK@FJLCEJAE@?$AAW?$AAo?$AAr?$AAd?$AAD?$AAo?$AAc?$AAu?$AAm?$AAe?$AAn?$AAt?$AA?$AA@ 10002a18     ole32_ALL:OLE1GUID.obj
 0001:00001a34       ??_C@_1CA@FGHEJBLM@?$AAE?$AAx?$AAc?$AAe?$AAl?$AAM?$AAa?$AAc?$AAr?$AAo?$AAs?$AAh?$AAe?$AAe?$AAt?$AA?$AA@ 10002a34     ole32_ALL:OLE1GUID.obj
 0001:00001a54       ??_C@_1BG@FHEOFGJF@?$AAE?$AAx?$AAc?$AAe?$AAl?$AAC?$AAh?$AAa?$AAr?$AAt?$AA?$AA@ 10002a54     ole32_ALL:OLE1GUID.obj
 0001:00001a6c       ??_C@_1BO@ECMNLHHB@?$AAE?$AAx?$AAc?$AAe?$AAl?$AAW?$AAo?$AAr?$AAk?$AAs?$AAh?$AAe?$AAe?$AAt?$AA?$AA@ 10002a6c     ole32_ALL:OLE1GUID.obj
 0001:00001a8c       CLSID_ExcelWorksheet       10002a8c     ole32_ALL:OLE1GUID.obj
 0001:00001a9c       CLSID_ExcelChart           10002a9c     ole32_ALL:OLE1GUID.obj
 0001:00001aac       CLSID_ExcelMacrosheet      10002aac     ole32_ALL:OLE1GUID.obj
 0001:00001abc       CLSID_WordDocument         10002abc     ole32_ALL:OLE1GUID.obj
 0001:00001acc       CLSID_MSPowerPoint         10002acc     ole32_ALL:OLE1GUID.obj
 0001:00001adc       CLSID_MSPowerPointSho      10002adc     ole32_ALL:OLE1GUID.obj
 0001:00001aec       CLSID_MSGraph              10002aec     ole32_ALL:OLE1GUID.obj
 0001:00001afc       CLSID_MSDraw               10002afc     ole32_ALL:OLE1GUID.obj
 0001:00001b0c       CLSID_Note_It              10002b0c     ole32_ALL:OLE1GUID.obj
 0001:00001b1c       CLSID_WordArt              10002b1c     ole32_ALL:OLE1GUID.obj
 0001:00001b2c       CLSID_PBrush               10002b2c     ole32_ALL:OLE1GUID.obj
 0001:00001b3c       CLSID_Equation             10002b3c     ole32_ALL:OLE1GUID.obj
 0001:00001b4c       CLSID_Package              10002b4c     ole32_ALL:OLE1GUID.obj
 0001:00001b5c       CLSID_SoundRec             10002b5c     ole32_ALL:OLE1GUID.obj
 0001:00001b6c       CLSID_MPlayer              10002b6c     ole32_ALL:OLE1GUID.obj
 0001:00001b7c       CLSID_ServerDemo           10002b7c     ole32_ALL:OLE1GUID.obj
 0001:00001b8c       CLSID_Srtest               10002b8c     ole32_ALL:OLE1GUID.obj
 0001:00001b9c       CLSID_SrtInv               10002b9c     ole32_ALL:OLE1GUID.obj
 0001:00001bac       CLSID_OleDemo              10002bac     ole32_ALL:OLE1GUID.obj
 0001:00001bbc       CLSID_CoromandelIntegra    10002bbc     ole32_ALL:OLE1GUID.obj
 0001:00001bcc       CLSID_CoromandelObjServer  10002bcc     ole32_ALL:OLE1GUID.obj
 0001:00001bdc       CLSID_StanfordGraphics     10002bdc     ole32_ALL:OLE1GUID.obj
 0001:00001bec       CLSID_DGraphCHART          10002bec     ole32_ALL:OLE1GUID.obj
 0001:00001bfc       CLSID_DGraphDATA           10002bfc     ole32_ALL:OLE1GUID.obj
 0001:00001c0c       CLSID_PhotoPaint           10002c0c     ole32_ALL:OLE1GUID.obj
 0001:00001c1c       CLSID_CShow                10002c1c     ole32_ALL:OLE1GUID.obj
 0001:00001c2c       CLSID_CorelChart           10002c2c     ole32_ALL:OLE1GUID.obj
 0001:00001c3c       CLSID_CDraw                10002c3c     ole32_ALL:OLE1GUID.obj
 0001:00001c4c       CLSID_HJWIN1_0             10002c4c     ole32_ALL:OLE1GUID.obj
 0001:00001c5c       CLSID_ObjMakerOLE          10002c5c     ole32_ALL:OLE1GUID.obj
 0001:00001c6c       CLSID_FYI                  10002c6c     ole32_ALL:OLE1GUID.obj
 0001:00001c7c       CLSID_FYIView              10002c7c     ole32_ALL:OLE1GUID.obj
 0001:00001c8c       CLSID_Stickynote           10002c8c     ole32_ALL:OLE1GUID.obj
 0001:00001c9c       CLSID_ShapewareVISIO10     10002c9c     ole32_ALL:OLE1GUID.obj
 0001:00001cac       CLSID_ImportServer         10002cac     ole32_ALL:OLE1GUID.obj
 0001:00001cbc       CLSID_SrvrTest             10002cbc     ole32_ALL:OLE1GUID.obj
 0001:00001ccc       CLSID_ClTest               10002ccc     ole32_ALL:OLE1GUID.obj
 0001:00001cdc       CLSID_MS_ClipArt_Gallery   10002cdc     ole32_ALL:OLE1GUID.obj
 0001:00001cec       CLSID_MSProject            10002cec     ole32_ALL:OLE1GUID.obj
 0001:00001cfc       CLSID_MSWorksChart         10002cfc     ole32_ALL:OLE1GUID.obj
 0001:00001d0c       CLSID_MSWorksSpreadsheet   10002d0c     ole32_ALL:OLE1GUID.obj
 0001:00001d1c       CLSID_MinSvr               10002d1c     ole32_ALL:OLE1GUID.obj
 0001:00001d2c       CLSID_HierarchyList        10002d2c     ole32_ALL:OLE1GUID.obj
 0001:00001d3c       CLSID_BibRef               10002d3c     ole32_ALL:OLE1GUID.obj
 0001:00001d4c       CLSID_MinSvrMI             10002d4c     ole32_ALL:OLE1GUID.obj
 0001:00001d5c       CLSID_TestServ             10002d5c     ole32_ALL:OLE1GUID.obj
 0001:00001d6c       CLSID_AmiProDocument       10002d6c     ole32_ALL:OLE1GUID.obj
 0001:00001d7c       CLSID_WPGraphics           10002d7c     ole32_ALL:OLE1GUID.obj
 0001:00001d8c       CLSID_WPCharts             10002d8c     ole32_ALL:OLE1GUID.obj
 0001:00001d9c       CLSID_Charisma             10002d9c     ole32_ALL:OLE1GUID.obj
 0001:00001dac       CLSID_Charisma_30          10002dac     ole32_ALL:OLE1GUID.obj
 0001:00001dbc       CLSID_CharPres_30          10002dbc     ole32_ALL:OLE1GUID.obj
 0001:00001dcc       CLSID_Draw                 10002dcc     ole32_ALL:OLE1GUID.obj
 0001:00001ddc       CLSID_Designer_40          10002ddc     ole32_ALL:OLE1GUID.obj
 0001:00001dec       ??_C@_1DA@OIAPOJKM@?$AAp?$AAr?$AAo?$AAt?$AAo?$AAc?$AAo?$AAl?$AA?2?$AAS?$AAt?$AAd?$AAF?$AAi?$AAl?$AAe?$AAE?$AAd?$AAi?$AAt?$AAi?$AAn?$AAg?$AA?$AA@ 10002dec     ole32_ALL:OLE1GUID.obj
 0001:00001e1c       ??_C@_1O@HNNDAFP@?$AAP?$AAr?$AAo?$AAg?$AAI?$AAD?$AA?$AA@ 10002e1c     ole32_ALL:OLE1GUID.obj
 0001:00001e2c       ??_C@_1BE@FDOFKBIK@?$AAO?$AAl?$AAe?$AA1?$AAC?$AAl?$AAa?$AAs?$AAs?$AA?$AA@ 10002e2c     ole32_ALL:OLE1GUID.obj
 0001:00001e40       ??_C@_1BE@IMAHEAJD@?$AAC?$AAL?$AAS?$AAI?$AAD?$AA?2?$AA?$CF?$AAw?$AAs?$AA?$AA@ 10002e40     ole32_ALL:OLE1GUID.obj
 0001:00001e54       ??_C@_1CE@MJMMNJGC@?$AAP?$AAa?$AAc?$AAk?$AAa?$AAg?$AAe?$AAO?$AAn?$AAF?$AAi?$AAl?$AAe?$AAD?$AAr?$AAo?$AAp?$AA?$AA@ 10002e54     ole32_ALL:OLE1GUID.obj
 0001:00001e78       ??_C@_1EO@JOOPFMFJ@?$AA?$HL?$AA0?$AA0?$AA0?$AA3?$AA0?$AA0?$AA0?$AA3?$AA?9?$AA0?$AA0?$AA0?$AA0?$AA?9?$AA0?$AA0?$AA0?$AA0?$AA?9?$AAC?$AA0?$AA0?$AA0?$AA?9?$AA0?$AA0?$AA0?$AA0?$AA0?$AA0?$AA0@ 10002e78     ole32_ALL:OLE1GUID.obj
 0001:00001ec8       ??_C@_1M@LBGMBANL@?$AAC?$AAl?$AAs?$AAi?$AAd?$AA?$AA@ 10002ec8     ole32_ALL:OLE1GUID.obj
 0001:00001ed8       ??_C@_1FG@PEHCMGIL@?$AA?$HL?$AA0?$AA0?$AA0?$AA4?$AA?$CF?$AA0?$AA2?$AAX?$AA?$CF?$AA0?$AA2?$AAX?$AA?9?$AA0?$AA0?$AA0?$AA0?$AA?9?$AA0?$AA0?$AA0?$AA0?$AA?9?$AAC?$AA0?$AA0?$AA0?$AA?9?$AA0?$AA0?$AA0@ 10002ed8     ole32_ALL:OLE1GUID.obj
 0001:00001f30       ??_7CStdMarshal@@6B@       10002f30     ole32_ALL:MARSHAL.obj
 0001:00001f54       ??_C@_1BI@INKPHAML@?$AAw?$AAi?$AAn?$AAw?$AAo?$AAr?$AAd?$AA?4?$AAe?$AAx?$AAe?$AA?$AA@ 10002f54     ole32_ALL:MARSHAL.obj
 0001:00001f6c       ??_7CNdrStream@@6B@        10002f6c     ole32_ALL:STREAM.obj
 0001:00001fa4       ??_7CClientSecurity@@6B@   10002fa4     ole32_ALL:STDID.obj
 0001:00001fbc       ??_7IProxyManager@@6B@     10002fbc     ole32_ALL:STDID.obj
 0001:00001fd8       ??_7CInternalUnk@CStdIdentity@@6BIInternalUnknown@@@ 10002fd8     ole32_ALL:STDID.obj
 0001:00001fe8       ??_7CInternalUnk@CStdIdentity@@6BIMultiQI@@@ 10002fe8     ole32_ALL:STDID.obj
 0001:00001ff8       ??_7CStdIdentity@@6BIProxyManager@@@ 10002ff8     ole32_ALL:STDID.obj
 0001:00002014       ??_7CStdIdentity@@6BCStdMarshal@@@ 10003014     ole32_ALL:STDID.obj
 0001:00002038       ??_7CStdIdentity@@6BCClientSecurity@@@ 10003038     ole32_ALL:STDID.obj
 0001:00002050       ??_7CStdIdentity@@6BCRpcOptions@@@ 10003050     ole32_ALL:STDID.obj
 0001:00002064       ??_C@_1BA@NKNFBGEG@?$AAB?$AAi?$AAn?$AAd?$AAi?$AAn?$AAg?$AA?$AA@ 10003064     ole32_ALL:events.obj
 0001:00002074       ??_C@_1BA@PBFLOAMJ@?$AAM?$AAe?$AAt?$AAh?$AAo?$AAd?$AA?$CD?$AA?$AA@ 10003074     ole32_ALL:events.obj
 0001:00002084       ??_C@_17JACOGNJO@?$AAI?$AAI?$AAD?$AA?$AA@ 10003084     ole32_ALL:events.obj
 0001:0000208c       ??_C@_1M@PPLFKPBO@?$AAM?$AAO?$AAX?$AAI?$AAD?$AA?$AA@ 1000308c     ole32_ALL:events.obj
 0001:000020b8       ?CLSID_VSA_IEC@@3U_GUID@@B 100030b8     ole32_ALL:events.obj
 0001:000020c8       ?CLSID_VSA_IEC_TREATAS@@3U_GUID@@B 100030c8     ole32_ALL:events.obj
 0001:00002198       ??_7CDebugEventFire@@6B@   10003198     ole32_ALL:events.obj
 0001:000021bc       ??_7CDebugEventFireCF@@6B@ 100031bc     ole32_ALL:events.obj
 0001:000021d0       ??_7COle32DebugEventFire@@6B@ 100031d0     ole32_ALL:events.obj
 0001:000021f4       ??_C@_1BO@IABFIABG@?$AAC?$AAO?$AAM?$AA?5?$AAR?$AAu?$AAn?$AAt?$AAi?$AAm?$AAe?$AA?5?$AA?$CF?$AAd?$AA?$AA@ 100031f4     ole32_ALL:events.obj
 0001:00002214       ??_C@_1DK@BKDDEDIN@?$AAM?$AAS?$AAF?$AAT?$AA?4?$AAV?$AAS?$AAA?$AA?4?$AAI?$AAE?$AAC?$AA?4?$AAS?$AAT?$AAA?$AAT?$AAU?$AAS?$AA?4?$AA6?$AAc?$AA7?$AA3?$AA6?$AAd?$AAb?$AA0?$AA?$AA@ 10003214     ole32_ALL:events.obj
 0001:00002250       ??_C@_1DA@MGOLICEG@?$AAM?$AAS?$AAF?$AAT?$AA?4?$AAV?$AAS?$AAA?$AA?4?$AAC?$AAO?$AAM?$AA?4?$AAD?$AAI?$AAS?$AAA?$AAB?$AAL?$AAE?$AA?4?$AA?$CF?$AAd?$AA?$AA@ 10003250     ole32_ALL:events.obj
 0001:00002280       ??_7CNameHashTable@@6B@    10003280     ole32_ALL:HASH.obj
 0001:00002290       ??_C@_1CI@KHMEHCDC@?$AA?2?$AA?2?$AA?2?$AAT?$AAh?$AAr?$AAe?$AAa?$AAd?$AA?5?$AAt?$AAo?$AA?5?$AAt?$AAh?$AAr?$AAe?$AAa?$AAd?$AA?$AA@ 10003290     ole32_ALL:REMOTEU.obj
 0001:000022b8       ??_7CRemoteUnknown@@6B@    100032b8     ole32_ALL:REMOTEU.obj
 0001:000022d8       ??_C@_1BC@DKHOMMDK@?$AAP?$AAr?$AAo?$AAf?$AAi?$AAl?$AAe?$AA?2?$AA?$AA@ 100032d8     ole32_ALL:ORPC_DBG.obj
 0001:000022ec       ??_C@_13JGCMLPCH@?$AA1?$AA?$AA@ 100032ec     ole32_ALL:ORPC_DBG.obj
 0001:000022f0       ??_C@_1BC@IEHMNDKL@?$AAd?$AAr?$AAw?$AAt?$AAs?$AAn?$AA3?$AA2?$AA?$AA@ 100032f0     ole32_ALL:ORPC_DBG.obj
 0001:00002304       ??_C@_1BC@MLJJDKHA@?$AAD?$AAe?$AAb?$AAu?$AAg?$AAg?$AAe?$AAr?$AA?$AA@ 10003304     ole32_ALL:ORPC_DBG.obj
 0001:00002318       ??_7CMarshalImplPStream@@6B@ 10003318     ole32_ALL:CMARSHAL.obj
 0001:0000233c       ??_7CGIPTable@@6B@         1000333c     ole32_ALL:GIPTBL.obj
 0001:00002354       ??_7CGIPTableCF@@6B@       10003354     ole32_ALL:GIPTBL.obj
 0001:00002368       ??_C@_1BK@BKPKNBDK@?$AAR?$AAo?$AAt?$AAH?$AAi?$AAn?$AAt?$AAT?$AAa?$AAb?$AAl?$AAe?$AA?$AA@ 10003368     ole32_ALL:CROTHINT.obj
 0001:00002384       ??_C@_1CO@NFBNFHNM@?$AAO?$AAl?$AAe?$AAD?$AAf?$AAS?$AAh?$AAa?$AAr?$AAe?$AAd?$AAM?$AAe?$AAm?$AAo?$AAr?$AAy?$AAM?$AAu?$AAt?$AAe?$AAx?$AA?$AA@ 10003384     ole32_ALL:mem.obj
 0001:000023b4       ??_7CSmAllocator@@6B@      100033b4     ole32_ALL:mem.obj
 0001:000023d8       ??_C@_1BE@PLBDFGIG@?$AAD?$AAo?$AAc?$AAf?$AAi?$AAl?$AAe?$AA?$CF?$AAd?$AA?$AA@ 100033d8     ole32_ALL:filest32.obj
 0001:000023ec       ??_7CFileStream@@6BILockBytes@@@ 100033ec     ole32_ALL:filest32.obj
 0001:00002414       ??_7CFileStream@@6BIFileLockBytes@@@ 10003414     ole32_ALL:filest32.obj
 0001:00002434       ??_7IFileLockBytes@@6B@    10003434     ole32_ALL:filest.obj
 0001:0000246c       ??_7PRevertable@@6B@       1000346c     ole32_ALL:publicdf.obj
 0001:00002470       ??_7CPubDocFile@@6B@       10003470     ole32_ALL:publicdf.obj
 0001:00002480       ??_7PDocFile@@6B@          10003480     ole32_ALL:rpubdf.obj
 0001:000024d8       ??_7CDocFile@@6B@          100034d8     ole32_ALL:rpubdf.obj
 0001:00002530       ??_7CRootPubDocFile@@6B@   10003530     ole32_ALL:rpubdf.obj
 0001:00002548       ??_7CExposedDocFile@@6BIStorage@@@ 10003548     ole32_ALL:expdf.obj
 0001:00002590       ??_7CExposedDocFile@@6BIRootStorage@@@ 10003590     ole32_ALL:expdf.obj
 0001:00002f48       ??_7CFAccessControl@@6B@   10003f48     ole32_ALL:CACCCTRL.obj
 0001:00002f5c       ??_7COAccessControl@@6B@   10003f5c     ole32_ALL:CACCCTRL.obj
 0001:00002f68       ??_7IAccessControl@@6B@    10003f68     ole32_ALL:CACCCTRL.obj
 0001:00002f8c       ??_7CImpAccessControl@COAccessControl@@6BIPersistStream@@@ 10003f8c     ole32_ALL:CACCCTRL.obj
 0001:00002fac       ??_7CImpAccessControl@COAccessControl@@6BIAccessControl@@@ 10003fac     ole32_ALL:CACCCTRL.obj
 0001:00002fd0       ??_C@_13NOLLCAOD@?$AA?$AA?$AA?$AA@ 10003fd0     ole32_ALL:CACCCTRL.obj
 0001:00002fd4       ??_C@_13PJJBFPED@?$AA?$DL?$AA?$AA@ 10003fd4     ole32_ALL:CACCCTRL.obj
 0001:00002fd8       ??_C@_13EFKPHINO@?$AA?$EA?$AA?$AA@ 10003fd8     ole32_ALL:CACCCTRL.obj
 0001:00002fdc       ??_C@_13IMODFHAA@?$AA?9?$AA?$AA@ 10003fdc     ole32_ALL:CACCCTRL.obj
 0001:00002fe0       ??_7CComBinding@@6B@       10003fe0     ole32_ALL:binding.obj
 0001:00002ff4       ??_7CComBindingFac@@6B@    10003ff4     ole32_ALL:binding.obj
 0001:00003008       ??_C@_0BD@IKPINLFA@IClientSiteHandler?$AA@ 10004008     ole32_ALL:mega_p.obj
 0001:0000301c       ??_C@_0P@EAHOMPBH@IServerHandler?$AA@ 1000401c     ole32_ALL:mega_p.obj
 0001:0000302c       ??_C@_08FIGPBBEC@IROTData?$AA@ 1000402c     ole32_ALL:mega_p.obj
 0001:00003038       ??_C@_0BA@HPKMCANN@IProgressNotify?$AA@ 10004038     ole32_ALL:mega_p.obj
 0001:00003048       ??_C@_0BB@KBNBOBE@IEnumConnections?$AA@ 10004048     ole32_ALL:mega_p.obj
 0001:0000305c       ??_C@_0BB@FEIMFBPD@IConnectionPoint?$AA@ 1000405c     ole32_ALL:mega_p.obj
 0001:00003070       ??_C@_0BG@NEHBCIHM@IEnumConnectionPoints?$AA@ 10004070     ole32_ALL:mega_p.obj
 0001:00003088       ??_C@_0BK@BKCJCJEL@IConnectionPointContainer?$AA@ 10004088     ole32_ALL:mega_p.obj
 0001:000030a4       ??_C@_08CLADNJCG@IDLLHost?$AA@ 100040a4     ole32_ALL:mega_p.obj
 0001:000030b0       ??_C@_0BA@JLMKHAID@IClassActivator?$AA@ 100040b0     ole32_ALL:mega_p.obj
 0001:000030c0       ??_C@_0N@BLBBFJHA@IRemUnknown2?$AA@ 100040c0     ole32_ALL:mega_p.obj
 0001:000030d0       ??_C@_05CFKKFJOM@IDSCM?$AA@ 100040d0     ole32_ALL:mega_p.obj
 0001:000030d8       ??_C@_0BJ@EEFLANFC@IInterfaceFromWindowProp?$AA@ 100040d8     ole32_ALL:mega_p.obj
 0001:000030f4       ??_C@_08FFFNDFDE@IRundown?$AA@ 100040f4     ole32_ALL:mega_p.obj
 0001:00003100       ??_C@_0L@LBCFBDJG@IObjServer?$AA@ 10004100     ole32_ALL:mega_p.obj
 0001:0000310c       ??_C@_0M@NICLFKNF@IRemUnknown?$AA@ 1000410c     ole32_ALL:mega_p.obj
 0001:00003118       ??_C@_0BC@LIFMDHNC@ISequentialStream?$AA@ 10004118     ole32_ALL:mega_p.obj
 0001:0000312c       ??_C@_09NOFPOOAM@IContinue?$AA@ 1000412c     ole32_ALL:mega_p.obj
 0001:00003138       ??_C@_0BB@KEDGMPDK@IOleCacheControl?$AA@ 10004138     ole32_ALL:mega_p.obj
 0001:0000314c       ??_C@_0L@EBLHNFOL@IOleCache2?$AA@ 1000414c     ole32_ALL:mega_p.obj
 0001:00003158       ??_C@_0N@BCHCIBNL@IViewObject2?$AA@ 10004158     ole32_ALL:mega_p.obj
 0001:00003168       ??_C@_0BA@NCDHOGLA@IRunnableObject?$AA@ 10004168     ole32_ALL:mega_p.obj
 0001:00003178       ??_C@_0N@BNKNJEOP@IAdviseSink2?$AA@ 10004178     ole32_ALL:mega_p.obj
 0001:00003188       ??_C@_0M@KGNJIMKL@IDropTarget?$AA@ 10004188     ole32_ALL:mega_p.obj
 0001:00003194       ??_C@_0L@FOLAFMJN@ISurrogate?$AA@ 10004194     ole32_ALL:mega_p.obj
 0001:000031a0       ??_C@_09HLHINKCL@IOleCache?$AA@ 100041a0     ole32_ALL:mega_p.obj
 0001:000031ac       ??_C@_08JADIGPLD@IOleLink?$AA@ 100041ac     ole32_ALL:mega_p.obj
 0001:000031b8       ??_C@_0BC@OEBAJKJG@IOleItemContainer?$AA@ 100041b8     ole32_ALL:mega_p.obj
 0001:000031cc       ??_C@_0O@KDPKDOMP@IOleContainer?$AA@ 100041cc     ole32_ALL:mega_p.obj
 0001:000031dc       ??_C@_0BC@GDAJOKEB@IParseDisplayName?$AA@ 100041dc     ole32_ALL:mega_p.obj
 0001:000031f0       ??_C@_0BA@OLCEHNMI@IOleInPlaceSite?$AA@ 100041f0     ole32_ALL:mega_p.obj
 0001:00003200       ??_C@_0P@HCFPIDBD@IOleClientSite?$AA@ 10004200     ole32_ALL:mega_p.obj
 0001:00003210       ??_C@_0BI@PBOAFJOO@IOleInPlaceActiveObject?$AA@ 10004210     ole32_ALL:mega_p.obj
 0001:00003228       ??_C@_0BB@KACBDCLD@IOleInPlaceFrame?$AA@ 10004228     ole32_ALL:mega_p.obj
 0001:0000323c       ??_C@_0BE@JLKINFEO@IOleInPlaceUIWindow?$AA@ 1000423c     ole32_ALL:mega_p.obj
 0001:00003250       ??_C@_0L@MKKKKME@IOleWindow?$AA@ 10004250     ole32_ALL:mega_p.obj
 0001:0000325c       ??_C@_0BC@DJDMFNPC@IOleInPlaceObject?$AA@ 1000425c     ole32_ALL:mega_p.obj
 0001:00003270       ??_C@_0L@FNFHODKM@IOleObject?$AA@ 10004270     ole32_ALL:mega_p.obj
 0001:0000327c       ??_C@_0N@DLOKJFGL@IRootStorage?$AA@ 1000427c     ole32_ALL:mega_p.obj
 0001:0000328c       ??_C@_0P@BLKGPCHN@IFillLockBytes?$AA@ 1000428c     ole32_ALL:mega_p.obj
 0001:0000329c       ??_C@_0BE@DGJCAPAD@IRunningObjectTable?$AA@ 1000429c     ole32_ALL:mega_p.obj
 0001:000032b0       ??_C@_0M@NCFDNKJA@IAdviseSink?$AA@ 100042b0     ole32_ALL:mega_p.obj
 0001:000032bc       ??_C@_08LNEPKMJG@IMoniker?$AA@ 100042bc     ole32_ALL:mega_p.obj
 0001:000032c8       ??_C@_0M@OJJNIJLJ@IDataObject?$AA@ 100042c8     ole32_ALL:mega_p.obj
 0001:000032d4       ??_C@_08HNKCOJKN@IBindCtx?$AA@ 100042d4     ole32_ALL:mega_p.obj
 0001:000032e0       ??_C@_0M@NLPNKNJ@IViewObject?$AA@ 100042e0     ole32_ALL:mega_p.obj
 0001:000032ec       ??_C@_0N@NFCMABGO@IEnumSTATSTG?$AA@ 100042ec     ole32_ALL:mega_p.obj
 0001:000032fc       ??_C@_08EEDNCKCO@IPersist?$AA@ 100042fc     ole32_ALL:mega_p.obj
 0001:00003308       ??_C@_07DICNEFMO@IStream?$AA@ 10004308     ole32_ALL:mega_p.obj
 0001:00003310       ??_C@_0N@KGLEGOMK@IPersistFile?$AA@ 10004310     ole32_ALL:mega_p.obj
 0001:00003320       ??_C@_08EHBICBB@IStorage?$AA@ 10004320     ole32_ALL:mega_p.obj
 0001:0000332c       ??_C@_0BA@BLMEALNA@IPersistStorage?$AA@ 1000432c     ole32_ALL:mega_p.obj
 0001:0000333c       ??_C@_0L@PBPFECIJ@ILockBytes?$AA@ 1000433c     ole32_ALL:mega_p.obj
 0001:00003348       ??_C@_0P@FHCHOKBN@IPersistStream?$AA@ 10004348     ole32_ALL:mega_p.obj
 0001:00003358       ??_C@_0O@OINKOPAM@IEnumSTATDATA?$AA@ 10004358     ole32_ALL:mega_p.obj
 0001:00003368       ??_C@_0N@EHNAGGGB@IEnumOLEVERB?$AA@ 10004368     ole32_ALL:mega_p.obj
 0001:00003378       ??_C@_0P@DHOPCLPH@IEnumFORMATETC?$AA@ 10004378     ole32_ALL:mega_p.obj
 0001:00003388       ??_C@_0N@LDFIFFE@IEnumMoniker?$AA@ 10004388     ole32_ALL:mega_p.obj
 0001:00003398       ??_C@_0M@JPEMKKPO@IEnumString?$AA@ 10004398     ole32_ALL:mega_p.obj
 0001:000033a4       ??_C@_0O@CDHCPEAC@IClassFactory?$AA@ 100043a4     ole32_ALL:mega_p.obj
 0001:000033b4       ??_C@_0N@JGEGFEMJ@IEnumUnknown?$AA@ 100043b4     ole32_ALL:mega_p.obj
 0001:00006040       _IClassFactoryStubVtbl     10007040     ole32_ALL:mega_p.obj
 0001:000060c8       _IEnumUnknownStubVtbl      100070c8     ole32_ALL:mega_p.obj
 0001:00006174       _IBindCtxStubVtbl          10007174     ole32_ALL:mega_p.obj
 0001:000061fc       _IEnumMonikerStubVtbl      100071fc     ole32_ALL:mega_p.obj
 0001:0000628c       _IRunnableObjectStubVtbl   1000728c     ole32_ALL:mega_p.obj
 0001:0000630c       _IRunningObjectTableStubVtbl 1000730c     ole32_ALL:mega_p.obj
 0001:00006380       _IPersistStubVtbl          10007380     ole32_ALL:mega_p.obj
 0001:000063fc       _IPersistStreamStubVtbl    100073fc     ole32_ALL:mega_p.obj
 0001:000064e8       _IMonikerStubVtbl          100074e8     ole32_ALL:mega_p.obj
 0001:00006558       _IROTDataStubVtbl          10007558     ole32_ALL:mega_p.obj
 0001:000065e0       _IEnumStringStubVtbl       100075e0     ole32_ALL:mega_p.obj
 0001:0000665c       _ISequentialStreamStubVtbl 1000765c     ole32_ALL:mega_p.obj
 0001:00006710       _IStreamStubVtbl           10007710     ole32_ALL:mega_p.obj
 0001:00006798       _IEnumSTATSTGStubVtbl      10007798     ole32_ALL:mega_p.obj
 0001:00006864       _IStorageStubVtbl          10007864     ole32_ALL:mega_p.obj
 0001:000068e0       _IPersistFileStubVtbl      100078e0     ole32_ALL:mega_p.obj
 0001:00006960       _IPersistStorageStubVtbl   10007960     ole32_ALL:mega_p.obj
 0001:000069fc       _ILockBytesStubVtbl        100079fc     ole32_ALL:mega_p.obj
 0001:00006a84       _IEnumFORMATETCStubVtbl    10007a84     ole32_ALL:mega_p.obj
 0001:00006b0c       _IEnumSTATDATAStubVtbl     10007b0c     ole32_ALL:mega_p.obj
 0001:00006b80       _IRootStorageStubVtbl      10007b80     ole32_ALL:mega_p.obj
 0001:00006bfc       _IAdviseSinkStubVtbl       10007bfc     ole32_ALL:mega_p.obj
 0001:00006c78       _IAdviseSink2StubVtbl      10007c78     ole32_ALL:mega_p.obj
 0001:00006d20       _IDataObjectStubVtbl       10007d20     ole32_ALL:mega_p.obj
 0001:00006d9c       _IConnectionPointStubVtbl  10007d9c     ole32_ALL:mega_p.obj
 0001:00006e10       _IConnectionPointContainerStubVtbl 10007e10     ole32_ALL:mega_p.obj
 0001:00006e98       _IEnumConnectionsStubVtbl  10007e98     ole32_ALL:mega_p.obj
 0001:00006f20       _IEnumConnectionPointsStubVtbl 10007f20     ole32_ALL:mega_p.obj
 0001:00006f94       _IClassActivatorStubVtbl   10007f94     ole32_ALL:mega_p.obj
 0001:0000701c       _IFillLockBytesStubVtbl    1000801c     ole32_ALL:mega_p.obj
 0001:00007090       _IProgressNotifyStubVtbl   10008090     ole32_ALL:mega_p.obj
 0001:00007104       _ISurrogateStubVtbl        10008104     ole32_ALL:mega_p.obj
 0001:00007180       _IOleCacheStubVtbl         10008180     ole32_ALL:mega_p.obj
 0001:0000721c       _IOleCache2StubVtbl        1000821c     ole32_ALL:mega_p.obj
 0001:00007290       _IOleCacheControlStubVtbl  10008290     ole32_ALL:mega_p.obj
 0001:00007304       _IParseDisplayNameStubVtbl 10008304     ole32_ALL:mega_p.obj
 0001:0000737c       _IOleContainerStubVtbl     1000837c     ole32_ALL:mega_p.obj
 0001:000073f8       _IOleClientSiteStubVtbl    100083f8     ole32_ALL:mega_p.obj
 0001:00007494       _IOleObjectStubVtbl        10008494     ole32_ALL:mega_p.obj
 0001:00007508       _IOleWindowStubVtbl        10008508     ole32_ALL:mega_p.obj
 0001:00007590       _IOleLinkStubVtbl          10008590     ole32_ALL:mega_p.obj
 0001:00007624       _IOleItemContainerStubVtbl 10008624     ole32_ALL:mega_p.obj
 0001:000076a0       _IOleInPlaceUIWindowStubVtbl 100086a0     ole32_ALL:mega_p.obj
 0001:0000773c       _IOleInPlaceActiveObjectStubVtbl 1000873c     ole32_ALL:mega_p.obj
 0001:000077c4       _IOleInPlaceFrameStubVtbl  100087c4     ole32_ALL:mega_p.obj
 0001:00007840       _IOleInPlaceObjectStubVtbl 10008840     ole32_ALL:mega_p.obj
 0001:000078c8       _IOleInPlaceSiteStubVtbl   100088c8     ole32_ALL:mega_p.obj
 0001:0000793c       _IContinueStubVtbl         1000893c     ole32_ALL:mega_p.obj
 0001:000079d0       _IViewObjectStubVtbl       100089d0     ole32_ALL:mega_p.obj
 0001:00007a6c       _IViewObject2StubVtbl      10008a6c     ole32_ALL:mega_p.obj
 0001:00007ae4       _IDropTargetStubVtbl       10008ae4     ole32_ALL:mega_p.obj
 0001:00007b6c       _IEnumOLEVERBStubVtbl      10008b6c     ole32_ALL:mega_p.obj
 0001:00007be4       _IServerHandlerStubVtbl    10008be4     ole32_ALL:mega_p.obj
 0001:00007ce8       _IClientSiteHandlerStubVtbl 10008ce8     ole32_ALL:mega_p.obj
 0001:00007d60       _IRemUnknownStubVtbl       10008d60     ole32_ALL:mega_p.obj
 0001:00007dd8       _IObjServerStubVtbl        10008dd8     ole32_ALL:mega_p.obj
 0001:00007e50       _IDSCMStubVtbl             10008e50     ole32_ALL:mega_p.obj
 0001:00007ec0       _IInterfaceFromWindowPropStubVtbl 10008ec0     ole32_ALL:mega_p.obj
 0001:00007f38       _IRemUnknown2StubVtbl      10008f38     ole32_ALL:mega_p.obj
 0001:00007fb4       _IRundownStubVtbl          10008fb4     ole32_ALL:mega_p.obj
 0001:00008028       _IDLLHostStubVtbl          10009028     ole32_ALL:mega_p.obj
 0001:00008060       _MEGA_ProxyVtblList        10009060     ole32_ALL:mega_p.obj
 0001:00008158       _MEGA_StubVtblList         10009158     ole32_ALL:mega_p.obj
 0001:00008250       _MEGA_InterfaceNamesList   10009250     ole32_ALL:mega_p.obj
 0001:00008348       MEGA_ProxyFileInfo         10009348     ole32_ALL:mega_p.obj
 0001:000083d0       ??_C@_1O@KGBLGLJG@?$AAS?$AAi?$AAn?$AAg?$AAl?$AAe?$AA?$AA@ 100093d0     ole32_ALL:OLESCM.obj
 0001:0000852c       ??_C@_1BG@FOAHFCPJ@?$AAn?$AAc?$AAa?$AAc?$AAn?$AA_?$AAh?$AAt?$AAt?$AAp?$AA?$AA@ 1000952c     ole32_ALL:TASK.obj
 0001:00008544       ??_C@_1BC@JENJMPCI@?$AAn?$AAc?$AAa?$AAd?$AAg?$AA_?$AAm?$AAq?$AA?$AA@ 10009544     ole32_ALL:TASK.obj
 0001:00008558       ??_C@_1BM@HBJHELEH@?$AAn?$AAc?$AAa?$AAc?$AAn?$AA_?$AAv?$AAn?$AAs?$AA_?$AAs?$AAp?$AAp?$AA?$AA@ 10009558     ole32_ALL:TASK.obj
 0001:00008574       ??_C@_1BK@FHMDCCNP@?$AAn?$AAc?$AAa?$AAd?$AAg?$AA_?$AAa?$AAt?$AA_?$AAd?$AAd?$AAp?$AA?$AA@ 10009574     ole32_ALL:TASK.obj
 0001:00008590       ??_C@_1BK@FAFHKOIC@?$AAn?$AAc?$AAa?$AAc?$AAn?$AA_?$AAa?$AAt?$AA_?$AAd?$AAs?$AAp?$AA?$AA@ 10009590     ole32_ALL:TASK.obj
 0001:000085ac       ??_C@_1BI@IJHJECAH@?$AAn?$AAc?$AAa?$AAc?$AAn?$AA_?$AAn?$AAb?$AA_?$AAn?$AAb?$AA?$AA@ 100095ac     ole32_ALL:TASK.obj
 0001:000085c4       ??_C@_1BC@CCHMBIKG@?$AAn?$AAc?$AAa?$AAc?$AAn?$AA_?$AAn?$AAp?$AA?$AA@ 100095c4     ole32_ALL:TASK.obj
 0001:000085d8       ??_C@_1BE@LHBLLAHO@?$AAn?$AAc?$AAa?$AAd?$AAg?$AA_?$AAi?$AAp?$AAx?$AA?$AA@ 100095d8     ole32_ALL:TASK.obj
 0001:000085ec       ??_C@_1BK@DNMDBNPI@?$AAn?$AAc?$AAa?$AAc?$AAn?$AA_?$AAn?$AAb?$AA_?$AAi?$AAp?$AAx?$AA?$AA@ 100095ec     ole32_ALL:TASK.obj
 0001:00008608       ??_C@_1BE@KCAEANMM@?$AAn?$AAc?$AAa?$AAc?$AAn?$AA_?$AAs?$AAp?$AAx?$AA?$AA@ 10009608     ole32_ALL:TASK.obj
 0001:0000861c       ??_C@_1BK@JKILGBNI@?$AAn?$AAc?$AAa?$AAc?$AAn?$AA_?$AAn?$AAb?$AA_?$AAt?$AAc?$AAp?$AA?$AA@ 1000961c     ole32_ALL:TASK.obj
 0001:00008638       ??_C@_1BK@NHINDGCD@?$AAn?$AAc?$AAa?$AAd?$AAg?$AA_?$AAi?$AAp?$AA_?$AAu?$AAd?$AAp?$AA?$AA@ 10009638     ole32_ALL:TASK.obj
 0001:00008654       ??_C@_1BK@BPGFLIHL@?$AAn?$AAc?$AAa?$AAc?$AAn?$AA_?$AAi?$AAp?$AA_?$AAt?$AAc?$AAp?$AA?$AA@ 10009654     ole32_ALL:TASK.obj
 0001:00008670       ??_C@_1BO@MCKJABEH@?$AAn?$AAc?$AAa?$AAc?$AAn?$AA_?$AAd?$AAn?$AAe?$AAt?$AA_?$AAd?$AAs?$AAp?$AA?$AA@ 10009670     ole32_ALL:TASK.obj
 0001:00008690       ??_C@_1M@OJOGONPH@?$AAA?$AAp?$AAp?$AAI?$AAd?$AA?$AA@ 10009690     ole32_ALL:TASK.obj
 0001:0000869c       ??_7CRpcOptions@@6B@       1000969c     ole32_ALL:rpcopt.obj
 0001:000086b0       ?wcsContents@@3QBGB        100096b0     ole32_ALL:mstream.obj
 0001:000086c4       ?_aReserveSize@CDFBasis@@0QBIB 100096c4     ole32_ALL:dfbasis.obj
 0001:000086d4       ??_7PTSetMember@@6B@       100096d4     ole32_ALL:wdocfile.obj
 0001:000086f0       ??_7CWrappedDocFile@@6BPDocFile@@@ 100096f0     ole32_ALL:wdocfile.obj
 0001:00008748       ??_7CWrappedDocFile@@6BPTSetMember@@@ 10009748     ole32_ALL:wdocfile.obj
 0001:00008760       ??_7CPubStream@@6B@        10009760     ole32_ALL:pbstream.obj
 0001:00008764       ??_7CExposedStream@@6B@    10009764     ole32_ALL:expst.obj
 0001:0000879c       ??_7CExposedIterator@@6B@  1000979c     ole32_ALL:expiter.obj
 0001:000087b8       ??_C@_1BG@IBAKKNMO@?$AAR?$AAo?$AAo?$AAt?$AA?5?$AAE?$AAn?$AAt?$AAr?$AAy?$AA?$AA@ 100097b8     ole32_ALL:dir.obj
 0001:000087d0       ??_7PSStream@@6B@          100097d0     ole32_ALL:sstream.obj
 0001:000087f4       ??_7CDirectStream@@6B@     100097f4     ole32_ALL:sstream.obj
 0001:00008818       ??_7CTransactedStream@@6BPSStream@@@ 10009818     ole32_ALL:tstream.obj
 0001:0000883c       ??_7CTransactedStream@@6BPTSetMember@@@ 1000983c     ole32_ALL:tstream.obj
 0001:00008878       ?IsWOWThreadCallable@@YAHXZ 10009878 f i ole32_ALL:COMPOBJ.obj
 0001:000088b0       ??0COleTls@@QAA@AAJ@Z      100098b0 f i ole32_ALL:COMPOBJ.obj
 0001:000088f8       ??_GCOleStaticMutexSem@@UAAPAXI@Z 100098f8 f i ole32_ALL:COMPOBJ.obj
 0001:000088f8       ??_ECOleStaticMutexSem@@UAAPAXI@Z 100098f8 f i ole32_ALL:COMPOBJ.obj
 0001:0000891c       DllGetClassObject          1000991c f   ole32_ALL:COMPOBJ.obj
 0001:00008960       ?ApartmentUninitialize@@YAHXZ 10009960 f   ole32_ALL:COMPOBJ.obj
 0001:000089d4       ?IsWindowsMobile@@YAHXZ    100099d4 f   ole32_ALL:COMPOBJ.obj
 0001:00008a48       CoGetCurrentProcess        10009a48 f   ole32_ALL:COMPOBJ.obj
 0001:00008a98       CoBuildVersion             10009a98 f   ole32_ALL:COMPOBJ.obj
 0001:00008aa4       CoSetState                 10009aa4 f   ole32_ALL:COMPOBJ.obj
 0001:00008bbc       CoGetState                 10009bbc f   ole32_ALL:COMPOBJ.obj
 0001:00008c24       CoQueryReleaseObject       10009c24 f   ole32_ALL:COMPOBJ.obj
 0001:00008c98       ?ProcessUninitialize@@YAXXZ 10009c98 f   ole32_ALL:COMPOBJ.obj
 0001:00008d44       ?wCoInitializeEx@@YAJAAVCOleTls@@K@Z 10009d44 f   ole32_ALL:COMPOBJ.obj
 0001:00008e30       ?wCoUninitialize@@YAXAAVCOleTls@@H@Z 10009e30 f   ole32_ALL:COMPOBJ.obj
 0001:00008f7c       DllMain                    10009f7c f   ole32_ALL:COMPOBJ.obj
 0001:00009044       CoInitializeEx             1000a044 f   ole32_ALL:COMPOBJ.obj
 0001:0000914c       CoUninitialize             1000a14c f   ole32_ALL:COMPOBJ.obj
 0001:000091d4       ?IsApartmentInitialized@@YAHXZ 1000a1d4 f   ole32_ALL:COMPOBJ.obj
 0001:000093a4       CoInitialize               1000a3a4 f   ole32_ALL:COMPOBJ.obj
 0001:000093c8       GetFullPathName            1000a3c8 f i ole32_ALL:CMONIMP.obj
 0001:00009444       ?DupWCHARString@@YAJPBGAAPAGAAG@Z 1000a444 f   ole32_ALL:CMONIMP.obj
 0001:000094d8       CreateItemMoniker          1000a4d8 f   ole32_ALL:CMONIMP.obj
 0001:0000956c       ?IsAbsolutePath@@YAHPBG@Z  1000a56c f   ole32_ALL:CMONIMP.obj
 0001:000095a8       ?IsAbsoluteNonUNCPath@@YAHPBG@Z 1000a5a8 f   ole32_ALL:CMONIMP.obj
 0001:000095e4       ?FindUNCEndServer@@YAXPBGPAG@Z 1000a5e4 f   ole32_ALL:CMONIMP.obj
 0001:00009688       ?ExpandUNCName@@YAJPAGPAPAG0@Z 1000a688 f   ole32_ALL:CMONIMP.obj
 0001:00009830       CreateFileMoniker          1000a830 f   ole32_ALL:CMONIMP.obj
 0001:00009a3c       ?CreateOle1FileMoniker@@YAJPAGABU_GUID@@PAPAUIMoniker@@@Z 1000aa3c f   ole32_ALL:CMONIMP.obj
 0001:00009aa8       CreateAntiMoniker          1000aaa8 f   ole32_ALL:CMONIMP.obj
 0001:00009aec       CreateBindCtx              1000aaec f   ole32_ALL:CMONIMP.obj
 0001:00009b3c       CreatePointerMoniker       1000ab3c f   ole32_ALL:CMONIMP.obj
 0001:00009ba8       CreateObjrefMoniker        1000aba8 f   ole32_ALL:CMONIMP.obj
 0001:00009c1c       OleLoadFromStream          1000ac1c f   ole32_ALL:CMONIMP.obj
 0001:00009d50       OleSaveToStream            1000ad50 f   ole32_ALL:CMONIMP.obj
 0001:00009e08       Parse10DisplayName         1000ae08 f   ole32_ALL:CMONIMP.obj
 0001:00009fa4       FindProgIdMoniker          1000afa4 f   ole32_ALL:CMONIMP.obj
 0001:0000a18c       BindMoniker                1000b18c f   ole32_ALL:CMONIMP.obj
 0001:0000a250       FindClassID                1000b250 f   ole32_ALL:CMONIMP.obj
 0001:0000a348       FindClassMoniker           1000b348 f   ole32_ALL:CMONIMP.obj
 0001:0000a448       ?RunningMoniker@@YAHPAUIBindCtx@@PAGGPAKPAPAUIMoniker@@@Z 1000b448 f   ole32_ALL:CMONIMP.obj
 0001:0000a590       ?FindMaximalFileMoniker@@YAJPAGGPAKPAPAUIMoniker@@@Z 1000b590 f   ole32_ALL:CMONIMP.obj
 0001:0000a690       FindFileMoniker            1000b690 f   ole32_ALL:CMONIMP.obj
 0001:0000a75c       MkParseDisplayName         1000b75c f   ole32_ALL:CMONIMP.obj
 0001:0000a974       CoGetObject                1000b974 f   ole32_ALL:CMONIMP.obj
 0001:0000aab8       RegQueryValue              1000bab8 f i ole32_ALL:COMPAPI.obj
 0001:0000ab4c       RegSetValue                1000bb4c f i ole32_ALL:COMPAPI.obj
 0001:0000ac04       ?wCoGetCallerTID@@YAJPAK@Z 1000bc04 f i ole32_ALL:COMPAPI.obj
 0001:0000ac54       ?wCoGetCurrentLogicalThreadId@@YAJPAU_GUID@@@Z 1000bc54 f i ole32_ALL:COMPAPI.obj
 0001:0000ac9c       CoMarshalHresult           1000bc9c f   ole32_ALL:COMPAPI.obj
 0001:0000acf0       CoUnmarshalHresult         1000bcf0 f   ole32_ALL:COMPAPI.obj
 0001:0000ad64       CoGetCallerTID             1000bd64 f   ole32_ALL:COMPAPI.obj
 0001:0000ad90       CoGetCurrentLogicalThreadId 1000bd90 f   ole32_ALL:COMPAPI.obj
 0001:0000adbc       StringFromGUID2            1000bdbc f   ole32_ALL:COMPAPI.obj
 0001:0000ae20       CoIsOle1Class              1000be20 f   ole32_ALL:COMPAPI.obj
 0001:0000ae28       ?wCoGetClassExt@@YAJPBGPAU_GUID@@@Z 1000be28 f   ole32_ALL:COMPAPI.obj
 0001:0000aed0       ?wCoCreateInstance@@YAJABU_GUID@@PAUIUnknown@@K0PAPAX@Z 1000bed0 f   ole32_ALL:COMPAPI.obj
 0001:0000af14       ?wCoMarshalInterThreadInterfaceInStream@@YAJABU_GUID@@PAUIUnknown@@PAPAUIStream@@@Z 1000bf14 f   ole32_ALL:COMPAPI.obj
 0001:0000b070       ?wUUIDFromString@@YAHPBGPAU_GUID@@@Z 1000c070 f   ole32_ALL:COMPAPI.obj
 0001:0000b21c       ?wGUIDFromString@@YAHPBGPAU_GUID@@@Z 1000c21c f   ole32_ALL:COMPAPI.obj
 0001:0000b270       ?wStringFromCLSID@@YAJABU_GUID@@PAPAG@Z 1000c270 f   ole32_ALL:COMPAPI.obj
 0001:0000b2d0       ?wStringFromIID@@YAJABU_GUID@@PAPAG@Z 1000c2d0 f   ole32_ALL:COMPAPI.obj
 0001:0000b33c       ?wIIDFromString@@YAJPAGPAU_GUID@@@Z 1000c33c f   ole32_ALL:COMPAPI.obj
 0001:0000b398       ?wRegQueryClassValue@@YAJABU_GUID@@PBGPAGH@Z 1000c398 f   ole32_ALL:COMPAPI.obj
 0001:0000b434       ?wCoOpenClassKey@@YAJABU_GUID@@HPAPAUHKEY__@@@Z 1000c434 f   ole32_ALL:COMPAPI.obj
 0001:0000b520       GUIDFromString             1000c520 f   ole32_ALL:COMPAPI.obj
 0001:0000b57c       StringFromCLSID            1000c57c f   ole32_ALL:COMPAPI.obj
 0001:0000b5cc       StringFromIID              1000c5cc f   ole32_ALL:COMPAPI.obj
 0001:0000b61c       IIDFromString              1000c61c f   ole32_ALL:COMPAPI.obj
 0001:0000b68c       CoCreateInstance           1000c68c f   ole32_ALL:COMPAPI.obj
 0001:0000b738       CoMarshalInterThreadInterfaceInStream 1000c738 f   ole32_ALL:COMPAPI.obj
 0001:0000b7a0       CoGetInterfaceAndReleaseStream 1000c7a0 f   ole32_ALL:COMPAPI.obj
 0001:0000b828       ?wCLSIDFromString@@YAJPAGPAU_GUID@@@Z 1000c828 f   ole32_ALL:COMPAPI.obj
 0001:0000b8a4       ?wCLSIDFromOle1Class@@YAJPBGPAU_GUID@@H@Z 1000c8a4 f   ole32_ALL:COMPAPI.obj
 0001:0000b98c       ?wCoGetTreatAsClass@@YAJABU_GUID@@PAU1@@Z 1000c98c f   ole32_ALL:COMPAPI.obj
 0001:0000baa8       ?wRegQueryPSClsid@@YAJABU_GUID@@PAU1@@Z 1000caa8 f   ole32_ALL:COMPAPI.obj
 0001:0000bc58       ?wRegGetClassExt@@YAJPBGPAU_GUID@@@Z 1000cc58 f   ole32_ALL:COMPAPI.obj
 0001:0000bd08       ?wCoGetClassPattern@@YAJPAXPAU_GUID@@@Z 1000cd08 f   ole32_ALL:COMPAPI.obj
 0001:0000be20       ?wkProgIDFromCLSID@@YAJABU_GUID@@PAPAG@Z 1000ce20 f   ole32_ALL:COMPAPI.obj
 0001:0000bed4       CLSIDFromString            1000ced4 f   ole32_ALL:COMPAPI.obj
 0001:0000bf24       CLSIDFromOle1Class         1000cf24 f   ole32_ALL:COMPAPI.obj
 0001:0000bfc0       ProgIDFromCLSID            1000cfc0 f   ole32_ALL:COMPAPI.obj
 0001:0000c010       CLSIDFromProgID            1000d010 f   ole32_ALL:COMPAPI.obj
 0001:0000c018       CoGetTreatAsClass          1000d018 f   ole32_ALL:COMPAPI.obj
 0001:0000c070       ?wCoTreatAsClass@@YAJABU_GUID@@0@Z 1000d070 f   ole32_ALL:COMPAPI.obj
 0001:0000c1f4       CoTreatAsClass             1000d1f4 f   ole32_ALL:COMPAPI.obj
 0001:0000c24c       ?InitializeISurrogate@CCOMSurrogate@@SAJPAUISurrogate@@@Z 1000d24c f i ole32_ALL:SOBJACT.obj
 0001:0000c2a0       CoRevokeClassObject        1000d2a0 f   ole32_ALL:SOBJACT.obj
 0001:0000c2d8       CoAddRefServerProcess      1000d2d8 f   ole32_ALL:SOBJACT.obj
 0001:0000c2e4       CoReleaseServerProcess     1000d2e4 f   ole32_ALL:SOBJACT.obj
 0001:0000c2f0       CoSuspendClassObjects      1000d2f0 f   ole32_ALL:SOBJACT.obj
 0001:0000c2fc       CoResumeClassObjects       1000d2fc f   ole32_ALL:SOBJACT.obj
 0001:0000c308       ?AddRef@CObjServer@@UAAKXZ 1000d308 f   ole32_ALL:SOBJACT.obj
 0001:0000c310       ?Release@CObjServer@@UAAKXZ 1000d310 f   ole32_ALL:SOBJACT.obj
 0001:0000c318       ?QueryInterface@CObjServer@@UAAJABU_GUID@@PAPAX@Z 1000d318 f   ole32_ALL:SOBJACT.obj
 0001:0000c38c       ?ObjectServerGetClassObject@CObjServer@@UAAJKPBU_GUID@@PAU2@PAPAUtagMInterfacePointer@@PAK@Z 1000d38c f   ole32_ALL:SOBJACT.obj
 0001:0000c43c       ?ObjectServerCreateInstance@CObjServer@@UAAJKPBU_GUID@@KPAU2@PAPAUtagMInterfacePointer@@PAJPAK@Z 1000d43c f   ole32_ALL:SOBJACT.obj
 0001:0000c528       ?NotifyActivation@@YAHHPAUIUnknown@@@Z 1000d528 f   ole32_ALL:SOBJACT.obj
 0001:0000c5a0       CoRegisterSurrogate        1000d5a0 f   ole32_ALL:SOBJACT.obj
 0001:0000c5e0       ?LoadDllServer@CCOMSurrogate@@SAJABU_GUID@@@Z 1000d5e0 f i ole32_ALL:SOBJACT.obj
 0001:0000c63c       ??0CObjServer@@QAA@AAJ@Z   1000d63c f   ole32_ALL:SOBJACT.obj
 0001:0000c6c0       ??1CObjServer@@QAA@XZ      1000d6c0 f   ole32_ALL:SOBJACT.obj
 0001:0000c72c       ?ObjectServerLoadDll@CObjServer@@UAAJPBU_GUID@@PAK@Z 1000d72c f   ole32_ALL:SOBJACT.obj
 0001:0000c73c       ??0CXmitRpcStream@@QAA@PAUtagInterfaceData@@@Z 1000d73c f i ole32_ALL:SOBJACT.obj
 0001:0000c780       ObjactThreadUninitialize   1000d780 f   ole32_ALL:SOBJACT.obj
 0001:0000c7e4       ??0CXmitRpcStream@@QAA@XZ  1000d7e4 f i ole32_ALL:SOBJACT.obj
 0001:0000c83c       CoRegisterClassObject      1000d83c f   ole32_ALL:SOBJACT.obj
 0001:0000c9ec       ?ObjectServerGetInstance@CObjServer@@UAAJKPBU_GUID@@KPAGPAUtagMInterfacePointer@@KPAU2@2PAPAU3@PAJPAK@Z 1000d9ec f   ole32_ALL:SOBJACT.obj
 0001:0000cc5c       ?ResumeImpersonate@@YAXPAUIUnknown@@HPAX@Z 1000dc5c f i ole32_ALL:SECURITY.obj
 0001:0000ccbc       ?SuspendImpersonate@@YAXPAUIUnknown@@PAHPAPAX@Z 1000dcbc f i ole32_ALL:SECURITY.obj
 0001:0000cd40       CoCopyProxy                1000dd40 f   ole32_ALL:SECURITY.obj
 0001:0000cdc8       CoQueryProxyBlanket        1000ddc8 f   ole32_ALL:SECURITY.obj
 0001:0000ce64       CoSetProxyBlanket          1000de64 f   ole32_ALL:SECURITY.obj
 0001:0000cf00       CoSwitchCallContext        1000df00 f   ole32_ALL:SECURITY.obj
 0001:0000cf3c       ?AddRef@CServerSecurity@@UAAKXZ 1000df3c f   ole32_ALL:SECURITY.obj
 0001:0000cf54       ??0CServerSecurity@@QAA@PAVCChannelCallInfo@@@Z 1000df54 f   ole32_ALL:SECURITY.obj
 0001:0000cf9c       ?EndCall@CServerSecurity@@QAAXXZ 1000df9c f   ole32_ALL:SECURITY.obj
 0001:0000cfcc       ?ImpersonateClient@CServerSecurity@@UAAJXZ 1000dfcc f   ole32_ALL:SECURITY.obj
 0001:0000cfd8       ?IsImpersonating@CServerSecurity@@UAAHXZ 1000dfd8 f   ole32_ALL:SECURITY.obj
 0001:0000cfe0       ?QueryBlanket@CServerSecurity@@UAAJPAK0PAPAG00PAPAX0@Z 1000dfe0 f   ole32_ALL:SECURITY.obj
 0001:0000d104       ?QueryInterface@CServerSecurity@@UAAJABU_GUID@@PAPAX@Z 1000e104 f   ole32_ALL:SECURITY.obj
 0001:0000d178       ?RevertToSelf@CServerSecurity@@UAAJXZ 1000e178 f   ole32_ALL:SECURITY.obj
 0001:0000d180       ?FixupAccessControl@@YAJPAPAU_SECURITY_DESCRIPTOR@@K@Z 1000e180 f   ole32_ALL:SECURITY.obj
 0001:0000d288       ?GetRegistryAuthnLevel@@YAXPAUHKEY__@@PAK@Z 1000e288 f   ole32_ALL:SECURITY.obj
 0001:0000d304       ?GetRegistrySecDesc@@YAJPAUHKEY__@@PAGPAPAU_SECURITY_DESCRIPTOR@@PAKPAH@Z 1000e304 f   ole32_ALL:SECURITY.obj
 0001:0000d4c8       ?IsCallerLocalSystem@@YAHXZ 1000e4c8 f   ole32_ALL:SECURITY.obj
 0001:0000d4d0       ?IsLocalAuthnService@@YAHG@Z 1000e4d0 f   ole32_ALL:SECURITY.obj
 0001:0000d51c       ?LookupPrincName@@YAJPAGKPAPAG@Z 1000e51c f   ole32_ALL:SECURITY.obj
 0001:0000d594       ?MakeSecDesc@@YAJPAPAU_SECURITY_DESCRIPTOR@@PAK@Z 1000e594 f   ole32_ALL:SECURITY.obj
 0001:0000d714       ?RegisterAuthnServices@@YAJKPAUtagSOLE_AUTHENTICATION_SERVICE@@@Z 1000e714 f   ole32_ALL:SECURITY.obj
 0001:0000d8ac       ?SetAuthnService@@YAJPAXPAUtagOXID_INFO@@PAUtagOXIDEntry@@@Z 1000e8ac f   ole32_ALL:SECURITY.obj
 0001:0000da28       ?SetLocalToken@@YAKPAX@Z   1000ea28 f   ole32_ALL:SECURITY.obj
 0001:0000da30       ?UninitializeSecurity@@YAXXZ 1000ea30 f   ole32_ALL:SECURITY.obj
 0001:0000dae4       ?GetHandle@CRpcChannelBuffer@@QAAJPAPAX@Z 1000eae4 f i ole32_ALL:SECURITY.obj
 0001:0000db24       ?CopyProxy@CClientSecurity@@UAAJPAUIUnknown@@PAPAU2@@Z 1000eb24 f   ole32_ALL:SECURITY.obj
 0001:0000db68       ?QueryBlanket@CClientSecurity@@UAAJPAUIUnknown@@PAK1PAPAG11PAPAX1@Z 1000eb68 f   ole32_ALL:SECURITY.obj
 0001:0000de48       ?SetBlanket@CClientSecurity@@UAAJPAUIUnknown@@KKPAGKKPAXK@Z 1000ee48 f   ole32_ALL:SECURITY.obj
 0001:0000e1e8       CoGetCallContext           1000f1e8 f   ole32_ALL:SECURITY.obj
 0001:0000e258       CoImpersonateClient        1000f258 f   ole32_ALL:SECURITY.obj
 0001:0000e2ac       CoQueryAuthenticationServices 1000f2ac f   ole32_ALL:SECURITY.obj
 0001:0000e49c       CoQueryClientBlanket       1000f49c f   ole32_ALL:SECURITY.obj
 0001:0000e528       CoRevertToSelf             1000f528 f   ole32_ALL:SECURITY.obj
 0001:0000e57c       ?Release@CServerSecurity@@UAAKXZ 1000f57c f   ole32_ALL:SECURITY.obj
 0001:0000e5b8       ?DefaultAuthnServices@@YAJXZ 1000f5b8 f   ole32_ALL:SECURITY.obj
 0001:0000e7d4       ?GetLegacyBlanket@@YAJPAPAU_SECURITY_DESCRIPTOR@@PAK1@Z 1000f7d4 f   ole32_ALL:SECURITY.obj
 0001:0000eb18       ?CheckAccessControl@@YAJPAX0@Z 1000fb18 f   ole32_ALL:SECURITY.obj
 0001:0000ec7c       CoInitializeSecurity       1000fc7c f   ole32_ALL:SECURITY.obj
 0001:0000f048       ?InitializeSecurity@@YAJXZ 10010048 f   ole32_ALL:SECURITY.obj
 0001:0000f0b8       ?CheckObjactAccess@@YAHXZ  100100b8 f   ole32_ALL:SECURITY.obj
 0001:0000f100       ?QueryInterface@CFmCtrlUnknown@@EAAJABU_GUID@@PAPAX@Z 10010100 f   ole32_ALL:IPMRSHL.obj
 0001:0000f194       ?AddRef@CFmCtrlUnknown@@EAAKXZ 10010194 f   ole32_ALL:IPMRSHL.obj
 0001:0000f1ac       ?QueryInterface@CFreeMarshaler@@UAAJABU_GUID@@PAPAX@Z 100101ac f   ole32_ALL:IPMRSHL.obj
 0001:0000f1c4       ?AddRef@CFreeMarshaler@@UAAKXZ 100101c4 f   ole32_ALL:IPMRSHL.obj
 0001:0000f1dc       ?Release@CFreeMarshaler@@UAAKXZ 100101dc f   ole32_ALL:IPMRSHL.obj
 0001:0000f1f4       ?GetUnmarshalClass@CFreeMarshaler@@UAAJABU_GUID@@PAXK1KPAU2@@Z 100101f4 f   ole32_ALL:IPMRSHL.obj
 0001:0000f2b4       ?GetMarshalSizeMax@CFreeMarshaler@@UAAJABU_GUID@@PAXK1KPAK@Z 100102b4 f   ole32_ALL:IPMRSHL.obj
 0001:0000f350       ?MarshalInterface@CFreeMarshaler@@UAAJPAUIStream@@ABU_GUID@@PAXK2K@Z 10010350 f   ole32_ALL:IPMRSHL.obj
 0001:0000f460       ?UnmarshalInterface@CFreeMarshaler@@UAAJPAUIStream@@ABU_GUID@@PAPAX@Z 10010460 f   ole32_ALL:IPMRSHL.obj
 0001:0000f500       ?ReleaseMarshalData@CFreeMarshaler@@UAAJPAUIStream@@@Z 10010500 f   ole32_ALL:IPMRSHL.obj
 0001:0000f578       ?DisconnectObject@CFreeMarshaler@@UAAJK@Z 10010578 f   ole32_ALL:IPMRSHL.obj
 0001:0000f5e0       ??1CFmCtrlUnknown@@AAA@XZ  100105e0 f   ole32_ALL:IPMRSHL.obj
 0001:0000f61c       GetInProcFreeMarshaler     1001061c f   ole32_ALL:IPMRSHL.obj
 0001:0000f6e8       ?Release@CFmCtrlUnknown@@EAAKXZ 100106e8 f   ole32_ALL:IPMRSHL.obj
 0001:0000f73c       CoCreateFreeThreadedMarshaler 1001073c f   ole32_ALL:IPMRSHL.obj
 0001:0000f844       ?wCoCreateGuid@@YAJPAU_GUID@@@Z 10010844 f   ole32_ALL:COCRGUID.obj
 0001:0000f87c       CoCreateGuid               1001087c f   ole32_ALL:COCRGUID.obj
 0001:0000f8a8       ??0CSplit_QI@@QAA@AAJKPAUtagMULTI_QI@@@Z 100108a8 f   ole32_ALL:ACTAPI.obj
 0001:0000fa0c       ?UpdateResultsArray@@YAJJKPAUtagMULTI_QI@@@Z 10010a0c f i ole32_ALL:ACTAPI.obj
 0001:0000facc       ??1CSplit_QI@@QAA@XZ       10010acc f   ole32_ALL:ACTAPI.obj
 0001:0000fb90       ?DoBetterUnmarshal@@YAJAAPAUtagMInterfacePointer@@ABU_GUID@@PAPAUIUnknown@@@Z 10010b90 f i ole32_ALL:ACTAPI.obj
 0001:0000fbfc       ?UnmarshalMultipleSCMResults@@YAHAAJPAPAUtagMInterfacePointer@@KABU_GUID@@PAUIUnknown@@KPAU2@PAJPAUtagMULTI_QI@@KPAGPAPAUIClassFactory@@@Z 10010bfc f   ole32_ALL:ACTAPI.obj
 0001:0000fca0       ?GetInstanceHelper@@YAJPAU_COSERVERINFO@@PAU_GUID@@PAUIUnknown@@KKPAGPAUIStorage@@KPAUtagMULTI_QI@@@Z 10010ca0 f   ole32_ALL:ACTAPI.obj
 0001:00010160       ICoGetClassObject          10011160 f   ole32_ALL:ACTAPI.obj
 0001:00010344       CoCreateInstanceEx         10011344 f   ole32_ALL:ACTAPI.obj
 0001:000106dc       CoGetInstanceFromFile      100116dc f   ole32_ALL:ACTAPI.obj
 0001:00010780       CoGetInstanceFromIStorage  10011780 f   ole32_ALL:ACTAPI.obj
 0001:0001088c       ?InlineIsEqualGUID@@YAHABU_GUID@@0@Z 1001188c f i ole32_ALL:COAPI.obj
 0001:000108d4       CoGetMarshalSizeMax        100118d4 f   ole32_ALL:COAPI.obj
 0001:000109e0       CoMarshalInterface         100119e0 f   ole32_ALL:COAPI.obj
 0001:00010c40       CoUnmarshalInterface       10011c40 f   ole32_ALL:COAPI.obj
 0001:00010e04       CoReleaseMarshalData       10011e04 f   ole32_ALL:COAPI.obj
 0001:00010f94       CoDisconnectObject         10011f94 f   ole32_ALL:COAPI.obj
 0001:00011078       CoLockObjectExternal       10012078 f   ole32_ALL:COAPI.obj
 0001:00011134       CoIsHandlerConnected       10012134 f   ole32_ALL:COAPI.obj
 0001:000111ac       ?GetStaticUnMarshaler@@YAJPAPAUIMarshal@@@Z 100121ac f   ole32_ALL:COAPI.obj
 0001:00011248       CoGetStandardMarshal       10012248 f   ole32_ALL:COAPI.obj
 0001:000112f4       CoFileTimeNow              100122f4 f   ole32_ALL:TIME.obj
 0001:00011384       CoLoadLibrary              10012384 f   ole32_ALL:DLLAPI.obj
 0001:00011388       CoFreeLibrary              10012388 f   ole32_ALL:DLLAPI.obj
 0001:0001138c       CoFreeAllLibraries         1001238c f   ole32_ALL:DLLAPI.obj
 0001:00011390       CoFreeUnusedLibraries      10012390 f   ole32_ALL:DLLAPI.obj
 0001:000113bc       CoFreeUnusedLibrariesEx    100123bc f   ole32_ALL:DLLAPI.obj
 0001:000113f4       ?IsInternalCLSID@@YAHABU_GUID@@0AAJPAPAX@Z 100123f4 f   ole32_ALL:COBJACT.obj
 0001:0001151c       ?SearchCacheOrLoadInProc@@YAPAUIUnknown@@ABU_GUID@@0HHKKAAJ@Z 1001251c f   ole32_ALL:COBJACT.obj
 0001:000115b8       ?IsWOWThread@@YAHXZ        100125b8 f i ole32_ALL:COBJACT.obj
 0001:000115dc       ?RemapClassCtxForInProcServer@@YAKK@Z 100125dc f   ole32_ALL:COBJACT.obj
 0001:00011644       CoGetClassObject           10012644 f   ole32_ALL:COBJACT.obj
 0001:00011710       ?MallocInitialize@@YAJH@Z  10012710 f   ole32_ALL:MEMAPI.obj
 0001:00011750       ?MallocUninitialize@@YAHXZ 10012750 f   ole32_ALL:MEMAPI.obj
 0001:00011758       CoGetMalloc                10012758 f   ole32_ALL:MEMAPI.obj
 0001:00011784       CoRevokeMallocSpy          10012784 f   ole32_ALL:MEMAPI.obj
 0001:00011838       CoTaskMemAlloc             10012838 f   ole32_ALL:MEMAPI.obj
 0001:0001185c       CoTaskMemFree              1001285c f   ole32_ALL:MEMAPI.obj
 0001:00011880       CoTaskMemRealloc           10012880 f   ole32_ALL:MEMAPI.obj
 0001:000118a8       CoTaskMemSize              100128a8 f   ole32_ALL:MEMAPI.obj
 0001:000118cc       MIDL_user_allocate         100128cc f   ole32_ALL:MEMAPI.obj
 0001:000118fc       MIDL_user_free             100128fc f   ole32_ALL:MEMAPI.obj
 0001:00011928       ?CMalloc_QueryInterface@@YAJPAUIMalloc@@ABU_GUID@@PAPAX@Z 10012928 f   ole32_ALL:MEMAPI.obj
 0001:0001198c       ?CMalloc_AddRef@@YAKPAUIMalloc@@@Z 1001298c f   ole32_ALL:MEMAPI.obj
 0001:00011994       ?CMalloc_Release@@YAKPAUIMalloc@@@Z 10012994 f   ole32_ALL:MEMAPI.obj
 0001:0001199c       ?CRetailMalloc_Alloc@@YAPAXPAUIMalloc@@K@Z 1001299c f   ole32_ALL:MEMAPI.obj
 0001:000119b4       ?CRetailMalloc_DidAlloc@@YAHPAUIMalloc@@PAX@Z 100129b4 f   ole32_ALL:MEMAPI.obj
 0001:000119dc       ?CRetailMalloc_Free@@YAXPAUIMalloc@@PAX@Z 100129dc f   ole32_ALL:MEMAPI.obj
 0001:00011a00       ?CRetailMalloc_GetSize@@YAKPAUIMalloc@@PAX@Z 10012a00 f   ole32_ALL:MEMAPI.obj
 0001:00011a2c       ?CRetailMalloc_HeapMinimize@@YAXPAUIMalloc@@@Z 10012a2c f   ole32_ALL:MEMAPI.obj
 0001:00011a30       ?CRetailMalloc_Realloc@@YAPAXPAUIMalloc@@PAXK@Z 10012a30 f   ole32_ALL:MEMAPI.obj
 0001:00011a90       ?CSpyMalloc_Alloc@@YAPAXPAUIMalloc@@K@Z 10012a90 f   ole32_ALL:MEMAPI.obj
 0001:00011b4c       ?CSpyMalloc_Realloc@@YAPAXPAUIMalloc@@PAXK@Z 10012b4c f   ole32_ALL:MEMAPI.obj
 0001:00011ca4       ?CSpyMalloc_Free@@YAXPAUIMalloc@@PAX@Z 10012ca4 f   ole32_ALL:MEMAPI.obj
 0001:00011d88       ?CSpyMalloc_GetSize@@YAKPAUIMalloc@@PAX@Z 10012d88 f   ole32_ALL:MEMAPI.obj
 0001:00011e50       ?CSpyMalloc_DidAlloc@@YAHPAUIMalloc@@PAX@Z 10012e50 f   ole32_ALL:MEMAPI.obj
 0001:00011f1c       ?CSpyMalloc_HeapMinimize@@YAXPAUIMalloc@@@Z 10012f1c f   ole32_ALL:MEMAPI.obj
 0001:00011f94       CoRegisterMallocSpy        10012f94 f   ole32_ALL:MEMAPI.obj
 0001:000120a8       ?Initialize@CHashTable@@UAAXPAUSHashChain@@@Z 100130a8 f i ole32_ALL:RIFTBL.obj
 0001:000120b0       ?Initialize@CRIFTable@@QAAXXZ 100130b0 f   ole32_ALL:RIFTBL.obj
 0001:000120e0       ?GetClientInterfaceInfo@CRIFTable@@QAAPAU_RPC_CLIENT_INTERFACE@@ABU_GUID@@@Z 100130e0 f   ole32_ALL:RIFTBL.obj
 0001:0001212c       ?RegisterClientInterface@CRIFTable@@AAAJPAUtagRIFEntry@@ABU_GUID@@@Z 1001312c f   ole32_ALL:RIFTBL.obj
 0001:000121b0       ?RegisterServerInterface@CRIFTable@@AAAJPAUtagRIFEntry@@ABU_GUID@@@Z 100131b0 f   ole32_ALL:RIFTBL.obj
 0001:000122bc       ?AddEntry@CRIFTable@@AAAJABU_GUID@@0KPAPAUtagRIFEntry@@@Z 100132bc f   ole32_ALL:RIFTBL.obj
 0001:00012358       ?UnRegisterInterface@CRIFTable@@QAAXPAUtagRIFEntry@@@Z 10013358 f   ole32_ALL:RIFTBL.obj
 0001:000123e8       ?GetPSClsid@CRIFTable@@QAAJABU_GUID@@PAU2@PAPAUtagRIFEntry@@@Z 100133e8 f   ole32_ALL:RIFTBL.obj
 0001:000124f4       ?RegisterPSClsid@CRIFTable@@QAAJABU_GUID@@0@Z 100134f4 f   ole32_ALL:RIFTBL.obj
 0001:000125c0       CoRegisterPSClsid          100135c0 f   ole32_ALL:RIFTBL.obj
 0001:00012638       CoGetPSClsid               10013638 f   ole32_ALL:RIFTBL.obj
 0001:000126cc       ?CleanupRIFEntry@@YAXPAUSHashChain@@@Z 100136cc f   ole32_ALL:RIFTBL.obj
 0001:000126dc       ?Cleanup@CRIFTable@@QAAXXZ 100136dc f   ole32_ALL:RIFTBL.obj
 0001:00012704       ?RegisterInterface@CRIFTable@@QAAJABU_GUID@@HPAU2@@Z 10013704 f   ole32_ALL:RIFTBL.obj
 0001:000127a4       ?Initialize@CIPIDTable@@QAAXXZ 100137a4 f   ole32_ALL:IPIDTBL.obj
 0001:000127b8       ?Cleanup@CIPIDTable@@QAAXXZ 100137b8 f   ole32_ALL:IPIDTBL.obj
 0001:000127c4       ?LookupIPID@CIPIDTable@@QAAPAUtagIPIDEntry@@ABU_GUID@@@Z 100137c4 f   ole32_ALL:IPIDTBL.obj
 0001:00012824       ?ReleaseEntryList@CIPIDTable@@QAAXPAUtagIPIDEntry@@0@Z 10013824 f   ole32_ALL:IPIDTBL.obj
 0001:00012830       ?Initialize@COXIDTable@@QAAXXZ 10013830 f   ole32_ALL:IPIDTBL.obj
 0001:00012844       ?Cleanup@COXIDTable@@QAAXXZ 10013844 f   ole32_ALL:IPIDTBL.obj
 0001:00012850       ?SearchList@COXIDTable@@AAAPAUtagOXIDEntry@@ABU_GUID@@PAU2@@Z 10013850 f   ole32_ALL:IPIDTBL.obj
 0001:000128a4       ?NumOxidsToRemove@COXIDTable@@QAAKXZ 100138a4 f   ole32_ALL:IPIDTBL.obj
 0001:000128c0       ?GetOxidsToRemove@COXIDTable@@QAAXPAU__MIDL_ILocalObjectExporter_0001@@PAK@Z 100138c0 f   ole32_ALL:IPIDTBL.obj
 0001:00012980       ?GetLocalOXIDEntry@@YAPAUtagOXIDEntry@@XZ 10013980 f   ole32_ALL:IPIDTBL.obj
 0001:000129b0       ?SetLocalOXIDEntry@@YAXPAUtagOXIDEntry@@@Z 100139b0 f   ole32_ALL:IPIDTBL.obj
 0001:000129e4       CoGetTIDFromIPID           100139e4 f   ole32_ALL:IPIDTBL.obj
 0001:00012a30       ?Initialize@CMIDTable@@QAAXXZ 10013a30 f   ole32_ALL:IPIDTBL.obj
 0001:00012a58       ?LookupMID@CMIDTable@@QAAPAUtagMIDEntry@@PAUtagDUALSTRINGARRAY@@PAK@Z 10013a58 f   ole32_ALL:IPIDTBL.obj
 0001:00012a9c       ?AddMIDEntry@CMIDTable@@AAAJAB_KKPAUtagDUALSTRINGARRAY@@PAPAUtagMIDEntry@@@Z 10013a9c f   ole32_ALL:IPIDTBL.obj
 0001:00012b84       ?ReleaseEntry@CMIDTable@@QAAXPAUtagMIDEntry@@@Z 10013b84 f   ole32_ALL:IPIDTBL.obj
 0001:00012bd4       ?DecMIDRefCnt@@YAXPAUtagMIDEntry@@@Z 10013bd4 f   ole32_ALL:IPIDTBL.obj
 0001:00012c00       ?LookupOXID@COXIDTable@@QAAPAUtagOXIDEntry@@AB_K0@Z 10013c00 f   ole32_ALL:IPIDTBL.obj
 0001:00012cd0       ?ExpireEntry@COXIDTable@@AAAXPAUtagOXIDEntry@@@Z 10013cd0 f   ole32_ALL:IPIDTBL.obj
 0001:00012db4       ?MakeRemUnk@COXIDTable@@AAAJPAUtagOXIDEntry@@@Z 10013db4 f   ole32_ALL:IPIDTBL.obj
 0001:00012ee8       ?CleanupMIDEntry@@YAXPAUSHashChain@@@Z 10013ee8 f   ole32_ALL:IPIDTBL.obj
 0001:00012ef8       ?Cleanup@CMIDTable@@QAAXXZ 10013ef8 f   ole32_ALL:IPIDTBL.obj
 0001:00012f20       ?FindOrCreateMIDEntry@CMIDTable@@QAAJAB_KPAUtagDUALSTRINGARRAY@@PAPAUtagMIDEntry@@@Z 10013f20 f   ole32_ALL:IPIDTBL.obj
 0001:00012f7c       ?GetLocalMIDEntry@@YAJPAPAUtagMIDEntry@@@Z 10013f7c f   ole32_ALL:IPIDTBL.obj
 0001:00012fe8       ?FreeCleanupEntries@COXIDTable@@QAAXXZ 10013fe8 f   ole32_ALL:IPIDTBL.obj
 0001:00013020       ?GetRemUnk@COXIDTable@@QAAJPAUtagOXIDEntry@@PAPAUIRemUnknown@@@Z 10014020 f   ole32_ALL:IPIDTBL.obj
 0001:000130a0       ?ReleaseEntry@COXIDTable@@QAAXPAUtagOXIDEntry@@@Z 100140a0 f   ole32_ALL:IPIDTBL.obj
 0001:00013118       ?FreeExpiredEntries@COXIDTable@@QAAXK@Z 10014118 f   ole32_ALL:IPIDTBL.obj
 0001:00013184       ?DecOXIDRefCnt@@YAXPAUtagOXIDEntry@@@Z 10014184 f   ole32_ALL:IPIDTBL.obj
 0001:000131a8       ?ReleaseLocalSTAEntry@COXIDTable@@QAAXXZ 100141a8 f   ole32_ALL:IPIDTBL.obj
 0001:00013240       ?ReleaseLocalMTAEntry@COXIDTable@@QAAXXZ 10014240 f   ole32_ALL:IPIDTBL.obj
 0001:000132d8       ?AddEntry@COXIDTable@@QAAJAB_KPAUtagOXID_INFO@@PAUtagMIDEntry@@PAPAUtagOXIDEntry@@@Z 100142d8 f   ole32_ALL:IPIDTBL.obj
 0001:00013534       ?GetLocalEntry@COXIDTable@@QAAJPAPAUtagOXIDEntry@@@Z 10014534 f   ole32_ALL:IPIDTBL.obj
 0001:000136c8       ?FindOrCreateOXIDEntry@@YAJAB_KAAUtagOXID_INFO@@W4tagFOCOXID@@PAUtagDUALSTRINGARRAY@@0PAUtagMIDEntry@@PAPAUtagOXIDEntry@@@Z 100146c8 f   ole32_ALL:IPIDTBL.obj
 0001:000137b0       ?CleanupChannelHooks@@YAXXZ 100147b0 f   ole32_ALL:CHOCK.obj
 0001:0001383c       CoRegisterChannelHook      1001483c f   ole32_ALL:CHOCK.obj
 0001:00013900       ?InitHooksIfNecessary@@YAXXZ 10014900 f   ole32_ALL:CHOCK.obj
 0001:000139fc       ?ClientGetSize@@YAKPAUSChannelHookCallInfo@@PAK@Z 100149fc f   ole32_ALL:CHOCK.obj
 0001:00013aa8       ?FillBuffer@@YAPAXPAUSChannelHookCallInfo@@PAUWireExtentArray@@KKH@Z 10014aa8 f   ole32_ALL:CHOCK.obj
 0001:00013c3c       ?FindExtentId@@YAKPAUSHookList@@U_GUID@@@Z 10014c3c f   ole32_ALL:CHOCK.obj
 0001:00013cdc       ?VerifyExtent@@YAPAXPAUSHookList@@PAUWireExtentArray@@KPAPAUWireExtent@@K@Z 10014cdc f   ole32_ALL:CHOCK.obj
 0001:00013f00       ?ClientNotify@@YAJPAUSChannelHookCallInfo@@PATWireThat@@KPAPAXKJ@Z 10014f00 f   ole32_ALL:CHOCK.obj
 0001:00014178       ?ServerNotify@@YAJPAUSChannelHookCallInfo@@PATWireThis@@KPAPAXK@Z 10015178 f   ole32_ALL:CHOCK.obj
 0001:000142f0       ?ServerGetSize@@YAKPAUSChannelHookCallInfo@@PAK@Z 100152f0 f   ole32_ALL:CHOCK.obj
 0001:000143a8       ?ClientGetSize@CDebugChannelHook@@UAAXABU_GUID@@0PAK@Z 100153a8 f   ole32_ALL:CHOCK.obj
 0001:00014424       ?ClientFillBuffer@CDebugChannelHook@@UAAXABU_GUID@@0PAKPAX@Z 10015424 f   ole32_ALL:CHOCK.obj
 0001:000144a8       ?ClientNotify@CDebugChannelHook@@UAAXABU_GUID@@0KPAXKJ@Z 100154a8 f   ole32_ALL:CHOCK.obj
 0001:0001452c       ?ServerNotify@CDebugChannelHook@@UAAXABU_GUID@@0KPAXK@Z 1001552c f   ole32_ALL:CHOCK.obj
 0001:0001461c       ?ServerGetSize@CDebugChannelHook@@UAAXABU_GUID@@0JPAK@Z 1001561c f   ole32_ALL:CHOCK.obj
 0001:00014714       ?ServerFillBuffer@CDebugChannelHook@@UAAXABU_GUID@@0PAKPAXJ@Z 10015714 f   ole32_ALL:CHOCK.obj
 0001:00014808       ?QueryInterface@CDebugChannelHook@@UAAJABU_GUID@@PAPAX@Z 10015808 f   ole32_ALL:CHOCK.obj
 0001:0001486c       ?AddRef@CDebugChannelHook@@UAAKXZ 1001586c f   ole32_ALL:CHOCK.obj
 0001:00014874       ?Release@CDebugChannelHook@@UAAKXZ 10015874 f   ole32_ALL:CHOCK.obj
 0001:0001487c       ?ClientGetSize@CErrorChannelHook@@UAAXABU_GUID@@0PAK@Z 1001587c f   ole32_ALL:CHOCK.obj
 0001:00014888       ?ClientFillBuffer@CErrorChannelHook@@UAAXABU_GUID@@0PAKPAX@Z 10015888 f   ole32_ALL:CHOCK.obj
 0001:00014894       ?ClientNotify@CErrorChannelHook@@UAAXABU_GUID@@0KPAXKJ@Z 10015894 f   ole32_ALL:CHOCK.obj
 0001:00014994       ?ServerNotify@CErrorChannelHook@@UAAXABU_GUID@@0KPAXK@Z 10015994 f   ole32_ALL:CHOCK.obj
 0001:000149d0       ?ServerGetSize@CErrorChannelHook@@UAAXABU_GUID@@0JPAK@Z 100159d0 f   ole32_ALL:CHOCK.obj
 0001:00014a54       ?ServerFillBuffer@CErrorChannelHook@@UAAXABU_GUID@@0PAKPAXJ@Z 10015a54 f   ole32_ALL:CHOCK.obj
 0001:00014aec       ?QueryInterface@CErrorChannelHook@@UAAJABU_GUID@@PAPAX@Z 10015aec f   ole32_ALL:CHOCK.obj
 0001:00014b50       ?AddRef@CErrorChannelHook@@UAAKXZ 10015b50 f   ole32_ALL:CHOCK.obj
 0001:00014b58       ?Release@CErrorChannelHook@@UAAKXZ 10015b58 f   ole32_ALL:CHOCK.obj
 0001:00014b60       ?IsTimerAtZero@CCliModalLoop@@AAAHXZ 10015b60 f i ole32_ALL:CALLCTRL.obj
 0001:00014bac       ?Register@CAptCallCtrl@@QAAXPAUHWND__@@II@Z 10015bac f   ole32_ALL:CALLCTRL.obj
 0001:00014bb8       ?GetSlowTimeFactor@@YAKXZ  10015bb8 f   ole32_ALL:CALLCTRL.obj
 0001:00014c54       ?CopyMsgForRetry@CAptRpcChnl@@AAAJPAUtagRPCOLEMESSAGE@@@Z 10015c54 f   ole32_ALL:CALLCTRL.obj
 0001:00014d2c       ?MyPeekMessage@CCliModalLoop@@QAAHPAUtagMSG@@PAUHWND__@@IIG@Z 10015d2c f   ole32_ALL:CALLCTRL.obj
 0001:00014dd0       ?GetElapsedTime@CCliModalLoop@@QAAKXZ 10015dd0 f   ole32_ALL:CALLCTRL.obj
 0001:00014e44       ?FindPrevCallOnLID@CCliModalLoop@@QAAPAV1@ABU_GUID@@@Z 10015e44 f   ole32_ALL:CALLCTRL.obj
 0001:00014e7c       ?MTAInvoke@@YAJPAUtagRPCOLEMESSAGE@@KPAUIRpcStubBuffer@@PAUIRpcChannelBuffer@@PAK@Z 10015e7c f   ole32_ALL:CALLCTRL.obj
 0001:00014e9c       ?CopyMsgForRetry@@YAJPAUtagRPCOLEMESSAGE@@PAUIRpcChannelBuffer@@J@Z 10015e9c f   ole32_ALL:CALLCTRL.obj
 0001:00014f4c       ?GetCallTypeForInCall@CAptCallCtrl@@QAAKPAPAVCCliModalLoop@@ABU_GUID@@K@Z 10015f4c f   ole32_ALL:CALLCTRL.obj
 0001:00014f98       ??0CCliModalLoop@@QAA@KK@Z 10015f98 f i ole32_ALL:CALLCTRL.obj
 0001:00015008       CoRegisterMessageFilter    10016008 f   ole32_ALL:CALLCTRL.obj
 0001:000150f8       ??0CAptCallCtrl@@QAA@XZ    100160f8 f   ole32_ALL:CALLCTRL.obj
 0001:0001514c       ??1CAptCallCtrl@@QAA@XZ    1001614c f   ole32_ALL:CALLCTRL.obj
 0001:00015180       ?CanMakeOutCall@@YAJKABU_GUID@@@Z 10016180 f   ole32_ALL:CALLCTRL.obj
 0001:0001522c       ??0CMTARpcChnl@@QAA@PAVCStdIdentity@@PAUtagOXIDEntry@@K@Z 1001622c f   ole32_ALL:CALLCTRL.obj
 0001:00015288       ?GetBuffer@CMTARpcChnl@@UAAJPAUtagRPCOLEMESSAGE@@ABU_GUID@@@Z 10016288 f   ole32_ALL:CALLCTRL.obj
 0001:0001534c       ??0CAptRpcChnl@@QAA@PAVCStdIdentity@@PAUtagOXIDEntry@@K@Z 1001634c f   ole32_ALL:CALLCTRL.obj
 0001:000153a8       ?GetBuffer@CAptRpcChnl@@UAAJPAUtagRPCOLEMESSAGE@@ABU_GUID@@@Z 100163a8 f   ole32_ALL:CALLCTRL.obj
 0001:000154e4       ?HandleRejectedCall@CCliModalLoop@@AAAJPAVIRpcChannelBufferN@@@Z 100164e4 f   ole32_ALL:CALLCTRL.obj
 0001:000155c4       ?PeekRPCAndDDEMessage@CCliModalLoop@@AAAHXZ 100165c4 f   ole32_ALL:CALLCTRL.obj
 0001:0001563c       ?FindMessage@CCliModalLoop@@AAAHK@Z 1001663c f   ole32_ALL:CALLCTRL.obj
 0001:00015734       ?HandlePendingMessage@CCliModalLoop@@AAAXXZ 10016734 f   ole32_ALL:CALLCTRL.obj
 0001:000158f0       ?HandleIncomingCall@@YAJABU_GUID@@GKPAX@Z 100168f0 f   ole32_ALL:CALLCTRL.obj
 0001:00015ad0       ?HandleWakeForMsg@CCliModalLoop@@AAAXXZ 10016ad0 f   ole32_ALL:CALLCTRL.obj
 0001:00015cc8       ?STAInvoke@@YAJPAUtagRPCOLEMESSAGE@@KPAUIRpcStubBuffer@@PAUIRpcChannelBuffer@@PAXPAK@Z 10016cc8 f   ole32_ALL:CALLCTRL.obj
 0001:00015d94       ?BlockFn@CCliModalLoop@@QAAJPAX@Z 10016d94 f   ole32_ALL:CALLCTRL.obj
 0001:00015e8c       ?SendReceive@CCliModalLoop@@QAAJPAUtagRPCOLEMESSAGE@@PAKPAVIRpcChannelBufferN@@@Z 10016e8c f   ole32_ALL:CALLCTRL.obj
 0001:00015f10       ?OleModalLoopBlockFn@@YAJPAX00@Z 10016f10 f   ole32_ALL:CALLCTRL.obj
 0001:00015f24       ?SendReceive@CAptRpcChnl@@UAAJPAUtagRPCOLEMESSAGE@@PAK@Z 10016f24 f   ole32_ALL:CALLCTRL.obj
 0001:00016058       ??1CClassMoniker@@AAA@XZ   10017058 f   ole32_ALL:CLASSMON.obj
 0001:000160b0       ?AddRef@CClassMoniker@@UAAKXZ 100170b0 f   ole32_ALL:CLASSMON.obj
 0001:000160d0       ?GetClassID@CClassMoniker@@UAAJPAU_GUID@@@Z 100170d0 f   ole32_ALL:CLASSMON.obj
 0001:0001613c       ?IsDirty@CClassMoniker@@UAAJXZ 1001713c f   ole32_ALL:CLASSMON.obj
 0001:0001614c       ?Load@CClassMoniker@@UAAJPAUIStream@@@Z 1001714c f   ole32_ALL:CLASSMON.obj
 0001:00016280       ?Save@CClassMoniker@@UAAJPAUIStream@@H@Z 10017280 f   ole32_ALL:CLASSMON.obj
 0001:00016324       ?GetSizeMax@CClassMoniker@@UAAJPAT_ULARGE_INTEGER@@@Z 10017324 f   ole32_ALL:CLASSMON.obj
 0001:00016384       ?BindToObject@CClassMoniker@@UAAJPAUIBindCtx@@PAUIMoniker@@ABU_GUID@@PAPAX@Z 10017384 f   ole32_ALL:CLASSMON.obj
 0001:000164e4       ?BindToStorage@CClassMoniker@@UAAJPAUIBindCtx@@PAUIMoniker@@ABU_GUID@@PAPAX@Z 100174e4 f   ole32_ALL:CLASSMON.obj
 0001:00016510       ?Reduce@CClassMoniker@@UAAJPAUIBindCtx@@KPAPAUIMoniker@@1@Z 10017510 f   ole32_ALL:CLASSMON.obj
 0001:00016584       ?ComposeWith@CClassMoniker@@UAAJPAUIMoniker@@HPAPAU2@@Z 10017584 f   ole32_ALL:CLASSMON.obj
 0001:0001664c       ?Enum@CClassMoniker@@UAAJHPAPAUIEnumMoniker@@@Z 1001764c f   ole32_ALL:CLASSMON.obj
 0001:0001669c       ?Hash@CClassMoniker@@UAAJPAK@Z 1001769c f   ole32_ALL:CLASSMON.obj
 0001:000166e8       ?IsRunning@CClassMoniker@@UAAJPAUIBindCtx@@PAUIMoniker@@1@Z 100176e8 f   ole32_ALL:CLASSMON.obj
 0001:000166f4       ?GetTimeOfLastChange@CClassMoniker@@UAAJPAUIBindCtx@@PAUIMoniker@@PAU_FILETIME@@@Z 100176f4 f   ole32_ALL:CLASSMON.obj
 0001:00016700       ?Inverse@CClassMoniker@@UAAJPAPAUIMoniker@@@Z 10017700 f   ole32_ALL:CLASSMON.obj
 0001:00016710       ?CommonPrefixWith@CClassMoniker@@UAAJPAUIMoniker@@PAPAU2@@Z 10017710 f   ole32_ALL:CLASSMON.obj
 0001:00016810       ?RelativePathTo@CClassMoniker@@UAAJPAUIMoniker@@PAPAU2@@Z 10017810 f   ole32_ALL:CLASSMON.obj
 0001:00016868       ?GetDisplayName@CClassMoniker@@UAAJPAUIBindCtx@@PAUIMoniker@@PAPAG@Z 10017868 f   ole32_ALL:CLASSMON.obj
 0001:000169b8       ?ParseDisplayName@CClassMoniker@@UAAJPAUIBindCtx@@PAUIMoniker@@PAGPAKPAPAU3@@Z 100179b8 f   ole32_ALL:CLASSMON.obj
 0001:00016aa8       ?IsSystemMoniker@CClassMoniker@@UAAJPAK@Z 10017aa8 f   ole32_ALL:CLASSMON.obj
 0001:00016afc       ?GetComparisonData@CClassMoniker@@UAAJPAEKPAK@Z 10017afc f   ole32_ALL:CLASSMON.obj
 0001:00016b98       ?GetUnmarshalClass@CClassMoniker@@UAAJABU_GUID@@PAXK1KPAU2@@Z 10017b98 f   ole32_ALL:CLASSMON.obj
 0001:00016bbc       ?GetMarshalSizeMax@CClassMoniker@@UAAJABU_GUID@@PAXK1KPAK@Z 10017bbc f   ole32_ALL:CLASSMON.obj
 0001:00016c10       ?MarshalInterface@CClassMoniker@@UAAJPAUIStream@@ABU_GUID@@PAXK2K@Z 10017c10 f   ole32_ALL:CLASSMON.obj
 0001:00016c34       ?UnmarshalInterface@CClassMoniker@@UAAJPAUIStream@@ABU_GUID@@PAPAX@Z 10017c34 f   ole32_ALL:CLASSMON.obj
 0001:00016cbc       ?ReleaseMarshalData@CClassMoniker@@UAAJPAUIStream@@@Z 10017cbc f   ole32_ALL:CLASSMON.obj
 0001:00016d10       ?DisconnectObject@CClassMoniker@@UAAJK@Z 10017d10 f   ole32_ALL:CLASSMON.obj
 0001:00016d18       ?AddRef@CClassMoniker@@W3AAKXZ 10017d18 f i ole32_ALL:CLASSMON.obj
 0001:00016d20       ?AddRef@CClassMoniker@@W7AAKXZ 10017d20 f i ole32_ALL:CLASSMON.obj
 0001:00016d28       ?SetParameters@CClassMoniker@@QAAJPBG@Z 10017d28 f   ole32_ALL:CLASSMON.obj
 0001:00016ddc       ?QueryInterface@CClassMoniker@@UAAJABU_GUID@@PAPAX@Z 10017ddc f   ole32_ALL:CLASSMON.obj
 0001:00016f64       ?Release@CClassMoniker@@UAAKXZ 10017f64 f   ole32_ALL:CLASSMON.obj
 0001:00016fa4       ?IsEqual@CClassMoniker@@UAAJPAUIMoniker@@@Z 10017fa4 f   ole32_ALL:CLASSMON.obj
 0001:00017054       ?Release@CClassMoniker@@W7AAKXZ 10018054 f i ole32_ALL:CLASSMON.obj
 0001:0001705c       ?QueryInterface@CClassMoniker@@W3AAJABU_GUID@@PAPAX@Z 1001805c f i ole32_ALL:CLASSMON.obj
 0001:00017064       ?QueryInterface@CClassMoniker@@W7AAJABU_GUID@@PAPAX@Z 10018064 f i ole32_ALL:CLASSMON.obj
 0001:0001706c       ?Release@CClassMoniker@@W3AAKXZ 1001806c f i ole32_ALL:CLASSMON.obj
 0001:00017074       ??0CClassMoniker@@QAA@ABU_GUID@@@Z 10018074 f   ole32_ALL:CLASSMON.obj
 0001:000170e4       CreateClassMoniker         100180e4 f   ole32_ALL:CLASSMON.obj
 0001:000171a4       ?LoadSysAllocString@@YAPAGPAG@Z 100181a4 f   ole32_ALL:CERROR.obj
 0001:00017210       ?LoadSysFreeString@@YAXPAG@Z 10018210 f   ole32_ALL:CERROR.obj
 0001:0001726c       ?LoadSysReAllocStringLen@@YAHPAPAGPAGI@Z 1001826c f   ole32_ALL:CERROR.obj
 0001:000172e8       ?LoadSysStringByteLen@@YAIPAG@Z 100182e8 f   ole32_ALL:CERROR.obj
 0001:0001735c       CoGetErrorInfo             1001835c f   ole32_ALL:CERROR.obj
 0001:00017444       CoSetErrorInfo             10018444 f   ole32_ALL:CERROR.obj
 0001:000174f8       ??1CErrorObject@@AAA@XZ    100184f8 f   ole32_ALL:CERROR.obj
 0001:0001758c       ?QueryInterface@CErrorObject@@UAAJABU_GUID@@PAPAX@Z 1001858c f   ole32_ALL:CERROR.obj
 0001:000176ac       ?AddRef@CErrorObject@@UAAKXZ 100186ac f   ole32_ALL:CERROR.obj
 0001:000176c4       ?GetUnmarshalClass@CErrorObject@@UAAJABU_GUID@@PAXK1KPAU2@@Z 100186c4 f   ole32_ALL:CERROR.obj
 0001:000176f8       ?ReleaseMarshalData@CErrorObject@@UAAJPAUIStream@@@Z 100186f8 f   ole32_ALL:CERROR.obj
 0001:00017700       ?DisconnectObject@CErrorObject@@UAAJK@Z 10018700 f   ole32_ALL:CERROR.obj
 0001:00017710       ?GetDescription@CErrorObject@@UAAJPAPAG@Z 10018710 f   ole32_ALL:CERROR.obj
 0001:00017798       ?GetGUID@CErrorObject@@UAAJPAU_GUID@@@Z 10018798 f   ole32_ALL:CERROR.obj
 0001:00017800       ?GetHelpContext@CErrorObject@@UAAJPAK@Z 10018800 f   ole32_ALL:CERROR.obj
 0001:00017850       ?GetHelpFile@CErrorObject@@UAAJPAPAG@Z 10018850 f   ole32_ALL:CERROR.obj
 0001:000178d8       ?GetSource@CErrorObject@@UAAJPAPAG@Z 100188d8 f   ole32_ALL:CERROR.obj
 0001:00017960       ?SetDescription@CErrorObject@@UAAJPAG@Z 10018960 f   ole32_ALL:CERROR.obj
 0001:00017a58       ?SetGUID@CErrorObject@@UAAJABU_GUID@@@Z 10018a58 f   ole32_ALL:CERROR.obj
 0001:00017ab8       ?SetHelpContext@CErrorObject@@UAAJK@Z 10018ab8 f   ole32_ALL:CERROR.obj
 0001:00017acc       ?SetHelpFile@CErrorObject@@UAAJPAG@Z 10018acc f   ole32_ALL:CERROR.obj
 0001:00017bc4       ?SetSource@CErrorObject@@UAAJPAG@Z 10018bc4 f   ole32_ALL:CERROR.obj
 0001:00017cb4       ?NdrStringRead@@YAJPAUIStream@@PAPAG@Z 10018cb4 f   ole32_ALL:CERROR.obj
 0001:00017ddc       ?NdrStringWrite@@YAJPAUIStream@@PBG@Z 10018ddc f   ole32_ALL:CERROR.obj
 0001:00017e8c       ?AddRef@CErrorObject@@W3AAKXZ 10018e8c f i ole32_ALL:CERROR.obj
 0001:00017e94       ?AddRef@CErrorObject@@W7AAKXZ 10018e94 f i ole32_ALL:CERROR.obj
 0001:00017e9c       ?QueryInterface@CErrorObject@@W3AAJABU_GUID@@PAPAX@Z 10018e9c f i ole32_ALL:CERROR.obj
 0001:00017ea4       ?QueryInterface@CErrorObject@@W7AAJABU_GUID@@PAPAX@Z 10018ea4 f i ole32_ALL:CERROR.obj
 0001:00017eac       ??0CErrorObject@@QAA@XZ    10018eac f   ole32_ALL:CERROR.obj
 0001:00017f28       ?Release@CErrorObject@@UAAKXZ 10018f28 f   ole32_ALL:CERROR.obj
 0001:00017f60       ?GetMarshalSizeMax@CErrorObject@@UAAJABU_GUID@@PAXK1KPAK@Z 10018f60 f   ole32_ALL:CERROR.obj
 0001:00017ff0       ?MarshalInterface@CErrorObject@@UAAJPAUIStream@@ABU_GUID@@PAXK2K@Z 10018ff0 f   ole32_ALL:CERROR.obj
 0001:00018054       ?UnmarshalInterface@CErrorObject@@UAAJPAUIStream@@ABU_GUID@@PAPAX@Z 10019054 f   ole32_ALL:CERROR.obj
 0001:00018168       ?Release@CErrorObject@@W3AAKXZ 10019168 f i ole32_ALL:CERROR.obj
 0001:00018170       ?Release@CErrorObject@@W7AAKXZ 10019170 f i ole32_ALL:CERROR.obj
 0001:00018180       CoCreateErrorInfo          10019180 f   ole32_ALL:CERROR.obj
 0001:00018204       ?IsCompositeMoniker@@YAPAVCCompositeMoniker@@PAUIMoniker@@@Z 10019204 f   ole32_ALL:CCOMPMON.obj
 0001:0001825c       ??1CCompositeMoniker@@UAA@XZ 1001925c f   ole32_ALL:CCOMPMON.obj
 0001:000182b4       ?Initialize@CCompositeMoniker@@QAAHPAUIMoniker@@0@Z 100192b4 f   ole32_ALL:CCOMPMON.obj
 0001:00018354       ?GetClassID@CCompositeMoniker@@EAAJPAU_GUID@@@Z 10019354 f   ole32_ALL:CCOMPMON.obj
 0001:000183a8       ?Count@CCompositeMoniker@@QAAKXZ 100193a8 f   ole32_ALL:CCOMPMON.obj
 0001:000183f8       ?Save@CCompositeMoniker@@EAAJPAUIStream@@H@Z 100193f8 f   ole32_ALL:CCOMPMON.obj
 0001:00018548       ?GetSizeMax@CCompositeMoniker@@EAAJPAT_ULARGE_INTEGER@@@Z 10019548 f   ole32_ALL:CCOMPMON.obj
 0001:00018684       ?Last@CCompositeMoniker@@QAAPAUIMoniker@@XZ 10019684 f   ole32_ALL:CCOMPMON.obj
 0001:000186c4       ?First@CCompositeMoniker@@QAAPAUIMoniker@@XZ 100196c4 f   ole32_ALL:CCOMPMON.obj
 0001:00018704       ?IsEqual@CCompositeMoniker@@EAAJPAUIMoniker@@@Z 10019704 f   ole32_ALL:CCOMPMON.obj
 0001:000188cc       ?Hash@CCompositeMoniker@@EAAJPAK@Z 100198cc f   ole32_ALL:CCOMPMON.obj
 0001:00018950       ?ComposeWithEnum@@YAJPAUIMoniker@@PAUIEnumMoniker@@PAPAU1@@Z 10019950 f   ole32_ALL:CCOMPMON.obj
 0001:00018a48       ?InverseFromEnum@@YAJPAUIEnumMoniker@@PAPAUIMoniker@@@Z 10019a48 f   ole32_ALL:CCOMPMON.obj
 0001:00018b44       ?RelativePathTo@CCompositeMoniker@@EAAJPAUIMoniker@@PAPAU2@@Z 10019b44 f   ole32_ALL:CCOMPMON.obj
 0001:000190e4       ?GetDisplayName@CCompositeMoniker@@EAAJPAUIBindCtx@@PAUIMoniker@@PAPAG@Z 1001a0e4 f   ole32_ALL:CCOMPMON.obj
 0001:000192b4       ?IsSystemMoniker@CCompositeMoniker@@EAAJPAK@Z 1001a2b4 f   ole32_ALL:CCOMPMON.obj
 0001:000192e4       ?GetComparisonData@CCompositeMoniker@@EAAJPAEKPAK@Z 1001a2e4 f   ole32_ALL:CCOMPMON.obj
 0001:0001939c       ??1CCompositeMonikerEnum@@AAA@XZ 1001a39c f   ole32_ALL:CCOMPMON.obj
 0001:00019410       ?Push@CCompositeMonikerEnum@@AAAHPAVCCompositeMoniker@@@Z 1001a410 f   ole32_ALL:CCOMPMON.obj
 0001:00019490       ?GetNext@CCompositeMonikerEnum@@AAAPAUIMoniker@@PAU2@@Z 1001a490 f   ole32_ALL:CCOMPMON.obj
 0001:000194e8       ?Pop@CCompositeMonikerEnum@@AAAPAUIMoniker@@XZ 1001a4e8 f   ole32_ALL:CCOMPMON.obj
 0001:0001955c       ?QueryInterface@CCompositeMonikerEnum@@UAAJABU_GUID@@PAPAX@Z 1001a55c f   ole32_ALL:CCOMPMON.obj
 0001:000195f0       ?AddRef@CCompositeMonikerEnum@@UAAKXZ 1001a5f0 f   ole32_ALL:CCOMPMON.obj
 0001:00019608       ?Next@CCompositeMonikerEnum@@UAAJKPAPAUIMoniker@@PAK@Z 1001a608 f   ole32_ALL:CCOMPMON.obj
 0001:000196bc       ?Skip@CCompositeMonikerEnum@@UAAJK@Z 1001a6bc f   ole32_ALL:CCOMPMON.obj
 0001:00019704       ?Reset@CCompositeMonikerEnum@@UAAJXZ 1001a704 f   ole32_ALL:CCOMPMON.obj
 0001:00019778       ?Clone@CCompositeMonikerEnum@@UAAJPAPAUIEnumMoniker@@@Z 1001a778 f   ole32_ALL:CCOMPMON.obj
 0001:000197ac       MonikerCommonPrefixWith    1001a7ac f   ole32_ALL:CCOMPMON.obj
 0001:0001984c       ?AddRef@CBaseMoniker@@W3AAKXZ 1001a84c f i ole32_ALL:CCOMPMON.obj
 0001:00019854       ?Release@CBaseMoniker@@W3AAKXZ 1001a854 f i ole32_ALL:CCOMPMON.obj
 0001:0001985c       ??_ECCompositeMoniker@@UAAPAXI@Z 1001a85c f i ole32_ALL:CCOMPMON.obj
 0001:0001985c       ??_GCCompositeMoniker@@UAAPAXI@Z 1001a85c f i ole32_ALL:CCOMPMON.obj
 0001:0001989c       ?QueryInterface@CCompositeMoniker@@EAAJABU_GUID@@PAPAX@Z 1001a89c f   ole32_ALL:CCOMPMON.obj
 0001:00019910       ??0CCompositeMonikerEnum@@AAA@HPAVCCompositeMoniker@@@Z 1001a910 f   ole32_ALL:CCOMPMON.obj
 0001:00019968       ?Release@CCompositeMonikerEnum@@UAAKXZ 1001a968 f   ole32_ALL:CCOMPMON.obj
 0001:000199bc       ?Create@CCompositeMonikerEnum@@SAPAUIEnumMoniker@@HPAVCCompositeMoniker@@@Z 1001a9bc f   ole32_ALL:CCOMPMON.obj
 0001:00019a64       ?QueryInterface@CCompositeMoniker@@G3AAJABU_GUID@@PAPAX@Z 1001aa64 f i ole32_ALL:CCOMPMON.obj
 0001:00019a6c       ?Enum@CCompositeMoniker@@EAAJHPAPAUIEnumMoniker@@@Z 1001aa6c f   ole32_ALL:CCOMPMON.obj
 0001:00019ac4       ??0CBaseMoniker@@IAA@XZ    1001aac4 f i ole32_ALL:CCOMPMON.obj
 0001:00019b00       ?QueryInterface@CBaseMoniker@@W3AAJABU_GUID@@PAPAX@Z 1001ab00 f i ole32_ALL:CCOMPMON.obj
 0001:00019b08       ??_GCBaseMoniker@@UAAPAXI@Z 1001ab08 f i ole32_ALL:CCOMPMON.obj
 0001:00019b08       ??_ECBaseMoniker@@UAAPAXI@Z 1001ab08 f i ole32_ALL:CCOMPMON.obj
 0001:00019b48       ??0CCompositeMoniker@@QAA@XZ 1001ab48 f   ole32_ALL:CCOMPMON.obj
 0001:00019b98       ?Create@CCompositeMoniker@@SAPAV1@PAUIMoniker@@0@Z 1001ab98 f   ole32_ALL:CCOMPMON.obj
 0001:00019c44       ?Load@CCompositeMoniker@@EAAJPAUIStream@@@Z 1001ac44 f   ole32_ALL:CCOMPMON.obj
 0001:00019dbc       ?AllButLast@CCompositeMoniker@@QAAPAUIMoniker@@XZ 1001adbc f   ole32_ALL:CCOMPMON.obj
 0001:00019e2c       ?AllButFirst@CCompositeMoniker@@QAAPAUIMoniker@@XZ 1001ae2c f   ole32_ALL:CCOMPMON.obj
 0001:00019e8c       ?BindToObject@CCompositeMoniker@@EAAJPAUIBindCtx@@PAUIMoniker@@ABU_GUID@@PAPAX@Z 1001ae8c f   ole32_ALL:CCOMPMON.obj
 0001:0001a084       ?BindToStorage@CCompositeMoniker@@EAAJPAUIBindCtx@@PAUIMoniker@@ABU_GUID@@PAPAX@Z 1001b084 f   ole32_ALL:CCOMPMON.obj
 0001:0001a1c0       ?Reduce@CCompositeMoniker@@EAAJPAUIBindCtx@@KPAPAUIMoniker@@1@Z 1001b1c0 f   ole32_ALL:CCOMPMON.obj
 0001:0001a41c       ?IsRunning@CCompositeMoniker@@EAAJPAUIBindCtx@@PAUIMoniker@@1@Z 1001b41c f   ole32_ALL:CCOMPMON.obj
 0001:0001a5dc       ?CommonPrefixWith@CCompositeMoniker@@EAAJPAUIMoniker@@PAPAU2@@Z 1001b5dc f   ole32_ALL:CCOMPMON.obj
 0001:0001a848       ?ParseDisplayName@CCompositeMoniker@@EAAJPAUIBindCtx@@PAUIMoniker@@PAGPAKPAPAU3@@Z 1001b848 f   ole32_ALL:CCOMPMON.obj
 0001:0001a9ac       Concatenate                1001b9ac f   ole32_ALL:CCOMPMON.obj
 0001:0001a9d0       CreateGenericComposite     1001b9d0 f   ole32_ALL:CCOMPMON.obj
 0001:0001ad40       MonikerRelativePathTo      1001bd40 f   ole32_ALL:CCOMPMON.obj
 0001:0001af34       ?ComposeWith@CCompositeMoniker@@EAAJPAUIMoniker@@HPAPAU2@@Z 1001bf34 f   ole32_ALL:CCOMPMON.obj
 0001:0001af54       ?GetTimeOfLastChange@CCompositeMoniker@@EAAJPAUIBindCtx@@PAUIMoniker@@PAU_FILETIME@@@Z 1001bf54 f   ole32_ALL:CCOMPMON.obj
 0001:0001b130       ?Inverse@CCompositeMoniker@@EAAJPAPAUIMoniker@@@Z 1001c130 f   ole32_ALL:CCOMPMON.obj
 0001:0001b1f0       ??1COAHolder@@AAA@XZ       1001c1f0 f   ole32_ALL:oaholder.obj
 0001:0001b25c       ?QueryInterface@COAHolder@@UAAJABU_GUID@@PAPAX@Z 1001c25c f   ole32_ALL:oaholder.obj
 0001:0001b2d8       ?AddRef@COAHolder@@UAAKXZ  1001c2d8 f   ole32_ALL:oaholder.obj
 0001:0001b2f0       ?Advise@COAHolder@@UAAJPAUIAdviseSink@@PAK@Z 1001c2f0 f   ole32_ALL:oaholder.obj
 0001:0001b3cc       ?Unadvise@COAHolder@@UAAJK@Z 1001c3cc f   ole32_ALL:oaholder.obj
 0001:0001b430       ?EnumAdvise@COAHolder@@UAAJPAPAUIEnumSTATDATA@@@Z 1001c430 f   ole32_ALL:oaholder.obj
 0001:0001b444       ?SendOnRename@COAHolder@@UAAJPAUIMoniker@@@Z 1001c444 f   ole32_ALL:oaholder.obj
 0001:0001b488       ?SendOnSave@COAHolder@@UAAJXZ 1001c488 f   ole32_ALL:oaholder.obj
 0001:0001b4c4       ?SendOnClose@COAHolder@@UAAJXZ 1001c4c4 f   ole32_ALL:oaholder.obj
 0001:0001b500       ?Release@COAHolder@@UAAKXZ 1001c500 f   ole32_ALL:oaholder.obj
 0001:0001b540       ??0COAHolder@@QAA@XZ       1001c540 f   ole32_ALL:oaholder.obj
 0001:0001b570       CreateOleAdviseHolder      1001c570 f   ole32_ALL:oaholder.obj
 0001:0001b5ac       ?AddRef@CMemStm@@UAAKXZ    1001c5ac f   ole32_ALL:memstm.obj
 0001:0001b5b4       ?Commit@CMemStm@@UAAJK@Z   1001c5b4 f   ole32_ALL:memstm.obj
 0001:0001b5bc       ?Revert@CMemStm@@UAAJXZ    1001c5bc f   ole32_ALL:memstm.obj
 0001:0001b5c4       ?LockRegion@CMemStm@@UAAJT_ULARGE_INTEGER@@0K@Z 1001c5c4 f   ole32_ALL:memstm.obj
 0001:0001b5dc       ?UnlockRegion@CMemStm@@UAAJT_ULARGE_INTEGER@@0K@Z 1001c5dc f   ole32_ALL:memstm.obj
 0001:0001b5f4       ?Stat@CMemStm@@UAAJPAUtagSTATSTG@@K@Z 1001c5f4 f   ole32_ALL:memstm.obj
 0001:0001b648       ReleaseMemStm              1001c648 f   ole32_ALL:memstm.obj
 0001:0001b698       ?QueryInterface@CMemStm@@UAAJABU_GUID@@PAPAX@Z 1001c698 f   ole32_ALL:memstm.obj
 0001:0001b73c       ??_GCMemStm@@QAAPAXI@Z     1001c73c f i ole32_ALL:memstm.obj
 0001:0001b788       ?Read@CMemStm@@UAAJPAXKPAK@Z 1001c788 f   ole32_ALL:memstm.obj
 0001:0001b868       ?Write@CMemStm@@UAAJPBXKPAK@Z 1001c868 f   ole32_ALL:memstm.obj
 0001:0001b944       ?Seek@CMemStm@@UAAJT_LARGE_INTEGER@@KPAT_ULARGE_INTEGER@@@Z 1001c944 f   ole32_ALL:memstm.obj
 0001:0001ba40       ?SetSize@CMemStm@@UAAJT_ULARGE_INTEGER@@@Z 1001ca40 f   ole32_ALL:memstm.obj
 0001:0001bab8       ?CopyTo@CMemStm@@UAAJPAUIStream@@T_ULARGE_INTEGER@@PAT3@2@Z 1001cab8 f   ole32_ALL:memstm.obj
 0001:0001bbd8       GetHGlobalFromStream       1001cbd8 f   ole32_ALL:memstm.obj
 0001:0001bc60       ??0CMemStm@@QAA@XZ         1001cc60 f   ole32_ALL:memstm.obj
 0001:0001bc94       ?Release@CMemStm@@UAAKXZ   1001cc94 f   ole32_ALL:memstm.obj
 0001:0001bcd0       ?Create@CMemStm@@SAPAV1@PAX@Z 1001ccd0 f   ole32_ALL:memstm.obj
 0001:0001bd4c       CreateStreamOnHGlobal      1001cd4c f   ole32_ALL:memstm.obj
 0001:0001be04       ?Clone@CMemStm@@UAAJPAPAUIStream@@@Z 1001ce04 f   ole32_ALL:memstm.obj
 0001:0001be54       CreateMemStm               1001ce54 f   ole32_ALL:memstm.obj
 0001:0001bed0       ?UnLockServer@CStdMarshal@@QAAXXZ 1001ced0 f i ole32_ALL:CHANNELB.obj
 0001:0001bf1c       ?DeallocateBuffer@@YAXPAUtagRPCOLEMESSAGE@@@Z 1001cf1c f i ole32_ALL:CHANNELB.obj
 0001:0001bf5c       ??_GCRpcChannelBuffer@@QAAPAXI@Z 1001cf5c f i ole32_ALL:CHANNELB.obj
 0001:0001bfb4       ?ReadAnsiStringStream@@YAJPAUIStream@@AAPADAAG@Z 1001cfb4 f   ole32_ALL:CFILEMON.obj
 0001:0001c0a4       ?WriteAnsiStringStream@@YAJPAUIStream@@PADK@Z 1001d0a4 f   ole32_ALL:CFILEMON.obj
 0001:0001c198       ?CopyPathFromUnicodeExtent@@YAJPFAU_MONIKEREXTENT@@AAPAGAAG@Z 1001d198 f   ole32_ALL:CFILEMON.obj
 0001:0001c270       ?CopyPathToUnicodeExtent@@YAJPAGKAAPAU_MONIKEREXTENT@@@Z 1001d270 f   ole32_ALL:CFILEMON.obj
 0001:0001c30c       ?GetMonikerType@@YAKPAUIMoniker@@@Z 1001d30c f   ole32_ALL:CFILEMON.obj
 0001:0001c384       ?IsReduced@@YAHPAUIMoniker@@@Z 1001d384 f   ole32_ALL:CFILEMON.obj
 0001:0001c3b8       ?IsFileMoniker@@YAPAVCFileMoniker@@PAUIMoniker@@@Z 1001d3b8 f   ole32_ALL:CFILEMON.obj
 0001:0001c410       ?UpdateClsid@@YAXPAU_GUID@@@Z 1001d410 f   ole32_ALL:CFILEMON.obj
 0001:0001c494       ?EatDotDots@@YAHPAPBGPAG@Z 1001d494 f   ole32_ALL:CFILEMON.obj
 0001:0001c52c       ?CountSegments@@YAHPAG@Z   1001d52c f   ole32_ALL:CFILEMON.obj
 0001:0001c5dc       ?Initialize@CFileMoniker@@AAAHGPADGPAGGG@Z 1001d5dc f   ole32_ALL:CFILEMON.obj
 0001:0001c67c       ?Initialize@CFileMoniker@@AAAHGPBGG@Z 1001d67c f   ole32_ALL:CFILEMON.obj
 0001:0001c740       ?FindExt@@YAPBGPBG@Z       1001d740 f   ole32_ALL:CFILEMON.obj
 0001:0001c794       ?QueryInterface@CFileMoniker@@UAAJABU_GUID@@PAPAX@Z 1001d794 f   ole32_ALL:CFILEMON.obj
 0001:0001c808       ?GetClassID@CFileMoniker@@UAAJPAU_GUID@@@Z 1001d808 f   ole32_ALL:CFILEMON.obj
 0001:0001c870       ?GetSizeMax@CFileMoniker@@UAAJPAT_ULARGE_INTEGER@@@Z 1001d870 f   ole32_ALL:CFILEMON.obj
 0001:0001c8ec       GetClassFileEx             1001d8ec f   ole32_ALL:CFILEMON.obj
 0001:0001ca78       GetClassFile               1001da78 f   ole32_ALL:CFILEMON.obj
 0001:0001ca84       ?FileBindToObject@@YAJPAUIMoniker@@PAGABU_GUID@@PAUIBindCtx@@PAUtagBIND_OPTS2@@02PAPAX@Z 1001da84 f   ole32_ALL:CFILEMON.obj
 0001:0001cc9c       ?BindToObject@CFileMoniker@@UAAJPAUIBindCtx@@PAUIMoniker@@ABU_GUID@@PAPAX@Z 1001dc9c f   ole32_ALL:CFILEMON.obj
 0001:0001d004       ?Peel@@YAHPAGGPAPAGK@Z     1001e004 f   ole32_ALL:CFILEMON.obj
 0001:0001d218       ?BindToStorage@CFileMoniker@@UAAJPAUIBindCtx@@PAUIMoniker@@ABU_GUID@@PAPAX@Z 1001e218 f   ole32_ALL:CFILEMON.obj
 0001:0001d360       ?Enum@CFileMoniker@@UAAJHPAPAUIEnumMoniker@@@Z 1001e360 f   ole32_ALL:CFILEMON.obj
 0001:0001d390       ?IsEqual@CFileMoniker@@UAAJPAUIMoniker@@@Z 1001e390 f   ole32_ALL:CFILEMON.obj
 0001:0001d410       ?CalcFileMonikerHash@@YAKPAG@Z 1001e410 f   ole32_ALL:CFILEMON.obj
 0001:0001d490       ?Hash@CFileMoniker@@UAAJPAK@Z 1001e490 f   ole32_ALL:CFILEMON.obj
 0001:0001d508       ?IsRunning@CFileMoniker@@UAAJPAUIBindCtx@@PAUIMoniker@@1@Z 1001e508 f   ole32_ALL:CFILEMON.obj
 0001:0001d604       ?GetTimeOfLastChange@CFileMoniker@@UAAJPAUIBindCtx@@PAUIMoniker@@PAU_FILETIME@@@Z 1001e604 f   ole32_ALL:CFILEMON.obj
 0001:0001d844       ?Inverse@CFileMoniker@@UAAJPAPAUIMoniker@@@Z 1001e844 f   ole32_ALL:CFILEMON.obj
 0001:0001d890       ?CompareNCharacters@@YAHPAG0K@Z 1001e890 f   ole32_ALL:CFILEMON.obj
 0001:0001d8e4       ?DetermineLongestString@@YAHPAGAAPAG0@Z 1001e8e4 f   ole32_ALL:CFILEMON.obj
 0001:0001d990       ?CommonPrefixWith@CFileMoniker@@UAAJPAUIMoniker@@PAPAU2@@Z 1001e990 f   ole32_ALL:CFILEMON.obj
 0001:0001d9d4       ?GetDisplayNameLength@CFileMoniker@@QAAKXZ 1001e9d4 f   ole32_ALL:CFILEMON.obj
 0001:0001da08       ?GenerateDisplayName@CFileMoniker@@QAAXPAG@Z 1001ea08 f   ole32_ALL:CFILEMON.obj
 0001:0001da90       ?GetDisplayName@CFileMoniker@@UAAJPAUIBindCtx@@PAUIMoniker@@PAPAG@Z 1001ea90 f   ole32_ALL:CFILEMON.obj
 0001:0001dc50       ?ParseDisplayName@CFileMoniker@@UAAJPAUIBindCtx@@PAUIMoniker@@PAGPAKPAPAU3@@Z 1001ec50 f   ole32_ALL:CFILEMON.obj
 0001:0001de00       ?IsSystemMoniker@CFileMoniker@@UAAJPAK@Z 1001ee00 f   ole32_ALL:CFILEMON.obj
 0001:0001de30       ?MnkUnicodeToMulti@@YAJPAGGAAPADAAGAAH@Z 1001ee30 f   ole32_ALL:CFILEMON.obj
 0001:0001e020       ?MnkMultiToUnicode@@YAJPADAAPAGKAAGI@Z 1001f020 f   ole32_ALL:CFILEMON.obj
 0001:0001e154       ?DetermineUnicodePath@CFileMoniker@@QAAJPADAAPAGAAG@Z 1001f154 f   ole32_ALL:CFILEMON.obj
 0001:0001e2a8       ?GetComparisonData@CFileMoniker@@UAAJPAEKPAK@Z 1001f2a8 f   ole32_ALL:CFILEMON.obj
 0001:0001e320       ??1CFileMoniker@@EAA@XZ    1001f320 f   ole32_ALL:CFILEMON.obj
 0001:0001e3a0       ?QueryInterface@CFileMoniker@@W3AAJABU_GUID@@PAPAX@Z 1001f3a0 f i ole32_ALL:CFILEMON.obj
 0001:0001e3b0       ?Load@CFileMoniker@@UAAJPAUIStream@@@Z 1001f3b0 f   ole32_ALL:CFILEMON.obj
 0001:0001e54c       ?ValidateAnsiPath@CFileMoniker@@QAAJXZ 1001f54c f   ole32_ALL:CFILEMON.obj
 0001:0001e708       ??_GCFileMoniker@@EAAPAXI@Z 1001f708 f i ole32_ALL:CFILEMON.obj
 0001:0001e708       ??_ECFileMoniker@@EAAPAXI@Z 1001f708 f i ole32_ALL:CFILEMON.obj
 0001:0001e750       ?Save@CFileMoniker@@UAAJPAUIStream@@H@Z 1001f750 f   ole32_ALL:CFILEMON.obj
 0001:0001e870       ??0CFileMoniker@@AAA@XZ    1001f870 f   ole32_ALL:CFILEMON.obj
 0001:0001e92c       ?Create@CFileMoniker@@SAPAV1@PBGGG@Z 1001f92c f   ole32_ALL:CFILEMON.obj
 0001:0001e9d8       ?ComposeWith@CFileMoniker@@UAAJPAUIMoniker@@HPAPAU2@@Z 1001f9d8 f   ole32_ALL:CFILEMON.obj
 0001:0001ec6c       ?wCommonPrefixWith@CFileMoniker@@EAAJPAUIMoniker@@PAPAU2@@Z 1001fc6c f   ole32_ALL:CFILEMON.obj
 0001:0001f114       ?RelativePathTo@CFileMoniker@@UAAJPAUIMoniker@@PAPAU2@@Z 10020114 f   ole32_ALL:CFILEMON.obj
 0001:0001f28c       ??0CDwordBag@@QAA@AAV0@K@Z 1002028c f i ole32_ALL:CROT.obj
 0001:0001f2e0       ??0CROTItem@@QAA@XZ        100202e0 f i ole32_ALL:CROT.obj
 0001:0001f330       ?Add@CMonikerPtrBuf@@QAAJPAUIMoniker@@@Z 10020330 f i ole32_ALL:CROT.obj
 0001:0001f378       ?QueryInterface@CRunningObjectTable@@UAAJABU_GUID@@PAPAX@Z 10020378 f   ole32_ALL:CROT.obj
 0001:0001f3e4       ?AddRef@CRunningObjectTable@@UAAKXZ 100203e4 f   ole32_ALL:CROT.obj
 0001:0001f3ec       ?Release@CRunningObjectTable@@UAAKXZ 100203ec f   ole32_ALL:CROT.obj
 0001:0001f3f4       ?NoteChangeTime@CRunningObjectTable@@UAAJKPAU_FILETIME@@@Z 100203f4 f   ole32_ALL:CROT.obj
 0001:0001f4c8       ??1CMonikerPtrBuf@@QAA@XZ  100204c8 f   ole32_ALL:CROT.obj
 0001:0001f50c       ?QueryInterface@CRotMonikerEnum@@UAAJABU_GUID@@PAPAX@Z 1002050c f   ole32_ALL:CROT.obj
 0001:0001f588       ?AddRef@CRotMonikerEnum@@UAAKXZ 10020588 f   ole32_ALL:CROT.obj
 0001:0001f5a0       ?Next@CRotMonikerEnum@@UAAJKPAPAUIMoniker@@PAK@Z 100205a0 f   ole32_ALL:CROT.obj
 0001:0001f628       ?Skip@CRotMonikerEnum@@UAAJK@Z 10020628 f   ole32_ALL:CROT.obj
 0001:0001f658       ?Reset@CRotMonikerEnum@@UAAJXZ 10020658 f   ole32_ALL:CROT.obj
 0001:0001f668       ??0CMonikerPtrBuf@@QAA@AAV0@@Z 10020668 f   ole32_ALL:CROT.obj
 0001:0001f6b4       ??0CRotMonikerEnum@@QAA@XZ 100206b4 f   ole32_ALL:CROT.obj
 0001:0001f700       ??0CRotMonikerEnum@@QAA@AAV0@@Z 10020700 f   ole32_ALL:CROT.obj
 0001:0001f738       ?ReleaseInterfaceData@@YAXPAUtagInterfaceData@@K@Z 10020738 f   ole32_ALL:CROT.obj
 0001:0001f79c       ??1CROTItem@@QAA@XZ        1002079c f i ole32_ALL:CROT.obj
 0001:0001f814       ?CleanupApartment@CRunningObjectTable@@QAAJK@Z 10020814 f   ole32_ALL:CROT.obj
 0001:0001f8f4       ?Revoke@CRunningObjectTable@@UAAJK@Z 100208f4 f   ole32_ALL:CROT.obj
 0001:0001f9c8       ?IGetObject@CRunningObjectTable@@QAAJPAU_MnkEqBuf@@PAPAUIUnknown@@K@Z 100209c8 f   ole32_ALL:CROT.obj
 0001:0001fb18       ?IGetObjectByPath@CRunningObjectTable@@QAAJPAGPAPAUIUnknown@@K@Z 10020b18 f   ole32_ALL:CROT.obj
 0001:0001fb9c       ?CleanROTForApartment@@YAXXZ 10020b9c f   ole32_ALL:CROT.obj
 0001:0001fbf0       ?Release@CRotMonikerEnum@@UAAKXZ 10020bf0 f   ole32_ALL:CROT.obj
 0001:0001fc44       ?Clone@CRotMonikerEnum@@UAAJPAPAUIEnumMoniker@@@Z 10020c44 f   ole32_ALL:CROT.obj
 0001:0001fce4       ?LoadResultFromScm@CRotMonikerEnum@@QAAJPAU_MkInterfaceList@@@Z 10020ce4 f   ole32_ALL:CROT.obj
 0001:0001fda4       ?GetMonikerCompareBuffer@@YAJPAUIMoniker@@PAVCTmpMkEqBuf@@PAU_FILETIME@@PAPAUtagInterfaceData@@@Z 10020da4 f   ole32_ALL:CROT.obj
 0001:0001ffec       ??1CRunningObjectTable@@QAA@XZ 10020fec f   ole32_ALL:CROT.obj
 0001:00020080       ?Register@CRunningObjectTable@@UAAJKPAUIUnknown@@PAUIMoniker@@PAK@Z 10021080 f   ole32_ALL:CROT.obj
 0001:00020468       ?IsRunning@CRunningObjectTable@@UAAJPAUIMoniker@@@Z 10021468 f   ole32_ALL:CROT.obj
 0001:00020524       ?GetObjectW@CRunningObjectTable@@UAAJPAUIMoniker@@PAPAUIUnknown@@@Z 10021524 f   ole32_ALL:CROT.obj
 0001:000205d8       ?GetTimeOfLastChange@CRunningObjectTable@@UAAJPAUIMoniker@@PAU_FILETIME@@@Z 100215d8 f   ole32_ALL:CROT.obj
 0001:000206a8       ?EnumRunning@CRunningObjectTable@@UAAJPAPAUIEnumMoniker@@@Z 100216a8 f   ole32_ALL:CROT.obj
 0001:000207e0       ?DestroyRunningObjectTable@@YAXXZ 100217e0 f   ole32_ALL:CROT.obj
 0001:00020830       ?Create@CRunningObjectTable@@SAHXZ 10021830 f   ole32_ALL:CROT.obj
 0001:00020940       GetRunningObjectTable      10021940 f   ole32_ALL:CROT.obj
 0001:00020998       ?GetObjectFromRotByPath@@YAJPAGPAPAUIUnknown@@@Z 10021998 f   ole32_ALL:CROT.obj
 0001:000209f8       Ole32IsEqualGUID           100219f8 f   ole32_ALL:EQGUID.obj
 0001:00020a14       IsValidPtrIn               10021a14 f   ole32_ALL:VALID.obj
 0001:00020a38       IsValidPtrOut              10021a38 f   ole32_ALL:VALID.obj
 0001:00020a58       IsValidInterface           10021a58 f   ole32_ALL:VALID.obj
 0001:00020abc       IsValidIid                 10021abc f   ole32_ALL:VALID.obj
 0001:00020acc       ?wCreateObject@@YAJU_GUID@@ABU1@PAUIOleClientSite@@PAUIStorage@@GPAPAX@Z 10021acc f   ole32_ALL:create.obj
 0001:00020cc8       OleCreate                  10021cc8 f   ole32_ALL:create.obj
 0001:00020d88       ReadClassStg               10021d88 f   ole32_ALL:api.obj
 0001:00020e2c       WriteClassStg              10021e2c f   ole32_ALL:api.obj
 0001:00020e40       ReadClassStm               10021e40 f   ole32_ALL:api.obj
 0001:00020eb0       WriteClassStm              10021eb0 f   ole32_ALL:api.obj
 0001:00020ecc       ReleaseStgMedium           10021ecc f   ole32_ALL:api.obj
 0001:00020fd4       OleIsRunning               10021fd4 f   ole32_ALL:api.obj
 0001:00021034       OleRun                     10022034 f   ole32_ALL:api.obj
 0001:00021098       OleSetContainedObject      10022098 f   ole32_ALL:api.obj
 0001:00021100       OleDraw                    10022100 f   ole32_ALL:api.obj
 0001:000211a4       OleSave                    100221a4 f   ole32_ALL:api.obj
 0001:00021248       OleSetMenuDescriptor       10022248 f   ole32_ALL:inline.obj
 0001:00021250       ?GetClassId@CDirEntry@@QBA?AU_GUID@@XZ 10022250 f i ole32_ALL:docfile.obj
 0001:00021270       ?GetDirStart@CMSFHeader@@QBAKXZ 10022270 f i ole32_ALL:docfile.obj
 0001:00021278       ?GetSectorShift@CMSFHeader@@QBAGXZ 10022278 f i ole32_ALL:docfile.obj
 0001:00021280       ?GetData@CMSFHeader@@QAAPAVCMSFHeaderData@@XZ 10022280 f i ole32_ALL:docfile.obj
 0001:0002128c       DfGetClass                 1002228c f   ole32_ALL:docfile.obj
 0001:00021484       ?Release@CPerContext@@QAAXXZ 10022484 f i ole32_ALL:docfile.obj
 0001:000214d8       ?InitNewContext@CPerContext@@QAAJHK@Z 100224d8 f i ole32_ALL:docfile.obj
 0001:000215b4       ?DfFromLB@@YAJPAUIMalloc@@PAUILockBytes@@KKPAPAGPAPAUCExposedDocFile@@PAU_GUID@@@Z 100225b4 f   ole32_ALL:docfile.obj
 0001:00021808       ?DfFromName@@YAJPBGKKPAPAGPAPAUCExposedDocFile@@PAU_GUID@@@Z 10022808 f   ole32_ALL:docfile.obj
 0001:000219a8       DfCreateDocfile            100229a8 f   ole32_ALL:docfile.obj
 0001:00021ad0       StgCreateDocfile_DOCFILE   10022ad0 f   ole32_ALL:docfile.obj
 0001:00021af8       StgCreateDocfileOnILockBytes 10022af8 f   ole32_ALL:docfile.obj
 0001:00021c88       ?OpenStorage@@YAJPBGPAXPAUIStorage@@KPAPAGKPAPAU1@PAU_GUID@@@Z 10022c88 f   ole32_ALL:docfile.obj
 0001:00021e40       ?OpenStorageOnILockBytes@@YAJPAUILockBytes@@PAUIStorage@@KPAPAGKPAPAU2@PAU_GUID@@@Z 10022e40 f   ole32_ALL:docfile.obj
 0001:00021ff4       DfOpenDocfile              10022ff4 f   ole32_ALL:storage.obj
 0001:00022050       StgOpenStorage_DOCFILE     10023050 f   ole32_ALL:storage.obj
 0001:000220d0       StgOpenStorageOnILockBytes 100230d0 f   ole32_ALL:storage.obj
 0001:0002211c       ?CheckSignature@@YAJPAE@Z  1002311c f   ole32_ALL:storage.obj
 0001:00022188       ?Cleanup@CRpcResolver@@QAAXXZ 10023188 f   ole32_ALL:RESOLVER.obj
 0001:0002226c       ?ServerGetReservedID@CRpcResolver@@QAAJPA_K@Z 1002326c f   ole32_ALL:RESOLVER.obj
 0001:0002234c       ?ServerCanRundownOID@CRpcResolver@@QAAHAB_K@Z 1002334c f   ole32_ALL:RESOLVER.obj
 0001:000223d4       ?WaitForOXIDEntry@CRpcResolver@@AAAJPAUtagOXIDEntry@@@Z 100233d4 f   ole32_ALL:RESOLVER.obj
 0001:000224a0       ?CheckForWaiters@CRpcResolver@@AAAXPAUtagOXIDEntry@@@Z 100234a0 f   ole32_ALL:RESOLVER.obj
 0001:000224dc       ?ServerRegisterOXID@CRpcResolver@@AAAJPAUtagOXIDEntry@@PAKQA_K@Z 100234dc f   ole32_ALL:RESOLVER.obj
 0001:000226bc       ?ServerFreeOXID@CRpcResolver@@QAAJPAUtagOXIDEntry@@@Z 100236bc f   ole32_ALL:RESOLVER.obj
 0001:000227dc       ?ClientResolveOXID@CRpcResolver@@QAAJAB_KPAUtagDUALSTRINGARRAY@@PAPAUtagOXIDEntry@@@Z 100237dc f   ole32_ALL:RESOLVER.obj
 0001:0002296c       ?MakeSCMProxy@@YAJPAUtagDUALSTRINGARRAY@@ABU_GUID@@PAPAX@Z 1002396c f   ole32_ALL:RESOLVER.obj
 0001:00022b38       ?BindToSCMProxy@CRpcResolver@@QAAJXZ 10023b38 f   ole32_ALL:RESOLVER.obj
 0001:00022bcc       ?NotifyStopped@CRpcResolver@@QAAXABU_GUID@@K@Z 10023bcc f   ole32_ALL:RESOLVER.obj
 0001:00022c74       ?SetDynamicSecurity@CRpcResolver@@QAAXXZ 10023c74 f   ole32_ALL:RESOLVER.obj
 0001:00022c88       ?ReleaseSCMProxy@CRpcResolver@@QAAXXZ 10023c88 f   ole32_ALL:RESOLVER.obj
 0001:00022d20       ?ServerGetReservedMOID@CRpcResolver@@QAAJPAU_GUID@@@Z 10023d20 f   ole32_ALL:RESOLVER.obj
 0001:00022d68       ?ServerAllocOIDs@CRpcResolver@@AAAJPAUtagOXIDEntry@@PAKPA_K@Z 10023d68 f   ole32_ALL:RESOLVER.obj
 0001:00022e68       ?ClientFreeSOIDReg@@YAXPAUSOIDRegistration@@PAPAUtagOXIDEntry@@@Z 10023e68 f   ole32_ALL:RESOLVER.obj
 0001:00022ec8       ?GetConnection@CRpcResolver@@QAAJXZ 10023ec8 f   ole32_ALL:RESOLVER.obj
 0001:00023124       ?ServerAllocMoreOIDs@CRpcResolver@@AAAJPAKPA_KPAUtagOXIDEntry@@@Z 10024124 f   ole32_ALL:RESOLVER.obj
 0001:00023188       ?ClientBulkUpdateOIDWithPingServer@CRpcResolver@@CAJXZ 10024188 f   ole32_ALL:RESOLVER.obj
 0001:00023544       ?WorkerThreadLoop@CRpcResolver@@CAKPAX@Z 10024544 f   ole32_ALL:RESOLVER.obj
 0001:000235b4       ?NotifyStarted@CRpcResolver@@QAAJPAU_RegInput@@PAPAU_RegOutput@@@Z 100245b4 f   ole32_ALL:RESOLVER.obj
 0001:000236a4       ?GetClassObject@CRpcResolver@@QAAJABU_GUID@@KPAU2@PAU_COSERVERINFO@@PAPAUtagMInterfacePointer@@PAKPAPAG@Z 100246a4 f   ole32_ALL:RESOLVER.obj
 0001:0002387c       ?CreateInstance@CRpcResolver@@QAAJPAU_COSERVERINFO@@PAU_GUID@@KK1PAPAUtagMInterfacePointer@@PAJPAKPAPAG@Z 1002487c f   ole32_ALL:RESOLVER.obj
 0001:00023a70       ?GetPersistentInstance@CRpcResolver@@QAAJPAU_COSERVERINFO@@PAU_GUID@@KKHPAGPAUtagMInterfacePointer@@K1PAHPAPAU4@PAJPAKPAPAG@Z 10024a70 f   ole32_ALL:RESOLVER.obj
 0001:00023cb0       ?IrotRegister@CRpcResolver@@QAAJPAU_MnkEqBuf@@PAUtagInterfaceData@@1PAU_FILETIME@@KPAGPAU_SCMREGKEY@@@Z 10024cb0 f   ole32_ALL:RESOLVER.obj
 0001:00023da8       ?IrotRevoke@CRpcResolver@@QAAJPAU_SCMREGKEY@@HPAPAUtagInterfaceData@@1@Z 10024da8 f   ole32_ALL:RESOLVER.obj
 0001:00023e2c       ?IrotIsRunning@CRpcResolver@@QAAJPAU_MnkEqBuf@@@Z 10024e2c f   ole32_ALL:RESOLVER.obj
 0001:00023eec       ?IrotGetObject@CRpcResolver@@QAAJKPAU_MnkEqBuf@@PAU_SCMREGKEY@@PAPAUtagInterfaceData@@@Z 10024eec f   ole32_ALL:RESOLVER.obj
 0001:00023fc4       ?IrotNoteChangeTime@CRpcResolver@@QAAJPAU_SCMREGKEY@@PAU_FILETIME@@@Z 10024fc4 f   ole32_ALL:RESOLVER.obj
 0001:00024034       ?IrotGetTimeOfLastChange@CRpcResolver@@QAAJPAU_MnkEqBuf@@PAU_FILETIME@@@Z 10025034 f   ole32_ALL:RESOLVER.obj
 0001:000240fc       ?IrotEnumRunning@CRpcResolver@@QAAJPAPAU_MkInterfaceList@@@Z 100250fc f   ole32_ALL:RESOLVER.obj
 0001:000241bc       ?GetThreadID@CRpcResolver@@QAAXPAK@Z 100251bc f   ole32_ALL:RESOLVER.obj
 0001:00024224       ?UpdateActivationSettings@CRpcResolver@@QAAXXZ 10025224 f   ole32_ALL:RESOLVER.obj
 0001:00024270       ?ScmGetThreadId@@YAXPAK@Z  10025270 f   ole32_ALL:RESOLVER.obj
 0001:00024280       UpdateDCOMSettings         10025280 f   ole32_ALL:RESOLVER.obj
 0001:0002428c       ?ServerGetPreRegMOID@CRpcResolver@@QAAJPAU_GUID@@@Z 1002528c f   ole32_ALL:RESOLVER.obj
 0001:000243e4       ?EnsureWorkerThread@CRpcResolver@@AAAJXZ 100253e4 f   ole32_ALL:RESOLVER.obj
 0001:00024448       ?ClientRegisterOIDWithPingServer@CRpcResolver@@QAAJAB_KPAUtagOXIDEntry@@@Z 10025448 f   ole32_ALL:RESOLVER.obj
 0001:00024668       ?ClientDeRegisterOIDFromPingServer@CRpcResolver@@QAAJABU_GUID@@HPAPAVCRefCache@@@Z 10025668 f   ole32_ALL:RESOLVER.obj
 0001:000247c4       ?PrivHeapAlloc@@YAPAXPAXKK@Z 100257c4 f   ole32_ALL:CCOMPAPI.obj
 0001:00024810       ?PrivHeapFree@@YAHPAXK0@Z  10025810 f   ole32_ALL:CCOMPAPI.obj
 0001:00024818       ?wStringFromUUID@@YAJABU_GUID@@PAG@Z 10025818 f   ole32_ALL:CCOMPAPI.obj
 0001:00024890       ?wStringFromGUID2@@YAHABU_GUID@@PAGH@Z 10025890 f   ole32_ALL:CCOMPAPI.obj
 0001:000248cc       ?TLSAllocData@COleTls@@AAAJXZ 100258cc f   ole32_ALL:TLS.obj
 0001:00024954       ?TLSIsWOWThread@@YAEXZ     10025954 f   ole32_ALL:TLS.obj
 0001:00024974       ?TLSIsThreadDetaching@@YAEXZ 10025974 f   ole32_ALL:TLS.obj
 0001:00024994       ?TLSGetLogicalThread@@YAPAU_GUID@@XZ 10025994 f   ole32_ALL:TLS.obj
 0001:000249f4       ?DoThreadSpecificCleanup@@YAXXZ 100259f4 f   ole32_ALL:TLS.obj
 0001:00024ad8       ?DoThreadSpecificCleanupWrapper@@YAXKPAX@Z 10025ad8 f   ole32_ALL:TLS.obj
 0001:00024af4       ThreadNotification         10025af4 f   ole32_ALL:TLS.obj
 0001:00024b74       ?Destroy@COleStaticMutexSem@@QAAXXZ 10025b74 f   ole32_ALL:OLESEM.obj
 0001:00024b9c       ?Init@COleStaticMutexSem@@QAAXXZ 10025b9c f   ole32_ALL:OLESEM.obj
 0001:00024bd4       ??1COleStaticMutexSem@@UAA@XZ 10025bd4 f   ole32_ALL:OLESEM.obj
 0001:00024c08       ?Request@COleStaticMutexSem@@QAAXXZ 10025c08 f   ole32_ALL:OLESEM.obj
 0001:00024c4c       ??2@YAPAXI@Z               10025c4c f   ole32_ALL:W32NEW.obj
 0001:00024c78       ??3@YAXPAX@Z               10025c78 f   ole32_ALL:W32NEW.obj
 0001:00024ca4       ?InitializeAccessControl@@YAJXZ 10025ca4 f   ole32_ALL:ACSRV.obj
 0001:00024cbc       ?UninitializeAccessControl@@YAXXZ 10025cbc f   ole32_ALL:ACSRV.obj
 0001:00024cec       ?ComDllGetClassObject@@YAJABU_GUID@@0PAPAX@Z 10025cec f   ole32_ALL:ACSRV.obj
 0001:00024e14       PrxDllGetClassObject       10025e14 f   ole32_ALL:DLLDATAX.obj
 0001:00024e48       CStdStubBuffer_Release     10025e48 f   ole32_ALL:DLLDATAX.obj
 0001:00024e54       _purecall                  10025e54 f   ole32_ALL:DLLDATAX.obj
 0001:00024e58       ?AddRef@CMonikerFactory@@UAAKXZ 10025e58 f   ole32_ALL:CFACTORY.obj
 0001:00024e60       ?Release@CMonikerFactory@@UAAKXZ 10025e60 f   ole32_ALL:CFACTORY.obj
 0001:00024e68       ?LockServer@CMonikerFactory@@UAAJH@Z 10025e68 f   ole32_ALL:CFACTORY.obj
 0001:00024e78       ?CreateInstance@CClassMonikerFactory@@UAAJPAUIUnknown@@ABU_GUID@@PAPAX@Z 10025e78 f   ole32_ALL:CFACTORY.obj
 0001:00024f7c       ?ParseClassID@@YAJPBGPAKPAU_GUID@@@Z 10025f7c f   ole32_ALL:CFACTORY.obj
 0001:00024ff8       ?ParseDisplayName@CClassMonikerFactory@@UAAJPAUIBindCtx@@PAGPAKPAPAUIMoniker@@@Z 10025ff8 f   ole32_ALL:CFACTORY.obj
 0001:00025264       ?CreateInstance@CFileMonikerFactory@@UAAJPAUIUnknown@@ABU_GUID@@PAPAX@Z 10026264 f   ole32_ALL:CFACTORY.obj
 0001:0002535c       ?ParseDisplayName@CFileMonikerFactory@@UAAJPAUIBindCtx@@PAGPAKPAPAUIMoniker@@@Z 1002635c f   ole32_ALL:CFACTORY.obj
 0001:00025464       ?CreateInstance@CObjrefMonikerFactory@@UAAJPAUIUnknown@@ABU_GUID@@PAPAX@Z 10026464 f   ole32_ALL:CFACTORY.obj
 0001:00025548       ?Release@CMonikerFactory@@W3AAKXZ 10026548 f i ole32_ALL:CFACTORY.obj
 0001:00025550       ?AddRef@CMonikerFactory@@W3AAKXZ 10026550 f i ole32_ALL:CFACTORY.obj
 0001:00025560       ?QueryInterface@CMonikerFactory@@UAAJABU_GUID@@PAPAX@Z 10026560 f   ole32_ALL:CFACTORY.obj
 0001:00025654       ?ParseDisplayName@CObjrefMonikerFactory@@UAAJPAUIBindCtx@@PAGPAKPAPAUIMoniker@@@Z 10026654 f   ole32_ALL:CFACTORY.obj
 0001:000258b4       ?QueryInterface@CMonikerFactory@@W3AAJABU_GUID@@PAPAX@Z 100268b4 f i ole32_ALL:CFACTORY.obj
 0001:000258bc       ?MonikerDllGetClassObject@@YAJABU_GUID@@0PAPAX@Z 100268bc f   ole32_ALL:CFACTORY.obj
 0001:00025950       ?AddRef@CDllHost@@UAAKXZ   10026950 f   ole32_ALL:DLLHOST.obj
 0001:00025958       ?Release@CDllHost@@UAAKXZ  10026958 f   ole32_ALL:DLLHOST.obj
 0001:00025960       ?DllGetClassObject@CDllHost@@UAAJKABU_GUID@@0PAPAUIUnknown@@@Z 10026960 f   ole32_ALL:DLLHOST.obj
 0001:0002597c       ?Marshal@CDllHost@@AAAJXZ  1002697c f   ole32_ALL:DLLHOST.obj
 0001:000259c4       ?ServerCleanup@CDllHost@@AAAXK@Z 100269c4 f   ole32_ALL:DLLHOST.obj
 0001:00025a04       ?DllHostProcessInitialize@@YAXXZ 10026a04 f   ole32_ALL:DLLHOST.obj
 0001:00025b04       ?QueryInterface@CDllHost@@UAAJABU_GUID@@PAPAX@Z 10026b04 f   ole32_ALL:DLLHOST.obj
 0001:00025b78       ?GetSingleThreadHost@CDllHost@@AAAJXZ 10026b78 f   ole32_ALL:DLLHOST.obj
 0001:00025bd0       ?WorkerThread@CDllHost@@AAAJXZ 10026bd0 f   ole32_ALL:DLLHOST.obj
 0001:00025ce4       ?ClientCleanup@CDllHost@@AAAXXZ 10026ce4 f   ole32_ALL:DLLHOST.obj
 0001:00025dac       ?DllHostProcessUninitialize@@YAXXZ 10026dac f   ole32_ALL:DLLHOST.obj
 0001:00025de4       ?DllHostThreadUninitialize@@YAXXZ 10026de4 f   ole32_ALL:DLLHOST.obj
 0001:00025e5c       ?GetSingleThreadedHost@@YAJJ@Z 10026e5c f   ole32_ALL:DLLHOST.obj
 0001:00025e60       ?DLLHostThreadEntry@@YAKPAX@Z 10026e60 f   ole32_ALL:DLLHOST.obj
 0001:00025e64       ?GetHostProxy@CDllHost@@AAAPAUIDLLHost@@XZ 10026e64 f   ole32_ALL:DLLHOST.obj
 0001:00025fa4       ?GetClassObject@CDllHost@@QAAJP6AJABU_GUID@@0PAPAX@Z00PAPAUIUnknown@@@Z 10026fa4 f   ole32_ALL:DLLHOST.obj
 0001:00026010       ?DoSTClassCreate@@YAJP6AJABU_GUID@@0PAPAX@Z00PAPAUIUnknown@@@Z 10027010 f   ole32_ALL:DLLHOST.obj
 0001:00026040       ?DoSTMTClassCreate@@YAJP6AJABU_GUID@@0PAPAX@Z00PAPAUIUnknown@@@Z 10027040 f   ole32_ALL:DLLHOST.obj
 0001:00026070       ?DoATClassCreate@@YAJP6AJABU_GUID@@0PAPAX@Z00PAPAUIUnknown@@@Z 10027070 f   ole32_ALL:DLLHOST.obj
 0001:000260a0       ?DoMTClassCreate@@YAJP6AJABU_GUID@@0PAPAX@Z00PAPAUIUnknown@@@Z 100270a0 f   ole32_ALL:DLLHOST.obj
 0001:000261d0       ?SearchForPattern@CPatternTbl@@AAAJPAXPAU_GUID@@@Z 100271d0 f   ole32_ALL:PATTBL.obj
 0001:000263c8       ?InitTbl@CScmPatternTbl@@QAAJXZ 100273c8 f   ole32_ALL:PATTBL.obj
 0001:000267c8       ??0CProcessPatternTbl@@QAA@AAJ@Z 100277c8 f   ole32_ALL:PATTBL.obj
 0001:00026894       ??_GCScmPatternTbl@@QAAPAXI@Z 10027894 f i ole32_ALL:PATTBL.obj
 0001:000268e4       ?FindPattern@CProcessPatternTbl@@QAAJPAXPAU_GUID@@@Z 100278e4 f   ole32_ALL:PATTBL.obj
 0001:00026914       ??1CProcessPatternTbl@@QAA@XZ 10027914 f   ole32_ALL:PATTBL.obj
 0001:0002695c       ?CleanupExtEntry@@YAXPAUSHashChain@@@Z 1002795c f   ole32_ALL:pexttbl.obj
 0001:00026990       ??1CProcessExtensionTbl@@QAA@XZ 10027990 f   ole32_ALL:pexttbl.obj
 0001:000269d8       ?AddEntry@CProcessExtensionTbl@@AAAJABU_GUID@@PBGK@Z 100279d8 f   ole32_ALL:pexttbl.obj
 0001:00026ab4       ?GetClsid@CProcessExtensionTbl@@QAAJPBGPAU_GUID@@@Z 10027ab4 f   ole32_ALL:pexttbl.obj
 0001:00026bc4       ??0CProcessExtensionTbl@@QAA@XZ 10027bc4 f   ole32_ALL:pexttbl.obj
 0001:00026c24       ??1CDllCache@@QAA@XZ       10027c24 f   ole32_ALL:DLLCACHE.obj
 0001:00026c3c       ?Load@CDllCache@@AAAJPBGPAP6AJABU_GUID@@1PAPAX@ZPAP6AJXZPAPAUHINSTANCE__@@@Z 10027c3c f   ole32_ALL:DLLCACHE.obj
 0001:00026cdc       ?CreateClsentLSvr@CDllCache@@AAAJKABU_GUID@@PAUIUnknown@@KKK@Z 10027cdc f   ole32_ALL:DLLCACHE.obj
 0001:00026f88       ?CreateClsentInProc@CDllCache@@AAAJKKKKABU_GUID@@@Z 10027f88 f   ole32_ALL:DLLCACHE.obj
 0001:00027114       ?Release@CDllCache@@AAAJK@Z 10028114 f   ole32_ALL:DLLCACHE.obj
 0001:00027260       ?InitDllent@CDllCache@@AAAXKK@Z 10028260 f   ole32_ALL:DLLCACHE.obj
 0001:000272d4       ?NewAptEntries@CDllCache@@AAAHK@Z 100282d4 f   ole32_ALL:DLLCACHE.obj
 0001:00027348       ?AllocAptEntry@CDllCache@@AAAKK@Z 10028348 f   ole32_ALL:DLLCACHE.obj
 0001:000274ac       ?FreeAptEntry@CDllCache@@AAAXKK@Z 100284ac f   ole32_ALL:DLLCACHE.obj
 0001:00027554       ?IsValidInApartment@CDllCache@@AAAHKK@Z 10028554 f   ole32_ALL:DLLCACHE.obj
 0001:0002759c       ?MakeValidInApartment@CDllCache@@AAAJK@Z 1002859c f   ole32_ALL:DLLCACHE.obj
 0001:00027730       ?GetClassInterface@CDllCache@@QAAPAUIUnknown@@KKABU_GUID@@0AAJ@Z 10028730 f   ole32_ALL:DLLCACHE.obj
 0001:000278d4       ?CanUnloadNow@CDllCache@@QAAJKK@Z 100288d4 f   ole32_ALL:DLLCACHE.obj
 0001:000279f8       ?RemoveAndUnload@CDllCache@@QAAXK@Z 100289f8 f   ole32_ALL:DLLCACHE.obj
 0001:00027ab4       ?AddRefServerProcess@CDllCache@@QAAKXZ 10028ab4 f   ole32_ALL:DLLCACHE.obj
 0001:00027adc       ?SuspendProcessClassObjects@CDllCache@@QAAJXZ 10028adc f   ole32_ALL:DLLCACHE.obj
 0001:00027b40       ?ResumeProcessClassObjects@CDllCache@@QAAJXZ 10028b40 f   ole32_ALL:DLLCACHE.obj
 0001:00027d5c       ?Search@CDllCache@@AAAKABU_GUID@@KK@Z 10028d5c f   ole32_ALL:DLLCACHE.obj
 0001:00027de0       ?AllocClassEntry@CDllCache@@AAAKXZ 10028de0 f   ole32_ALL:DLLCACHE.obj
 0001:00027f1c       ?AllocDllPathEntry@CDllCache@@AAAKXZ 10028f1c f   ole32_ALL:DLLCACHE.obj
 0001:00028050       ?FreeClassEntry@CDllCache@@AAAXK@Z 10029050 f   ole32_ALL:DLLCACHE.obj
 0001:0002819c       ?FreeDllPathEntry@CDllCache@@AAAXK@Z 1002919c f   ole32_ALL:DLLCACHE.obj
 0001:00028250       ?Hash@CDllCache@@AAAKPAG@Z 10029250 f   ole32_ALL:DLLCACHE.obj
 0001:00028288       ?OleMainThreadWndProc@@YAJPAUHWND__@@IIJ@Z 10029288 f   ole32_ALL:DLLCACHE.obj
 0001:000282dc       ?UninitMainThreadWnd@@YAXXZ 100292dc f   ole32_ALL:DLLCACHE.obj
 0001:0002836c       ??0CDllCache@@QAA@XZ       1002936c f   ole32_ALL:DLLCACHE.obj
 0001:000283b8       ?CreateDllent@CDllCache@@AAAJKPBGP6AJABU_GUID@@1PAPAX@ZP6AJXZPAUHINSTANCE__@@@Z 100293b8 f   ole32_ALL:DLLCACHE.obj
 0001:00028594       ?CleanUpForApartmentByDllent@CDllCache@@AAAHKK@Z 10029594 f   ole32_ALL:DLLCACHE.obj
 0001:0002866c       ?GetClass@CDllCache@@QAAJABU_GUID@@0HHHPAPAUIUnknown@@@Z 1002966c f   ole32_ALL:DLLCACHE.obj
 0001:00028938       ?FreeUnused@CDllCache@@QAAXK@Z 10029938 f   ole32_ALL:DLLCACHE.obj
 0001:00028a1c       ?RegisterServer@CDllCache@@QAAJABU_GUID@@PAUIUnknown@@KKPAK@Z 10029a1c f   ole32_ALL:DLLCACHE.obj
 0001:00028afc       ?Revoke@CDllCache@@QAAJK@Z 10029afc f   ole32_ALL:DLLCACHE.obj
 0001:00028c2c       ?ReleaseServerProcess@CDllCache@@QAAKXZ 10029c2c f   ole32_ALL:DLLCACHE.obj
 0001:00028c60       ?CleanUpLocalServersForApartment@CDllCache@@QAAXXZ 10029c60 f   ole32_ALL:DLLCACHE.obj
 0001:00028d30       ?CleanUpDllsForApartment@CDllCache@@QAAXXZ 10029d30 f   ole32_ALL:DLLCACHE.obj
 0001:00028e18       ?CleanUpDllsForProcess@CDllCache@@QAAXXZ 10029e18 f   ole32_ALL:DLLCACHE.obj
 0001:00028f00       ?SearchForDll@CDllCache@@AAAKPBG@Z 10029f00 f   ole32_ALL:DLLCACHE.obj
 0001:00029060       ?CleanUpDllsForProcess@@YAXXZ 1002a060 f   ole32_ALL:DLLCACHE.obj
 0001:00029080       ?CleanUpDllsForApartment@@YAXXZ 1002a080 f   ole32_ALL:DLLCACHE.obj
 0001:000290a0       ?CleanUpLocalServersForApartment@@YAXXZ 1002a0a0 f   ole32_ALL:DLLCACHE.obj
 0001:000290ac       ?InitMainThreadWnd@@YAHXZ  1002a0ac f   ole32_ALL:DLLCACHE.obj
 0001:000291f4       ?CallFreeUnused@@YAJK@Z    1002a1f4 f   ole32_ALL:DLLCACHE.obj
 0001:00029224       ?Add@CDllCache@@QAAPAUIUnknown@@ABU_GUID@@0KPBGHAAJ@Z 1002a224 f   ole32_ALL:DLLCACHE.obj
 0001:000294b0       ?GetOrLoadClass@CDllCache@@QAAPAUIUnknown@@ABU_GUID@@0HHKKAAJ@Z 1002a4b0 f   ole32_ALL:DLLCACHE.obj
 0001:000297b0       ?FreeSurrogate@CCOMSurrogate@@SAJXZ 1002a7b0 f i ole32_ALL:IDTABLE.obj
 0001:00029828       ?LookupIDFromUnk@@YAJPAUIUnknown@@KPAPAVCStdIdentity@@@Z 1002a828 f   ole32_ALL:IDTABLE.obj
 0001:00029b68       ?LookupIDFromID@@YAJABU_GUID@@HPAPAVCStdIdentity@@@Z 1002ab68 f   ole32_ALL:IDTABLE.obj
 0001:00029c80       ?SetObjectID@@YAJABU_GUID@@PAUIUnknown@@PAVCStdIdentity@@@Z 1002ac80 f   ole32_ALL:IDTABLE.obj
 0001:00029db0       ?ClearObjectID@@YAJABU_GUID@@PAUIUnknown@@PAVCStdIdentity@@@Z 1002adb0 f   ole32_ALL:IDTABLE.obj
 0001:00029ea4       ?FreeSurrogateIfNecessary@@YAXXZ 1002aea4 f   ole32_ALL:IDTABLE.obj
 0001:00029f14       ?IDTableThreadUninitializeHelper@@YAXK@Z 1002af14 f   ole32_ALL:IDTABLE.obj
 0001:00029fc8       ?IDTableThreadUninitialize@@YAXXZ 1002afc8 f   ole32_ALL:IDTABLE.obj
 0001:0002a018       ?IDTableProcessUninitialize@@YAXXZ 1002b018 f   ole32_ALL:IDTABLE.obj
 0001:0002a064       ??0CChannelCallInfo@@QAA@W4tagCALLCATEGORY@@PAUtagRPCOLEMESSAGE@@KABU_GUID@@KUtagCOMVERSION@@PAVCRpcChannelBuffer@@K@Z 1002b064 f   ole32_ALL:CHANCONT.obj
 0001:0002a10c       ?ProtectedPostToSTA@@YAJPAUtagOXIDEntry@@PAVCChannelCallInfo@@@Z 1002b10c f   ole32_ALL:CHANCONT.obj
 0001:0002a160       ?Cleanup@CEventCache@@QAAXXZ 1002b160 f   ole32_ALL:CHANCONT.obj
 0001:0002a1a8       ?Free@CEventCache@@QAAXPAX@Z 1002b1a8 f   ole32_ALL:CHANCONT.obj
 0001:0002a208       ?Get@CEventCache@@QAAJPAPAX@Z 1002b208 f   ole32_ALL:CHANCONT.obj
 0001:0002a264       ??1CChannelCallInfo@@QAA@XZ 1002b264 f   ole32_ALL:CHANCONT.obj
 0001:0002a2bc       ?GetToSTA@@YAJPAUtagOXIDEntry@@PAVCChannelCallInfo@@@Z 1002b2bc f   ole32_ALL:CHANCONT.obj
 0001:0002a3f8       ?ModalLoop@@YAJPAVCChannelCallInfo@@@Z 1002b3f8 f   ole32_ALL:CHANCONT.obj
 0001:0002a4b8       ?ThreadDispatch@@YAKPAX@Z  1002b4b8 f   ole32_ALL:CHANCONT.obj
 0001:0002a5f8       ?ThreadCleanup@@YAXXZ      1002b5f8 f   ole32_ALL:CHANCONT.obj
 0001:0002a664       ThreadStop                 1002b664 f   ole32_ALL:CHANCONT.obj
 0001:0002a760       ?ThreadWndProc@@YAJPAUHWND__@@IIJ@Z 1002b760 f   ole32_ALL:CHANCONT.obj
 0001:0002a87c       ?TransmitCall@@YAJPAUtagOXIDEntry@@PAVCChannelCallInfo@@@Z 1002b87c f   ole32_ALL:CHANCONT.obj
 0001:0002aab0       ?Cancel@@YAXPAPAVCChannelCallInfo@@@Z 1002bab0 f   ole32_ALL:CHANCONT.obj
 0001:0002ab9c       ?SwitchSTA@@YAJPAUtagOXIDEntry@@PAPAVCChannelCallInfo@@@Z 1002bb9c f   ole32_ALL:CHANCONT.obj
 0001:0002abf4       ?ThreadStart@@YAJXZ        1002bbf4 f   ole32_ALL:CHANCONT.obj
 0001:0002ad10       ?OleDllMain@@YAHPAXK0@Z    1002bd10 f   ole32_ALL:main.obj
 0001:0002ad50       ?RegisterLrpc@@YAJXZ       1002bd50 f   ole32_ALL:SERVICE.obj
 0001:0002ae00       ?DefaultStringBindings@@YAJXZ 1002be00 f   ole32_ALL:SERVICE.obj
 0001:0002af14       ?InquireStringBindings@@YAHPAG@Z 1002bf14 f   ole32_ALL:SERVICE.obj
 0001:0002b270       ?CopyStringArray@@YAJPAUtagDUALSTRINGARRAY@@0PAPAU1@@Z 1002c270 f   ole32_ALL:SERVICE.obj
 0001:0002b330       ?UnregisterDcomInterfaces@@YAJXZ 1002c330 f   ole32_ALL:SERVICE.obj
 0001:0002b3a0       ?Initialize@CEndpointsTable@@QAAXXZ 1002c3a0 f   ole32_ALL:SERVICE.obj
 0001:0002b3cc       ??0CEndpointEntry@@QAA@GPAGK@Z 1002c3cc f   ole32_ALL:SERVICE.obj
 0001:0002b434       ?FindEntry@CEndpointsTable@@QAAPAVCEndpointEntry@@G@Z 1002c434 f   ole32_ALL:SERVICE.obj
 0001:0002b5ac       ?IsAllowableProtseq@@YAHGGQAG@Z 1002c5ac f   ole32_ALL:SERVICE.obj
 0001:0002b5ec       ?CheckClientMswmsg@@YAJPAGPAK@Z 1002c5ec f   ole32_ALL:SERVICE.obj
 0001:0002b66c       StartListen                1002c66c f   ole32_ALL:SERVICE.obj
 0001:0002b810       _UseProtseq                1002c810 f   ole32_ALL:SERVICE.obj
 0001:0002b958       ?AddEntry@CEndpointsTable@@QAAPAVCEndpointEntry@@GPAGK@Z 1002c958 f   ole32_ALL:SERVICE.obj
 0001:0002b9f4       ?wCoRegisterComBinding@@YAJPAG0K@Z 1002c9f4 f   ole32_ALL:SERVICE.obj
 0001:0002bbc4       ?Cleanup@CEndpointsTable@@QAAXXZ 1002cbc4 f   ole32_ALL:SERVICE.obj
 0001:0002bc2c       ?wGetEndpointsForApp@@YAJPAU_GUID@@@Z 1002cc2c f   ole32_ALL:SERVICE.obj
 0001:0002bd30       _GetCustomProtseqInfo      1002cd30 f   ole32_ALL:SERVICE.obj
 0001:0002bf88       ?IsItemMoniker@@YAPAVCItemMoniker@@PAUIMoniker@@@Z 1002cf88 f   ole32_ALL:CITEMMON.obj
 0001:0002bfcc       ?UnInit@CItemMoniker@@AAAXXZ 1002cfcc f   ole32_ALL:CITEMMON.obj
 0001:0002c094       ?Initialize@CItemMoniker@@AAAXPAGGPADG0G1G@Z 1002d094 f   ole32_ALL:CITEMMON.obj
 0001:0002c0e4       ?Initialize@CItemMoniker@@AAAHPBG0@Z 1002d0e4 f   ole32_ALL:CITEMMON.obj
 0001:0002c1e0       ?GetClassID@CItemMoniker@@UAAJPAU_GUID@@@Z 1002d1e0 f   ole32_ALL:CITEMMON.obj
 0001:0002c23c       ?WriteDoubleString@@YAJPAUIStream@@PAGGPADG@Z 1002d23c f   ole32_ALL:CITEMMON.obj
 0001:0002c374       ?ExtractUnicodeString@@YAJPADGAAPAGAAG@Z 1002d374 f   ole32_ALL:CITEMMON.obj
 0001:0002c45c       ?Load@CItemMoniker@@UAAJPAUIStream@@@Z 1002d45c f   ole32_ALL:CITEMMON.obj
 0001:0002c5bc       ?SaveUnicodeAsAnsi@@YAJPAUIStream@@PAGGPADG@Z 1002d5bc f   ole32_ALL:CITEMMON.obj
 0001:0002c694       ?Save@CItemMoniker@@UAAJPAUIStream@@H@Z 1002d694 f   ole32_ALL:CITEMMON.obj
 0001:0002c704       ?GetSizeMax@CItemMoniker@@UAAJPAT_ULARGE_INTEGER@@@Z 1002d704 f   ole32_ALL:CITEMMON.obj
 0001:0002c770       ?BindSpeedFromBindCtx@@YAKPAUIBindCtx@@@Z 1002d770 f   ole32_ALL:CITEMMON.obj
 0001:0002c7c8       ?ComposeWith@CItemMoniker@@UAAJPAUIMoniker@@HPAPAU2@@Z 1002d7c8 f   ole32_ALL:CITEMMON.obj
 0001:0002c870       ?Enum@CItemMoniker@@UAAJHPAPAUIEnumMoniker@@@Z 1002d870 f   ole32_ALL:CITEMMON.obj
 0001:0002c8a0       ?IsEqual@CItemMoniker@@UAAJPAUIMoniker@@@Z 1002d8a0 f   ole32_ALL:CITEMMON.obj
 0001:0002c910       ?IsRunning@CItemMoniker@@UAAJPAUIBindCtx@@PAUIMoniker@@1@Z 1002d910 f   ole32_ALL:CITEMMON.obj
 0001:0002caf0       ?GetTimeOfLastChange@CItemMoniker@@UAAJPAUIBindCtx@@PAUIMoniker@@PAU_FILETIME@@@Z 1002daf0 f   ole32_ALL:CITEMMON.obj
 0001:0002cc24       ?Inverse@CItemMoniker@@UAAJPAPAUIMoniker@@@Z 1002dc24 f   ole32_ALL:CITEMMON.obj
 0001:0002cc54       ?CommonPrefixWith@CItemMoniker@@UAAJPAUIMoniker@@PAPAU2@@Z 1002dc54 f   ole32_ALL:CITEMMON.obj
 0001:0002ccfc       ?RelativePathTo@CItemMoniker@@UAAJPAUIMoniker@@PAPAU2@@Z 1002dcfc f   ole32_ALL:CITEMMON.obj
 0001:0002cd4c       ?GetDisplayName@CItemMoniker@@UAAJPAUIBindCtx@@PAUIMoniker@@PAPAG@Z 1002dd4c f   ole32_ALL:CITEMMON.obj
 0001:0002ce28       ?IsSystemMoniker@CItemMoniker@@UAAJPAK@Z 1002de28 f   ole32_ALL:CITEMMON.obj
 0001:0002ce58       ?GetComparisonData@CItemMoniker@@UAAJPAEKPAK@Z 1002de58 f   ole32_ALL:CITEMMON.obj
 0001:0002cee8       ?QueryInterface@CDelayUnlockContainer@@UAAJABU_GUID@@PAPAX@Z 1002dee8 f   ole32_ALL:CITEMMON.obj
 0001:0002cf44       ?AddRef@CDelayUnlockContainer@@UAAKXZ 1002df44 f   ole32_ALL:CITEMMON.obj
 0001:0002cf4c       ?Release@CDelayUnlockContainer@@UAAKXZ 1002df4c f   ole32_ALL:CITEMMON.obj
 0001:0002cfc8       ?RegisterContainerBound@@YAJPAUIBindCtx@@PAUIOleItemContainer@@@Z 1002dfc8 f   ole32_ALL:CITEMMON.obj
 0001:0002d098       ??1CItemMoniker@@EAA@XZ    1002e098 f   ole32_ALL:CITEMMON.obj
 0001:0002d0d0       ?QueryInterface@CItemMoniker@@UAAJABU_GUID@@PAPAX@Z 1002e0d0 f   ole32_ALL:CITEMMON.obj
 0001:0002d144       ?BindToObject@CItemMoniker@@UAAJPAUIBindCtx@@PAUIMoniker@@ABU_GUID@@PAPAX@Z 1002e144 f   ole32_ALL:CITEMMON.obj
 0001:0002d240       ?BindToStorage@CItemMoniker@@UAAJPAUIBindCtx@@PAUIMoniker@@ABU_GUID@@PAPAX@Z 1002e240 f   ole32_ALL:CITEMMON.obj
 0001:0002d32c       ?Hash@CItemMoniker@@UAAJPAK@Z 1002e32c f   ole32_ALL:CITEMMON.obj
 0001:0002d3e8       ?ParseDisplayName@CItemMoniker@@UAAJPAUIBindCtx@@PAUIMoniker@@PAGPAKPAPAU3@@Z 1002e3e8 f   ole32_ALL:CITEMMON.obj
 0001:0002d5a0       ?QueryInterface@CItemMoniker@@W3AAJABU_GUID@@PAPAX@Z 1002e5a0 f i ole32_ALL:CITEMMON.obj
 0001:0002d5a8       ??_GCItemMoniker@@EAAPAXI@Z 1002e5a8 f i ole32_ALL:CITEMMON.obj
 0001:0002d5a8       ??_ECItemMoniker@@EAAPAXI@Z 1002e5a8 f i ole32_ALL:CITEMMON.obj
 0001:0002d5e8       ??0CItemMoniker@@AAA@XZ    1002e5e8 f   ole32_ALL:CITEMMON.obj
 0001:0002d674       ?Create@CItemMoniker@@SAPAV1@PBG0@Z 1002e674 f   ole32_ALL:CITEMMON.obj
 0001:0002d6fc       ?IsLongComponent@@YAHPBGPAPAG@Z 1002e6fc f   ole32_ALL:LONGPATH.obj
 0001:0002d830       ?DetermineDosPathNameType@@YA?AW4PATH_TYPE@@PBG@Z 1002e830 f   ole32_ALL:LONGPATH.obj
 0001:0002d8cc       GetLongPathNameW           1002e8cc f   ole32_ALL:LONGPATH.obj
 0001:0002dd30       ?IsAntiMoniker@@YAPAVCAntiMoniker@@PAUIMoniker@@@Z 1002ed30 f   ole32_ALL:CANTIMON.obj
 0001:0002dd80       ?GetClassID@CAntiMoniker@@EAAJPAU_GUID@@@Z 1002ed80 f   ole32_ALL:CANTIMON.obj
 0001:0002ddd4       ?Load@CAntiMoniker@@EAAJPAUIStream@@@Z 1002edd4 f   ole32_ALL:CANTIMON.obj
 0001:0002de24       ?Save@CAntiMoniker@@EAAJPAUIStream@@H@Z 1002ee24 f   ole32_ALL:CANTIMON.obj
 0001:0002de74       ?GetSizeMax@CAntiMoniker@@EAAJPAT_ULARGE_INTEGER@@@Z 1002ee74 f   ole32_ALL:CANTIMON.obj
 0001:0002dea8       ?Enum@CAntiMoniker@@EAAJHPAPAUIEnumMoniker@@@Z 1002eea8 f   ole32_ALL:CANTIMON.obj
 0001:0002ded8       ?GetComparisonData@CAntiMoniker@@UAAJPAEKPAK@Z 1002eed8 f   ole32_ALL:CANTIMON.obj
 0001:0002df3c       ?IsEqual@CAntiMoniker@@EAAJPAUIMoniker@@@Z 1002ef3c f   ole32_ALL:CANTIMON.obj
 0001:0002df8c       ?Hash@CAntiMoniker@@EAAJPAK@Z 1002ef8c f   ole32_ALL:CANTIMON.obj
 0001:0002dfc4       ?CommonPrefixWith@CAntiMoniker@@EAAJPAUIMoniker@@PAPAU2@@Z 1002efc4 f   ole32_ALL:CANTIMON.obj
 0001:0002e094       ?RelativePathTo@CAntiMoniker@@EAAJPAUIMoniker@@PAPAU2@@Z 1002f094 f   ole32_ALL:CANTIMON.obj
 0001:0002e0f0       ?GetDisplayName@CAntiMoniker@@EAAJPAUIBindCtx@@PAUIMoniker@@PAPAG@Z 1002f0f0 f   ole32_ALL:CANTIMON.obj
 0001:0002e1b4       ?ParseDisplayName@CAntiMoniker@@EAAJPAUIBindCtx@@PAUIMoniker@@PAGPAKPAPAU3@@Z 1002f1b4 f   ole32_ALL:CANTIMON.obj
 0001:0002e254       ?IsSystemMoniker@CAntiMoniker@@EAAJPAK@Z 1002f254 f   ole32_ALL:CANTIMON.obj
 0001:0002e264       ?QueryInterface@CAntiMoniker@@EAAJABU_GUID@@PAPAX@Z 1002f264 f   ole32_ALL:CANTIMON.obj
 0001:0002e2d8       ??_GCAntiMoniker@@UAAPAXI@Z 1002f2d8 f i ole32_ALL:CANTIMON.obj
 0001:0002e2d8       ??_ECAntiMoniker@@UAAPAXI@Z 1002f2d8 f i ole32_ALL:CANTIMON.obj
 0001:0002e318       ?QueryInterface@CAntiMoniker@@G3AAJABU_GUID@@PAPAX@Z 1002f318 f i ole32_ALL:CANTIMON.obj
 0001:0002e320       ?Create@CAntiMoniker@@SAPAV1@XZ 1002f320 f   ole32_ALL:CANTIMON.obj
 0001:0002e38c       ?Create@CAntiMoniker@@SAPAUIMoniker@@K@Z 1002f38c f   ole32_ALL:CANTIMON.obj
 0001:0002e480       ?ComposeWith@CAntiMoniker@@EAAJPAUIMoniker@@HPAPAU2@@Z 1002f480 f   ole32_ALL:CANTIMON.obj
 0001:0002e58c       ?EatOne@CAntiMoniker@@QAAXPAPAUIMoniker@@@Z 1002f58c f   ole32_ALL:CANTIMON.obj
 0001:0002e5a8       ?AddRef@CBindCtx@@UAAKXZ   1002f5a8 f   ole32_ALL:CBINDCTX.obj
 0001:0002e5c8       ?SetBindOptions@CBindCtx@@UAAJPAUtagBIND_OPTS@@@Z 1002f5c8 f   ole32_ALL:CBINDCTX.obj
 0001:0002e634       ?GetBindOptions@CBindCtx@@UAAJPAUtagBIND_OPTS@@@Z 1002f634 f   ole32_ALL:CBINDCTX.obj
 0001:0002e6b4       ?GetRunningObjectTable@CBindCtx@@UAAJPAPAUIRunningObjectTable@@@Z 1002f6b4 f   ole32_ALL:CBINDCTX.obj
 0001:0002e6e8       ?EnumObjectParam@CBindCtx@@UAAJPAPAUIEnumString@@@Z 1002f6e8 f   ole32_ALL:CBINDCTX.obj
 0001:0002e724       ?QueryInterface@CBindCtx@@UAAJABU_GUID@@PAPAX@Z 1002f724 f   ole32_ALL:CBINDCTX.obj
 0001:0002e7d0       ?RegisterObjectBound@CBindCtx@@UAAJPAUIUnknown@@@Z 1002f7d0 f   ole32_ALL:CBINDCTX.obj
 0001:0002e86c       ??_GCObjList@CBindCtx@@QAAPAXI@Z 1002f86c f i ole32_ALL:CBINDCTX.obj
 0001:0002e8bc       ?ReleaseBoundObjects@CBindCtx@@UAAJXZ 1002f8bc f   ole32_ALL:CBINDCTX.obj
 0001:0002e8f4       ?RegisterObjectParam@CBindCtx@@UAAJPAGPAUIUnknown@@@Z 1002f8f4 f   ole32_ALL:CBINDCTX.obj
 0001:0002ea70       ?GetObjectParam@CBindCtx@@UAAJPAGPAPAUIUnknown@@@Z 1002fa70 f   ole32_ALL:CBINDCTX.obj
 0001:0002eb44       ?RevokeObjectParam@CBindCtx@@UAAJPAG@Z 1002fb44 f   ole32_ALL:CBINDCTX.obj
 0001:0002ec2c       ??0CBindCtx@@AAA@XZ        1002fc2c f   ole32_ALL:CBINDCTX.obj
 0001:0002ec8c       ??1CBindCtx@@AAA@XZ        1002fc8c f   ole32_ALL:CBINDCTX.obj
 0001:0002ed68       ?Create@CBindCtx@@SAPAUIBindCtx@@XZ 1002fd68 f   ole32_ALL:CBINDCTX.obj
 0001:0002eda4       ?RevokeObjectBound@CBindCtx@@UAAJPAUIUnknown@@@Z 1002fda4 f   ole32_ALL:CBINDCTX.obj
 0001:0002ee28       ?Release@CBindCtx@@UAAKXZ  1002fe28 f   ole32_ALL:CBINDCTX.obj
 0001:0002ee7c       ??1CPointerMoniker@@UAA@XZ 1002fe7c f   ole32_ALL:CPTRMON.obj
 0001:0002eecc       ?IsPointerMoniker@@YAPAVCPointerMoniker@@PAUIMoniker@@@Z 1002fecc f   ole32_ALL:CPTRMON.obj
 0001:0002ef1c       ?AddRef@CPointerMoniker@@UAAKXZ 1002ff1c f   ole32_ALL:CPTRMON.obj
 0001:0002ef30       ?Release@CPointerMoniker@@UAAKXZ 1002ff30 f   ole32_ALL:CPTRMON.obj
 0001:0002ef6c       ?GetClassID@CPointerMoniker@@UAAJPAU_GUID@@@Z 1002ff6c f   ole32_ALL:CPTRMON.obj
 0001:0002efc0       ?GetUnmarshalClass@CPointerMoniker@@UAAJABU_GUID@@PAXK1KPAU2@@Z 1002ffc0 f   ole32_ALL:CPTRMON.obj
 0001:0002efdc       ?GetMarshalSizeMax@CPointerMoniker@@UAAJABU_GUID@@PAXK1KPAK@Z 1002ffdc f   ole32_ALL:CPTRMON.obj
 0001:0002f008       ?MarshalInterface@CPointerMoniker@@UAAJPAUIStream@@ABU_GUID@@PAXK2K@Z 10030008 f   ole32_ALL:CPTRMON.obj
 0001:0002f07c       ?UnmarshalInterface@CPointerMoniker@@UAAJPAUIStream@@ABU_GUID@@PAPAX@Z 1003007c f   ole32_ALL:CPTRMON.obj
 0001:0002f0e0       ?ReleaseMarshalData@CPointerMoniker@@UAAJPAUIStream@@@Z 100300e0 f   ole32_ALL:CPTRMON.obj
 0001:0002f0e8       ?DisconnectObject@CPointerMoniker@@UAAJK@Z 100300e8 f   ole32_ALL:CPTRMON.obj
 0001:0002f0f4       ?BindToObject@CPointerMoniker@@UAAJPAUIBindCtx@@PAUIMoniker@@ABU_GUID@@PAPAX@Z 100300f4 f   ole32_ALL:CPTRMON.obj
 0001:0002f190       ?BindToStorage@CPointerMoniker@@UAAJPAUIBindCtx@@PAUIMoniker@@ABU_GUID@@PAPAX@Z 10030190 f   ole32_ALL:CPTRMON.obj
 0001:0002f1b4       ?ComposeWith@CPointerMoniker@@UAAJPAUIMoniker@@HPAPAU2@@Z 100301b4 f   ole32_ALL:CPTRMON.obj
 0001:0002f25c       ?IsEqual@CPointerMoniker@@UAAJPAUIMoniker@@@Z 1003025c f   ole32_ALL:CPTRMON.obj
 0001:0002f2ac       ?Hash@CPointerMoniker@@UAAJPAK@Z 100302ac f   ole32_ALL:CPTRMON.obj
 0001:0002f2e0       ?GetTimeOfLastChange@CPointerMoniker@@UAAJPAUIBindCtx@@PAUIMoniker@@PAU_FILETIME@@@Z 100302e0 f   ole32_ALL:CPTRMON.obj
 0001:0002f340       ?Inverse@CPointerMoniker@@UAAJPAPAUIMoniker@@@Z 10030340 f   ole32_ALL:CPTRMON.obj
 0001:0002f370       ?CommonPrefixWith@CPointerMoniker@@UAAJPAUIMoniker@@PAPAU2@@Z 10030370 f   ole32_ALL:CPTRMON.obj
 0001:0002f400       ?RelativePathTo@CPointerMoniker@@UAAJPAUIMoniker@@PAPAU2@@Z 10030400 f   ole32_ALL:CPTRMON.obj
 0001:0002f450       ?GetDisplayName@CPointerMoniker@@UAAJPAUIBindCtx@@PAUIMoniker@@PAPAG@Z 10030450 f   ole32_ALL:CPTRMON.obj
 0001:0002f4bc       ?ParseDisplayName@CPointerMoniker@@UAAJPAUIBindCtx@@PAUIMoniker@@PAGPAKPAPAU3@@Z 100304bc f   ole32_ALL:CPTRMON.obj
 0001:0002f5c0       ?IsRunning@CPointerMoniker@@UAAJPAUIBindCtx@@PAUIMoniker@@1@Z 100305c0 f   ole32_ALL:CPTRMON.obj
 0001:0002f620       ?IsSystemMoniker@CPointerMoniker@@UAAJPAK@Z 10030620 f   ole32_ALL:CPTRMON.obj
 0001:0002f630       ?Enum@CPointerMoniker@@UAAJHPAPAUIEnumMoniker@@@Z 10030630 f   ole32_ALL:CPTRMON.obj
 0001:0002f63c       ?AddRef@CPointerMoniker@@WBE@AAKXZ 1003063c f i ole32_ALL:CPTRMON.obj
 0001:0002f644       ?Release@CPointerMoniker@@W3AAKXZ 10030644 f i ole32_ALL:CPTRMON.obj
 0001:0002f64c       ?AddRef@CPointerMoniker@@W3AAKXZ 1003064c f i ole32_ALL:CPTRMON.obj
 0001:0002f654       ?Release@CPointerMoniker@@WBE@AAKXZ 10030654 f i ole32_ALL:CPTRMON.obj
 0001:0002f65c       ??_ECPointerMoniker@@UAAPAXI@Z 1003065c f i ole32_ALL:CPTRMON.obj
 0001:0002f65c       ??_GCPointerMoniker@@UAAPAXI@Z 1003065c f i ole32_ALL:CPTRMON.obj
 0001:0002f69c       ?QueryInterface@CPointerMoniker@@UAAJABU_GUID@@PAPAX@Z 1003069c f   ole32_ALL:CPTRMON.obj
 0001:0002f774       ?QueryInterface@CPointerMoniker@@WBE@AAJABU_GUID@@PAPAX@Z 10030774 f i ole32_ALL:CPTRMON.obj
 0001:0002f77c       ?QueryInterface@CPointerMoniker@@W3AAJABU_GUID@@PAPAX@Z 1003077c f i ole32_ALL:CPTRMON.obj
 0001:0002f784       ??0CPointerMoniker@@QAA@PAUIUnknown@@@Z 10030784 f   ole32_ALL:CPTRMON.obj
 0001:0002f7d8       ?Create@CPointerMoniker@@SAPAV1@PAUIUnknown@@@Z 100307d8 f   ole32_ALL:CPTRMON.obj
 0001:0002f81c       ?utBase64ToByte@@YAEG@Z    1003081c f   ole32_ALL:cobjrmon.obj
 0001:0002f880       ?utQuantumToBase64@@YAFPAEFPAG@Z 10030880 f   ole32_ALL:cobjrmon.obj
 0001:0002f92c       ?utByteStreamToBase64@@YAJPAEJPAG@Z 1003092c f   ole32_ALL:cobjrmon.obj
 0001:0002f9dc       ?utBase64ToQuantum@@YAFPAGPAE@Z 100309dc f   ole32_ALL:cobjrmon.obj
 0001:0002fa5c       ?utIStreamToBase64@@YAJPAUIStream@@PAGK@Z 10030a5c f   ole32_ALL:cobjrmon.obj
 0001:0002fb70       ??0CObjrefMoniker@@QAA@PAUIUnknown@@@Z 10030b70 f   ole32_ALL:cobjrmon.obj
 0001:0002fbb0       ??1CObjrefMoniker@@UAA@XZ  10030bb0 f   ole32_ALL:cobjrmon.obj
 0001:0002fbf8       ?IsObjrefMoniker@@YAPAVCObjrefMoniker@@PAUIMoniker@@@Z 10030bf8 f   ole32_ALL:cobjrmon.obj
 0001:0002fc48       ?GetClassID@CObjrefMoniker@@UAAJPAU_GUID@@@Z 10030c48 f   ole32_ALL:cobjrmon.obj
 0001:0002fc9c       ?IsEqual@CObjrefMoniker@@UAAJPAUIMoniker@@@Z 10030c9c f   ole32_ALL:cobjrmon.obj
 0001:0002fcf4       ?IsSystemMoniker@CObjrefMoniker@@UAAJPAK@Z 10030cf4 f   ole32_ALL:cobjrmon.obj
 0001:0002fd40       ?CommonPrefixWith@CObjrefMoniker@@UAAJPAUIMoniker@@PAPAU2@@Z 10030d40 f   ole32_ALL:cobjrmon.obj
 0001:0002fdd4       ?RelativePathTo@CObjrefMoniker@@UAAJPAUIMoniker@@PAPAU2@@Z 10030dd4 f   ole32_ALL:cobjrmon.obj
 0001:0002fdd8       ?IsDirty@CObjrefMoniker@@UAAJXZ 10030dd8 f   ole32_ALL:cobjrmon.obj
 0001:0002fde8       ?Load@CObjrefMoniker@@UAAJPAUIStream@@@Z 10030de8 f   ole32_ALL:cobjrmon.obj
 0001:0002fe48       ?Save@CObjrefMoniker@@UAAJPAUIStream@@H@Z 10030e48 f   ole32_ALL:cobjrmon.obj
 0001:0002fed8       ?GetSizeMax@CObjrefMoniker@@UAAJPAT_ULARGE_INTEGER@@@Z 10030ed8 f   ole32_ALL:cobjrmon.obj
 0001:0002ff78       ?GetDisplayName@CObjrefMoniker@@UAAJPAUIBindCtx@@PAUIMoniker@@PAPAG@Z 10030f78 f   ole32_ALL:cobjrmon.obj
 0001:0003027c       ?Enum@CObjrefMoniker@@UAAJHPAPAUIEnumMoniker@@@Z 1003127c f   ole32_ALL:cobjrmon.obj
 0001:000302ac       ?GetTimeOfLastChange@CObjrefMoniker@@UAAJPAUIBindCtx@@PAUIMoniker@@PAU_FILETIME@@@Z 100312ac f   ole32_ALL:cobjrmon.obj
 0001:0003030c       ?utBase64ToByteStream@@YAJPAGPAE@Z 1003130c f   ole32_ALL:cobjrmon.obj
 0001:0003037c       ?utBase64ToIStream@@YAPAUIStream@@PAG@Z 1003137c f   ole32_ALL:cobjrmon.obj
 0001:00030430       ??_GCObjrefMoniker@@UAAPAXI@Z 10031430 f i ole32_ALL:cobjrmon.obj
 0001:00030430       ??_ECObjrefMoniker@@UAAPAXI@Z 10031430 f i ole32_ALL:cobjrmon.obj
 0001:00030470       ?Create@CObjrefMoniker@@SAPAV1@PAUIUnknown@@@Z 10031470 f   ole32_ALL:cobjrmon.obj
 0001:000304b4       ?QueryInterface@CObjrefMoniker@@UAAJABU_GUID@@PAPAX@Z 100314b4 f   ole32_ALL:cobjrmon.obj
 0001:00030528       ?QueryInterface@CObjrefMoniker@@WBE@AAJABU_GUID@@PAPAX@Z 10031528 f i ole32_ALL:cobjrmon.obj
 0001:00030530       ?QueryInterface@CObjrefMoniker@@W3AAJABU_GUID@@PAPAX@Z 10031530 f i ole32_ALL:cobjrmon.obj
 0001:00030538       ?UtDupString@@YAPAGPBG@Z   10031538 f   ole32_ALL:UTILS.obj
 0001:000307dc       ?Ole10_CLSIDFromString@@YAJPBGPAU_GUID@@H@Z 100317dc f   ole32_ALL:OLE1GUID.obj
 0001:000309c0       ?AddRef@CXmitRpcStream@@UAAKXZ 100319c0 f   ole32_ALL:XMIT.obj
 0001:000309d8       ?Read@CXmitRpcStream@@UAAJPAXKPAK@Z 100319d8 f   ole32_ALL:XMIT.obj
 0001:00030a44       ?Write@CXmitRpcStream@@UAAJPBXKPAK@Z 10031a44 f   ole32_ALL:XMIT.obj
 0001:00030b1c       ?Seek@CXmitRpcStream@@UAAJT_LARGE_INTEGER@@KPAT_ULARGE_INTEGER@@@Z 10031b1c f   ole32_ALL:XMIT.obj
 0001:00030bc0       ?SetSize@CXmitRpcStream@@UAAJT_ULARGE_INTEGER@@@Z 10031bc0 f   ole32_ALL:XMIT.obj
 0001:00030bd8       ?CopyTo@CXmitRpcStream@@UAAJPAUIStream@@T_ULARGE_INTEGER@@PAT3@2@Z 10031bd8 f   ole32_ALL:XMIT.obj
 0001:00030bf0       ?Commit@CXmitRpcStream@@UAAJK@Z 10031bf0 f   ole32_ALL:XMIT.obj
 0001:00030bf8       ?Revert@CXmitRpcStream@@UAAJXZ 10031bf8 f   ole32_ALL:XMIT.obj
 0001:00030c00       ?LockRegion@CXmitRpcStream@@UAAJT_ULARGE_INTEGER@@0K@Z 10031c00 f   ole32_ALL:XMIT.obj
 0001:00030c18       ?UnlockRegion@CXmitRpcStream@@UAAJT_ULARGE_INTEGER@@0K@Z 10031c18 f   ole32_ALL:XMIT.obj
 0001:00030c30       ?Stat@CXmitRpcStream@@UAAJPAUtagSTATSTG@@K@Z 10031c30 f   ole32_ALL:XMIT.obj
 0001:00030c50       ?Clone@CXmitRpcStream@@UAAJPAPAUIStream@@@Z 10031c50 f   ole32_ALL:XMIT.obj
 0001:00030c5c       ?QueryInterface@CXmitRpcStream@@UAAJABU_GUID@@PAPAX@Z 10031c5c f   ole32_ALL:XMIT.obj
 0001:00030cd8       ?Release@CXmitRpcStream@@UAAKXZ 10031cd8 f   ole32_ALL:XMIT.obj
 0001:00030d2c       ?MarshalHelper@@YAJKPAUIUnknown@@ABU_GUID@@KPAPAUtagInterfaceData@@@Z 10031d2c f   ole32_ALL:HOBJACT.obj
 0001:00030dc4       ?MarshalHelperMulti@@YAJKPAUIUnknown@@KPAU_GUID@@PAPAUtagMInterfacePointer@@PAJ@Z 10031dc4 f   ole32_ALL:HOBJACT.obj
 0001:00030e88       ?GetObjectHelperMulti@@YAJPAUIClassFactory@@KKPAUIUnknown@@PAGPAUIStorage@@KPAU_GUID@@PAPAUtagMInterfacePointer@@PAJPAUtagMULTI_QI@@@Z 10031e88 f   ole32_ALL:HOBJACT.obj
 0001:0003121c       ?GetInstanceHelperMulti@@YAJPAUIClassFactory@@KKPAU_GUID@@PAPAUtagMInterfacePointer@@PAJPAPAUIUnknown@@@Z 1003221c f   ole32_ALL:HOBJACT.obj
 0001:00031308       ?Init@CStdMarshal@@QAAXPAUIUnknown@@PAVCStdIdentity@@ABU_GUID@@K@Z 10032308 f   ole32_ALL:MARSHAL.obj
 0001:00031374       ?GetUnmarshalClass@CStdMarshal@@UAAJABU_GUID@@PAXK1KPAU2@@Z 10032374 f   ole32_ALL:MARSHAL.obj
 0001:000313a8       ?GetMarshalSizeMax@CStdMarshal@@UAAJABU_GUID@@PAXK1KPAK@Z 100323a8 f   ole32_ALL:MARSHAL.obj
 0001:000313c8       ?FillSTD@CStdMarshal@@QAAXPAUtagSTDOBJREF@@KKPAUtagIPIDEntry@@@Z 100323c8 f   ole32_ALL:MARSHAL.obj
 0001:00031470       ?PreventDisconnect@CStdMarshal@@QAAJXZ 10032470 f   ole32_ALL:MARSHAL.obj
 0001:00031498       ?PreventPendingDisconnect@CStdMarshal@@QAAJXZ 10032498 f   ole32_ALL:MARSHAL.obj
 0001:000314cc       ?DisconnectSrvIPIDs@CStdMarshal@@AAAXXZ 100324cc f   ole32_ALL:MARSHAL.obj
 0001:0003163c       ?RemIsConnected@CStdMarshal@@QAAHXZ 1003263c f   ole32_ALL:MARSHAL.obj
 0001:00031650       ?CreateChannel@CStdMarshal@@AAAJPAUtagOXIDEntry@@KABU_GUID@@1PAPAVCRpcChannelBuffer@@@Z 10032650 f   ole32_ALL:MARSHAL.obj
 0001:00031740       ?GetPSFactory@CStdMarshal@@AAAJABU_GUID@@PAUIUnknown@@HPAPAUIPSFactoryBuffer@@PAH@Z 10032740 f   ole32_ALL:MARSHAL.obj
 0001:00031894       ?CreateProxy@CStdMarshal@@AAAJABU_GUID@@PAPAUIRpcProxyBuffer@@PAPAXPAH@Z 10032894 f   ole32_ALL:MARSHAL.obj
 0001:00031988       ?CreateStub@CStdMarshal@@AAAJABU_GUID@@PAPAUIRpcStubBuffer@@PAPAXPAH@Z 10032988 f   ole32_ALL:MARSHAL.obj
 0001:00031ab4       ?FindIPIDEntry@CStdMarshal@@QAAJABU_GUID@@PAPAUtagIPIDEntry@@@Z 10032ab4 f   ole32_ALL:MARSHAL.obj
 0001:00031b00       ?FindIPIDEntryByIPID@CStdMarshal@@AAAJABU_GUID@@PAPAUtagIPIDEntry@@@Z 10032b00 f   ole32_ALL:MARSHAL.obj
 0001:00031b4c       ?FindIPIDEntryByInterface@CStdMarshal@@QAAJPAXPAPAUtagIPIDEntry@@@Z 10032b4c f   ole32_ALL:MARSHAL.obj
 0001:00031b94       ?IncTableCnt@CStdMarshal@@QAAXXZ 10032b94 f   ole32_ALL:MARSHAL.obj
 0001:00031bb0       ?IncStrongAndNotifyAct@CStdMarshal@@AAAXPAUtagIPIDEntry@@K@Z 10032bb0 f   ole32_ALL:MARSHAL.obj
 0001:00031c1c       ?DecTableCnt@CStdMarshal@@QAAXXZ 10032c1c f   ole32_ALL:MARSHAL.obj
 0001:00031c38       ?DecStrongAndNotifyAct@CStdMarshal@@AAAXPAUtagIPIDEntry@@K@Z 10032c38 f   ole32_ALL:MARSHAL.obj
 0001:00031cac       ?AddIPIDEntry@CStdMarshal@@AAAJPAUtagOXIDEntry@@PAU_GUID@@ABU3@PAVCRpcChannelBuffer@@PAUIUnknown@@PAXPAPAUtagIPIDEntry@@@Z 10032cac f   ole32_ALL:MARSHAL.obj
 0001:00031dc8       ?ReleaseCliIPIDs@CStdMarshal@@AAAXXZ 10032dc8 f   ole32_ALL:MARSHAL.obj
 0001:00031e64       ?LockClient@CStdMarshal@@QAAKXZ 10032e64 f   ole32_ALL:MARSHAL.obj
 0001:00031e8c       ?GetSecureRemUnk@CStdMarshal@@QAAJPAPAUIRemUnknown@@PAUtagOXIDEntry@@@Z 10032e8c f   ole32_ALL:MARSHAL.obj
 0001:00031ec8       ?RemoteQueryInterface@@YAJPAUIRemUnknown@@PAUtagIPIDEntry@@GPAU_GUID@@PAPAUtagREMQIRESULT@@H@Z 10032ec8 f   ole32_ALL:MARSHAL.obj
 0001:00031f74       ?PostReleaseRifRef@@YAJPAUIRemUnknown@@PAUtagOXIDEntry@@GPAUtagREMINTERFACEREF@@@Z 10032f74 f   ole32_ALL:MARSHAL.obj
 0001:00032090       ?GetOXIDFromObjRef@@YAPAUtagOXIDEntry@@AAUtagOBJREF@@@Z 10033090 f   ole32_ALL:MARSHAL.obj
 0001:000320a4       ?WriteObjRef@@YAJPAUIStream@@AAUtagOBJREF@@K@Z 100330a4 f   ole32_ALL:MARSHAL.obj
 0001:0003214c       ?ReadObjRef@@YAJPAUIStream@@AAUtagOBJREF@@@Z 1003314c f   ole32_ALL:MARSHAL.obj
 0001:00032374       ?FreeObjRef@@YAXAAUtagOBJREF@@@Z 10033374 f   ole32_ALL:MARSHAL.obj
 0001:000323b4       ?MakeFakeObjRef@@YAJAAUtagOBJREF@@PAUtagOXIDEntry@@ABU_GUID@@2@Z 100333b4 f   ole32_ALL:MARSHAL.obj
 0001:00032458       ?MakeCallableFromAnyApt@@YAXAAUtagOBJREF@@@Z 10033458 f   ole32_ALL:MARSHAL.obj
 0001:00032468       ?GetRemUnk@CStdMarshal@@QAAJPAPAUIRemUnknown@@PAUtagOXIDEntry@@@Z 10033468 f i ole32_ALL:MARSHAL.obj
 0001:000324b0       ??0CStdMarshal@@QAA@XZ     100334b0 f   ole32_ALL:MARSHAL.obj
 0001:000324cc       ??1CStdMarshal@@QAA@XZ     100334cc f   ole32_ALL:MARSHAL.obj
 0001:0003251c       ?FillObjRef@CStdMarshal@@AAAXAAUtagOBJREF@@KKPAUtagIPIDEntry@@@Z 1003351c f   ole32_ALL:MARSHAL.obj
 0001:000325cc       ?FirstMarshal@CStdMarshal@@AAAJPAUIUnknown@@K@Z 100335cc f   ole32_ALL:MARSHAL.obj
 0001:00032638       ?ChkIfLocalOID@@YAHAAUtagOBJREF@@PAPAVCStdIdentity@@@Z 10033638 f   ole32_ALL:MARSHAL.obj
 0001:000326d8       ?MakeSrvIPIDEntry@CStdMarshal@@AAAJABU_GUID@@PAPAUtagIPIDEntry@@@Z 100336d8 f   ole32_ALL:MARSHAL.obj
 0001:000327e4       ?InstantiatedProxy@CStdMarshal@@QAAHABU_GUID@@PAPAXPAJ@Z 100337e4 f   ole32_ALL:MARSHAL.obj
 0001:00032884       ?IncSrvIPIDCnt@CStdMarshal@@QAAJPAUtagIPIDEntry@@KKPAUtagSECURITYBINDING@@K@Z 10033884 f   ole32_ALL:MARSHAL.obj
 0001:000329d8       ?DecSrvIPIDCnt@CStdMarshal@@QAAXPAUtagIPIDEntry@@KKPAUtagSECURITYBINDING@@K@Z 100339d8 f   ole32_ALL:MARSHAL.obj
 0001:00032ac0       ?RemoteAddRef@CStdMarshal@@AAAJABU_GUID@@PAUtagIPIDEntry@@PAUtagOXIDEntry@@KKPAK@Z 10033ac0 f   ole32_ALL:MARSHAL.obj
 0001:00032bd0       ?RemoteReleaseRifRefHelper@@YAJPAUIRemUnknown@@PAUtagOXIDEntry@@GPAUtagREMINTERFACEREF@@@Z 10033bd0 f   ole32_ALL:MARSHAL.obj
 0001:00032c70       ?HandlePostReleaseRifRef@@YAJJ@Z 10033c70 f   ole32_ALL:MARSHAL.obj
 0001:00032ce8       ?RemoteChangeRifRef@CStdMarshal@@AAAJPAUtagOXIDEntry@@KGPAUtagREMINTERFACEREF@@@Z 10033ce8 f   ole32_ALL:MARSHAL.obj
 0001:00032d58       ?FindStdMarshal@@YAJAAUtagOBJREF@@HPAPAVCStdMarshal@@@Z 10033d58 f   ole32_ALL:MARSHAL.obj
 0001:00032f28       ?GetNeededRefs@CStdMarshal@@AAAJPAUtagSTDOBJREF@@PAUtagOXIDEntry@@PAUtagIPIDEntry@@@Z 10033f28 f   ole32_ALL:MARSHAL.obj
 0001:00032ff4       ?RemoteReleaseRifRef@@YAJPAVCStdMarshal@@PAUtagOXIDEntry@@GPAUtagREMINTERFACEREF@@@Z 10033ff4 f   ole32_ALL:MARSHAL.obj
 0001:00033070       ?RemoteReleaseStdObjRef@@YAJPAUtagSTDOBJREF@@PAUtagOXIDEntry@@@Z 10034070 f   ole32_ALL:MARSHAL.obj
 0001:000330f4       ?ConnectIPIDEntry@CStdMarshal@@AAAJPAUtagSTDOBJREF@@PAUtagOXIDEntry@@PAUtagIPIDEntry@@@Z 100340f4 f   ole32_ALL:MARSHAL.obj
 0001:00033394       ?ReleaseMarshalObjRef@CStdMarshal@@QAAJAAUtagOBJREF@@@Z 10034394 f   ole32_ALL:MARSHAL.obj
 0001:000334fc       ?DisconnectCliIPIDs@CStdMarshal@@AAAXXZ 100344fc f   ole32_ALL:MARSHAL.obj
 0001:000336e0       ?MakeCliIPIDEntry@CStdMarshal@@AAAJABU_GUID@@PAUtagSTDOBJREF@@PAUtagOXIDEntry@@PAPAUtagIPIDEntry@@@Z 100346e0 f   ole32_ALL:MARSHAL.obj
 0001:00033828       ?ReleaseMarshalObjRef@@YAJAAUtagOBJREF@@@Z 10034828 f   ole32_ALL:MARSHAL.obj
 0001:00033908       ?Disconnect@CStdMarshal@@QAAXK@Z 10034908 f   ole32_ALL:MARSHAL.obj
 0001:00033ae8       ?UnLockClient@CStdMarshal@@QAAKXZ 10034ae8 f   ole32_ALL:MARSHAL.obj
 0001:00033b40       ?ReleaseMarshalData@CStdMarshal@@UAAJPAUIStream@@@Z 10034b40 f   ole32_ALL:MARSHAL.obj
 0001:00033b94       ?HandlePendingDisconnect@CStdMarshal@@QAAJJ@Z 10034b94 f   ole32_ALL:MARSHAL.obj
 0001:00033be4       ?DisconnectObject@CStdMarshal@@UAAJK@Z 10034be4 f   ole32_ALL:MARSHAL.obj
 0001:00033c08       ?RemoteChangeRef@CStdMarshal@@QAAJHH@Z 10034c08 f   ole32_ALL:MARSHAL.obj
 0001:00033efc       ?UnmarshalIPID@CStdMarshal@@AAAJABU_GUID@@PAUtagSTDOBJREF@@PAUtagOXIDEntry@@PAPAX@Z 10034efc f   ole32_ALL:MARSHAL.obj
 0001:000340a8       ?PrivateCopyProxy@CStdMarshal@@QAAJPAUIUnknown@@PAPAU2@@Z 100350a8 f   ole32_ALL:MARSHAL.obj
 0001:000342fc       ?RemQIAndUnmarshal@CStdMarshal@@AAAJGPAU_GUID@@PAUtagSQIResult@@@Z 100352fc f   ole32_ALL:MARSHAL.obj
 0001:00034494       ?MarshalIPID@CStdMarshal@@QAAJABU_GUID@@KKPAPAUtagIPIDEntry@@@Z 10035494 f   ole32_ALL:MARSHAL.obj
 0001:00034610       ?UnmarshalObjRef@CStdMarshal@@QAAJAAUtagOBJREF@@PAPAX@Z 10035610 f   ole32_ALL:MARSHAL.obj
 0001:000347e0       ?ReconnectProxies@CStdMarshal@@QAAXXZ 100357e0 f   ole32_ALL:MARSHAL.obj
 0001:00034908       ?QueryRemoteInterfaces@CStdMarshal@@QAAJGPAU_GUID@@PAUtagSQIResult@@@Z 10035908 f   ole32_ALL:MARSHAL.obj
 0001:000349a8       ?MarshalObjRef@CStdMarshal@@QAAJAAUtagOBJREF@@ABU_GUID@@PAXK@Z 100359a8 f   ole32_ALL:MARSHAL.obj
 0001:00034ac0       ?UnmarshalObjRef@@YAJAAUtagOBJREF@@PAPAX@Z 10035ac0 f   ole32_ALL:MARSHAL.obj
 0001:00034b24       ?UnmarshalInternalObjRef@@YAJAAUtagOBJREF@@PAPAX@Z 10035b24 f   ole32_ALL:MARSHAL.obj
 0001:00034be0       ?MarshalObjRef@@YAJAAUtagOBJREF@@ABU_GUID@@PAXK@Z 10035be0 f   ole32_ALL:MARSHAL.obj
 0001:00034c88       ?MarshalInternalObjRef@@YAJAAUtagOBJREF@@ABU_GUID@@PAXKPAPAX@Z 10035c88 f   ole32_ALL:MARSHAL.obj
 0001:00034db0       ?MarshalInterface@CStdMarshal@@UAAJPAUIStream@@ABU_GUID@@PAXK2K@Z 10035db0 f   ole32_ALL:MARSHAL.obj
 0001:00034e58       ?UnmarshalInterface@CStdMarshal@@UAAJPAUIStream@@ABU_GUID@@PAPAX@Z 10035e58 f   ole32_ALL:MARSHAL.obj
 0001:00034eb4       ??1CSafeMarshaledStg@@QAA@XZ 10035eb4 f   ole32_ALL:SMSTG.obj
 0001:00034ed0       ??1CSafeStgMarshaled@@QAA@XZ 10035ed0 f   ole32_ALL:SMSTG.obj
 0001:00034ee8       ??0CSafeMarshaledStg@@QAA@PAUtagInterfaceData@@AAJ@Z 10035ee8 f   ole32_ALL:SMSTG.obj
 0001:00034f5c       ??0CSafeStgMarshaled@@QAA@PAUIStorage@@KAAJ@Z 10035f5c f   ole32_ALL:SMSTG.obj
 0001:00034ffc       RpcStringFreeW             10035ffc f   ole32_ALL:RPCRT4LEGACY.dll
 0001:0003500c       RpcBindingInqAuthClientW   1003600c f   ole32_ALL:RPCRT4LEGACY.dll
 0001:0003501c       ?AddRef@CNdrStream@@UAAKXZ 1003601c f   ole32_ALL:STREAM.obj
 0001:00035034       ?Commit@CNdrStream@@UAAJK@Z 10036034 f   ole32_ALL:STREAM.obj
 0001:0003503c       ?CopyTo@CNdrStream@@UAAJPAUIStream@@T_ULARGE_INTEGER@@PAT3@2@Z 1003603c f   ole32_ALL:STREAM.obj
 0001:000350e4       ?LockRegion@CNdrStream@@UAAJT_ULARGE_INTEGER@@0K@Z 100360e4 f   ole32_ALL:STREAM.obj
 0001:000350fc       ?QueryInterface@CNdrStream@@UAAJABU_GUID@@PAPAX@Z 100360fc f   ole32_ALL:STREAM.obj
 0001:00035170       ?Read@CNdrStream@@UAAJPAXKPAK@Z 10036170 f   ole32_ALL:STREAM.obj
 0001:000351d4       ?Release@CNdrStream@@UAAKXZ 100361d4 f   ole32_ALL:STREAM.obj
 0001:00035200       ?Revert@CNdrStream@@UAAJXZ 10036200 f   ole32_ALL:STREAM.obj
 0001:00035208       ?Seek@CNdrStream@@UAAJT_LARGE_INTEGER@@KPAT_ULARGE_INTEGER@@@Z 10036208 f   ole32_ALL:STREAM.obj
 0001:000352fc       ?SetSize@CNdrStream@@UAAJT_ULARGE_INTEGER@@@Z 100362fc f   ole32_ALL:STREAM.obj
 0001:00035330       ?Stat@CNdrStream@@UAAJPAUtagSTATSTG@@K@Z 10036330 f   ole32_ALL:STREAM.obj
 0001:0003536c       ?UnlockRegion@CNdrStream@@UAAJT_ULARGE_INTEGER@@0K@Z 1003636c f   ole32_ALL:STREAM.obj
 0001:00035384       ?Write@CNdrStream@@UAAJPBXKPAK@Z 10036384 f   ole32_ALL:STREAM.obj
 0001:000353e8       ??0CNdrStream@@QAA@PAEK@Z  100363e8 f   ole32_ALL:STREAM.obj
 0001:0003540c       ?Clone@CNdrStream@@UAAJPAPAUIStream@@@Z 1003640c f   ole32_ALL:STREAM.obj
 0001:0003547c       RpcServerInqDefaultPrincNameW 1003647c f   ole32_ALL:RPCRT4LEGACY.dll
 0001:0003548c       RpcServerRegisterAuthInfoW 1003648c f   ole32_ALL:RPCRT4LEGACY.dll
 0001:0003549c       RpcBindingSetAuthInfoExW   1003649c f   ole32_ALL:RPCRT4LEGACY.dll
 0001:000354ac       RpcBindingInqAuthInfoExW   100364ac f   ole32_ALL:RPCRT4LEGACY.dll
 0001:000354bc       I_RpcBindingIsClientLocal  100364bc f   ole32_ALL:RPCRT4LEGACY.dll
 0001:000354cc       ?QueryInterface@CInternalUnk@CStdIdentity@@UAAJABU_GUID@@PAPAX@Z 100364cc f   ole32_ALL:STDID.obj
 0001:0003551c       ?QueryMultipleInterfaces@CInternalUnk@CStdIdentity@@UAAJKPAUtagMULTI_QI@@@Z 1003651c f   ole32_ALL:STDID.obj
 0001:00035938       ?QueryInternalInterface@CInternalUnk@CStdIdentity@@UAAJABU_GUID@@PAPAX@Z 10036938 f   ole32_ALL:STDID.obj
 0001:00035a84       ?AddRef@CInternalUnk@CStdIdentity@@UAAKXZ 10036a84 f   ole32_ALL:STDID.obj
 0001:00035a9c       ?QueryInterface@CStdIdentity@@UAAJABU_GUID@@PAPAX@Z 10036a9c f   ole32_ALL:STDID.obj
 0001:00035ab4       ?AddRef@CStdIdentity@@UAAKXZ 10036ab4 f   ole32_ALL:STDID.obj
 0001:00035acc       ?Release@CStdIdentity@@UAAKXZ 10036acc f   ole32_ALL:STDID.obj
 0001:00035ae4       ?UnlockAndRelease@CStdIdentity@@QAAKXZ 10036ae4 f   ole32_ALL:STDID.obj
 0001:00035b14       ?IncStrongCnt@CStdIdentity@@QAAXXZ 10036b14 f   ole32_ALL:STDID.obj
 0001:00035b58       ?DecStrongCnt@CStdIdentity@@QAAXH@Z 10036b58 f   ole32_ALL:STDID.obj
 0001:00035c10       ?GetServer@CStdIdentity@@QAAPAUIUnknown@@XZ 10036c10 f   ole32_ALL:STDID.obj
 0001:00035c34       ?ReleaseCtrlUnk@CStdIdentity@@QAAXXZ 10036c34 f   ole32_ALL:STDID.obj
 0001:00035c80       ?SetOID@CStdIdentity@@QAAJABU_GUID@@@Z 10036c80 f   ole32_ALL:STDID.obj
 0001:00035cec       ?RevokeOID@CStdIdentity@@QAAXXZ 10036cec f   ole32_ALL:STDID.obj
 0001:00035d1c       ?IsConnected@CStdIdentity@@UAAHXZ 10036d1c f   ole32_ALL:STDID.obj
 0001:00035d24       ?Disconnect@CStdIdentity@@UAAXXZ 10036d24 f   ole32_ALL:STDID.obj
 0001:00035d30       ?LockConnection@CStdIdentity@@UAAJHH@Z 10036d30 f   ole32_ALL:STDID.obj
 0001:00035db0       ?AddRef@CInternalUnk@CStdIdentity@@W3AAKXZ 10036db0 f i ole32_ALL:STDID.obj
 0001:00035db8       ?QueryInterface@CInternalUnk@CStdIdentity@@W3AAJABU_GUID@@PAPAX@Z 10036db8 f i ole32_ALL:STDID.obj
 0001:00035dc0       ??1CStdIdentity@@QAA@XZ    10036dc0 f   ole32_ALL:STDID.obj
 0001:00035e34       ?AddRef@CStdIdentity@@W3AAKXZ 10036e34 f i ole32_ALL:STDID.obj
 0001:00035e3c       ?QueryInterface@CStdIdentity@@WDM@AAJABU_GUID@@PAPAX@Z 10036e3c f i ole32_ALL:STDID.obj
 0001:00035e44       ?AddRef@CStdIdentity@@WEE@AAKXZ 10036e44 f i ole32_ALL:STDID.obj
 0001:00035e4c       ?QueryInterface@CStdIdentity@@W3AAJABU_GUID@@PAPAX@Z 10036e4c f i ole32_ALL:STDID.obj
 0001:00035e54       ?QueryInterface@CStdIdentity@@WEE@AAJABU_GUID@@PAPAX@Z 10036e54 f i ole32_ALL:STDID.obj
 0001:00035e5c       ?Release@CStdIdentity@@WDM@AAKXZ 10036e5c f i ole32_ALL:STDID.obj
 0001:00035e64       ?Release@CStdIdentity@@W3AAKXZ 10036e64 f i ole32_ALL:STDID.obj
 0001:00035e6c       ?Release@CStdIdentity@@WEE@AAKXZ 10036e6c f i ole32_ALL:STDID.obj
 0001:00035e74       ?AddRef@CStdIdentity@@WDM@AAKXZ 10036e74 f i ole32_ALL:STDID.obj
 0001:00035e7c       ?LockObjectExternal@CStdIdentity@@QAAJHH@Z 10036e7c f   ole32_ALL:STDID.obj
 0001:00035f34       ?CreateServer@CStdIdentity@@UAAJABU_GUID@@KPAX@Z 10036f34 f   ole32_ALL:STDID.obj
 0001:000360e8       ??0CStdIdentity@@QAA@KPAUIUnknown@@0PAPAU1@@Z 100370e8 f   ole32_ALL:STDID.obj
 0001:00036334       ?Release@CInternalUnk@CStdIdentity@@UAAKXZ 10037334 f   ole32_ALL:STDID.obj
 0001:000363e4       CreateIdentityHandler      100373e4 f   ole32_ALL:STDID.obj
 0001:00036488       ?Release@CInternalUnk@CStdIdentity@@W3AAKXZ 10037488 f i ole32_ALL:STDID.obj
 0001:00036490       UuidCreate                 10037490 f   ole32_ALL:RPCRT4LEGACY.dll
 0001:000364a8       ?GetTreatAs@CTreatList@@QAAJABU_GUID@@AAU2@@Z 100374a8 f   ole32_ALL:TREAT.obj
 0001:000365d8       ?GetTreatAs@@YAJABU_GUID@@AAU1@@Z 100375d8 f   ole32_ALL:TREAT.obj
 0001:000366ac       ?CleanupTreatAs@@YAXXZ     100376ac f   ole32_ALL:TREAT.obj
 0001:000366f8       ?Cleanup@CDebugEventFire@@QAAXXZ 100376f8 f   ole32_ALL:events.obj
 0001:0003675c       ?_DestroyLogger@CDebugEventFire@@UAAXXZ 1003775c f   ole32_ALL:events.obj
 0001:00036788       ?_DestroyLogger@COle32DebugEventFire@@UAAXXZ 10037788 f   ole32_ALL:events.obj
 0001:000368b4       ?GetEventLogger@CDebugEventFire@@QAAJPAPAUISystemDebugEventFire@@@Z 100378b4 f   ole32_ALL:events.obj
 0001:000369b8       ?QueryInterface@CDebugEventFire@@UAAJABU_GUID@@PAPAX@Z 100379b8 f   ole32_ALL:events.obj
 0001:00036a90       ?AddRef@CDebugEventFire@@UAAKXZ 10037a90 f   ole32_ALL:events.obj
 0001:00036aa8       ?Release@CDebugEventFire@@UAAKXZ 10037aa8 f   ole32_ALL:events.obj
 0001:00036ae0       ?EndSession@CDebugEventFire@@UAAJXZ 10037ae0 f   ole32_ALL:events.obj
 0001:00036b40       ?IsActive@CDebugEventFire@@UAAJXZ 10037b40 f   ole32_ALL:events.obj
 0001:00036ba8       ?FireEvent@CDebugEventFire@@UAAJABU_GUID@@HPAK11KJW4eVSAEventFlags@@@Z 10037ba8 f   ole32_ALL:events.obj
 0001:00036c48       ?QueryInterface@CDebugEventFireCF@@UAAJABU_GUID@@PAPAX@Z 10037c48 f   ole32_ALL:events.obj
 0001:00036cac       ?AddRef@CDebugEventFireCF@@UAAKXZ 10037cac f   ole32_ALL:events.obj
 0001:00036cb4       ?Release@CDebugEventFireCF@@UAAKXZ 10037cb4 f   ole32_ALL:events.obj
 0001:00036cbc       ?LockServer@CDebugEventFireCF@@UAAJH@Z 10037cbc f   ole32_ALL:events.obj
 0001:00036cc4       ?LogEventCleanup@@YAXXZ    10037cc4 f   ole32_ALL:events.obj
 0001:00036d14       ?LogEventClassRegistration@@YAXJPAU_RegInput@@PAU_RegOutput@@@Z 10037d14 f   ole32_ALL:events.obj
 0001:00036db4       ?LogEventClassRevokation@@YAXABU_GUID@@K@Z 10037db4 f   ole32_ALL:events.obj
 0001:00036e28       ?LogEventClientCall@@YAXPAK@Z 10037e28 f   ole32_ALL:events.obj
 0001:00036e94       ?LogEventClientReturn@@YAXPAK@Z 10037e94 f   ole32_ALL:events.obj
 0001:00036f00       ?LogEventStubEnter@@YAXPAK@Z 10037f00 f   ole32_ALL:events.obj
 0001:00036f6c       ?LogEventStubLeave@@YAXPAK@Z 10037f6c f   ole32_ALL:events.obj
 0001:00036fd8       ?LogEventStubException@@YAXPAK@Z 10037fd8 f   ole32_ALL:events.obj
 0001:00037118       ?LogEventMarshal@@YAXAAUtagOBJREF@@@Z 10038118 f   ole32_ALL:events.obj
 0001:00037190       ?LogEventUnmarshal@@YAXAAUtagOBJREF@@@Z 10038190 f   ole32_ALL:events.obj
 0001:00037208       ?LogEventDisconnect@@YAXPBU_GUID@@PAUtagMIDEntry@@H@Z 10038208 f   ole32_ALL:events.obj
 0001:000372b0       ?_CreateLogger@CDebugEventFire@@UAAXXZ 100382b0 f   ole32_ALL:events.obj
 0001:00037378       ?_CreateLogger@COle32DebugEventFire@@UAAXXZ 10038378 f   ole32_ALL:events.obj
 0001:000373d8       ?LogEventIsActive@@YAHXZ   100383d8 f   ole32_ALL:events.obj
 0001:00037450       ?CreateInstance@CDebugEventFireCF@@UAAJPAUIUnknown@@ABU_GUID@@PAPAX@Z 10038450 f   ole32_ALL:events.obj
 0001:00037500       ?LogEventGetClassObject@@YAJABU_GUID@@PAPAX@Z 10038500 f   ole32_ALL:events.obj
 0001:0003754c       ?LogEventInitialize@@YAXXZ 1003854c f   ole32_ALL:events.obj
 0001:000376a4       ?BeginSession@CDebugEventFire@@UAAJABU_GUID@@PBG@Z 100386a4 f   ole32_ALL:events.obj
 0001:00037740       ??0CSpyTable@@QAA@PAH@Z    10038740 f   ole32_ALL:CSPYTBL.obj
 0001:0003779c       ??1CSpyTable@@QAA@XZ       1003879c f   ole32_ALL:CSPYTBL.obj
 0001:000377a4       ?Add@CSpyTable@@QAAHPAX@Z  100387a4 f   ole32_ALL:CSPYTBL.obj
 0001:00037858       ?Find@CSpyTable@@QAAHPAXPAK@Z 10038858 f   ole32_ALL:CSPYTBL.obj
 0001:000378f0       ?Expand@CSpyTable@@AAAHXZ  100388f0 f   ole32_ALL:CSPYTBL.obj
 0001:000379b4       ?Remove@CSpyTable@@QAAHPAX@Z 100389b4 f   ole32_ALL:CSPYTBL.obj
 0001:00037a08       ?DummyCleanup@@YAXPAUSHashChain@@@Z 10038a08 f   ole32_ALL:HASH.obj
 0001:00037a0c       ?Lookup@CHashTable@@IAAPAUSHashChain@@KPBX@Z 10038a0c f   ole32_ALL:HASH.obj
 0001:00037a8c       ?Add@CHashTable@@IAAXKPAUSHashChain@@@Z 10038a8c f   ole32_ALL:HASH.obj
 0001:00037ad0       ?Remove@CHashTable@@QAAXPAUSHashChain@@@Z 10038ad0 f   ole32_ALL:HASH.obj
 0001:00037aec       ?HashNode@CUUIDHashTable@@UAAKPAUSHashChain@@@Z 10038aec f   ole32_ALL:HASH.obj
 0001:00037b2c       ?Compare@CUUIDHashTable@@UAAHPBXPAUSHashChain@@K@Z 10038b2c f   ole32_ALL:HASH.obj
 0001:00037b38       ?Hash@CStringHashTable@@QAAKPAUtagDUALSTRINGARRAY@@@Z 10038b38 f   ole32_ALL:HASH.obj
 0001:00037b70       ?HashNode@CStringHashTable@@UAAKPAUSHashChain@@@Z 10038b70 f   ole32_ALL:HASH.obj
 0001:00037b78       ?Compare@CStringHashTable@@UAAHPBXPAUSHashChain@@K@Z 10038b78 f   ole32_ALL:HASH.obj
 0001:00037bb8       ?Hash@CNameHashTable@@QAAKABU_GUID@@PAUtagSECURITYBINDING@@@Z 10038bb8 f   ole32_ALL:HASH.obj
 0001:00037c14       ?HashNode@CNameHashTable@@UAAKPAUSHashChain@@@Z 10038c14 f   ole32_ALL:HASH.obj
 0001:00037c20       ?Compare@CNameHashTable@@UAAHPBXPAUSHashChain@@K@Z 10038c20 f   ole32_ALL:HASH.obj
 0001:00037c70       ?IncRef@CNameHashTable@@QAAJKABU_GUID@@PAUtagSECURITYBINDING@@@Z 10038c70 f   ole32_ALL:HASH.obj
 0001:00037dc8       ?DecRef@CNameHashTable@@QAAKKABU_GUID@@PAUtagSECURITYBINDING@@@Z 10038dc8 f   ole32_ALL:HASH.obj
 0001:00037e74       ?Hash@CExtHashTable@@QAAKPBG@Z 10038e74 f   ole32_ALL:HASH.obj
 0001:00037eb4       ?HashNode@CExtHashTable@@UAAKPAUSHashChain@@@Z 10038eb4 f   ole32_ALL:HASH.obj
 0001:00037ebc       ?Compare@CExtHashTable@@UAAHPBXPAUSHashChain@@K@Z 10038ebc f   ole32_ALL:HASH.obj
 0001:00037edc       ?Cleanup@CHashTable@@UAAXP6AXPAUSHashChain@@@Z@Z 10038edc f   ole32_ALL:HASH.obj
 0001:00037f44       ?Cleanup@CNameHashTable@@QAAXXZ 10038f44 f   ole32_ALL:HASH.obj
 0001:00037f50       ?Initialize@CPageAllocator@@QAAXJJ@Z 10038f50 f   ole32_ALL:PGALLOC.obj
 0001:00037f70       ?Cleanup@CPageAllocator@@QAAXXZ 10038f70 f   ole32_ALL:PGALLOC.obj
 0001:00037fd8       ?ReleaseEntry@CPageAllocator@@QAAXPAUtagPageEntry@@@Z 10038fd8 f   ole32_ALL:PGALLOC.obj
 0001:00037fe8       ?ReleaseEntryList@CPageAllocator@@QAAXPAUtagPageEntry@@0@Z 10038fe8 f   ole32_ALL:PGALLOC.obj
 0001:00037ff8       ?Grow@CPageAllocator@@AAAXXZ 10038ff8 f   ole32_ALL:PGALLOC.obj
 0001:00038100       ?GetEntryIndex@CPageAllocator@@QAAJPAUtagPageEntry@@@Z 10039100 f   ole32_ALL:PGALLOC.obj
 0001:00038170       ?IsValidIndex@CPageAllocator@@QAAHJ@Z 10039170 f   ole32_ALL:PGALLOC.obj
 0001:000381a0       ?GetEntryPtr@CPageAllocator@@QAAPAUtagPageEntry@@J@Z 100391a0 f   ole32_ALL:PGALLOC.obj
 0001:000381bc       ?AllocEntry@CPageAllocator@@QAAPAUtagPageEntry@@XZ 100391bc f   ole32_ALL:PGALLOC.obj
 0001:000381f4       RpcServerRegisterIfEx      100391f4 f   ole32_ALL:RPCRT4LEGACY.dll
 0001:00038204       RpcServerUnregisterIf      10039204 f   ole32_ALL:RPCRT4LEGACY.dll
 0001:00038214       ?QueryInterface@CRemoteUnknown@@UAAJABU_GUID@@PAPAX@Z 10039214 f   ole32_ALL:REMOTEU.obj
 0001:00038294       ?AddRef@CRemoteUnknown@@UAAKXZ 10039294 f   ole32_ALL:REMOTEU.obj
 0001:0003829c       ?Release@CRemoteUnknown@@UAAKXZ 1003929c f   ole32_ALL:REMOTEU.obj
 0001:000382a4       ?GetIPIDEntry@@YAPAUtagIPIDEntry@@ABU_GUID@@@Z 100392a4 f   ole32_ALL:REMOTEU.obj
 0001:000382d4       ?GetSecBinding@CRemoteUnknown@@AAAJPAPAUtagSECURITYBINDING@@@Z 100392d4 f   ole32_ALL:REMOTEU.obj
 0001:00038428       ??1CRemoteUnknown@@QAA@XZ  10039428 f   ole32_ALL:REMOTEU.obj
 0001:0003848c       ?RemQueryInterface@CRemoteUnknown@@UAAJABU_GUID@@KGPAU2@PAPAUtagREMQIRESULT@@@Z 1003948c f   ole32_ALL:REMOTEU.obj
 0001:00038664       ?RemAddRef@CRemoteUnknown@@UAAJGQAUtagREMINTERFACEREF@@PAJ@Z 10039664 f   ole32_ALL:REMOTEU.obj
 0001:000387a0       ?RemRelease@CRemoteUnknown@@UAAJGQAUtagREMINTERFACEREF@@@Z 100397a0 f   ole32_ALL:REMOTEU.obj
 0001:00038914       ?RemChangeRef@CRemoteUnknown@@UAAJKGQAUtagREMINTERFACEREF@@@Z 10039914 f   ole32_ALL:REMOTEU.obj
 0001:00038a68       ?RundownOid@CRemoteUnknown@@UAAJKQA_KQAE@Z 10039a68 f   ole32_ALL:REMOTEU.obj
 0001:00038c04       ??0CRemoteUnknown@@QAA@AAJPAU_GUID@@@Z 10039c04 f   ole32_ALL:REMOTEU.obj
 0001:00038cec       RpcBindingFree             10039cec f   ole32_ALL:RPCRT4LEGACY.dll
 0001:00038cfc       I_RpcBindingSetAsync       10039cfc f   ole32_ALL:RPCRT4LEGACY.dll
 0001:00038d0c       RpcBindingFromStringBindingW 10039d0c f   ole32_ALL:RPCRT4LEGACY.dll
 0001:00038d24       GetProfileString           10039d24 f i ole32_ALL:ORPC_DBG.obj
 0001:00038e70       WriteProfileString         10039e70 f i ole32_ALL:ORPC_DBG.obj
 0001:00038f94       ??1CBaseMoniker@@UAA@XZ    10039f94 f   ole32_ALL:CBASEMON.obj
 0001:00038fb0       ?AddRef@CBaseMoniker@@UAAKXZ 10039fb0 f   ole32_ALL:CBASEMON.obj
 0001:00038fb8       ?Release@CBaseMoniker@@UAAKXZ 10039fb8 f   ole32_ALL:CBASEMON.obj
 0001:00038ff4       ?IsDirty@CBaseMoniker@@UAAJXZ 10039ff4 f   ole32_ALL:CBASEMON.obj
 0001:00038ffc       ?Load@CBaseMoniker@@UAAJPAUIStream@@@Z 10039ffc f   ole32_ALL:CBASEMON.obj
 0001:00039008       ?Save@CBaseMoniker@@UAAJPAUIStream@@H@Z 1003a008 f   ole32_ALL:CBASEMON.obj
 0001:00039014       ?GetSizeMax@CBaseMoniker@@UAAJPAT_ULARGE_INTEGER@@@Z 1003a014 f   ole32_ALL:CBASEMON.obj
 0001:00039020       ?BindToObject@CBaseMoniker@@UAAJPAUIBindCtx@@PAUIMoniker@@ABU_GUID@@PAPAX@Z 1003a020 f   ole32_ALL:CBASEMON.obj
 0001:0003902c       ?BindToStorage@CBaseMoniker@@UAAJPAUIBindCtx@@PAUIMoniker@@ABU_GUID@@PAPAX@Z 1003a02c f   ole32_ALL:CBASEMON.obj
 0001:00039038       ?Reduce@CBaseMoniker@@UAAJPAUIBindCtx@@KPAPAUIMoniker@@1@Z 1003a038 f   ole32_ALL:CBASEMON.obj
 0001:00039060       ?ComposeWith@CBaseMoniker@@UAAJPAUIMoniker@@HPAPAU2@@Z 1003a060 f   ole32_ALL:CBASEMON.obj
 0001:0003906c       ?Enum@CBaseMoniker@@UAAJHPAPAUIEnumMoniker@@@Z 1003a06c f   ole32_ALL:CBASEMON.obj
 0001:000390a8       ?IsEqual@CBaseMoniker@@UAAJPAUIMoniker@@@Z 1003a0a8 f   ole32_ALL:CBASEMON.obj
 0001:000390b4       ?Hash@CBaseMoniker@@UAAJPAK@Z 1003a0b4 f   ole32_ALL:CBASEMON.obj
 0001:000390c0       ?GetTimeOfLastChange@CBaseMoniker@@UAAJPAUIBindCtx@@PAUIMoniker@@PAU_FILETIME@@@Z 1003a0c0 f   ole32_ALL:CBASEMON.obj
 0001:000390cc       ?Inverse@CBaseMoniker@@UAAJPAPAUIMoniker@@@Z 1003a0cc f   ole32_ALL:CBASEMON.obj
 0001:000390e0       ?CommonPrefixWith@CBaseMoniker@@UAAJPAUIMoniker@@PAPAU2@@Z 1003a0e0 f   ole32_ALL:CBASEMON.obj
 0001:000390e4       ?RelativePathTo@CBaseMoniker@@UAAJPAUIMoniker@@PAPAU2@@Z 1003a0e4 f   ole32_ALL:CBASEMON.obj
 0001:000390ec       ?GetDisplayName@CBaseMoniker@@UAAJPAUIBindCtx@@PAUIMoniker@@PAPAG@Z 1003a0ec f   ole32_ALL:CBASEMON.obj
 0001:000390f8       ?ParseDisplayName@CBaseMoniker@@UAAJPAUIBindCtx@@PAUIMoniker@@PAGPAKPAPAU3@@Z 1003a0f8 f   ole32_ALL:CBASEMON.obj
 0001:00039104       ?IsSystemMoniker@CBaseMoniker@@UAAJPAK@Z 1003a104 f   ole32_ALL:CBASEMON.obj
 0001:00039134       ?IsRunning@CBaseMoniker@@UAAJPAUIBindCtx@@PAUIMoniker@@1@Z 1003a134 f   ole32_ALL:CBASEMON.obj
 0001:00039220       ?GetComparisonData@CBaseMoniker@@UAAJPAEKPAK@Z 1003a220 f   ole32_ALL:CBASEMON.obj
 0001:0003922c       ?QueryInterface@CBaseMoniker@@UAAJABU_GUID@@PAPAX@Z 1003a22c f   ole32_ALL:CBASEMON.obj
 0001:00039338       ?BuildRotDataFromDisplayName@@YAJPAUIBindCtx@@PAUIMoniker@@PAEKPAK@Z 1003a338 f   ole32_ALL:ROTDATA.obj
 0001:0003946c       ?BuildRotData@@YAJPAUIBindCtx@@PAUIMoniker@@PAEKPAK@Z 1003a46c f   ole32_ALL:ROTDATA.obj
 0001:00039524       ?QueryInterface@CMarshalImplPStream@@UAAJABU_GUID@@PAPAX@Z 1003a524 f   ole32_ALL:CMARSHAL.obj
 0001:00039570       ?AddRef@CMarshalImplPStream@@UAAKXZ 1003a570 f   ole32_ALL:CMARSHAL.obj
 0001:00039588       ?Release@CMarshalImplPStream@@UAAKXZ 1003a588 f   ole32_ALL:CMARSHAL.obj
 0001:000395a0       ?GetUnmarshalClass@CMarshalImplPStream@@UAAJABU_GUID@@PAXK1KPAU2@@Z 1003a5a0 f   ole32_ALL:CMARSHAL.obj
 0001:000395d8       ?GetMarshalSizeMax@CMarshalImplPStream@@UAAJABU_GUID@@PAXK1KPAK@Z 1003a5d8 f   ole32_ALL:CMARSHAL.obj
 0001:000396f8       ?MarshalInterface@CMarshalImplPStream@@UAAJPAUIStream@@ABU_GUID@@PAXK2K@Z 1003a6f8 f   ole32_ALL:CMARSHAL.obj
 0001:000397f0       ?UnmarshalInterface@CMarshalImplPStream@@UAAJPAUIStream@@ABU_GUID@@PAPAX@Z 1003a7f0 f   ole32_ALL:CMARSHAL.obj
 0001:00039914       ?ReleaseMarshalData@CMarshalImplPStream@@UAAJPAUIStream@@@Z 1003a914 f   ole32_ALL:CMARSHAL.obj
 0001:0003991c       ?DisconnectObject@CMarshalImplPStream@@UAAJK@Z 1003a91c f   ole32_ALL:CMARSHAL.obj
 0001:00039924       ??0CMarshalImplPStream@@QAA@PAUIPersistStream@@@Z 1003a924 f   ole32_ALL:CMARSHAL.obj
 0001:0003993c       ?StRead@@YAJPAUIStream@@PAXK@Z 1003a93c f   ole32_ALL:UTSTREAM.obj
 0001:00039980       I_RpcFreeBuffer            1003a980 f   ole32_ALL:RPCRT4LEGACY.dll
 0001:00039990       RpcBindingSetObject        1003a990 f   ole32_ALL:RPCRT4LEGACY.dll
 0001:000399a0       RpcBindingCopy             1003a9a0 f   ole32_ALL:RPCRT4LEGACY.dll
 0001:000399b0       I_RpcGetBuffer             1003a9b0 f   ole32_ALL:RPCRT4LEGACY.dll
 0001:000399c0       RpcBindingInqObject        1003a9c0 f   ole32_ALL:RPCRT4LEGACY.dll
 0001:000399d0       RpcRaiseException          1003a9d0 f   ole32_ALL:RPCRT4LEGACY.dll
 0001:000399e0       I_RpcServerInqTransportType 1003a9e0 f   ole32_ALL:RPCRT4LEGACY.dll
 0001:000399f0       ??0CRpcThread@@QAA@P6AKPAX@Z0@Z 1003a9f0 f   ole32_ALL:THREADS.obj
 0001:00039a34       ?RemoveFromFreeList@CRpcThreadCache@@QAAXPAVCRpcThread@@@Z 1003aa34 f   ole32_ALL:THREADS.obj
 0001:00039ab0       ?ClearFreeList@CRpcThreadCache@@QAAXXZ 1003aab0 f   ole32_ALL:THREADS.obj
 0001:00039b18       ?WorkerLoop@CRpcThread@@QAAXXZ 1003ab18 f   ole32_ALL:THREADS.obj
 0001:00039bc4       ?RpcWorkerThreadEntry@CRpcThreadCache@@CAKPAX@Z 1003abc4 f   ole32_ALL:THREADS.obj
 0001:00039c18       ?CacheCreateThread@@YAJP6AKPAX@Z0@Z 1003ac18 f   ole32_ALL:THREADS.obj
 0001:00039d40       ??0CRefCache@@QAA@PAUtagOXIDEntry@@@Z 1003ad40 f   ole32_ALL:refcache.obj
 0001:00039d6c       ??1CRefCache@@QAA@XZ       1003ad6c f   ole32_ALL:refcache.obj
 0001:00039da0       ?GetSharedRefs@CRefCache@@SAJPAUtagIPIDEntry@@K@Z 1003ada0 f   ole32_ALL:refcache.obj
 0001:00039dcc       ?CleanupStrong@CRefCache@@AAAXPAPAUtagREMINTERFACEREF@@PAG@Z 1003adcc f   ole32_ALL:refcache.obj
 0001:00039ec8       ?CleanupWeak@CRefCache@@AAAXPAPAUtagREMINTERFACEREF@@PAG@Z 1003aec8 f   ole32_ALL:refcache.obj
 0001:00039f68       ?ReleaseIPIDEntry@CRefCache@@SAXPAUtagIPIDEntry@@PAPAUtagREMINTERFACEREF@@PAGPAPAUtagOXIDEntry@@@Z 1003af68 f   ole32_ALL:refcache.obj
 0001:0003a198       ?GiveUpRefs@CRefCache@@SAXPAUtagIPIDEntry@@@Z 1003b198 f   ole32_ALL:refcache.obj
 0001:0003a1f0       ?ClientFindIRCEntry@CRefCache@@AAAPAUIRCEntry@@ABU_GUID@@@Z 1003b1f0 f   ole32_ALL:refcache.obj
 0001:0003a2a0       ?ChangeRef@CRefCache@@SAXPAUtagIPIDEntry@@HPAPAUtagREMINTERFACEREF@@PAG12@Z 1003b2a0 f   ole32_ALL:refcache.obj
 0001:0003a450       ?TrackIPIDEntry@CRefCache@@SAXABU_GUID@@PAUtagIPIDEntry@@PAUtagOXIDEntry@@@Z 1003b450 f   ole32_ALL:refcache.obj
 0001:0003a4ec       ?Cleanup@CRefCache@@SAXXZ  1003b4ec f   ole32_ALL:refcache.obj
 0001:0003a544       ?Initialize@CGIPTable@@QAAXXZ 1003b544 f   ole32_ALL:GIPTBL.obj
 0001:0003a558       ?Cleanup@CGIPTable@@QAAXXZ 1003b558 f   ole32_ALL:GIPTBL.obj
 0001:0003a564       ?RevokeAllEntries@CGIPTable@@QAAXXZ 1003b564 f   ole32_ALL:GIPTBL.obj
 0001:0003a5cc       ?GetEntryPtr@CGIPTable@@AAAJKPAPAUtagGIPEntry@@@Z 1003b5cc f   ole32_ALL:GIPTBL.obj
 0001:0003a638       ?QueryInterface@CGIPTable@@UAAJABU_GUID@@PAPAX@Z 1003b638 f   ole32_ALL:GIPTBL.obj
 0001:0003a6ac       ?QueryInterface@CGIPTableCF@@UAAJABU_GUID@@PAPAX@Z 1003b6ac f   ole32_ALL:GIPTBL.obj
 0001:0003a720       ?CreateInstance@CGIPTableCF@@UAAJPAUIUnknown@@ABU_GUID@@PAPAX@Z 1003b720 f   ole32_ALL:GIPTBL.obj
 0001:0003a758       ?GetGIPTblCF@@YAJABU_GUID@@PAPAX@Z 1003b758 f   ole32_ALL:GIPTBL.obj
 0001:0003a76c       ?AddRef@CGIPTable@@UAAKXZ  1003b76c f i ole32_ALL:GIPTBL.obj
 0001:0003a774       ?Release@CGIPTable@@UAAKXZ 1003b774 f i ole32_ALL:GIPTBL.obj
 0001:0003a77c       ?AddRef@CGIPTableCF@@UAAKXZ 1003b77c f i ole32_ALL:GIPTBL.obj
 0001:0003a784       ?Release@CGIPTableCF@@UAAKXZ 1003b784 f i ole32_ALL:GIPTBL.obj
 0001:0003a78c       ?LockServer@CGIPTableCF@@UAAJH@Z 1003b78c f i ole32_ALL:GIPTBL.obj
 0001:0003a794       ?RevokeFromMTA@@YAKPAX@Z   1003b794 f   ole32_ALL:GIPTBL.obj
 0001:0003a7e4       ?AllocEntry@CGIPTable@@AAAJPAPAUtagGIPEntry@@PAK@Z 1003b7e4 f   ole32_ALL:GIPTBL.obj
 0001:0003a8d8       ?ReleaseEntry@CGIPTable@@AAAXPAUtagGIPEntry@@@Z 1003b8d8 f   ole32_ALL:GIPTBL.obj
 0001:0003a92c       ?RevokeInterfaceFromGlobal@CGIPTable@@UAAJK@Z 1003b92c f   ole32_ALL:GIPTBL.obj
 0001:0003ab48       ?GetInterfaceFromGlobal@CGIPTable@@UAAJKABU_GUID@@PAPAX@Z 1003bb48 f   ole32_ALL:GIPTBL.obj
 0001:0003ac98       ?RegisterInterfaceInGlobal@CGIPTable@@UAAJPAUIUnknown@@ABU_GUID@@PAK@Z 1003bc98 f   ole32_ALL:GIPTBL.obj
 0001:0003b02c       I_RpcSendReceive           1003c02c f   ole32_ALL:RPCRT4LEGACY.dll
 0001:0003b03c       I_RpcAsyncSendReceive      1003c03c f   ole32_ALL:RPCRT4LEGACY.dll
 0001:0003b04c       ??0CExtentList@@QAA@XZ     1003c04c f   ole32_ALL:EXTENTS.obj
 0001:0003b05c       ??1CExtentList@@QAA@XZ     1003c05c f   ole32_ALL:EXTENTS.obj
 0001:0003b074       ?FindExtent@CExtentList@@QAAPFAU_MONIKEREXTENT@@G@Z 1003c074 f   ole32_ALL:EXTENTS.obj
 0001:0003b0f0       ?AddExtent@CExtentList@@QAAJPBU_MONIKEREXTENT@@@Z 1003c0f0 f   ole32_ALL:EXTENTS.obj
 0001:0003b150       ?Save@CExtentList@@QAAJPAUIStream@@@Z 1003c150 f   ole32_ALL:EXTENTS.obj
 0001:0003b1a4       ?Load@CExtentList@@QAAJPAUIStream@@K@Z 1003c1a4 f   ole32_ALL:EXTENTS.obj
 0001:0003b200       ?GetSize@CExtentList@@QAAKXZ 1003c200 f   ole32_ALL:EXTENTS.obj
 0001:0003b20c       ?CloseSharedFileMapping@@YAXPAX0@Z 1003c20c f   ole32_ALL:SMCREATE.obj
 0001:0003b230       ?OpenSharedFileMapping@@YAPAXPAGKPAPAX@Z 1003c230 f   ole32_ALL:SMCREATE.obj
 0001:0003b2ac       ??0CArrayFValue@@QAA@I@Z   1003c2ac f   ole32_ALL:ARRAY_FV.obj
 0001:0003b2c8       ??1CArrayFValue@@QAA@XZ    1003c2c8 f   ole32_ALL:ARRAY_FV.obj
 0001:0003b2f4       ?SetSize@CArrayFValue@@QAAHHH@Z 1003c2f4 f   ole32_ALL:ARRAY_FV.obj
 0001:0003b494       ?_GetAt@CArrayFValue@@QBAPAXH@Z 1003c494 f   ole32_ALL:ARRAY_FV.obj
 0001:0003b4a4       ?SetAtGrow@CArrayFValue@@QAAHHPAX@Z 1003c4a4 f   ole32_ALL:ARRAY_FV.obj
 0001:0003b4f8       ?InsertAt@CArrayFValue@@QAAHHPAXH@Z 1003c4f8 f   ole32_ALL:ARRAY_FV.obj
 0001:0003b5b4       ?IndexOf@CArrayFValue@@QAAHPAXII@Z 1003c5b4 f   ole32_ALL:ARRAY_FV.obj
 0001:0003b68c       ?GetIndicator@CCliRotHintTable@@QAAHK@Z 1003c68c f   ole32_ALL:CROTHINT.obj
 0001:0003b6d4       ?ScmRotHash@@YAKPAEKK@Z    1003c6d4 f   ole32_ALL:ROTHELP.obj
 0001:0003b718       ?CreateFileMonikerComparisonBuffer@@YAJPAGPAEKPAK@Z 1003c718 f   ole32_ALL:ROTHELP.obj
 0001:0003b7a0       ??_H@YAXPAXIHP6APAX0@Z@Z   1003c7a0 f i ole32_ALL:exphead.obj
 0001:0003b7d0       ??2CMallocBased@@SAPAXIQAUIMalloc@@@Z 1003c7d0 f   ole32_ALL:mem.obj
 0001:0003b7e0       ??3CMallocBased@@SAXPAX@Z  1003c7e0 f   ole32_ALL:mem.obj
 0001:0003b7f8       ?deleteNoMutex@CMallocBased@@QAAXPAX@Z 1003c7f8 f   ole32_ALL:mem.obj
 0001:0003b810       ?NullInitSm@@YAJPAPAUIMalloc@@@Z 1003c810 f   ole32_ALL:mem.obj
 0001:0003b828       ?DfSyncSharedMemory@@YAJXZ 1003c828 f   ole32_ALL:mem.obj
 0001:0003b86c       ?DfInitSharedMemBase@@YAXXZ 1003c86c f   ole32_ALL:mem.obj
 0001:0003b8a0       ?InitSharedAllocator@@YAJPAPAUIMalloc@@@Z 1003c8a0 f   ole32_ALL:mem.obj
 0001:0003b978       ?HeapMinimize@CSmAllocator@@UAAXXZ 1003c978 f i ole32_ALL:mem.obj
 0001:0003b97c       ?InitFromHandle@CFileStream@@QAAJPAX@Z 1003c97c f   ole32_ALL:filest32.obj
 0001:0003b988       ?ReadAt@CFileStream@@UAAJT_ULARGE_INTEGER@@PAXKPAK@Z 1003c988 f   ole32_ALL:filest32.obj
 0001:0003ba2c       ?WriteAt@CFileStream@@UAAJT_ULARGE_INTEGER@@PBXKPAK@Z 1003ca2c f   ole32_ALL:filest32.obj
 0001:0003bad0       ?Flush@CFileStream@@UAAJXZ 1003cad0 f   ole32_ALL:filest32.obj
 0001:0003bad8       ?FlushCache@CFileStream@@UAAJXZ 1003cad8 f   ole32_ALL:filest32.obj
 0001:0003bb00       ?SetSize@CFileStream@@UAAJT_ULARGE_INTEGER@@@Z 1003cb00 f   ole32_ALL:filest32.obj
 0001:0003bb78       ?LockRegion@CFileStream@@UAAJT_ULARGE_INTEGER@@0K@Z 1003cb78 f   ole32_ALL:filest32.obj
 0001:0003bb90       ?UnlockRegion@CFileStream@@UAAJT_ULARGE_INTEGER@@0K@Z 1003cb90 f   ole32_ALL:filest32.obj
 0001:0003bba8       ?ReserveHandle@CFileStream@@UAAJXZ 1003cba8 f   ole32_ALL:filest32.obj
 0001:0003bbb4       ?GetSize@CFileStream@@UAAJPAT_ULARGE_INTEGER@@@Z 1003cbb4 f   ole32_ALL:filest32.obj
 0001:0003bbec       ?SetTime@CFileStream@@QAAJW4WHICHTIME@@U_FILETIME@@@Z 1003cbec f   ole32_ALL:filest32.obj
 0001:0003bc44       ?SetAllTimes@CFileStream@@QAAJU_FILETIME@@00@Z 1003cc44 f   ole32_ALL:filest32.obj
 0001:0003bc8c       ?InitWorker@CFileStream@@AAAJPBGH@Z 1003cc8c f   ole32_ALL:filest32.obj
 0001:0003bfa8       ?Stat@CFileStream@@UAAJPAUtagSTATSTG@@K@Z 1003cfa8 f   ole32_ALL:filest32.obj
 0001:0003c060       ?Delete@CFileStream@@QAAXXZ 1003d060 f   ole32_ALL:filest32.obj
 0001:0003c0ac       ??1CFileStream@@QAA@XZ     1003d0ac f   ole32_ALL:filest32.obj
 0001:0003c178       ?QueryInterface@CFileStream@@W3AAJABU_GUID@@PAPAX@Z 1003d178 f i ole32_ALL:filest32.obj
 0001:0003c180       ?Release@CFileStream@@W3AAKXZ 1003d180 f i ole32_ALL:filest32.obj
 0001:0003c188       ?AddRef@CFileStream@@W3AAKXZ 1003d188 f i ole32_ALL:filest32.obj
 0001:0003c198       ?SwitchToFile@CFileStream@@UAAJPBGKKPAX@Z 1003d198 f   ole32_ALL:filest32.obj
 0001:0003c458       ?CopyTimesFrom@PTimeEntry@@QAAJPAV1@@Z 1003d458 f   ole32_ALL:entry.obj
 0001:0003c4c8       ?GetNewLuid@PBasicEntry@@SAKPBUIMalloc@@@Z 1003d4c8 f   ole32_ALL:entry.obj
 0001:0003c4cc       ?Close@CPerContext@@QAAXXZ 1003d4cc f   ole32_ALL:context.obj
 0001:0003c544       ??1CPerContext@@QAA@XZ     1003d544 f   ole32_ALL:context.obj
 0001:0003c59c       ?GetAccess@@YAJPAUILockBytes@@KPAK@Z 1003d59c f   ole32_ALL:lock.obj
 0001:0003c6cc       ?ReleaseAccess@@YAXPAUILockBytes@@KK@Z 1003d6cc f   ole32_ALL:lock.obj
 0001:0003ceac       ?GetOpen@@YAJPAUILockBytes@@KHPAK@Z 1003deac f   ole32_ALL:lock.obj
 0001:0003cee0       ?ReleaseOpen@@YAXPAUILockBytes@@KK@Z 1003dee0 f   ole32_ALL:lock.obj
 0001:0003cef8       ?WaitForAccess@@YAJPAUILockBytes@@KPAK@Z 1003def8 f   ole32_ALL:lock.obj
 0001:0003cf58       ?GetLocksSupported@CFileStream@@UAAJPAK@Z 1003df58 f   ole32_ALL:filest.obj
 0001:0003cf68       ?Release@CFileStream@@UAAKXZ 1003df68 f   ole32_ALL:filest.obj
 0001:0003cf94       ?AddRef@CFileStream@@UAAKXZ 1003df94 f   ole32_ALL:filest.obj
 0001:0003cfa8       ?GetName@CFileStream@@QAAJPAPAG@Z 1003dfa8 f   ole32_ALL:filest.obj
 0001:0003d040       ?QueryInterface@CFileStream@@UAAJABU_GUID@@PAPAX@Z 1003e040 f   ole32_ALL:filest.obj
 0001:0003d0e0       ??0CFileStream@@QAA@QAUIMalloc@@@Z 1003e0e0 f   ole32_ALL:filest.obj
 0001:0003d13c       ?InitFlags@CFileStream@@QAAJKK@Z 1003e13c f   ole32_ALL:filest.obj
 0001:0003d1cc       ??0CMSFHeaderData@@QAA@G@Z 1003e1cc f   ole32_ALL:header.obj
 0001:0003d2a4       ??0CMSFHeader@@QAA@G@Z     1003e2a4 f   ole32_ALL:header.obj
 0001:0003d2c0       ?GetDirLength@CMSFHeader@@QBAKXZ 1003e2c0 f i ole32_ALL:header.obj
 0001:0003d2c8       ?GetFatLength@CMSFHeader@@QBAKXZ 1003e2c8 f i ole32_ALL:header.obj
 0001:0003d2d0       ?GetMiniFatLength@CMSFHeader@@QBAKXZ 1003e2d0 f i ole32_ALL:header.obj
 0001:0003d2d8       ?GetDifLength@CMSFHeader@@QBAKXZ 1003e2d8 f i ole32_ALL:header.obj
 0001:0003d2e0       ?GetMiniSectorShift@CMSFHeader@@QBAGXZ 1003e2e0 f i ole32_ALL:header.obj
 0001:0003d2e8       ?GetMiniSectorCutoff@CMSFHeader@@QBAKXZ 1003e2e8 f i ole32_ALL:header.obj
 0001:0003d2f0       ?GetDllVersion@CMSFHeader@@QBAGXZ 1003e2f0 f i ole32_ALL:header.obj
 0001:0003d2f8       ?Validate@CMSFHeader@@QBAJXZ 1003e2f8 f   ole32_ALL:header.obj
 0001:0003d3f8       ?ModeToDFlags@@YAKK@Z      1003e3f8 f   ole32_ALL:funcs.obj
 0001:0003d4a4       ?DFlagsToMode@@YAKK@Z      1003e4a4 f   ole32_ALL:funcs.obj
 0001:0003d51c       ?VerifyPerms@@YAJK@Z       1003e51c f   ole32_ALL:funcs.obj
 0001:0003d60c       ?CheckName@@YAJPBG@Z       1003e60c f   ole32_ALL:funcs.obj
 0001:0003d6b8       ?ValidateSNB@@YAJPAPAG@Z   1003e6b8 f   ole32_ALL:funcs.obj
 0001:0003d6e4       ?dfwcsnicmp@@YAHPBG0I@Z    1003e6e4 f   ole32_ALL:funcs.obj
 0001:0003d764       ?Win32ErrorToScode@@YAJK@Z 1003e764 f   ole32_ALL:funcs.obj
 0001:0003d91c       ?GetLength@CDfName@@QBAGXZ 1003e91c f i ole32_ALL:funcs.obj
 0001:0003d924       ?GetBuffer@CDfName@@QBAPAEXZ 1003e924 f i ole32_ALL:funcs.obj
 0001:0003d928       ??2CLocalAlloc@@SAPAXI@Z   1003e928 f i ole32_ALL:funcs.obj
 0001:0003d92c       ??3CLocalAlloc@@SAXPAX@Z   1003e92c f i ole32_ALL:funcs.obj
 0001:0003d930       ?CopySStreamToSStream@@YAJPAVPSStream@@0@Z 1003e930 f   ole32_ALL:funcs.obj
 0001:0003da60       ?NameInSNB@@YAJPBVCDfName@@PAPAG@Z 1003ea60 f   ole32_ALL:funcs.obj
 0001:0003dad4       ?Remove@CContextList@@QAAXPAVCContext@@@Z 1003ead4 f   ole32_ALL:cntxlist.obj
 0001:0003db1c       ?Add@CContextList@@QAAXPAVCContext@@@Z 1003eb1c f   ole32_ALL:cntxlist.obj
 0001:0003db54       ??0CDfName@@QAA@XZ         1003eb54 f i ole32_ALL:publicdf.obj
 0001:0003db68       ?CopyLStreamToLStream@CPubDocFile@@KAJPAUILockBytes@@0@Z 1003eb68 f   ole32_ALL:publicdf.obj
 0001:0003dd08       ?Set@CDfName@@QAAXGPBE@Z   1003ed08 f i ole32_ALL:publicdf.obj
 0001:0003dd34       ?GetSectorSize@CMStream@@QBAGXZ 1003ed34 f i ole32_ALL:publicdf.obj
 0001:0003dd40       ?GetILB@CMStream@@QBAPAUILockBytes@@XZ 1003ed40 f i ole32_ALL:publicdf.obj
 0001:0003dd58       ?GetTransactedDepth@CPubDocFile@@QBAIXZ 1003ed58 f i ole32_ALL:publicdf.obj
 0001:0003dd60       ?ReleaseChild@CPubDocFile@@QAAXPAVPRevertable@@@Z 1003ed60 f i ole32_ALL:publicdf.obj
 0001:0003dd68       ?AddChild@CPubDocFile@@QAAXPAVPRevertable@@@Z 1003ed68 f i ole32_ALL:publicdf.obj
 0001:0003dd70       ?GetMalloc@CMStream@@QBAPAUIMalloc@@XZ 1003ed70 f i ole32_ALL:publicdf.obj
 0001:0003dd78       ??0PRevertable@@QAA@XZ     1003ed78 f i ole32_ALL:publicdf.obj
 0001:0003dd9c       ?GetCommitSize@CPubDocFile@@IAAJPAK@Z 1003ed9c f   ole32_ALL:publicdf.obj
 0001:0003e014       ?GetStream@CPubDocFile@@QAAJPBVCDfName@@KPAPAVCPubStream@@@Z 1003f014 f   ole32_ALL:publicdf.obj
 0001:0003e128       ?Stat@CPubDocFile@@UAAJPAUtagSTATSTG@@K@Z 1003f128 f   ole32_ALL:publicdf.obj
 0001:0003e238       ?ChangeXs@CPubDocFile@@IAAXKK@Z 1003f238 f   ole32_ALL:publicdf.obj
 0001:0003e370       ?AddXSMember@CPubDocFile@@QAAXPAVPTSetMember@@0K@Z 1003f370 f   ole32_ALL:publicdf.obj
 0001:0003e3cc       ?SetDirty@CPubDocFile@@QAAXXZ 1003f3cc f i ole32_ALL:publicdf.obj
 0001:0003e40c       ??0CPubDocFile@@QAA@PAV0@PAVPDocFile@@KKPAVCDFBasis@@PBVCDfName@@IPAVCMStream@@@Z 1003f40c f   ole32_ALL:publicdf.obj
 0001:0003e514       ?vRelease@CPubDocFile@@QAAXXZ 1003f514 f   ole32_ALL:publicdf.obj
 0001:0003e608       ?PrepareForOverwrite@CPubDocFile@@IAAJXZ 1003f608 f   ole32_ALL:publicdf.obj
 0001:0003e724       ?Commit@CPubDocFile@@UAAJK@Z 1003f724 f   ole32_ALL:publicdf.obj
 0001:0003edb8       ?DestroyEntry@CPubDocFile@@QAAJPBVCDfName@@H@Z 1003fdb8 f   ole32_ALL:publicdf.obj
 0001:0003ee3c       ?RenameEntry@CPubDocFile@@QAAJPBVCDfName@@0@Z 1003fe3c f   ole32_ALL:publicdf.obj
 0001:0003eec4       ?CreateDocFile@CPubDocFile@@QAAJPBVCDfName@@KPAPAV1@@Z 1003fec4 f   ole32_ALL:publicdf.obj
 0001:0003f214       ?GetDocFile@CPubDocFile@@QAAJPBVCDfName@@KPAPAV1@@Z 10040214 f   ole32_ALL:publicdf.obj
 0001:0003f438       ?CreateStream@CPubDocFile@@QAAJPBVCDfName@@KPAPAVCPubStream@@@Z 10040438 f   ole32_ALL:publicdf.obj
 0001:0003f634       ?RevertFromAbove@CPubDocFile@@UAAXXZ 10040634 f   ole32_ALL:publicdf.obj
 0001:0003f690       ?SetElementTimes@CPubDocFile@@QAAJPBVCDfName@@PBU_FILETIME@@11@Z 10040690 f   ole32_ALL:publicdf.obj
 0001:0003f864       ?SetClass@CPubDocFile@@QAAJABU_GUID@@@Z 10040864 f   ole32_ALL:publicdf.obj
 0001:0003f8d0       ?SetStateBits@CPubDocFile@@QAAJKK@Z 100408d0 f   ole32_ALL:publicdf.obj
 0001:0003f93c       ?vdtor@CPubDocFile@@UAAXXZ 1004093c f   ole32_ALL:publicdf.obj
 0001:0003f9c4       ?ReleaseLocks@CRootPubDocFile@@QAAXPAUILockBytes@@@Z 100409c4 f   ole32_ALL:rpubdf.obj
 0001:0003f9f8       ?Commit@CRootPubDocFile@@UAAJK@Z 100409f8 f   ole32_ALL:rpubdf.obj
 0001:0003fa5c       ?GetMiniFat@CMStream@@QBAPAVCFat@@XZ 10040a5c f i ole32_ALL:rpubdf.obj
 0001:0003fa64       ??0PBasicEntry@@IAA@K@Z    10040a64 f i ole32_ALL:rpubdf.obj
 0001:0003fa6c       ??0CHandle@@QAA@XZ         10040a6c f i ole32_ALL:rpubdf.obj
 0001:0003fa80       ?Init@CHandle@@QAAXPAVCMStream@@K@Z 10040a80 f i ole32_ALL:rpubdf.obj
 0001:0003faa4       ??0CDocFile@@QAA@PAVCMStream@@KKPAVCDFBasis@@@Z 10040aa4 f i ole32_ALL:rpubdf.obj
 0001:0003fb18       ?InitInd@CRootPubDocFile@@AAAJPAUILockBytes@@PAPAGKK@Z 10040b18 f   ole32_ALL:rpubdf.obj
 0001:0003fe70       ?InitNotInd@CRootPubDocFile@@AAAJPAUILockBytes@@PAPAGK@Z 10040e70 f   ole32_ALL:rpubdf.obj
 0001:0003ffb4       ?Stat@CRootPubDocFile@@UAAJPAUtagSTATSTG@@K@Z 10040fb4 f   ole32_ALL:rpubdf.obj
 0001:0004007c       ?SwitchToFile@CRootPubDocFile@@QAAJPBGPAUILockBytes@@PAK@Z 1004107c f   ole32_ALL:rpubdf.obj
 0001:000401dc       ??0CRootPubDocFile@@QAA@QAUIMalloc@@@Z 100411dc f   ole32_ALL:rpubdf.obj
 0001:0004024c       ?InitRoot@CRootPubDocFile@@QAAJPAUILockBytes@@KKPAPAGPAPAVCDFBasis@@PAK@Z 1004124c f   ole32_ALL:rpubdf.obj
 0001:0004087c       ?vdtor@CRootPubDocFile@@UAAXXZ 1004187c f   ole32_ALL:rpubdf.obj
 0001:00040950       ?Set@CDfName@@QAAXPBV1@@Z  10041950 f i ole32_ALL:expdf.obj
 0001:00040968       ?MakeCopyFlags@CExposedDocFile@@CAKKPBU_GUID@@@Z 10041968 f   ole32_ALL:expdf.obj
 0001:000409cc       ?AddRef@CExposedDocFile@@UAAKXZ 100419cc f   ole32_ALL:expdf.obj
 0001:00040a04       ?TakeSem@CPerContext@@QAAJK@Z 10041a04 f i ole32_ALL:expdf.obj
 0001:00040a44       ?IsAtOrAbove@CPubDocFile@@QAAHPAV1@@Z 10041a44 f i ole32_ALL:expdf.obj
 0001:00040a84       ??0CExposedDocFile@@QAA@PAVCPubDocFile@@PAVCDFBasis@@PAVCPerContext@@H@Z 10041a84 f   ole32_ALL:expdf.obj
 0001:00040b0c       ?AddRef@CExposedDocFile@@W3AAKXZ 10041b0c f i ole32_ALL:expdf.obj
 0001:00040b14       ?Set@CDfName@@QAAXPBG@Z    10041b14 f i ole32_ALL:expdf.obj
 0001:00040b64       ??0CDfName@@QAA@PBG@Z      10041b64 f i ole32_ALL:expdf.obj
 0001:00040b78       ?CheckCopyTo@CExposedDocFile@@AAAJXZ 10041b78 f i ole32_ALL:expdf.obj
 0001:00040be4       ?ConvertInternalStream@CExposedDocFile@@AAAJPAU1@@Z 10041be4 f   ole32_ALL:expdf.obj
 0001:00040cf8       ?OpenEntry@CExposedDocFile@@AAAJPBVCDfName@@KKPAPAX@Z 10041cf8 f   ole32_ALL:expdf.obj
 0001:00040f04       ?MoveElementTo@CExposedDocFile@@UAAJPBGPAUIStorage@@0K@Z 10041f04 f   ole32_ALL:expdf.obj
 0001:000411e8       ?QueryInterface@CExposedDocFile@@UAAJABU_GUID@@PAPAX@Z 100421e8 f   ole32_ALL:expdf.obj
 0001:00041354       ?QueryInterface@CExposedDocFile@@W3AAJABU_GUID@@PAPAX@Z 10042354 f i ole32_ALL:expdf.obj
 0001:0004135c       ?Revert@CPubDocFile@@QAAJXZ 1004235c f i ole32_ALL:expdf.obj
 0001:000413bc       ??1CExposedDocFile@@QAA@XZ 100423bc f   ole32_ALL:expdf.obj
 0001:00041518       ?CreateEntry@CExposedDocFile@@AAAJPBVCDfName@@KKPAPAX@Z 10042518 f   ole32_ALL:expdf.obj
 0001:0004189c       ?CreateStream@CExposedDocFile@@UAAJPBGKKKPAPAUIStream@@@Z 1004289c f   ole32_ALL:expdf.obj
 0001:00041a5c       ?OpenStream@CExposedDocFile@@UAAJPBGPAXKKPAPAUIStream@@@Z 10042a5c f   ole32_ALL:expdf.obj
 0001:00041c20       ?CreateStorage@CExposedDocFile@@UAAJPBGKKKPAPAUIStorage@@@Z 10042c20 f   ole32_ALL:expdf.obj
 0001:00041de0       ?OpenStorage@CExposedDocFile@@UAAJPBGPAUIStorage@@KPAPAGKPAPAU2@@Z 10042de0 f   ole32_ALL:expdf.obj
 0001:00041fac       ?Commit@CExposedDocFile@@UAAJK@Z 10042fac f   ole32_ALL:expdf.obj
 0001:0004208c       ?Revert@CExposedDocFile@@UAAJXZ 1004308c f   ole32_ALL:expdf.obj
 0001:00042148       ?EnumElements@CExposedDocFile@@UAAJKPAXKPAPAUIEnumSTATSTG@@@Z 10043148 f   ole32_ALL:expdf.obj
 0001:00042320       ?DestroyElement@CExposedDocFile@@UAAJPBG@Z 10043320 f   ole32_ALL:expdf.obj
 0001:00042428       ?RenameElement@CExposedDocFile@@UAAJPBG0@Z 10043428 f   ole32_ALL:expdf.obj
 0001:00042558       ?SetElementTimes@CExposedDocFile@@UAAJPBGPBU_FILETIME@@11@Z 10043558 f   ole32_ALL:expdf.obj
 0001:000426e0       ?SetClass@CExposedDocFile@@UAAJABU_GUID@@@Z 100436e0 f   ole32_ALL:expdf.obj
 0001:000427e8       ?SetStateBits@CExposedDocFile@@UAAJKK@Z 100437e8 f   ole32_ALL:expdf.obj
 0001:000428b4       ?Stat@CExposedDocFile@@UAAJPAUtagSTATSTG@@K@Z 100438b4 f   ole32_ALL:expdf.obj
 0001:000429d0       ?CopySStreamToIStream@CExposedDocFile@@AAAJPAVPSStream@@PAUIStream@@@Z 100439d0 f   ole32_ALL:expdf.obj
 0001:00042b74       ?CopyDocFileToIStorage@CExposedDocFile@@AAAJPAVPDocFile@@PAUIStorage@@PAPAGK@Z 10043b74 f   ole32_ALL:expdf.obj
 0001:0004304c       ?SwitchToFile@CExposedDocFile@@UAAJPAG@Z 1004404c f   ole32_ALL:expdf.obj
 0001:0004316c       ?Release@CExposedDocFile@@UAAKXZ 1004416c f   ole32_ALL:expdf.obj
 0001:00043218       ?CopyTo@CExposedDocFile@@UAAJKPBU_GUID@@PAPAGPAUIStorage@@@Z 10044218 f   ole32_ALL:expdf.obj
 0001:000433a4       ?Release@CExposedDocFile@@W3AAKXZ 100443a4 f i ole32_ALL:expdf.obj
 0001:000433ac       RpcSmDestroyClientContext  100443ac f   ole32_ALL:RPCRT4LEGACY.dll
 0001:000433bc       Connect                    100443bc f   ole32_ALL:lclor_c.obj
 0001:00043414       AllocateReservedIds        10044414 f   ole32_ALL:lclor_c.obj
 0001:00043470       BulkUpdateOIDs             10044470 f   ole32_ALL:lclor_c.obj
 0001:000434cc       ClientResolveOXID          100444cc f   ole32_ALL:lclor_c.obj
 0001:00043528       ServerAllocateOXIDAndOIDs  10044528 f   ole32_ALL:lclor_c.obj
 0001:00043588       ServerAllocateOIDs         10044588 f   ole32_ALL:lclor_c.obj
 0001:000435e8       ServerFreeOXIDAndOIDs      100445e8 f   ole32_ALL:lclor_c.obj
 0001:00043648       ServerRegisterClsid        10044648 f   ole32_ALL:scm_c.obj
 0001:000436a0       ServerRevokeClsid          100446a0 f   ole32_ALL:scm_c.obj
 0001:000436dc       GetThreadID                100446dc f   ole32_ALL:scm_c.obj
 0001:00043718       UpdateActivationSettings   10044718 f   ole32_ALL:scm_c.obj
 0001:00043754       IrotRegister               10044754 f   ole32_ALL:irot_c.obj
 0001:000437ac       IrotRevoke                 100447ac f   ole32_ALL:irot_c.obj
 0001:00043810       IrotIsRunning              10044810 f   ole32_ALL:irot_c.obj
 0001:00043a20       IrotGetObject              10044a20 f   ole32_ALL:irot_c.obj
 0001:00043a7c       IrotNoteChangeTime         10044a7c f   ole32_ALL:irot_c.obj
 0001:00043ad8       IrotGetTimeOfLastChange    10044ad8 f   ole32_ALL:irot_c.obj
 0001:00043b38       IrotEnumRunning            10044b38 f   ole32_ALL:irot_c.obj
 0001:00043b98       ?DisposeOfAccessList@@YAXPAU_ACTRL_ACCESS_ENTRYW@@K0@Z 10044b98 f   ole32_ALL:CACCCTRL.obj
 0001:00043bfc       ?NormalizeAccessList@@YAXPAU_ACTRL_ACCESS_ENTRYW@@K@Z 10044bfc f   ole32_ALL:CACCCTRL.obj
 0001:00043ca0       ?ValidateAccessEntry@@YAHPAU_ACTRL_ACCESS_ENTRYW@@@Z 10044ca0 f   ole32_ALL:CACCCTRL.obj
 0001:00043d5c       ?MatchGroups@@YAHPAG0@Z    10044d5c f   ole32_ALL:CACCCTRL.obj
 0001:00043dac       ?QueryInterface@CFAccessControl@@UAAJABU_GUID@@PAPAX@Z 10044dac f   ole32_ALL:CACCCTRL.obj
 0001:00043e44       ?AddRef@CFAccessControl@@UAAKXZ 10044e44 f   ole32_ALL:CACCCTRL.obj
 0001:00043e58       ?LockServer@CFAccessControl@@UAAJH@Z 10044e58 f   ole32_ALL:CACCCTRL.obj
 0001:00043e60       ?QueryInterface@COAccessControl@@UAAJABU_GUID@@PAPAX@Z 10044e60 f   ole32_ALL:CACCCTRL.obj
 0001:00043f48       ?AddRef@COAccessControl@@UAAKXZ 10044f48 f   ole32_ALL:CACCCTRL.obj
 0001:00043f5c       ??1CImpAccessControl@COAccessControl@@QAA@XZ 10044f5c f   ole32_ALL:CACCCTRL.obj
 0001:00043fa0       ?QueryInterface@CImpAccessControl@COAccessControl@@UAAJABU_GUID@@PAPAX@Z 10044fa0 f   ole32_ALL:CACCCTRL.obj
 0001:00043fb8       ?AddRef@CImpAccessControl@COAccessControl@@UAAKXZ 10044fb8 f   ole32_ALL:CACCCTRL.obj
 0001:00043fd0       ?Release@CImpAccessControl@COAccessControl@@UAAKXZ 10044fd0 f   ole32_ALL:CACCCTRL.obj
 0001:00043fe8       ?GetClassID@CImpAccessControl@COAccessControl@@UAAJPAU_GUID@@@Z 10044fe8 f   ole32_ALL:CACCCTRL.obj
 0001:00044028       ?IsDirty@CImpAccessControl@COAccessControl@@UAAJXZ 10045028 f   ole32_ALL:CACCCTRL.obj
 0001:00044058       ?Load@CImpAccessControl@COAccessControl@@UAAJPAUIStream@@@Z 10045058 f   ole32_ALL:CACCCTRL.obj
 0001:0004446c       ?Save@CImpAccessControl@COAccessControl@@UAAJPAUIStream@@H@Z 1004546c f   ole32_ALL:CACCCTRL.obj
 0001:000445b8       ?GetSizeMax@CImpAccessControl@COAccessControl@@UAAJPAT_ULARGE_INTEGER@@@Z 100455b8 f   ole32_ALL:CACCCTRL.obj
 0001:00044694       ?GrantAccessRights@CImpAccessControl@COAccessControl@@UAAJPAU_ACTRL_ALISTW@@@Z 10045694 f   ole32_ALL:CACCCTRL.obj
 0001:000449f8       ?SetOwner@CImpAccessControl@COAccessControl@@UAAJPAU_TRUSTEE_W@@0@Z 100459f8 f   ole32_ALL:CACCCTRL.obj
 0001:00044a04       ?SetAccessRights@CImpAccessControl@COAccessControl@@UAAJPAU_ACTRL_ALISTW@@@Z 10045a04 f   ole32_ALL:CACCCTRL.obj
 0001:00044c70       ?RevokeAccessRights@CImpAccessControl@COAccessControl@@UAAJPAGKQAU_TRUSTEE_W@@@Z 10045c70 f   ole32_ALL:CACCCTRL.obj
 0001:00044e8c       ?IsAccessAllowed@CImpAccessControl@COAccessControl@@UAAJPAU_TRUSTEE_W@@PAGKPAH@Z 10045e8c f   ole32_ALL:CACCCTRL.obj
 0001:00045110       ?GetAllAccessRights@CImpAccessControl@COAccessControl@@UAAJPAGPAPAU_ACTRL_ALISTW@@PAPAU_TRUSTEE_W@@2@Z 10046110 f   ole32_ALL:CACCCTRL.obj
 0001:00045270       ?AddRef@CImpAccessControl@COAccessControl@@W3AAKXZ 10046270 f i ole32_ALL:CACCCTRL.obj
 0001:00045278       ?QueryInterface@CImpAccessControl@COAccessControl@@W3AAJABU_GUID@@PAPAX@Z 10046278 f i ole32_ALL:CACCCTRL.obj
 0001:00045280       ?Release@CImpAccessControl@COAccessControl@@W3AAKXZ 10046280 f i ole32_ALL:CACCCTRL.obj
 0001:00045288       ?Release@CFAccessControl@@UAAKXZ 10046288 f   ole32_ALL:CACCCTRL.obj
 0001:000452c4       ??0CFAccessControl@@QAA@XZ 100462c4 f   ole32_ALL:CACCCTRL.obj
 0001:000452dc       ??1COAccessControl@@QAA@XZ 100462dc f   ole32_ALL:CACCCTRL.obj
 0001:0004530c       ??0CImpAccessControl@COAccessControl@@QAA@PAUIUnknown@@0@Z 1004630c f   ole32_ALL:CACCCTRL.obj
 0001:00045368       ?Init@COAccessControl@@QAAJPAUIUnknown@@@Z 10046368 f   ole32_ALL:CACCCTRL.obj
 0001:000453bc       ?Release@COAccessControl@@UAAKXZ 100463bc f   ole32_ALL:CACCCTRL.obj
 0001:000453f4       ?CreateInstance@CFAccessControl@@UAAJPAUIUnknown@@ABU_GUID@@PAPAX@Z 100463f4 f   ole32_ALL:CACCCTRL.obj
 0001:000454b8       ??1CComBinding@@QAA@XZ     100464b8 f   ole32_ALL:binding.obj
 0001:000454f8       ?QueryBinding@CComBinding@@UAAJPAK000PAPAG@Z 100464f8 f   ole32_ALL:binding.obj
 0001:000455c0       ?AddRef@CComBinding@@UAAKXZ 100465c0 f   ole32_ALL:binding.obj
 0001:000455c8       ?AddRef@CComBindingFac@@UAAKXZ 100465c8 f   ole32_ALL:binding.obj
 0001:000455d0       ?Release@CComBindingFac@@UAAKXZ 100465d0 f   ole32_ALL:binding.obj
 0001:000455f4       ??0CComBinding@@QAA@PAUIUnknown@@AAJ@Z 100465f4 f   ole32_ALL:binding.obj
 0001:0004563c       ?InitBinding@CComBinding@@UAAJKKKKPAG@Z 1004663c f   ole32_ALL:binding.obj
 0001:00045720       ?QueryInterface@CComBinding@@UAAJABU_GUID@@PAPAX@Z 10046720 f   ole32_ALL:binding.obj
 0001:000457b8       ?Release@CComBinding@@UAAKXZ 100467b8 f   ole32_ALL:binding.obj
 0001:000457f0       ?CComBindingCF_CreateInstance@@YAJPAUIUnknown@@ABU_GUID@@PAPAX@Z 100467f0 f   ole32_ALL:binding.obj
 0001:00045880       ?QueryInterface@CComBindingFac@@UAAJABU_GUID@@PAPAX@Z 10046880 f   ole32_ALL:binding.obj
 0001:000458f4       ?CreateInstance@CComBindingFac@@UAAJPAUIUnknown@@ABU_GUID@@PAPAX@Z 100468f4 f   ole32_ALL:binding.obj
 0001:00045984       ?LockServer@CComBindingFac@@UAAJH@Z 10046984 f i ole32_ALL:binding.obj
 0001:0004598c       ?GetComBindingCF@@YAJABU_GUID@@PAPAX@Z 1004698c f   ole32_ALL:binding.obj
 0001:00045a00       IClassFactory_RemoteCreateInstance_Proxy 10046a00 f   ole32_ALL:mega_p.obj
 0001:00045a58       IClassFactory_RemoteCreateInstance_Thunk 10046a58 f   ole32_ALL:mega_p.obj
 0001:00045ab8       IClassFactory_RemoteLockServer_Thunk 10046ab8 f   ole32_ALL:mega_p.obj
 0001:00045b0c       IEnumUnknown_RemoteNext_Proxy 10046b0c f   ole32_ALL:mega_p.obj
 0001:00045b68       IEnumUnknown_RemoteNext_Thunk 10046b68 f   ole32_ALL:mega_p.obj
 0001:00045bd4       IBindCtx_RemoteSetBindOptions_Proxy 10046bd4 f   ole32_ALL:mega_p.obj
 0001:00045c30       IBindCtx_RemoteSetBindOptions_Thunk 10046c30 f   ole32_ALL:mega_p.obj
 0001:00045c84       IBindCtx_RemoteGetBindOptions_Proxy 10046c84 f   ole32_ALL:mega_p.obj
 0001:00045ce0       IBindCtx_RemoteGetBindOptions_Thunk 10046ce0 f   ole32_ALL:mega_p.obj
 0001:00045d34       IEnumMoniker_RemoteNext_Proxy 10046d34 f   ole32_ALL:mega_p.obj
 0001:00045d90       IEnumMoniker_RemoteNext_Thunk 10046d90 f   ole32_ALL:mega_p.obj
 0001:00045dfc       IRunnableObject_RemoteIsRunning_Proxy 10046dfc f   ole32_ALL:mega_p.obj
 0001:00045e58       IRunnableObject_RemoteIsRunning_Thunk 10046e58 f   ole32_ALL:mega_p.obj
 0001:00045ea0       IMoniker_RemoteBindToObject_Proxy 10046ea0 f   ole32_ALL:mega_p.obj
 0001:00045f00       IMoniker_RemoteBindToObject_Thunk 10046f00 f   ole32_ALL:mega_p.obj
 0001:00045f7c       IMoniker_RemoteBindToStorage_Proxy 10046f7c f   ole32_ALL:mega_p.obj
 0001:00045fd8       IMoniker_RemoteBindToStorage_Thunk 10046fd8 f   ole32_ALL:mega_p.obj
 0001:00046054       IEnumString_RemoteNext_Proxy 10047054 f   ole32_ALL:mega_p.obj
 0001:000460b4       IEnumString_RemoteNext_Thunk 100470b4 f   ole32_ALL:mega_p.obj
 0001:00046120       ISequentialStream_RemoteRead_Proxy 10047120 f   ole32_ALL:mega_p.obj
 0001:00046180       ISequentialStream_RemoteRead_Thunk 10047180 f   ole32_ALL:mega_p.obj
 0001:000461ec       ISequentialStream_RemoteWrite_Proxy 100471ec f   ole32_ALL:mega_p.obj
 0001:0004624c       ISequentialStream_RemoteWrite_Thunk 1004724c f   ole32_ALL:mega_p.obj
 0001:000462b8       IStream_RemoteSeek_Proxy   100472b8 f   ole32_ALL:mega_p.obj
 0001:00046318       IStream_RemoteSeek_Thunk   10047318 f   ole32_ALL:mega_p.obj
 0001:00046394       IStream_RemoteCopyTo_Proxy 10047394 f   ole32_ALL:mega_p.obj
 0001:000463f4       IStream_RemoteCopyTo_Thunk 100473f4 f   ole32_ALL:mega_p.obj
 0001:00046480       IEnumSTATSTG_RemoteNext_Proxy 10047480 f   ole32_ALL:mega_p.obj
 0001:000464e0       IEnumSTATSTG_RemoteNext_Thunk 100474e0 f   ole32_ALL:mega_p.obj
 0001:0004654c       IStorage_RemoteOpenStream_Proxy 1004754c f   ole32_ALL:mega_p.obj
 0001:000465a8       IStorage_RemoteOpenStream_Thunk 100475a8 f   ole32_ALL:mega_p.obj
 0001:00046644       IStorage_RemoteEnumElements_Proxy 10047644 f   ole32_ALL:mega_p.obj
 0001:000466a4       IStorage_RemoteEnumElements_Thunk 100476a4 f   ole32_ALL:mega_p.obj
 0001:00046730       ILockBytes_RemoteReadAt_Proxy 10047730 f   ole32_ALL:mega_p.obj
 0001:00046790       ILockBytes_RemoteReadAt_Thunk 10047790 f   ole32_ALL:mega_p.obj
 0001:0004681c       ILockBytes_RemoteWriteAt_Proxy 1004781c f   ole32_ALL:mega_p.obj
 0001:0004687c       ILockBytes_RemoteWriteAt_Thunk 1004787c f   ole32_ALL:mega_p.obj
 0001:00046908       IEnumFORMATETC_RemoteNext_Proxy 10047908 f   ole32_ALL:mega_p.obj
 0001:00046968       IEnumFORMATETC_RemoteNext_Thunk 10047968 f   ole32_ALL:mega_p.obj
 0001:000469d4       IEnumSTATDATA_RemoteNext_Proxy 100479d4 f   ole32_ALL:mega_p.obj
 0001:00046a34       IEnumSTATDATA_RemoteNext_Thunk 10047a34 f   ole32_ALL:mega_p.obj
 0001:00046aa0       IDataObject_RemoteGetData_Proxy 10047aa0 f   ole32_ALL:mega_p.obj
 0001:00046b00       IDataObject_RemoteGetData_Thunk 10047b00 f   ole32_ALL:mega_p.obj
 0001:00046b60       IDataObject_RemoteGetDataHere_Proxy 10047b60 f   ole32_ALL:mega_p.obj
 0001:00046bbc       IDataObject_RemoteGetDataHere_Thunk 10047bbc f   ole32_ALL:mega_p.obj
 0001:00046c1c       IDataObject_RemoteSetData_Proxy 10047c1c f   ole32_ALL:mega_p.obj
 0001:00046c78       IDataObject_RemoteSetData_Thunk 10047c78 f   ole32_ALL:mega_p.obj
 0001:00046ce4       IEnumConnections_RemoteNext_Proxy 10047ce4 f   ole32_ALL:mega_p.obj
 0001:00046d44       IEnumConnections_RemoteNext_Thunk 10047d44 f   ole32_ALL:mega_p.obj
 0001:00046db0       IEnumConnectionPoints_RemoteNext_Proxy 10047db0 f   ole32_ALL:mega_p.obj
 0001:00046e10       IEnumConnectionPoints_RemoteNext_Thunk 10047e10 f   ole32_ALL:mega_p.obj
 0001:00046e7c       IFillLockBytes_RemoteFillAppend_Proxy 10047e7c f   ole32_ALL:mega_p.obj
 0001:00046ed8       IFillLockBytes_RemoteFillAppend_Thunk 10047ed8 f   ole32_ALL:mega_p.obj
 0001:00046f44       IFillLockBytes_RemoteFillAt_Proxy 10047f44 f   ole32_ALL:mega_p.obj
 0001:00046fa4       IFillLockBytes_RemoteFillAt_Thunk 10047fa4 f   ole32_ALL:mega_p.obj
 0001:00047030       IOleCache2_RemoteUpdateCache_Proxy 10048030 f   ole32_ALL:mega_p.obj
 0001:00047090       IOleCache2_RemoteUpdateCache_Thunk 10048090 f   ole32_ALL:mega_p.obj
 0001:000470fc       IOleItemContainer_RemoteGetObject_Proxy 100480fc f   ole32_ALL:mega_p.obj
 0001:0004715c       IOleItemContainer_RemoteGetObject_Thunk 1004815c f   ole32_ALL:mega_p.obj
 0001:000471e8       IOleItemContainer_RemoteGetObjectStorage_Proxy 100481e8 f   ole32_ALL:mega_p.obj
 0001:00047248       IOleItemContainer_RemoteGetObjectStorage_Thunk 10048248 f   ole32_ALL:mega_p.obj
 0001:000472c4       IOleInPlaceActiveObject_RemoteTranslateAccelerator_Thunk 100482c4 f   ole32_ALL:mega_p.obj
 0001:0004730c       IOleInPlaceActiveObject_RemoteResizeBorder_Proxy 1004830c f   ole32_ALL:mega_p.obj
 0001:0004736c       IOleInPlaceActiveObject_RemoteResizeBorder_Thunk 1004836c f   ole32_ALL:mega_p.obj
 0001:000473e8       IViewObject_RemoteDraw_Proxy 100483e8 f   ole32_ALL:mega_p.obj
 0001:00047448       IViewObject_RemoteDraw_Thunk 10048448 f   ole32_ALL:mega_p.obj
 0001:00047514       IViewObject_RemoteGetColorSet_Proxy 10048514 f   ole32_ALL:mega_p.obj
 0001:00047574       IViewObject_RemoteGetColorSet_Thunk 10048574 f   ole32_ALL:mega_p.obj
 0001:00047610       IViewObject_RemoteFreeze_Proxy 10048610 f   ole32_ALL:mega_p.obj
 0001:00047670       IViewObject_RemoteFreeze_Thunk 10048670 f   ole32_ALL:mega_p.obj
 0001:000476ec       IEnumOLEVERB_RemoteNext_Proxy 100486ec f   ole32_ALL:mega_p.obj
 0001:0004774c       IEnumOLEVERB_RemoteNext_Thunk 1004874c f   ole32_ALL:mega_p.obj
 0001:000477b8       IClientSiteHandler_RemotePrivQueryInterface_Proxy 100487b8 f   ole32_ALL:mega_p.obj
 0001:00047818       IClientSiteHandler_RemotePrivQueryInterface_Thunk 10048818 f   ole32_ALL:mega_p.obj
 0001:000478dc       NdrDllGetClassObject       100488dc f   ole32_ALL:RPCRT4LEGACY.dll
 0001:000478ec       NdrCStdStubBuffer_Release  100488ec f   ole32_ALL:RPCRT4LEGACY.dll
 0001:000478fc       ?wCompareDllName@@YAHPBG0K@Z 100488fc f   ole32_ALL:OLESCM.obj
 0001:00047984       ?wQueryStripRegValue@@YAJPAUHKEY__@@PBGPAGPAJ@Z 10048984 f   ole32_ALL:OLESCM.obj
 0001:00047aa8       ?wGetDllInfo@@YAJPAUHKEY__@@PBGPAGPAJPAK@Z 10048aa8 f   ole32_ALL:OLESCM.obj
 0001:00047c24       I_RpcServerStopListening   10048c24 f   ole32_ALL:RPCRT4LEGACY.dll
 0001:00047c34       I_RpcWindowProc            10048c34 f   ole32_ALL:RPCRT4LEGACY.dll
 0001:00047c44       I_RpcSetWMsgEndpoint       10048c44 f   ole32_ALL:RPCRT4LEGACY.dll
 0001:00047c54       RpcServerUseProtseqEpW     10048c54 f   ole32_ALL:RPCRT4LEGACY.dll
 0001:00047c64       RpcBindingVectorFree       10048c64 f   ole32_ALL:RPCRT4LEGACY.dll
 0001:00047c74       RpcBindingToStringBindingW 10048c74 f   ole32_ALL:RPCRT4LEGACY.dll
 0001:00047c84       RpcServerInqBindings       10048c84 f   ole32_ALL:RPCRT4LEGACY.dll
 0001:00047c94       I_RpcServerStartListening  10048c94 f   ole32_ALL:RPCRT4LEGACY.dll
 0001:00047ca4       RpcServerUseProtseqW       10048ca4 f   ole32_ALL:RPCRT4LEGACY.dll
 0001:00047cb4       RpcServerUseProtseqEpExW   10048cb4 f   ole32_ALL:RPCRT4LEGACY.dll
 0001:00047cc4       RpcServerUseProtseqExW     10048cc4 f   ole32_ALL:RPCRT4LEGACY.dll
 0001:00047cdc       ?IsTaskName@@YAHPBG@Z      10048cdc f   ole32_ALL:TASK.obj
 0001:00047d7c       ?utGetModuleName@@YAJPAGK@Z 10048d7c f   ole32_ALL:TASK.obj
 0001:00047e9c       ?utGetProtseqFromTowerId@@YAPBGG@Z 10048e9c f   ole32_ALL:TASK.obj
 0001:00047eac       ?utGetTowerId@@YAGPBG@Z    10048eac f   ole32_ALL:TASK.obj
 0001:00047efc       ?utGetAppIdForModule@@YAJPAGK@Z 10048efc f   ole32_ALL:TASK.obj
 0001:0004804c       ??0CMapKeyToValue@@QAA@IIHP6AIPAXI@ZI@Z 1004904c f   ole32_ALL:MAP_KV.obj
 0001:00048090       ?InitHashTable@CMapKeyToValue@@AAAHXZ 10049090 f   ole32_ALL:MAP_KV.obj
 0001:000480f4       ?FreeAssocKey@CMapKeyToValue@@ABAXPAUCAssoc@1@@Z 100490f4 f   ole32_ALL:MAP_KV.obj
 0001:00048128       ?LookupHKey@CMapKeyToValue@@QBAHPAUHMAPKEY__@@PAX@Z 10049128 f   ole32_ALL:MAP_KV.obj
 0001:00048174       ?GetNextAssoc@CMapKeyToValue@@QBAXPAPAXPAXPAI1@Z 10049174 f   ole32_ALL:MAP_KV.obj
 0001:0004825c       ?RemoveAll@CMapKeyToValue@@QAAXXZ 1004925c f   ole32_ALL:MAP_KV.obj
 0001:000482f8       ?CompareAssocKey@CMapKeyToValue@@ABAHPAUCAssoc@1@PAXI@Z 100492f8 f   ole32_ALL:MAP_KV.obj
 0001:00048340       ?SetAssocKey@CMapKeyToValue@@ABAHPAUCAssoc@1@PAXI@Z 10049340 f   ole32_ALL:MAP_KV.obj
 0001:000483c0       ?RemoveKey@CMapKeyToValue@@QAAHPAXI@Z 100493c0 f   ole32_ALL:MAP_KV.obj
 0001:000484c0       ??1CMapKeyToValue@@QAA@XZ  100494c0 f   ole32_ALL:MAP_KV.obj
 0001:000484c4       ?NewAssoc@CMapKeyToValue@@AAAPAUCAssoc@1@IPAXI0@Z 100494c4 f   ole32_ALL:MAP_KV.obj
 0001:000485d4       ?GetAssocAt@CMapKeyToValue@@ABAPAUCAssoc@1@PAXIAAI@Z 100495d4 f   ole32_ALL:MAP_KV.obj
 0001:000486a4       ?Lookup@CMapKeyToValue@@QBAHPAXI0@Z 100496a4 f   ole32_ALL:MAP_KV.obj
 0001:000486d4       ?SetAt@CMapKeyToValue@@QAAHPAXI0@Z 100496d4 f   ole32_ALL:MAP_KV.obj
 0001:00048788       ?QueryInterface@CRpcOptions@@UAAJABU_GUID@@PAPAX@Z 10049788 f   ole32_ALL:rpcopt.obj
 0001:000487a0       ?AddRef@CRpcOptions@@UAAKXZ 100497a0 f   ole32_ALL:rpcopt.obj
 0001:000487b8       ?Release@CRpcOptions@@UAAKXZ 100497b8 f   ole32_ALL:rpcopt.obj
 0001:000487d0       ??0CRpcOptions@@QAA@PAVCStdIdentity@@PAUIUnknown@@@Z 100497d0 f   ole32_ALL:rpcopt.obj
 0001:000487e8       ?ProxyToBindingHandle@CRpcOptions@@AAAJPAXPAPAX@Z 100497e8 f   ole32_ALL:rpcopt.obj
 0001:00048884       ?Set@CRpcOptions@@UAAJPAUIUnknown@@KK@Z 10049884 f   ole32_ALL:rpcopt.obj
 0001:00048904       ?Query@CRpcOptions@@UAAJPAUIUnknown@@KPAK@Z 10049904 f   ole32_ALL:rpcopt.obj
 0001:00048998       ?AddRef@CSmAllocator@@UAAKXZ 10049998 f   ole32_ALL:cemalloc.obj
 0001:000489a0       ?Release@CSmAllocator@@UAAKXZ 100499a0 f   ole32_ALL:cemalloc.obj
 0001:000489a8       ?Alloc@CSmAllocator@@UAAPAXK@Z 100499a8 f   ole32_ALL:cemalloc.obj
 0001:000489b0       ?Realloc@CSmAllocator@@UAAPAXPAXK@Z 100499b0 f   ole32_ALL:cemalloc.obj
 0001:000489bc       ?Free@CSmAllocator@@UAAXPAX@Z 100499bc f   ole32_ALL:cemalloc.obj
 0001:000489c4       ?FreeNoMutex@CSmAllocator@@QAAXPAX@Z 100499c4 f   ole32_ALL:cemalloc.obj
 0001:000489cc       ?GetSize@CSmAllocator@@UAAKPAX@Z 100499cc f   ole32_ALL:cemalloc.obj
 0001:000489d4       ?DidAlloc@CSmAllocator@@UAAHPAX@Z 100499d4 f   ole32_ALL:cemalloc.obj
 0001:000489dc       ?IncrementLuid@CSmAllocator@@QAAKXZ 100499dc f   ole32_ALL:cemalloc.obj
 0001:000489f4       ?QueryInterface@CSmAllocator@@UAAJABU_GUID@@PAPAX@Z 100499f4 f   ole32_ALL:cemalloc.obj
 0001:00048a58       ?GetStart@CDirEntry@@QBAKXZ 10049a58 f i ole32_ALL:mstream.obj
 0001:00048a7c       ?GetSize@CDirEntry@@QBAKXZ 10049a7c f i ole32_ALL:mstream.obj
 0001:00048aa0       ?GetTime@CDirEntry@@QBA?AU_FILETIME@@W4WHICHTIME@@@Z 10049aa0 f i ole32_ALL:mstream.obj
 0001:00048ac4       ?GetAllTimes@CDirEntry@@QAAXPAU_FILETIME@@00@Z 10049ac4 f i ole32_ALL:mstream.obj
 0001:00048b0c       ?GetStart@CDirectory@@QAAJKPAK@Z 10049b0c f i ole32_ALL:mstream.obj
 0001:00048b5c       ?GetSize@CDirectory@@QAAJKPAK@Z 10049b5c f i ole32_ALL:mstream.obj
 0001:00048bac       ?GetTime@CDirectory@@QAAJKW4WHICHTIME@@PAU_FILETIME@@@Z 10049bac f i ole32_ALL:mstream.obj
 0001:00048c1c       ?GetAllTimes@CDirectory@@QAAJKPAU_FILETIME@@00@Z 10049c1c f i ole32_ALL:mstream.obj
 0001:00048c74       ?CreateEntry@CMStream@@QAAJKPBVCDfName@@KPAK@Z 10049c74 f i ole32_ALL:mstream.obj
 0001:00048c94       ?IsDirty@CMSFHeader@@QBAHXZ 10049c94 f i ole32_ALL:mstream.obj
 0001:00048c9c       ?ResetDirty@CMSFHeader@@QAAXXZ 10049c9c f i ole32_ALL:mstream.obj
 0001:00048ca8       ?AddRef@CMSFPageTable@@QAAXXZ 10049ca8 f i ole32_ALL:mstream.obj
 0001:00048cb8       ??_GCMSFPageTable@@QAAPAXI@Z 10049cb8 f i ole32_ALL:mstream.obj
 0001:00048cdc       ?InitCommon@CFatVector@@QAAXGG@Z 10049cdc f i ole32_ALL:mstream.obj
 0001:00048ce8       ?GetSectTable@CFatVector@@QBAGXZ 10049ce8 f i ole32_ALL:mstream.obj
 0001:00048cf0       ?GetSectBlock@CFatVector@@QBAGXZ 10049cf0 f i ole32_ALL:mstream.obj
 0001:00048cf8       ?GetMaxSect@CFat@@QAAJPAK@Z 10049cf8 f i ole32_ALL:mstream.obj
 0001:00048d1c       ?SetNoSnapshot@CFat@@QAAXK@Z 10049d1c f i ole32_ALL:mstream.obj
 0001:00048d2c       ??1CFatVector@@QAA@XZ      10049d2c f i ole32_ALL:mstream.obj
 0001:00048d30       ?InitCopy@CDIFat@@QAAXPAV1@@Z 10049d30 f i ole32_ALL:mstream.obj
 0001:00048d80       ?GetSectorShift@CMStream@@QBAGXZ 10049d80 f i ole32_ALL:mstream.obj
 0001:00048d8c       ?GetHeader@CMStream@@QBAPAVCMSFHeader@@XZ 10049d8c f i ole32_ALL:mstream.obj
 0001:00048d94       ?GetFat@CMStream@@QBAPAVCFat@@XZ 10049d94 f i ole32_ALL:mstream.obj
 0001:00048d9c       ?GetDIFat@CMStream@@QBAPAVCDIFat@@XZ 10049d9c f i ole32_ALL:mstream.obj
 0001:00048da4       ?GetDir@CMStream@@QBAPAVCDirectory@@XZ 10049da4 f i ole32_ALL:mstream.obj
 0001:00048dac       ?SetParent@CPagedVector@@QAAXPAVCMStream@@@Z 10049dac f i ole32_ALL:mstream.obj
 0001:00048dd0       ?ResetBits@CPagedVector@@QAAXXZ 10049dd0 f i ole32_ALL:mstream.obj
 0001:00048e40       ??_GCMStream@@QAAPAXI@Z    10049e40 f i ole32_ALL:mstream.obj
 0001:00048e64       ??2CDirectStream@@SAPAXIQAUIMalloc@@@Z 10049e64 f i ole32_ALL:mstream.obj
 0001:00048e68       ?ConvertSectOffset@@YAKKFG@Z 10049e68 f i ole32_ALL:mstream.obj
 0001:00048e74       ?SetSize@CMStream@@QAAJXZ  10049e74 f i ole32_ALL:mstream.obj
 0001:00048f18       ?GetBuffer@@YAJGGPAPAEPAG@Z 10049f18 f   ole32_ALL:mstream.obj
 0001:00048f6c       ?GetSafeBuffer@@YAXGGPAPAEPAG@Z 10049f6c f   ole32_ALL:mstream.obj
 0001:00048fc0       ?FreeBuffer@@YAXPAE@Z      10049fc0 f   ole32_ALL:mstream.obj
 0001:00048fec       ??1CDirVector@@QAA@XZ      10049fec f i ole32_ALL:mstream.obj
 0001:00048ff0       ?Empty@CMStream@@QAAXXZ    10049ff0 f   ole32_ALL:mstream.obj
 0001:0004901c       ?ConvertILB@CMStream@@AAAJK@Z 1004a01c f   ole32_ALL:mstream.obj
 0001:000490f8       ?FlushHeader@CMStream@@QAAJG@Z 1004a0f8 f   ole32_ALL:mstream.obj
 0001:000491b0       ?CopySect@CMStream@@AAAJKKFFPBEPAK@Z 1004a1b0 f   ole32_ALL:mstream.obj
 0001:000492d0       ?ILBFlush@@YAJPAUILockBytes@@H@Z 1004a2d0 f   ole32_ALL:mstream.obj
 0001:00049350       ?SecureSect@CMStream@@QAAJKKH@Z 1004a350 f   ole32_ALL:mstream.obj
 0001:00049358       ?SetFileLockBytesTime@CMStream@@QAAJW4WHICHTIME@@U_FILETIME@@@Z 1004a358 f   ole32_ALL:mstream.obj
 0001:000493e4       ?SetAllFileLockBytesTimes@CMStream@@QAAJU_FILETIME@@00@Z 1004a3e4 f   ole32_ALL:mstream.obj
 0001:00049484       ?SetTime@CMStream@@QAAJKW4WHICHTIME@@U_FILETIME@@@Z 1004a484 f   ole32_ALL:mstream.obj
 0001:00049504       ?SetAllTimes@CMStream@@QAAJKU_FILETIME@@00@Z 1004a504 f   ole32_ALL:mstream.obj
 0001:000495ac       ?GetTime@CMStream@@QAAJKW4WHICHTIME@@PAU_FILETIME@@@Z 1004a5ac f   ole32_ALL:mstream.obj
 0001:00049664       ?GetAllTimes@CMStream@@QAAJKPAU_FILETIME@@00@Z 1004a664 f   ole32_ALL:mstream.obj
 0001:00049720       ?InitScratch@CMStream@@QAAJPAV1@H@Z 1004a720 f   ole32_ALL:mstream.obj
 0001:00049748       ?SetParent@CDirectory@@QAAXPAVCMStream@@@Z 1004a748 f i ole32_ALL:mstream.obj
 0001:00049770       ?Release@CMSFPageTable@@QAAXXZ 1004a770 f i ole32_ALL:mstream.obj
 0001:0004978c       ?ResetCopyOnWrite@CFat@@QAAXXZ 1004a78c f i ole32_ALL:mstream.obj
 0001:000497c0       ?SetCopyOnWrite@CFat@@QAAXPAV1@K@Z 1004a7c0 f i ole32_ALL:mstream.obj
 0001:00049804       ?SetParent@CFat@@QAAXPAVCMStream@@@Z 1004a804 f i ole32_ALL:mstream.obj
 0001:0004982c       ??1CDIFat@@QAA@XZ          1004a82c f i ole32_ALL:mstream.obj
 0001:00049830       ?SetParent@CDIFat@@QAAXPAVCMStream@@@Z 1004a830 f i ole32_ALL:mstream.obj
 0001:00049858       ??1CDirectory@@QAA@XZ      1004a858 f i ole32_ALL:mstream.obj
 0001:0004985c       ??0CMStream@@QAA@PBV0@@Z   1004a85c f   ole32_ALL:mstream.obj
 0001:000499c0       ?InitCommon@CMStream@@AAAJXZ 1004a9c0 f   ole32_ALL:mstream.obj
 0001:00049ac8       ?InitCopy@CMStream@@QAAXPAV1@@Z 1004aac8 f   ole32_ALL:mstream.obj
 0001:00049b98       ??1CMStream@@QAA@XZ        1004ab98 f   ole32_ALL:mstream.obj
 0001:00049c74       ?Init@CMStream@@QAAJXZ     1004ac74 f   ole32_ALL:mstream.obj
 0001:00049e90       ?MWrite@CMStream@@QAAJKHKPBXKPAVCStreamCache@@PAK@Z 1004ae90 f   ole32_ALL:mstream.obj
 0001:0004a38c       ?Flush@CMStream@@QAAJH@Z   1004b38c f   ole32_ALL:mstream.obj
 0001:0004a400       ??0CMStream@@QAA@PAUIMalloc@@PAPAUILockBytes@@HKG@Z 1004b400 f   ole32_ALL:mstream.obj
 0001:0004a4f0       ?InitNew@CMStream@@QAAJHT_ULARGE_INTEGER@@@Z 1004b4f0 f   ole32_ALL:mstream.obj
 0001:0004a6f0       ?InitConvert@CMStream@@QAAJH@Z 1004b6f0 f   ole32_ALL:mstream.obj
 0001:0004a9bc       ?BeginCopyOnWrite@CMStream@@QAAJK@Z 1004b9bc f   ole32_ALL:mstream.obj
 0001:0004abd8       ?EndCopyOnWrite@CMStream@@QAAJKK@Z 1004bbd8 f   ole32_ALL:mstream.obj
 0001:0004ad94       ?Reserve@CFreeList@@QAAJPAUIMalloc@@II@Z 1004bd94 f   ole32_ALL:freelist.obj
 0001:0004ae4c       ?Unreserve@CFreeList@@QAAXI@Z 1004be4c f   ole32_ALL:freelist.obj
 0001:0004aeac       ??1CDFBasis@@QAA@XZ        1004beac f i ole32_ALL:dfbasis.obj
 0001:0004aee8       ?vRelease@CDFBasis@@QAAXXZ 1004bee8 f   ole32_ALL:dfbasis.obj
 0001:0004af1c       ?Add@CChildInstanceList@@QAAXPAVPRevertable@@@Z 1004bf1c f   ole32_ALL:chinst.obj
 0001:0004af3c       ?FindByName@CChildInstanceList@@QAAPAVPRevertable@@PBVCDfName@@@Z 1004bf3c f   ole32_ALL:chinst.obj
 0001:0004af90       ?DeleteByName@CChildInstanceList@@QAAXPBVCDfName@@@Z 1004bf90 f   ole32_ALL:chinst.obj
 0001:0004b024       ?RemoveRv@CChildInstanceList@@QAAXPAVPRevertable@@@Z 1004c024 f   ole32_ALL:chinst.obj
 0001:0004b074       ?IsDenied@CChildInstanceList@@QAAJPBVCDfName@@KK@Z 1004c074 f   ole32_ALL:chinst.obj
 0001:0004b130       ??1CTSSet@@QAA@XZ          1004c130 f   ole32_ALL:tlsets.obj
 0001:0004b134       ?FindName@CTSSet@@QAAPAVPTSetMember@@PBVCDfName@@K@Z 1004c134 f   ole32_ALL:tlsets.obj
 0001:0004b1b4       ?AddMember@CTSSet@@QAAXPAVPTSetMember@@@Z 1004c1b4 f   ole32_ALL:tlsets.obj
 0001:0004b348       ?RemoveMember@CTSSet@@QAAXPAVPTSetMember@@@Z 1004c348 f   ole32_ALL:tlsets.obj
 0001:0004b47c       ?Init@CWrappedDocFile@@QAAJPAVPDocFile@@@Z 1004c47c f   ole32_ALL:wdocfile.obj
 0001:0004b4c8       ?AddRef@CWrappedDocFile@@UAAXXZ 1004c4c8 f   ole32_ALL:wdocfile.obj
 0001:0004b4d8       ?GetClass@CWrappedDocFile@@UAAJPAU_GUID@@@Z 1004c4d8 f   ole32_ALL:wdocfile.obj
 0001:0004b504       ?GetStateBits@CWrappedDocFile@@UAAJPAK@Z 1004c504 f   ole32_ALL:wdocfile.obj
 0001:0004b514       ??0PTSetMember@@IAA@PBVCDfName@@K@Z 1004c514 f i ole32_ALL:wdocfile.obj
 0001:0004b560       ?RenameMember@CTSSet@@QAAXPBVCDfName@@K0@Z 1004c560 f i ole32_ALL:wdocfile.obj
 0001:0004b604       ??0CWrappedDocFile@@QAA@PBVCDfName@@KKPAVCDFBasis@@PAVCPubDocFile@@@Z 1004c604 f   ole32_ALL:wdocfile.obj
 0001:0004b6bc       ?AddRef@CWrappedDocFile@@W7AAXXZ 1004c6bc f i ole32_ALL:wdocfile.obj
 0001:0004b6c4       ??1CWrappedDocFile@@QAA@XZ 1004c6c4 f   ole32_ALL:wdocfile.obj
 0001:0004b724       ?IsEntry@CWrappedDocFile@@UAAJPBVCDfName@@PAUSEntryBuffer@@@Z 1004c724 f   ole32_ALL:wdocfile.obj
 0001:0004b7f4       ?RenameEntry@CWrappedDocFile@@UAAJPBVCDfName@@0@Z 1004c7f4 f   ole32_ALL:wdocfile.obj
 0001:0004b8dc       ?GetTime@CWrappedDocFile@@UAAJW4WHICHTIME@@PAU_FILETIME@@@Z 1004c8dc f   ole32_ALL:wdocfile.obj
 0001:0004b8f8       ?GetAllTimes@CWrappedDocFile@@UAAJPAU_FILETIME@@00@Z 1004c8f8 f   ole32_ALL:wdocfile.obj
 0001:0004b938       ?SetAllTimes@CWrappedDocFile@@UAAJU_FILETIME@@00@Z 1004c938 f   ole32_ALL:wdocfile.obj
 0001:0004b97c       ?SetTime@CWrappedDocFile@@UAAJW4WHICHTIME@@U_FILETIME@@@Z 1004c97c f   ole32_ALL:wdocfile.obj
 0001:0004b9b0       ?SetClass@CWrappedDocFile@@UAAJABU_GUID@@@Z 1004c9b0 f   ole32_ALL:wdocfile.obj
 0001:0004b9ec       ?SetStateBits@CWrappedDocFile@@UAAJKK@Z 1004c9ec f   ole32_ALL:wdocfile.obj
 0001:0004ba18       ?GetDocFile@CWrappedDocFile@@UAAJPBVCDfName@@KPAPAVPDocFile@@@Z 1004ca18 f   ole32_ALL:wdocfile.obj
 0001:0004bbf0       ?DestroyEntry@CWrappedDocFile@@UAAJPBVCDfName@@H@Z 1004cbf0 f   ole32_ALL:wdocfile.obj
 0001:0004bd00       ?Release@CWrappedDocFile@@UAAXXZ 1004cd00 f   ole32_ALL:wdocfile.obj
 0001:0004bd28       ?Release@CWrappedDocFile@@W7AAXXZ 1004cd28 f i ole32_ALL:wdocfile.obj
 0001:0004bd30       ?CreateDocFile@CWrappedDocFile@@UAAJPBVCDfName@@KKPAPAVPDocFile@@@Z 1004cd30 f   ole32_ALL:wdocfile.obj
 0001:0004bee8       ?GetBaseMS@CPubDocFile@@QAAPAVCMStream@@XZ 1004cee8 f i ole32_ALL:pbstream.obj
 0001:0004bf08       ?CheckReverted@CPubStream@@QBAJXZ 1004cf08 f i ole32_ALL:pbstream.obj
 0001:0004bf20       ?SetClean@CPubStream@@QAAXXZ 1004cf20 f i ole32_ALL:pbstream.obj
 0001:0004bf2c       ?Init@CPubStream@@QAAXPAVPSStream@@K@Z 1004cf2c f   ole32_ALL:pbstream.obj
 0001:0004bf50       ??1CPubStream@@QAA@XZ      1004cf50 f   ole32_ALL:pbstream.obj
 0001:0004bfb0       ??_GCPubStream@@QAAPAXI@Z  1004cfb0 f i ole32_ALL:pbstream.obj
 0001:0004bfd4       ?Stat@CPubStream@@QAAJPAUtagSTATSTG@@K@Z 1004cfd4 f   ole32_ALL:pbstream.obj
 0001:0004c094       ?RevertFromAbove@CPubStream@@UAAXXZ 1004d094 f   ole32_ALL:pbstream.obj
 0001:0004c0c8       ?Commit@CPubStream@@QAAJK@Z 1004d0c8 f   ole32_ALL:pbstream.obj
 0001:0004c158       ??0CPubStream@@QAA@PAVCPubDocFile@@KPBVCDfName@@@Z 1004d158 f   ole32_ALL:pbstream.obj
 0001:0004c1f0       ?vRelease@CPubStream@@QAAXXZ 1004d1f0 f   ole32_ALL:pbstream.obj
 0001:0004c21c       ?IsEqual@CDfName@@QBAHPBV1@@Z 1004d21c f   ole32_ALL:dfname.obj
 0001:0004c24c       ?AllocString@CDfName@@QAAPAGXZ 1004d24c f   ole32_ALL:dfname.obj
 0001:0004c29c       ?CopyString@CDfName@@QAAXPBG@Z 1004d29c f   ole32_ALL:dfname.obj
 0001:0004c2a0       ?DfGetTOD@@YAJPAU_FILETIME@@@Z 1004d2a0 f   ole32_ALL:time32.obj
 0001:0004c2dc       ?GetCommitSig@CMSFHeader@@QBAKXZ 1004d2dc f i ole32_ALL:msf.obj
 0001:0004c2e4       ?SetCommitSig@CMSFHeader@@QAAXK@Z 1004d2e4 f i ole32_ALL:msf.obj
 0001:0004c2f4       ?DllReleaseMultiStream@@YAXPAVCMStream@@@Z 1004d2f4 f   ole32_ALL:msf.obj
 0001:0004c308       ?DllGetScratchMultiStream@@YAJPAPAVCMStream@@HPAPAUILockBytes@@PAV1@@Z 1004d308 f   ole32_ALL:msf.obj
 0001:0004c3c0       ?DllIsMultiStream@@YAJPAUILockBytes@@@Z 1004d3c0 f   ole32_ALL:msf.obj
 0001:0004c450       ?DllSetCommitSig@@YAJPAUILockBytes@@K@Z 1004d450 f   ole32_ALL:msf.obj
 0001:0004c538       ?DllGetCommitSig@@YAJPAUILockBytes@@PAK@Z 1004d538 f   ole32_ALL:msf.obj
 0001:0004c5f0       ?DllMultiStreamFromStream@@YAJPAUIMalloc@@PAPAVCMStream@@PAPAUILockBytes@@K@Z 1004d5f0 f   ole32_ALL:msf.obj
 0001:0004c7c8       ?AddRef@CDocFile@@UAAXXZ   1004d7c8 f   ole32_ALL:cdocfile.obj
 0001:0004c7d8       ?GetUserFlags@CDirEntry@@QBAKXZ 1004d7d8 f i ole32_ALL:cdocfile.obj
 0001:0004c7fc       ?GetClassId@CDirectory@@QAAJKPAU_GUID@@@Z 1004d7fc f i ole32_ALL:cdocfile.obj
 0001:0004c850       ?GetUserFlags@CDirectory@@QAAJKPAK@Z 1004d850 f i ole32_ALL:cdocfile.obj
 0001:0004c8b4       ?IsEntry@CDirectory@@QAAJKPBVCDfName@@PAUSEntryBuffer@@@Z 1004d8b4 f i ole32_ALL:cdocfile.obj
 0001:0004c8d4       ?DestroyEntry@CHandle@@QAAJPBVCDfName@@@Z 1004d8d4 f i ole32_ALL:cdocfile.obj
 0001:0004c914       ?GetMS@CHandle@@QBAPAVCMStream@@XZ 1004d914 f i ole32_ALL:cdocfile.obj
 0001:0004c934       ?CreateEntry@CStgHandle@@QAAJPBVCDfName@@KPAVCHandle@@@Z 1004d934 f i ole32_ALL:cdocfile.obj
 0001:0004c97c       ?GetEntry@CStgHandle@@QAAJPBVCDfName@@KPAVCHandle@@@Z 1004d97c f i ole32_ALL:cdocfile.obj
 0001:0004c9f8       ?SetClass@CStgHandle@@QAAJABU_GUID@@@Z 1004d9f8 f i ole32_ALL:cdocfile.obj
 0001:0004ca40       ?SetAllTimes@CStgHandle@@QAAJU_FILETIME@@00@Z 1004da40 f i ole32_ALL:cdocfile.obj
 0001:0004caa8       ?SetTime@CStgHandle@@QAAJW4WHICHTIME@@U_FILETIME@@@Z 1004daa8 f i ole32_ALL:cdocfile.obj
 0001:0004caf4       ??1CDocFile@@QAA@XZ        1004daf4 f i ole32_ALL:cdocfile.obj
 0001:0004cb48       ?RenameEntry@CDocFile@@UAAJPBVCDfName@@0@Z 1004db48 f   ole32_ALL:cdocfile.obj
 0001:0004cb78       ?DestroyEntry@CDocFile@@UAAJPBVCDfName@@H@Z 1004db78 f   ole32_ALL:cdocfile.obj
 0001:0004cb80       ?IsEntry@CDocFile@@UAAJPBVCDfName@@PAUSEntryBuffer@@@Z 1004db80 f   ole32_ALL:cdocfile.obj
 0001:0004cbc0       ?GetTime@CDocFile@@UAAJW4WHICHTIME@@PAU_FILETIME@@@Z 1004dbc0 f   ole32_ALL:cdocfile.obj
 0001:0004cbec       ?GetAllTimes@CDocFile@@UAAJPAU_FILETIME@@00@Z 1004dbec f   ole32_ALL:cdocfile.obj
 0001:0004cc28       ?SetAllTimes@CDocFile@@UAAJU_FILETIME@@00@Z 1004dc28 f   ole32_ALL:cdocfile.obj
 0001:0004cc6c       ?SetTime@CDocFile@@UAAJW4WHICHTIME@@U_FILETIME@@@Z 1004dc6c f   ole32_ALL:cdocfile.obj
 0001:0004cc8c       ?GetClass@CDocFile@@UAAJPAU_GUID@@@Z 1004dc8c f   ole32_ALL:cdocfile.obj
 0001:0004ccb8       ?SetClass@CDocFile@@UAAJABU_GUID@@@Z 1004dcb8 f   ole32_ALL:cdocfile.obj
 0001:0004ccc0       ?GetStateBits@CDocFile@@UAAJPAK@Z 1004dcc0 f   ole32_ALL:cdocfile.obj
 0001:0004ccec       ?SetStateBits@CDocFile@@UAAJKK@Z 1004dcec f   ole32_ALL:cdocfile.obj
 0001:0004cd1c       ??0CDocFile@@QAA@KPAVCDFBasis@@@Z 1004dd1c f i ole32_ALL:cdocfile.obj
 0001:0004cd78       ?GetReservedDocfile@CDocFile@@QAAPAV1@K@Z 1004dd78 f i ole32_ALL:cdocfile.obj
 0001:0004cdd0       ?GetDocFile@CDocFile@@UAAJPBVCDfName@@KPAPAVPDocFile@@@Z 1004ddd0 f   ole32_ALL:cdocfile.obj
 0001:0004ceb4       ?Release@CDocFile@@UAAXXZ  1004deb4 f   ole32_ALL:cdocfile.obj
 0001:0004cedc       ?CreateDocFile@CDocFile@@UAAJPBVCDfName@@KKPAPAVPDocFile@@@Z 1004dedc f   ole32_ALL:cdocfile.obj
 0001:0004cf98       ??_GCDirectStream@@QAAPAXI@Z 1004df98 f i ole32_ALL:dfstream.obj
 0001:0004cfbc       ?GetStream@CDocFile@@UAAJPBVCDfName@@KPAPAVPSStream@@@Z 1004dfbc f   ole32_ALL:dfstream.obj
 0001:0004d078       ?CreateStream@CDocFile@@UAAJPBVCDfName@@KKPAPAVPSStream@@@Z 1004e078 f   ole32_ALL:dfstream.obj
 0001:0004d15c       ?GetChild@CDirEntry@@QBAKXZ 1004e15c f i ole32_ALL:dfiter.obj
 0001:0004d180       ?GetChild@CDirectory@@QAAJKPAK@Z 1004e180 f i ole32_ALL:dfiter.obj
 0001:0004d1e4       ?GetSid@CHandle@@QBAKXZ    1004e1e4 f i ole32_ALL:dfiter.obj
 0001:0004d1ec       ?FindGreaterEntry@CDocFile@@UAAJPBVCDfName@@PAUSIterBuffer@@PAUtagSTATSTG@@@Z 1004e1ec f   ole32_ALL:dfiter.obj
 0001:0004d2b4       ?StatEntry@CDocFile@@UAAJPBVCDfName@@PAUSIterBuffer@@PAUtagSTATSTG@@@Z 1004e2b4 f   ole32_ALL:dfiter.obj
 0001:0004d338       ?SetXSM@CUpdate@@QAAXPAVPTSetMember@@@Z 1004e338 f i ole32_ALL:dfxact.obj
 0001:0004d398       ?GetBase@CTransactedStream@@QAAPAVPSStream@@XZ 1004e398 f i ole32_ALL:dfxact.obj
 0001:0004d3c0       ?BeginCommitFromChild@CDocFile@@UAAJAAVCUpdateList@@KPAVCWrappedDocFile@@@Z 1004e3c0 f   ole32_ALL:dfxact.obj
 0001:0004d56c       ?ReturnStream@CDocFile@@QAAXPAVCDirectStream@@@Z 1004e56c f i ole32_ALL:dfxact.obj
 0001:0004d5bc       ?ReturnDocFile@CDocFile@@QAAXPAV1@@Z 1004e5bc f i ole32_ALL:dfxact.obj
 0001:0004d60c       ?EndCommitFromChild@CDocFile@@UAAXKPAVCWrappedDocFile@@@Z 1004e60c f   ole32_ALL:dfxact.obj
 0001:0004d780       ?DeleteContents@CDocFile@@UAAJXZ 1004e780 f   ole32_ALL:dffuncs.obj
 0001:0004d7ac       ?ApplyChanges@CDocFile@@QAAJAAVCUpdateList@@@Z 1004e7ac f   ole32_ALL:dffuncs.obj
 0001:0004d858       ?CopyTo@CDocFile@@QAAJPAV1@KPAPAG@Z 1004e858 f   ole32_ALL:dffuncs.obj
 0001:0004dc48       ?CreateFromUpdate@PDocFile@@SAJPAVCUpdate@@PAV1@K@Z 1004ec48 f   ole32_ALL:pdffuncs.obj
 0001:0004dd98       ?ExcludeEntries@PDocFile@@SAJPAV1@PAPAG@Z 1004ed98 f   ole32_ALL:pdffuncs.obj
 0001:0004df40       ?ReadAt@CPubStream@@QAAJKPAXKPAK@Z 1004ef40 f i ole32_ALL:expst.obj
 0001:0004dfb4       ?GetSize@CPubStream@@QAAJPAK@Z 1004efb4 f i ole32_ALL:expst.obj
 0001:0004dffc       ?AddRef@CExposedStream@@UAAKXZ 1004effc f   ole32_ALL:expst.obj
 0001:0004e034       ?LockRegion@CExposedStream@@UAAJT_ULARGE_INTEGER@@0K@Z 1004f034 f   ole32_ALL:expst.obj
 0001:0004e04c       ?UnlockRegion@CExposedStream@@UAAJT_ULARGE_INTEGER@@0K@Z 1004f04c f   ole32_ALL:expst.obj
 0001:0004e064       ?Revert@CExposedStream@@UAAJXZ 1004f064 f   ole32_ALL:expst.obj
 0001:0004e090       ?Init@CExposedStream@@QAAJPAVCPubStream@@PAVCDFBasis@@PAVCPerContext@@HPAVCSeekPointer@@@Z 1004f090 f   ole32_ALL:expst.obj
 0001:0004e150       ?QueryInterface@CExposedStream@@UAAJABU_GUID@@PAPAX@Z 1004f150 f   ole32_ALL:expst.obj
 0001:0004e290       ?WriteAt@CPubStream@@QAAJKPBXKPAK@Z 1004f290 f i ole32_ALL:expst.obj
 0001:0004e318       ?SetSize@CPubStream@@QAAJK@Z 1004f318 f i ole32_ALL:expst.obj
 0001:0004e390       ??1CExposedStream@@QAA@XZ  1004f390 f   ole32_ALL:expst.obj
 0001:0004e4a8       ?Read@CExposedStream@@UAAJPAXKPAK@Z 1004f4a8 f   ole32_ALL:expst.obj
 0001:0004e5d4       ?Write@CExposedStream@@UAAJPBXKPAK@Z 1004f5d4 f   ole32_ALL:expst.obj
 0001:0004e700       ?Seek@CExposedStream@@UAAJT_LARGE_INTEGER@@KPAT_ULARGE_INTEGER@@@Z 1004f700 f   ole32_ALL:expst.obj
 0001:0004e940       ?SetSize@CExposedStream@@UAAJT_ULARGE_INTEGER@@@Z 1004f940 f   ole32_ALL:expst.obj
 0001:0004ea14       ?CopyTo@CExposedStream@@UAAJPAUIStream@@T_ULARGE_INTEGER@@PAT3@2@Z 1004fa14 f   ole32_ALL:expst.obj
 0001:0004ed9c       ?Stat@CExposedStream@@UAAJPAUtagSTATSTG@@K@Z 1004fd9c f   ole32_ALL:expst.obj
 0001:0004eedc       ?Commit@CExposedStream@@UAAJK@Z 1004fedc f   ole32_ALL:expst.obj
 0001:0004ef98       ??0CExposedStream@@QAA@XZ  1004ff98 f   ole32_ALL:expst.obj
 0001:0004efc4       ?Release@CExposedStream@@UAAKXZ 1004ffc4 f   ole32_ALL:expst.obj
 0001:0004f070       ?Clone@CExposedStream@@UAAJPAPAUIStream@@@Z 10050070 f   ole32_ALL:expst.obj
 0001:0004f278       ?Skip@CExposedIterator@@UAAJK@Z 10050278 f   ole32_ALL:expiter.obj
 0001:0004f2b0       ?Reset@CExposedIterator@@UAAJXZ 100502b0 f   ole32_ALL:expiter.obj
 0001:0004f2f0       ?AddRef@CExposedIterator@@UAAKXZ 100502f0 f   ole32_ALL:expiter.obj
 0001:0004f32c       ?QueryInterface@CExposedIterator@@UAAJABU_GUID@@PAPAX@Z 1005032c f   ole32_ALL:expiter.obj
 0001:0004f384       ??0CExposedIterator@@QAA@PAVCPubDocFile@@PAVCDfName@@PAVCDFBasis@@PAVCPerContext@@H@Z 10050384 f   ole32_ALL:expiter.obj
 0001:0004f44c       ??1CExposedIterator@@QAA@XZ 1005044c f   ole32_ALL:expiter.obj
 0001:0004f558       ?Next@CExposedIterator@@UAAJKPAUtagSTATSTG@@PAK@Z 10050558 f   ole32_ALL:expiter.obj
 0001:0004f870       ?Clone@CExposedIterator@@UAAJPAPAUIEnumSTATSTG@@@Z 10050870 f   ole32_ALL:expiter.obj
 0001:0004fa04       ?Release@CExposedIterator@@UAAKXZ 10050a04 f   ole32_ALL:expiter.obj
 0001:0004fa58       NdrClientCall2             10050a58 f   ole32_ALL:RPCRT4LEGACY.dll
 0001:0004fa68       NdrFreeBuffer              10050a68 f   ole32_ALL:RPCRT4LEGACY.dll
 0001:0004fa78       NdrMapCommAndFaultStatus   10050a78 f   ole32_ALL:RPCRT4LEGACY.dll
 0001:0004fa88       NdrConvert                 10050a88 f   ole32_ALL:RPCRT4LEGACY.dll
 0001:0004fa98       NdrSendReceive             10050a98 f   ole32_ALL:RPCRT4LEGACY.dll
 0001:0004faa8       NdrConformantStructMarshall 10050aa8 f   ole32_ALL:RPCRT4LEGACY.dll
 0001:0004fab8       NdrPointerMarshall         10050ab8 f   ole32_ALL:RPCRT4LEGACY.dll
 0001:0004fac8       NdrClientContextMarshall   10050ac8 f   ole32_ALL:RPCRT4LEGACY.dll
 0001:0004fad8       NdrGetBuffer               10050ad8 f   ole32_ALL:RPCRT4LEGACY.dll
 0001:0004fae8       NdrConformantStructBufferSize 10050ae8 f   ole32_ALL:RPCRT4LEGACY.dll
 0001:0004faf8       NdrPointerBufferSize       10050af8 f   ole32_ALL:RPCRT4LEGACY.dll
 0001:0004fb08       NdrClientInitializeNew     10050b08 f   ole32_ALL:RPCRT4LEGACY.dll
 0001:0004fb18       I_RpcBindingInqClientGroupsW 10050b18 f   ole32_ALL:RPCRT4LEGACY.dll
 0001:0004fb28       CStdStubBuffer_DebugServerRelease 10050b28 f   ole32_ALL:RPCRT4LEGACY.dll
 0001:0004fb38       CStdStubBuffer_DebugServerQueryInterface 10050b38 f   ole32_ALL:RPCRT4LEGACY.dll
 0001:0004fb48       CStdStubBuffer_CountRefs   10050b48 f   ole32_ALL:RPCRT4LEGACY.dll
 0001:0004fb58       CStdStubBuffer_IsIIDSupported 10050b58 f   ole32_ALL:RPCRT4LEGACY.dll
 0001:0004fb68       CStdStubBuffer_Invoke      10050b68 f   ole32_ALL:RPCRT4LEGACY.dll
 0001:0004fb78       CStdStubBuffer_Disconnect  10050b78 f   ole32_ALL:RPCRT4LEGACY.dll
 0001:0004fb88       CStdStubBuffer_Connect     10050b88 f   ole32_ALL:RPCRT4LEGACY.dll
 0001:0004fb98       CStdStubBuffer_AddRef      10050b98 f   ole32_ALL:RPCRT4LEGACY.dll
 0001:0004fba8       CStdStubBuffer_QueryInterface 10050ba8 f   ole32_ALL:RPCRT4LEGACY.dll
 0001:0004fbb8       IUnknown_Release_Proxy     10050bb8 f   ole32_ALL:RPCRT4LEGACY.dll
 0001:0004fbc8       IUnknown_AddRef_Proxy      10050bc8 f   ole32_ALL:RPCRT4LEGACY.dll
 0001:0004fbd8       IUnknown_QueryInterface_Proxy 10050bd8 f   ole32_ALL:RPCRT4LEGACY.dll
 0001:0004fbe8       NdrOleFree                 10050be8 f   ole32_ALL:RPCRT4LEGACY.dll
 0001:0004fbf8       NdrOleAllocate             10050bf8 f   ole32_ALL:RPCRT4LEGACY.dll
 0001:0004fc08       NdrServerCall2             10050c08 f   ole32_ALL:RPCRT4LEGACY.dll
 0001:0004fc18       ?Create@CPlex@@SAPAU1@AAPAU1@II@Z 10050c18 f   ole32_ALL:PLEX.obj
 0001:0004fc90       ?FreeDataChain@CPlex@@QAAXXZ 10050c90 f   ole32_ALL:PLEX.obj
 0001:0004fcd8       RpcMgmtSetComTimeout       10050cd8 f   ole32_ALL:RPCRT4LEGACY.dll
 0001:0004fce8       RpcMgmtInqComTimeout       10050ce8 f   ole32_ALL:RPCRT4LEGACY.dll
 0001:0004fcf8       ?IsFree@CDirEntry@@QBAHXZ  10050cf8 f i ole32_ALL:dir.obj
 0001:0004fd0c       ?SetChild@CDirEntry@@QAAXK@Z 10050d0c f i ole32_ALL:dir.obj
 0001:0004fd30       ?SetStart@CDirEntry@@QAAXK@Z 10050d30 f i ole32_ALL:dir.obj
 0001:0004fd54       ?SetSize@CDirEntry@@QAAXK@Z 10050d54 f i ole32_ALL:dir.obj
 0001:0004fd78       ?SetFlags@CDirEntry@@QAAXK@Z 10050d78 f i ole32_ALL:dir.obj
 0001:0004fd84       ?SetTime@CDirEntry@@QAAXW4WHICHTIME@@U_FILETIME@@@Z 10050d84 f i ole32_ALL:dir.obj
 0001:0004fda8       ?SetAllTimes@CDirEntry@@QAAXU_FILETIME@@00@Z 10050da8 f i ole32_ALL:dir.obj
 0001:0004fde4       ?SetClassId@CDirEntry@@QAAXU_GUID@@@Z 10050de4 f i ole32_ALL:dir.obj
 0001:0004fe44       ?SetUserFlags@CDirEntry@@QAAXKK@Z 10050e44 f i ole32_ALL:dir.obj
 0001:0004fe90       ?GetLeftSib@CDirEntry@@QBAKXZ 10050e90 f i ole32_ALL:dir.obj
 0001:0004feb4       ?GetRightSib@CDirEntry@@QBAKXZ 10050eb4 f i ole32_ALL:dir.obj
 0001:0004fed8       ?GetName@CDirEntry@@QBAPBVCDfName@@XZ 10050ed8 f i ole32_ALL:dir.obj
 0001:0004fedc       ?GetFlags@CDirEntry@@QBAKXZ 10050edc f i ole32_ALL:dir.obj
 0001:0004fee4       ?GetEntry@CDirSect@@QAAPAVCDirEntry@@G@Z 10050ee4 f i ole32_ALL:dir.obj
 0001:0004feec       ?Zero@CDfName@@QAAXXZ      10050eec f i ole32_ALL:dir.obj
 0001:0004ff0c       ?PairToSid@CDirectory@@ABAKKG@Z 10050f0c f i ole32_ALL:dir.obj
 0001:0004ff18       ?SidToPair@CDirectory@@ABAJKPAKPAG@Z 10050f18 f i ole32_ALL:dir.obj
 0001:0004ff68       ?GetFatStart@CMSFHeader@@QBAKXZ 10050f68 f i ole32_ALL:dir.obj
 0001:0004ff70       ?GetMiniFatStart@CMSFHeader@@QBAKXZ 10050f70 f i ole32_ALL:dir.obj
 0001:0004ff78       ?GetDifStart@CMSFHeader@@QBAKXZ 10050f78 f i ole32_ALL:dir.obj
 0001:0004ff80       ?Release@CMSFPage@@QAAXXZ  10050f80 f i ole32_ALL:dir.obj
 0001:0004ff90       ??0CPagedVector@@QAA@K@Z   10050f90 f i ole32_ALL:dir.obj
 0001:0004ffb4       ?GetTable@CPagedVector@@QAAJKKPAPAX@Z 10050fb4 f i ole32_ALL:dir.obj
 0001:0004ffd4       ?AllocNameString@CDirEntry@@QAAPAGXZ 10050fd4 f i ole32_ALL:dir.obj
 0001:0004ffd8       ?InitCommon@CDirVector@@QAAXG@Z 10050fd8 f i ole32_ALL:dir.obj
 0001:0004ffe0       ?ReleaseTable@CPagedVector@@QAAXK@Z 10050fe0 f i ole32_ALL:dir.obj
 0001:00050034       ?SetSect@CPagedVector@@QAAXKK@Z 10051034 f i ole32_ALL:dir.obj
 0001:000500cc       ?GetStart@CMStream@@QBAKK@Z 100510cc f i ole32_ALL:dir.obj
 0001:00050128       ?GetESect@CMStream@@QAAJKKPAK@Z 10051128 f i ole32_ALL:dir.obj
 0001:0005031c       ?KillStream@CMStream@@QAAJKK@Z 1005131c f i ole32_ALL:dir.obj
 0001:00050340       ?Empty@CDirectory@@QAAXXZ  10051340 f   ole32_ALL:dir.obj
 0001:00050364       ?InitCopy@CDirectory@@QAAXPAV1@@Z 10051364 f   ole32_ALL:dir.obj
 0001:000503c4       ?Init@CDirectory@@QAAJPAVCMStream@@K@Z 100513c4 f   ole32_ALL:dir.obj
 0001:0005042c       ?ReleaseEntry@CDirectory@@QAAXK@Z 1005142c f   ole32_ALL:dir.obj
 0001:00050458       ?Init@CDirEntry@@QAAXK@Z   10051458 f i ole32_ALL:dir.obj
 0001:00050538       ?SetName@CDirEntry@@QAAXPBVCDfName@@@Z 10051538 f i ole32_ALL:dir.obj
 0001:0005056c       ?ZeroName@CDirEntry@@QAAXXZ 1005156c f i ole32_ALL:dir.obj
 0001:00050570       ??0CDirVector@@QAA@XZ      10051570 f i ole32_ALL:dir.obj
 0001:00050590       ?Init@CDirSect@@QAAJG@Z    10051590 f   ole32_ALL:dir.obj
 0001:000505d8       ??0CDirectory@@QAA@XZ      100515d8 f   ole32_ALL:dir.obj
 0001:00050600       ?GetTable@CDirVector@@QAAJKKPAPAVCDirSect@@@Z 10051600 f i ole32_ALL:dir.obj
 0001:00050634       ?Resize@CDirectory@@AAAJK@Z 10051634 f   ole32_ALL:dir.obj
 0001:0005074c       ?GetDirEntry@CDirectory@@QAAJKKPAPAVCDirEntry@@@Z 1005174c f   ole32_ALL:dir.obj
 0001:000507c8       ?GetFree@CDirectory@@AAAJPAK@Z 100517c8 f   ole32_ALL:dir.obj
 0001:000508b8       ?FindGreaterEntry@CDirectory@@QAAJKPBVCDfName@@PAK@Z 100518b8 f   ole32_ALL:dir.obj
 0001:00050aa0       ?SetStart@CDirectory@@QAAJKK@Z 10051aa0 f   ole32_ALL:dir.obj
 0001:00050aec       ?SetSize@CDirectory@@QAAJKK@Z 10051aec f   ole32_ALL:dir.obj
 0001:00050b38       ?SetTime@CDirectory@@QAAJKW4WHICHTIME@@U_FILETIME@@@Z 10051b38 f   ole32_ALL:dir.obj
 0001:00050ba8       ?SetAllTimes@CDirectory@@QAAJKU_FILETIME@@00@Z 10051ba8 f   ole32_ALL:dir.obj
 0001:00050c20       ?SetClassId@CDirectory@@QAAJKU_GUID@@@Z 10051c20 f   ole32_ALL:dir.obj
 0001:00050cb0       ?SetUserFlags@CDirectory@@QAAJKKK@Z 10051cb0 f   ole32_ALL:dir.obj
 0001:00050d0c       ?InitNew@CDirectory@@QAAJPAVCMStream@@@Z 10051d0c f   ole32_ALL:dir.obj
 0001:00050e48       ?CreateEntry@CDirectory@@QAAJKPBVCDfName@@KPAK@Z 10051e48 f   ole32_ALL:dir.obj
 0001:00050f88       ?RenameEntry@CDirectory@@QAAJKPBVCDfName@@0@Z 10051f88 f   ole32_ALL:dir.obj
 0001:00051050       ?DestroyAllChildren@CDirectory@@QAAJKK@Z 10052050 f   ole32_ALL:dir.obj
 0001:00051158       ?DestroyChild@CDirectory@@QAAJKPBVCDfName@@K@Z 10052158 f   ole32_ALL:dir.obj
 0001:0005129c       ?StatEntry@CDirectory@@QAAJKPAUSIterBuffer@@PAUtagSTATSTG@@@Z 1005229c f   ole32_ALL:dir.obj
 0001:00051498       ?Remove@CMSFPage@@QAAXXZ   10052498 f i ole32_ALL:page.obj
 0001:000514d8       ??2CMSFPage@@SAPAXIQAUIMalloc@@I@Z 100524d8 f i ole32_ALL:page.obj
 0001:000514e0       ?GetNext@CMSFPage@@QBAPAV1@XZ 100524e0 f i ole32_ALL:page.obj
 0001:00051500       ?GetPrev@CMSFPage@@QBAPAV1@XZ 10052500 f i ole32_ALL:page.obj
 0001:00051520       ?GetSid@CMSFPage@@QBAKXZ   10052520 f i ole32_ALL:page.obj
 0001:00051528       ?GetOffset@CMSFPage@@QBAKXZ 10052528 f i ole32_ALL:page.obj
 0001:00051530       ?GetSect@CMSFPage@@QBAKXZ  10052530 f i ole32_ALL:page.obj
 0001:00051538       ?GetFlags@CMSFPage@@QBAKXZ 10052538 f i ole32_ALL:page.obj
 0001:00051540       ?GetData@CMSFPage@@QBAPAXXZ 10052540 f i ole32_ALL:page.obj
 0001:00051548       ?GetVector@CMSFPage@@QBAPAVCPagedVector@@XZ 10052548 f i ole32_ALL:page.obj
 0001:00051568       ?SetChain@CMSFPage@@QAAXQAV1@0@Z 10052568 f i ole32_ALL:page.obj
 0001:000515a4       ?SetPrev@CMSFPage@@QAAXQAV1@@Z 100525a4 f i ole32_ALL:page.obj
 0001:000515c8       ?SetNext@CMSFPage@@QAAXQAV1@@Z 100525c8 f i ole32_ALL:page.obj
 0001:000515ec       ?SetSid@CMSFPage@@QAAXK@Z  100525ec f i ole32_ALL:page.obj
 0001:000515f4       ?SetOffset@CMSFPage@@QAAXK@Z 100525f4 f i ole32_ALL:page.obj
 0001:000515fc       ?SetFlags@CMSFPage@@QAAXK@Z 100525fc f i ole32_ALL:page.obj
 0001:00051604       ?SetVector@CMSFPage@@QAAXPAVCPagedVector@@@Z 10052604 f i ole32_ALL:page.obj
 0001:00051628       ?ResetDirty@CMSFPage@@QAAXXZ 10052628 f i ole32_ALL:page.obj
 0001:00051638       ?IsDirty@CMSFPage@@QBAHXZ  10052638 f i ole32_ALL:page.obj
 0001:0005164c       ?IsInUse@CMSFPage@@QBAHXZ  1005264c f i ole32_ALL:page.obj
 0001:00051660       ?IsFlushable@CMSFPage@@QBAHXZ 10052660 f i ole32_ALL:page.obj
 0001:00051690       ?AddRef@CMSFPage@@QAAXXZ   10052690 f i ole32_ALL:page.obj
 0001:000516a0       ?FreeTable@CPagedVector@@QAAXK@Z 100526a0 f i ole32_ALL:page.obj
 0001:000516cc       ?GetParent@CPagedVector@@QBAPAVCMStream@@XZ 100526cc f i ole32_ALL:page.obj
 0001:000516ec       ?GetSect@CMStream@@QAAJKKPAK@Z 100526ec f i ole32_ALL:page.obj
 0001:00051784       ?SetSect@CMSFPage@@AAAXK@Z 10052784 f i ole32_ALL:page.obj
 0001:0005178c       ?IsSorted@CMSFPageTable@@AAAHPAVCMSFPage@@@Z 1005278c f i ole32_ALL:page.obj
 0001:00051814       ?SetSect@CMSFPageTable@@QAAXPAVCMSFPage@@K@Z 10052814 f   ole32_ALL:page.obj
 0001:00051918       ??0CMSFPageTable@@QAA@QAVCMStream@@KK@Z 10052918 f   ole32_ALL:page.obj
 0001:0005197c       ??0CMSFPage@@QAA@PAV0@@Z   1005297c f   ole32_ALL:page.obj
 0001:00051a1c       ?GetNewPage@CMSFPageTable@@AAAPAVCMSFPage@@XZ 10052a1c f i ole32_ALL:page.obj
 0001:00051a80       ?Init@CMSFPageTable@@QAAJXZ 10052a80 f   ole32_ALL:page.obj
 0001:00051b00       ?FlushPage@CMSFPageTable@@QAAJPAVCMSFPage@@@Z 10052b00 f   ole32_ALL:page.obj
 0001:00051ba8       ?Flush@CMSFPageTable@@QAAJXZ 10052ba8 f   ole32_ALL:page.obj
 0001:00051e54       ?FreePages@CMSFPageTable@@QAAXPAVCPagedVector@@@Z 10052e54 f   ole32_ALL:page.obj
 0001:00051edc       ?FindSwapPage@CMSFPageTable@@AAAPAVCMSFPage@@XZ 10052edc f   ole32_ALL:page.obj
 0001:00051f78       ?CopyPage@CMSFPageTable@@QAAJPAVCPagedVector@@PAVCMSFPage@@PAPM2pvDfSharedMemBase@@V3@@Z 10052f78 f   ole32_ALL:page.obj
 0001:000520ac       ??1CMSFPage@@QAA@XZ        100530ac f i ole32_ALL:page.obj
 0001:000520b0       ??_GCMSFPage@@QAAPAXI@Z    100530b0 f i ole32_ALL:page.obj
 0001:000520d4       ?GetFreePage@CMSFPageTable@@QAAJPAPAVCMSFPage@@@Z 100530d4 f   ole32_ALL:page.obj
 0001:0005223c       ?FindPage@CMSFPageTable@@QAAJPAVCPagedVector@@KKPAPAVCMSFPage@@@Z 1005323c f   ole32_ALL:page.obj
 0001:00052314       ?GetPage@CMSFPageTable@@QAAJPAVCPagedVector@@KKKPAPAVCMSFPage@@@Z 10053314 f   ole32_ALL:page.obj
 0001:000524a4       ?ReleasePage@CMSFPageTable@@QAAXPAVCPagedVector@@KK@Z 100534a4 f   ole32_ALL:page.obj
 0001:000524cc       ??1CMSFPageTable@@QAA@XZ   100534cc f   ole32_ALL:page.obj
 0001:00052554       ?SetFatLength@CMSFHeader@@QAAJK@Z 10053554 f i ole32_ALL:fat.obj
 0001:00052568       ?SetMiniFatLength@CMSFHeader@@QAAJK@Z 10053568 f i ole32_ALL:fat.obj
 0001:0005257c       ?SetDirStart@CMSFHeader@@QAAJK@Z 1005357c f i ole32_ALL:fat.obj
 0001:00052590       ?SetMiniFatStart@CMSFHeader@@QAAJK@Z 10053590 f i ole32_ALL:fat.obj
 0001:000525a4       ?GetSect@CFatSect@@QBAKG@Z 100535a4 f i ole32_ALL:fat.obj
 0001:000525ac       ?SetSect@CFatSect@@QAAXGK@Z 100535ac f i ole32_ALL:fat.obj
 0001:000525b4       ??0CFatVector@@QAA@K@Z     100535b4 f i ole32_ALL:fat.obj
 0001:000525c8       ?SectToPair@CFat@@ABAXKPAKPAG@Z 100535c8 f i ole32_ALL:fat.obj
 0001:000525e8       ?PairToSect@CFat@@ABAKKG@Z 100535e8 f i ole32_ALL:fat.obj
 0001:000525f4       ?CacheUnmarkedSect@CDIFat@@QAAXKKK@Z 100535f4 f i ole32_ALL:fat.obj
 0001:00052630       ?IsScratch@CMStream@@QBAHXZ 10053630 f i ole32_ALL:fat.obj
 0001:00052638       ?GetParentSize@CMStream@@QBAKXZ 10053638 f i ole32_ALL:fat.obj
 0001:00052640       ?GetBits@CPagedVector@@QAAPAUCVectBits@@K@Z 10053640 f i ole32_ALL:fat.obj
 0001:00052664       ?Init@CFatSect@@QAAJG@Z    10053664 f   ole32_ALL:fat.obj
 0001:0005267c       ??0CFat@@QAA@K@Z           1005367c f   ole32_ALL:fat.obj
 0001:000526c0       ??0CFat@@QAA@PAV0@@Z       100536c0 f   ole32_ALL:fat.obj
 0001:00052720       ?InitCopy@CFat@@QAAXPAV1@@Z 10053720 f   ole32_ALL:fat.obj
 0001:000527c8       ?Empty@CFat@@QAAXXZ        100537c8 f   ole32_ALL:fat.obj
 0001:00052804       ??1CFat@@QAA@XZ            10053804 f   ole32_ALL:fat.obj
 0001:00052808       ?InitGetFreeStruct@CFat@@AAAXPAUSGetFreeStruct@@@Z 10053808 f i ole32_ALL:fat.obj
 0001:00052820       ?ReleaseGetFreeStruct@CFat@@AAAXPAUSGetFreeStruct@@@Z 10053820 f i ole32_ALL:fat.obj
 0001:00052864       ?Init@CFat@@QAAJPAVCMStream@@KH@Z 10053864 f   ole32_ALL:fat.obj
 0001:000528f8       ?GetTable@CFatVector@@QAAJKKPAPAVCFatSect@@@Z 100538f8 f i ole32_ALL:fat.obj
 0001:00052944       ?GetNext@CFat@@QAAJKPAK@Z  10053944 f   ole32_ALL:fat.obj
 0001:000529dc       ?GetSect@CFat@@QAAJKKPAK@Z 100539dc f   ole32_ALL:fat.obj
 0001:00052aa0       ?FindLast@CFat@@QAAJPAK@Z  10053aa0 f   ole32_ALL:fat.obj
 0001:00052be4       ?FindMaxSect@CFat@@QAAJPAK@Z 10053be4 f   ole32_ALL:fat.obj
 0001:00052c5c       ?QueryRemapped@CFat@@QAAJK@Z 10053c5c f i ole32_ALL:fat.obj
 0001:00052cbc       ?IsFree@CFat@@AAAJK@Z      10053cbc f i ole32_ALL:fat.obj
 0001:00052db8       ?GetLength@CFat@@QAAJKPAK@Z 10053db8 f   ole32_ALL:fat.obj
 0001:00052e60       ?SetNext@CFat@@QAAJKK@Z    10053e60 f   ole32_ALL:fat.obj
 0001:00053038       ?CountFree@CFat@@AAAJPAK@Z 10054038 f   ole32_ALL:fat.obj
 0001:00053194       ?SetChainLength@CFat@@QAAJKK@Z 10054194 f   ole32_ALL:fat.obj
 0001:00053298       ?MarkSect@CFat@@AAAJPAUSGetFreeStruct@@@Z 10054298 f i ole32_ALL:fat.obj
 0001:00053538       ?InitNew@CFat@@QAAJPAVCMStream@@@Z 10054538 f   ole32_ALL:fat.obj
 0001:000536e4       ?Extend@CFat@@AAAJKK@Z     100546e4 f   ole32_ALL:fat.obj
 0001:0005377c       ?GetESect@CFat@@QAAJKKPAK@Z 1005477c f   ole32_ALL:fat.obj
 0001:00053804       ?Resize@CFat@@QAAJK@Z      10054804 f   ole32_ALL:fat.obj
 0001:00053c5c       ?InitScratch@CFat@@QAAJPAV1@H@Z 10054c5c f   ole32_ALL:fat.obj
 0001:00053e90       ?GetFree@CFat@@QAAJKPAKH@Z 10054e90 f   ole32_ALL:fat.obj
 0001:000541d0       ?GetFreeContig@CFat@@QAAJKPAUSSegment@@KPAK@Z 100551d0 f   ole32_ALL:fat.obj
 0001:00054528       ?Contig@CFat@@QAAJPAUSSegment@@HKKPAK@Z 10055528 f   ole32_ALL:fat.obj
 0001:0005475c       ?ReserveSects@CFat@@QAAJK@Z 1005575c f   ole32_ALL:fat.obj
 0001:000547c8       ?Remap@CFat@@QAAJKKKPAK000@Z 100557c8 f   ole32_ALL:fat.obj
 0001:00054a84       ?Allocate@CFat@@QAAJKPAK@Z 10055a84 f i ole32_ALL:fat.obj
 0001:00054a8c       ?InitConvert@CFat@@QAAJPAVCMStream@@K@Z 10055a8c f   ole32_ALL:fat.obj
 0001:00054e58       ?SetDirty@CMSFPage@@QAAXXZ 10055e58 f i ole32_ALL:vect.obj
 0001:00054e68       ?GetNewVectBits@CPagedVector@@AAAPAUCVectBits@@K@Z 10055e68 f i ole32_ALL:vect.obj
 0001:00054ec0       ?GetNewPageArray@CPagedVector@@AAAPAPM2pvDfSharedMemBase@@VCMSFPage@@K@Z 10055ec0 f i ole32_ALL:vect.obj
 0001:00054f00       ??1CPagedVector@@QAA@XZ    10055f00 f   ole32_ALL:vect.obj
 0001:00054f5c       ?Empty@CPagedVector@@QAAXXZ 10055f5c f   ole32_ALL:vect.obj
 0001:0005500c       ?Resize@CPagedVector@@QAAJK@Z 1005600c f   ole32_ALL:vect.obj
 0001:00055280       ?GetPageTable@CMStream@@QBAPAVCMSFPageTable@@XZ 10056280 f i ole32_ALL:vect.obj
 0001:000552a0       ?Init@CPagedVector@@QAAJPAVCMStream@@K@Z 100562a0 f   ole32_ALL:vect.obj
 0001:000553d4       ?GetTableWithSect@CPagedVector@@QAAJKKKPAPAX@Z 100563d4 f   ole32_ALL:vect.obj
 0001:0005560c       ?SetDirty@CPagedVector@@QAAJK@Z 1005660c f   ole32_ALL:vect.obj
 0001:00055770       ?InitCopy@CPagedVector@@QAAXPAV1@@Z 10056770 f   ole32_ALL:vect.obj
 0001:000558e0       ?SetDifStart@CMSFHeader@@QAAJK@Z 100568e0 f i ole32_ALL:difat.obj
 0001:000558f4       ?GetFatSect@CMSFHeader@@QBAKK@Z 100568f4 f i ole32_ALL:difat.obj
 0001:00055900       ?SetFatSect@CMSFHeader@@QAAJKK@Z 10056900 f i ole32_ALL:difat.obj
 0001:00055918       ?SetDifLength@CMSFHeader@@QAAJK@Z 10056918 f i ole32_ALL:difat.obj
 0001:0005592c       ?GetNextFat@CFatSect@@QBAKG@Z 1005692c f i ole32_ALL:difat.obj
 0001:00055934       ?SetNextFat@CFatSect@@QAAXGK@Z 10056934 f i ole32_ALL:difat.obj
 0001:0005593c       ?ResetUnmarkedSects@CFat@@QAAXXZ 1005693c f i ole32_ALL:difat.obj
 0001:00055948       ?SectToPair@CDIFat@@ABAXKPAKPAG@Z 10056948 f i ole32_ALL:difat.obj
 0001:000559a0       ?HasNoScratch@CMStream@@QBAHXZ 100569a0 f i ole32_ALL:difat.obj
 0001:000559b4       ??0CDIFat@@QAA@PAV0@@Z     100569b4 f   ole32_ALL:difat.obj
 0001:000559dc       ??0CDIFat@@QAA@XZ          100569dc f   ole32_ALL:difat.obj
 0001:00055a08       ?Empty@CDIFat@@QAAXXZ      10056a08 f   ole32_ALL:difat.obj
 0001:00055a24       ?GetFatSect@CDIFat@@QAAJKPAK@Z 10056a24 f   ole32_ALL:difat.obj
 0001:00055ae0       ?GetSect@CDIFat@@QAAJKPAK@Z 10056ae0 f   ole32_ALL:difat.obj
 0001:00055b90       ?Init@CDIFat@@QAAJPAVCMStream@@K@Z 10056b90 f   ole32_ALL:difat.obj
 0001:00055bf8       ?InitNew@CDIFat@@QAAJPAVCMStream@@@Z 10056bf8 f   ole32_ALL:difat.obj
 0001:00055c60       ?InitConvert@CDIFat@@QAAJPAVCMStream@@K@Z 10056c60 f   ole32_ALL:difat.obj
 0001:00055e0c       ?RemapSelf@CDIFat@@QAAJXZ  10056e0c f   ole32_ALL:difat.obj
 0001:00055ff4       ?Resize@CDIFat@@AAAJK@Z    10056ff4 f   ole32_ALL:difat.obj
 0001:00056188       ?Lookup@CDIFat@@QAAJKPAK@Z 10057188 f   ole32_ALL:difat.obj
 0001:000563a4       ?Fixup@CDIFat@@QAAJPAVCMStream@@@Z 100573a4 f   ole32_ALL:difat.obj
 0001:00056ae8       ?SetFatSect@CDIFat@@QAAJKK@Z 10057ae8 f   ole32_ALL:difat.obj
 0001:00056bc4       ?Remap@CDIFat@@QAAJKPAK@Z  10057bc4 f   ole32_ALL:difat.obj
 0001:00056c94       ?GetDirLength@CDirectory@@QBAKXZ 10057c94 f i ole32_ALL:cache.obj
 0001:00056c9c       ?SegStart@@YAKUSSegment@@@Z 10057c9c f i ole32_ALL:cache.obj
 0001:00056cb0       ?SegEnd@@YAKUSSegment@@@Z  10057cb0 f i ole32_ALL:cache.obj
 0001:00056cc8       ?SegLength@@YAKUSSegment@@@Z 10057cc8 f i ole32_ALL:cache.obj
 0001:00056cdc       ?SegStartOffset@@YAKUSSegment@@@Z 10057cdc f i ole32_ALL:cache.obj
 0001:00056cec       ?SegEndOffset@@YAKUSSegment@@@Z 10057cec f i ole32_ALL:cache.obj
 0001:00056d04       ??0SCacheEntry@@QAA@XZ     10057d04 f i ole32_ALL:cache.obj
 0001:00056d20       ?GetSize@CMStream@@QAAJKPAK@Z 10057d20 f i ole32_ALL:cache.obj
 0001:00056d64       ?CacheStart@@YAKUSCacheEntry@@@Z 10057d64 f i ole32_ALL:cache.obj
 0001:00056d78       ?CacheEnd@@YAKUSCacheEntry@@@Z 10057d78 f i ole32_ALL:cache.obj
 0001:00056d90       ?CacheStartOffset@@YAKUSCacheEntry@@@Z 10057d90 f i ole32_ALL:cache.obj
 0001:00056da0       ?CacheEndOffset@@YAKUSCacheEntry@@@Z 10057da0 f i ole32_ALL:cache.obj
 0001:00056db8       ?CheckSegment@CStreamCache@@AAAHKUSCacheEntry@@PAK11@Z 10057db8 f i ole32_ALL:cache.obj
 0001:00056e90       ?GetDir@CStreamCache@@AAAPAVCDirectory@@XZ 10057e90 f i ole32_ALL:cache.obj
 0001:00056ea8       ?GetFat@CStreamCache@@AAAPAVCFat@@XZ 10057ea8 f i ole32_ALL:cache.obj
 0001:00056ec0       ?GetMiniFat@CStreamCache@@AAAPAVCFat@@XZ 10057ec0 f i ole32_ALL:cache.obj
 0001:00056ed8       ?GetSize@CStreamCache@@AAAKXZ 10057ed8 f i ole32_ALL:cache.obj
 0001:00056f34       ?GetSid@CStreamCache@@AAAKXZ 10057f34 f i ole32_ALL:cache.obj
 0001:00056f3c       ?SelectFat@CStreamCache@@AAAPAVCFat@@XZ 10057f3c f i ole32_ALL:cache.obj
 0001:00056f80       ?CacheSegment@CStreamCache@@AAAXPAUSSegment@@@Z 10057f80 f   ole32_ALL:cache.obj
 0001:00057014       ?GetStart@CStreamCache@@AAAJPAK@Z 10058014 f   ole32_ALL:cache.obj
 0001:00057070       ??0CStreamCache@@QAA@XZ    10058070 f   ole32_ALL:cache.obj
 0001:000570b4       ??1CStreamCache@@QAA@XZ    100580b4 f   ole32_ALL:cache.obj
 0001:000570b8       ?Empty@CStreamCache@@QAAXXZ 100580b8 f   ole32_ALL:cache.obj
 0001:00057110       ?GetSect@CStreamCache@@QAAJKPAK@Z 10058110 f   ole32_ALL:cache.obj
 0001:000572e0       ?GetESect@CStreamCache@@QAAJKPAK@Z 100582e0 f   ole32_ALL:cache.obj
 0001:00057590       ?EmptyRegion@CStreamCache@@QAAJKK@Z 10058590 f   ole32_ALL:cache.obj
 0001:00057670       ?Contig@CStreamCache@@QAAJKHPAUSSegment@@KPAK@Z 10058670 f   ole32_ALL:cache.obj
 0001:00057828       ?Allocate@CStreamCache@@QAAJPAVCFat@@KPAK@Z 10058828 f   ole32_ALL:cache.obj
 0001:0005793c       ?Init@CStreamCache@@QAAXPAVCMStream@@KPAVCDirectStream@@@Z 1005893c f   ole32_ALL:cache.obj
 0001:00057988       ?GetEntrySize@CMStream@@QAAJKPAK@Z 10058988 f i ole32_ALL:sstream.obj
 0001:00057990       ?GetSize@CStmHandle@@QAAJPAK@Z 10058990 f i ole32_ALL:sstream.obj
 0001:000579b8       ??0PSStream@@IAA@K@Z       100589b8 f i ole32_ALL:sstream.obj
 0001:000579dc       ?GetSectorMask@CMStream@@QBAGXZ 100589dc f i ole32_ALL:sstream.obj
 0001:000579e8       ?GetMiniStream@CMStream@@QBAPAVCDirectStream@@XZ 100589e8 f i ole32_ALL:sstream.obj
 0001:00057a08       ?GetDataILB@CDeltaList@@QAAPAUILockBytes@@XZ 10058a08 f i ole32_ALL:sstream.obj
 0001:00057a28       ?GetDataSectorSize@CDeltaList@@QAAGXZ 10058a28 f i ole32_ALL:sstream.obj
 0001:00057a48       ?GetDataSectorShift@CDeltaList@@QAAGXZ 10058a48 f i ole32_ALL:sstream.obj
 0001:00057a68       ?IsNoScratch@CDeltaList@@QAAHXZ 10058a68 f i ole32_ALL:sstream.obj
 0001:00057a7c       ?IsEmpty@CDeltaList@@QAAHXZ 10058a7c f i ole32_ALL:sstream.obj
 0001:00057a98       ?SetMiniSize@CMStream@@QAAJXZ 10058a98 f i ole32_ALL:sstream.obj
 0001:00057adc       ??0CStmHandle@@QAA@XZ      10058adc f i ole32_ALL:sstream.obj
 0001:00057af0       ??1CDirectStream@@QAA@XZ   10058af0 f   ole32_ALL:sstream.obj
 0001:00057b00       ?InitSystem@CDirectStream@@QAAXPAVCMStream@@KK@Z 10058b00 f   ole32_ALL:sstream.obj
 0001:00057b4c       ?Init@CDirectStream@@QAAJPAVCStgHandle@@PBVCDfName@@H@Z 10058b4c f   ole32_ALL:sstream.obj
 0001:00057be4       ?ReadAt@CDirectStream@@UAAJKPAXKPAK@Z 10058be4 f   ole32_ALL:sstream.obj
 0001:00057ec0       ?WriteAt@CDirectStream@@UAAJKPBXKPAK@Z 10058ec0 f   ole32_ALL:sstream.obj
 0001:00057fd4       ?SetSize@CDirectStream@@UAAJK@Z 10058fd4 f   ole32_ALL:sstream.obj
 0001:000583f4       ?BeginCommitFromChild@CDirectStream@@UAAJKPAVCDeltaList@@PAVCTransactedStream@@@Z 100593f4 f   ole32_ALL:sstream.obj
 0001:00058a40       ?EndCommitFromChild@CDirectStream@@UAAXKPAVCTransactedStream@@@Z 10059a40 f   ole32_ALL:sstream.obj
 0001:00058a68       ?AddRef@CDirectStream@@UAAXXZ 10059a68 f   ole32_ALL:sstream.obj
 0001:00058a78       ?GetSize@CDirectStream@@UAAXPAK@Z 10059a78 f   ole32_ALL:sstream.obj
 0001:00058a84       ?GetDeltaList@CDirectStream@@UAAPAVCDeltaList@@XZ 10059a84 f   ole32_ALL:sstream.obj
 0001:00058a8c       ??0CDirectStream@@QAA@K@Z  10059a8c f   ole32_ALL:sstream.obj
 0001:00058ac8       ?Release@CDirectStream@@UAAXXZ 10059ac8 f   ole32_ALL:sstream.obj
 0001:00058ae4       ?DeleteContents@CWrappedDocFile@@UAAJXZ 10059ae4 f   ole32_ALL:wdffuncs.obj
 0001:00058af0       ?SetInitialState@CWrappedDocFile@@AAAJPAVPDocFile@@@Z 10059af0 f   ole32_ALL:wdffuncs.obj
 0001:00058bc0       ?RevertUpdate@CWrappedDocFile@@AAAXPAVCUpdate@@@Z 10059bc0 f   ole32_ALL:wdffuncs.obj
 0001:00058c88       ??1CUpdate@@QAA@XZ         10059c88 f   ole32_ALL:ulist.obj
 0001:00058cb8       ??0CUpdate@@QAA@PBVCDfName@@0KKPAVPTSetMember@@@Z 10059cb8 f   ole32_ALL:ulist.obj
 0001:00058d60       ?Append@CUpdateList@@QAAXPAVCUpdate@@@Z 10059d60 f   ole32_ALL:ulist.obj
 0001:00058df0       ?Remove@CUpdateList@@QAAXPAVCUpdate@@@Z 10059df0 f   ole32_ALL:ulist.obj
 0001:00058ecc       ?Empty@CUpdateList@@QAAXXZ 10059ecc f   ole32_ALL:ulist.obj
 0001:00058f4c       ?IsEntry@CUpdateList@@QAA?AW4UlIsEntry@@PBVCDfName@@PAPAVCUpdate@@@Z 10059f4c f   ole32_ALL:ulist.obj
 0001:00058fd0       ?FindBase@CUpdateList@@SAPAVCUpdate@@PAV2@PAPBVCDfName@@@Z 10059fd0 f   ole32_ALL:ulist.obj
 0001:00059064       ?Add@CUpdateList@@QAAPAVCUpdate@@QAUIMalloc@@PBVCDfName@@1KKPAVPTSetMember@@@Z 1005a064 f   ole32_ALL:ulist.obj
 0001:000590d0       ?BeginCommit@CWrappedDocFile@@UAAJK@Z 1005a0d0 f   ole32_ALL:wdfxact.obj
 0001:00059114       ?SetBase@CWrappedDocFile@@QAAJPAVPDocFile@@@Z 1005a114 f   ole32_ALL:wdfxact.obj
 0001:000591bc       ??_GCTransactedStream@@QAAPAXI@Z 1005a1bc f i ole32_ALL:wdfxact.obj
 0001:000591e0       ?EndCommit@CWrappedDocFile@@UAAXK@Z 1005a1e0 f   ole32_ALL:wdfxact.obj
 0001:00059238       ?Revert@CWrappedDocFile@@UAAXXZ 1005a238 f   ole32_ALL:wdfxact.obj
 0001:000592a8       ?BeginCommitFromChild@CWrappedDocFile@@UAAJAAVCUpdateList@@KPAV1@@Z 1005a2a8 f   ole32_ALL:wdfxact.obj
 0001:000593f0       ?GetCommitInfo@CWrappedDocFile@@UAAXPAK0@Z 1005a3f0 f   ole32_ALL:wdfxact.obj
 0001:0005942c       ?ReturnDocFile@CWrappedDocFile@@QAAXPAV1@@Z 1005a42c f i ole32_ALL:wdfxact.obj
 0001:000594b0       ?ReturnStream@CWrappedDocFile@@QAAXPAVCTransactedStream@@@Z 1005a4b0 f i ole32_ALL:wdfxact.obj
 0001:0005953c       ?EndCommitFromChild@CWrappedDocFile@@UAAXKPAV1@@Z 1005a53c f   ole32_ALL:wdfxact.obj
 0001:000599b0       ?GetReservedStream@CWrappedDocFile@@QAAPAVCTransactedStream@@PBVCDfName@@KK@Z 1005a9b0 f i ole32_ALL:wdfstrm.obj
 0001:00059a50       ?GetStream@CWrappedDocFile@@UAAJPBVCDfName@@KPAPAVPSStream@@@Z 1005aa50 f   ole32_ALL:wdfstrm.obj
 0001:00059c40       ?CreateStream@CWrappedDocFile@@UAAJPBVCDfName@@KKPAPAVPSStream@@@Z 1005ac40 f   ole32_ALL:wdfstrm.obj
 0001:00059dc0       ?FindGreaterEntry@CWrappedDocFile@@UAAJPBVCDfName@@PAUSIterBuffer@@PAUtagSTATSTG@@@Z 1005adc0 f   ole32_ALL:wdfiter.obj
 0001:0005a0b0       ?StatEntry@CWrappedDocFile@@UAAJPBVCDfName@@PAUSIterBuffer@@PAUtagSTATSTG@@@Z 1005b0b0 f   ole32_ALL:wdfiter.obj
 0001:0005a224       ?SetLeftSib@CDirEntry@@QAAXK@Z 1005b224 f i ole32_ALL:dirp.obj
 0001:0005a248       ?SetRightSib@CDirEntry@@QAAXK@Z 1005b248 f i ole32_ALL:dirp.obj
 0001:0005a26c       ?SetBitFlags@CDirEntry@@AAAXEE@Z 1005b26c f i ole32_ALL:dirp.obj
 0001:0005a284       ?SetColor@CDirEntry@@QAAXW4DECOLOR@@@Z 1005b284 f i ole32_ALL:dirp.obj
 0001:0005a290       ?GetBitFlags@CDirEntry@@ABAEXZ 1005b290 f i ole32_ALL:dirp.obj
 0001:0005a298       ?GetColor@CDirEntry@@QBA?AW4DECOLOR@@XZ 1005b298 f i ole32_ALL:dirp.obj
 0001:0005a2a8       ?NameCompare@CDirectory@@SAHPBVCDfName@@0@Z 1005b2a8 f   ole32_ALL:dirp.obj
 0001:0005a2fc       ?SetColorBlack@CDirectory@@AAAJK@Z 1005b2fc f   ole32_ALL:dirp.obj
 0001:0005a344       ?RotateEntry@CDirectory@@AAAJPBVCDfName@@KKPAK@Z 1005b344 f   ole32_ALL:dirp.obj
 0001:0005a508       ?FindEntry@CDirectory@@AAAJKPBVCDfName@@W4DIRENTRYOP@@PAUSEntryBuffer@@@Z 1005b508 f   ole32_ALL:dirp.obj
 0001:0005a8c4       ?SplitEntry@CDirectory@@AAAJPBVCDfName@@KKKKKPAK@Z 1005b8c4 f   ole32_ALL:dirp.obj
 0001:0005aad4       ?InsertEntry@CDirectory@@AAAJKKPBVCDfName@@@Z 1005bad4 f   ole32_ALL:dirp.obj
 0001:0005adb8       ?SetClean@CTransactedStream@@QAAXXZ 1005bdb8 f i ole32_ALL:tstream.obj
 0001:0005adc4       ??1CTransactedStream@@QAA@XZ 1005bdc4 f   ole32_ALL:tstream.obj
 0001:0005ae1c       ?BeginCommitFromChild@CTransactedStream@@UAAJKPAVCDeltaList@@PAV1@@Z 1005be1c f   ole32_ALL:tstream.obj
 0001:0005ae68       ?EndCommitFromChild@CTransactedStream@@UAAXKPAV1@@Z 1005be68 f   ole32_ALL:tstream.obj
 0001:0005aeb8       ?BeginCommit@CTransactedStream@@UAAJK@Z 1005beb8 f   ole32_ALL:tstream.obj
 0001:0005aef8       ?EndCommit@CTransactedStream@@UAAXK@Z 1005bef8 f   ole32_ALL:tstream.obj
 0001:0005af5c       ?SetBase@CTransactedStream@@QAAJPAVPSStream@@@Z 1005bf5c f   ole32_ALL:tstream.obj
 0001:0005afa8       ?AddRef@CTransactedStream@@UAAXXZ 1005bfa8 f   ole32_ALL:tstream.obj
 0001:0005afb8       ?GetCommitInfo@CTransactedStream@@UAAXPAK0@Z 1005bfb8 f   ole32_ALL:tstream.obj
 0001:0005b008       ?GetSize@CTransactedStream@@UAAXPAK@Z 1005c008 f   ole32_ALL:tstream.obj
 0001:0005b014       ?SetInitialState@CTransactedStream@@AAAJPAVPSStream@@@Z 1005c014 f   ole32_ALL:tstream.obj
 0001:0005b048       ?GetDeltaList@CTransactedStream@@UAAPAVCDeltaList@@XZ 1005c048 f   ole32_ALL:tstream.obj
 0001:0005b0a4       ?AddRef@CTransactedStream@@W7AAXXZ 1005c0a4 f i ole32_ALL:tstream.obj
 0001:0005b0ac       ??0CTransactedStream@@QAA@PBVCDfName@@KKPAVCMStream@@1@Z 1005c0ac f   ole32_ALL:tstream.obj
 0001:0005b120       ?Init@CTransactedStream@@QAAJPAVPSStream@@@Z 1005c120 f   ole32_ALL:tstream.obj
 0001:0005b174       ?ReadAt@CTransactedStream@@UAAJKPAXKPAK@Z 1005c174 f   ole32_ALL:tstream.obj
 0001:0005b4f0       ?SetSize@CTransactedStream@@UAAJK@Z 1005c4f0 f   ole32_ALL:tstream.obj
 0001:0005b6dc       ?Revert@CTransactedStream@@UAAXXZ 1005c6dc f   ole32_ALL:tstream.obj
 0001:0005b724       ?Release@CTransactedStream@@UAAXXZ 1005c724 f   ole32_ALL:tstream.obj
 0001:0005b740       ?PartialWrite@CTransactedStream@@AAAJKKPBEGG@Z 1005c740 f   ole32_ALL:tstream.obj
 0001:0005b85c       ?Release@CTransactedStream@@W7AAXXZ 1005c85c f i ole32_ALL:tstream.obj
 0001:0005b864       ?WriteAt@CTransactedStream@@UAAJKPBXKPAK@Z 1005c864 f   ole32_ALL:tstream.obj
 0001:0005bda4       ?vRelease@CSeekPointer@@QAAXXZ 1005cda4 f   ole32_ALL:seekptr.obj
 0001:0005bdcc       ?hRelease@PExposedIterator@@QAAJXZ 1005cdcc f   ole32_ALL:peiter.obj
 0001:0005be38       ?hQueryInterface@PExposedIterator@@QAAJABU_GUID@@0PAUIUnknown@@PAPAX@Z 1005ce38 f   ole32_ALL:peiter.obj
 0001:0005bed8       ?hSkip@PExposedIterator@@QAAJKH@Z 1005ced8 f   ole32_ALL:peiter.obj
 0001:0005c024       ?hReset@PExposedIterator@@QAAJXZ 1005d024 f   ole32_ALL:peiter.obj
 0001:0005c0cc       ??1CPtrCache@@QAA@XZ       1005d0cc f   ole32_ALL:ptrcache.obj
 0001:0005c0fc       ?Add@CPtrCache@@QAAJPAX@Z  1005d0fc f   ole32_ALL:ptrcache.obj
 0001:0005c16c       ?Next@CPtrCache@@QAAHPAPAX@Z 1005d16c f   ole32_ALL:ptrcache.obj
 0001:0005c1bc       ?IsOwned@SDeltaBlock@@QAA?BHG@Z 1005d1bc f i ole32_ALL:dl.obj
 0001:0005c1f0       ?MakeOwned@SDeltaBlock@@QAAXG@Z 1005d1f0 f i ole32_ALL:dl.obj
 0001:0005c220       ?GetControlILB@CDeltaList@@QAAPAUILockBytes@@XZ 1005d220 f i ole32_ALL:dl.obj
 0001:0005c238       ?GetDataFat@CDeltaList@@QAAPAVCFat@@XZ 1005d238 f i ole32_ALL:dl.obj
 0001:0005c25c       ?GetControlFat@CDeltaList@@QAAPAVCFat@@XZ 1005d25c f i ole32_ALL:dl.obj
 0001:0005c274       ?GetControlSectorSize@CDeltaList@@QAAGXZ 1005d274 f i ole32_ALL:dl.obj
 0001:0005c28c       ?IsInMemory@CDeltaList@@QAAHXZ 1005d28c f i ole32_ALL:dl.obj
 0001:0005c2a0       ?IsInStream@CDeltaList@@QAAHXZ 1005d2a0 f i ole32_ALL:dl.obj
 0001:0005c2c4       ??2SDeltaBlock@@SAPAXIQAUIMalloc@@@Z 1005d2c4 f i ole32_ALL:dl.obj
 0001:0005c2e4       ??0SDeltaBlock@@QAA@XZ     1005d2e4 f i ole32_ALL:dl.obj
 0001:0005c338       ??0CDeltaList@@QAA@PAVCMStream@@0@Z 1005d338 f   ole32_ALL:dl.obj
 0001:0005c388       ?GetNewDeltaArray@CDeltaList@@AAAPAPM2pvDfSharedMemBase@@USDeltaBlock@@K@Z 1005d388 f i ole32_ALL:dl.obj
 0001:0005c3c8       ?ReleaseBlock@CDeltaList@@AAAXK@Z 1005d3c8 f   ole32_ALL:dl.obj
 0001:0005c4b0       ?BeginCommit@CDeltaList@@QAAXPAVCTransactedStream@@@Z 1005d4b0 f   ole32_ALL:dl.obj
 0001:0005c4d4       ?FindOffset@CDeltaList@@AAAJPAKKPAT_ULARGE_INTEGER@@H@Z 1005d4d4 f   ole32_ALL:dl.obj
 0001:0005c5b4       ?ReadMap@CDeltaList@@AAAJPAKK0@Z 1005d5b4 f   ole32_ALL:dl.obj
 0001:0005c644       ?WriteMap@CDeltaList@@AAAJPAKKK@Z 1005d644 f   ole32_ALL:dl.obj
 0001:0005c6dc       ?InitStreamBlock@CDeltaList@@AAAJK@Z 1005d6dc f   ole32_ALL:dl.obj
 0001:0005c720       ?DumpList@CDeltaList@@AAAJXZ 1005d720 f   ole32_ALL:dl.obj
 0001:0005c838       ?InitResize@CDeltaList@@QAAJK@Z 1005d838 f   ole32_ALL:dl.obj
 0001:0005ca28       ?GetMap@CDeltaList@@QAAJKKPAK@Z 1005da28 f   ole32_ALL:dl.obj
 0001:0005cd3c       ?EndCommit@CDeltaList@@QAAXPAV1@K@Z 1005dd3c f   ole32_ALL:dl.obj
 0001:0005d014       ?IsOwned@CDeltaList@@QAAJKKPAH@Z 1005e014 f   ole32_ALL:dl.obj
 0001:0005d0b8       ?Init@CDeltaList@@QAAJKPAVCTransactedStream@@@Z 1005e0b8 f   ole32_ALL:dl.obj
 0001:0005d3bc       ?FreeStream@CDeltaList@@AAAXKK@Z 1005e3bc f   ole32_ALL:dl.obj
 0001:0005d4b8       ?Empty@CDeltaList@@QAAXXZ  1005e4b8 f   ole32_ALL:dl.obj
 0001:0005d588       ??1CDeltaList@@QAA@XZ      1005e588 f   ole32_ALL:dl.obj
 0001:0005d58c       ?Stat@PTSetMember@@QAAJPAUtagSTATSTG@@K@Z 1005e58c f   ole32_ALL:tset.obj
 0001:0005d6bc       TlsGetValue                1005e6bc f   coredll:COREDLL.dll
 0001:0005d6cc       LeaveCriticalSection       1005e6cc f   coredll:COREDLL.dll
 0001:0005d6dc       IsBadWritePtr              1005e6dc f   coredll:COREDLL.dll
 0001:0005d6ec       SystemParametersInfoW      1005e6ec f   coredll:COREDLL.dll
 0001:0005d6fc       FreeLibrary                1005e6fc f   coredll:COREDLL.dll
 0001:0005d70c       IsProcessDying             1005e70c f   coredll:COREDLL.dll
 0001:0005d71c       LoadLibraryW               1005e71c f   coredll:COREDLL.dll
 0001:0005d72c       IsBadReadPtr               1005e72c f   coredll:COREDLL.dll
 0001:0005d73c       InitializeCriticalSection  1005e73c f   coredll:COREDLL.dll
 0001:0005d74c       DeleteCriticalSection      1005e74c f   coredll:COREDLL.dll
 0001:0005d75c       RegCloseKey                1005e75c f   coredll:COREDLL.dll
 0001:0005d76c       RegQueryValueExW           1005e76c f   coredll:COREDLL.dll
 0001:0005d77c       GetModuleFileNameW         1005e77c f   coredll:COREDLL.dll
 0001:0005d78c       RegOpenKeyExW              1005e78c f   coredll:COREDLL.dll
 0001:0005d79c       GetProcessVersion          1005e79c f   coredll:COREDLL.dll
 0001:0005d7ac       GetProcAddressW            1005e7ac f   coredll:COREDLL.dll
 0001:0005d7bc       GetFileAttributesW         1005e7bc f   coredll:COREDLL.dll
 0001:0005d7cc       RegCreateKeyExW            1005e7cc f   coredll:COREDLL.dll
 0001:0005d7dc       RegSetValueExW             1005e7dc f   coredll:COREDLL.dll
 0001:0005d7ec       RegDeleteKeyW              1005e7ec f   coredll:COREDLL.dll
 0001:0005d7fc       InterlockedIncrement       1005e7fc f   coredll:COREDLL.dll
 0001:0005d80c       GetUserNameExW             1005e80c f   coredll:COREDLL.dll
 0001:0005d81c       InterlockedDecrement       1005e81c f   coredll:COREDLL.dll
 0001:0005d82c       Sleep                      1005e82c f   coredll:COREDLL.dll
 0001:0005d83c       GetLastError               1005e83c f   coredll:COREDLL.dll
 0001:0005d84c       SystemTimeToFileTime       1005e84c f   coredll:COREDLL.dll
 0001:0005d85c       GetSystemTime              1005e85c f   coredll:COREDLL.dll
 0001:0005d86c       lstrcmpiW                  1005e86c f   coredll:COREDLL.dll
 0001:0005d87c       GetProcessHeap             1005e87c f   coredll:COREDLL.dll
 0001:0005d88c       HeapAlloc                  1005e88c f   coredll:COREDLL.dll
 0001:0005d89c       HeapValidate               1005e89c f   coredll:COREDLL.dll
 0001:0005d8ac       HeapFree                   1005e8ac f   coredll:COREDLL.dll
 0001:0005d8bc       HeapSize                   1005e8bc f   coredll:COREDLL.dll
 0001:0005d8cc       HeapReAlloc                1005e8cc f   coredll:COREDLL.dll
 0001:0005d8dc       __GetUserKData             1005e8dc f   coredll:COREDLL.dll
 0001:0005d8ec       CloseHandle                1005e8ec f   coredll:COREDLL.dll
 0001:0005d8fc       GetTickCount               1005e8fc f   coredll:COREDLL.dll
 0001:0005d90c       CreateEventW               1005e90c f   coredll:COREDLL.dll
 0001:0005d91c       PostQuitMessage            1005e91c f   coredll:COREDLL.dll
 0001:0005d92c       PeekMessageW               1005e92c f   coredll:COREDLL.dll
 0001:0005d93c       InSendMessage              1005e93c f   coredll:COREDLL.dll
 0001:0005d94c       DispatchMessageW           1005e94c f   coredll:COREDLL.dll
 0001:0005d95c       TranslateMessage           1005e95c f   coredll:COREDLL.dll
 0001:0005d96c       GetQueueStatus             1005e96c f   coredll:COREDLL.dll
 0001:0005d97c       MsgWaitForMultipleObjectsEx 1005e97c f   coredll:COREDLL.dll
 0001:0005d98c       WaitForSingleObject        1005e98c f   coredll:COREDLL.dll
 0001:0005d99c       InterlockedExchange        1005e99c f   coredll:COREDLL.dll
 0001:0005d9ac       LocalFree                  1005e9ac f   coredll:COREDLL.dll
 0001:0005d9bc       LocalReAlloc               1005e9bc f   coredll:COREDLL.dll
 0001:0005d9cc       EnterCriticalSection       1005e9cc f   coredll:COREDLL.dll
 0001:0005d9dc       LocalSize                  1005e9dc f   coredll:COREDLL.dll
 0001:0005d9ec       LocalAlloc                 1005e9ec f   coredll:COREDLL.dll
 0001:0005d9fc       EventModify                1005e9fc f   coredll:COREDLL.dll
 0001:0005da0c       GetUserDefaultLCID         1005ea0c f   coredll:COREDLL.dll
 0001:0005da1c       CreateFileW                1005ea1c f   coredll:COREDLL.dll
 0001:0005da2c       CharUpperW                 1005ea2c f   coredll:COREDLL.dll
 0001:0005da3c       GetFileAttributesExW       1005ea3c f   coredll:COREDLL.dll
 0001:0005da4c       WideCharToMultiByte        1005ea4c f   coredll:COREDLL.dll
 0001:0005da5c       IsDBCSLeadByte             1005ea5c f   coredll:COREDLL.dll
 0001:0005da6c       MultiByteToWideChar        1005ea6c f   coredll:COREDLL.dll
 0001:0005da7c       DeleteFileW                1005ea7c f   coredll:COREDLL.dll
 0001:0005da8c       DeleteObject               1005ea8c f   coredll:COREDLL.dll
 0001:0005da9c       StringCchPrintfW           1005ea9c f   coredll:COREDLL.dll
 0001:0005daac       ReadFile                   1005eaac f   coredll:COREDLL.dll
 0001:0005dabc       SetFilePointer             1005eabc f   coredll:COREDLL.dll
 0001:0005dacc       StringCchCopyW             1005eacc f   coredll:COREDLL.dll
 0001:0005dadc       SetFileTime                1005eadc f   coredll:COREDLL.dll
 0001:0005daec       GetClipboardFormatNameW    1005eaec f   coredll:COREDLL.dll
 0001:0005dafc       RegisterClipboardFormatW   1005eafc f   coredll:COREDLL.dll
 0001:0005db0c       GetPaletteEntries          1005eb0c f   coredll:COREDLL.dll
 0001:0005db1c       CreatePalette              1005eb1c f   coredll:COREDLL.dll
 0001:0005db2c       GetObjectType              1005eb2c f   coredll:COREDLL.dll
 0001:0005db3c       TlsCall                    1005eb3c f   coredll:COREDLL.dll
 0001:0005db4c       TlsSetValue                1005eb4c f   coredll:COREDLL.dll
 0001:0005db5c       GetMessageW                1005eb5c f   coredll:COREDLL.dll
 0001:0005db6c       PostThreadMessageW         1005eb6c f   coredll:COREDLL.dll
 0001:0005db7c       SendMessageW               1005eb7c f   coredll:COREDLL.dll
 0001:0005db8c       GetStringTypeW             1005eb8c f   coredll:COREDLL.dll
 0001:0005db9c       RegEnumKeyExW              1005eb9c f   coredll:COREDLL.dll
 0001:0005dbac       CharLowerW                 1005ebac f   coredll:COREDLL.dll
 0001:0005dbbc       DefWindowProcW             1005ebbc f   coredll:COREDLL.dll
 0001:0005dbcc       UnregisterClassW           1005ebcc f   coredll:COREDLL.dll
 0001:0005dbdc       DestroyWindow              1005ebdc f   coredll:COREDLL.dll
 0001:0005dbec       IsWindow                   1005ebec f   coredll:COREDLL.dll
 0001:0005dbfc       lstrcmpW                   1005ebfc f   coredll:COREDLL.dll
 0001:0005dc0c       CreateWindowExW            1005ec0c f   coredll:COREDLL.dll
 0001:0005dc1c       RegisterClassW             1005ec1c f   coredll:COREDLL.dll
 0001:0005dc2c       PostMessageW               1005ec2c f   coredll:COREDLL.dll
 0001:0005dc3c       SetLastError               1005ec3c f   coredll:COREDLL.dll
 0001:0005dc4c       SetWindowLongW             1005ec4c f   coredll:COREDLL.dll
 0001:0005dc5c       FindClose                  1005ec5c f   coredll:COREDLL.dll
 0001:0005dc6c       FindFirstFileW             1005ec6c f   coredll:COREDLL.dll
 0001:0005dc7c       CreateThread               1005ec7c f   coredll:COREDLL.dll
 0001:0005dc8c       RegDeleteValueW            1005ec8c f   coredll:COREDLL.dll
 0001:0005dc9c       RaiseException             1005ec9c f   coredll:COREDLL.dll
 0001:0005dcac       FreeLibraryAndExitThread   1005ecac f   coredll:COREDLL.dll
 0001:0005dcbc       UnmapViewOfFile            1005ecbc f   coredll:COREDLL.dll
 0001:0005dccc       MapViewOfFile              1005eccc f   coredll:COREDLL.dll
 0001:0005dcdc       CreateFileMappingW         1005ecdc f   coredll:COREDLL.dll
 0001:0005dcec       ReleaseMutex               1005ecec f   coredll:COREDLL.dll
 0001:0005dcfc       CreateMutexW               1005ecfc f   coredll:COREDLL.dll
 0001:0005dd0c       WriteFile                  1005ed0c f   coredll:COREDLL.dll
 0001:0005dd1c       FlushFileBuffers           1005ed1c f   coredll:COREDLL.dll
 0001:0005dd2c       SetEndOfFile               1005ed2c f   coredll:COREDLL.dll
 0001:0005dd3c       GetFileSize                1005ed3c f   coredll:COREDLL.dll
 0001:0005dd4c       GetFileTime                1005ed4c f   coredll:COREDLL.dll
 0001:0005dd5c       StringCbLengthW            1005ed5c f   coredll:COREDLL.dll
 0001:0005de64       _DllMainCRTStartup         1005ee64 f   corelib0:pegdmain.obj
 0001:0005de90       __GSHandlerCheckCommon     1005ee90 f   corelib0:gshandler.obj
 0001:0005decc       __GSHandlerCheck           1005eecc f   corelib0:gshandler.obj
 0001:0005deec       __security_init_cookie     1005eeec f   corelib0:seccinit.obj
 0001:0005df38       __security_check_cookie    1005ef38 f   corelib0:armsecgs.obj
 0001:0005df48       __gsfailure                1005ef48     corelib0:armsecgs.obj
 0001:0005df94       _onexit                    1005ef94 f   corelib0:onexit.obj
 0001:0005e118       atexit                     1005f118 f   corelib0:onexit.obj
 0001:0005e130       __GSHandlerCheck_SEH       1005f130 f   corelib0:gshandlerseh.obj
 0001:0005e264       _cexit                     1005f264 f   corelib0:cexit.obj
 0001:0005e274       _initterm                  1005f274 f   corelib0:crt0dat.obj
 0001:0005e2a0       _cinit                     1005f2a0 f   corelib0:crt0dat.obj
 0001:0005e300       __crt_ExitProcess          1005f300 f   corelib0:exitproc_proxy.obj
 0001:0005e30c       wcsrchr                    1005f30c f   corelib1:COREDLL.dll
 0001:0005e31c       _wcsicmp                   1005f31c f   corelib1:COREDLL.dll
 0001:0005e32c       wcslen                     1005f32c f   corelib1:COREDLL.dll
 0001:0005e33c       _wcsnicmp                  1005f33c f   corelib1:COREDLL.dll
 0001:0005e34c       memcpy                     1005f34c f   corelib1:COREDLL.dll
 0001:0005e35c       wcschr                     1005f35c f   corelib1:COREDLL.dll
 0001:0005e36c       memcmp                     1005f36c f   corelib1:COREDLL.dll
 0001:0005e37c       wcscpy                     1005f37c f   corelib1:COREDLL.dll
 0001:0005e38c       wcscat                     1005f38c f   corelib1:COREDLL.dll
 0001:0005e39c       memset                     1005f39c f   corelib1:COREDLL.dll
 0001:0005e3ac       __C_specific_handler       1005f3ac f   corelib1:COREDLL.dll
 0001:0005e3bc       memmove                    1005f3bc f   corelib1:COREDLL.dll
 0001:0005e3cc       wcscpy_s                   1005f3cc f   corelib1:COREDLL.dll
 0001:0005e3dc       wcstol                     1005f3dc f   corelib1:COREDLL.dll
 0001:0005e3ec       _ultow                     1005f3ec f   corelib1:COREDLL.dll
 0001:0005e3fc       _wtol                      1005f3fc f   corelib1:COREDLL.dll
 0001:0005e40c       strlen                     1005f40c f   corelib1:COREDLL.dll
 0001:0005e41c       wcsncat_s                  1005f41c f   corelib1:COREDLL.dll
 0001:0005e42c       wcsstr                     1005f42c f   corelib1:COREDLL.dll
 0001:0005e43c       iswctype                   1005f43c f   corelib1:COREDLL.dll
 0001:0005e44c       _XcptFilter                1005f44c f   corelib1:COREDLL.dll
 0001:0005e45c       __security_gen_cookie2     1005f45c f   corelib1:COREDLL.dll
 0001:0005e46c       __report_gsfailure         1005f46c f   corelib1:COREDLL.dll
 0001:0005e47c       free                       1005f47c f   corelib1:COREDLL.dll
 0001:0005e48c       malloc                     1005f48c f   corelib1:COREDLL.dll
 0001:0005e49c       realloc                    1005f49c f   corelib1:COREDLL.dll
 0001:0005e4ac       _msize                     1005f4ac f   corelib1:COREDLL.dll
 0001:0005e4bc       InterlockedCompareExchange 1005f4bc f   coredll:COREDLL.dll
 0001:0005e4cc       TerminateProcess           1005f4cc f   coredll:COREDLL.dll
 0001:0005ef88       __IMPORT_DESCRIPTOR_RPCRT4LEGACY 1005ff88     ole32_ALL:RPCRT4LEGACY.dll
 0001:0005ef9c       __IMPORT_DESCRIPTOR_COREDLL 1005ff9c     coredll:COREDLL.dll
 0001:0005efb0       __NULL_IMPORT_DESCRIPTOR   1005ffb0     ole32_ALL:RPCRT4LEGACY.dll
 0002:00000000       ?ServerExceptionFilter@@YAJPAU_EXCEPTION_POINTERS@@@Z 10062000 f   ole32_ALL:CHANNELB.obj
 0002:00000074       ?ByteSwapThis@@YAXKPATWireThis@@@Z 10062074 f   ole32_ALL:CHANNELB.obj
 0002:00000128       ?ByteSwapThat@@YAXKPATWireThat@@@Z 10062128 f   ole32_ALL:CHANNELB.obj
 0002:00000164       ?CleanupRegOIDs@@YAXPAUSHashChain@@@Z 10062164 f   ole32_ALL:CHANNELB.obj
 0002:0000016c       ?AddRef@CRpcChannelBuffer@@UAAKXZ 1006216c f   ole32_ALL:CHANNELB.obj
 0002:00000184       ?AppInvoke@CRpcChannelBuffer@@AAAJPAVCChannelCallInfo@@PAUIRpcStubBuffer@@PAX2PAULocalThis@@@Z 10062184 f   ole32_ALL:CHANNELB.obj
 0002:000003e0       ?StubInvoke@@YAJPAUtagRPCOLEMESSAGE@@PAUIRpcStubBuffer@@PAUIRpcChannelBuffer@@PAK@Z 100623e0 f   ole32_ALL:CHANNELB.obj
 0002:00000564       ?ComInvoke@@YAJPAVCChannelCallInfo@@@Z 10062564 f   ole32_ALL:CHANNELB.obj
 0002:000008e8       ?Copy@CRpcChannelBuffer@@QAAPAV1@PAUtagOXIDEntry@@ABU_GUID@@1@Z 100628e8 f   ole32_ALL:CHANNELB.obj
 0002:000009a0       ?InitClientSideHandle@CRpcChannelBuffer@@AAAJXZ 100629a0 f   ole32_ALL:CHANNELB.obj
 0002:00000a84       ?ServerGetBuffer@CRpcChannelBuffer@@AAAJPAUtagRPCOLEMESSAGE@@ABU_GUID@@@Z 10062a84 f   ole32_ALL:CHANNELB.obj
 0002:00000bc4       ?GetProtocolVersion@CRpcChannelBuffer@@UAAJPAK@Z 10062bc4 f   ole32_ALL:CHANNELB.obj
 0002:00000c50       ?GetDestCtx@CRpcChannelBuffer@@UAAJPAKPAPAX@Z 10062c50 f   ole32_ALL:CHANNELB.obj
 0002:00000c9c       ?IsConnected@CRpcChannelBuffer@@UAAJXZ 10062c9c f   ole32_ALL:CHANNELB.obj
 0002:00000ca4       ?QueryInterface@CRpcChannelBuffer@@UAAJABU_GUID@@PAPAX@Z 10062ca4 f   ole32_ALL:CHANNELB.obj
 0002:00000d94       DllDebugObjectRPCHook      10062d94 f   ole32_ALL:CHANNELB.obj
 0002:00000de4       ?LocalCall@@YAHXZ          10062de4 f   ole32_ALL:CHANNELB.obj
 0002:00000e10       ?ThreadInvoke@@YAXPAU_RPC_MESSAGE@@@Z 10062e10 f   ole32_ALL:CHANNELB.obj
 0002:0000112c       ?Cleanup@working_call@@SAXXZ 1006312c f   ole32_ALL:CHANNELB.obj
 0002:000011a8       ??3working_call@@SAXPAX@Z  100631a8 f   ole32_ALL:CHANNELB.obj
 0002:0000121c       ??2working_call@@SAPAXI@Z  1006321c f   ole32_ALL:CHANNELB.obj
 0002:00001274       ??0working_call@@QAA@W4tagCALLCATEGORY@@PAUtagRPCOLEMESSAGE@@KABU_GUID@@KUtagCOMVERSION@@PAVCRpcChannelBuffer@@K@Z 10063274 f   ole32_ALL:CHANNELB.obj
 0002:000012d8       ChannelProcessUninitialize 100632d8 f   ole32_ALL:CHANNELB.obj
 0002:00001470       ChannelThreadUninitialize  10063470 f   ole32_ALL:CHANNELB.obj
 0002:00001520       ?FreeBuffer@CRpcChannelBuffer@@UAAJPAUtagRPCOLEMESSAGE@@@Z 10063520 f   ole32_ALL:CHANNELB.obj
 0002:000015a0       ?ClientGetBuffer@CRpcChannelBuffer@@IAAJPAUtagRPCOLEMESSAGE@@ABU_GUID@@@Z 100635a0 f   ole32_ALL:CHANNELB.obj
 0002:00001ab8       ?Release@CRpcChannelBuffer@@UAAKXZ 10063ab8 f   ole32_ALL:CHANNELB.obj
 0002:00001aec       ?ThreadSendReceive@@YAJPAVCChannelCallInfo@@@Z 10063aec f   ole32_ALL:CHANNELB.obj
 0002:00001c5c       ChannelProcessInitialize   10063c5c f   ole32_ALL:CHANNELB.obj
 0002:00001d5c       STAChannelInitialize       10063d5c f   ole32_ALL:CHANNELB.obj
 0002:00001e2c       MTAChannelInitialize       10063e2c f   ole32_ALL:CHANNELB.obj
 0002:00001f0c       ?InitChannelIfNecessary@@YAJXZ 10063f0c f   ole32_ALL:CHANNELB.obj
 0002:00001fc4       ?MakeAsyncCopy@@YAPAVCChannelCallInfo@@PAV1@@Z 10063fc4 f   ole32_ALL:CHANNELB.obj
 0002:0000217c       ?GetBuffer@CRpcChannelBuffer@@UAAJPAUtagRPCOLEMESSAGE@@ABU_GUID@@@Z 1006417c f   ole32_ALL:CHANNELB.obj
 0002:00002194       ?SendReceive2@CRpcChannelBuffer@@UAAJPAUtagRPCOLEMESSAGE@@PAK@Z 10064194 f   ole32_ALL:CHANNELB.obj
 0002:000025ec       ??0CRpcChannelBuffer@@QAA@PAVCStdIdentity@@PAUtagOXIDEntry@@K@Z 100645ec f   ole32_ALL:CHANNELB.obj
 0002:00002740       ?SendReceive@CRpcChannelBuffer@@UAAJPAUtagRPCOLEMESSAGE@@PAK@Z 10064740 f   ole32_ALL:CHANNELB.obj
 0002:00002744       ??1CPunkForRelease@@AAA@XZ 10064744 f i ole32_ALL:transmit.obj
 0002:00002794       ?AddRef@CPunkForRelease@@UAAKXZ 10064794 f   ole32_ALL:transmit.obj
 0002:000027ac       ?QueryInterface@CPunkForRelease@@UAAJABU_GUID@@PAPAX@Z 100647ac f   ole32_ALL:transmit.obj
 0002:00002808       ?AddRef@CStreamOnMessage@@UAAKXZ 10064808 f   ole32_ALL:transmit.obj
 0002:0000281c       ?Clone@CStreamOnMessage@@UAAJPAPAUIStream@@@Z 1006481c f   ole32_ALL:transmit.obj
 0002:00002828       ?Commit@CStreamOnMessage@@UAAJK@Z 10064828 f   ole32_ALL:transmit.obj
 0002:00002834       ?CopyTo@CStreamOnMessage@@UAAJPAUIStream@@T_ULARGE_INTEGER@@PAT3@2@Z 10064834 f   ole32_ALL:transmit.obj
 0002:0000284c       ?LockRegion@CStreamOnMessage@@UAAJT_ULARGE_INTEGER@@0K@Z 1006484c f   ole32_ALL:transmit.obj
 0002:00002864       ?QueryInterface@CStreamOnMessage@@UAAJABU_GUID@@PAPAX@Z 10064864 f   ole32_ALL:transmit.obj
 0002:000028d0       ?Read@CStreamOnMessage@@UAAJPAXKPAK@Z 100648d0 f   ole32_ALL:transmit.obj
 0002:00002910       ?Release@CStreamOnMessage@@UAAKXZ 10064910 f   ole32_ALL:transmit.obj
 0002:00002938       ?Revert@CStreamOnMessage@@UAAJXZ 10064938 f   ole32_ALL:transmit.obj
 0002:00002944       ?Seek@CStreamOnMessage@@UAAJT_LARGE_INTEGER@@KPAT_ULARGE_INTEGER@@@Z 10064944 f   ole32_ALL:transmit.obj
 0002:000029e0       ?SetSize@CStreamOnMessage@@UAAJT_ULARGE_INTEGER@@@Z 100649e0 f   ole32_ALL:transmit.obj
 0002:000029f8       ?Stat@CStreamOnMessage@@UAAJPAUtagSTATSTG@@K@Z 100649f8 f   ole32_ALL:transmit.obj
 0002:00002a04       ?UnlockRegion@CStreamOnMessage@@UAAJT_ULARGE_INTEGER@@0K@Z 10064a04 f   ole32_ALL:transmit.obj
 0002:00002a1c       ?Write@CStreamOnMessage@@UAAJPBXKPAK@Z 10064a1c f   ole32_ALL:transmit.obj
 0002:00002a60       CLIPFORMAT_UserSize        10064a60 f   ole32_ALL:transmit.obj
 0002:00002afc       CLIPFORMAT_UserMarshal     10064afc f   ole32_ALL:transmit.obj
 0002:00002bac       CLIPFORMAT_UserUnmarshal   10064bac f   ole32_ALL:transmit.obj
 0002:00002c08       CLIPFORMAT_UserFree        10064c08 f   ole32_ALL:transmit.obj
 0002:00002c0c       SNB_UserSize               10064c0c f   ole32_ALL:transmit.obj
 0002:00002c7c       SNB_UserMarshal            10064c7c f   ole32_ALL:transmit.obj
 0002:00002d48       SNB_UserUnmarshal          10064d48 f   ole32_ALL:transmit.obj
 0002:00002e18       SNB_UserFree               10064e18 f   ole32_ALL:transmit.obj
 0002:00002e3c       ?WdtpRemotableHandle_UserSize@@YAKPAKK0@Z 10064e3c f   ole32_ALL:transmit.obj
 0002:00002e80       ?WdtpRemotableHandle_UserMarshal@@YAPAEPAKPAE0@Z 10064e80 f   ole32_ALL:transmit.obj
 0002:00002ed4       HWND_UserSize              10064ed4 f   ole32_ALL:transmit.obj
 0002:00002ed8       HWND_UserMarshal           10064ed8 f   ole32_ALL:transmit.obj
 0002:00002edc       HWND_UserUnmarshal         10064edc f   ole32_ALL:transmit.obj
 0002:00002f10       HWND_UserFree              10064f10 f   ole32_ALL:transmit.obj
 0002:00002f14       HMENU_UserSize             10064f14 f   ole32_ALL:transmit.obj
 0002:00002f18       HMENU_UserMarshal          10064f18 f   ole32_ALL:transmit.obj
 0002:00002f1c       HMENU_UserUnmarshal        10064f1c f   ole32_ALL:transmit.obj
 0002:00002f50       HMENU_UserFree             10064f50 f   ole32_ALL:transmit.obj
 0002:00002f54       HACCEL_UserSize            10064f54 f   ole32_ALL:transmit.obj
 0002:00002f58       HACCEL_UserMarshal         10064f58 f   ole32_ALL:transmit.obj
 0002:00002f5c       HACCEL_UserUnmarshal       10064f5c f   ole32_ALL:transmit.obj
 0002:00002f90       HACCEL_UserFree            10064f90 f   ole32_ALL:transmit.obj
 0002:00002f94       HGLOBAL_UserSize           10064f94 f   ole32_ALL:transmit.obj
 0002:00002fe4       HGLOBAL_UserMarshal        10064fe4 f   ole32_ALL:transmit.obj
 0002:0000307c       ?WdtpGlobalUnmarshal@@YAPAEPAKPAEPAPAXH@Z 1006507c f   ole32_ALL:transmit.obj
 0002:00003174       HGLOBAL_UserUnmarshal      10065174 f   ole32_ALL:transmit.obj
 0002:0000317c       HGLOBAL_UserFree           1006517c f   ole32_ALL:transmit.obj
 0002:000031a8       HPALETTE_UserSize          100651a8 f   ole32_ALL:transmit.obj
 0002:00003204       HPALETTE_UserMarshal       10065204 f   ole32_ALL:transmit.obj
 0002:000032e0       HPALETTE_UserUnmarshal     100652e0 f   ole32_ALL:transmit.obj
 0002:000033e4       WdtpInterfacePointer_UserSize 100653e4 f   ole32_ALL:transmit.obj
 0002:00003458       WdtpInterfacePointer_UserFree 10065458 f   ole32_ALL:transmit.obj
 0002:00003470       STGMEDIUM_UserSize         10065470 f   ole32_ALL:transmit.obj
 0002:00003598       NukeHandleAndReleasePunk   10065598 f   ole32_ALL:transmit.obj
 0002:000035cc       STGMEDIUM_UserFree         100655cc f   ole32_ALL:transmit.obj
 0002:00003684       FLAG_STGMEDIUM_UserSize    10065684 f   ole32_ALL:transmit.obj
 0002:000036b0       FLAG_STGMEDIUM_UserFree    100656b0 f   ole32_ALL:transmit.obj
 0002:000036c8       ?QueryInterface@CContinue@@UAAJABU_GUID@@PAPAX@Z 100656c8 f   ole32_ALL:transmit.obj
 0002:00003740       ?AddRef@CContinue@@UAAKXZ  10065740 f   ole32_ALL:transmit.obj
 0002:00003758       ?FContinue@CContinue@@UAAJXZ 10065758 f   ole32_ALL:transmit.obj
 0002:0000377c       ?Release@CPunkForRelease@@UAAKXZ 1006577c f   ole32_ALL:transmit.obj
 0002:000037bc       ?Release@CContinue@@UAAKXZ 100657bc f   ole32_ALL:transmit.obj
 0002:000037f4       CreateCallback             100657f4 f   ole32_ALL:transmit.obj
 0002:00003860       WdtpInterfacePointer_UserMarshal 10065860 f   ole32_ALL:transmit.obj
 0002:0000390c       WdtpInterfacePointer_UserUnmarshal 1006590c f   ole32_ALL:transmit.obj
 0002:000039a4       STGMEDIUM_UserMarshal      100659a4 f   ole32_ALL:transmit.obj
 0002:00003b00       STGMEDIUM_UserUnmarshal    10065b00 f   ole32_ALL:transmit.obj
 0002:00003dac       FLAG_STGMEDIUM_UserMarshal 10065dac f   ole32_ALL:transmit.obj
 0002:00003dec       FLAG_STGMEDIUM_UserUnmarshal 10065dec f   ole32_ALL:transmit.obj
 0002:00003e24       DebugORPCSetAuto           10065e24 f   ole32_ALL:ORPC_DBG.obj
 0002:00003f60       DebugORPCRestoreAuto       10065f60 f   ole32_ALL:ORPC_DBG.obj
 0002:00003fdc       OrpcBreakpointFilter       10065fdc f i ole32_ALL:ORPC_DBG.obj
 0002:00004024       DebugORPCClientGetBufferSize 10066024 f   ole32_ALL:ORPC_DBG.obj
 0002:0000415c       DebugORPCClientFillBuffer  1006615c f   ole32_ALL:ORPC_DBG.obj
 0002:00004280       DebugORPCClientNotify      10066280 f   ole32_ALL:ORPC_DBG.obj
 0002:000043b8       DebugORPCServerNotify      100663b8 f   ole32_ALL:ORPC_DBG.obj
 0002:000044f0       DebugORPCServerGetBufferSize 100664f0 f   ole32_ALL:ORPC_DBG.obj
 0002:00004630       DebugORPCServerFillBuffer  10066630 f   ole32_ALL:ORPC_DBG.obj
 0002:00004758       _MEGA_IID_Lookup           10066758 f   ole32_ALL:mega_p.obj
 0002:00004a50       IBindCtx_GetBindOptions_Proxy 10066a50 f   ole32_ALL:CALL_AS.obj
 0002:00004ac4       IBindCtx_GetBindOptions_Stub 10066ac4 f   ole32_ALL:CALL_AS.obj
 0002:00004ae8       IBindCtx_SetBindOptions_Proxy 10066ae8 f   ole32_ALL:CALL_AS.obj
 0002:00004b4c       IBindCtx_SetBindOptions_Stub 10066b4c f   ole32_ALL:CALL_AS.obj
 0002:00004b60       IClassFactory_CreateInstance_Proxy 10066b60 f   ole32_ALL:CALL_AS.obj
 0002:00004b90       IClassFactory_CreateInstance_Stub 10066b90 f   ole32_ALL:CALL_AS.obj
 0002:00004bc0       IClassFactory_LockServer_Proxy 10066bc0 f   ole32_ALL:CALL_AS.obj
 0002:00004bc8       IClassFactory_LockServer_Stub 10066bc8 f   ole32_ALL:CALL_AS.obj
 0002:00004bdc       IDataObject_GetData_Proxy  10066bdc f   ole32_ALL:CALL_AS.obj
 0002:00004bf0       IDataObject_GetData_Stub   10066bf0 f   ole32_ALL:CALL_AS.obj
 0002:00004c04       IDataObject_GetDataHere_Proxy 10066c04 f   ole32_ALL:CALL_AS.obj
 0002:00004cb4       IDataObject_GetDataHere_Stub 10066cb4 f   ole32_ALL:CALL_AS.obj
 0002:00004cd0       IDataObject_SetData_Proxy  10066cd0 f   ole32_ALL:CALL_AS.obj
 0002:00004da4       IDataObject_SetData_Stub   10066da4 f   ole32_ALL:CALL_AS.obj
 0002:00004e3c       IEnumConnectionPoints_Next_Proxy 10066e3c f   ole32_ALL:CALL_AS.obj
 0002:00004e88       IEnumConnectionPoints_Next_Stub 10066e88 f   ole32_ALL:CALL_AS.obj
 0002:00004eac       IEnumConnections_Next_Proxy 10066eac f   ole32_ALL:CALL_AS.obj
 0002:00004ef8       IEnumConnections_Next_Stub 10066ef8 f   ole32_ALL:CALL_AS.obj
 0002:00004f1c       IEnumFORMATETC_Next_Proxy  10066f1c f   ole32_ALL:CALL_AS.obj
 0002:00004f68       IEnumFORMATETC_Next_Stub   10066f68 f   ole32_ALL:CALL_AS.obj
 0002:00004f8c       IEnumMoniker_Next_Proxy    10066f8c f   ole32_ALL:CALL_AS.obj
 0002:00004fd8       IEnumMoniker_Next_Stub     10066fd8 f   ole32_ALL:CALL_AS.obj
 0002:00004ffc       IEnumSTATDATA_Next_Proxy   10066ffc f   ole32_ALL:CALL_AS.obj
 0002:00005048       IEnumSTATDATA_Next_Stub    10067048 f   ole32_ALL:CALL_AS.obj
 0002:0000506c       IEnumSTATSTG_Next_Proxy    1006706c f   ole32_ALL:CALL_AS.obj
 0002:000050b8       IEnumSTATSTG_Next_Stub     100670b8 f   ole32_ALL:CALL_AS.obj
 0002:000050dc       IEnumString_Next_Proxy     100670dc f   ole32_ALL:CALL_AS.obj
 0002:00005128       IEnumString_Next_Stub      10067128 f   ole32_ALL:CALL_AS.obj
 0002:0000514c       IEnumUnknown_Next_Proxy    1006714c f   ole32_ALL:CALL_AS.obj
 0002:00005198       IEnumUnknown_Next_Stub     10067198 f   ole32_ALL:CALL_AS.obj
 0002:000051bc       IEnumOLEVERB_Next_Proxy    100671bc f   ole32_ALL:CALL_AS.obj
 0002:00005208       IEnumOLEVERB_Next_Stub     10067208 f   ole32_ALL:CALL_AS.obj
 0002:0000522c       ILockBytes_ReadAt_Proxy    1006722c f   ole32_ALL:CALL_AS.obj
 0002:00005278       ILockBytes_ReadAt_Stub     10067278 f   ole32_ALL:CALL_AS.obj
 0002:000052bc       ILockBytes_WriteAt_Proxy   100672bc f   ole32_ALL:CALL_AS.obj
 0002:00005308       ILockBytes_WriteAt_Stub    10067308 f   ole32_ALL:CALL_AS.obj
 0002:0000534c       IMoniker_BindToObject_Proxy 1006734c f   ole32_ALL:CALL_AS.obj
 0002:00005370       IMoniker_BindToObject_Stub 10067370 f   ole32_ALL:CALL_AS.obj
 0002:000053a0       IMoniker_BindToStorage_Proxy 100673a0 f   ole32_ALL:CALL_AS.obj
 0002:000053c4       IMoniker_BindToStorage_Stub 100673c4 f   ole32_ALL:CALL_AS.obj
 0002:000053f4       IClientSiteHandler_PrivQueryInterface_Proxy 100673f4 f   ole32_ALL:CALL_AS.obj
 0002:00005408       IClientSiteHandler_PrivQueryInterface_Stub 10067408 f   ole32_ALL:CALL_AS.obj
 0002:0000542c       IOleCache2_UpdateCache_Proxy 1006742c f   ole32_ALL:CALL_AS.obj
 0002:00005430       IOleCache2_UpdateCache_Stub 10067430 f   ole32_ALL:CALL_AS.obj
 0002:00005444       IOleInPlaceActiveObject_TranslateAccelerator_Proxy 10067444 f   ole32_ALL:CALL_AS.obj
 0002:0000544c       IOleInPlaceActiveObject_TranslateAccelerator_Stub 1006744c f   ole32_ALL:CALL_AS.obj
 0002:00005454       IOleInPlaceActiveObject_ResizeBorder_Proxy 10067454 f   ole32_ALL:CALL_AS.obj
 0002:00005484       IOleInPlaceActiveObject_ResizeBorder_Stub 10067484 f   ole32_ALL:CALL_AS.obj
 0002:000054a0       IOleItemContainer_GetObject_Proxy 100674a0 f   ole32_ALL:CALL_AS.obj
 0002:000054cc       IOleItemContainer_GetObject_Stub 100674cc f   ole32_ALL:CALL_AS.obj
 0002:00005504       IOleItemContainer_GetObjectStorage_Proxy 10067504 f   ole32_ALL:CALL_AS.obj
 0002:00005528       IOleItemContainer_GetObjectStorage_Stub 10067528 f   ole32_ALL:CALL_AS.obj
 0002:00005558       IStorage_OpenStream_Proxy  10067558 f   ole32_ALL:CALL_AS.obj
 0002:00005594       IStorage_OpenStream_Stub   10067594 f   ole32_ALL:CALL_AS.obj
 0002:000055d4       IStorage_EnumElements_Proxy 100675d4 f   ole32_ALL:CALL_AS.obj
 0002:00005608       IStorage_EnumElements_Stub 10067608 f   ole32_ALL:CALL_AS.obj
 0002:00005640       IRunnableObject_IsRunning_Proxy 10067640 f   ole32_ALL:CALL_AS.obj
 0002:0000565c       IRunnableObject_IsRunning_Stub 1006765c f   ole32_ALL:CALL_AS.obj
 0002:0000567c       ISequentialStream_Read_Proxy 1006767c f   ole32_ALL:CALL_AS.obj
 0002:000056ac       ISequentialStream_Read_Stub 100676ac f   ole32_ALL:CALL_AS.obj
 0002:000056c8       IStream_Seek_Proxy         100676c8 f   ole32_ALL:CALL_AS.obj
 0002:0000570c       IStream_Seek_Stub          1006770c f   ole32_ALL:CALL_AS.obj
 0002:00005740       ISequentialStream_Write_Proxy 10067740 f   ole32_ALL:CALL_AS.obj
 0002:00005770       ISequentialStream_Write_Stub 10067770 f   ole32_ALL:CALL_AS.obj
 0002:0000578c       IStream_CopyTo_Proxy       1006778c f   ole32_ALL:CALL_AS.obj
 0002:00005810       IStream_CopyTo_Stub        10067810 f   ole32_ALL:CALL_AS.obj
 0002:00005860       IViewObject_Draw_Proxy     10067860 f   ole32_ALL:CALL_AS.obj
 0002:00005918       IViewObject_RemoteContinue 10067918 f   ole32_ALL:CALL_AS.obj
 0002:00005944       IViewObject_Draw_Stub      10067944 f   ole32_ALL:CALL_AS.obj
 0002:000059ac       IViewObject_Freeze_Proxy   100679ac f   ole32_ALL:CALL_AS.obj
 0002:000059e8       IViewObject_Freeze_Stub    100679e8 f   ole32_ALL:CALL_AS.obj
 0002:00005a0c       IViewObject_GetColorSet_Proxy 10067a0c f   ole32_ALL:CALL_AS.obj
 0002:00005a60       IViewObject_GetColorSet_Stub 10067a60 f   ole32_ALL:CALL_AS.obj
 0002:00005a94       IFillLockBytes_FillAt_Proxy 10067a94 f   ole32_ALL:CALL_AS.obj
 0002:00005ae0       IFillLockBytes_FillAt_Stub 10067ae0 f   ole32_ALL:CALL_AS.obj
 0002:00005b24       IFillLockBytes_FillAppend_Proxy 10067b24 f   ole32_ALL:CALL_AS.obj
 0002:00005b54       IFillLockBytes_FillAppend_Stub 10067b54 f   ole32_ALL:CALL_AS.obj
 0003:00000000       __imp_CloseHandle          10068000     coredll:COREDLL.dll
 0003:00000004       __imp_InterlockedCompareExchange 10068004     coredll:COREDLL.dll
 0003:00000008       __imp__msize               10068008     corelib1:COREDLL.dll
 0003:0000000c       __imp_realloc              1006800c     corelib1:COREDLL.dll
 0003:00000010       __imp_malloc               10068010     corelib1:COREDLL.dll
 0003:00000014       __imp_free                 10068014     corelib1:COREDLL.dll
 0003:00000018       __imp___report_gsfailure   10068018     corelib1:COREDLL.dll
 0003:0000001c       __imp___security_gen_cookie2 1006801c     corelib1:COREDLL.dll
 0003:00000020       __imp__XcptFilter          10068020     corelib1:COREDLL.dll
 0003:00000024       __imp_iswctype             10068024     corelib1:COREDLL.dll
 0003:00000028       __imp_wcsstr               10068028     corelib1:COREDLL.dll
 0003:0000002c       __imp_wcsncat_s            1006802c     corelib1:COREDLL.dll
 0003:00000030       __imp___rt_sdiv            10068030     corelib1:COREDLL.dll
 0003:00000034       __imp_strlen               10068034     corelib1:COREDLL.dll
 0003:00000038       __imp__wtol                10068038     corelib1:COREDLL.dll
 0003:0000003c       __imp__ultow               1006803c     corelib1:COREDLL.dll
 0003:00000040       __imp_wcstol               10068040     corelib1:COREDLL.dll
 0003:00000044       __imp_wcscpy_s             10068044     corelib1:COREDLL.dll
 0003:00000048       __imp_memmove              10068048     corelib1:COREDLL.dll
 0003:0000004c       __imp___C_specific_handler 1006804c     corelib1:COREDLL.dll
 0003:00000050       __imp___rt_udiv            10068050     corelib1:COREDLL.dll
 0003:00000054       __imp_memset               10068054     corelib1:COREDLL.dll
 0003:00000058       __imp_wcscat               10068058     corelib1:COREDLL.dll
 0003:0000005c       __imp_wcscpy               1006805c     corelib1:COREDLL.dll
 0003:00000060       __imp_memcmp               10068060     corelib1:COREDLL.dll
 0003:00000064       __imp_wcschr               10068064     corelib1:COREDLL.dll
 0003:00000068       __imp_memcpy               10068068     corelib1:COREDLL.dll
 0003:0000006c       __imp__wcsnicmp            1006806c     corelib1:COREDLL.dll
 0003:00000070       __imp_wcslen               10068070     corelib1:COREDLL.dll
 0003:00000074       __imp__wcsicmp             10068074     corelib1:COREDLL.dll
 0003:00000078       __imp_wcsrchr              10068078     corelib1:COREDLL.dll
 0003:0000007c       __imp_StringCbLengthW      1006807c     coredll:COREDLL.dll
 0003:00000080       __imp_GetFileTime          10068080     coredll:COREDLL.dll
 0003:00000084       __imp_GetFileSize          10068084     coredll:COREDLL.dll
 0003:00000088       __imp_SetEndOfFile         10068088     coredll:COREDLL.dll
 0003:0000008c       __imp_FlushFileBuffers     1006808c     coredll:COREDLL.dll
 0003:00000090       __imp_WriteFile            10068090     coredll:COREDLL.dll
 0003:00000094       __imp_CreateMutexW         10068094     coredll:COREDLL.dll
 0003:00000098       __imp_ReleaseMutex         10068098     coredll:COREDLL.dll
 0003:0000009c       __imp_CreateFileMappingW   1006809c     coredll:COREDLL.dll
 0003:000000a0       __imp_MapViewOfFile        100680a0     coredll:COREDLL.dll
 0003:000000a4       __imp_UnmapViewOfFile      100680a4     coredll:COREDLL.dll
 0003:000000a8       __imp_FreeLibraryAndExitThread 100680a8     coredll:COREDLL.dll
 0003:000000ac       __imp_RaiseException       100680ac     coredll:COREDLL.dll
 0003:000000b0       __imp_RegDeleteValueW      100680b0     coredll:COREDLL.dll
 0003:000000b4       __imp_CreateThread         100680b4     coredll:COREDLL.dll
 0003:000000b8       __imp_FindFirstFileW       100680b8     coredll:COREDLL.dll
 0003:000000bc       __imp_FindClose            100680bc     coredll:COREDLL.dll
 0003:000000c0       __imp_SetWindowLongW       100680c0     coredll:COREDLL.dll
 0003:000000c4       __imp_SetLastError         100680c4     coredll:COREDLL.dll
 0003:000000c8       __imp_PostMessageW         100680c8     coredll:COREDLL.dll
 0003:000000cc       __imp_RegisterClassW       100680cc     coredll:COREDLL.dll
 0003:000000d0       __imp_CreateWindowExW      100680d0     coredll:COREDLL.dll
 0003:000000d4       __imp_lstrcmpW             100680d4     coredll:COREDLL.dll
 0003:000000d8       __imp_IsWindow             100680d8     coredll:COREDLL.dll
 0003:000000dc       __imp_DestroyWindow        100680dc     coredll:COREDLL.dll
 0003:000000e0       __imp_UnregisterClassW     100680e0     coredll:COREDLL.dll
 0003:000000e4       __imp_DefWindowProcW       100680e4     coredll:COREDLL.dll
 0003:000000e8       __imp_CharLowerW           100680e8     coredll:COREDLL.dll
 0003:000000ec       __imp_RegEnumKeyExW        100680ec     coredll:COREDLL.dll
 0003:000000f0       __imp_GetStringTypeW       100680f0     coredll:COREDLL.dll
 0003:000000f4       __imp_SendMessageW         100680f4     coredll:COREDLL.dll
 0003:000000f8       __imp_PostThreadMessageW   100680f8     coredll:COREDLL.dll
 0003:000000fc       __imp_GetMessageW          100680fc     coredll:COREDLL.dll
 0003:00000100       __imp_TlsSetValue          10068100     coredll:COREDLL.dll
 0003:00000104       __imp_TlsCall              10068104     coredll:COREDLL.dll
 0003:00000108       __imp_GetObjectType        10068108     coredll:COREDLL.dll
 0003:0000010c       __imp_CreatePalette        1006810c     coredll:COREDLL.dll
 0003:00000110       __imp_TlsGetValue          10068110     coredll:COREDLL.dll
 0003:00000114       __imp_LeaveCriticalSection 10068114     coredll:COREDLL.dll
 0003:00000118       __imp_IsBadWritePtr        10068118     coredll:COREDLL.dll
 0003:0000011c       __imp_SystemParametersInfoW 1006811c     coredll:COREDLL.dll
 0003:00000120       __imp_FreeLibrary          10068120     coredll:COREDLL.dll
 0003:00000124       __imp_IsProcessDying       10068124     coredll:COREDLL.dll
 0003:00000128       __imp_LoadLibraryW         10068128     coredll:COREDLL.dll
 0003:0000012c       __imp_IsBadReadPtr         1006812c     coredll:COREDLL.dll
 0003:00000130       __imp_InitializeCriticalSection 10068130     coredll:COREDLL.dll
 0003:00000134       __imp_DeleteCriticalSection 10068134     coredll:COREDLL.dll
 0003:00000138       __imp_RegCloseKey          10068138     coredll:COREDLL.dll
 0003:0000013c       __imp_RegQueryValueExW     1006813c     coredll:COREDLL.dll
 0003:00000140       __imp_GetModuleFileNameW   10068140     coredll:COREDLL.dll
 0003:00000144       __imp_RegOpenKeyExW        10068144     coredll:COREDLL.dll
 0003:00000148       __imp_GetProcessVersion    10068148     coredll:COREDLL.dll
 0003:0000014c       __imp_GetProcAddressW      1006814c     coredll:COREDLL.dll
 0003:00000150       __imp_GetFileAttributesW   10068150     coredll:COREDLL.dll
 0003:00000154       __imp_RegCreateKeyExW      10068154     coredll:COREDLL.dll
 0003:00000158       __imp_RegSetValueExW       10068158     coredll:COREDLL.dll
 0003:0000015c       __imp_RegDeleteKeyW        1006815c     coredll:COREDLL.dll
 0003:00000160       __imp_InterlockedIncrement 10068160     coredll:COREDLL.dll
 0003:00000164       __imp_GetUserNameExW       10068164     coredll:COREDLL.dll
 0003:00000168       __imp_InterlockedDecrement 10068168     coredll:COREDLL.dll
 0003:0000016c       __imp_Sleep                1006816c     coredll:COREDLL.dll
 0003:00000170       __imp_GetLastError         10068170     coredll:COREDLL.dll
 0003:00000174       __imp_SystemTimeToFileTime 10068174     coredll:COREDLL.dll
 0003:00000178       __imp_GetSystemTime        10068178     coredll:COREDLL.dll
 0003:0000017c       __imp_lstrcmpiW            1006817c     coredll:COREDLL.dll
 0003:00000180       __imp_GetProcessHeap       10068180     coredll:COREDLL.dll
 0003:00000184       __imp_HeapAlloc            10068184     coredll:COREDLL.dll
 0003:00000188       __imp_HeapValidate         10068188     coredll:COREDLL.dll
 0003:0000018c       __imp_HeapFree             1006818c     coredll:COREDLL.dll
 0003:00000190       __imp_HeapSize             10068190     coredll:COREDLL.dll
 0003:00000194       __imp_HeapReAlloc          10068194     coredll:COREDLL.dll
 0003:00000198       __imp___GetUserKData       10068198     coredll:COREDLL.dll
 0003:0000019c       __imp_TerminateProcess     1006819c     coredll:COREDLL.dll
 0003:000001a0       __imp_GetTickCount         100681a0     coredll:COREDLL.dll
 0003:000001a4       __imp_CreateEventW         100681a4     coredll:COREDLL.dll
 0003:000001a8       __imp_PostQuitMessage      100681a8     coredll:COREDLL.dll
 0003:000001ac       __imp_PeekMessageW         100681ac     coredll:COREDLL.dll
 0003:000001b0       __imp_InSendMessage        100681b0     coredll:COREDLL.dll
 0003:000001b4       __imp_DispatchMessageW     100681b4     coredll:COREDLL.dll
 0003:000001b8       __imp_TranslateMessage     100681b8     coredll:COREDLL.dll
 0003:000001bc       __imp_GetQueueStatus       100681bc     coredll:COREDLL.dll
 0003:000001c0       __imp_MsgWaitForMultipleObjectsEx 100681c0     coredll:COREDLL.dll
 0003:000001c4       __imp_WaitForSingleObject  100681c4     coredll:COREDLL.dll
 0003:000001c8       __imp_InterlockedExchange  100681c8     coredll:COREDLL.dll
 0003:000001cc       __imp_LocalFree            100681cc     coredll:COREDLL.dll
 0003:000001d0       __imp_LocalReAlloc         100681d0     coredll:COREDLL.dll
 0003:000001d4       __imp_EnterCriticalSection 100681d4     coredll:COREDLL.dll
 0003:000001d8       __imp_LocalSize            100681d8     coredll:COREDLL.dll
 0003:000001dc       __imp_LocalAlloc           100681dc     coredll:COREDLL.dll
 0003:000001e0       __imp_EventModify          100681e0     coredll:COREDLL.dll
 0003:000001e4       __imp_GetUserDefaultLCID   100681e4     coredll:COREDLL.dll
 0003:000001e8       __imp_CreateFileW          100681e8     coredll:COREDLL.dll
 0003:000001ec       __imp_CharUpperW           100681ec     coredll:COREDLL.dll
 0003:000001f0       __imp_GetFileAttributesExW 100681f0     coredll:COREDLL.dll
 0003:000001f4       __imp_WideCharToMultiByte  100681f4     coredll:COREDLL.dll
 0003:000001f8       __imp_IsDBCSLeadByte       100681f8     coredll:COREDLL.dll
 0003:000001fc       __imp_MultiByteToWideChar  100681fc     coredll:COREDLL.dll
 0003:00000200       __imp_DeleteFileW          10068200     coredll:COREDLL.dll
 0003:00000204       __imp_DeleteObject         10068204     coredll:COREDLL.dll
 0003:00000208       __imp_StringCchPrintfW     10068208     coredll:COREDLL.dll
 0003:0000020c       __imp_ReadFile             1006820c     coredll:COREDLL.dll
 0003:00000210       __imp_SetFilePointer       10068210     coredll:COREDLL.dll
 0003:00000214       __imp_StringCchCopyW       10068214     coredll:COREDLL.dll
 0003:00000218       __imp_SetFileTime          10068218     coredll:COREDLL.dll
 0003:0000021c       __imp_GetClipboardFormatNameW 1006821c     coredll:COREDLL.dll
 0003:00000220       __imp_RegisterClipboardFormatW 10068220     coredll:COREDLL.dll
 0003:00000224       __imp_GetPaletteEntries    10068224     coredll:COREDLL.dll
 0003:00000228       \177COREDLL_NULL_THUNK_DATA 10068228     coredll:COREDLL.dll
 0003:0000022c       __imp_RpcMgmtInqComTimeout 1006822c     ole32_ALL:RPCRT4LEGACY.dll
 0003:00000230       __imp_RpcMgmtSetComTimeout 10068230     ole32_ALL:RPCRT4LEGACY.dll
 0003:00000234       __imp_NdrServerCall2       10068234     ole32_ALL:RPCRT4LEGACY.dll
 0003:00000238       __imp_NdrOleAllocate       10068238     ole32_ALL:RPCRT4LEGACY.dll
 0003:0000023c       __imp_NdrOleFree           1006823c     ole32_ALL:RPCRT4LEGACY.dll
 0003:00000240       __imp_IUnknown_QueryInterface_Proxy 10068240     ole32_ALL:RPCRT4LEGACY.dll
 0003:00000244       __imp_IUnknown_AddRef_Proxy 10068244     ole32_ALL:RPCRT4LEGACY.dll
 0003:00000248       __imp_IUnknown_Release_Proxy 10068248     ole32_ALL:RPCRT4LEGACY.dll
 0003:0000024c       __imp_CStdStubBuffer_QueryInterface 1006824c     ole32_ALL:RPCRT4LEGACY.dll
 0003:00000250       __imp_CStdStubBuffer_AddRef 10068250     ole32_ALL:RPCRT4LEGACY.dll
 0003:00000254       __imp_CStdStubBuffer_Connect 10068254     ole32_ALL:RPCRT4LEGACY.dll
 0003:00000258       __imp_CStdStubBuffer_Disconnect 10068258     ole32_ALL:RPCRT4LEGACY.dll
 0003:0000025c       __imp_CStdStubBuffer_Invoke 1006825c     ole32_ALL:RPCRT4LEGACY.dll
 0003:00000260       __imp_CStdStubBuffer_IsIIDSupported 10068260     ole32_ALL:RPCRT4LEGACY.dll
 0003:00000264       __imp_CStdStubBuffer_CountRefs 10068264     ole32_ALL:RPCRT4LEGACY.dll
 0003:00000268       __imp_CStdStubBuffer_DebugServerQueryInterface 10068268     ole32_ALL:RPCRT4LEGACY.dll
 0003:0000026c       __imp_CStdStubBuffer_DebugServerRelease 1006826c     ole32_ALL:RPCRT4LEGACY.dll
 0003:00000270       __imp_I_RpcBindingInqClientGroupsW 10068270     ole32_ALL:RPCRT4LEGACY.dll
 0003:00000274       __imp_NdrClientInitializeNew 10068274     ole32_ALL:RPCRT4LEGACY.dll
 0003:00000278       __imp_NdrPointerBufferSize 10068278     ole32_ALL:RPCRT4LEGACY.dll
 0003:0000027c       __imp_NdrConformantStructBufferSize 1006827c     ole32_ALL:RPCRT4LEGACY.dll
 0003:00000280       __imp_NdrGetBuffer         10068280     ole32_ALL:RPCRT4LEGACY.dll
 0003:00000284       __imp_NdrClientContextMarshall 10068284     ole32_ALL:RPCRT4LEGACY.dll
 0003:00000288       __imp_NdrPointerMarshall   10068288     ole32_ALL:RPCRT4LEGACY.dll
 0003:0000028c       __imp_NdrConformantStructMarshall 1006828c     ole32_ALL:RPCRT4LEGACY.dll
 0003:00000290       __imp_NdrSendReceive       10068290     ole32_ALL:RPCRT4LEGACY.dll
 0003:00000294       __imp_NdrConvert           10068294     ole32_ALL:RPCRT4LEGACY.dll
 0003:00000298       __imp_NdrMapCommAndFaultStatus 10068298     ole32_ALL:RPCRT4LEGACY.dll
 0003:0000029c       __imp_NdrFreeBuffer        1006829c     ole32_ALL:RPCRT4LEGACY.dll
 0003:000002a0       __imp_NdrClientCall2       100682a0     ole32_ALL:RPCRT4LEGACY.dll
 0003:000002a4       __imp_RpcServerUseProtseqExW 100682a4     ole32_ALL:RPCRT4LEGACY.dll
 0003:000002a8       __imp_RpcServerUseProtseqEpExW 100682a8     ole32_ALL:RPCRT4LEGACY.dll
 0003:000002ac       __imp_RpcServerUseProtseqW 100682ac     ole32_ALL:RPCRT4LEGACY.dll
 0003:000002b0       __imp_I_RpcServerStartListening 100682b0     ole32_ALL:RPCRT4LEGACY.dll
 0003:000002b4       __imp_RpcServerInqBindings 100682b4     ole32_ALL:RPCRT4LEGACY.dll
 0003:000002b8       __imp_RpcBindingToStringBindingW 100682b8     ole32_ALL:RPCRT4LEGACY.dll
 0003:000002bc       __imp_RpcBindingVectorFree 100682bc     ole32_ALL:RPCRT4LEGACY.dll
 0003:000002c0       __imp_RpcServerUseProtseqEpW 100682c0     ole32_ALL:RPCRT4LEGACY.dll
 0003:000002c4       __imp_I_RpcSetWMsgEndpoint 100682c4     ole32_ALL:RPCRT4LEGACY.dll
 0003:000002c8       __imp_I_RpcWindowProc      100682c8     ole32_ALL:RPCRT4LEGACY.dll
 0003:000002cc       __imp_I_RpcServerStopListening 100682cc     ole32_ALL:RPCRT4LEGACY.dll
 0003:000002d0       __imp_NdrCStdStubBuffer_Release 100682d0     ole32_ALL:RPCRT4LEGACY.dll
 0003:000002d4       __imp_NdrDllGetClassObject 100682d4     ole32_ALL:RPCRT4LEGACY.dll
 0003:000002d8       __imp_RpcSmDestroyClientContext 100682d8     ole32_ALL:RPCRT4LEGACY.dll
 0003:000002dc       __imp_I_RpcAsyncSendReceive 100682dc     ole32_ALL:RPCRT4LEGACY.dll
 0003:000002e0       __imp_I_RpcSendReceive     100682e0     ole32_ALL:RPCRT4LEGACY.dll
 0003:000002e4       __imp_I_RpcServerInqTransportType 100682e4     ole32_ALL:RPCRT4LEGACY.dll
 0003:000002e8       __imp_RpcRaiseException    100682e8     ole32_ALL:RPCRT4LEGACY.dll
 0003:000002ec       __imp_RpcBindingInqObject  100682ec     ole32_ALL:RPCRT4LEGACY.dll
 0003:000002f0       __imp_I_RpcGetBuffer       100682f0     ole32_ALL:RPCRT4LEGACY.dll
 0003:000002f4       __imp_RpcBindingCopy       100682f4     ole32_ALL:RPCRT4LEGACY.dll
 0003:000002f8       __imp_RpcBindingSetObject  100682f8     ole32_ALL:RPCRT4LEGACY.dll
 0003:000002fc       __imp_I_RpcFreeBuffer      100682fc     ole32_ALL:RPCRT4LEGACY.dll
 0003:00000300       __imp_RpcBindingFromStringBindingW 10068300     ole32_ALL:RPCRT4LEGACY.dll
 0003:00000304       __imp_I_RpcBindingSetAsync 10068304     ole32_ALL:RPCRT4LEGACY.dll
 0003:00000308       __imp_RpcBindingFree       10068308     ole32_ALL:RPCRT4LEGACY.dll
 0003:0000030c       __imp_RpcServerUnregisterIf 1006830c     ole32_ALL:RPCRT4LEGACY.dll
 0003:00000310       __imp_RpcServerRegisterIfEx 10068310     ole32_ALL:RPCRT4LEGACY.dll
 0003:00000314       __imp_UuidCreate           10068314     ole32_ALL:RPCRT4LEGACY.dll
 0003:00000318       __imp_I_RpcBindingIsClientLocal 10068318     ole32_ALL:RPCRT4LEGACY.dll
 0003:0000031c       __imp_RpcBindingInqAuthInfoExW 1006831c     ole32_ALL:RPCRT4LEGACY.dll
 0003:00000320       __imp_RpcBindingSetAuthInfoExW 10068320     ole32_ALL:RPCRT4LEGACY.dll
 0003:00000324       __imp_RpcServerRegisterAuthInfoW 10068324     ole32_ALL:RPCRT4LEGACY.dll
 0003:00000328       __imp_RpcServerInqDefaultPrincNameW 10068328     ole32_ALL:RPCRT4LEGACY.dll
 0003:0000032c       __imp_RpcBindingInqAuthClientW 1006832c     ole32_ALL:RPCRT4LEGACY.dll
 0003:00000330       __imp_RpcStringFreeW       10068330     ole32_ALL:RPCRT4LEGACY.dll
 0003:00000334       \177RPCRT4LEGACY_NULL_THUNK_DATA 10068334     ole32_ALL:RPCRT4LEGACY.dll
 0003:00000358       ?g_mxsSingleThreadOle@@3VCOleStaticMutexSem@@A 10068358     ole32_ALL:COMPOBJ.obj
 0003:00000378       ?gmxsOleMisc@@3VCOleStaticMutexSem@@A 10068378     ole32_ALL:COMPOBJ.obj
 0003:00000398       ?wszProxyStubClsid@@3PAGA  10068398     ole32_ALL:COMPAPI.obj
 0003:000003bc       ?wszProxyStubClsid16@@3PAGA 100683bc     ole32_ALL:COMPAPI.obj
 0003:000003dc       ?wszInterfaceKey@@3PAGA    100683dc     ole32_ALL:COMPAPI.obj
 0003:000003f4       ?ulInterfaceKeyLen@@3KA    100683f4     ole32_ALL:COMPAPI.obj
 0003:000003f8       ?wszTreatAs@@3PAGA         100683f8     ole32_ALL:COMPAPI.obj
 0003:00000408       ?wszAutoTreatAs@@3PAGA     10068408     ole32_ALL:COMPAPI.obj
 0003:00000420       ?wszIID@@3PAGA             10068420     ole32_ALL:COMPAPI.obj
 0003:00000428       ?ulIIDKeyLen@@3KA          10068428     ole32_ALL:COMPAPI.obj
 0003:0000042c       ?wszOle1Class@@3PAGA       1006842c     ole32_ALL:COMPAPI.obj
 0003:00000440       ?wszProgID@@3PAGA          10068440     ole32_ALL:COMPAPI.obj
 0003:00000450       ?wszClassKey@@3PAGA        10068450     ole32_ALL:COMPAPI.obj
 0003:00000480       ?gAuthnLevel@@3KA          10068480     ole32_ALL:SECURITY.obj
 0003:00000484       ?gImpLevel@@3KA            10068484     ole32_ALL:SECURITY.obj
 0003:00000488       ?g_pMalloc@@3PAUIMalloc@@A 10068488     ole32_ALL:MEMAPI.obj
 0003:0000048c       ?CRetailMallocVtbl@@3UIMallocVtbl@@A 1006848c     ole32_ALL:MEMAPI.obj
 0003:000004b0       ?CSpyMallocVtbl@@3UIMallocVtbl@@A 100684b0     ole32_ALL:MEMAPI.obj
 0003:000004d4       ?g_SpySem@@3VCOleStaticMutexSem@@A 100684d4     ole32_ALL:MEMAPI.obj
 0003:000004f8       ?RIFBuckets@@3PAUSHashChain@@A 100684f8     ole32_ALL:RIFTBL.obj
 0003:000005b0       ?gRIFTbl@@3VCRIFTable@@A   100685b0     ole32_ALL:RIFTBL.obj
 0003:000005d0       ?_InUseHead@COXIDTable@@0UtagOXIDEntry@@A 100685d0     ole32_ALL:IPIDTBL.obj
 0003:00000630       ?_CleanupHead@COXIDTable@@0UtagOXIDEntry@@A 10068630     ole32_ALL:IPIDTBL.obj
 0003:00000690       ?_ExpireHead@COXIDTable@@0UtagOXIDEntry@@A 10068690     ole32_ALL:IPIDTBL.obj
 0003:000006f0       ?MIDBuckets@@3PAUSHashChain@@A 100686f0     ole32_ALL:IPIDTBL.obj
 0003:000007a8       ?_HashTbl@CMIDTable@@0VCStringHashTable@@A 100687a8     ole32_ALL:IPIDTBL.obj
 0003:000007b0       ?gHookList@@3USHookList@@A 100687b0     ole32_ALL:CHOCK.obj
 0003:000007c8       ?gcChannelHook@@3JA        100687c8     ole32_ALL:CHOCK.obj
 0003:000007cc       ?gMsgQInputFlagTbl@@3PAKA  100687cc     ole32_ALL:CALLCTRL.obj
 0003:000007dc       ?gRpcFlagToCallCatMap@@3PAKA 100687dc     ole32_ALL:CALLCTRL.obj
 0003:000007e8       pfnSysAllocString          100687e8     ole32_ALL:CERROR.obj
 0003:000007ec       pfnSysFreeString           100687ec     ole32_ALL:CERROR.obj
 0003:000007f0       pfnSysReAllocStringLen     100687f0     ole32_ALL:CERROR.obj
 0003:000007f4       pfnSysStringByteLen        100687f4     ole32_ALL:CERROR.obj
 0003:000007f8       ?gfCatchServerExceptions@@3HA 100687f8     ole32_ALL:CHANNELB.obj
 0003:00000800       ?OIDBuckets@@3PAUSHashChain@@A 10068800     ole32_ALL:CHANNELB.obj
 0003:000008b8       ?gClientRegisteredOIDs@@3VCUUIDHashTable@@A 100688b8     ole32_ALL:CHANNELB.obj
 0003:000008c0       ?gDebugHook@@3VCDebugChannelHook@@A 100688c0     ole32_ALL:CHANNELB.obj
 0003:000008c4       ?gErrorHook@@3VCErrorChannelHook@@A 100688c4     ole32_ALL:CHANNELB.obj
 0003:000008c8       ?g_RotSem@@3VCOleStaticMutexSem@@A 100688c8     ole32_ALL:CROT.obj
 0003:000008e8       ?pwszResolverBindString@@3PBGB 100688e8     ole32_ALL:RESOLVER.obj
 0003:000008f0       ?saSCM@@3UtagSCMSA@@A      100688f0     ole32_ALL:RESOLVER.obj
 0003:0000096c       ?pfnHeapAlloc@@3P6APAXPAXKK@ZA 1006896c     ole32_ALL:CCOMPAPI.obj
 0003:00000970       ?pfnHeapFree@@3P6AHPAXK0@ZA 10068970     ole32_ALL:CCOMPAPI.obj
 0003:00000974       aProxyFileList             10068974     ole32_ALL:DLLDATAX.obj
 0003:00000998       ?gSTHost@@3VCDllHost@@A    10068998     ole32_ALL:DLLHOST.obj
 0003:00000a30       ?gSTMTHost@@3VCDllHost@@A  10068a30     ole32_ALL:DLLHOST.obj
 0003:00000ac8       ?gATHost@@3VCDllHost@@A    10068ac8     ole32_ALL:DLLHOST.obj
 0003:00000b60       ?gMTHost@@3VCDllHost@@A    10068b60     ole32_ALL:DLLHOST.obj
 0003:00000bf8       ?ExtBuckets@@3PAUSHashChain@@A 10068bf8     ole32_ALL:pexttbl.obj
 0003:00000cb0       ?gTblLck@@3VCOleStaticMutexSem@@A 10068cb0     ole32_ALL:pexttbl.obj
 0003:00000cd0       ?ptszOle32DllName@@3PBGB   10068cd0     ole32_ALL:DLLCACHE.obj
 0003:00000cd4       ?ptszOleMainThreadWndName@@3PBGB 10068cd4     ole32_ALL:DLLCACHE.obj
 0003:00000cd8       ?ptszOleMainThreadWndClass@@3PBGB 10068cd8     ole32_ALL:DLLCACHE.obj
 0003:00000d60       ?gComLock@@3VCOleStaticMutexSem@@A 10068d60     ole32_ALL:LOCKS.obj
 0003:00000d80       ?gMtaInitLock@@3VCOleStaticMutexSem@@A 10068d80     ole32_ALL:LOCKS.obj
 0003:00000fd8       ?SRFBuckets@@3PAUSHashChain@@A 10068fd8     ole32_ALL:HASH.obj
 0003:00001090       ?gSRFTbl@@3VCNameHashTable@@A 10069090     ole32_ALL:HASH.obj
 0003:00001098       ?gLocalName@@3PBGB         10069098     ole32_ALL:REMOTEU.obj
 0003:00001158       rgbClientGetBufferSizeSignature 10069158     ole32_ALL:ORPC_DBG.obj
 0003:00001170       rgbClientFillBufferSignature 10069170     ole32_ALL:ORPC_DBG.obj
 0003:00001188       rgbClientNotifySignature   10069188     ole32_ALL:ORPC_DBG.obj
 0003:000011a0       rgbServerNotifySignature   100691a0     ole32_ALL:ORPC_DBG.obj
 0003:000011b8       rgbServerGetBufferSizeSignature 100691b8     ole32_ALL:ORPC_DBG.obj
 0003:000011d0       rgbServerFillBufferSignature 100691d0     ole32_ALL:ORPC_DBG.obj
 0003:000011e8       ?_mxs@CRpcThreadCache@@0VCOleStaticMutexSem@@A 100691e8     ole32_ALL:THREADS.obj
 0003:00001208       ?_dwCurrSeqNo@CGIPTable@@0KA 10069208     ole32_ALL:GIPTBL.obj
 0003:0000120c       ?_InUseHead@CGIPTable@@0UtagGIPEntry@@A 1006920c     ole32_ALL:GIPTBL.obj
 0003:0000122c       ?gGIPTbl@@3VCGIPTable@@A   1006922c     ole32_ALL:GIPTBL.obj
 0003:00001230       ?gGIPTblCF@@3VCGIPTableCF@@A 10069230     ole32_ALL:GIPTBL.obj
 0003:00001234       ?DfCreateSharedAllocator@@3P6AJPAPAUIMalloc@@@ZA 10069234     ole32_ALL:mem.obj
 0003:00001238       ?g_smAllocator@@3VCSmAllocator@@A 10069238     ole32_ALL:mem.obj
 0003:00001250       ILocalObjectExporter_ClientIfHandle 10069250     ole32_ALL:lclor_c.obj
 0003:00001268       ISCM_ClientIfHandle        10069268     ole32_ALL:scm_c.obj
 0003:00001280       IROT_ClientIfHandle        10069280     ole32_ALL:irot_c.obj
 0003:0000129c       _IClassFactoryProxyVtbl    1006929c     ole32_ALL:mega_p.obj
 0003:000012b8       _IEnumUnknownProxyVtbl     100692b8     ole32_ALL:mega_p.obj
 0003:000012dc       _IBindCtxProxyVtbl         100692dc     ole32_ALL:mega_p.obj
 0003:00001318       _IEnumMonikerProxyVtbl     10069318     ole32_ALL:mega_p.obj
 0003:0000133c       _IRunnableObjectProxyVtbl  1006933c     ole32_ALL:mega_p.obj
 0003:00001364       _IRunningObjectTableProxyVtbl 10069364     ole32_ALL:mega_p.obj
 0003:00001394       _IPersistProxyVtbl         10069394     ole32_ALL:mega_p.obj
 0003:000013ac       _IPersistStreamProxyVtbl   100693ac     ole32_ALL:mega_p.obj
 0003:000013d4       _IEnumStringProxyVtbl      100693d4     ole32_ALL:mega_p.obj
 0003:000013f8       _IMonikerProxyVtbl         100693f8     ole32_ALL:mega_p.obj
 0003:0000145c       _IROTDataProxyVtbl         1006945c     ole32_ALL:mega_p.obj
 0003:00001474       _ISequentialStreamProxyVtbl 10069474     ole32_ALL:mega_p.obj
 0003:00001490       _IStreamProxyVtbl          10069490     ole32_ALL:mega_p.obj
 0003:000014d0       _IEnumSTATSTGProxyVtbl     100694d0     ole32_ALL:mega_p.obj
 0003:000014f4       _IPersistFileProxyVtbl     100694f4     ole32_ALL:mega_p.obj
 0003:00001520       _IStorageProxyVtbl         10069520     ole32_ALL:mega_p.obj
 0003:00001570       _IPersistStorageProxyVtbl  10069570     ole32_ALL:mega_p.obj
 0003:000015a0       _ILockBytesProxyVtbl       100695a0     ole32_ALL:mega_p.obj
 0003:000015d0       _IEnumFORMATETCProxyVtbl   100695d0     ole32_ALL:mega_p.obj
 0003:000015f4       _IEnumSTATDATAProxyVtbl    100695f4     ole32_ALL:mega_p.obj
 0003:00001618       _IRootStorageProxyVtbl     10069618     ole32_ALL:mega_p.obj
 0003:00001630       _IAdviseSinkProxyVtbl      10069630     ole32_ALL:mega_p.obj
 0003:00001658       _IAdviseSink2ProxyVtbl     10069658     ole32_ALL:mega_p.obj
 0003:00001684       _IDataObjectProxyVtbl      10069684     ole32_ALL:mega_p.obj
 0003:000016bc       _IConnectionPointProxyVtbl 100696bc     ole32_ALL:mega_p.obj
 0003:000016e4       _IConnectionPointContainerProxyVtbl 100696e4     ole32_ALL:mega_p.obj
 0003:00001700       _IEnumConnectionsProxyVtbl 10069700     ole32_ALL:mega_p.obj
 0003:00001724       _IEnumConnectionPointsProxyVtbl 10069724     ole32_ALL:mega_p.obj
 0003:00001748       _IClassActivatorProxyVtbl  10069748     ole32_ALL:mega_p.obj
 0003:00001760       _IFillLockBytesProxyVtbl   10069760     ole32_ALL:mega_p.obj
 0003:00001784       _IProgressNotifyProxyVtbl  10069784     ole32_ALL:mega_p.obj
 0003:0000179c       _ISurrogateProxyVtbl       1006979c     ole32_ALL:mega_p.obj
 0003:000017b8       _IOleCacheProxyVtbl        100697b8     ole32_ALL:mega_p.obj
 0003:000017e0       _IOleCache2ProxyVtbl       100697e0     ole32_ALL:mega_p.obj
 0003:00001810       _IOleCacheControlProxyVtbl 10069810     ole32_ALL:mega_p.obj
 0003:0000182c       _IParseDisplayNameProxyVtbl 1006982c     ole32_ALL:mega_p.obj
 0003:00001844       _IOleContainerProxyVtbl    10069844     ole32_ALL:mega_p.obj
 0003:00001864       _IOleClientSiteProxyVtbl   10069864     ole32_ALL:mega_p.obj
 0003:00001890       _IOleObjectProxyVtbl       10069890     ole32_ALL:mega_p.obj
 0003:000018f8       _IOleWindowProxyVtbl       100698f8     ole32_ALL:mega_p.obj
 0003:00001914       _IOleItemContainerProxyVtbl 10069914     ole32_ALL:mega_p.obj
 0003:00001940       _IOleLinkProxyVtbl         10069940     ole32_ALL:mega_p.obj
 0003:00001980       _IOleInPlaceUIWindowProxyVtbl 10069980     ole32_ALL:mega_p.obj
 0003:000019ac       _IOleInPlaceActiveObjectProxyVtbl 100699ac     ole32_ALL:mega_p.obj
 0003:000019dc       _IOleInPlaceObjectProxyVtbl 100699dc     ole32_ALL:mega_p.obj
 0003:00001a08       _IOleInPlaceFrameProxyVtbl 10069a08     ole32_ALL:mega_p.obj
 0003:00001a4c       _IViewObjectProxyVtbl      10069a4c     ole32_ALL:mega_p.obj
 0003:00001a78       _IOleInPlaceSiteProxyVtbl  10069a78     ole32_ALL:mega_p.obj
 0003:00001abc       _IContinueProxyVtbl        10069abc     ole32_ALL:mega_p.obj
 0003:00001ad4       _IViewObject2ProxyVtbl     10069ad4     ole32_ALL:mega_p.obj
 0003:00001b04       _IDropTargetProxyVtbl      10069b04     ole32_ALL:mega_p.obj
 0003:00001b28       _IEnumOLEVERBProxyVtbl     10069b28     ole32_ALL:mega_p.obj
 0003:00001b4c       _IServerHandlerProxyVtbl   10069b4c     ole32_ALL:mega_p.obj
 0003:00001b70       _IClientSiteHandlerProxyVtbl 10069b70     ole32_ALL:mega_p.obj
 0003:00001be4       _IRemUnknownProxyVtbl      10069be4     ole32_ALL:mega_p.obj
 0003:00001c04       _IObjServerProxyVtbl       10069c04     ole32_ALL:mega_p.obj
 0003:00001c28       _IDSCMProxyVtbl            10069c28     ole32_ALL:mega_p.obj
 0003:00001c48       _IInterfaceFromWindowPropProxyVtbl 10069c48     ole32_ALL:mega_p.obj
 0003:00001c64       _IRemUnknown2ProxyVtbl     10069c64     ole32_ALL:mega_p.obj
 0003:00001c88       _IRundownProxyVtbl         10069c88     ole32_ALL:mega_p.obj
 0003:00001cb0       _IDLLHostProxyVtbl         10069cb0     ole32_ALL:mega_p.obj
 0003:00001cc8       ?afThreadModelMatch@@3PAY03HA 10069cc8     ole32_ALL:OLESCM.obj
 0003:00001d08       IOrCallback_DispatchTable  10069d08     ole32_ALL:orcb_s.obj
 0003:00001d14       _IOrCallback_ServerIfHandle 10069d14     ole32_ALL:orcb_s.obj
 0003:00001d18       ?utProtseqInfo@@3PAPAGA    10069d18     ole32_ALL:TASK.obj
 0003:00001d9c       __security_cookie          10069d9c     corelib0:seccinit.obj
 0003:00001da0       __security_cookie_complement 10069da0     corelib0:seccinit.obj
 0003:00001db0       ?g_pOleThunkWOW@@3PAVOleThunkWOW@@A 10069db0     ole32_ALL:COMPOBJ.obj
 0003:00001db4       ?g_cProcessInits@@3KA      10069db4     ole32_ALL:COMPOBJ.obj
 0003:00001db8       ?g_cMTAInits@@3KA          10069db8     ole32_ALL:COMPOBJ.obj
 0003:00001dbc       ?g_cSTAInits@@3KA          10069dbc     ole32_ALL:COMPOBJ.obj
 0003:00001dc0       ?gdwScmProcessID@@3KA      10069dc0     ole32_ALL:COMPOBJ.obj
 0003:00001dc4       ?g_hinst@@3PAUHINSTANCE__@@A 10069dc4     ole32_ALL:COMPOBJ.obj
 0003:00001dd0       adwQueryInterfaceTable     10069dd0     ole32_ALL:COMPOBJ.obj
 0003:00001de0       ?g_pPatTbl@@3PAVCProcessPatternTbl@@A 10069de0     ole32_ALL:COMPAPI.obj
 0003:00001de4       ?g_pExtTbl@@3PAVCProcessExtensionTbl@@A 10069de4     ole32_ALL:COMPAPI.obj
 0003:00001de8       ?wszCairoRoot@@3PAGA       10069de8     ole32_ALL:COMPAPI.obj
 0003:00001dec       ?gpMTAObjServer@@3PAVCObjServer@@A 10069dec     ole32_ALL:SOBJACT.obj
 0003:00001df0       ?gCapabilities@@3KA        10069df0     ole32_ALL:SECURITY.obj
 0003:00001df4       ?gLegacySecurity@@3PAUtagSECURITYBINDING@@A 10069df4     ole32_ALL:SECURITY.obj
 0003:00001df8       ?gClientSvcList@@3PAGA     10069df8     ole32_ALL:SECURITY.obj
 0003:00001dfc       ?gClientSvcListLen@@3KA    10069dfc     ole32_ALL:SECURITY.obj
 0003:00001e00       ?gServerSvcList@@3PAGA     10069e00     ole32_ALL:SECURITY.obj
 0003:00001e04       ?gServerSvcListLen@@3KA    10069e04     ole32_ALL:SECURITY.obj
 0003:00001e08       ?gDisableDCOM@@3HA         10069e08     ole32_ALL:SECURITY.obj
 0003:00001e0c       ?gGotSecurityData@@3HA     10069e0c     ole32_ALL:SECURITY.obj
 0003:00001e10       ?gAccessControl@@3PAUIAccessControl@@A 10069e10     ole32_ALL:SECURITY.obj
 0003:00001e14       ?gpsaSecurity@@3PAUtagDUALSTRINGARRAY@@A 10069e14     ole32_ALL:SECURITY.obj
 0003:00001e18       ?gDefaultService@@3HA      10069e18     ole32_ALL:SECURITY.obj
 0003:00001e1c       ?gpStdMarshal@@3PAUIMarshal@@A 10069e1c     ole32_ALL:COAPI.obj
 0003:00001e20       ?g_CompName@@3VCComputerName@@A 10069e20     ole32_ALL:COBJACT.obj
 0003:00001e24       ?g_CMalloc@@3UCMalloc@@A   10069e24     ole32_ALL:MEMAPI.obj
 0003:00001e28       ?g_lpVtblMalloc@@3PAUIMallocVtbl@@A 10069e28     ole32_ALL:MEMAPI.obj
 0003:00001e2c       ?g_pMallocSpy@@3PAUIMallocSpy@@A 10069e2c     ole32_ALL:MEMAPI.obj
 0003:00001e30       ?g_dwMallocSpyRegistrationTID@@3KA 10069e30     ole32_ALL:MEMAPI.obj
 0003:00001e34       ?g_fRevokePending@@3HA     10069e34     ole32_ALL:MEMAPI.obj
 0003:00001e38       ?g_pAllocTbl@@3PAVCSpyTable@@A 10069e38     ole32_ALL:MEMAPI.obj
 0003:00001e3c       ?_palloc@COXIDTable@@0VCPageAllocator@@A 10069e3c     ole32_ALL:IPIDTBL.obj
 0003:00001e54       ?_palloc@CMIDTable@@0VCPageAllocator@@A 10069e54     ole32_ALL:IPIDTBL.obj
 0003:00001e6c       ?gIPIDTbl@@3VCIPIDTable@@A 10069e6c     ole32_ALL:IPIDTBL.obj
 0003:00001e6d       ?gMIDTbl@@3VCMIDTable@@A   10069e6d     ole32_ALL:IPIDTBL.obj
 0003:00001e6e       ?gOXIDTbl@@3VCOXIDTable@@A 10069e6e     ole32_ALL:IPIDTBL.obj
 0003:00001e70       ?_palloc@CIPIDTable@@0VCPageAllocator@@A 10069e70     ole32_ALL:IPIDTBL.obj
 0003:00001e88       ?gpLocalMIDEntry@@3PAUtagMIDEntry@@A 10069e88     ole32_ALL:IPIDTBL.obj
 0003:00001e8c       ?gpMTAOXIDEntry@@3PAUtagOXIDEntry@@A 10069e8c     ole32_ALL:IPIDTBL.obj
 0003:00001e90       ?gpsaLocalResolver@@3PAUtagDUALSTRINGARRAY@@A 10069e90     ole32_ALL:IPIDTBL.obj
 0003:00001e94       ?_cExpired@COXIDTable@@0KA 10069e94     ole32_ALL:IPIDTBL.obj
 0003:00001e98       ?gNumExtent@@3KA           10069e98     ole32_ALL:CHOCK.obj
 0003:00001e9c       ?gaChannelHook@@3PAU_GUID@@A 10069e9c     ole32_ALL:CHOCK.obj
 0003:00001ea4       ?hOleAut32@@3PAUHINSTANCE__@@A 10069ea4     ole32_ALL:CERROR.obj
 0003:00001ea8       ?list@working_call@@0PAPAXA 10069ea8     ole32_ALL:CHANNELB.obj
 0003:00001ec8       ?next@working_call@@0KA    10069ec8     ole32_ALL:CHANNELB.obj
 0003:00001ecc       ?DoDebuggerHooks@@3HA      10069ecc     ole32_ALL:CHANNELB.obj
 0003:00001ed0       ?DebuggerArg@@3PAUORPC_INIT_ARGS@@A 10069ed0     ole32_ALL:CHANNELB.obj
 0003:00001ed4       ?gfChannelProcessInitialized@@3HA 10069ed4     ole32_ALL:CHANNELB.obj
 0003:00001ed8       ?gfMTAChannelInitialized@@3HA 10069ed8     ole32_ALL:CHANNELB.obj
 0003:00001edc       ?pROT@@3PAVCRunningObjectTable@@A 10069edc     ole32_ALL:CROT.obj
 0003:00001ee0       g_hCDfMutexCriticalSection 10069ee0     ole32_ALL:storage.obj
 0003:00001ef8       ?gLocalMid@@3_KA           10069ef8     ole32_ALL:RESOLVER.obj
 0003:00001f00       ?_arPreRegOids@CRpcResolver@@0PA_KA 10069f00     ole32_ALL:RESOLVER.obj
 0003:00001f50       ?gResolver@@3VCRpcResolver@@A 10069f50     ole32_ALL:RESOLVER.obj
 0003:00001f54       ?giPingPeriod@@3KA         10069f54     ole32_ALL:RESOLVER.obj
 0003:00001f58       ?_hRpc@CRpcResolver@@0PAXA 10069f58     ole32_ALL:RESOLVER.obj
 0003:00001f5c       ?_ph@CRpcResolver@@0PAXA   10069f5c     ole32_ALL:RESOLVER.obj
 0003:00001f60       ?_fWorker@CRpcResolver@@0HA 10069f60     ole32_ALL:RESOLVER.obj
 0003:00001f64       ?_hEventOXID@CRpcResolver@@0PAXA 10069f64     ole32_ALL:RESOLVER.obj
 0003:00001f68       ?_dwFlags@CRpcResolver@@0KA 10069f68     ole32_ALL:RESOLVER.obj
 0003:00001f6c       ?_dwSleepPeriod@CRpcResolver@@0KA 10069f6c     ole32_ALL:RESOLVER.obj
 0003:00001f70       ?_cReservedOidsAvail@CRpcResolver@@0KA 10069f70     ole32_ALL:RESOLVER.obj
 0003:00001f74       ?_cOidsToAdd@CRpcResolver@@0KA 10069f74     ole32_ALL:RESOLVER.obj
 0003:00001f78       ?_OidNextReserved@CRpcResolver@@0_KA 10069f78     ole32_ALL:RESOLVER.obj
 0003:00001f80       ?_cOidsToRemove@CRpcResolver@@0KA 10069f80     ole32_ALL:RESOLVER.obj
 0003:00001f84       ?_cPreRegOidsAvail@CRpcResolver@@0KA 10069f84     ole32_ALL:RESOLVER.obj
 0003:00001f88       ?_pSCMSTA@CRpcResolver@@0PAUIDSCM@@A 10069f88     ole32_ALL:RESOLVER.obj
 0003:00001f8c       ?_pSCMMTA@CRpcResolver@@0PAUIDSCM@@A 10069f8c     ole32_ALL:RESOLVER.obj
 0003:00001f90       ?_pwszWinstaDesktop@CRpcResolver@@0PAGA 10069f90     ole32_ALL:RESOLVER.obj
 0003:00001f94       ?_dwProcessSignature@CRpcResolver@@0KA 10069f94     ole32_ALL:RESOLVER.obj
 0003:00001f98       ?_bDynamicSecurity@CRpcResolver@@0HA 10069f98     ole32_ALL:RESOLVER.obj
 0003:00001f9c       ?_ClientOIDRegList@CRpcResolver@@0USOIDRegistration@@A 10069f9c     ole32_ALL:RESOLVER.obj
 0003:00001fc8       ?g_hHeap@@3PAXA            10069fc8     ole32_ALL:CCOMPAPI.obj
 0003:00001fcc       ?g_fDllUnloading@@3HA      10069fcc     ole32_ALL:TLS.obj
 0003:00001fd0       ?gTlsIndex@@3KA            10069fd0     ole32_ALL:TLS.obj
 0003:00001fd4       ?g_OleMutexCreationSem@@3UCRITICAL_SECTION@@A 10069fd4     ole32_ALL:OLESEM.obj
 0003:00001fe8       ?g_pInitializedStaticMutexList@@3PAVCOleStaticMutexSem@@A 10069fe8     ole32_ALL:OLESEM.obj
 0003:00001fec       ?g_pIMalloc@@3PAUIMalloc@@A 10069fec     ole32_ALL:ACSRV.obj
 0003:00001ff0       ?g_ulHeaderSize@@3KA       10069ff0     ole32_ALL:ACSRV.obj
 0003:00001ff4       ?g_ServerLock@@3UCRITICAL_SECTION@@A 10069ff4     ole32_ALL:ACSRV.obj
 0003:00002008       ?g_bInitialized@@3HA       1006a008     ole32_ALL:ACSRV.obj
 0003:0000200c       gPFactory                  1006a00c     ole32_ALL:DLLDATAX.obj
 0003:0000201c       ?gcHostProcessInits@@3KA   1006a01c     ole32_ALL:DLLHOST.obj
 0003:00002020       ?gOleWindowClass@@3PAGA    1006a020     ole32_ALL:DLLCACHE.obj
 0003:00002024       ?gdwMainThreadId@@3KA      1006a024     ole32_ALL:DLLCACHE.obj
 0003:00002028       ?hwndOleMainThread@@3PAUHWND__@@A 1006a028     ole32_ALL:DLLCACHE.obj
 0003:0000202c       ?gfDestroyingMainWindow@@3HA 1006a02c     ole32_ALL:DLLCACHE.obj
 0003:00002030       ?gpOIDTable@@3PAVCIDArray@@A 1006a030     ole32_ALL:IDTABLE.obj
 0003:00002034       ?gEventCache@@3VCEventCache@@A 1006a034     ole32_ALL:CHANCONT.obj
 0003:00002035       ?gRpcThreadCache@@3VCRpcThreadCache@@A 1006a035     ole32_ALL:CHANCONT.obj
 0003:00002038       ?_list@CEventCache@@0PAPAXA 1006a038     ole32_ALL:CHANCONT.obj
 0003:00002058       ?_ifree@CEventCache@@0KA   1006a058     ole32_ALL:CHANCONT.obj
 0003:0000205c       ?_palloc@CEndpointsTable@@0VCPageAllocator@@A 1006a05c     ole32_ALL:SERVICE.obj
 0003:00002074       ?gEndpointsTable@@3VCEndpointsTable@@A 1006a074     ole32_ALL:SERVICE.obj
 0003:0000207c       ?gSpeedOverMem@@3HA        1006a07c     ole32_ALL:SERVICE.obj
 0003:00002080       ?gfListening@@3HA          1006a080     ole32_ALL:SERVICE.obj
 0003:00002084       ?gfDefaultStrings@@3HA     1006a084     ole32_ALL:SERVICE.obj
 0003:00002088       ?gfLrpc@@3HA               1006a088     ole32_ALL:SERVICE.obj
 0003:0000208c       ?gdwEndPoint@@3KA          1006a08c     ole32_ALL:SERVICE.obj
 0003:00002090       ?gdwPsaMaxSize@@3KA        1006a090     ole32_ALL:SERVICE.obj
 0003:00002094       ?gpsaCurrentProcess@@3PAUtagDUALSTRINGARRAY@@A 1006a094     ole32_ALL:SERVICE.obj
 0003:000020a4       __@@_PchSym_@00@UygUCGFBUkirezgvUwxlnUlovDCUxlnUrmxUdrmxvUlyqUzineHUivgzroUlovCrmgOlyq@inc 1006a0a4     ole32_ALL:ole2int.obj
 0003:000020a8       ?_pSurrogate@CCOMSurrogate@@0PAUISurrogate@@A 1006a0a8     ole32_ALL:COMSRGT.obj
 0003:000020ac       ?gdllcacheInprocSrv@@3VCDllCache@@A 1006a0ac     ole32_ALL:HOBJACT.obj
 0003:000020f0       ?gdllcacheHandler@@3VCDllCache@@A 1006a0f0     ole32_ALL:HOBJACT.obj
 0003:00002134       ?gIPIDSeqNum@@3JA          1006a134     ole32_ALL:MARSHAL.obj
 0003:00002138       ?saNULL@@3UtagDUALSTRINGARRAY@@A 1006a138     ole32_ALL:MARSHAL.obj
 0003:00002140       ?gptrtlstTreatClasses@@3PAVCTreatList@@A 1006a140     ole32_ALL:TREAT.obj
 0003:00002154       ?gpMTARemoteUnknown@@3PAVCRemoteUnknown@@A 1006a154     ole32_ALL:REMOTEU.obj
 0003:00002158       ?_pFreeList@CRpcThreadCache@@0PAVCRpcThread@@A 1006a158     ole32_ALL:THREADS.obj
 0003:0000215c       ?_palloc@CGIPTable@@0VCPageAllocator@@A 1006a15c     ole32_ALL:GIPTBL.obj
 0003:00002174       ?_fInRevokeAll@CGIPTable@@0HA 1006a174     ole32_ALL:GIPTBL.obj
 0003:00002178       __@@_PchSym_@00@UygUCGFBUkirezgvUwxlnUlovDCnUhgliztvUvckUlyqUzineHUivgzroUvcksvzwOlyq@exp 1006a178     ole32_ALL:exphead.obj
 0003:0000217c       ?fInitialisedSm@@3HA       1006a17c     ole32_ALL:mem.obj
 0003:00002180       ?mxsInitSm@@3VCOleStaticMutexSem@@A 1006a180     ole32_ALL:mem.obj
 0003:0000219c       ?pvDfSharedMemBase@@3PAXA  1006a19c     ole32_ALL:mem.obj
 0003:000021a4       __@@_PchSym_@00@UygUCGFBUkirezgvUwxlnUlovDCnUhgliztvUwlxurovUlyqUzineHUivgzroUwusvzwOlyq@docfile 1006a1a4     ole32_ALL:dfhead.obj
 0003:000021a8       __@@_PchSym_@00@UygUCGFBUkirezgvUwxlnUlovDCnUhgliztvUnhuUlyqUzineHUivgzroUnhusvzwOlyq@msf 1006a1a8     ole32_ALL:msfhead.obj
 0003:000021b0       ?g_csScratchBuffer@@3UCRITICAL_SECTION@@A 1006a1b0     ole32_ALL:mstream.obj
 0003:000031cc       _exitflag                  1006b1cc     corelib0:cexit.obj
 0003:000031d0       any_handle                 1006b1d0     <common>
 0003:000031d4       __onexitend                1006b1d4     <common>
 0003:000031d8       __onexitbegin              1006b1d8     <common>
 0003:000031dc       g_pcsExit                  1006b1dc     <common>
 0003:000031e0       _pRawDllMain               1006b1e0     <common>

 entry point at        0001:0005de64

 Static symbols

 0001:0000afac       ?HexStringToDword@@YAHAAPBGAAKHG@Z 1000bfac f   ole32_ALL:COMPAPI.obj
 0001:000260d0       ?SkipToNext@@YAPAGPAG@Z    100270d0 f   ole32_ALL:PATTBL.obj
 0001:00026134       ?ToHex@@YAEPAG@Z           10027134 f   ole32_ALL:PATTBL.obj
 0001:0002b484       ?wStrtok@@YAPAGPAG0@Z      1002c484 f   ole32_ALL:SERVICE.obj
 0001:0002ba70       ?wReadProtseqsForAppid@@YAJPAUHKEY__@@@Z 1002ca70 f   ole32_ALL:SERVICE.obj
 0001:00030584       ?WriteToRegDb@@YAJPBG0@Z   10031584 f   ole32_ALL:OLE1GUID.obj
 0001:00036800       ?_CreateLoggerHelper@@YAXPAVCDebugEventFire@@@Z 10037800 f   ole32_ALL:events.obj
 0001:0003704c       ?LogEventMarshalHelper@@YAXAAUtagOBJREF@@PAK1@Z 1003804c f   ole32_ALL:events.obj
 0001:00037304       ?_CreateLoggerWorker@@YAKPAX@Z 10038304 f   ole32_ALL:events.obj
 0001:0003c740       ?GetOpenWithMask@@YAJPAUILockBytes@@KHKPAK@Z 1003d740 f   ole32_ALL:lock.obj
 0001:0003cd90       ?ReleaseOpenWithMask@@YAXPAUILockBytes@@KKK@Z 1003dd90 f   ole32_ALL:lock.obj
 0001:00047884       IEnumFORMATETC_DVTARGETDEVICEExprEval_0000 10048884 f   ole32_ALL:mega_p.obj
 0001:0005dd74       _DllMainCRTStartupHelper   1005ed74 f   corelib0:pegdmain.obj
 0001:0005e17c       doexit                     1005f17c f   corelib0:cexit.obj
 0001:0005e4dc       ??__Eg_mxsCoSetState@@YAXXZ 1005f4dc f   ole32_ALL:COMPOBJ.obj
 0001:0005e4e8       ??__Eg_mxsSingleThreadOle@@YAXXZ 1005f4e8 f   ole32_ALL:COMPOBJ.obj
 0001:0005e4f4       ??__EgmxsOleMisc@@YAXXZ    1005f4f4 f   ole32_ALL:COMPOBJ.obj
 0001:0005e500       ??__EgmxsObjReg@@YAXXZ     1005f500 f   ole32_ALL:SOBJACT.obj
 0001:0005e50c       ??__Eg_SpySem@@YAXXZ       1005f50c f   ole32_ALL:MEMAPI.obj
 0001:0005e518       ??__Eg_RotSem@@YAXXZ       1005f518 f   ole32_ALL:CROT.obj
 0001:0005e524       ??__E?_ClientOIDRegList@CRpcResolver@@0USOIDRegistration@@A@@YAXXZ 1005f524 f   ole32_ALL:RESOLVER.obj
 0001:0005e580       ??__EgSTHost@@YAXXZ        1005f580 f   ole32_ALL:DLLHOST.obj
 0001:0005e58c       ??__EgSTMTHost@@YAXXZ      1005f58c f   ole32_ALL:DLLHOST.obj
 0001:0005e598       ??__EgATHost@@YAXXZ        1005f598 f   ole32_ALL:DLLHOST.obj
 0001:0005e5a4       ??__EgMTHost@@YAXXZ        1005f5a4 f   ole32_ALL:DLLHOST.obj
 0001:0005e5b0       ??__EgTblLck@@YAXXZ        1005f5b0 f   ole32_ALL:pexttbl.obj
 0001:0005e5bc       ??__EgComLock@@YAXXZ       1005f5bc f   ole32_ALL:LOCKS.obj
 0001:0005e5c8       ??__EgMtaInitLock@@YAXXZ   1005f5c8 f   ole32_ALL:LOCKS.obj
 0001:0005e5d4       ??__EgdllcacheInprocSrv@@YAXXZ 1005f5d4 f   ole32_ALL:HOBJACT.obj
 0001:0005e5f4       ??__EgdllcacheHandler@@YAXXZ 1005f5f4 f   ole32_ALL:HOBJACT.obj
 0001:0005e614       ??__ERpcKeys@@YAXXZ        1005f614 f   ole32_ALL:events.obj
 0001:0005e640       ??__EMrsKeys@@YAXXZ        1005f640 f   ole32_ALL:events.obj
 0001:0005e66c       ??__EDisKeys@@YAXXZ        1005f66c f   ole32_ALL:events.obj
 0001:0005e688       ??__E?_mxs@CRpcThreadCache@@0VCOleStaticMutexSem@@A@@YAXXZ 1005f688 f   ole32_ALL:THREADS.obj
 0001:0005e694       ??__Fg_mxsCoSetState@@YAXXZ 1005f694 f   ole32_ALL:COMPOBJ.obj
 0001:0005e6a0       ??__Fg_mxsSingleThreadOle@@YAXXZ 1005f6a0 f   ole32_ALL:COMPOBJ.obj
 0001:0005e6ac       ??__FgmxsOleMisc@@YAXXZ    1005f6ac f   ole32_ALL:COMPOBJ.obj
 0001:0005e6b8       ??__FgmxsObjReg@@YAXXZ     1005f6b8 f   ole32_ALL:SOBJACT.obj
 0001:0005e6c4       ??__Fg_SpySem@@YAXXZ       1005f6c4 f   ole32_ALL:MEMAPI.obj
 0001:0005e6d0       ??__Fg_RotSem@@YAXXZ       1005f6d0 f   ole32_ALL:CROT.obj
 0001:0005e6dc       ??__F?_ClientOIDRegList@CRpcResolver@@0USOIDRegistration@@A@@YAXXZ 1005f6dc f   ole32_ALL:RESOLVER.obj
 0001:0005e708       ??__FgSTMTHost@@YAXXZ      1005f708 f   ole32_ALL:DLLHOST.obj
 0001:0005e718       ??__FgATHost@@YAXXZ        1005f718 f   ole32_ALL:DLLHOST.obj
 0001:0005e728       ??__FgMTHost@@YAXXZ        1005f728 f   ole32_ALL:DLLHOST.obj
 0001:0005e738       ??__FgSTHost@@YAXXZ        1005f738 f   ole32_ALL:DLLHOST.obj
 0001:0005e748       ??__FgTblLck@@YAXXZ        1005f748 f   ole32_ALL:pexttbl.obj
 0001:0005e754       ??__FgComLock@@YAXXZ       1005f754 f   ole32_ALL:LOCKS.obj
 0001:0005e760       ??__FgMtaInitLock@@YAXXZ   1005f760 f   ole32_ALL:LOCKS.obj
 0001:0005e76c       ??__FgdllcacheInprocSrv@@YAXXZ 1005f76c f   ole32_ALL:HOBJACT.obj
 0001:0005e778       ??__FgdllcacheHandler@@YAXXZ 1005f778 f   ole32_ALL:HOBJACT.obj
 0001:0005e784       ??__F?_mxs@CRpcThreadCache@@0VCOleStaticMutexSem@@A@@YAXXZ 1005f784 f   ole32_ALL:THREADS.obj
