 pimstore

 Timestamp is 5cafb4a2 (Thu Apr 11 14:41:54 2019)

 Preferred load address is 10000000

 Start         Length     Name                   Class
 0001:00000000 00000004H .CRT$XCA                CODE
 0001:00000004 00000004H .CRT$XCL                CODE
 0001:00000008 00000010H .CRT$XCU                CODE
 0001:00000018 00000004H .CRT$XCZ                CODE
 0001:0000001c 00000004H .CRT$XIA                CODE
 0001:00000020 00000004H .CRT$XIZ                CODE
 0001:00000024 00000004H .CRT$XPA                CODE
 0001:00000028 00000004H .CRT$XPZ                CODE
 0001:0000002c 00000004H .CRT$XTA                CODE
 0001:00000030 00000004H .CRT$XTZ                CODE
 0001:00000040 0001063aH .rdata                  CODE
 0001:0001067c 00000025H .rdata$debug            CODE
 0001:000106a4 000629b0H .text                   CODE
 0001:00073054 000000a0H .text$yc                CODE
 0001:000730f4 00000080H .text$yd                CODE
 0001:00073174 000001b0H .xdata                  CODE
 0001:00073324 00000000H ATL$__a                 CODE
 0001:00073324 00000000H ATL$__z                 CODE
 0001:00073324 000000b4H .idata$2                CODE
 0001:000733d8 00000014H .idata$3                CODE
 0001:000733ec 00000500H .idata$4                CODE
 0001:000738ec 0000055cH .idata$6                CODE
 0001:00073e50 0000036fH .edata                  CODE
 0002:00000000 000004c4H .orpc                   CODE
 0003:00000000 00000500H .idata$5                DATA
 0003:00000500 00002cfcH .data                   DATA
 0003:00003200 00000280H .bss                    DATA
 0004:00000000 000054d8H .pdata                  DATA

  Address         Publics by Value              Rva+Base       Lib:Object

 0000:00000000       ___safe_se_handler_count   00000000     <absolute>
 0000:00000000       ___safe_se_handler_table   00000000     <absolute>
 0001:00000000       __xc_a                     10001000     corelib0:crt0init.obj
 0001:00000018       __xc_z                     10001018     corelib0:crt0init.obj
 0001:0000001c       __xi_a                     1000101c     corelib0:crt0init.obj
 0001:00000020       __xi_z                     10001020     corelib0:crt0init.obj
 0001:00000024       __xp_a                     10001024     corelib0:crt0init.obj
 0001:00000028       __xp_z                     10001028     corelib0:crt0init.obj
 0001:0000002c       __xt_a                     1000102c     corelib0:crt0init.obj
 0001:00000030       __xt_z                     10001030     corelib0:crt0init.obj
 0001:0000005c       ??_C@_1BA@JIHHIEDE@?$AAT?$AAy?$AAp?$AAe?$AAL?$AAi?$AAb?$AA?$AA@ 1000105c     dllmain.obj
 0001:0000006c       ??_C@_1BC@EAHCMADO@?$AAS?$AAo?$AAf?$AAt?$AAw?$AAa?$AAr?$AAe?$AA?$AA@ 1000106c     dllmain.obj
 0001:00000080       ??_C@_1O@GBFINDKL@?$AAS?$AAY?$AAS?$AAT?$AAE?$AAM?$AA?$AA@ 10001080     dllmain.obj
 0001:00000090       ??_C@_1BC@IBECJAAI@?$AAS?$AAE?$AAC?$AAU?$AAR?$AAI?$AAT?$AAY?$AA?$AA@ 10001090     dllmain.obj
 0001:000000a4       ??_C@_17OMAOINJK@?$AAS?$AAA?$AAM?$AA?$AA@ 100010a4     dllmain.obj
 0001:000000ac       ??_C@_19HLLLM@?$AAM?$AAi?$AAm?$AAe?$AA?$AA@ 100010ac     dllmain.obj
 0001:000000b8       ??_C@_1BC@MAICEHGI@?$AAH?$AAa?$AAr?$AAd?$AAw?$AAa?$AAr?$AAe?$AA?$AA@ 100010b8     dllmain.obj
 0001:000000cc       ??_C@_1BE@EKPAFMCP@?$AAI?$AAn?$AAt?$AAe?$AAr?$AAf?$AAa?$AAc?$AAe?$AA?$AA@ 100010cc     dllmain.obj
 0001:000000e0       ??_C@_1BC@NKMMNMGL@?$AAF?$AAi?$AAl?$AAe?$AAT?$AAy?$AAp?$AAe?$AA?$AA@ 100010e0     dllmain.obj
 0001:000000f4       ??_C@_1CK@OEKPKBNA@?$AAC?$AAo?$AAm?$AAp?$AAo?$AAn?$AAe?$AAn?$AAt?$AA?5?$AAC?$AAa?$AAt?$AAe?$AAg?$AAo?$AAr?$AAi?$AAe?$AAs?$AA?$AA@ 100010f4     dllmain.obj
 0001:00000120       ??_C@_1M@KANJNLFF@?$AAC?$AAL?$AAS?$AAI?$AAD?$AA?$AA@ 10001120     dllmain.obj
 0001:0000012c       ??_C@_1M@EJNEECMJ@?$AAA?$AAp?$AAp?$AAI?$AAD?$AA?$AA@ 1000112c     dllmain.obj
 0001:00000138       ??_C@_1O@JDLOHAN@?$AAD?$AAe?$AAl?$AAe?$AAt?$AAe?$AA?$AA@ 10001138     dllmain.obj
 0001:00000148       ??_C@_1BC@GCKHIPE@?$AAN?$AAo?$AAR?$AAe?$AAm?$AAo?$AAv?$AAe?$AA?$AA@ 10001148     dllmain.obj
 0001:0000015c       ??_C@_1BI@JFAIJMHL@?$AAF?$AAo?$AAr?$AAc?$AAe?$AAR?$AAe?$AAm?$AAo?$AAv?$AAe?$AA?$AA@ 1000115c     dllmain.obj
 0001:00000174       ??_C@_17LLMMEOJD@?$AAV?$AAa?$AAl?$AA?$AA@ 10001174     dllmain.obj
 0001:0000017c       ??_C@_13OPKGLAFF@?$AAB?$AA?$AA@ 1000117c     dllmain.obj
 0001:00000180       ??_C@_13MKMNOPIJ@?$AAD?$AA?$AA@ 10001180     dllmain.obj
 0001:00000184       ??_C@_13LHMFKAAD@?$AAM?$AA?$AA@ 10001184     dllmain.obj
 0001:00000188       ??_C@_13HADIAKP@?$AAS?$AA?$AA@ 10001188     dllmain.obj
 0001:0000018c       IID_IChangeEventSink       1000118c     dllmain.obj
 0001:0000019c       IID_ICustomEventSink       1000119c     dllmain.obj
 0001:000001ac       IID_IException             100011ac     dllmain.obj
 0001:000001bc       IID_IExceptions            100011bc     dllmain.obj
 0001:000001cc       IID_ITimeZone              100011cc     dllmain.obj
 0001:000001dc       IID_IRecurrencePattern     100011dc     dllmain.obj
 0001:000001ec       IID_IRecurrencePattern2    100011ec     dllmain.obj
 0001:000001fc       IID_IRecipient             100011fc     dllmain.obj
 0001:0000020c       IID_IPOlRecipient          1000120c     dllmain.obj
 0001:0000021c       IID_IRecipient2            1000121c     dllmain.obj
 0001:0000022c       IID_IRecipients            1000122c     dllmain.obj
 0001:0000023c       IID_IRecipients2           1000123c     dllmain.obj
 0001:0000024c       IID_IPOutlookItemCollection 1000124c     dllmain.obj
 0001:0000025c       IID_IPOutlookItemCollection2 1000125c     dllmain.obj
 0001:0000026c       IID_IPOutlookFolderCollection 1000126c     dllmain.obj
 0001:0000027c       IID_IPOutlookStoreCollection 1000127c     dllmain.obj
 0001:0000028c       IID_IPOlItems              1000128c     dllmain.obj
 0001:0000029c       IID_IContact               1000129c     dllmain.obj
 0001:000002ac       IID_IContact2              100012ac     dllmain.obj
 0001:000002bc       IID_ITask                  100012bc     dllmain.obj
 0001:000002cc       IID_ITask2                 100012cc     dllmain.obj
 0001:000002dc       IID_IAppointment           100012dc     dllmain.obj
 0001:000002ec       IID_IAppointment2          100012ec     dllmain.obj
 0001:000002fc       IID_ICity                  100012fc     dllmain.obj
 0001:0000030c       IID_IFolder                1000130c     dllmain.obj
 0001:0000031c       IID_IFolder2               1000131c     dllmain.obj
 0001:0000032c       IID_IPOutlookApp           1000132c     dllmain.obj
 0001:0000033c       IID_IPOutlookApp2          1000133c     dllmain.obj
 0001:0000034c       IID_IPOutlookApp3          1000134c     dllmain.obj
 0001:0000035c       IID_IStore                 1000135c     dllmain.obj
 0001:0000036c       IID_IItem                  1000136c     dllmain.obj
 0001:0000037c       IID_IItem2                 1000137c     dllmain.obj
 0001:0000038c       IID_IRecipient3            1000138c     dllmain.obj
 0001:0000039c       IID_IPOlItems2             1000139c     dllmain.obj
 0001:000003ac       ITI_ContactItemRef         100013ac     dllmain.obj
 0001:000003bc       CLSID_Application          100013bc     dllmain.obj
 0001:000003cc       IID_IPOlException          100013cc     dllmain.obj
 0001:000003dc       IID_IPOlAppointment        100013dc     dllmain.obj
 0001:000003ec       IID_IPOlTask               100013ec     dllmain.obj
 0001:000003fc       IID_IPOlCalstoreOutlookApp 100013fc     dllmain.obj
 0001:0000040c       IID_IPOutlookAppStoreHook  1000140c     dllmain.obj
 0001:0000041c       IID_IRestriction           1000141c     dllmain.obj
 0001:0000042c       IID_ICollection            1000142c     dllmain.obj
 0001:0000043c       IID_IItemIterator          1000143c     dllmain.obj
 0001:0000044c       IID_IStoreIterator         1000144c     dllmain.obj
 0001:0000045c       IID_IRecipientIterator     1000145c     dllmain.obj
 0001:0000046c       IID_IPOutlookAppPriv       1000146c     dllmain.obj
 0001:0000047c       IID_IContactPrivate        1000147c     dllmain.obj
 0001:0000048c       IID_IPimNewCard            1000148c     dllmain.obj
 0001:0000049c       IID_IPimEditCard           1000149c     dllmain.obj
 0001:000004ac       IID_IPimConfigurationManager 100014ac     dllmain.obj
 0001:000004bc       CLSID_PimConfigurationManager 100014bc     dllmain.obj
 0001:000004ec       ?rgszNeverDelete@CRegParser@ATL@@1QBQBGB 100014ec     dllmain.obj
 0001:0000051c       IID_IPOlContact            1000151c     dllmain.obj
 0001:0000052c       ??_C@_1BO@ONBCMHFO@?$AAL?$AAo?$AAg?$AAi?$AAc?$AAa?$AAl?$AAP?$AAi?$AAx?$AAe?$AAl?$AAs?$AAY?$AA?$AA@ 1000152c     dllmain.obj
 0001:0000054c       ??_C@_1CG@NPAKAMEF@?$AAS?$AAY?$AAS?$AAT?$AAE?$AAM?$AA?2?$AAG?$AAW?$AAE?$AA?2?$AAD?$AAi?$AAs?$AAp?$AAl?$AAa?$AAy?$AA?$AA@ 1000154c     dllmain.obj
 0001:00000574       ??_C@_1BO@FFKOKADL@?$AAL?$AAo?$AAg?$AAi?$AAc?$AAa?$AAl?$AAP?$AAi?$AAx?$AAe?$AAl?$AAs?$AAX?$AA?$AA@ 10001574     dllmain.obj
 0001:00000594       ??_7?$CUnknownImpl@UIClassFactory@@@@6B@ 10001594     dllmain.obj
 0001:000005ac       ??_7CComModule@ATL@@6B@    100015ac     dllmain.obj
 0001:000005d4       _GUID_00000146_0000_0000_c000_000000000046 100015d4     dllmain.obj
 0001:000005e8       ?map@?1??HKeyFromString@CRegParser@ATL@@KAPAUHKEY__@@PAG@Z@4QBUkeymap@?1??123@KAPAU4@0@Z@B 100015e8     dllmain.obj
 0001:00000628       ??_C@_19NCHLBIN@?$AAH?$AAK?$AAC?$AAR?$AA?$AA@ 10001628     dllmain.obj
 0001:00000634       ??_C@_19JAPAIJDE@?$AAH?$AAK?$AAC?$AAU?$AA?$AA@ 10001634     dllmain.obj
 0001:00000640       ??_C@_19PEALEEJB@?$AAH?$AAK?$AAL?$AAM?$AA?$AA@ 10001640     dllmain.obj
 0001:0000064c       ??_C@_17PJOJPMPB@?$AAH?$AAK?$AAU?$AA?$AA@ 1000164c     dllmain.obj
 0001:00000654       ??_C@_1CE@PACHPJFI@?$AAH?$AAK?$AAE?$AAY?$AA_?$AAC?$AAL?$AAA?$AAS?$AAS?$AAE?$AAS?$AA_?$AAR?$AAO?$AAO?$AAT?$AA?$AA@ 10001654     dllmain.obj
 0001:00000678       ??_C@_1CE@HLHNCBPM@?$AAH?$AAK?$AAE?$AAY?$AA_?$AAC?$AAU?$AAR?$AAR?$AAE?$AAN?$AAT?$AA_?$AAU?$AAS?$AAE?$AAR?$AA?$AA@ 10001678     dllmain.obj
 0001:0000069c       ??_C@_1CG@GFBEANJL@?$AAH?$AAK?$AAE?$AAY?$AA_?$AAL?$AAO?$AAC?$AAA?$AAL?$AA_?$AAM?$AAA?$AAC?$AAH?$AAI?$AAN?$AAE?$AA?$AA@ 1000169c     dllmain.obj
 0001:000006c4       ??_C@_1BG@BGODANIO@?$AAH?$AAK?$AAE?$AAY?$AA_?$AAU?$AAS?$AAE?$AAR?$AAS?$AA?$AA@ 100016c4     dllmain.obj
 0001:000006dc       ??_C@_11LOCGONAA@?$AA?$AA@ 100016dc     dllmain.obj
 0001:000006e0       ??_C@_1M@PPPPCDEP@?$AAA?$AAP?$AAP?$AAI?$AAD?$AA?$AA@ 100016e0     dllmain.obj
 0001:000006ec       ??_7CRegObject@ATL@@6B@    100016ec     dllmain.obj
 0001:00000704       ??_C@_1BE@LJOLIMEM@?$AA?$AN?$AA?6?$AA?7?$AA?$HN?$AA?$AN?$AA?6?$AA?$HN?$AA?$AN?$AA?6?$AA?$AA@ 10001704     dllmain.obj
 0001:00000718       ??_C@_1EA@NHKLICFA@?$AAH?$AAK?$AAC?$AAU?$AA?$AN?$AA?6?$AA?$HL?$AA?7?$AAS?$AAo?$AAf?$AAt?$AAw?$AAa?$AAr?$AAe?$AA?$AN?$AA?6?$AA?7?$AA?$HL?$AA?$AN?$AA?6?$AA?7?$AA?7?$AAC?$AAl?$AAa?$AAs?$AAs?$AAe?$AAs?$AA?$AA@ 10001718     dllmain.obj
 0001:00000758       ??_7CPOutlookAppFactory@@6B@ 10001758     dllmain.obj
 0001:00000770       ??_C@_1BC@KAILKFFG@?$AAR?$AAE?$AAG?$AAI?$AAS?$AAT?$AAR?$AAY?$AA?$AA@ 10001770     dllmain.obj
 0001:00000784       ??_C@_1BG@JBACFMF@?$AAM?$AAo?$AAd?$AAu?$AAl?$AAe?$AA_?$AAR?$AAa?$AAw?$AA?$AA@ 10001784     dllmain.obj
 0001:0000079c       ??_C@_1O@MNLDABAF@?$AAM?$AAo?$AAd?$AAu?$AAl?$AAe?$AA?$AA@ 1000179c     dllmain.obj
 0001:000007cc       PS_MAPI                    100017cc     DllLoadCmn.obj
 0001:000007dc       ??_C@_1BC@COPIIC@?$AAt?$AAm?$AAa?$AAi?$AAl?$AAu?$AAt?$AAl?$AA?$AA@ 100017dc     DllLoadCmn.obj
 0001:000007f0       __real@bff0000000000000    100017f0     calstorelib:helper.obj
 0001:00000880       ??_7RGRTime@@6B@           10001880     calstorelib:recur.obj
 0001:00000890       ??_7RGApptRecurBlock@@6B@  10001890     calstorelib:recur.obj
 0001:000008a0       ??_7RGRecX@@6B@            100018a0     calstorelib:recur.obj
 0001:000008b0       ??_7GenericArray@@6B@      100018b0     calstorelib:genarray.obj
 0001:000008c0       ??_C@_1CE@NBLJFFMF@?$AAC?$AAS?$AA?3?$AAG?$AAe?$AAt?$AAH?$AAi?$AAg?$AAh?$AAC?$AAo?$AAn?$AAf?$AAl?$AAc?$AAt?$AA?$AA@ 100018c0     calstorelib:csperf.obj
 0001:000008e4       ??_C@_1DA@FBDGJPJG@?$AAC?$AAS?$AA?3?$AAA?$AAp?$AAp?$AAt?$AAF?$AAr?$AAo?$AAm?$AAC?$AAo?$AAl?$AAl?$AAe?$AAc?$AAt?$AA?3?$AAF?$AAi?$AAl?$AAl?$AA?$AA@ 100018e4     calstorelib:csperf.obj
 0001:00000914       ??_C@_1DA@GPJICDMB@?$AAC?$AAS?$AA?3?$AAA?$AAp?$AAp?$AAt?$AAF?$AAr?$AAo?$AAm?$AAC?$AAo?$AAl?$AAl?$AAe?$AAc?$AAt?$AA?3?$AAI?$AAn?$AAi?$AAt?$AA?$AA@ 10001914     calstorelib:csperf.obj
 0001:00000944       ??_C@_1DE@LLCOIHDK@?$AAC?$AAS?$AA?3?$AAA?$AAp?$AAp?$AAt?$AAF?$AAr?$AAo?$AAm?$AAC?$AAo?$AAl?$AAl?$AAe?$AAc?$AAt?$AA?3?$AAG?$AAe?$AAt?$AAO?$AAi?$AAd?$AA?$AA@ 10001944     calstorelib:csperf.obj
 0001:00000978       ??_C@_1DE@PJGGOAMA@?$AAC?$AAS?$AA?3?$AAA?$AAp?$AAp?$AAt?$AAF?$AAr?$AAo?$AAm?$AAC?$AAo?$AAl?$AAl?$AAe?$AAc?$AAt?$AA?3?$AAC?$AAr?$AAe?$AAa?$AAt?$AAe?$AA?$AA@ 10001978     calstorelib:csperf.obj
 0001:000009ac       ??_C@_1CG@KEHHFONG@?$AAC?$AAS?$AA?3?$AAA?$AAp?$AAp?$AAt?$AAF?$AAr?$AAo?$AAm?$AAC?$AAo?$AAl?$AAl?$AAe?$AAc?$AAt?$AA?$AA@ 100019ac     calstorelib:csperf.obj
 0001:000009d4       ??_C@_1CE@JKNKDHNF@?$AAC?$AAS?$AA?3?$AAA?$AAp?$AAp?$AAt?$AAR?$AAe?$AAc?$AAu?$AAr?$AA?3?$AAX?$AAf?$AAe?$AAr?$AA?$AA@ 100019d4     calstorelib:csperf.obj
 0001:000009f8       ??_C@_1DE@ICFEOPK@?$AAC?$AAS?$AA?3?$AAE?$AAn?$AAu?$AAm?$AAR?$AAe?$AAc?$AAu?$AAr?$AAA?$AAp?$AAp?$AAt?$AA?3?$AAE?$AAn?$AAu?$AAm?$AAI?$AAn?$AAs?$AAt?$AA?$AA@ 100019f8     calstorelib:csperf.obj
 0001:00000a2c       ??_C@_1DE@NGKGAFNF@?$AAC?$AAS?$AA?3?$AAE?$AAn?$AAu?$AAm?$AAR?$AAe?$AAc?$AAu?$AAr?$AAA?$AAp?$AAp?$AAt?$AA?3?$AAG?$AAe?$AAt?$AAC?$AAl?$AAa?$AAs?$AAs?$AA?$AA@ 10001a2c     calstorelib:csperf.obj
 0001:00000a60       ??_C@_1CC@BJGOCGCE@?$AAC?$AAS?$AA?3?$AAE?$AAn?$AAu?$AAm?$AAR?$AAe?$AAc?$AAu?$AAr?$AAA?$AAp?$AAp?$AAt?$AA?$AA@ 10001a60     calstorelib:csperf.obj
 0001:00000a84       ??_C@_1DA@BMGCAGG@?$AAC?$AAS?$AA?3?$AAE?$AAn?$AAu?$AAm?$AAM?$AAD?$AAA?$AAp?$AAp?$AAt?$AAs?$AA?3?$AAM?$AAo?$AAv?$AAe?$AAN?$AAe?$AAx?$AAt?$AA?$AA@ 10001a84     calstorelib:csperf.obj
 0001:00000ab4       ??_C@_1DA@BHODLLDC@?$AAC?$AAS?$AA?3?$AAE?$AAn?$AAu?$AAm?$AAM?$AAD?$AAA?$AAp?$AAp?$AAt?$AAs?$AA?3?$AAE?$AAn?$AAu?$AAm?$AAI?$AAn?$AAs?$AAt?$AA?$AA@ 10001ab4     calstorelib:csperf.obj
 0001:00000ae4       ??_C@_1CO@KIKAKJLP@?$AAC?$AAS?$AA?3?$AAE?$AAn?$AAu?$AAm?$AAM?$AAD?$AAA?$AAp?$AAp?$AAt?$AAs?$AA?3?$AAG?$AAe?$AAt?$AAA?$AAp?$AAp?$AAt?$AA?$AA@ 10001ae4     calstorelib:csperf.obj
 0001:00000b14       ??_C@_1DC@DOCBFDN@?$AAC?$AAS?$AA?3?$AAE?$AAn?$AAu?$AAm?$AAM?$AAD?$AAA?$AAp?$AAp?$AAt?$AAs?$AA?3?$AAM?$AAo?$AAv?$AAe?$AAS?$AAt?$AAa?$AAr?$AAt?$AA?$AA@ 10001b14     calstorelib:csperf.obj
 0001:00000b48       ??_C@_1BO@GCPCCNBI@?$AAC?$AAS?$AA?3?$AAE?$AAn?$AAu?$AAm?$AAM?$AAD?$AAA?$AAp?$AAp?$AAt?$AAs?$AA?$AA@ 10001b48     calstorelib:csperf.obj
 0001:00000b68       ??_C@_1DG@FPLMJLEP@?$AAC?$AAS?$AA?3?$AAE?$AAn?$AAu?$AAm?$AAR?$AAe?$AAc?$AAu?$AAr?$AAA?$AAp?$AAp?$AAt?$AAs?$AA?3?$AAM?$AAo?$AAv?$AAe?$AAN?$AAe?$AAx?$AAt?$AA?$AA@ 10001b68     calstorelib:csperf.obj
 0001:00000ba0       ??_C@_1DE@BIJJJEED@?$AAC?$AAS?$AA?3?$AAE?$AAn?$AAu?$AAm?$AAR?$AAe?$AAc?$AAu?$AAr?$AAA?$AAp?$AAp?$AAt?$AAs?$AA?3?$AAE?$AAn?$AAu?$AAm?$AAR?$AAe?$AAc?$AA?$AA@ 10001ba0     calstorelib:csperf.obj
 0001:00000bd4       ??_C@_1DE@DLEDLMNJ@?$AAC?$AAS?$AA?3?$AAE?$AAn?$AAu?$AAm?$AAR?$AAe?$AAc?$AAu?$AAr?$AAA?$AAp?$AAp?$AAt?$AAs?$AA?3?$AAG?$AAe?$AAt?$AAA?$AAp?$AAp?$AAt?$AA?$AA@ 10001bd4     calstorelib:csperf.obj
 0001:00000c08       ??_C@_1DI@BLBHLOKI@?$AAC?$AAS?$AA?3?$AAE?$AAn?$AAu?$AAm?$AAR?$AAe?$AAc?$AAu?$AAr?$AAA?$AAp?$AAp?$AAt?$AAs?$AA?3?$AAM?$AAo?$AAv?$AAe?$AAS?$AAt?$AAa?$AAr?$AAt?$AA?$AA@ 10001c08     calstorelib:csperf.obj
 0001:00000c40       ??_C@_1CE@FKGPHCEH@?$AAC?$AAS?$AA?3?$AAE?$AAn?$AAu?$AAm?$AAR?$AAe?$AAc?$AAu?$AAr?$AAA?$AAp?$AAp?$AAt?$AAs?$AA?$AA@ 10001c40     calstorelib:csperf.obj
 0001:00000c64       ??_C@_1CM@ONFIDFFL@?$AAC?$AAS?$AA?3?$AAE?$AAn?$AAu?$AAm?$AAA?$AAp?$AAp?$AAt?$AAs?$AAF?$AAr?$AAo?$AAm?$AAC?$AAa?$AAc?$AAh?$AAe?$AA?$AA@ 10001c64     calstorelib:csperf.obj
 0001:00000c90       ??_C@_1CO@MJKBGFLB@?$AAC?$AAS?$AA?3?$AAE?$AAn?$AAu?$AAm?$AAA?$AAp?$AAp?$AAt?$AAs?$AA?3?$AAR?$AAe?$AAc?$AAu?$AAr?$AAr?$AAi?$AAn?$AAg?$AA?$AA@ 10001c90     calstorelib:csperf.obj
 0001:00000cc0       ??_C@_1CM@EGLIDLND@?$AAC?$AAS?$AA?3?$AAE?$AAn?$AAu?$AAm?$AAA?$AAp?$AAp?$AAt?$AAs?$AA?3?$AAM?$AAu?$AAl?$AAt?$AAi?$AAD?$AAa?$AAy?$AA?$AA@ 10001cc0     calstorelib:csperf.obj
 0001:00000cec       ??_C@_1CI@PDCALPHB@?$AAC?$AAS?$AA?3?$AAE?$AAn?$AAu?$AAm?$AAA?$AAp?$AAp?$AAt?$AAs?$AA?3?$AAS?$AAi?$AAn?$AAg?$AAl?$AAe?$AA?$AA@ 10001cec     calstorelib:csperf.obj
 0001:00000d14       ??_C@_1DE@EOLGPCIO@?$AAC?$AAS?$AA?3?$AAE?$AAn?$AAu?$AAm?$AAA?$AAp?$AAp?$AAt?$AAs?$AA?3?$AAC?$AAh?$AAi?$AAl?$AAd?$AAF?$AAo?$AAl?$AAd?$AAe?$AAr?$AAs?$AA?$AA@ 10001d14     calstorelib:csperf.obj
 0001:00000d48       ??_C@_1BK@LHCGEECL@?$AAC?$AAS?$AA?3?$AAE?$AAn?$AAu?$AAm?$AAA?$AAp?$AAp?$AAt?$AAs?$AA?$AA@ 10001d48     calstorelib:csperf.obj
 0001:00000d64       ??_C@_1DE@LFJJINFH@?$AAC?$AAS?$AA?3?$AAP?$AAu?$AAt?$AAA?$AAt?$AAt?$AAe?$AAn?$AAd?$AA?3?$AAC?$AAr?$AAe?$AAa?$AAt?$AAe?$AAE?$AAm?$AAb?$AAe?$AAd?$AA2?$AA?$AA@ 10001d64     calstorelib:csperf.obj
 0001:00000d98       ??_C@_1DA@EJKOOIMN@?$AAC?$AAS?$AA?3?$AAP?$AAu?$AAt?$AAA?$AAt?$AAt?$AAe?$AAn?$AAd?$AA?3?$AAG?$AAe?$AAt?$AAA?$AAt?$AAt?$AAe?$AAn?$AAd?$AA2?$AA?$AA@ 10001d98     calstorelib:csperf.obj
 0001:00000dc8       ??_C@_1DC@MGFBKEJH@?$AAC?$AAS?$AA?3?$AAP?$AAu?$AAt?$AAA?$AAt?$AAt?$AAe?$AAn?$AAd?$AA?3?$AAC?$AAr?$AAe?$AAa?$AAt?$AAe?$AAE?$AAm?$AAb?$AAe?$AAd?$AA?$AA@ 10001dc8     calstorelib:csperf.obj
 0001:00000dfc       ??_C@_1CO@JFFIAGAK@?$AAC?$AAS?$AA?3?$AAP?$AAu?$AAt?$AAA?$AAt?$AAt?$AAe?$AAn?$AAd?$AA?3?$AAG?$AAe?$AAt?$AAA?$AAt?$AAt?$AAe?$AAn?$AAd?$AA?$AA@ 10001dfc     calstorelib:csperf.obj
 0001:00000e2c       ??_C@_1CM@EHINNHAA@?$AAC?$AAS?$AA?3?$AAP?$AAu?$AAt?$AAA?$AAt?$AAt?$AAe?$AAn?$AAd?$AA?3?$AAD?$AAe?$AAl?$AAE?$AAm?$AAb?$AAe?$AAd?$AA?$AA@ 10001e2c     calstorelib:csperf.obj
 0001:00000e58       ??_C@_1BK@DIFOPIPJ@?$AAC?$AAS?$AA?3?$AAP?$AAu?$AAt?$AAA?$AAt?$AAt?$AAe?$AAn?$AAd?$AA?$AA@ 10001e58     calstorelib:csperf.obj
 0001:00000e74       ??_C@_1DG@NKAAONMA@?$AAC?$AAS?$AA?3?$AAS?$AAt?$AAo?$AAr?$AAe?$AA?3?$AAS?$AAe?$AAt?$AAA?$AAl?$AAm?$AA?3?$AAF?$AAl?$AAu?$AAs?$AAh?$AAN?$AAo?$AAt?$AAi?$AAf?$AA?$AA@ 10001e74     calstorelib:csperf.obj
 0001:00000eac       ??_C@_1DC@GBFAIOKF@?$AAC?$AAS?$AA?3?$AAS?$AAt?$AAo?$AAr?$AAe?$AA?3?$AAS?$AAe?$AAt?$AAA?$AAl?$AAm?$AA?3?$AAC?$AAl?$AAr?$AAN?$AAo?$AAt?$AAi?$AAf?$AA?$AA@ 10001eac     calstorelib:csperf.obj
 0001:00000ee0       ??_C@_1DC@GKEKJHNF@?$AAC?$AAS?$AA?3?$AAS?$AAt?$AAo?$AAr?$AAe?$AA?3?$AAS?$AAe?$AAt?$AAA?$AAl?$AAm?$AA?3?$AAS?$AAe?$AAt?$AAN?$AAo?$AAt?$AAi?$AAf?$AA?$AA@ 10001ee0     calstorelib:csperf.obj
 0001:00000f14       ??_C@_1DA@CDHCLDMK@?$AAC?$AAS?$AA?3?$AAS?$AAt?$AAo?$AAr?$AAe?$AA?3?$AAS?$AAe?$AAt?$AAA?$AAl?$AAm?$AA?3?$AAG?$AAe?$AAt?$AAP?$AAr?$AAo?$AAp?$AA?$AA@ 10001f14     calstorelib:csperf.obj
 0001:00000f44       ??_C@_1DE@OHIIMNMJ@?$AAC?$AAS?$AA?3?$AAS?$AAt?$AAo?$AAr?$AAe?$AA?3?$AAS?$AAe?$AAt?$AAA?$AAl?$AAm?$AA?3?$AAG?$AAe?$AAt?$AAF?$AAo?$AAl?$AAd?$AAe?$AAr?$AA?$AA@ 10001f44     calstorelib:csperf.obj
 0001:00000f78       ??_C@_1DA@CBEHDIGL@?$AAC?$AAS?$AA?3?$AAS?$AAt?$AAo?$AAr?$AAe?$AA?3?$AAS?$AAe?$AAt?$AAA?$AAl?$AAm?$AA?3?$AAG?$AAe?$AAt?$AAT?$AAi?$AAm?$AAe?$AA?$AA@ 10001f78     calstorelib:csperf.obj
 0001:00000fa8       ??_C@_1DA@HOLHGGDC@?$AAC?$AAS?$AA?3?$AAS?$AAt?$AAo?$AAr?$AAe?$AA?3?$AAS?$AAe?$AAt?$AAA?$AAl?$AAm?$AA?3?$AAG?$AAe?$AAt?$AAD?$AAa?$AAt?$AAa?$AA?$AA@ 10001fa8     calstorelib:csperf.obj
 0001:00000fd8       ??_C@_1DA@BHKCLBND@?$AAC?$AAS?$AA?3?$AAS?$AAt?$AAo?$AAr?$AAe?$AA?3?$AAS?$AAe?$AAt?$AAA?$AAl?$AAm?$AA?3?$AAG?$AAe?$AAt?$AAL?$AAa?$AAs?$AAt?$AA?$AA@ 10001fd8     calstorelib:csperf.obj
 0001:00001008       ??_C@_1CA@NNDGICAO@?$AAC?$AAS?$AA?3?$AAS?$AAt?$AAo?$AAr?$AAe?$AA?3?$AAS?$AAe?$AAt?$AAA?$AAl?$AAm?$AA?$AA@ 10002008     calstorelib:csperf.obj
 0001:00001028       ??_C@_1DE@GPJBNHCH@?$AAC?$AAS?$AA?3?$AAS?$AAt?$AAo?$AAr?$AAe?$AA?3?$AAC?$AAr?$AAe?$AAa?$AAt?$AAe?$AAA?$AAp?$AAp?$AAt?$AA?3?$AAR?$AAe?$AAs?$AAe?$AAt?$AA?$AA@ 10002028     calstorelib:csperf.obj
 0001:0000105c       ??_C@_1DI@GHCPPLFM@?$AAC?$AAS?$AA?3?$AAS?$AAt?$AAo?$AAr?$AAe?$AA?3?$AAC?$AAr?$AAe?$AAa?$AAt?$AAe?$AAA?$AAp?$AAp?$AAt?$AA?3?$AAI?$AAn?$AAi?$AAt?$AAN?$AAe?$AAw?$AA?$AA@ 1000205c     calstorelib:csperf.obj
 0001:00001094       ??_C@_1DA@IAJKNFMI@?$AAC?$AAS?$AA?3?$AAS?$AAt?$AAo?$AAr?$AAe?$AA?3?$AAC?$AAr?$AAe?$AAa?$AAt?$AAe?$AAA?$AAp?$AAp?$AAt?$AA?3?$AAN?$AAe?$AAw?$AA?$AA@ 10002094     calstorelib:csperf.obj
 0001:000010c4       ??_C@_1CI@LGEOPDGC@?$AAC?$AAS?$AA?3?$AAS?$AAt?$AAo?$AAr?$AAe?$AA?3?$AAC?$AAr?$AAe?$AAa?$AAt?$AAe?$AAA?$AAp?$AAp?$AAt?$AA?$AA@ 100020c4     calstorelib:csperf.obj
 0001:000010ec       ??_C@_1DE@BFOCALAB@?$AAC?$AAS?$AA?3?$AAA?$AAp?$AAp?$AAt?$AA?3?$AAE?$AAn?$AAs?$AAu?$AAr?$AAe?$AAI?$AAt?$AAe?$AAm?$AA?3?$AAG?$AAe?$AAt?$AAO?$AAb?$AAj?$AA?$AA@ 100020ec     calstorelib:csperf.obj
 0001:00001120       ??_C@_1CG@KCAAEMFI@?$AAC?$AAS?$AA?3?$AAA?$AAp?$AAp?$AAt?$AA?3?$AAE?$AAn?$AAs?$AAu?$AAr?$AAe?$AAI?$AAt?$AAe?$AAm?$AA?$AA@ 10002120     calstorelib:csperf.obj
 0001:00001148       ??_C@_1DI@CCDIGJAE@?$AAC?$AAS?$AA?3?$AAA?$AAp?$AAp?$AAt?$AA?3?$AAI?$AAs?$AAR?$AAe?$AAc?$AAu?$AAr?$AA?3?$AAG?$AAe?$AAt?$AAA?$AAp?$AAp?$AAt?$AAD?$AAa?$AAt?$AAa?$AA?$AA@ 10002148     calstorelib:csperf.obj
 0001:00001180       ??_C@_1DI@GKLOGCHE@?$AAC?$AAS?$AA?3?$AAA?$AAp?$AAp?$AAt?$AA?3?$AAE?$AAd?$AAi?$AAt?$AAE?$AAx?$AAc?$AAe?$AAp?$AAt?$AA?3?$AAS?$AAe?$AAt?$AAN?$AAo?$AAt?$AAi?$AAf?$AA?$AA@ 10002180     calstorelib:csperf.obj
 0001:000011b8       ??_C@_1DG@DBIBCCNB@?$AAC?$AAS?$AA?3?$AAA?$AAp?$AAp?$AAt?$AA?3?$AAE?$AAd?$AAi?$AAt?$AAE?$AAx?$AAc?$AAe?$AAp?$AAt?$AA?3?$AAP?$AAa?$AAr?$AAN?$AAe?$AAx?$AAt?$AA?$AA@ 100021b8     calstorelib:csperf.obj
 0001:000011f0       ??_C@_1DE@IGIBLINH@?$AAC?$AAS?$AA?3?$AAA?$AAp?$AAp?$AAt?$AA?3?$AAE?$AAd?$AAi?$AAt?$AAE?$AAx?$AAc?$AAe?$AAp?$AAt?$AA?3?$AAF?$AAl?$AAu?$AAs?$AAh?$AA2?$AA?$AA@ 100021f0     calstorelib:csperf.obj
 0001:00001224       ??_C@_1DM@GGPMDHG@?$AAC?$AAS?$AA?3?$AAA?$AAp?$AAp?$AAt?$AA?3?$AAE?$AAd?$AAi?$AAt?$AAE?$AAx?$AAc?$AAe?$AAp?$AAt?$AA?3?$AAP?$AAu?$AAt?$AAA?$AAt?$AAt?$AAe?$AAn?$AAd?$AA2?$AA?$AA@ 10002224     calstorelib:csperf.obj
 0001:00001260       ??_C@_1DI@JPJLHCCC@?$AAC?$AAS?$AA?3?$AAA?$AAp?$AAp?$AAt?$AA?3?$AAE?$AAd?$AAi?$AAt?$AAE?$AAx?$AAc?$AAe?$AAp?$AAt?$AA?3?$AAG?$AAe?$AAt?$AAO?$AAr?$AAi?$AAg?$AA2?$AA?$AA@ 10002260     calstorelib:csperf.obj
 0001:00001298       ??_C@_1DC@OPJBLCMC@?$AAC?$AAS?$AA?3?$AAA?$AAp?$AAp?$AAt?$AA?3?$AAE?$AAd?$AAi?$AAt?$AAE?$AAx?$AAc?$AAe?$AAp?$AAt?$AA?3?$AAF?$AAl?$AAu?$AAs?$AAh?$AA?$AA@ 10002298     calstorelib:csperf.obj
 0001:000012cc       ??_C@_1DG@NNLMHKJL@?$AAC?$AAS?$AA?3?$AAA?$AAp?$AAp?$AAt?$AA?3?$AAE?$AAd?$AAi?$AAt?$AAE?$AAx?$AAc?$AAe?$AAp?$AAt?$AA?3?$AAG?$AAe?$AAt?$AAI?$AAn?$AAf?$AAo?$AA?$AA@ 100022cc     calstorelib:csperf.obj
 0001:00001304       ??_C@_1DG@DAHAJAMF@?$AAC?$AAS?$AA?3?$AAA?$AAp?$AAp?$AAt?$AA?3?$AAE?$AAd?$AAi?$AAt?$AAE?$AAx?$AAc?$AAe?$AAp?$AAt?$AA?3?$AAS?$AAe?$AAt?$AAP?$AAr?$AAo?$AAp?$AA?$AA@ 10002304     calstorelib:csperf.obj
 0001:0000133c       ??_C@_1DG@PJDIBMNL@?$AAC?$AAS?$AA?3?$AAA?$AAp?$AAp?$AAt?$AA?3?$AAE?$AAd?$AAi?$AAt?$AAE?$AAx?$AAc?$AAe?$AAp?$AAt?$AA?3?$AAX?$AAf?$AAe?$AAr?$AAO?$AAu?$AAt?$AA?$AA@ 1000233c     calstorelib:csperf.obj
 0001:00001374       ??_C@_1DG@FPKDDHCE@?$AAC?$AAS?$AA?3?$AAA?$AAp?$AAp?$AAt?$AA?3?$AAE?$AAd?$AAi?$AAt?$AAE?$AAx?$AAc?$AAe?$AAp?$AAt?$AA?3?$AAG?$AAe?$AAt?$AAD?$AAa?$AAt?$AAa?$AA?$AA@ 10002374     calstorelib:csperf.obj
 0001:000013ac       ??_C@_1DI@KMFAIAKJ@?$AAC?$AAS?$AA?3?$AAA?$AAp?$AAp?$AAt?$AA?3?$AAE?$AAd?$AAi?$AAt?$AAE?$AAx?$AAc?$AAe?$AAp?$AAt?$AA?3?$AAD?$AAe?$AAl?$AAO?$AAc?$AAc?$AAu?$AAr?$AA?$AA@ 100023ac     calstorelib:csperf.obj
 0001:000013e4       ??_C@_1DM@NMJEEGOO@?$AAC?$AAS?$AA?3?$AAA?$AAp?$AAp?$AAt?$AA?3?$AAE?$AAd?$AAi?$AAt?$AAE?$AAx?$AAc?$AAe?$AAp?$AAt?$AA?3?$AAP?$AAu?$AAt?$AAA?$AAt?$AAt?$AAt?$AAe?$AAn?$AAd?$AA?$AA@ 100023e4     calstorelib:csperf.obj
 0001:00001420       ??_C@_1DG@MPFELEIC@?$AAC?$AAS?$AA?3?$AAA?$AAp?$AAp?$AAt?$AA?3?$AAE?$AAd?$AAi?$AAt?$AAE?$AAx?$AAc?$AAe?$AAp?$AAt?$AA?3?$AAG?$AAe?$AAt?$AAO?$AAr?$AAi?$AAg?$AA?$AA@ 10002420     calstorelib:csperf.obj
 0001:00001458       ??_C@_1DG@MNEBAIIG@?$AAC?$AAS?$AA?3?$AAA?$AAp?$AAp?$AAt?$AA?3?$AAE?$AAd?$AAi?$AAt?$AAE?$AAx?$AAc?$AAe?$AAp?$AAt?$AA?3?$AAP?$AAa?$AAr?$AAE?$AAd?$AAi?$AAt?$AA?$AA@ 10002458     calstorelib:csperf.obj
 0001:00001490       ??_C@_1DI@MLPMOKJI@?$AAC?$AAS?$AA?3?$AAA?$AAp?$AAp?$AAt?$AA?3?$AAE?$AAd?$AAi?$AAt?$AAE?$AAx?$AAc?$AAe?$AAp?$AAt?$AA?3?$AAG?$AAe?$AAt?$AAC?$AAl?$AAa?$AAs?$AAs?$AA?$AA@ 10002490     calstorelib:csperf.obj
 0001:000014c8       ??_C@_1CG@KNJDMPJH@?$AAC?$AAS?$AA?3?$AAA?$AAp?$AAp?$AAt?$AA?3?$AAE?$AAd?$AAi?$AAt?$AAE?$AAx?$AAc?$AAe?$AAp?$AAt?$AA?$AA@ 100024c8     calstorelib:csperf.obj
 0001:000014f0       ??_C@_1CO@OMMHDPJM@?$AAC?$AAS?$AA?3?$AAA?$AAp?$AAp?$AAt?$AA?3?$AAG?$AAe?$AAt?$AAO?$AAr?$AAg?$AA?3?$AAG?$AAe?$AAt?$AAS?$AAt?$AAr?$AA2?$AA?$AA@ 100024f0     calstorelib:csperf.obj
 0001:00001520       ??_C@_1CM@PBAOPIBH@?$AAC?$AAS?$AA?3?$AAA?$AAp?$AAp?$AAt?$AA?3?$AAG?$AAe?$AAt?$AAO?$AAr?$AAg?$AA?3?$AAG?$AAe?$AAt?$AAS?$AAt?$AAr?$AA?$AA@ 10002520     calstorelib:csperf.obj
 0001:0000154c       ??_C@_1CO@EPMKAMOL@?$AAC?$AAS?$AA?3?$AAA?$AAp?$AAp?$AAt?$AA?3?$AAG?$AAe?$AAt?$AAO?$AAr?$AAg?$AA?3?$AAG?$AAe?$AAt?$AAP?$AAr?$AAo?$AAp?$AA?$AA@ 1000254c     calstorelib:csperf.obj
 0001:0000157c       ??_C@_1DC@HMCLHBKP@?$AAC?$AAS?$AA?3?$AAA?$AAp?$AAp?$AAt?$AA?3?$AAG?$AAe?$AAt?$AAO?$AAr?$AAg?$AA?3?$AAM?$AAo?$AAv?$AAe?$AAS?$AAt?$AAa?$AAr?$AAt?$AA?$AA@ 1000257c     calstorelib:csperf.obj
 0001:000015b0       ??_C@_1DA@CNBAGFFB@?$AAC?$AAS?$AA?3?$AAA?$AAp?$AAp?$AAt?$AA?3?$AAG?$AAe?$AAt?$AAO?$AAr?$AAg?$AA?3?$AAG?$AAe?$AAt?$AAC?$AAo?$AAu?$AAn?$AAt?$AA?$AA@ 100025b0     calstorelib:csperf.obj
 0001:000015e0       ??_C@_1DA@IKHIIPOC@?$AAC?$AAS?$AA?3?$AAA?$AAp?$AAp?$AAt?$AA?3?$AAG?$AAe?$AAt?$AAO?$AAr?$AAg?$AA?3?$AAG?$AAe?$AAt?$AAE?$AAm?$AAb?$AAe?$AAd?$AA?$AA@ 100025e0     calstorelib:csperf.obj
 0001:00001610       ??_C@_1BO@INHGFNCC@?$AAC?$AAS?$AA?3?$AAA?$AAp?$AAp?$AAt?$AA?3?$AAG?$AAe?$AAt?$AAO?$AAr?$AAg?$AA?$AA@ 10002610     calstorelib:csperf.obj
 0001:00001630       ??_C@_1DC@BFMBALIF@?$AAC?$AAS?$AA?3?$AAA?$AAp?$AAp?$AAt?$AA?3?$AAS?$AAe?$AAt?$AAA?$AAp?$AAp?$AAt?$AA?3?$AAS?$AAe?$AAt?$AAA?$AAl?$AAa?$AAr?$AAm?$AA?$AA@ 10002630     calstorelib:csperf.obj
 0001:00001664       ??_C@_1CM@DHHAGGAK@?$AAC?$AAS?$AA?3?$AAA?$AAp?$AAp?$AAt?$AA?3?$AAS?$AAe?$AAt?$AAA?$AAp?$AAp?$AAt?$AA?3?$AAF?$AAl?$AAu?$AAs?$AAh?$AA?$AA@ 10002664     calstorelib:csperf.obj
 0001:00001690       ??_C@_1DC@EJDBPDKC@?$AAC?$AAS?$AA?3?$AAA?$AAp?$AAp?$AAt?$AA?3?$AAS?$AAe?$AAt?$AAA?$AAp?$AAp?$AAt?$AA?3?$AAS?$AAe?$AAt?$AAC?$AAa?$AAt?$AAe?$AAg?$AA?$AA@ 10002690     calstorelib:csperf.obj
 0001:000016c4       ??_C@_1DE@NPBBEKPD@?$AAC?$AAS?$AA?3?$AAA?$AAp?$AAp?$AAt?$AA?3?$AAS?$AAe?$AAt?$AAA?$AAp?$AAp?$AAt?$AA?3?$AAP?$AAu?$AAt?$AAA?$AAt?$AAt?$AAe?$AAn?$AAd?$AA?$AA@ 100026c4     calstorelib:csperf.obj
 0001:000016f8       ??_C@_1DC@FDJPIINI@?$AAC?$AAS?$AA?3?$AAA?$AAp?$AAp?$AAt?$AA?3?$AAS?$AAe?$AAt?$AAA?$AAp?$AAp?$AAt?$AA?3?$AAS?$AAe?$AAt?$AAP?$AAr?$AAo?$AAp?$AAs?$AA?$AA@ 100026f8     calstorelib:csperf.obj
 0001:0000172c       ??_C@_1DC@LADCBCLO@?$AAC?$AAS?$AA?3?$AAA?$AAp?$AAp?$AAt?$AA?3?$AAS?$AAe?$AAt?$AAA?$AAp?$AAp?$AAt?$AA?3?$AAA?$AAd?$AAd?$AAP?$AAr?$AAo?$AAp?$AAs?$AA?$AA@ 1000272c     calstorelib:csperf.obj
 0001:00001760       ??_C@_1DC@KHGLONAN@?$AAC?$AAS?$AA?3?$AAA?$AAp?$AAp?$AAt?$AA?3?$AAS?$AAe?$AAt?$AAA?$AAp?$AAp?$AAt?$AA?3?$AAG?$AAe?$AAt?$AAC?$AAl?$AAa?$AAs?$AAs?$AA?$AA@ 10002760     calstorelib:csperf.obj
 0001:00001794       ??_C@_1DG@NEENBMGG@?$AAC?$AAS?$AA?3?$AAA?$AAp?$AAp?$AAt?$AA?3?$AAS?$AAe?$AAt?$AAA?$AAp?$AAp?$AAt?$AA?3?$AAR?$AAe?$AAc?$AAu?$AAr?$AAE?$AAq?$AAu?$AAa?$AAl?$AA?$AA@ 10002794     calstorelib:csperf.obj
 0001:000017cc       ??_C@_1DA@KJLHPEGK@?$AAC?$AAS?$AA?3?$AAA?$AAp?$AAp?$AAt?$AA?3?$AAS?$AAe?$AAt?$AAA?$AAp?$AAp?$AAt?$AA?3?$AAG?$AAe?$AAt?$AAD?$AAa?$AAt?$AAa?$AA?$AA@ 100027cc     calstorelib:csperf.obj
 0001:000017fc       ??_C@_1CA@CGBMKGCA@?$AAC?$AAS?$AA?3?$AAA?$AAp?$AAp?$AAt?$AA?3?$AAS?$AAe?$AAt?$AAA?$AAp?$AAp?$AAt?$AA?$AA@ 100027fc     calstorelib:csperf.obj
 0001:0000181c       ??_C@_1DG@FNFIAIMA@?$AAC?$AAS?$AA?3?$AAA?$AAp?$AAp?$AAt?$AA?3?$AAS?$AAe?$AAt?$AAN?$AAo?$AAt?$AAi?$AAf?$AA?3?$AAS?$AAe?$AAt?$AAR?$AAu?$AAn?$AAA?$AAp?$AAp?$AA?$AA@ 1000281c     calstorelib:csperf.obj
 0001:00001854       ??_C@_1DG@ECOJGDMC@?$AAC?$AAS?$AA?3?$AAA?$AAp?$AAp?$AAt?$AA?3?$AAS?$AAe?$AAt?$AAN?$AAo?$AAt?$AAi?$AAf?$AA?3?$AAC?$AAl?$AAr?$AAN?$AAo?$AAt?$AAi?$AAf?$AA2?$AA?$AA@ 10002854     calstorelib:csperf.obj
 0001:0000188c       ??_C@_1DE@JGNMJEIH@?$AAC?$AAS?$AA?3?$AAA?$AAp?$AAp?$AAt?$AA?3?$AAS?$AAe?$AAt?$AAN?$AAo?$AAt?$AAi?$AAf?$AA?3?$AAS?$AAe?$AAt?$AAP?$AAr?$AAo?$AAp?$AAs?$AA?$AA@ 1000288c     calstorelib:csperf.obj
 0001:000018c0       ??_C@_1DG@JLNLJOO@?$AAC?$AAS?$AA?3?$AAA?$AAp?$AAp?$AAt?$AA?3?$AAS?$AAe?$AAt?$AAN?$AAo?$AAt?$AAi?$AAf?$AA?3?$AAS?$AAe?$AAt?$AAN?$AAo?$AAt?$AAi?$AAf?$AA2?$AA?$AA@ 100028c0     calstorelib:csperf.obj
 0001:000018f8       ??_C@_1DE@MDGKHJLO@?$AAC?$AAS?$AA?3?$AAA?$AAp?$AAp?$AAt?$AA?3?$AAS?$AAe?$AAt?$AAN?$AAo?$AAt?$AAi?$AAf?$AA?3?$AAS?$AAe?$AAt?$AAN?$AAo?$AAt?$AAi?$AAf?$AA?$AA@ 100028f8     calstorelib:csperf.obj
 0001:0000192c       ??_C@_1DA@LKOOHPBB@?$AAC?$AAS?$AA?3?$AAA?$AAp?$AAp?$AAt?$AA?3?$AAS?$AAe?$AAt?$AAN?$AAo?$AAt?$AAi?$AAf?$AA?3?$AAG?$AAe?$AAt?$AAS?$AAt?$AAr?$AA?$AA@ 1000292c     calstorelib:csperf.obj
 0001:0000195c       ??_C@_1DC@GIHJHNKP@?$AAC?$AAS?$AA?3?$AAA?$AAp?$AAp?$AAt?$AA?3?$AAS?$AAe?$AAt?$AAN?$AAo?$AAt?$AAi?$AAf?$AA?3?$AAG?$AAe?$AAt?$AAT?$AAi?$AAm?$AAe?$AA?$AA@ 1000295c     calstorelib:csperf.obj
 0001:00001990       ??_C@_1DG@JMCAIBKO@?$AAC?$AAS?$AA?3?$AAA?$AAp?$AAp?$AAt?$AA?3?$AAS?$AAe?$AAt?$AAN?$AAo?$AAt?$AAi?$AAf?$AA?3?$AAG?$AAe?$AAt?$AAA?$AAl?$AAm?$AAS?$AAt?$AAr?$AA?$AA@ 10002990     calstorelib:csperf.obj
 0001:000019c8       ??_C@_1DG@FKMIJBP@?$AAC?$AAS?$AA?3?$AAA?$AAp?$AAp?$AAt?$AA?3?$AAS?$AAe?$AAt?$AAN?$AAo?$AAt?$AAi?$AAf?$AA?3?$AAC?$AAl?$AAr?$AAU?$AAs?$AAr?$AAN?$AAo?$AAt?$AA?$AA@ 100029c8     calstorelib:csperf.obj
 0001:00001a00       ??_C@_1DA@NHAFGOAD@?$AAC?$AAS?$AA?3?$AAA?$AAp?$AAp?$AAt?$AA?3?$AAS?$AAe?$AAt?$AAN?$AAo?$AAt?$AAi?$AAf?$AA?3?$AAG?$AAe?$AAt?$AAE?$AAn?$AAd?$AA?$AA@ 10002a00     calstorelib:csperf.obj
 0001:00001a30       ??_C@_1DC@JNOHDMLM@?$AAC?$AAS?$AA?3?$AAA?$AAp?$AAp?$AAt?$AA?3?$AAS?$AAe?$AAt?$AAN?$AAo?$AAt?$AAi?$AAf?$AA?3?$AAG?$AAe?$AAt?$AAA?$AAp?$AAp?$AAt?$AA?$AA@ 10002a30     calstorelib:csperf.obj
 0001:00001a64       ??_C@_1DC@KCHDHKAA@?$AAC?$AAS?$AA?3?$AAA?$AAp?$AAp?$AAt?$AA?3?$AAS?$AAe?$AAt?$AAN?$AAo?$AAt?$AAi?$AAf?$AA?3?$AAS?$AAe?$AAt?$AAS?$AAn?$AAa?$AAp?$AA?$AA@ 10002a64     calstorelib:csperf.obj
 0001:00001a98       ??_C@_1DC@LEOENKBD@?$AAC?$AAS?$AA?3?$AAA?$AAp?$AAp?$AAt?$AA?3?$AAS?$AAe?$AAt?$AAN?$AAo?$AAt?$AAi?$AAf?$AA?3?$AAG?$AAe?$AAt?$AAN?$AAe?$AAx?$AAt?$AA?$AA@ 10002a98     calstorelib:csperf.obj
 0001:00001acc       ??_C@_1DE@HGADCJEL@?$AAC?$AAS?$AA?3?$AAA?$AAp?$AAp?$AAt?$AA?3?$AAS?$AAe?$AAt?$AAN?$AAo?$AAt?$AAi?$AAf?$AA?3?$AAI?$AAs?$AAR?$AAe?$AAc?$AAu?$AAr?$AAr?$AA?$AA@ 10002acc     calstorelib:csperf.obj
 0001:00001b00       ??_C@_1CC@CLEPPGBH@?$AAC?$AAS?$AA?3?$AAA?$AAp?$AAp?$AAt?$AA?3?$AAS?$AAe?$AAt?$AAN?$AAo?$AAt?$AAi?$AAf?$AA?$AA@ 10002b00     calstorelib:csperf.obj
 0001:00001b24       ??_C@_1CO@BGJFJFGI@?$AAC?$AAS?$AA?3?$AAT?$AAa?$AAs?$AAk?$AA?3?$AAF?$AAo?$AAl?$AAd?$AAe?$AAr?$AAF?$AAr?$AAo?$AAm?$AAT?$AAa?$AAs?$AAk?$AA?$AA@ 10002b24     calstorelib:csperf.obj
 0001:00001b54       ??_C@_1CK@MBLCMDAB@?$AAC?$AAS?$AA?3?$AAT?$AAa?$AAs?$AAk?$AA?3?$AAG?$AAe?$AAt?$AAD?$AAa?$AAt?$AAa?$AA?3?$AAS?$AAt?$AAr?$AAs?$AA?$AA@ 10002b54     calstorelib:csperf.obj
 0001:00001b80       ??_C@_1CK@OFLICOPL@?$AAC?$AAS?$AA?3?$AAT?$AAa?$AAs?$AAk?$AA?3?$AAG?$AAe?$AAt?$AAD?$AAa?$AAt?$AAa?$AA?3?$AAC?$AAo?$AAp?$AAy?$AA?$AA@ 10002b80     calstorelib:csperf.obj
 0001:00001bac       ??_C@_1CM@DBBAAHF@?$AAC?$AAS?$AA?3?$AAT?$AAa?$AAs?$AAk?$AA?3?$AAG?$AAe?$AAt?$AAD?$AAa?$AAt?$AAa?$AA?3?$AAC?$AAa?$AAc?$AAh?$AAe?$AA?$AA@ 10002bac     calstorelib:csperf.obj
 0001:00001bd8       ??_C@_1DC@MBNOHFDD@?$AAC?$AAS?$AA?3?$AAT?$AAa?$AAs?$AAk?$AA?3?$AAG?$AAe?$AAt?$AAD?$AAa?$AAt?$AAa?$AA?3?$AAG?$AAe?$AAt?$AAP?$AAr?$AAo?$AAp?$AAs?$AA?$AA@ 10002bd8     calstorelib:csperf.obj
 0001:00001c0c       ??_C@_1DC@KGPBEKKM@?$AAC?$AAS?$AA?3?$AAT?$AAa?$AAs?$AAk?$AA?3?$AAG?$AAe?$AAt?$AAD?$AAa?$AAt?$AAa?$AA?3?$AAC?$AAh?$AAs?$AAP?$AAr?$AAo?$AAp?$AAs?$AA?$AA@ 10002c0c     calstorelib:csperf.obj
 0001:00001c40       ??_C@_1CA@ICNAMMBM@?$AAC?$AAS?$AA?3?$AAT?$AAa?$AAs?$AAk?$AA?3?$AAG?$AAe?$AAt?$AAD?$AAa?$AAt?$AAa?$AA?$AA@ 10002c40     calstorelib:csperf.obj
 0001:00001c60       ??_C@_1CO@BEOHABCF@?$AAC?$AAS?$AA?3?$AAA?$AAp?$AAp?$AAt?$AA?3?$AAF?$AAi?$AAl?$AAl?$AAA?$AAp?$AAp?$AAt?$AA?3?$AAC?$AAa?$AAc?$AAh?$AAe?$AA?$AA@ 10002c60     calstorelib:csperf.obj
 0001:00001c90       ??_C@_1DC@JLFMCLGA@?$AAC?$AAS?$AA?3?$AAA?$AAp?$AAp?$AAt?$AA?3?$AAF?$AAi?$AAl?$AAl?$AAA?$AAp?$AAp?$AAt?$AA?3?$AAC?$AAo?$AAr?$AAr?$AAe?$AAc?$AAt?$AA?$AA@ 10002c90     calstorelib:csperf.obj
 0001:00001cc4       ??_C@_1DE@CNOEFAG@?$AAC?$AAS?$AA?3?$AAA?$AAp?$AAp?$AAt?$AA?3?$AAF?$AAi?$AAl?$AAl?$AAA?$AAp?$AAp?$AAt?$AA?3?$AAG?$AAe?$AAt?$AAR?$AAe?$AAc?$AAi?$AAp?$AA?$AA@ 10002cc4     calstorelib:csperf.obj
 0001:00001cf8       ??_C@_1DA@LLNEMLF@?$AAC?$AAS?$AA?3?$AAA?$AAp?$AAp?$AAt?$AA?3?$AAF?$AAi?$AAl?$AAl?$AAA?$AAp?$AAp?$AAt?$AA?3?$AAG?$AAe?$AAt?$AAO?$AAr?$AAg?$AA?$AA@ 10002cf8     calstorelib:csperf.obj
 0001:00001d28       ??_C@_1CM@HKNLDNKK@?$AAC?$AAS?$AA?3?$AAA?$AAp?$AAp?$AAt?$AA?3?$AAF?$AAi?$AAl?$AAl?$AAA?$AAp?$AAp?$AAt?$AA?3?$AAS?$AAt?$AAr?$AAs?$AA?$AA@ 10002d28     calstorelib:csperf.obj
 0001:00001d54       ??_C@_1DC@GFILDGLE@?$AAC?$AAS?$AA?3?$AAA?$AAp?$AAp?$AAt?$AA?3?$AAF?$AAi?$AAl?$AAl?$AAA?$AAp?$AAp?$AAt?$AA?3?$AAT?$AAz?$AAC?$AAa?$AAc?$AAh?$AAe?$AA?$AA@ 10002d54     calstorelib:csperf.obj
 0001:00001d88       ??_C@_1DE@PJDFJLLE@?$AAC?$AAS?$AA?3?$AAA?$AAp?$AAp?$AAt?$AA?3?$AAF?$AAi?$AAl?$AAl?$AAA?$AAp?$AAp?$AAt?$AA?3?$AAR?$AAe?$AAc?$AAC?$AAa?$AAc?$AAh?$AAe?$AA?$AA@ 10002d88     calstorelib:csperf.obj
 0001:00001dbc       ??_C@_1DE@IPKPHBK@?$AAC?$AAS?$AA?3?$AAA?$AAp?$AAp?$AAt?$AA?3?$AAF?$AAi?$AAl?$AAl?$AAA?$AAp?$AAp?$AAt?$AA?3?$AAF?$AAi?$AAl?$AAl?$AAT?$AAi?$AAm?$AAe?$AA?$AA@ 10002dbc     calstorelib:csperf.obj
 0001:00001df0       ??_C@_1CM@FONBNAFA@?$AAC?$AAS?$AA?3?$AAA?$AAp?$AAp?$AAt?$AA?3?$AAF?$AAi?$AAl?$AAl?$AAA?$AAp?$AAp?$AAt?$AA?3?$AAC?$AAo?$AAp?$AAy?$AA?$AA@ 10002df0     calstorelib:csperf.obj
 0001:00001e1c       ??_C@_1DE@EKFEKIPK@?$AAC?$AAS?$AA?3?$AAA?$AAp?$AAp?$AAt?$AA?3?$AAF?$AAi?$AAl?$AAl?$AAA?$AAp?$AAp?$AAt?$AA?3?$AAG?$AAe?$AAt?$AAP?$AAr?$AAo?$AAp?$AAs?$AA?$AA@ 10002e1c     calstorelib:csperf.obj
 0001:00001e50       ??_C@_1DE@CNHLJHGF@?$AAC?$AAS?$AA?3?$AAA?$AAp?$AAp?$AAt?$AA?3?$AAF?$AAi?$AAl?$AAl?$AAA?$AAp?$AAp?$AAt?$AA?3?$AAC?$AAh?$AAs?$AAP?$AAr?$AAo?$AAp?$AAs?$AA?$AA@ 10002e50     calstorelib:csperf.obj
 0001:00001e84       ??_C@_1CC@OMMCIOMD@?$AAC?$AAS?$AA?3?$AAA?$AAp?$AAp?$AAt?$AA?3?$AAF?$AAi?$AAl?$AAl?$AAA?$AAp?$AAp?$AAt?$AA?$AA@ 10002e84     calstorelib:csperf.obj
 0001:00001ea8       ??_C@_1CO@CBBGGBPK@?$AAC?$AAS?$AA?3?$AAA?$AAp?$AAp?$AAt?$AA?3?$AAG?$AAe?$AAt?$AAA?$AAp?$AAp?$AAt?$AA?3?$AAA?$AAd?$AAj?$AAu?$AAs?$AAt?$AA?$AA@ 10002ea8     calstorelib:csperf.obj
 0001:00001ed8       ??_C@_1CK@EABBCPNE@?$AAC?$AAS?$AA?3?$AAA?$AAp?$AAp?$AAt?$AA?3?$AAG?$AAe?$AAt?$AAA?$AAp?$AAp?$AAt?$AA?3?$AAC?$AAo?$AAp?$AAy?$AA?$AA@ 10002ed8     calstorelib:csperf.obj
 0001:00001f04       ??_C@_1CK@HDIEIIFK@?$AAC?$AAS?$AA?3?$AAA?$AAp?$AAp?$AAt?$AA?3?$AAG?$AAe?$AAt?$AAA?$AAp?$AAp?$AAt?$AA?3?$AAF?$AAi?$AAl?$AAl?$AA?$AA@ 10002f04     calstorelib:csperf.obj
 0001:00001f30       ??_C@_1CA@BEAKNEDJ@?$AAC?$AAS?$AA?3?$AAA?$AAp?$AAp?$AAt?$AA?3?$AAG?$AAe?$AAt?$AAA?$AAp?$AAp?$AAt?$AA?$AA@ 10002f30     calstorelib:csperf.obj
 0001:00001f50       ??_C@_1CM@OGJACFDI@?$AAC?$AAS?$AA?3?$AAA?$AAp?$AAp?$AAt?$AA?3?$AAI?$AAn?$AAi?$AAt?$AAN?$AAe?$AAw?$AA?3?$AAC?$AAa?$AAc?$AAh?$AAe?$AA?$AA@ 10002f50     calstorelib:csperf.obj
 0001:00001f7c       ??_C@_1DA@NMFGABLL@?$AAC?$AAS?$AA?3?$AAA?$AAp?$AAp?$AAt?$AA?3?$AAI?$AAn?$AAi?$AAt?$AAN?$AAe?$AAw?$AA?3?$AAS?$AAe?$AAt?$AAA?$AAp?$AAp?$AAt?$AA?$AA@ 10002f7c     calstorelib:csperf.obj
 0001:00001fac       ??_C@_1DG@PAFGLCHN@?$AAC?$AAS?$AA?3?$AAA?$AAp?$AAp?$AAt?$AA?3?$AAI?$AAn?$AAi?$AAt?$AAN?$AAe?$AAw?$AA?3?$AAC?$AAr?$AAe?$AAa?$AAt?$AAe?$AAI?$AAt?$AAe?$AAm?$AA?$AA@ 10002fac     calstorelib:csperf.obj
 0001:00001fe4       ??_C@_1CA@LGDEMBJI@?$AAC?$AAS?$AA?3?$AAA?$AAp?$AAp?$AAt?$AA?3?$AAI?$AAn?$AAi?$AAt?$AAN?$AAe?$AAw?$AA?$AA@ 10002fe4     calstorelib:csperf.obj
 0001:00002004       ??_7CPimConfigurationManager@@6B@ 10003004     pimstorelib:factory.obj
 0001:00002030       _GUID_00020412_0000_0000_c000_000000000046 10003030     pimstorelib:factory.obj
 0001:00002040       _GUID_00000000_0000_0000_c000_000000000046 10003040     pimstorelib:factory.obj
 0001:00002050       _GUID_00020401_0000_0000_c000_000000000046 10003050     pimstorelib:factory.obj
 0001:00002060       ??_7?$CComObject@VCPimConfigurationManager@@@ATL@@6B@ 10003060     pimstorelib:factory.obj
 0001:00002090       ?_entries@?1??_GetEntries@CPimConfigurationManager@@SAPBU_ATL_INTMAP_ENTRY@ATL@@XZ@4QBU34@B 10003090     pimstorelib:factory.obj
 0001:000020c0       _GUID_00020400_0000_0000_c000_000000000046 100030c0     pimstorelib:factory.obj
 0001:000020d0       _GUID_1c502e68_c629_4645_9bb7_501ab7050bd4 100030d0     pimstorelib:factory.obj
 0001:000020e0       _GUID_83cfe14c_6d88_403c_87c7_d624cf6f46d4 100030e0     pimstorelib:factory.obj
 0001:000020f0       _GUID_e6a4c648_414c_453c_be07_79430b4adcda 100030f0     pimstorelib:pocketoutlook.obj
 0001:00002100       _GUID_58ed74d6_d2c4_415f_8179_5b67e4043614 10003100     pimstorelib:pocketoutlook.obj
 0001:00002110       _GUID_a65ccaeb_6558_4656_ad3d_eccc00d00f0d 10003110     pimstorelib:pocketoutlook.obj
 0001:00002120       _GUID_7268d1d3_d871_4b70_b1c0_79aefc11c9df 10003120     pimstorelib:pocketoutlook.obj
 0001:00002130       ??_C@_15OLBIGONE@?$AAH?$AAi?$AA?$AA@ 10003130     pimstorelib:Restriction.obj
 0001:00002138       ??_C@_15FFOCHDBO@?$AAL?$AAo?$AA?$AA@ 10003138     pimstorelib:Restriction.obj
 0001:00002140       ??_C@_17CKBBEPIP@?$AAO?$AAO?$AAF?$AA?$AA@ 10003140     pimstorelib:Restriction.obj
 0001:00002148       ??_C@_1BI@NPNCHHKB@?$AAO?$AAu?$AAt?$AAO?$AAf?$AAO?$AAf?$AAf?$AAi?$AAc?$AAe?$AA?$AA@ 10003148     pimstorelib:Restriction.obj
 0001:00002160       ??_C@_19PJALEPJJ@?$AAB?$AAu?$AAs?$AAy?$AA?$AA@ 10003160     pimstorelib:Restriction.obj
 0001:0000216c       ??_C@_1BE@NALKDNCF@?$AAT?$AAe?$AAn?$AAt?$AAa?$AAt?$AAi?$AAv?$AAe?$AA?$AA@ 1000316c     pimstorelib:Restriction.obj
 0001:00002180       ??_C@_19DFGFOPFL@?$AAF?$AAr?$AAe?$AAe?$AA?$AA@ 10003180     pimstorelib:Restriction.obj
 0001:0000218c       ??_C@_19EMIAFPMI@?$AAC?$AAo?$AAn?$AAf?$AA?$AA@ 1000318c     pimstorelib:Restriction.obj
 0001:00002198       ??_C@_19CKLLCGPO@?$AAP?$AAr?$AAi?$AAv?$AA?$AA@ 10003198     pimstorelib:Restriction.obj
 0001:000021a4       ??_C@_19CAKBMKG@?$AAP?$AAe?$AAr?$AAs?$AA?$AA@ 100031a4     pimstorelib:Restriction.obj
 0001:000021b0       ??_C@_19BKGLJBJJ@?$AAN?$AAo?$AAr?$AAm?$AA?$AA@ 100031b0     pimstorelib:Restriction.obj
 0001:000021bc       ??_C@_1M@GDFLIJGE@?$AAF?$AAa?$AAl?$AAs?$AAe?$AA?$AA@ 100031bc     pimstorelib:Restriction.obj
 0001:000021c8       ??_C@_19BFOILMBF@?$AAT?$AAr?$AAu?$AAe?$AA?$AA@ 100031c8     pimstorelib:Restriction.obj
 0001:000021d4       ??_C@_13NMPKAAJP@?$AA?$DN?$AA?$AA@ 100031d4     pimstorelib:Restriction.obj
 0001:000021d8       ??_C@_13MOEPKPHB@?$AA?$DO?$AA?$AA@ 100031d8     pimstorelib:Restriction.obj
 0001:000021dc       ??_C@_13GEEGGHPK@?$AA?$DM?$AA?$AA@ 100031dc     pimstorelib:Restriction.obj
 0001:000021e0       ??_C@_15HCAMBIPN@?$AA?$DO?$AA?$DN?$AA?$AA@ 100031e0     pimstorelib:Restriction.obj
 0001:000021e8       ??_C@_15CNHBBGBI@?$AA?$DM?$AA?$DO?$AA?$AA@ 100031e8     pimstorelib:Restriction.obj
 0001:000021f0       ??_C@_15DPMELJPG@?$AA?$DM?$AA?$DN?$AA?$AA@ 100031f0     pimstorelib:Restriction.obj
 0001:000021f8       ??_C@_17ILBEPGBF@?$AAO?$AAR?$AA?5?$AA?$AA@ 100031f8     pimstorelib:Restriction.obj
 0001:00002200       ??_C@_19GFOBMMIM@?$AAA?$AAN?$AAD?$AA?5?$AA?$AA@ 10003200     pimstorelib:Restriction.obj
 0001:00002304       ??_C@_15NBDHCBMM@?$AAO?$AAR?$AA?$AA@ 10003304     pimstorelib:Restriction.obj
 0001:0000230c       ??_C@_17FOMOEGJD@?$AAA?$AAN?$AAD?$AA?$AA@ 1000330c     pimstorelib:Restriction.obj
 0001:00002314       ??_C@_1CG@EOLCHEAA@?$AA?5?$AAU?$AAn?$AAk?$AAn?$AAo?$AAw?$AAn?$AA?5?$AAO?$AAp?$AAe?$AAr?$AAa?$AAt?$AAo?$AAr?$AA?5?$AA?$AA@ 10003314     pimstorelib:Restriction.obj
 0001:0000233c       ??_C@_1BG@NHPJPNBH@?$AA?$CI?$AA?$CF?$AAs?$AA?5?$AA?$CF?$AAs?$AA?5?$AA?$CF?$AAs?$AA?$CJ?$AA?$AA@ 1000333c     pimstorelib:Restriction.obj
 0001:00002354       ??_C@_1BG@OAMKPMNA@?$AA?$FL?$AA?$CF?$AAs?$AA?$FN?$AA?5?$AA?$CF?$AAs?$AA?5?$AA?$CF?$AAs?$AA?$AA@ 10003354     pimstorelib:Restriction.obj
 0001:0000236c       __real@411885a000000000    1000336c     pimstorelib:Restriction.obj
 0001:00002374       __real@0000000000000000    10003374     pimstorelib:Restriction.obj
 0001:0000237c       ??_7POOMRestrictionHelper@@6B@ 1000337c     pimstorelib:Restriction.obj
 0001:00002390       ??_7CRestriction@@6B@      10003390     pimstorelib:Restriction.obj
 0001:000023cc       ??_7?$CComObject@VPOOMRestrictionHelper@@@ATL@@6B@ 100033cc     pimstorelib:Restriction.obj
 0001:000023e0       ?_entries@?1??_GetEntries@POOMRestrictionHelper@@SAPBU_ATL_INTMAP_ENTRY@ATL@@XZ@4QBU34@B 100033e0     pimstorelib:Restriction.obj
 0001:000023f8       _GUID_3a0b7c7a_e1e2_451c_a1d0_36017a8811fa 100033f8     pimstorelib:Restriction.obj
 0001:00002408       ??_7?$CComObject@VCRestriction@@@ATL@@6B@ 10003408     pimstorelib:Restriction.obj
 0001:00002448       ?_entries@?1??_GetEntries@CRestriction@@SAPBU_ATL_INTMAP_ENTRY@ATL@@XZ@4QBU34@B 10003448     pimstorelib:Restriction.obj
 0001:00002460       _GUID_7bb81126_3784_4de5_882a_55bbab9f82f1 10003460     pimstorelib:Restriction.obj
 0001:00002470       IID_IPOlItems3             10003470     pimstorelib:PhBookAssimilator.obj
 0001:00002480       ??_C@_1BA@DDLIAHFF@?$AAS?$AAi?$AAm?$AA?4?$AAD?$AAL?$AAL?$AA?$AA@ 10003480     pimstorelib:PhBookAssimilator.obj
 0001:00002490       ??_C@_1BK@OHECKHNB@?$AAC?$AAC?$AAo?$AAr?$AAe?$AAU?$AAt?$AAl?$AA?4?$AAd?$AAl?$AAl?$AA?$AA@ 10003490     pimstorelib:PhBookAssimilator.obj
 0001:000024ac       ??_C@_1BM@GFGKFFLJ@?$AAS?$AAi?$AAm?$AAI?$AAn?$AAi?$AAt?$AAi?$AAa?$AAl?$AAi?$AAz?$AAe?$AA?$AA@ 100034ac     pimstorelib:PhBookAssimilator.obj
 0001:000024c8       ??_C@_1CA@MICIEOKE@?$AAS?$AAi?$AAm?$AAD?$AAe?$AAi?$AAn?$AAi?$AAt?$AAi?$AAa?$AAl?$AAi?$AAz?$AAe?$AA?$AA@ 100034c8     pimstorelib:PhBookAssimilator.obj
 0001:000024e8       ??_C@_1DI@PAODNMKG@?$AAS?$AAi?$AAm?$AAG?$AAe?$AAt?$AAP?$AAh?$AAo?$AAn?$AAe?$AAb?$AAo?$AAo?$AAk?$AAC?$AAa?$AAp?$AAa?$AAb?$AAi?$AAl?$AAi?$AAt?$AAi?$AAe?$AAs?$AA?$AA@ 100034e8     pimstorelib:PhBookAssimilator.obj
 0001:00002520       ??_C@_1CM@HIOAGJPH@?$AAS?$AAi?$AAm?$AAG?$AAe?$AAt?$AAP?$AAh?$AAo?$AAn?$AAe?$AAb?$AAo?$AAo?$AAk?$AAS?$AAt?$AAa?$AAt?$AAu?$AAs?$AA?$AA@ 10003520     pimstorelib:PhBookAssimilator.obj
 0001:0000254c       ??_C@_1BM@FLJFJJMC@?$AAS?$AAi?$AAm?$AAG?$AAe?$AAt?$AAD?$AAe?$AAv?$AAC?$AAa?$AAp?$AAs?$AA?$AA@ 1000354c     pimstorelib:PhBookAssimilator.obj
 0001:00002568       ??_C@_1DA@FBHMEKAA@?$AAS?$AAi?$AAm?$AAR?$AAe?$AAa?$AAd?$AAP?$AAh?$AAo?$AAn?$AAe?$AAb?$AAo?$AAo?$AAk?$AAE?$AAn?$AAt?$AAr?$AAi?$AAe?$AAs?$AA?$AA@ 10003568     pimstorelib:PhBookAssimilator.obj
 0001:00002598       ??_C@_1DC@CAFCOCGC@?$AAS?$AAi?$AAm?$AAW?$AAr?$AAi?$AAt?$AAe?$AAP?$AAh?$AAo?$AAn?$AAe?$AAb?$AAo?$AAo?$AAk?$AAE?$AAn?$AAt?$AAr?$AAy?$AAE?$AAx?$AA?$AA@ 10003598     pimstorelib:PhBookAssimilator.obj
 0001:000025cc       ??_C@_1DA@PHIKACIM@?$AAS?$AAi?$AAm?$AAD?$AAe?$AAl?$AAe?$AAt?$AAe?$AAP?$AAh?$AAo?$AAn?$AAe?$AAb?$AAo?$AAo?$AAk?$AAE?$AAn?$AAt?$AAr?$AAy?$AA?$AA@ 100035cc     pimstorelib:PhBookAssimilator.obj
 0001:000025fc       ??_C@_1CE@OIJJKAFE@?$AA?$FL?$AAC?$AAo?$AAn?$AAt?$AAa?$AAc?$AAt?$AAT?$AAy?$AAp?$AAe?$AA?$FN?$AA?5?$AA?$DN?$AA?5?$AA1?$AA?$AA@ 100035fc     pimstorelib:PhBookAssimilator.obj
 0001:00002620       ??_C@_1M@MDNELKBM@?$AA?$FL?$AAO?$AAi?$AAd?$AA?$FN?$AA?$AA@ 10003620     pimstorelib:PhBookAssimilator.obj
 0001:0000262c       ??_C@_1CM@DGMAEOHF@?$AAC?$AAo?$AAn?$AAt?$AAa?$AAc?$AAt?$AAS?$AAi?$AAm?$AAR?$AAe?$AAc?$AAo?$AAr?$AAd?$AAI?$AAn?$AAd?$AAe?$AAx?$AA?$AA@ 1000362c     pimstorelib:PhBookAssimilator.obj
 0001:00002668       ??_C@_19KLMLHLJG@?$AAN?$AAo?$AAn?$AAe?$AA?$AA@ 10003668     pimstorelib:utility.obj
 0001:00002674       ??_C@_13HOIJIPNN@?$AA?5?$AA?$AA@ 10003674     pimstorelib:utility.obj
 0001:00002678       _GUID_ad206d2b_7e48_4f09_a3c2_e9455cbc8243 10003678     pimstorelib:utility.obj
 0001:00002688       ??_C@_1CK@EFIBCMHJ@?$AA?5?$AAU?$AAn?$AAk?$AAn?$AAo?$AAw?$AAn?$AA?5?$AAV?$AAa?$AAl?$AAu?$AAe?$AA?5?$AAT?$AAy?$AAp?$AAe?$AA?5?$AA?$AA@ 10003688     pimstorelib:utility.obj
 0001:000026b4       ??_C@_15KNBIKKIN@?$AA?$CF?$AAd?$AA?$AA@ 100036b4     pimstorelib:utility.obj
 0001:000026bc       ??_C@_19GBMGDAIM@?$AA?$CC?$AA?$CF?$AAs?$AA?$CC?$AA?$AA@ 100036bc     pimstorelib:utility.obj
 0001:000026c8       _GUID_7f804e40_2010_11d2_8f18_0000f87a4335 100036c8     pimstorelib:utility.obj
 0001:000026d8       _GUID_3cd81cfc_088f_4544_a9ab_223dd8e9eb9b 100036d8     pimstorelib:utility.obj
 0001:000027f8       ?msc_rgPhoneProperties@CContact@@1QBIB 100037f8     pimstorelib:contacts.obj
 0001:00002828       ?msc_rgEmailProperties@CContact@@1QBIB 10003828     pimstorelib:contacts.obj
 0001:000028a0       ?msc_rgNameProperties@CContact@@1QBHB 100038a0     pimstorelib:contacts.obj
 0001:000028c0       ?msc_rgpfnSetField@CContact@@1QBQ6AJPAPAXPBG@ZB 100038c0     pimstorelib:contacts.obj
 0001:00002930       ??_7?$CUnknownImpl@UIItem2@@@@6B@ 10003930     pimstorelib:contacts.obj
 0001:00002984       ??_7IPOlContact@@6B@       10003984     pimstorelib:contacts.obj
 0001:00002994       _GUID_0b0c0eb6_4260_43f2_b6b2_321d850c0b16 10003994     pimstorelib:contacts.obj
 0001:000029a4       _GUID_516bcf37_57fe_4248_8bda_9d18d732c131 100039a4     pimstorelib:contacts.obj
 0001:000029b8       ??_7?$CPOOMItem@UIContact2@@@@6B?$CUnknownImpl@UIItem2@@@@@ 100039b8     pimstorelib:contacts.obj
 0001:00002a14       ??_7?$CPOOMItem@UIContact2@@@@6BCDispatchProvider@@@ 10003a14     pimstorelib:contacts.obj
 0001:00002a30       ??_7?$CPOOMItem@UIContact2@@@@6BIItem@@@ 10003a30     pimstorelib:contacts.obj
 0001:00002a78       ??_7?$CPOOMItem@UIContact2@@@@6BCItemProvider@@@ 10003a78     pimstorelib:contacts.obj
 0001:00002ad8       ??_7CContact@@6B?$CUnknownImpl@UIItem2@@@@@ 10003ad8     pimstorelib:contacts.obj
 0001:00002b38       ??_7CContact@@6BCDispatchProvider@@@ 10003b38     pimstorelib:contacts.obj
 0001:00002b58       ??_7CContact@@6BIItem@@@   10003b58     pimstorelib:contacts.obj
 0001:00002ba0       ??_7CContact@@6BCItemProvider@@@ 10003ba0     pimstorelib:contacts.obj
 0001:00002c00       ??_7CContact@@6BIContact2@@@ 10003c00     pimstorelib:contacts.obj
 0001:00002dd8       ??_7CContact@@6BIContact@@@ 10003dd8     pimstorelib:contacts.obj
 0001:00002fa4       ??_7CContact@@6BIPOlContact@@@ 10003fa4     pimstorelib:contacts.obj
 0001:00002fb4       ??_7CContact@@6BIContactPrivate@@@ 10003fb4     pimstorelib:contacts.obj
 0001:00002fc4       _GUID_fb8998d0_38f0_4d12_ac56_4ec8fce9f3d5 10003fc4     pimstorelib:contacts.obj
 0001:00002fd8       ??_7?$CDispatchImpl@UIItem2@@@@6B?$CUnknownImpl@UIItem2@@@@@ 10003fd8     pimstorelib:contacts.obj
 0001:00003030       ??_7?$CDispatchImpl@UIItem2@@@@6BCDispatchProvider@@@ 10004030     pimstorelib:contacts.obj
 0001:0000304c       _GUID_5370942d_f237_4972_9455_b05691270bbc 1000404c     pimstorelib:contacts.obj
 0001:0000305c       _GUID_3e8722b2_8cbf_42fc_a324_9362619e881c 1000405c     pimstorelib:contacts.obj
 0001:0000306c       ??_7CPOOMItemsEnum@@6B@    1000406c     pimstorelib:items.obj
 0001:00003090       ??_7?$CUnknownImpl@UIPOlItems3@@@@6B@ 10004090     pimstorelib:items.obj
 0001:000030ec       _GUID_f25b397b_a282_4c3f_89fb_c7ca9e31c813 100040ec     pimstorelib:items.obj
 0001:000030fc       _GUID_f06748c0_21a5_11d2_8f18_0000f87a4335 100040fc     pimstorelib:items.obj
 0001:00003110       ??_7CItems@@6B?$CUnknownImpl@UIPOlItems3@@@@@ 10004110     pimstorelib:items.obj
 0001:0000316c       ??_7CItems@@6BCDispatchProvider@@@ 1000416c     pimstorelib:items.obj
 0001:00003188       ??_7CItems@@6B@            10004188     pimstorelib:items.obj
 0001:000031d4       ??_C@_1CE@FACFMHDB@?$AA?$FL?$AAC?$AAo?$AAn?$AAt?$AAa?$AAc?$AAt?$AAT?$AAy?$AAp?$AAe?$AA?$FN?$AA?5?$AA?$DN?$AA?5?$AA0?$AA?$AA@ 100041d4     pimstorelib:items.obj
 0001:000031f8       ??_7?$CDispatchImpl@UIPOlItems3@@@@6B?$CUnknownImpl@UIPOlItems3@@@@@ 100041f8     pimstorelib:items.obj
 0001:00003254       ??_7?$CDispatchImpl@UIPOlItems3@@@@6BCDispatchProvider@@@ 10004254     pimstorelib:items.obj
 0001:00003270       ??_C@_1DG@DCFCAGHD@?$AAA?$AAp?$AAp?$AAt?$AAI?$AAt?$AAe?$AAr?$AA?3?$AAG?$AAe?$AAt?$AAI?$AAt?$AAe?$AAm?$AA?3?$AAI?$AAn?$AAi?$AAt?$AAE?$AAx?$AAi?$AAs?$AAt?$AA?$AA@ 10004270     pimstorelib:poomperf.obj
 0001:000032a8       ??_C@_1DC@NEDPJAAN@?$AAA?$AAp?$AAp?$AAt?$AAI?$AAt?$AAe?$AAr?$AA?3?$AAG?$AAe?$AAt?$AAI?$AAt?$AAe?$AAm?$AA?3?$AAN?$AAe?$AAw?$AAA?$AAp?$AAp?$AAt?$AA?$AA@ 100042a8     pimstorelib:poomperf.obj
 0001:000032dc       ??_C@_1DC@JHENIJBA@?$AAA?$AAp?$AAp?$AAt?$AAI?$AAt?$AAe?$AAr?$AA?3?$AAG?$AAe?$AAt?$AAI?$AAt?$AAe?$AAm?$AA?3?$AAG?$AAe?$AAt?$AAI?$AAt?$AAe?$AAm?$AA?$AA@ 100042dc     pimstorelib:poomperf.obj
 0001:00003310       ??_C@_1CC@GDCPMLPO@?$AAA?$AAp?$AAp?$AAt?$AAI?$AAt?$AAe?$AAr?$AA?3?$AAG?$AAe?$AAt?$AAI?$AAt?$AAe?$AAm?$AA?$AA@ 10004310     pimstorelib:poomperf.obj
 0001:00003334       ??_C@_1DM@LELLKOHA@?$AAR?$AAe?$AAc?$AAu?$AAr?$AAC?$AAo?$AAl?$AAl?$AAe?$AAc?$AAt?$AA?3?$AAG?$AAe?$AAt?$AAI?$AAt?$AAe?$AAm?$AA?3?$AAG?$AAe?$AAt?$AAP?$AAr?$AAo?$AAp?$AAs?$AA?$AA@ 10004334     pimstorelib:poomperf.obj
 0001:00003370       ??_C@_1DK@NKPBPLMO@?$AAR?$AAe?$AAc?$AAu?$AAr?$AAC?$AAo?$AAl?$AAl?$AAe?$AAc?$AAt?$AA?3?$AAG?$AAe?$AAt?$AAI?$AAt?$AAe?$AAm?$AA?3?$AAG?$AAe?$AAt?$AAI?$AAt?$AAe?$AAm?$AA?$AA@ 10004370     pimstorelib:poomperf.obj
 0001:000033ac       ??_C@_1DI@IBDKDHFB@?$AAR?$AAe?$AAc?$AAu?$AAr?$AAC?$AAo?$AAl?$AAl?$AAe?$AAc?$AAt?$AA?3?$AAG?$AAe?$AAt?$AAI?$AAt?$AAe?$AAm?$AA?3?$AAE?$AAn?$AAs?$AAu?$AAr?$AAe?$AA?$AA@ 100043ac     pimstorelib:poomperf.obj
 0001:000033e4       ??_C@_1CK@EECJJMGK@?$AAR?$AAe?$AAc?$AAu?$AAr?$AAC?$AAo?$AAl?$AAl?$AAe?$AAc?$AAt?$AA?3?$AAG?$AAe?$AAt?$AAI?$AAt?$AAe?$AAm?$AA?$AA@ 100043e4     pimstorelib:poomperf.obj
 0001:00003410       ??_C@_1DC@JODHINIJ@?$AAT?$AAa?$AAs?$AAk?$AA?3?$AAI?$AAn?$AAi?$AAt?$AAR?$AAe?$AAc?$AA?3?$AAC?$AAr?$AAe?$AAa?$AAt?$AAe?$AAN?$AAo?$AAR?$AAe?$AAc?$AA?$AA@ 10004410     pimstorelib:poomperf.obj
 0001:00003444       ??_C@_1CO@NIKNAJF@?$AAT?$AAa?$AAs?$AAk?$AA?3?$AAI?$AAn?$AAi?$AAt?$AAR?$AAe?$AAc?$AA?3?$AAC?$AAr?$AAe?$AAa?$AAt?$AAe?$AAR?$AAe?$AAc?$AA?$AA@ 10004444     pimstorelib:poomperf.obj
 0001:00003474       ??_C@_1DA@JEONAKFM@?$AAT?$AAa?$AAs?$AAk?$AA?3?$AAI?$AAn?$AAi?$AAt?$AAR?$AAe?$AAc?$AA?3?$AAG?$AAe?$AAt?$AAT?$AAa?$AAs?$AAk?$AAD?$AAa?$AAt?$AA?$AA@ 10004474     pimstorelib:poomperf.obj
 0001:000034a4       ??_C@_1CG@HDGPPFBE@?$AAT?$AAa?$AAs?$AAk?$AA?3?$AAI?$AAn?$AAi?$AAt?$AAR?$AAe?$AAc?$AA?3?$AAI?$AAs?$AAR?$AAe?$AAc?$AA?$AA@ 100044a4     pimstorelib:poomperf.obj
 0001:000034cc       ??_C@_1BK@HLNLPFCO@?$AAT?$AAa?$AAs?$AAk?$AA?3?$AAI?$AAn?$AAi?$AAt?$AAR?$AAe?$AAc?$AA?$AA@ 100044cc     pimstorelib:poomperf.obj
 0001:000034e8       ??_C@_1CK@EHBKCLIH@?$AAT?$AAa?$AAs?$AAk?$AA?3?$AAI?$AAn?$AAi?$AAt?$AAE?$AAx?$AA?3?$AAI?$AAn?$AAi?$AAt?$AAI?$AAt?$AAe?$AAm?$AA?$AA@ 100044e8     pimstorelib:poomperf.obj
 0001:00003514       ??_C@_1CO@HKFECLIG@?$AAT?$AAa?$AAs?$AAk?$AA?3?$AAI?$AAn?$AAi?$AAt?$AAE?$AAx?$AA?3?$AAG?$AAe?$AAt?$AAT?$AAa?$AAs?$AAk?$AAD?$AAa?$AAt?$AA?$AA@ 10004514     pimstorelib:poomperf.obj
 0001:00003544       ??_C@_1CK@NOLGFCMK@?$AAT?$AAa?$AAs?$AAk?$AA?3?$AAI?$AAn?$AAi?$AAt?$AAE?$AAx?$AA?3?$AAG?$AAe?$AAt?$AAS?$AAt?$AAo?$AAr?$AAe?$AA?$AA@ 10004544     pimstorelib:poomperf.obj
 0001:00003570       ??_C@_1CI@CAICDJOG@?$AAT?$AAa?$AAs?$AAk?$AA?3?$AAI?$AAn?$AAi?$AAt?$AAE?$AAx?$AA?3?$AAG?$AAe?$AAt?$AAI?$AAt?$AAe?$AAm?$AA?$AA@ 10004570     pimstorelib:poomperf.obj
 0001:00003598       ??_C@_1CI@DGGNLCKL@?$AAT?$AAa?$AAs?$AAk?$AA?3?$AAI?$AAn?$AAi?$AAt?$AAE?$AAx?$AA?3?$AAG?$AAe?$AAt?$AAT?$AAa?$AAs?$AAk?$AA?$AA@ 10004598     pimstorelib:poomperf.obj
 0001:000035c0       ??_C@_1CI@NGNIODHE@?$AAT?$AAa?$AAs?$AAk?$AA?3?$AAI?$AAn?$AAi?$AAt?$AAE?$AAx?$AA?3?$AAG?$AAe?$AAt?$AAO?$AAb?$AAj?$AAs?$AA?$AA@ 100045c0     pimstorelib:poomperf.obj
 0001:000035e8       ??_C@_1BI@JMNALNBE@?$AAT?$AAa?$AAs?$AAk?$AA?3?$AAI?$AAn?$AAi?$AAt?$AAE?$AAx?$AA?$AA@ 100045e8     pimstorelib:poomperf.obj
 0001:00003600       ??_C@_1CK@MHHKLOLJ@?$AAA?$AAp?$AAp?$AAt?$AA?3?$AAI?$AAn?$AAi?$AAt?$AAE?$AAx?$AA?3?$AAI?$AAn?$AAi?$AAt?$AAI?$AAt?$AAe?$AAm?$AA?$AA@ 10004600     pimstorelib:poomperf.obj
 0001:0000362c       ??_C@_1CI@GJFINKHM@?$AAA?$AAp?$AAp?$AAt?$AA?3?$AAI?$AAn?$AAi?$AAt?$AAE?$AAx?$AA?3?$AAH?$AAn?$AAd?$AAl?$AAR?$AAe?$AAc?$AA?$AA@ 1000462c     pimstorelib:poomperf.obj
 0001:00003654       ??_C@_1CK@HOOFCKCC@?$AAA?$AAp?$AAp?$AAt?$AA?3?$AAI?$AAn?$AAi?$AAt?$AAE?$AAx?$AA?3?$AAG?$AAe?$AAt?$AAA?$AAp?$AAD?$AAa?$AAt?$AA?$AA@ 10004654     pimstorelib:poomperf.obj
 0001:00003680       ??_C@_1CG@BFLHNKGN@?$AAA?$AAp?$AAp?$AAt?$AA?3?$AAI?$AAn?$AAi?$AAt?$AAE?$AAx?$AA?3?$AAG?$AAe?$AAt?$AAO?$AAc?$AAc?$AA?$AA@ 10004680     pimstorelib:poomperf.obj
 0001:000036a8       ??_C@_1CG@HFPGEJBK@?$AAA?$AAp?$AAp?$AAt?$AA?3?$AAI?$AAn?$AAi?$AAt?$AAE?$AAx?$AA?3?$AAC?$AAh?$AAk?$AAR?$AAe?$AAc?$AA?$AA@ 100046a8     pimstorelib:poomperf.obj
 0001:000036d0       ??_C@_1CK@FONGMHPE@?$AAA?$AAp?$AAp?$AAt?$AA?3?$AAI?$AAn?$AAi?$AAt?$AAE?$AAx?$AA?3?$AAG?$AAe?$AAt?$AAS?$AAt?$AAo?$AAr?$AAe?$AA?$AA@ 100046d0     pimstorelib:poomperf.obj
 0001:000036fc       ??_C@_1CI@NCCALPCB@?$AAA?$AAp?$AAp?$AAt?$AA?3?$AAI?$AAn?$AAi?$AAt?$AAE?$AAx?$AA?3?$AAG?$AAe?$AAt?$AAI?$AAt?$AAe?$AAm?$AA?$AA@ 100046fc     pimstorelib:poomperf.obj
 0001:00003724       ??_C@_1CI@DLLHHKBC@?$AAA?$AAp?$AAp?$AAt?$AA?3?$AAI?$AAn?$AAi?$AAt?$AAE?$AAx?$AA?3?$AAG?$AAe?$AAt?$AAA?$AAp?$AAp?$AAt?$AA?$AA@ 10004724     pimstorelib:poomperf.obj
 0001:0000374c       ??_C@_1CI@CEHKGFLD@?$AAA?$AAp?$AAp?$AAt?$AA?3?$AAI?$AAn?$AAi?$AAt?$AAE?$AAx?$AA?3?$AAG?$AAe?$AAt?$AAO?$AAb?$AAj?$AAs?$AA?$AA@ 1000474c     pimstorelib:poomperf.obj
 0001:00003774       ??_C@_1BI@MCDCKCGK@?$AAA?$AAp?$AAp?$AAt?$AA?3?$AAI?$AAn?$AAi?$AAt?$AAE?$AAx?$AA?$AA@ 10004774     pimstorelib:poomperf.obj
 0001:0000378c       ??_C@_1CO@LPGKKOBC@?$AAA?$AAp?$AAp?$AAt?$AA?3?$AAS?$AAa?$AAv?$AAe?$AA?3?$AAR?$AAe?$AAi?$AAn?$AAi?$AAt?$AAE?$AAx?$AAc?$AAe?$AAp?$AAt?$AA?$AA@ 1000478c     pimstorelib:poomperf.obj
 0001:000037bc       ??_C@_1CM@FHGOEODN@?$AAA?$AAp?$AAp?$AAt?$AA?3?$AAS?$AAa?$AAv?$AAe?$AA?3?$AAR?$AAe?$AAi?$AAn?$AAi?$AAt?$AAR?$AAe?$AAc?$AAu?$AAr?$AA?$AA@ 100047bc     pimstorelib:poomperf.obj
 0001:000037e8       ??_C@_1CG@GLNMGBFB@?$AAA?$AAp?$AAp?$AAt?$AA?3?$AAS?$AAa?$AAv?$AAe?$AA?3?$AAS?$AAa?$AAv?$AAe?$AAI?$AAt?$AAe?$AAm?$AA?$AA@ 100047e8     pimstorelib:poomperf.obj
 0001:00003810       ??_C@_1CK@HPFJNDGG@?$AAA?$AAp?$AAp?$AAt?$AA?3?$AAS?$AAa?$AAv?$AAe?$AA?3?$AAS?$AAe?$AAn?$AAd?$AAU?$AAp?$AAd?$AAa?$AAt?$AAe?$AA?$AA@ 10004810     pimstorelib:poomperf.obj
 0001:0000383c       ??_C@_1CK@JGBBAMCP@?$AAA?$AAp?$AAp?$AAt?$AA?3?$AAS?$AAa?$AAv?$AAe?$AA?3?$AAS?$AAe?$AAn?$AAd?$AAC?$AAa?$AAn?$AAc?$AAe?$AAl?$AA?$AA@ 1000483c     pimstorelib:poomperf.obj
 0001:00003868       ??_C@_1CM@GHGGPEGB@?$AAA?$AAp?$AAp?$AAt?$AA?3?$AAS?$AAa?$AAv?$AAe?$AA?3?$AAI?$AAs?$AAR?$AAe?$AAc?$AAu?$AAr?$AAr?$AAi?$AAn?$AAg?$AA?$AA@ 10004868     pimstorelib:poomperf.obj
 0001:00003894       ??_C@_1CM@DJGALDIN@?$AAA?$AAp?$AAp?$AAt?$AA?3?$AAS?$AAa?$AAv?$AAe?$AA?3?$AAO?$AAi?$AAd?$AAF?$AAr?$AAo?$AAm?$AAA?$AAp?$AAp?$AAt?$AA?$AA@ 10004894     pimstorelib:poomperf.obj
 0001:000038c0       ??_C@_1CK@POCDLCGG@?$AAA?$AAp?$AAp?$AAt?$AA?3?$AAS?$AAa?$AAv?$AAe?$AA?3?$AAC?$AAr?$AAe?$AAa?$AAt?$AAe?$AAA?$AAp?$AAp?$AAt?$AA?$AA@ 100048c0     pimstorelib:poomperf.obj
 0001:000038ec       ??_C@_1CM@DGPJPNIO@?$AAA?$AAp?$AAp?$AAt?$AA?3?$AAS?$AAa?$AAv?$AAe?$AA?3?$AAE?$AAn?$AAs?$AAu?$AAr?$AAe?$AAC?$AAa?$AAt?$AAe?$AAg?$AA?$AA@ 100048ec     pimstorelib:poomperf.obj
 0001:00003918       ??_C@_1DC@FPOECFNL@?$AAA?$AAp?$AAp?$AAt?$AA?3?$AAS?$AAa?$AAv?$AAe?$AA?3?$AAU?$AAp?$AAd?$AAa?$AAt?$AAe?$AAA?$AAt?$AAt?$AAe?$AAn?$AAd?$AAe?$AAe?$AA?$AA@ 10004918     pimstorelib:poomperf.obj
 0001:0000394c       ??_C@_1CG@FPANPHDB@?$AAA?$AAp?$AAp?$AAt?$AA?3?$AAS?$AAa?$AAv?$AAe?$AA?3?$AAF?$AAi?$AAn?$AAd?$AAD?$AAi?$AAf?$AAf?$AA?$AA@ 1000494c     pimstorelib:poomperf.obj
 0001:00003974       ??_C@_1CM@JFFDBPMO@?$AAA?$AAp?$AAp?$AAt?$AA?3?$AAS?$AAa?$AAv?$AAe?$AA?3?$AAS?$AAe?$AAt?$AAA?$AAp?$AAp?$AAt?$AAD?$AAa?$AAt?$AAa?$AA?$AA@ 10004974     pimstorelib:poomperf.obj
 0001:000039a0       ??_C@_1CK@BIPFONP@?$AAA?$AAp?$AAp?$AAt?$AA?3?$AAS?$AAa?$AAv?$AAe?$AA?3?$AAE?$AAn?$AAs?$AAu?$AAr?$AAe?$AAS?$AAt?$AAr?$AA2?$AA?$AA@ 100049a0     pimstorelib:poomperf.obj
 0001:000039cc       ??_C@_1CK@LDCNOBOG@?$AAA?$AAp?$AAp?$AAt?$AA?3?$AAS?$AAa?$AAv?$AAe?$AA?3?$AAE?$AAd?$AAi?$AAt?$AAE?$AAx?$AAc?$AAe?$AAp?$AAt?$AA?$AA@ 100049cc     pimstorelib:poomperf.obj
 0001:000039f8       ??_C@_1CI@BGPDDPII@?$AAA?$AAp?$AAp?$AAt?$AA?3?$AAS?$AAa?$AAv?$AAe?$AA?3?$AAI?$AAn?$AAi?$AAt?$AAR?$AAe?$AAc?$AAu?$AAr?$AA?$AA@ 100049f8     pimstorelib:poomperf.obj
 0001:00003a20       ??_C@_1CI@BMPODMIH@?$AAA?$AAp?$AAp?$AAt?$AA?3?$AAS?$AAa?$AAv?$AAe?$AA?3?$AAE?$AAn?$AAs?$AAu?$AAr?$AAe?$AAS?$AAt?$AAr?$AA?$AA@ 10004a20     pimstorelib:poomperf.obj
 0001:00003a48       ??_C@_1CG@FKBOOPPM@?$AAA?$AAp?$AAp?$AAt?$AA?3?$AAS?$AAa?$AAv?$AAe?$AA?3?$AAC?$AAo?$AAp?$AAy?$AAN?$AAo?$AAt?$AAe?$AA?$AA@ 10004a48     pimstorelib:poomperf.obj
 0001:00003a70       ??_C@_1CI@EDGKOKIH@?$AAA?$AAp?$AAp?$AAt?$AA?3?$AAS?$AAa?$AAv?$AAe?$AA?3?$AAA?$AAp?$AAp?$AAt?$AAE?$AAq?$AAu?$AAa?$AAl?$AA?$AA@ 10004a70     pimstorelib:poomperf.obj
 0001:00003a98       ??_C@_1CK@CGCOHHGD@?$AAA?$AAp?$AAp?$AAt?$AA?3?$AAS?$AAa?$AAv?$AAe?$AA?3?$AAC?$AAo?$AAn?$AAv?$AAe?$AAr?$AAt?$AAT?$AAZ?$AA2?$AA?$AA@ 10004a98     pimstorelib:poomperf.obj
 0001:00003ac4       ??_C@_1CM@IDDOPOKM@?$AAA?$AAp?$AAp?$AAt?$AA?3?$AAS?$AAa?$AAv?$AAe?$AA?3?$AAG?$AAe?$AAt?$AAA?$AAp?$AAp?$AAt?$AAD?$AAa?$AAt?$AAa?$AA?$AA@ 10004ac4     pimstorelib:poomperf.obj
 0001:00003af0       ??_C@_1CG@LNGPOFDO@?$AAA?$AAp?$AAp?$AAt?$AA?3?$AAS?$AAa?$AAv?$AAe?$AA?3?$AAV?$AAa?$AAl?$AAi?$AAd?$AAa?$AAt?$AAe?$AA?$AA@ 10004af0     pimstorelib:poomperf.obj
 0001:00003b18       ??_C@_1CO@GJHDDHAJ@?$AAA?$AAp?$AAp?$AAt?$AA?3?$AAS?$AAa?$AAv?$AAe?$AA?3?$AAF?$AAi?$AAl?$AAl?$AAA?$AAt?$AAt?$AAe?$AAn?$AAd?$AAe?$AAe?$AA?$AA@ 10004b18     pimstorelib:poomperf.obj
 0001:00003b48       ??_C@_1CI@MIOIDJOF@?$AAA?$AAp?$AAp?$AAt?$AA?3?$AAS?$AAa?$AAv?$AAe?$AA?3?$AAC?$AAo?$AAn?$AAv?$AAe?$AAr?$AAt?$AAT?$AAZ?$AA?$AA@ 10004b48     pimstorelib:poomperf.obj
 0001:00003b70       ??_C@_1CA@GPKNLKAJ@?$AAA?$AAp?$AAp?$AAt?$AA?3?$AAS?$AAa?$AAv?$AAe?$AA?3?$AAG?$AAe?$AAt?$AAT?$AAZ?$AA?$AA@ 10004b70     pimstorelib:poomperf.obj
 0001:00003b90       ??_C@_1CG@BMIDLJMA@?$AAA?$AAp?$AAp?$AAt?$AA?3?$AAS?$AAa?$AAv?$AAe?$AA?3?$AAC?$AAr?$AAe?$AAa?$AAt?$AAe?$AAT?$AAZ?$AA?$AA@ 10004b90     pimstorelib:poomperf.obj
 0001:00003bb8       ??_C@_1CE@JHBIGPB@?$AAA?$AAp?$AAp?$AAt?$AA?3?$AAS?$AAa?$AAv?$AAe?$AA?3?$AAC?$AAh?$AAa?$AAn?$AAg?$AAe?$AAd?$AA?$AA@ 10004bb8     pimstorelib:poomperf.obj
 0001:00003bdc       ??_C@_1DC@KICGFIDL@?$AAI?$AAt?$AAe?$AAm?$AAP?$AAr?$AAo?$AAv?$AA?3?$AAS?$AAa?$AAv?$AAe?$AAI?$AAt?$AAe?$AAm?$AA?3?$AAS?$AAe?$AAt?$AAS?$AAt?$AAm?$AA?$AA@ 10004bdc     pimstorelib:poomperf.obj
 0001:00003c10       ??_C@_1DG@BEFLAPCP@?$AAI?$AAt?$AAe?$AAm?$AAP?$AAr?$AAo?$AAv?$AA?3?$AAS?$AAa?$AAv?$AAe?$AAI?$AAt?$AAe?$AAm?$AA?3?$AAS?$AAe?$AAt?$AAP?$AAr?$AAo?$AAp?$AAs?$AA?$AA@ 10004c10     pimstorelib:poomperf.obj
 0001:00003c48       ??_C@_1DC@KKJHOCCN@?$AAI?$AAt?$AAe?$AAm?$AAP?$AAr?$AAo?$AAv?$AA?3?$AAS?$AAa?$AAv?$AAe?$AAI?$AAt?$AAe?$AAm?$AA?3?$AAS?$AAe?$AAt?$AAC?$AAa?$AAt?$AA?$AA@ 10004c48     pimstorelib:poomperf.obj
 0001:00003c7c       ??_C@_1DI@NFCKEDEJ@?$AAI?$AAt?$AAe?$AAm?$AAP?$AAr?$AAo?$AAv?$AA?3?$AAS?$AAa?$AAv?$AAe?$AAI?$AAt?$AAe?$AAm?$AA?3?$AAG?$AAe?$AAt?$AAC?$AAa?$AAt?$AAM?$AAg?$AAr?$AA?$AA@ 10004c7c     pimstorelib:poomperf.obj
 0001:00003cb4       ??_C@_1DC@IJOMDALF@?$AAI?$AAt?$AAe?$AAm?$AAP?$AAr?$AAo?$AAv?$AA?3?$AAS?$AAa?$AAv?$AAe?$AAI?$AAt?$AAe?$AAm?$AA?3?$AAE?$AAn?$AAs?$AAu?$AAr?$AAe?$AA?$AA@ 10004cb4     pimstorelib:poomperf.obj
 0001:00003ce8       ??_C@_1CE@PHLDILFG@?$AAI?$AAt?$AAe?$AAm?$AAP?$AAr?$AAo?$AAv?$AA?3?$AAS?$AAa?$AAv?$AAe?$AAI?$AAt?$AAe?$AAm?$AA?$AA@ 10004ce8     pimstorelib:poomperf.obj
 0001:00003d0c       ??_C@_1CO@FMFPHOII@?$AAF?$AAM?$AAa?$AAt?$AAc?$AAh?$AA?3?$AAE?$AAm?$AAb?$AAe?$AAd?$AAd?$AAe?$AAd?$AA?3?$AAD?$AAe?$AAl?$AAA?$AAl?$AAl?$AA?$AA@ 10004d0c     pimstorelib:poomperf.obj
 0001:00003d3c       ??_C@_1DC@NNLFFDNK@?$AAF?$AAM?$AAa?$AAt?$AAc?$AAh?$AA?3?$AAE?$AAm?$AAb?$AAe?$AAd?$AAd?$AAe?$AAd?$AA?3?$AAM?$AAo?$AAv?$AAe?$AAN?$AAe?$AAx?$AAt?$AA?$AA@ 10004d3c     pimstorelib:poomperf.obj
 0001:00003d70       ??_C@_1DC@MEOMGNGK@?$AAF?$AAM?$AAa?$AAt?$AAc?$AAh?$AA?3?$AAE?$AAm?$AAb?$AAe?$AAd?$AAd?$AAe?$AAd?$AA?3?$AAG?$AAe?$AAt?$AAP?$AAr?$AAo?$AAp?$AAs?$AA?$AA@ 10004d70     pimstorelib:poomperf.obj
 0001:00003da4       ??_C@_1DA@BAMNDOLG@?$AAF?$AAM?$AAa?$AAt?$AAc?$AAh?$AA?3?$AAE?$AAm?$AAb?$AAe?$AAd?$AAd?$AAe?$AAd?$AA?3?$AAM?$AAo?$AAv?$AAe?$AAS?$AAt?$AA1?$AA?$AA@ 10004da4     pimstorelib:poomperf.obj
 0001:00003dd4       ??_C@_1DA@MDKLPDDJ@?$AAF?$AAM?$AAa?$AAt?$AAc?$AAh?$AA?3?$AAE?$AAm?$AAb?$AAe?$AAd?$AAd?$AAe?$AAd?$AA?3?$AAG?$AAe?$AAt?$AAO?$AAb?$AAj?$AAs?$AA?$AA@ 10004dd4     pimstorelib:poomperf.obj
 0001:00003e04       ??_C@_1CA@KDHAJJKA@?$AAF?$AAM?$AAa?$AAt?$AAc?$AAh?$AA?3?$AAE?$AAm?$AAb?$AAe?$AAd?$AAd?$AAe?$AAd?$AA?$AA@ 10004e04     pimstorelib:poomperf.obj
 0001:00003e24       ??_C@_1CG@LNPIAILA@?$AAI?$AAs?$AAS?$AAi?$AAm?$AA?3?$AA?3?$AAP?$AAr?$AAo?$AAp?$AAV?$AAa?$AAl?$AAS?$AAa?$AAf?$AAe?$AA?$AA@ 10004e24     pimstorelib:poomperf.obj
 0001:00003e4c       ??_C@_1BO@PDINDGGN@?$AAI?$AAs?$AAS?$AAi?$AAm?$AA?3?$AA?3?$AAG?$AAe?$AAt?$AAP?$AAr?$AAo?$AAp?$AA?$AA@ 10004e4c     pimstorelib:poomperf.obj
 0001:00003e6c       ??_C@_1M@JIAAPAD@?$AAI?$AAs?$AAS?$AAi?$AAm?$AA?$AA@ 10004e6c     pimstorelib:poomperf.obj
 0001:00003e78       ??_C@_1CC@DKOHPJHM@?$AAS?$AAt?$AAo?$AAr?$AAe?$AA?3?$AA?3?$AAG?$AAe?$AAt?$AAI?$AAt?$AAe?$AAm?$AAI?$AAd?$AA?$AA@ 10004e78     pimstorelib:poomperf.obj
 0001:00003e9c       ??_C@_1CG@MJEKECNA@?$AAI?$AAt?$AAe?$AAm?$AA?3?$AA?3?$AAG?$AAe?$AAt?$AAN?$AAa?$AAm?$AAe?$AAd?$AAP?$AAr?$AAo?$AAp?$AA?$AA@ 10004e9c     pimstorelib:poomperf.obj
 0001:00003ec4       ??_C@_1DG@DAMHIALL@?$AAP?$AAO?$AAO?$AAM?$AA?3?$AA?3?$AAG?$AAe?$AAt?$AAP?$AAr?$AAo?$AAp?$AAE?$AAx?$AAt?$AAr?$AAa?$AAD?$AAa?$AAt?$AAa?$AAS?$AAi?$AAz?$AAe?$AA?$AA@ 10004ec4     pimstorelib:poomperf.obj
 0001:00003efc       ??_C@_1CK@HMAKENEJ@?$AAC?$AAD?$AAB?$AAP?$AA?3?$AAS?$AAa?$AAv?$AAe?$AA?3?$AAC?$AAr?$AAe?$AAa?$AAt?$AAe?$AAI?$AAt?$AAe?$AAm?$AA?$AA@ 10004efc     pimstorelib:poomperf.obj
 0001:00003f28       ??_C@_1CM@PGJHMCNH@?$AAC?$AAD?$AAB?$AAP?$AA?3?$AAS?$AAa?$AAv?$AAe?$AA?3?$AAS?$AAe?$AAt?$AAP?$AAr?$AAo?$AAp?$AAV?$AAa?$AAl?$AAs?$AA?$AA@ 10004f28     pimstorelib:poomperf.obj
 0001:00003f54       ??_C@_1CE@DALFMFEB@?$AAC?$AAD?$AAB?$AAP?$AA?3?$AAS?$AAa?$AAv?$AAe?$AA?3?$AAC?$AAo?$AAl?$AAl?$AAe?$AAc?$AAt?$AA?$AA@ 10004f54     pimstorelib:poomperf.obj
 0001:00003f78       ??_C@_1BE@DEHEJMCK@?$AAC?$AAD?$AAB?$AAP?$AA?3?$AAS?$AAa?$AAv?$AAe?$AA?$AA@ 10004f78     pimstorelib:poomperf.obj
 0001:00003f8c       ??_C@_1CG@FJFDHHPD@?$AAC?$AAD?$AAB?$AAP?$AA?3?$AA?3?$AAI?$AAn?$AAi?$AAt?$AAE?$AAx?$AAi?$AAs?$AAt?$AAi?$AAn?$AAg?$AA?$AA@ 10004f8c     pimstorelib:poomperf.obj
 0001:00003fb4       ??_C@_1CK@HKHJPAHG@?$AAC?$AAD?$AAB?$AAP?$AA?3?$AA?3?$AAC?$AAa?$AAc?$AAh?$AAe?$AAI?$AAn?$AAi?$AAt?$AAP?$AAr?$AAo?$AAp?$AAs?$AA?$AA@ 10004fb4     pimstorelib:poomperf.obj
 0001:00003fe0       ??_C@_1BO@KCGFKLCN@?$AAC?$AAD?$AAB?$AAP?$AA?3?$AA?3?$AAF?$AAi?$AAn?$AAd?$AAP?$AAr?$AAo?$AAp?$AA?$AA@ 10004fe0     pimstorelib:poomperf.obj
 0001:00004000       ??_C@_1CK@LDOKNBJI@?$AAC?$AAD?$AAB?$AAP?$AA?3?$AA?3?$AAG?$AAe?$AAt?$AAS?$AAt?$AAr?$AAP?$AAr?$AAo?$AAp?$AAe?$AAr?$AAt?$AAy?$AA?$AA@ 10005000     pimstorelib:poomperf.obj
 0001:0000402c       ??_C@_1CE@FHLFMCGG@?$AAC?$AAD?$AAB?$AAP?$AA?3?$AA?3?$AAG?$AAe?$AAt?$AAP?$AAr?$AAo?$AAp?$AAe?$AAr?$AAt?$AAy?$AA?$AA@ 1000502c     pimstorelib:poomperf.obj
 0001:00004050       ??_C@_1CO@IFBLMOD@?$AAC?$AAD?$AAB?$AAP?$AA?3?$AA?3?$AAG?$AAe?$AAt?$AAI?$AAn?$AAd?$AAe?$AAx?$AAF?$AAr?$AAo?$AAm?$AAP?$AAr?$AAo?$AAp?$AA?$AA@ 10005050     pimstorelib:poomperf.obj
 0001:00004080       ??_C@_1BO@MMEJHFAL@?$AAP?$AAO?$AAO?$AAM?$AA?3?$AA?3?$AAC?$AAo?$AAp?$AAy?$AAP?$AAr?$AAo?$AAp?$AA?$AA@ 10005080     pimstorelib:poomperf.obj
 0001:000040a0       ??_C@_1DC@FMFDADLF@?$AAC?$AAn?$AAc?$AAt?$AA?3?$AAS?$AAh?$AAo?$AAw?$AAE?$AAx?$AAt?$AAe?$AAn?$AAd?$AAe?$AAd?$AAN?$AAe?$AAw?$AAC?$AAa?$AAr?$AAd?$AA?$AA@ 100050a0     pimstorelib:poomperf.obj
 0001:000040d4       ??_C@_1CG@PAEAMII@?$AAC?$AAn?$AAc?$AAt?$AA?3?$AAU?$AAp?$AAd?$AAH?$AAe?$AAl?$AAp?$AA?3?$AAA?$AAs?$AAs?$AAo?$AAc?$AA?$AA@ 100050d4     pimstorelib:poomperf.obj
 0001:000040fc       ??_C@_1DC@OIJCFJDA@?$AAC?$AAn?$AAc?$AAt?$AA?3?$AAU?$AAp?$AAd?$AAH?$AAe?$AAl?$AAp?$AA?3?$AAC?$AAr?$AAe?$AAa?$AAt?$AAe?$AAE?$AAm?$AAb?$AAe?$AAd?$AA?$AA@ 100050fc     pimstorelib:poomperf.obj
 0001:00004130       ??_C@_1CE@DPBGEBMH@?$AAC?$AAn?$AAc?$AAt?$AA?3?$AAU?$AAp?$AAd?$AAH?$AAe?$AAl?$AAp?$AA?3?$AAH?$AAa?$AAs?$AAh?$AA?$AA@ 10005130     pimstorelib:poomperf.obj
 0001:00004154       ??_C@_1CK@NHCJLNIH@?$AAC?$AAn?$AAc?$AAt?$AA?3?$AAU?$AAp?$AAd?$AAH?$AAe?$AAl?$AAp?$AA?3?$AAG?$AAe?$AAt?$AAP?$AAr?$AAo?$AAp?$AA?$AA@ 10005154     pimstorelib:poomperf.obj
 0001:00004180       ??_C@_1CE@MCMOEOBP@?$AAC?$AAn?$AAc?$AAt?$AA?3?$AAU?$AAp?$AAd?$AAH?$AAe?$AAl?$AAp?$AA?3?$AAL?$AAo?$AAo?$AAp?$AA?$AA@ 10005180     pimstorelib:poomperf.obj
 0001:000041a4       ??_C@_1BK@DFBGFLMD@?$AAC?$AAn?$AAc?$AAt?$AA?3?$AAU?$AAp?$AAd?$AAH?$AAe?$AAl?$AAp?$AA?$AA@ 100051a4     pimstorelib:poomperf.obj
 0001:000041c0       ??_C@_1DE@JDGNKOAM@?$AAC?$AAn?$AAc?$AAt?$AA?3?$AAU?$AAp?$AAd?$AAQ?$AAu?$AAi?$AAc?$AAk?$AA?3?$AAU?$AAp?$AAd?$AAa?$AAt?$AAe?$AAE?$AAm?$AAa?$AAi?$AAl?$AA?$AA@ 100051c0     pimstorelib:poomperf.obj
 0001:000041f4       ??_C@_1DE@JEHIJCKE@?$AAC?$AAn?$AAc?$AAt?$AA?3?$AAU?$AAp?$AAd?$AAQ?$AAu?$AAi?$AAc?$AAk?$AA?3?$AAU?$AAp?$AAd?$AAa?$AAt?$AAe?$AAP?$AAh?$AAo?$AAn?$AAe?$AA?$AA@ 100051f4     pimstorelib:poomperf.obj
 0001:00004228       ??_C@_1DE@CFNHOHFE@?$AAC?$AAn?$AAc?$AAt?$AA?3?$AAU?$AAp?$AAd?$AAQ?$AAu?$AAi?$AAc?$AAk?$AA?3?$AAD?$AAe?$AAl?$AAe?$AAt?$AAe?$AAE?$AAm?$AAb?$AAe?$AAd?$AA?$AA@ 10005228     pimstorelib:poomperf.obj
 0001:0000425c       ??_C@_1BM@ILPEGBDB@?$AAC?$AAn?$AAc?$AAt?$AA?3?$AAU?$AAp?$AAd?$AAQ?$AAu?$AAi?$AAc?$AAk?$AA?$AA@ 1000525c     pimstorelib:poomperf.obj
 0001:00004278       ??_C@_1CK@JDACEJMH@?$AAC?$AAn?$AAc?$AAt?$AA?3?$AAS?$AAa?$AAv?$AAe?$AA?3?$AAD?$AAB?$AAP?$AAr?$AAo?$AAp?$AAS?$AAa?$AAv?$AAe?$AA?$AA@ 10005278     pimstorelib:poomperf.obj
 0001:000042a4       ??_C@_1CG@LLKNFCKD@?$AAC?$AAn?$AAc?$AAt?$AA?3?$AAS?$AAa?$AAv?$AAe?$AA?3?$AAS?$AAa?$AAv?$AAe?$AAI?$AAt?$AAe?$AAm?$AA?$AA@ 100052a4     pimstorelib:poomperf.obj
 0001:000042cc       ??_C@_1CI@ICPGJLAI@?$AAC?$AAn?$AAc?$AAt?$AA?3?$AAS?$AAa?$AAv?$AAe?$AA?3?$AAQ?$AAu?$AAi?$AAc?$AAk?$AAF?$AAi?$AAn?$AAd?$AA?$AA@ 100052cc     pimstorelib:poomperf.obj
 0001:000042f4       ??_C@_1DC@COFDHMEG@?$AAC?$AAn?$AAc?$AAt?$AA?3?$AAI?$AAn?$AAi?$AAt?$AAE?$AAx?$AAi?$AAs?$AAt?$AA?3?$AAG?$AAe?$AAt?$AAO?$AAb?$AAj?$AAe?$AAc?$AAt?$AA?$AA@ 100052f4     pimstorelib:poomperf.obj
 0001:00004328       ??_C@_1DA@ELOPINPI@?$AAC?$AAn?$AAc?$AAt?$AA?3?$AAI?$AAn?$AAi?$AAt?$AAE?$AAx?$AAi?$AAs?$AAt?$AA?3?$AAI?$AAn?$AAi?$AAt?$AAI?$AAt?$AAe?$AAm?$AA?$AA@ 10005328     pimstorelib:poomperf.obj
 0001:00004358       ??_C@_1BO@POEGCGBM@?$AAC?$AAn?$AAc?$AAt?$AA?3?$AAI?$AAn?$AAi?$AAt?$AAE?$AAx?$AAi?$AAs?$AAt?$AA?$AA@ 10005358     pimstorelib:poomperf.obj
 0001:00004378       ??_C@_1CK@PJNGGPEI@?$AAC?$AAn?$AAc?$AAt?$AA?3?$AAC?$AAo?$AAn?$AAs?$AAt?$AAr?$AAu?$AAc?$AAt?$AAF?$AAi?$AAl?$AAe?$AAA?$AAs?$AA?$AA@ 10005378     pimstorelib:poomperf.obj
 0001:000043a4       ??_C@_1CM@GIGGEHIN@?$AAC?$AAn?$AAc?$AAt?$AA?3?$AAC?$AAo?$AAn?$AAs?$AAt?$AAr?$AAu?$AAc?$AAt?$AAA?$AAd?$AAd?$AAr?$AAe?$AAs?$AAs?$AA?$AA@ 100053a4     pimstorelib:poomperf.obj
 0001:000043d0       ??_C@_1CK@KJJKIMGE@?$AAC?$AAn?$AAc?$AAt?$AA?3?$AAG?$AAe?$AAt?$AAT?$AAy?$AAp?$AAe?$AAS?$AAp?$AAe?$AAc?$AAP?$AAr?$AAo?$AAp?$AA?$AA@ 100053d0     pimstorelib:poomperf.obj
 0001:000043fc       ??_C@_1DI@IICJBMBD@?$AAO?$AAl?$AAA?$AAp?$AAp?$AA?3?$AA?3?$AAF?$AAi?$AAl?$AAl?$AAP?$AAr?$AAo?$AAv?$AAA?$AAn?$AAd?$AAC?$AAa?$AAl?$AAc?$AAP?$AAr?$AAo?$AAp?$AAs?$AA?$AA@ 100053fc     pimstorelib:poomperf.obj
 0001:00004434       ??_C@_1DA@JMLNOPPG@?$AAP?$AAO?$AAO?$AAM?$AA?3?$AA?3?$AAA?$AAl?$AAl?$AAo?$AAc?$AAA?$AAn?$AAd?$AAC?$AAo?$AAp?$AAy?$AAP?$AAr?$AAo?$AAp?$AAs?$AA?$AA@ 10005434     pimstorelib:poomperf.obj
 0001:00004464       ??_C@_1CM@HGKOBLKM@?$AAG?$AAe?$AAt?$AAS?$AAt?$AAo?$AAr?$AAe?$AAM?$AAg?$AAr?$AA?3?$AA?3?$AAC?$AAo?$AAC?$AAr?$AAe?$AAa?$AAt?$AAe?$AA?$AA@ 10005464     pimstorelib:poomperf.obj
 0001:00004490       ??_C@_1CE@GGKLPDGG@?$AAE?$AAv?$AAe?$AAn?$AAt?$AAS?$AAi?$AAn?$AAk?$AA?3?$AA?3?$AAA?$AAt?$AAt?$AAa?$AAc?$AAh?$AA?$AA@ 10005490     pimstorelib:poomperf.obj
 0001:000044b4       ??_C@_1DM@FOJKDIAL@?$AAE?$AAv?$AAe?$AAn?$AAt?$AAS?$AAi?$AAn?$AAk?$AA?3?$AA?3?$AAC?$AAo?$AAC?$AAr?$AAe?$AAa?$AAt?$AAe?$AAM?$AAa?$AAr?$AAs?$AAh?$AAa?$AAl?$AAl?$AAe?$AAr?$AA?$AA@ 100054b4     pimstorelib:poomperf.obj
 0001:000044f0       ??_C@_1DE@EFNBNCPC@?$AAE?$AAv?$AAe?$AAn?$AAt?$AAS?$AAi?$AAn?$AAk?$AA?3?$AA?3?$AAC?$AAr?$AAe?$AAa?$AAt?$AAe?$AAI?$AAn?$AAs?$AAt?$AAa?$AAn?$AAc?$AAe?$AA?$AA@ 100054f0     pimstorelib:poomperf.obj
 0001:00004524       ??_C@_1CO@DGHNGOBI@?$AAP?$AAo?$AAo?$AAm?$AAN?$AAo?$AAt?$AAi?$AAf?$AAy?$AA?3?$AA?3?$AAI?$AAn?$AAi?$AAt?$AAi?$AAa?$AAl?$AAi?$AAz?$AAe?$AA?$AA@ 10005524     pimstorelib:poomperf.obj
 0001:00004554       ??_C@_1DG@EEMNMMMO@?$AAP?$AAo?$AAo?$AAm?$AAN?$AAo?$AAt?$AAi?$AAf?$AAy?$AA?3?$AA?3?$AAC?$AAr?$AAe?$AAa?$AAt?$AAe?$AAI?$AAn?$AAs?$AAt?$AAa?$AAn?$AAc?$AAe?$AA?$AA@ 10005554     pimstorelib:poomperf.obj
 0001:0000458c       ??_C@_1DC@CFJDJNCG@?$AAO?$AAl?$AAA?$AAp?$AAp?$AA?3?$AA?3?$AAR?$AAe?$AAf?$AAr?$AAe?$AAs?$AAh?$AAR?$AAe?$AAc?$AAe?$AAn?$AAt?$AAL?$AAi?$AAs?$AAt?$AA?$AA@ 1000558c     pimstorelib:poomperf.obj
 0001:000045c0       ??_C@_1DC@CHDMJBOB@?$AAL?$AAo?$AAg?$AAo?$AAn?$AA?3?$AA?3?$AAG?$AAe?$AAt?$AAM?$AAo?$AAd?$AAu?$AAl?$AAe?$AAF?$AAi?$AAl?$AAe?$AAN?$AAa?$AAm?$AAe?$AA?$AA@ 100055c0     pimstorelib:poomperf.obj
 0001:000045f4       ??_C@_1DK@BOKCFDJF@?$AAP?$AAO?$AAO?$AAM?$AA?5?$AA?9?$AA?5?$AAI?$AAI?$AAt?$AAe?$AAm?$AA?3?$AA?3?$AAg?$AAe?$AAt?$AA_?$AAC?$AAa?$AAt?$AAe?$AAg?$AAo?$AAr?$AAi?$AAe?$AAs?$AA?$AA@ 100055f4     pimstorelib:poomperf.obj
 0001:00004630       ??_C@_1CM@GONKFFHF@?$AAP?$AAO?$AAO?$AAM?$AA?5?$AA?9?$AA?5?$AAD?$AAe?$AAl?$AAe?$AAt?$AAe?$AA?5?$AAc?$AAo?$AAn?$AAt?$AAa?$AAc?$AAt?$AA?$AA@ 10005630     pimstorelib:poomperf.obj
 0001:0000465c       ??_C@_1CI@OFLDEKNG@?$AAP?$AAO?$AAO?$AAM?$AA?5?$AA?9?$AA?5?$AAT?$AAa?$AAs?$AAk?$AA?5?$AAD?$AAi?$AAs?$AAp?$AAl?$AAa?$AAy?$AA?$AA@ 1000565c     pimstorelib:poomperf.obj
 0001:00004684       ??_C@_1CG@IEJKAKBP@?$AAP?$AAO?$AAO?$AAM?$AA?5?$AA?9?$AA?5?$AAD?$AAe?$AAl?$AAe?$AAt?$AAe?$AA?5?$AAt?$AAa?$AAs?$AAk?$AA?$AA@ 10005684     pimstorelib:poomperf.obj
 0001:000046ac       ??_C@_1DE@CILOGJFB@?$AAP?$AAO?$AAO?$AAM?$AA?5?$AA?9?$AA?5?$AAD?$AAe?$AAl?$AAe?$AAt?$AAe?$AA?5?$AAa?$AAp?$AAp?$AAo?$AAi?$AAn?$AAt?$AAm?$AAe?$AAn?$AAt?$AA?$AA@ 100056ac     pimstorelib:poomperf.obj
 0001:000046e0       ??_C@_1DA@EHLAKFAB@?$AAP?$AAO?$AAO?$AAM?$AA?5?$AA?9?$AA?5?$AAO?$AAp?$AAe?$AAn?$AA?5?$AAa?$AAp?$AAp?$AAo?$AAi?$AAn?$AAt?$AAm?$AAe?$AAn?$AAt?$AA?$AA@ 100056e0     pimstorelib:poomperf.obj
 0001:00004710       ??_C@_1DC@BEPCBPLC@?$AAP?$AAO?$AAO?$AAM?$AA?5?$AA?9?$AA?5?$AAC?$AAl?$AAo?$AAs?$AAe?$AA?5?$AAa?$AAp?$AAp?$AAo?$AAi?$AAn?$AAt?$AAm?$AAe?$AAn?$AAt?$AA?$AA@ 10005710     pimstorelib:poomperf.obj
 0001:00004744       ??_C@_1CC@FGCNFJHM@?$AAP?$AAO?$AAO?$AAM?$AA?5?$AA?9?$AA?5?$AAG?$AAe?$AAt?$AA?5?$AAC?$AAo?$AAu?$AAn?$AAt?$AA?$AA@ 10005744     pimstorelib:poomperf.obj
 0001:00004768       ??_C@_1DE@GBIJPNJJ@?$AAP?$AAO?$AAO?$AAM?$AA?5?$AA?9?$AA?5?$AAA?$AAt?$AAt?$AAe?$AAn?$AAd?$AAe?$AAe?$AAs?$AA?5?$AAD?$AAr?$AAa?$AAw?$AAI?$AAt?$AAe?$AAm?$AA?$AA@ 10005768     pimstorelib:poomperf.obj
 0001:0000479c       ??_C@_1CM@GAGOHHFN@?$AAP?$AAO?$AAO?$AAM?$AA?5?$AA?9?$AA?5?$AAA?$AAt?$AAt?$AAe?$AAn?$AAd?$AAe?$AAe?$AAs?$AA?5?$AAI?$AAn?$AAi?$AAt?$AA?$AA@ 1000579c     pimstorelib:poomperf.obj
 0001:000047c8       ??_C@_1BI@JPNDFIDH@?$AAP?$AAO?$AAO?$AAM?$AA?5?$AA?9?$AA?5?$AAS?$AAo?$AAr?$AAt?$AA?$AA@ 100057c8     pimstorelib:poomperf.obj
 0001:000047e0       ??_C@_1CA@IJAFGKEF@?$AAP?$AAO?$AAO?$AAM?$AA?5?$AA?9?$AA?5?$AAR?$AAe?$AAs?$AAt?$AAr?$AAi?$AAc?$AAt?$AA?$AA@ 100057e0     pimstorelib:poomperf.obj
 0001:00004800       ??_C@_1CC@DBAINMJD@?$AAP?$AAO?$AAO?$AAM?$AA?5?$AA?9?$AA?5?$AAS?$AAa?$AAv?$AAe?$AA?5?$AAT?$AAa?$AAs?$AAk?$AA?$AA@ 10005800     pimstorelib:poomperf.obj
 0001:00004824       ??_C@_1CI@NFMBBOPL@?$AAP?$AAO?$AAO?$AAM?$AA?5?$AA?9?$AA?5?$AAS?$AAa?$AAv?$AAe?$AA?5?$AAC?$AAo?$AAn?$AAt?$AAa?$AAc?$AAt?$AA?$AA@ 10005824     pimstorelib:poomperf.obj
 0001:0000484c       ??_C@_1DK@JIACDGAH@?$AAP?$AAO?$AAO?$AAM?$AA?5?$AA?9?$AA?5?$AAS?$AAi?$AAm?$AAC?$AAn?$AAc?$AAt?$AA?3?$AAW?$AAa?$AAi?$AAt?$AAP?$AAB?$AAE?$AAs?$AAt?$AAo?$AAr?$AAe?$AAd?$AA?$AA@ 1000584c     pimstorelib:poomperf.obj
 0001:00004888       ??_C@_1DC@MFAHCOMB@?$AAP?$AAO?$AAO?$AAM?$AA?5?$AA?9?$AA?5?$AAS?$AAi?$AAm?$AAC?$AAn?$AAc?$AAt?$AA?3?$AAS?$AAp?$AAb?$AAe?$AAW?$AAr?$AAi?$AAt?$AAe?$AA?$AA@ 10005888     pimstorelib:poomperf.obj
 0001:000048bc       ??_C@_1DG@GHCNPCPO@?$AAP?$AAO?$AAO?$AAM?$AA?5?$AA?9?$AA?5?$AAS?$AAi?$AAm?$AAC?$AAn?$AAc?$AAt?$AA?3?$AAS?$AAp?$AAb?$AAe?$AAP?$AAr?$AAe?$AAp?$AAa?$AAr?$AAe?$AA?$AA@ 100058bc     pimstorelib:poomperf.obj
 0001:000048f4       ??_C@_1DI@PLDCCJBI@?$AAP?$AAO?$AAO?$AAM?$AA?5?$AA?9?$AA?5?$AAS?$AAi?$AAm?$AAC?$AAn?$AAc?$AAt?$AA?3?$AAW?$AAr?$AAi?$AAt?$AAe?$AAN?$AAe?$AAw?$AAS?$AAP?$AAB?$AAE?$AA?$AA@ 100058f4     pimstorelib:poomperf.obj
 0001:0000492c       ??_C@_1DK@MNJPOKPJ@?$AAP?$AAO?$AAO?$AAM?$AA?5?$AA?9?$AA?5?$AAS?$AAi?$AAm?$AAC?$AAn?$AAc?$AAt?$AA?3?$AAS?$AAi?$AAm?$AAI?$AAn?$AAi?$AAt?$AAi?$AAa?$AAl?$AAi?$AAz?$AAe?$AA?$AA@ 1000592c     pimstorelib:poomperf.obj
 0001:00004968       ??_C@_1CO@KIMJCBGF@?$AAP?$AAO?$AAO?$AAM?$AA?5?$AA?9?$AA?5?$AAS?$AAi?$AAm?$AAC?$AAn?$AAc?$AAt?$AA?3?$AAS?$AAi?$AAm?$AAS?$AAa?$AAv?$AAe?$AA?$AA@ 10005968     pimstorelib:poomperf.obj
 0001:00004998       ??_C@_1DA@JMBKBNJG@?$AAP?$AAO?$AAO?$AAM?$AA?5?$AA?9?$AA?5?$AAS?$AAi?$AAm?$AAC?$AAn?$AAc?$AAt?$AA?3?$AAS?$AAp?$AAb?$AAe?$AAR?$AAe?$AAa?$AAd?$AA?$AA@ 10005998     pimstorelib:poomperf.obj
 0001:000049c8       ??_C@_1DM@JKGPOACA@?$AAP?$AAO?$AAO?$AAM?$AA?5?$AA?9?$AA?5?$AAS?$AAi?$AAm?$AAC?$AAn?$AAc?$AAt?$AA?3?$AAI?$AAm?$AAp?$AAr?$AAt?$AAS?$AAI?$AAM?$AAC?$AAn?$AAt?$AAc?$AAt?$AAs?$AA?$AA@ 100059c8     pimstorelib:poomperf.obj
 0001:00004a04       ??_C@_1CA@ILDFDFLF@?$AAP?$AAO?$AAO?$AAM?$AA?5?$AA?9?$AA?5?$AAG?$AAe?$AAt?$AA?5?$AAP?$AAr?$AAo?$AAp?$AA?$AA@ 10005a04     pimstorelib:poomperf.obj
 0001:00004a24       ??_C@_1CA@KODOLOKL@?$AAP?$AAO?$AAO?$AAM?$AA?5?$AA?9?$AA?5?$AAS?$AAe?$AAt?$AA?5?$AAP?$AAr?$AAo?$AAp?$AA?$AA@ 10005a24     pimstorelib:poomperf.obj
 0001:00004a44       ??_C@_1CC@CIDLFPDE@?$AAP?$AAO?$AAO?$AAM?$AA?5?$AA?9?$AA?5?$AAS?$AAe?$AAe?$AAk?$AA?5?$AAI?$AAt?$AAe?$AAm?$AA?$AA@ 10005a44     pimstorelib:poomperf.obj
 0001:00004a68       ??_C@_1DA@CGAFBEGH@?$AAP?$AAO?$AAO?$AAM?$AA?5?$AA?9?$AA?5?$AAS?$AAa?$AAv?$AAe?$AA?5?$AAA?$AAp?$AAp?$AAo?$AAi?$AAn?$AAt?$AAm?$AAe?$AAn?$AAt?$AA?$AA@ 10005a68     pimstorelib:poomperf.obj
 0001:00004a98       ??_C@_1CG@NNCIICIC@?$AAP?$AAO?$AAO?$AAM?$AA?5?$AA?9?$AA?5?$AAD?$AAe?$AAl?$AAe?$AAt?$AAe?$AA?5?$AAI?$AAt?$AAe?$AAm?$AA?$AA@ 10005a98     pimstorelib:poomperf.obj
 0001:00004ac0       ??_C@_1DA@BNHKAMMG@?$AAP?$AAO?$AAO?$AAM?$AA?5?$AA?9?$AA?5?$AAC?$AAI?$AAt?$AAe?$AAm?$AAs?$AA?3?$AA?3?$AAS?$AAe?$AAt?$AAP?$AAr?$AAo?$AAp?$AAs?$AA?$AA@ 10005ac0     pimstorelib:poomperf.obj
 0001:00004af0       ??_C@_1DA@DIHBIHNI@?$AAP?$AAO?$AAO?$AAM?$AA?5?$AA?9?$AA?5?$AAC?$AAI?$AAt?$AAe?$AAm?$AAs?$AA?3?$AA?3?$AAG?$AAe?$AAt?$AAP?$AAr?$AAo?$AAp?$AAs?$AA?$AA@ 10005af0     pimstorelib:poomperf.obj
 0001:00004b20       ??_C@_1DA@EBCAMNNH@?$AAP?$AAO?$AAO?$AAM?$AA?5?$AA?9?$AA?5?$AAC?$AAI?$AAt?$AAe?$AAm?$AAs?$AA?3?$AA?3?$AAF?$AAi?$AAn?$AAd?$AAN?$AAe?$AAx?$AAt?$AA?$AA@ 10005b20     pimstorelib:poomperf.obj
 0001:00004b50       ??_C@_1BI@LMDGIOGD@?$AAP?$AAO?$AAO?$AAM?$AA?5?$AA?9?$AA?5?$AAF?$AAi?$AAn?$AAd?$AA?$AA@ 10005b50     pimstorelib:poomperf.obj
 0001:00004b68       ??_C@_1CG@NJFEFCAL@?$AAP?$AAO?$AAO?$AAM?$AA?5?$AA?9?$AA?5?$AAC?$AAI?$AAt?$AAe?$AAm?$AAs?$AA?3?$AA?3?$AAA?$AAd?$AAd?$AA?$AA@ 10005b68     pimstorelib:poomperf.obj
 0001:00004b90       ??_C@_1DA@BMNDGBBI@?$AAP?$AAO?$AAO?$AAM?$AA?5?$AA?9?$AA?5?$AAF?$AAl?$AAd?$AAr?$AAC?$AAo?$AAl?$AAl?$AAc?$AAt?$AA?3?$AA?3?$AAS?$AAo?$AAr?$AAt?$AA?$AA@ 10005b90     pimstorelib:poomperf.obj
 0001:00004bc0       ??_C@_1DI@GCOODAHM@?$AAP?$AAO?$AAO?$AAM?$AA?5?$AA?9?$AA?5?$AAF?$AAl?$AAd?$AAr?$AAC?$AAo?$AAl?$AAl?$AAc?$AAt?$AA?3?$AA?3?$AAR?$AAe?$AAs?$AAt?$AAr?$AAi?$AAc?$AAt?$AA?$AA@ 10005bc0     pimstorelib:poomperf.obj
 0001:00004bf8       ??_C@_1DK@KOLJPAII@?$AAP?$AAO?$AAO?$AAM?$AA?5?$AA?9?$AA?5?$AAF?$AAl?$AAd?$AAr?$AAC?$AAo?$AAl?$AAl?$AAc?$AAt?$AA?3?$AA?3?$AAG?$AAe?$AAt?$AAF?$AAo?$AAl?$AAd?$AAe?$AAr?$AA?$AA@ 10005bf8     pimstorelib:poomperf.obj
 0001:00004c34       ??_C@_1DI@HBOGEMMA@?$AAP?$AAO?$AAO?$AAM?$AA?5?$AA?9?$AA?5?$AAF?$AAl?$AAd?$AAr?$AAC?$AAo?$AAl?$AAl?$AAc?$AAt?$AA?3?$AA?3?$AAF?$AAi?$AAn?$AAd?$AAN?$AAe?$AAx?$AAt?$AA?$AA@ 10005c34     pimstorelib:poomperf.obj
 0001:00004c6c       ??_C@_1DA@DPDGLHEM@?$AAP?$AAO?$AAO?$AAM?$AA?5?$AA?9?$AA?5?$AAF?$AAl?$AAd?$AAr?$AAC?$AAo?$AAl?$AAl?$AAc?$AAt?$AA?3?$AA?3?$AAF?$AAi?$AAn?$AAd?$AA?$AA@ 10005c6c     pimstorelib:poomperf.obj
 0001:00004c9c       ??_C@_1DO@KAGADDCJ@?$AAP?$AAO?$AAO?$AAM?$AA?5?$AA?9?$AA?5?$AAF?$AAl?$AAd?$AAr?$AAC?$AAo?$AAl?$AAl?$AAc?$AAt?$AA?3?$AA?3?$AAg?$AAe?$AAt?$AA_?$AA_?$AAN?$AAe?$AAw?$AAE?$AAn?$AAm?$AA?$AA@ 10005c9c     pimstorelib:poomperf.obj
 0001:00004cdc       ??_C@_1DK@HFBANAHP@?$AAP?$AAO?$AAO?$AAM?$AA?5?$AA?9?$AA?5?$AAF?$AAl?$AAd?$AAr?$AAC?$AAo?$AAl?$AAl?$AAc?$AAt?$AA?3?$AA?3?$AAg?$AAe?$AAt?$AA_?$AAC?$AAo?$AAu?$AAn?$AAt?$AA?$AA@ 10005cdc     pimstorelib:poomperf.obj
 0001:00004d18       ??_C@_1CG@CKMFFNNM@?$AAF?$AAl?$AAd?$AAr?$AA?3?$AAS?$AAa?$AAv?$AAe?$AA?3?$AAS?$AAa?$AAv?$AAe?$AAI?$AAt?$AAe?$AAm?$AA?$AA@ 10005d18     pimstorelib:poomperf.obj
 0001:00004d40       ??_C@_1CM@EMFKIAOF@?$AAF?$AAl?$AAd?$AAr?$AA?3?$AAS?$AAa?$AAv?$AAe?$AA?3?$AAS?$AAe?$AAt?$AAP?$AAr?$AAo?$AAp?$AAV?$AAa?$AAl?$AAs?$AA?$AA@ 10005d40     pimstorelib:poomperf.obj
 0001:00004d6c       ??_C@_1CG@DCIFFJDB@?$AAP?$AAO?$AAO?$AAM?$AA?5?$AA?9?$AA?5?$AAC?$AAF?$AAl?$AAd?$AAr?$AA?3?$AA?3?$AAS?$AAa?$AAv?$AAe?$AA?$AA@ 10005d6c     pimstorelib:poomperf.obj
 0001:00004d94       ??_C@_1CK@JGHEDGB@?$AAP?$AAO?$AAO?$AAM?$AA?5?$AA?9?$AA?5?$AAC?$AAF?$AAl?$AAd?$AAr?$AA?3?$AA?3?$AAD?$AAe?$AAl?$AAe?$AAt?$AAe?$AA?$AA@ 10005d94     pimstorelib:poomperf.obj
 0001:00004dc0       ??_C@_1DC@OCOKPHPJ@?$AAP?$AAO?$AAO?$AAM?$AA?5?$AA?9?$AA?5?$AAC?$AAF?$AAl?$AAd?$AAr?$AA?3?$AA?3?$AAC?$AAr?$AAe?$AAa?$AAt?$AAe?$AAI?$AAt?$AAe?$AAm?$AA?$AA@ 10005dc0     pimstorelib:poomperf.obj
 0001:00004df4       ??_C@_1DG@PADLJPFB@?$AAP?$AAO?$AAO?$AAM?$AA?5?$AA?9?$AA?5?$AAC?$AAF?$AAl?$AAd?$AAr?$AA?3?$AA?3?$AAC?$AAr?$AAe?$AAa?$AAt?$AAe?$AAF?$AAo?$AAl?$AAd?$AAe?$AAr?$AA?$AA@ 10005df4     pimstorelib:poomperf.obj
 0001:00004e2c       ??_C@_1DG@KIBONJOD@?$AAP?$AAO?$AAO?$AAM?$AA?5?$AA?9?$AA?5?$AAC?$AAF?$AAl?$AAd?$AAr?$AA?3?$AA?3?$AAM?$AAo?$AAv?$AAe?$AAT?$AAo?$AAF?$AAo?$AAl?$AAd?$AAe?$AAr?$AA?$AA@ 10005e2c     pimstorelib:poomperf.obj
 0001:00004e64       ??_C@_1DE@NKIJIFGA@?$AAP?$AAO?$AAO?$AAM?$AA?5?$AA?9?$AA?5?$AAC?$AAF?$AAl?$AAd?$AAr?$AA?3?$AA?3?$AAg?$AAe?$AAt?$AA_?$AAF?$AAo?$AAl?$AAd?$AAe?$AAr?$AAs?$AA?$AA@ 10005e64     pimstorelib:poomperf.obj
 0001:00004e98       ??_C@_1DM@DOLILCGG@?$AAP?$AAO?$AAO?$AAM?$AA?5?$AA?9?$AA?5?$AAC?$AAF?$AAl?$AAd?$AAr?$AA?3?$AA?3?$AAp?$AAu?$AAt?$AA_?$AAD?$AAi?$AAs?$AAp?$AAl?$AAa?$AAy?$AAN?$AAa?$AAm?$AAe?$AA?$AA@ 10005e98     pimstorelib:poomperf.obj
 0001:00004ed4       ??_C@_1DM@OLJIPCBI@?$AAP?$AAO?$AAO?$AAM?$AA?5?$AA?9?$AA?5?$AAC?$AAF?$AAl?$AAd?$AAr?$AA?3?$AA?3?$AAg?$AAe?$AAt?$AA_?$AAD?$AAi?$AAs?$AAp?$AAl?$AAa?$AAy?$AAN?$AAa?$AAm?$AAe?$AA?$AA@ 10005ed4     pimstorelib:poomperf.obj
 0001:00004f10       ??_C@_1DG@PHNGBEOF@?$AAP?$AAO?$AAO?$AAM?$AA?5?$AA?9?$AA?5?$AAC?$AAI?$AAt?$AAe?$AAm?$AAI?$AAm?$AAp?$AAl?$AA?3?$AA?3?$AAG?$AAe?$AAt?$AAS?$AAt?$AAo?$AAr?$AAe?$AA?$AA@ 10005f10     pimstorelib:poomperf.obj
 0001:00004f48       ??_C@_1DI@PLLNGOFH@?$AAP?$AAO?$AAO?$AAM?$AA?5?$AA?9?$AA?5?$AAC?$AAI?$AAt?$AAe?$AAm?$AAI?$AAm?$AAp?$AAl?$AA?3?$AA?3?$AAG?$AAe?$AAt?$AAP?$AAa?$AAr?$AAe?$AAn?$AAt?$AA?$AA@ 10005f48     pimstorelib:poomperf.obj
 0001:00004f80       ??_C@_1CO@OMDHCMFD@?$AAP?$AAO?$AAO?$AAM?$AA?5?$AA?9?$AA?5?$AAS?$AAt?$AAr?$AAC?$AAo?$AAl?$AAl?$AAc?$AAt?$AA?3?$AA?3?$AAS?$AAo?$AAr?$AAt?$AA?$AA@ 10005f80     pimstorelib:poomperf.obj
 0001:00004fb0       ??_C@_1DG@PGCEPDLH@?$AAP?$AAO?$AAO?$AAM?$AA?5?$AA?9?$AA?5?$AAS?$AAt?$AAr?$AAC?$AAo?$AAl?$AAl?$AAc?$AAt?$AA?3?$AA?3?$AAR?$AAe?$AAs?$AAt?$AAr?$AAi?$AAc?$AAt?$AA?$AA@ 10005fb0     pimstorelib:poomperf.obj
 0001:00004fe8       ??_C@_1DI@IENKPJMN@?$AAP?$AAO?$AAO?$AAM?$AA?5?$AA?9?$AA?5?$AAS?$AAt?$AAr?$AAC?$AAo?$AAl?$AAl?$AAc?$AAt?$AA?3?$AA?3?$AAG?$AAe?$AAt?$AAF?$AAo?$AAl?$AAd?$AAe?$AAr?$AA?$AA@ 10005fe8     pimstorelib:poomperf.obj
 0001:00005020       ??_C@_1DG@OFCMIPAL@?$AAP?$AAO?$AAO?$AAM?$AA?5?$AA?9?$AA?5?$AAS?$AAt?$AAr?$AAC?$AAo?$AAl?$AAl?$AAc?$AAt?$AA?3?$AA?3?$AAF?$AAi?$AAn?$AAd?$AAN?$AAe?$AAx?$AAt?$AA?$AA@ 10006020     pimstorelib:poomperf.obj
 0001:00005058       ??_C@_1CO@MPNCPKAH@?$AAP?$AAO?$AAO?$AAM?$AA?5?$AA?9?$AA?5?$AAS?$AAt?$AAr?$AAC?$AAo?$AAl?$AAl?$AAc?$AAt?$AA?3?$AA?3?$AAF?$AAi?$AAn?$AAd?$AA?$AA@ 10006058     pimstorelib:poomperf.obj
 0001:00005088       ??_C@_1DO@JDJDJDMA@?$AAP?$AAO?$AAO?$AAM?$AA?5?$AA?9?$AA?5?$AAS?$AAt?$AAr?$AAC?$AAo?$AAl?$AAl?$AAc?$AAt?$AA?3?$AA?3?$AAg?$AAe?$AAt?$AA_?$AA_?$AAN?$AAe?$AAw?$AAE?$AAn?$AAu?$AAm?$AA?$AA@ 10006088     pimstorelib:poomperf.obj
 0001:000050c8       ??_C@_1DI@FPHDNJDK@?$AAP?$AAO?$AAO?$AAM?$AA?5?$AA?9?$AA?5?$AAS?$AAt?$AAr?$AAC?$AAo?$AAl?$AAl?$AAc?$AAt?$AA?3?$AA?3?$AAg?$AAe?$AAt?$AA_?$AAC?$AAo?$AAu?$AAn?$AAt?$AA?$AA@ 100060c8     pimstorelib:poomperf.obj
 0001:00005100       ??_C@_1CM@OJJHCJKP@?$AAP?$AAO?$AAO?$AAM?$AA?5?$AA?9?$AA?5?$AAC?$AAS?$AAt?$AAo?$AAr?$AAe?$AA?3?$AA?3?$AAD?$AAe?$AAl?$AAe?$AAt?$AAe?$AA?$AA@ 10006100     pimstorelib:poomperf.obj
 0001:0000512c       ??_C@_1DK@BMICEKJC@?$AAP?$AAO?$AAO?$AAM?$AA?5?$AA?9?$AA?5?$AAC?$AAS?$AAt?$AAo?$AAr?$AAe?$AA?3?$AA?3?$AAG?$AAe?$AAt?$AAI?$AAt?$AAe?$AAm?$AAF?$AAr?$AAo?$AAm?$AAI?$AAd?$AA?$AA@ 1000612c     pimstorelib:poomperf.obj
 0001:00005168       ??_C@_1DA@KKPEEIIK@?$AAP?$AAO?$AAO?$AAM?$AA?5?$AA?9?$AA?5?$AAC?$AAS?$AAt?$AAo?$AAr?$AAe?$AA?3?$AA?3?$AAG?$AAe?$AAt?$AAI?$AAt?$AAe?$AAm?$AAs?$AA?$AA@ 10006168     pimstorelib:poomperf.obj
 0001:00005198       ??_C@_1DI@NBKPFHJB@?$AAP?$AAO?$AAO?$AAM?$AA?5?$AA?9?$AA?5?$AAC?$AAS?$AAt?$AAo?$AAr?$AAe?$AA?3?$AA?3?$AAC?$AAr?$AAe?$AAa?$AAt?$AAe?$AAF?$AAo?$AAl?$AAd?$AAe?$AAr?$AA?$AA@ 10006198     pimstorelib:poomperf.obj
 0001:000051d0       ??_C@_1DK@CBEEAGOL@?$AAP?$AAO?$AAO?$AAM?$AA?5?$AA?9?$AA?5?$AAC?$AAS?$AAt?$AAo?$AAr?$AAe?$AA?3?$AA?3?$AAG?$AAe?$AAt?$AAF?$AAl?$AAd?$AAe?$AAF?$AAr?$AAo?$AAm?$AAI?$AAd?$AA?$AA@ 100061d0     pimstorelib:poomperf.obj
 0001:0000520c       ??_C@_1DG@IJHJACBF@?$AAP?$AAO?$AAO?$AAM?$AA?5?$AA?9?$AA?5?$AAC?$AAS?$AAt?$AAo?$AAr?$AAe?$AA?3?$AA?3?$AAg?$AAe?$AAt?$AA_?$AAF?$AAo?$AAl?$AAd?$AAe?$AAr?$AAs?$AA?$AA@ 1000620c     pimstorelib:poomperf.obj
 0001:00005244       ??_C@_1DK@HJEEMKMG@?$AAP?$AAO?$AAO?$AAM?$AA?5?$AA?9?$AA?5?$AAC?$AAS?$AAt?$AAo?$AAr?$AAe?$AA?3?$AA?3?$AAS?$AAe?$AAt?$AAD?$AAf?$AAl?$AAt?$AAF?$AAo?$AAl?$AAd?$AAe?$AAr?$AA?$AA@ 10006244     pimstorelib:poomperf.obj
 0001:00005280       ??_C@_1DK@GEMMOPGC@?$AAP?$AAO?$AAO?$AAM?$AA?5?$AA?9?$AA?5?$AAC?$AAS?$AAt?$AAo?$AAr?$AAe?$AA?3?$AA?3?$AAG?$AAe?$AAt?$AAD?$AAf?$AAl?$AAt?$AAF?$AAo?$AAl?$AAd?$AAe?$AAr?$AA?$AA@ 10006280     pimstorelib:poomperf.obj
 0001:000052bc       ??_C@_1DA@DNNIGJDD@?$AAP?$AAO?$AAO?$AAM?$AA?5?$AA?9?$AA?5?$AAC?$AAS?$AAt?$AAo?$AAr?$AAe?$AA?3?$AA?3?$AAS?$AAe?$AAt?$AAP?$AAr?$AAo?$AAp?$AAs?$AA?$AA@ 100062bc     pimstorelib:poomperf.obj
 0001:000052ec       ??_C@_1DA@BINDOCCN@?$AAP?$AAO?$AAO?$AAM?$AA?5?$AA?9?$AA?5?$AAC?$AAS?$AAt?$AAo?$AAr?$AAe?$AA?3?$AA?3?$AAG?$AAe?$AAt?$AAP?$AAr?$AAo?$AAp?$AAs?$AA?$AA@ 100062ec     pimstorelib:poomperf.obj
 0001:0000531c       ??_C@_1DO@CILIBFJC@?$AAP?$AAO?$AAO?$AAM?$AA?5?$AA?9?$AA?5?$AAC?$AAS?$AAt?$AAo?$AAr?$AAe?$AA?3?$AA?3?$AAg?$AAe?$AAt?$AA_?$AAD?$AAi?$AAs?$AAp?$AAl?$AAa?$AAy?$AAN?$AAa?$AAm?$AAe?$AA?$AA@ 1000631c     pimstorelib:poomperf.obj
 0001:0000535c       ??_C@_1DG@MCNAFNAL@?$AAP?$AAO?$AAO?$AAM?$AA?5?$AA?9?$AA?5?$AAC?$AAS?$AAt?$AAo?$AAr?$AAe?$AA?3?$AA?3?$AAg?$AAe?$AAt?$AA_?$AAS?$AAt?$AAo?$AAr?$AAe?$AAI?$AAd?$AA?$AA@ 1000635c     pimstorelib:poomperf.obj
 0001:00005394       ??_C@_1CG@NDAKPLAG@?$AAP?$AAO?$AAO?$AAM?$AA?5?$AA?9?$AA?5?$AAC?$AAr?$AAe?$AAa?$AAt?$AAe?$AA?5?$AAI?$AAt?$AAe?$AAm?$AA?$AA@ 10006394     pimstorelib:poomperf.obj
 0001:000053bc       ??_C@_1CO@HAFGFNDB@?$AAP?$AAO?$AAO?$AAM?$AA?5?$AA?9?$AA?5?$AAG?$AAe?$AAt?$AAI?$AAD?$AAs?$AAF?$AAr?$AAo?$AAm?$AAN?$AAa?$AAm?$AAe?$AAs?$AA?$AA@ 100063bc     pimstorelib:poomperf.obj
 0001:000053ec       ??_C@_1CG@OHGFJGDL@?$AAP?$AAO?$AAO?$AAM?$AA?5?$AA?9?$AA?5?$AAC?$AAr?$AAe?$AAa?$AAt?$AAe?$AAS?$AAt?$AAo?$AAr?$AAe?$AA?$AA@ 100063ec     pimstorelib:poomperf.obj
 0001:00005414       ??_C@_1DC@NGGNNNPA@?$AAP?$AAO?$AAO?$AAM?$AA?5?$AA?9?$AA?5?$AAG?$AAe?$AAt?$AAI?$AAt?$AAe?$AAm?$AAF?$AAr?$AAo?$AAm?$AAI?$AAt?$AAe?$AAm?$AAI?$AAd?$AA?$AA@ 10006414     pimstorelib:poomperf.obj
 0001:00005448       ??_C@_1CM@GFBBGCOF@?$AAP?$AAO?$AAO?$AAM?$AA?5?$AA?9?$AA?5?$AAG?$AAe?$AAt?$AAS?$AAt?$AAo?$AAr?$AAe?$AAF?$AAr?$AAo?$AAm?$AAI?$AAd?$AA?$AA@ 10006448     pimstorelib:poomperf.obj
 0001:00005474       ??_C@_1CE@PJIOFBPA@?$AAP?$AAO?$AAO?$AAM?$AA?5?$AA?9?$AA?5?$AAg?$AAe?$AAt?$AA_?$AAS?$AAt?$AAo?$AAr?$AAe?$AAs?$AA?$AA@ 10006474     pimstorelib:poomperf.obj
 0001:00005498       ??_C@_1DE@GCCBMNNH@?$AAP?$AAO?$AAO?$AAM?$AA?5?$AA?9?$AA?5?$AAg?$AAe?$AAt?$AA_?$AAD?$AAe?$AAf?$AAa?$AAu?$AAl?$AAt?$AAS?$AAt?$AAo?$AAr?$AAe?$AAI?$AAd?$AA?$AA@ 10006498     pimstorelib:poomperf.obj
 0001:000054cc       ??_C@_1DA@BAMMLDPI@?$AAP?$AAO?$AAO?$AAM?$AA?5?$AA?9?$AA?5?$AAg?$AAe?$AAt?$AA_?$AAD?$AAe?$AAf?$AAa?$AAu?$AAl?$AAt?$AAS?$AAt?$AAo?$AAr?$AAe?$AA?$AA@ 100064cc     pimstorelib:poomperf.obj
 0001:000054fc       ??_C@_1BM@NFGGAMMK@?$AAP?$AAO?$AAO?$AAM?$AA?5?$AA?9?$AA?5?$AAL?$AAo?$AAg?$AAo?$AAf?$AAf?$AA?$AA@ 100064fc     pimstorelib:poomperf.obj
 0001:00005518       ??_C@_1BK@NIINJIL@?$AAP?$AAO?$AAO?$AAM?$AA?5?$AA?9?$AA?5?$AAL?$AAo?$AAg?$AAo?$AAn?$AA?$AA@ 10006518     pimstorelib:poomperf.obj
 0001:000057b0       ??_7?$CUnknownImpl@UIPOutlookApp2@@@@6B@ 100067b0     pimstorelib:polapp.obj
 0001:00005828       ??_7IPOlCalstoreOutlookApp@@6B@ 10006828     pimstorelib:polapp.obj
 0001:00005850       ??_7IPOutlookAppStoreHook@@6B@ 10006850     pimstorelib:polapp.obj
 0001:00005870       ??_C@_1BO@GLIAMCAN@?$AA?$CF?$AA0?$AA2?$AAd?$AA?4?$AA?$CF?$AA0?$AA2?$AAd?$AA?4?$AA?$CF?$AA0?$AA4?$AAd?$AA?$AA@ 10006870     pimstorelib:polapp.obj
 0001:00005890       _GUID_528728d5_5d7c_4279_afe8_2b70bf35fcf2 10006890     pimstorelib:polapp.obj
 0001:000058a0       _GUID_9e3f6142_a5f9_492f_9dbb_955ac289276d 100068a0     pimstorelib:polapp.obj
 0001:000058b0       ??_C@_1BI@CFDKNLLC@?$AAr?$AAe?$AAp?$AAl?$AAl?$AAo?$AAg?$AA?4?$AAe?$AAx?$AAe?$AA?$AA@ 100068b0     pimstorelib:polapp.obj
 0001:000058c8       _GUID_05058f20_20be_11d2_8f18_0000f87a4335 100068c8     pimstorelib:polapp.obj
 0001:000058d8       ??_7CPOutlookApp@@6B?$CUnknownImpl@UIPOutlookApp2@@@@@ 100068d8     pimstorelib:polapp.obj
 0001:00005954       ??_7CPOutlookApp@@6BCDispatchProvider@@@ 10006954     pimstorelib:polapp.obj
 0001:00005970       ??_7CPOutlookApp@@6BIPOutlookApp3@@@ 10006970     pimstorelib:polapp.obj
 0001:000059c4       ??_7CPOutlookApp@@6BIPOlCalstoreOutlookApp@@@ 100069c4     pimstorelib:polapp.obj
 0001:000059ec       ??_7CPOutlookApp@@6BIPOutlookAppStoreHook@@@ 100069ec     pimstorelib:polapp.obj
 0001:00005a0c       ??_7CPOutlookApp@@6BIPOutlookAppPriv@@@ 10006a0c     pimstorelib:polapp.obj
 0001:00005a20       ??_7?$CDispatchImpl@UIPOutlookApp2@@@@6B?$CUnknownImpl@UIPOutlookApp2@@@@@ 10006a20     pimstorelib:polapp.obj
 0001:00005a98       ??_7?$CDispatchImpl@UIPOutlookApp2@@@@6BCDispatchProvider@@@ 10006a98     pimstorelib:polapp.obj
 0001:00005ab4       ??_C@_1CO@OGIFHDK@?$AAE?$AAx?$AAt?$AAe?$AAn?$AAs?$AAi?$AAo?$AAn?$AAP?$AAr?$AAo?$AAv?$AAi?$AAd?$AAe?$AAr?$AAC?$AAl?$AAs?$AAI?$AAd?$AA?$AA@ 10006ab4     pimstorelib:PoomExtensibilityInterfaces.obj
 0001:00005ae4       _GUID_06f447be_544b_4f86_b05e_99eaa5a46fc0 10006ae4     pimstorelib:PoomExtensibilityInterfaces.obj
 0001:00005af8       ??_7CSimContact@@6B?$CUnknownImpl@UIItem2@@@@@ 10006af8     pimstorelib:SimContacts.obj
 0001:00005b58       ??_7CSimContact@@6BCDispatchProvider@@@ 10006b58     pimstorelib:SimContacts.obj
 0001:00005b78       ??_7CSimContact@@6BIItem@@@ 10006b78     pimstorelib:SimContacts.obj
 0001:00005bc0       ??_7CSimContact@@6BCItemProvider@@@ 10006bc0     pimstorelib:SimContacts.obj
 0001:00005c20       ??_7CSimContact@@6BIContact2@@@ 10006c20     pimstorelib:SimContacts.obj
 0001:00005df8       ??_7CSimContact@@6BIContact@@@ 10006df8     pimstorelib:SimContacts.obj
 0001:00005fc4       ??_7CSimContact@@6BIPOlContact@@@ 10006fc4     pimstorelib:SimContacts.obj
 0001:00005fd4       ??_7CSimContact@@6BIContactPrivate@@@ 10006fd4     pimstorelib:SimContacts.obj
 0001:00005fe4       ??_C@_1CO@GKLHJGBN@?$AAS?$AAI?$AAM?$AA?5?$AAC?$AAo?$AAn?$AAt?$AAa?$AAc?$AAt?$AA?5?$AAS?$AAa?$AAv?$AAe?$AA?5?$AAM?$AAu?$AAt?$AAe?$AAx?$AA?$AA@ 10006fe4     pimstorelib:SimContacts.obj
 0001:00006014       __real@412cfddc00000000    10007014     pimstorelib:dbprops.obj
 0001:00006058       ??_7?$CPOOMItem@UIFolder2@@@@6B?$CUnknownImpl@UIItem2@@@@@ 10007058     pimstorelib:folder.obj
 0001:000060b4       ??_7?$CPOOMItem@UIFolder2@@@@6BCDispatchProvider@@@ 100070b4     pimstorelib:folder.obj
 0001:000060d0       ??_7?$CPOOMItem@UIFolder2@@@@6BIItem@@@ 100070d0     pimstorelib:folder.obj
 0001:00006118       ??_7?$CPOOMItem@UIFolder2@@@@6BCItemProvider@@@ 10007118     pimstorelib:folder.obj
 0001:00006178       ??_7CFolder@@6B?$CUnknownImpl@UIItem2@@@@@ 10007178     pimstorelib:folder.obj
 0001:000061d8       ??_7CFolder@@6BCDispatchProvider@@@ 100071d8     pimstorelib:folder.obj
 0001:000061f8       ??_7CFolder@@6BIItem@@@    100071f8     pimstorelib:folder.obj
 0001:00006240       ??_7CFolder@@6BCItemProvider@@@ 10007240     pimstorelib:folder.obj
 0001:000062a0       ??_7CFolder@@6BIFolder2@@@ 100072a0     pimstorelib:folder.obj
 0001:00006300       ??_7CFolder@@6BIFolder@@@  10007300     pimstorelib:folder.obj
 0001:00006334       ??_C@_1CA@OOEGNFML@?$AAM?$AAe?$AAs?$AAs?$AAa?$AAg?$AAe?$AAS?$AAe?$AAr?$AAv?$AAe?$AAr?$AAO?$AAn?$AA?$AA@ 10007334     pimstorelib:Mail.obj
 0001:00006358       ??_7?$CPOOMItem@VCMailItem@@@@6B?$CUnknownImpl@UIItem2@@@@@ 10007358     pimstorelib:Mail.obj
 0001:000063b4       ??_7?$CPOOMItem@VCMailItem@@@@6BCDispatchProvider@@@ 100073b4     pimstorelib:Mail.obj
 0001:000063d0       ??_7?$CPOOMItem@VCMailItem@@@@6BIItem@@@ 100073d0     pimstorelib:Mail.obj
 0001:00006418       ??_7?$CPOOMItem@VCMailItem@@@@6BCItemProvider@@@ 10007418     pimstorelib:Mail.obj
 0001:00006478       ??_7CMailItem@@6B?$CUnknownImpl@UIItem2@@@@@ 10007478     pimstorelib:Mail.obj
 0001:000064d4       ??_7CMailItem@@6BCDispatchProvider@@@ 100074d4     pimstorelib:Mail.obj
 0001:000064f0       ??_7CMailItem@@6BIItem@@@  100074f0     pimstorelib:Mail.obj
 0001:00006538       ??_7CMailItem@@6BCItemProvider@@@ 10007538     pimstorelib:Mail.obj
 0001:00006594       ??_7CMailItem@@6B@         10007594     pimstorelib:Mail.obj
 0001:000065b0       ??_7IPOlAppointment@@6B@   100075b0     pimstorelib:apptment.obj
 0001:0000661c       _GUID_5b43f691_202c_11d2_8f18_0000f87a4335 1000761c     pimstorelib:apptment.obj
 0001:0000662c       _GUID_38f47300_270f_11d2_8f18_0000f87a4335 1000762c     pimstorelib:apptment.obj
 0001:00006640       ??_7?$CPOOMItem@UIAppointment2@@@@6B?$CUnknownImpl@UIItem2@@@@@ 10007640     pimstorelib:apptment.obj
 0001:0000669c       ??_7?$CPOOMItem@UIAppointment2@@@@6BCDispatchProvider@@@ 1000769c     pimstorelib:apptment.obj
 0001:000066b8       ??_7?$CPOOMItem@UIAppointment2@@@@6BIItem@@@ 100076b8     pimstorelib:apptment.obj
 0001:00006700       ??_7?$CPOOMItem@UIAppointment2@@@@6BCItemProvider@@@ 10007700     pimstorelib:apptment.obj
 0001:00006760       ??_7CAppointment@@6B?$CUnknownImpl@UIItem2@@@@@ 10007760     pimstorelib:apptment.obj
 0001:000067bc       ??_7CAppointment@@6BCDispatchProvider@@@ 100077bc     pimstorelib:apptment.obj
 0001:000067d8       ??_7CAppointment@@6BIItem@@@ 100077d8     pimstorelib:apptment.obj
 0001:00006820       ??_7CAppointment@@6BCItemProvider@@@ 10007820     pimstorelib:apptment.obj
 0001:00006880       ??_7CAppointment@@6BIAppointment2@@@ 10007880     pimstorelib:apptment.obj
 0001:00006990       ??_7CAppointment@@6BIAppointment@@@ 10007990     pimstorelib:apptment.obj
 0001:00006a58       ??_7CAppointment@@6BIPOlAppointment@@@ 10007a58     pimstorelib:apptment.obj
 0001:00006acc       ??_7IPOlTask@@6B@          10007acc     pimstorelib:task.obj
 0001:00006adc       _GUID_37c78ce0_202c_11d2_8f18_0000f87a4335 10007adc     pimstorelib:task.obj
 0001:00006af0       ??_7?$CPOOMItem@UITask2@@@@6B?$CUnknownImpl@UIItem2@@@@@ 10007af0     pimstorelib:task.obj
 0001:00006b4c       ??_7?$CPOOMItem@UITask2@@@@6BCDispatchProvider@@@ 10007b4c     pimstorelib:task.obj
 0001:00006b68       ??_7?$CPOOMItem@UITask2@@@@6BIItem@@@ 10007b68     pimstorelib:task.obj
 0001:00006bb0       ??_7?$CPOOMItem@UITask2@@@@6BCItemProvider@@@ 10007bb0     pimstorelib:task.obj
 0001:00006c10       ??_7CTask@@6B?$CUnknownImpl@UIItem2@@@@@ 10007c10     pimstorelib:task.obj
 0001:00006c6c       ??_7CTask@@6BCDispatchProvider@@@ 10007c6c     pimstorelib:task.obj
 0001:00006c88       ??_7CTask@@6BIItem@@@      10007c88     pimstorelib:task.obj
 0001:00006cd0       ??_7CTask@@6BCItemProvider@@@ 10007cd0     pimstorelib:task.obj
 0001:00006d30       ??_7CTask@@6BITask2@@@     10007d30     pimstorelib:task.obj
 0001:00006df0       ??_7CTask@@6BITask@@@      10007df0     pimstorelib:task.obj
 0001:00006ea8       ??_7CTask@@6BIPOlTask@@@   10007ea8     pimstorelib:task.obj
 0001:00006ee8       ??_7?$CPOOMItem@VCNote@@@@6B?$CUnknownImpl@UIItem2@@@@@ 10007ee8     pimstorelib:note.obj
 0001:00006f44       ??_7?$CPOOMItem@VCNote@@@@6BCDispatchProvider@@@ 10007f44     pimstorelib:note.obj
 0001:00006f60       ??_7?$CPOOMItem@VCNote@@@@6BIItem@@@ 10007f60     pimstorelib:note.obj
 0001:00006fa8       ??_7?$CPOOMItem@VCNote@@@@6BCItemProvider@@@ 10007fa8     pimstorelib:note.obj
 0001:00007008       ??_7CNote@@6B?$CUnknownImpl@UIItem2@@@@@ 10008008     pimstorelib:note.obj
 0001:00007064       ??_7CNote@@6BCDispatchProvider@@@ 10008064     pimstorelib:note.obj
 0001:00007080       ??_7CNote@@6BIItem@@@      10008080     pimstorelib:note.obj
 0001:000070c8       ??_7CNote@@6BCItemProvider@@@ 100080c8     pimstorelib:note.obj
 0001:00007124       ??_7CNote@@6B@             10008124     pimstorelib:note.obj
 0001:00007140       ??_7CItemProvider@@6B@     10008140     pimstorelib:item.obj
 0001:0000719c       _GUID_3382bed9_e18f_4e32_b3e6_503192c8a58e 1000819c     pimstorelib:item.obj
 0001:000071c8       _GUID_1447dc2b_55c3_443d_8c82_302e772f5823 100081c8     pimstorelib:item.obj
 0001:000071d8       ??_7CDispatchProvider@@6B@ 100081d8     pimstorelib:dispprv.obj
 0001:000071f4       _GUID_05058f22_20be_11d2_8f18_0000f87a4335 100081f4     pimstorelib:dispprv.obj
 0001:00007204       ??_7CPropertyHandler@@6B@  10008204     pimstorelib:PropertyHandler.obj
 0001:00007220       _GUID_32937f78_0f32_4511_8ffe_18624dfc5d07 10008220     pimstorelib:PropertyHandler.obj
 0001:00007230       _GUID_5a055da7_95fe_4b16_b9b5_d44faf9e3b07 10008230     pimstorelib:FindMatchingContactHelper.obj
 0001:00007240       ??_7_CUnknownBase@@6B@     10008240     pimstorelib:PictureStream.obj
 0001:00007250       _GUID_0c733a30_2a1c_11ce_ade5_00aa0044773d 10008250     pimstorelib:PictureStream.obj
 0001:00007260       _GUID_0000000c_0000_0000_c000_000000000046 10008260     pimstorelib:PictureStream.obj
 0001:00007270       ??_7CUnknownPrivate@@6B@   10008270     pimstorelib:PictureStream.obj
 0001:00007280       ??_7PictureStream@@6BIStream@@@ 10008280     pimstorelib:PictureStream.obj
 0001:000072b8       ??_7PictureStream@@6BCUnknownPrivate@@@ 100082b8     pimstorelib:PictureStream.obj
 0001:000072c8       ??_7?$CUnknownImpl@UIEnumVARIANT@@@@6B@ 100082c8     pimstorelib:enum.obj
 0001:000072e8       ??_7CPOOMEnum@@6B@         100082e8     pimstorelib:enum.obj
 0001:0000730c       _GUID_a8235f22_e980_4633_82ec_8118d8b37cb5 1000830c     pimstorelib:enum.obj
 0001:0000731c       _GUID_eb5200a8_727b_4aee_b415_6ca4fb8557f7 1000831c     pimstorelib:enum.obj
 0001:0000732c       _GUID_76065ae0_2347_11d2_8f18_0000f87a4335 1000832c     pimstorelib:enum.obj
 0001:0000733c       _GUID_b47398d1_3b73_11d2_8f1b_0000f87a4335 1000833c     pimstorelib:enum.obj
 0001:0000734c       ??_7CPOOMRecipientsEnum@@6B@ 1000834c     pimstorelib:enum.obj
 0001:00007370       ??_7CPOOMExceptionsEnum@@6B@ 10008370     pimstorelib:enum.obj
 0001:00007394       ??_7CPOOMFoldersEnum@@6B@  10008394     pimstorelib:enum.obj
 0001:000073b8       ??_7CPOOMStoresEnum@@6B@   100083b8     pimstorelib:enum.obj
 0001:000073dc       ??_C@_1DE@CNKILCLC@?$AAC?$AAo?$AAn?$AAt?$AAa?$AAc?$AAt?$AA?5?$AAc?$AAh?$AAo?$AAo?$AAs?$AAe?$AAr?$AA?5?$AAU?$AAI?$AA?5?$AAl?$AAa?$AAu?$AAn?$AAc?$AAh?$AA?$AA@ 100083dc     pimstorelib:ContactsPerf.obj
 0001:00007410       ??_7?$CUnknownImpl@UIPOutlookStoreCollection@@@@6B@ 10008410     pimstorelib:StoreCollection.obj
 0001:00007450       _GUID_1f726ee8_cc61_4640_a80e_74d3df62072f 10008450     pimstorelib:StoreCollection.obj
 0001:00007460       ??_7CStoreCollection@@6B?$CUnknownImpl@UIPOutlookStoreCollection@@@@@ 10008460     pimstorelib:StoreCollection.obj
 0001:000074a0       ??_7CStoreCollection@@6BCDispatchProvider@@@ 100084a0     pimstorelib:StoreCollection.obj
 0001:000074c0       ??_7?$CDispatchImpl@UIPOutlookStoreCollection@@@@6B?$CUnknownImpl@UIPOutlookStoreCollection@@@@@ 100084c0     pimstorelib:StoreCollection.obj
 0001:00007500       ??_7?$CDispatchImpl@UIPOutlookStoreCollection@@@@6BCDispatchProvider@@@ 10008500     pimstorelib:StoreCollection.obj
 0001:0000751c       ??_7CPoomNotify@@6BIChangeEventSink@@@ 1000851c     pimstorelib:PoomNotifications.obj
 0001:0000752c       ??_7CPoomNotify@@6BIPoomNotify@@@ 1000852c     pimstorelib:PoomNotifications.obj
 0001:00007548       ??_7IPoomNotify@@6B@       10008548     pimstorelib:PoomNotifications.obj
 0001:00007564       _GUID_bfbd3fad_2dca_4928_8165_6b62680b3683 10008564     pimstorelib:PoomNotifications.obj
 0001:00007574       _GUID_c93a09c4_5faf_4688_bfe6_7d1b6092d4e9 10008574     pimstorelib:PoomNotifications.obj
 0001:00007584       ??_C@_1BK@PLPKEBIF@?$AAc?$AAa?$AAl?$AAe?$AAn?$AAd?$AAa?$AAr?$AA?4?$AAe?$AAx?$AAe?$AA?$AA@ 10008584     pimstorelib:poomplug.obj
 0001:000075a0       ??_C@_1BE@DNBFFPKI@?$AAt?$AAa?$AAs?$AAk?$AAs?$AA?4?$AAe?$AAx?$AAe?$AA?$AA@ 100085a0     pimstorelib:poomplug.obj
 0001:000075b4       ??_C@_1BK@KCFKAKHO@?$AAa?$AAd?$AAd?$AAr?$AAb?$AAo?$AAo?$AAk?$AA?4?$AAe?$AAx?$AAe?$AA?$AA@ 100085b4     pimstorelib:poomplug.obj
 0001:000075f0       ??_7?$CUnknownImpl@UIStore@@@@6B@ 100085f0     pimstorelib:StorePoom.obj
 0001:00007658       ??_7CStore@@6B?$CUnknownImpl@UIStore@@@@@ 10008658     pimstorelib:StorePoom.obj
 0001:000076bc       ??_7CStore@@6BCDispatchProvider@@@ 100086bc     pimstorelib:StorePoom.obj
 0001:000076d8       ??_7CStore@@6B@            100086d8     pimstorelib:StorePoom.obj
 0001:00007704       ??_C@_1BC@LMKFHBDB@?$AAI?$AAP?$AAM?$AA?4?$AAR?$AAo?$AAo?$AAt?$AA?$AA@ 10008704     pimstorelib:StorePoom.obj
 0001:00007718       ??_7?$CDispatchImpl@UIStore@@@@6B?$CUnknownImpl@UIStore@@@@@ 10008718     pimstorelib:StorePoom.obj
 0001:0000777c       ??_7?$CDispatchImpl@UIStore@@@@6BCDispatchProvider@@@ 1000877c     pimstorelib:StorePoom.obj
 0001:00007798       IID_IStdIdentity           10008798     pimstorelib:EventSink.obj
 0001:000077a8       ??_7?$CUnknownImpl@UIChangeEventSink@@@@6B@ 100087a8     pimstorelib:EventSink.obj
 0001:000077bc       ??_7?$CUnknownImpl@UICustomEventSink@@@@6B@ 100087bc     pimstorelib:EventSink.obj
 0001:000077d0       ??_7?$CUnknownImpl@UIUSAdviseSink@@@@6B@ 100087d0     pimstorelib:EventSink.obj
 0001:000077e4       ??_7CChangeEventSink@@6B@  100087e4     pimstorelib:EventSink.obj
 0001:000077f8       _GUID_c980730e_bf57_49c8_82a7_af64aca2764d 100087f8     pimstorelib:EventSink.obj
 0001:00007808       _GUID_666eceda_91c1_4ba5_b41c_6e45b8b93749 10008808     pimstorelib:EventSink.obj
 0001:00007818       ??_7?$CEventSinkProxy@UIChangeEventSink@@UPIMEVENT@@@@6B@ 10008818     pimstorelib:EventSink.obj
 0001:0000782c       ??_7?$CEventSinkProxy@UICustomEventSink@@UPIMCUSTOMEVENT@@@@6B@ 1000882c     pimstorelib:EventSink.obj
 0001:00007840       _GUID_af57f7f5_0503_44b4_bf19_521e04f6a8eb 10008840     pimstorelib:CalstoreAppointment.obj
 0001:00007850       ??_7CRecurringApptCollection@@6B@ 10008850     pimstorelib:RecurCollection.obj
 0001:00007878       ??_7CApptIterator@@6B@     10008878     pimstorelib:RecurCollection.obj
 0001:0000789c       ??_7?$CComObject@VCRecurringApptCollection@@@ATL@@6B@ 1000889c     pimstorelib:RecurCollection.obj
 0001:000078c8       ?_entries@?1??_GetEntries@CRecurringApptCollection@@SAPBU_ATL_INTMAP_ENTRY@ATL@@XZ@4QBU34@B 100088c8     pimstorelib:RecurCollection.obj
 0001:000078e0       _GUID_c8d8a320_fb75_4e80_be7d_513e0a532c33 100088e0     pimstorelib:RecurCollection.obj
 0001:000078f0       ??_7?$CComObject@VCApptIterator@@@ATL@@6B@ 100088f0     pimstorelib:RecurCollection.obj
 0001:00007918       ?_entries@?1??_GetEntries@CApptIterator@@SAPBU_ATL_INTMAP_ENTRY@ATL@@XZ@4QBU34@B 10008918     pimstorelib:RecurCollection.obj
 0001:00007930       ??_7?$CUSOIDList@VSortedArrayAppt@@UArrayApptData@@@@6B@ 10008930     pimstorelib:RecurCollection.obj
 0001:00007958       ??_7?$CUSOIDApptItem@VSortedArrayAppt@@UArrayApptData@@@@6B@ 10008958     pimstorelib:RecurCollection.obj
 0001:00007980       ??_7CUSOIDItemIterator@@6B@ 10008980     pimstorelib:OidCollection.obj
 0001:000079a4       ??_7CUSOIDRecipientIterator@@6B@ 100089a4     pimstorelib:OidCollection.obj
 0001:000079c4       ??_7CUSOIDCollection@@6B@  100089c4     pimstorelib:OidCollection.obj
 0001:000079fc       ??_7?$CComObject@VCUSOIDItemIterator@@@ATL@@6B@ 100089fc     pimstorelib:OidCollection.obj
 0001:00007a24       ?_entries@?1??_GetEntries@CUSOIDItemIterator@@SAPBU_ATL_INTMAP_ENTRY@ATL@@XZ@4QBU34@B 10008a24     pimstorelib:OidCollection.obj
 0001:00007a3c       ??_7?$CComObject@VCUSOIDRecipientIterator@@@ATL@@6B@ 10008a3c     pimstorelib:OidCollection.obj
 0001:00007a60       ?_entries@?1??_GetEntries@CUSOIDRecipientIterator@@SAPBU_ATL_INTMAP_ENTRY@ATL@@XZ@4QBU34@B 10008a60     pimstorelib:OidCollection.obj
 0001:00007a78       _GUID_441acaad_7a3a_491b_aba5_fd11729f29f8 10008a78     pimstorelib:OidCollection.obj
 0001:00007a88       ??_7?$CComObject@VCUSOIDCollectionItem@@@ATL@@6B@ 10008a88     pimstorelib:OidCollection.obj
 0001:00007ac4       ?_entries@?1??_GetEntries@CUSOIDCollection@@SAPBU_ATL_INTMAP_ENTRY@ATL@@XZ@4QBU34@B 10008ac4     pimstorelib:OidCollection.obj
 0001:00007adc       ??_7?$CComObject@VCUSOIDCollectionFolder@@@ATL@@6B@ 10008adc     pimstorelib:OidCollection.obj
 0001:00007b18       ??_7?$CComObject@VCUSOIDCollectionRecipient@@@ATL@@6B@ 10008b18     pimstorelib:OidCollection.obj
 0001:00007b54       ??_7?$CUSOIDList@VSortedArrayItem@@UArrayItemData@@@@6B@ 10008b54     pimstorelib:OidCollection.obj
 0001:00007b7c       ??_7?$CUSOIDListFolder@VSortedArrayItem@@UArrayItemData@@@@6B@ 10008b7c     pimstorelib:OidCollection.obj
 0001:00007ba4       ??_7?$CUSOIDListItem@VSortedArrayItem@@UArrayItemData@@@@6B@ 10008ba4     pimstorelib:OidCollection.obj
 0001:00007bcc       ??_7?$CUSOIDListRecipients@VSortedArrayItem@@UArrayItemData@@@@6B@ 10008bcc     pimstorelib:OidCollection.obj
 0001:00007bf4       ??_7CUSItemIterator@@6B@   10008bf4     pimstorelib:PoomUSObjectCollection.obj
 0001:00007c18       ??_7CUSStoreIterator@@6B@  10008c18     pimstorelib:PoomUSObjectCollection.obj
 0001:00007c34       ??_7CUSRecipientIterator@@6B@ 10008c34     pimstorelib:PoomUSObjectCollection.obj
 0001:00007c50       ??_7CObjectCollectionUS@@6B@ 10008c50     pimstorelib:PoomUSObjectCollection.obj
 0001:00007c80       ??_7?$CComObject@VCUSItemIterator@@@ATL@@6B@ 10008c80     pimstorelib:PoomUSObjectCollection.obj
 0001:00007ca8       ?_entries@?1??_GetEntries@CUSItemIterator@@SAPBU_ATL_INTMAP_ENTRY@ATL@@XZ@4QBU34@B 10008ca8     pimstorelib:PoomUSObjectCollection.obj
 0001:00007cc0       ??_7?$CComObject@VCUSStoreIterator@@@ATL@@6B@ 10008cc0     pimstorelib:PoomUSObjectCollection.obj
 0001:00007ce0       ?_entries@?1??_GetEntries@CUSStoreIterator@@SAPBU_ATL_INTMAP_ENTRY@ATL@@XZ@4QBU34@B 10008ce0     pimstorelib:PoomUSObjectCollection.obj
 0001:00007cf8       ??_7?$CComObject@VCUSRecipientIterator@@@ATL@@6B@ 10008cf8     pimstorelib:PoomUSObjectCollection.obj
 0001:00007d18       ?_entries@?1??_GetEntries@CUSRecipientIterator@@SAPBU_ATL_INTMAP_ENTRY@ATL@@XZ@4QBU34@B 10008d18     pimstorelib:PoomUSObjectCollection.obj
 0001:00007d30       ??_7?$CComObject@VCObjectCollectionUSItem@@@ATL@@6B@ 10008d30     pimstorelib:PoomUSObjectCollection.obj
 0001:00007d64       ?_entries@?1??_GetEntries@CObjectCollectionUS@@SAPBU_ATL_INTMAP_ENTRY@ATL@@XZ@4QBU34@B 10008d64     pimstorelib:PoomUSObjectCollection.obj
 0001:00007d7c       ??_7?$CComObject@VCObjectCollectionUSFolder@@@ATL@@6B@ 10008d7c     pimstorelib:PoomUSObjectCollection.obj
 0001:00007db0       ??_7?$CComObject@VCObjectCollectionUSStore@@@ATL@@6B@ 10008db0     pimstorelib:PoomUSObjectCollection.obj
 0001:00007de4       ??_7?$CComObject@VCObjectCollectionUSRecipient@@@ATL@@6B@ 10008de4     pimstorelib:PoomUSObjectCollection.obj
 0001:00007e18       ??_7?$CUnknownImpl@UIPOutlookFolderCollection@@@@6B@ 10008e18     pimstorelib:FolderCollection.obj
 0001:00007e58       ??_7CFolderCollection@@6B?$CUnknownImpl@UIPOutlookFolderCollection@@@@@ 10008e58     pimstorelib:FolderCollection.obj
 0001:00007e98       ??_7CFolderCollection@@6BCDispatchProvider@@@ 10008e98     pimstorelib:FolderCollection.obj
 0001:00007eb8       ??_7?$CDispatchImpl@UIPOutlookFolderCollection@@@@6B?$CUnknownImpl@UIPOutlookFolderCollection@@@@@ 10008eb8     pimstorelib:FolderCollection.obj
 0001:00007ef8       ??_7?$CDispatchImpl@UIPOutlookFolderCollection@@@@6BCDispatchProvider@@@ 10008ef8     pimstorelib:FolderCollection.obj
 0001:00007f24       ??_7?$CUnknownImpl@UIPOlException@@@@6B@ 10008f24     pimstorelib:except.obj
 0001:00007f58       ??_7?$CUnknownImpl@UIExceptions@@@@6B@ 10008f58     pimstorelib:except.obj
 0001:00007f88       ??_7CExceptionCollection@@6B?$CUnknownImpl@UIExceptions@@@@@ 10008f88     pimstorelib:except.obj
 0001:00007fb8       ??_7CExceptionCollection@@6BCDispatchProvider@@@ 10008fb8     pimstorelib:except.obj
 0001:00007fd4       ??_7CException@@6B?$CUnknownImpl@UIPOlException@@@@@ 10008fd4     pimstorelib:except.obj
 0001:00008008       ??_7CException@@6BCDispatchProvider@@@ 10009008     pimstorelib:except.obj
 0001:00008024       ??_7?$CDispatchImpl@UIExceptions@@@@6B?$CUnknownImpl@UIExceptions@@@@@ 10009024     pimstorelib:except.obj
 0001:00008054       ??_7?$CDispatchImpl@UIExceptions@@@@6BCDispatchProvider@@@ 10009054     pimstorelib:except.obj
 0001:00008070       ??_7?$CDispatchImpl@UIPOlException@@@@6B?$CUnknownImpl@UIPOlException@@@@@ 10009070     pimstorelib:except.obj
 0001:000080a4       ??_7?$CDispatchImpl@UIPOlException@@@@6BCDispatchProvider@@@ 100090a4     pimstorelib:except.obj
 0001:000080c8       __real@4096800000000000    100090c8     pimstorelib:recur.obj
 0001:000080d0       ??_7?$CUnknownImpl@UIRecurrencePattern@@@@6B@ 100090d0     pimstorelib:recur.obj
 0001:00008168       ??_7CRecurrencePattern@@6B?$CUnknownImpl@UIRecurrencePattern@@@@@ 10009168     pimstorelib:recur.obj
 0001:00008208       ??_7CRecurrencePattern@@6BCDispatchProvider@@@ 10009208     pimstorelib:recur.obj
 0001:00008228       ??_7CRecurrencePattern@@6B@ 10009228     pimstorelib:recur.obj
 0001:000082c0       ??_7?$CDispatchImpl@UIRecurrencePattern@@@@6B?$CUnknownImpl@UIRecurrencePattern@@@@@ 100092c0     pimstorelib:recur.obj
 0001:00008354       ??_7?$CDispatchImpl@UIRecurrencePattern@@@@6BCDispatchProvider@@@ 10009354     pimstorelib:recur.obj
 0001:00008370       __real@4038000000000000    10009370     pimstorelib:timezone.obj
 0001:00008378       ??_7?$CUnknownImpl@UITimeZone@@@@6B@ 10009378     pimstorelib:timezone.obj
 0001:000083e0       ??_7CTimeZone@@6B?$CUnknownImpl@UITimeZone@@@@@ 100093e0     pimstorelib:timezone.obj
 0001:00008444       ??_7CTimeZone@@6BCDispatchProvider@@@ 10009444     pimstorelib:timezone.obj
 0001:00008460       ??_7?$CDispatchImpl@UITimeZone@@@@6B?$CUnknownImpl@UITimeZone@@@@@ 10009460     pimstorelib:timezone.obj
 0001:000084c4       ??_7?$CDispatchImpl@UITimeZone@@@@6BCDispatchProvider@@@ 100094c4     pimstorelib:timezone.obj
 0001:000084e0       ??_7?$CUnknownImpl@UIRecipient2@@@@6B@ 100094e0     pimstorelib:recip.obj
 0001:00008524       ??_7?$CUnknownImpl@UIRecipients@@@@6B@ 10009524     pimstorelib:recip.obj
 0001:0000855c       ??_7CRecipients@@6B?$CUnknownImpl@UIRecipients@@@@@ 1000955c     pimstorelib:recip.obj
 0001:00008594       ??_7CRecipients@@6BCDispatchProvider@@@ 10009594     pimstorelib:recip.obj
 0001:000085b0       ??_7CRecipients@@6B@       100095b0     pimstorelib:recip.obj
 0001:000085d8       ??_7CRecipient@@6B?$CUnknownImpl@UIRecipient2@@@@@ 100095d8     pimstorelib:recip.obj
 0001:0000861c       ??_7CRecipient@@6BCDispatchProvider@@@ 1000961c     pimstorelib:recip.obj
 0001:00008638       ??_7CRecipient@@6B@        10009638     pimstorelib:recip.obj
 0001:00008668       ??_7?$CDispatchImpl@UIRecipients@@@@6B?$CUnknownImpl@UIRecipients@@@@@ 10009668     pimstorelib:recip.obj
 0001:000086a0       ??_7?$CDispatchImpl@UIRecipients@@@@6BCDispatchProvider@@@ 100096a0     pimstorelib:recip.obj
 0001:000086bc       _GUID_7e136be0_5240_11d2_8f1b_0000f87a4335 100096bc     pimstorelib:recip.obj
 0001:000086d0       ??_7?$CDispatchImpl@UIRecipient2@@@@6B?$CUnknownImpl@UIRecipient2@@@@@ 100096d0     pimstorelib:recip.obj
 0001:00008714       ??_7?$CDispatchImpl@UIRecipient2@@@@6BCDispatchProvider@@@ 10009714     pimstorelib:recip.obj
 0001:00008738       ??_7?$CUnknownImpl@UIPOutlookRecipientCollection@@@@6B@ 10009738     pimstorelib:RecipientTable.obj
 0001:00008758       ??_7?$CUnknownImpl@UIRecipient3@@@@6B@ 10009758     pimstorelib:RecipientTable.obj
 0001:0000878c       _GUID_49048079_6fe1_4cbc_ac12_903e18cdbe73 1000978c     pimstorelib:RecipientTable.obj
 0001:0000879c       ??_7CCollectionRecipient@@6B@ 1000979c     pimstorelib:RecipientTable.obj
 0001:000087d0       _GUID_d4e60ec9_e61a_48a5_adec_554abf0c8227 100097d0     pimstorelib:RecipientTable.obj
 0001:000087e0       ??_7CRecipientCollection@@6B@ 100097e0     pimstorelib:RecipientTable.obj
 0001:00008804       ??_7SortedArrayItem@@6B@   10009804     pimstorelib:ArrayItems.obj
 0001:00008818       ??_7SortedArrayAppt@@6B@   10009818     pimstorelib:ArrayItems.obj
 0001:0000882c       CLSID_PSFactoryBuffer      1000982c     pimstoreuuid:pimproxy.obj
 0001:000088a0       _poomext_ProxyVtblList     100098a0     pimstoreuuid:poomext_p.obj
 0001:000088a4       _poomext_StubVtblList      100098a4     pimstoreuuid:poomext_p.obj
 0001:000088a8       _poomext_InterfaceNamesList 100098a8     pimstoreuuid:poomext_p.obj
 0001:000088ac       poomext_ProxyFileInfo      100098ac     pimstoreuuid:poomext_p.obj
 0001:000088d4       ??_C@_0BA@ILECNIFD@IContactPrivate?$AA@ 100098d4     pimstoreuuid:pimstore_priv_p.obj
 0001:000088e4       ??_C@_0P@KFAGKEMA@IStoreIterator?$AA@ 100098e4     pimstoreuuid:pimstore_priv_p.obj
 0001:000088f4       ??_C@_0BD@HBPCCLDD@IRecipientIterator?$AA@ 100098f4     pimstoreuuid:pimstore_priv_p.obj
 0001:00008908       ??_C@_0BB@JNNOMBLM@IPOutlookAppPriv?$AA@ 10009908     pimstoreuuid:pimstore_priv_p.obj
 0001:0000891c       ??_C@_0O@CKHABBK@IItemIterator?$AA@ 1000991c     pimstoreuuid:pimstore_priv_p.obj
 0001:0000892c       ??_C@_0N@HNDKGAI@IRestriction?$AA@ 1000992c     pimstoreuuid:pimstore_priv_p.obj
 0001:0000893c       ??_C@_0M@NONCHJKC@ICollection?$AA@ 1000993c     pimstoreuuid:pimstore_priv_p.obj
 0001:00009278       _IRestrictionStubVtbl      1000a278     pimstoreuuid:pimstore_priv_p.obj
 0001:000092f8       _ICollectionStubVtbl       1000a2f8     pimstoreuuid:pimstore_priv_p.obj
 0001:00009368       _IItemIteratorStubVtbl     1000a368     pimstoreuuid:pimstore_priv_p.obj
 0001:000093e0       _IStoreIteratorStubVtbl    1000a3e0     pimstoreuuid:pimstore_priv_p.obj
 0001:00009458       _IRecipientIteratorStubVtbl 1000a458     pimstoreuuid:pimstore_priv_p.obj
 0001:000094cc       _IPOutlookAppPrivStubVtbl  1000a4cc     pimstoreuuid:pimstore_priv_p.obj
 0001:00009540       _IContactPrivateStubVtbl   1000a540     pimstoreuuid:pimstore_priv_p.obj
 0001:00009578       _pimstore_priv_ProxyVtblList 1000a578     pimstoreuuid:pimstore_priv_p.obj
 0001:00009598       _pimstore_priv_StubVtblList 1000a598     pimstoreuuid:pimstore_priv_p.obj
 0001:000095b8       _pimstore_priv_InterfaceNamesList 1000a5b8     pimstoreuuid:pimstore_priv_p.obj
 0001:000095d8       pimstore_priv_ProxyFileInfo 1000a5d8     pimstoreuuid:pimstore_priv_p.obj
 0001:00009600       ??_C@_0O@PGHLMLGH@IAppointment2?$AA@ 1000a600     pimstoreuuid:pimstore_p.obj
 0001:00009610       ??_C@_0O@PIGGJFBN@IPOutlookApp3?$AA@ 1000a610     pimstoreuuid:pimstore_p.obj
 0001:00009620       ??_C@_05PINNJIPA@ITask?$AA@ 1000a620     pimstoreuuid:pimstore_p.obj
 0001:00009628       ??_C@_0L@EIMABAJN@IRecipient?$AA@ 1000a628     pimstoreuuid:pimstore_p.obj
 0001:00009634       ??_C@_0M@IKOEAFNM@IRecipients?$AA@ 1000a634     pimstoreuuid:pimstore_p.obj
 0001:00009640       ??_C@_0BB@MAIOJIFB@ICustomEventSink?$AA@ 1000a640     pimstoreuuid:pimstore_p.obj
 0001:00009654       ??_C@_08FMLCFILJ@IFolder2?$AA@ 1000a654     pimstoreuuid:pimstore_p.obj
 0001:00009660       ??_C@_06DGICAGLD@IItem2?$AA@ 1000a660     pimstoreuuid:pimstore_p.obj
 0001:00009668       ??_C@_09OIHNNMLE@IContact2?$AA@ 1000a668     pimstoreuuid:pimstore_p.obj
 0001:00009674       ??_C@_0M@FLGDHGAE@IExceptions?$AA@ 1000a674     pimstoreuuid:pimstore_p.obj
 0001:00009680       ??_C@_05EJJLBECK@IItem?$AA@ 1000a680     pimstoreuuid:pimstore_p.obj
 0001:00009688       ??_C@_0L@HENEDJDJ@IException?$AA@ 1000a688     pimstoreuuid:pimstore_p.obj
 0001:00009694       ??_C@_0M@HKJNEKNJ@IRecipient3?$AA@ 1000a694     pimstoreuuid:pimstore_p.obj
 0001:000096a0       ??_C@_0O@OBHNKEFM@IPOutlookApp2?$AA@ 1000a6a0     pimstoreuuid:pimstore_p.obj
 0001:000096b0       ??_C@_0BB@MNKJNKJE@IChangeEventSink?$AA@ 1000a6b0     pimstoreuuid:pimstore_p.obj
 0001:000096c4       ??_C@_0BI@EODCMCLP@IPOutlookItemCollection?$AA@ 1000a6c4     pimstoreuuid:pimstore_p.obj
 0001:000096dc       ??_C@_0BJ@LNBCFFNB@IPOutlookStoreCollection?$AA@ 1000a6dc     pimstoreuuid:pimstore_p.obj
 0001:000096f8       ??_C@_0M@GDIGHLJI@IRecipient2?$AA@ 1000a6f8     pimstoreuuid:pimstore_p.obj
 0001:00009704       ??_C@_0N@KDKGNFF@IAppointment?$AA@ 1000a704     pimstoreuuid:pimstore_p.obj
 0001:00009714       ??_C@_09NMMDGEJJ@IPOlItems?$AA@ 1000a714     pimstoreuuid:pimstore_p.obj
 0001:00009720       ??_C@_09GHLNOKDC@ITimeZone?$AA@ 1000a720     pimstoreuuid:pimstore_p.obj
 0001:0000972c       ??_C@_05JCBCJNNL@ICity?$AA@ 1000a72c     pimstoreuuid:pimstore_p.obj
 0001:00009734       ??_C@_0L@GEHPLMPF@IPOlItems2?$AA@ 1000a734     pimstoreuuid:pimstore_p.obj
 0001:00009740       ??_C@_0BN@CMBPJONL@IPOutlookRecipientCollection?$AA@ 1000a740     pimstoreuuid:pimstore_p.obj
 0001:00009760       ??_C@_0N@GCJPCOIL@IRecipients2?$AA@ 1000a760     pimstoreuuid:pimstore_p.obj
 0001:00009770       ??_C@_0BJ@LGOAMIKO@IPOutlookItemCollection2?$AA@ 1000a770     pimstoreuuid:pimstore_p.obj
 0001:0000978c       ??_C@_08NNPNGMH@IContact?$AA@ 1000a78c     pimstoreuuid:pimstore_p.obj
 0001:00009798       ??_C@_0O@KBKFOMGC@IPOlRecipient?$AA@ 1000a798     pimstoreuuid:pimstore_p.obj
 0001:000097a8       ??_C@_06BJPCOIPE@IStore?$AA@ 1000a7a8     pimstoreuuid:pimstore_p.obj
 0001:000097b0       ??_C@_0N@LLOLBFML@IPOutlookApp?$AA@ 1000a7b0     pimstoreuuid:pimstore_p.obj
 0001:000097c0       ??_C@_0BK@OMLBGNNN@IPOutlookFolderCollection?$AA@ 1000a7c0     pimstoreuuid:pimstore_p.obj
 0001:000097dc       ??_C@_07MJOFOMDL@IFolder?$AA@ 1000a7dc     pimstoreuuid:pimstore_p.obj
 0001:000097e4       ??_C@_06FADFHLPF@ITask2?$AA@ 1000a7e4     pimstoreuuid:pimstore_p.obj
 0001:000097ec       ??_C@_0BE@MBCHLODP@IRecurrencePattern2?$AA@ 1000a7ec     pimstoreuuid:pimstore_p.obj
 0001:00009800       ??_C@_0BD@IOHEMFLO@IRecurrencePattern?$AA@ 1000a800     pimstoreuuid:pimstore_p.obj
 0001:0000e380       _IChangeEventSinkStubVtbl  1000f380     pimstoreuuid:pimstore_p.obj
 0001:0000e3f4       _ICustomEventSinkStubVtbl  1000f3f4     pimstoreuuid:pimstore_p.obj
 0001:0000e9d0       _IRecipients2StubVtbl      1000f9d0     pimstoreuuid:pimstore_p.obj
 0001:0000fdd4       _IItemStubVtbl             10010dd4     pimstoreuuid:pimstore_p.obj
 0001:0000fe44       _IItem2StubVtbl            10010e44     pimstoreuuid:pimstore_p.obj
 0001:0000feb4       _IRecipient3StubVtbl       10010eb4     pimstoreuuid:pimstore_p.obj
 0001:0000ff2c       _IPOutlookRecipientCollectionStubVtbl 10010f2c     pimstoreuuid:pimstore_p.obj
 0001:0000ffe8       _pimstore_ProxyVtblList    10010fe8     pimstoreuuid:pimstore_p.obj
 0001:00010078       _pimstore_StubVtblList     10011078     pimstoreuuid:pimstore_p.obj
 0001:00010108       _pimstore_InterfaceNamesList 10011108     pimstoreuuid:pimstore_p.obj
 0001:00010198       _pimstore_BaseIIDList      10011198     pimstoreuuid:pimstore_p.obj
 0001:00010228       pimstore_ProxyFileInfo     10011228     pimstoreuuid:pimstore_p.obj
 0001:00010250       IID_IPOutlookRecipientCollection 10011250     pimstoreuuid:pimstore_i.obj
 0001:00010260       GUID_NULL                  10011260     dcomuuid:dcomuuid.obj
 0001:00010270       CLSID_StdGlobalInterfaceTable 10011270     dcomuuid:dcomuuid.obj
 0001:00010280       CLSID_InProcFreeMarshaler  10011280     dcomuuid:dcomuuid.obj
 0001:00010290       IID_IDispatch              10011290     dcomuuid:dcomuuid.obj
 0001:000102a0       IID_IEnumVARIANT           100112a0     dcomuuid:dcomuuid.obj
 0001:000102b0       IID_IMarshal               100112b0     dcomuuid:dcomuuid.obj
 0001:000102c0       IID_IUnknown               100112c0     dcomuuid:dcomuuid.obj
 0001:000102d0       IID_IClassFactory          100112d0     dcomuuid:dcomuuid.obj
 0001:000102e0       ??_C@_1CA@CIMBFBDI@?$AAE?$AAd?$AAi?$AAt?$AA?5?$AAC?$AAa?$AAr?$AAd?$AA?5?$AAC?$AAl?$AAo?$AAs?$AAe?$AA?$AA@ 100112e0     PerfMarker:perfmarker.obj
 0001:00010300       ??_C@_1BO@MPGCGONB@?$AAE?$AAd?$AAi?$AAt?$AA?5?$AAC?$AAa?$AAr?$AAd?$AA?5?$AAO?$AAp?$AAe?$AAn?$AA?$AA@ 10011300     PerfMarker:perfmarker.obj
 0001:00010320       GUID_ATLVer30              10011320     atls:atlbase.obj
 0001:00010330       GUID_ATLVer70              10011330     atls:atlbase.obj
 0001:00010368       ??_C@_19FFMGBAMO@?$AAD?$AAA?$AAT?$AAE?$AA?$AA@ 10011368     calstorelib:store.obj
 0001:00010378       ??_C@_1EK@MJGOPLEF@?$AAS?$AAo?$AAf?$AAt?$AAw?$AAa?$AAr?$AAe?$AA?2?$AAM?$AAi?$AAc?$AAr?$AAo?$AAs?$AAo?$AAf?$AAt?$AA?2?$AAC?$AAa?$AAl?$AAe?$AAn?$AAd?$AAa?$AAr?$AA?2?$AAL?$AAa?$AAs?$AAt@ 10011378     calstorelib:store.obj
 0001:000103c4       ??_C@_1CM@LNLHCPFJ@?$AA$?$AA?$CK?$AA?$EA?$AAN?$AAo?$AAt?$AAi?$AAf?$AAy?$AAD?$AAB?$AAC?$AAh?$AAa?$AAn?$AAg?$AAe?$AAd?$AA?$CD?$AA?$CF?$AA?$CG?$AA?$AA@ 100113c4     calstorelib:store.obj
 0001:000103f0       ??_C@_1BG@IFJKNPI@?$AAC?$AAA?$AAL?$AAN?$AAO?$AAT?$AA?4?$AAE?$AAX?$AAE?$AA?$AA@ 100113f0     calstorelib:store.obj
 0001:000104b4       ??_C@_1BA@KOAGKBNO@?$AA?$CF?$AAs?$AA?5?$AA?$DM?$AA?$CF?$AAs?$AA?$DO?$AA?$AA@ 100114b4     calstorelib:apptment.obj
 0001:000104c4       ??_C@_0BP@BPFKMHOG@CCSAppointment?3?3CCSAppointment?$AA@ 100114c4     calstorelib:apptment.obj
 0001:000104e4       ??_C@_19KANMDILN@?$AAS?$AAM?$AAT?$AAP?$AA?$AA@ 100114e4     calstorelib:apptment.obj
 0001:000104f0       ??_C@_15IALCAGAM@?$AA?$DL?$AA?5?$AA?$AA@ 100114f0     calstorelib:apptment.obj
 0001:000104f8       ??_C@_1CK@DIKHCHPE@?$AA_?$AA_?$AA_?$AA_?$AA_?$AA_?$AA_?$AA_?$AA_?$AA_?$AA_?$AA_?$AA_?$AA_?$AA_?$AA_?$AA_?$AA_?$AA_?$AA_?$AA?$AA@ 100114f8     calstorelib:apptment.obj
 0001:00010524       ??_C@_19KLGIPDEL@?$AA?$AN?$AA?6?$AA?$AN?$AA?6?$AA?$AA@ 10011524     calstorelib:apptment.obj
 0001:000106ac       ?Init@CComCriticalSection@ATL@@QAAJXZ 100116ac f i dllmain.obj
 0001:00010704       ?AtlCallTermFunc@ATL@@YAXPAU_ATL_MODULE70@1@@Z 10011704 f i dllmain.obj
 0001:0001075c       HIDPI_InitScaling          1001175c f i dllmain.obj
 0001:000107ec       DllMain                    100117ec f   dllmain.obj
 0001:00010848       DllCanUnloadNow            10011848 f   dllmain.obj
 0001:00010880       PIMStoreFreeModules        10011880 f   dllmain.obj
 0001:00010890       ?AddRef@?$CUnknownImpl@UIClassFactory@@@@UAAKXZ 10011890 f i dllmain.obj
 0001:00010898       ?Release@?$CUnknownImpl@UIClassFactory@@@@UAAKXZ 10011898 f i dllmain.obj
 0001:000108cc       ??_E?$CUnknownImpl@UIClassFactory@@@@UAAPAXI@Z 100118cc f i dllmain.obj
 0001:000108cc       ??_G?$CUnknownImpl@UIClassFactory@@@@UAAPAXI@Z 100118cc f i dllmain.obj
 0001:00010904       ??0CAtlModule@ATL@@QAA@XZ  10011904 f i dllmain.obj
 0001:0001096c       ?Term@CAtlModule@ATL@@QAAXXZ 1001196c f i dllmain.obj
 0001:000109c0       ?GetOidFromRef@@YAJPBUItemRef@@PAK@Z 100119c0 f   dllmain.obj
 0001:00010a10       ?ocscpy_s@@YA_NPAGIPBG@Z   10011a10 f i dllmain.obj
 0001:00010a64       ?AtlThrowImpl@ATL@@YAXJ@Z  10011a64 f i dllmain.obj
 0001:00010a90       ?AtlCrtErrorCheck@ATL@@YAHH@Z 10011a90 f i dllmain.obj
 0001:00010ae4       ?AtlHresultFromLastError@ATL@@YAJXZ 10011ae4 f i dllmain.obj
 0001:00010b04       ?AtlHresultFromWin32@ATL@@YAJK@Z 10011b04 f i dllmain.obj
 0001:00010b1c       ?Lock@CAtlModule@ATL@@UAAJXZ 10011b1c f i dllmain.obj
 0001:00010b24       ?Unlock@CAtlModule@ATL@@UAAJXZ 10011b24 f i dllmain.obj
 0001:00010b2c       ?GetLockCount@CAtlModule@ATL@@UAAJXZ 10011b2c f i dllmain.obj
 0001:00010b34       ?GetGITPtr@CAtlModule@ATL@@UAAJPAPAUIGlobalInterfaceTable@@@Z 10011b34 f i dllmain.obj
 0001:00010bb0       ?EscapeSingleQuote@CAtlModule@ATL@@SAXPAGIPBG@Z 10011bb0 f i dllmain.obj
 0001:00010c0c       ?UpdateRegistryFromResourceD@CComModule@ATL@@UAAJPBGHPAU_ATL_REGMAP_ENTRY@2@@Z 10011c0c f i dllmain.obj
 0001:00010c18       ?UpdateRegistryFromResourceD@CComModule@ATL@@UAAJIHPAU_ATL_REGMAP_ENTRY@2@@Z 10011c18 f i dllmain.obj
 0001:00010c24       ?Create@CRegKey@ATL@@QAAJPAUHKEY__@@PBGPAGKKPAU_SECURITY_ATTRIBUTES@@PAK@Z 10011c24 f i dllmain.obj
 0001:00010cc0       ?Open@CRegKey@ATL@@QAAJPAUHKEY__@@PBGK@Z 10011cc0 f i dllmain.obj
 0001:00010d2c       ?SetStringValue@CRegKey@ATL@@QAAJPBG0K@Z 10011d2c f i dllmain.obj
 0001:00010d84       ?SetMultiStringValue@CRegKey@ATL@@QAAJPBG0@Z 10011d84 f i dllmain.obj
 0001:00010dfc       ??0CParseBuffer@CRegParser@ATL@@QAA@H@Z 10011dfc f i dllmain.obj
 0001:00010e54       ?Append@CParseBuffer@CRegParser@ATL@@QAAHPBGH@Z 10011e54 f i dllmain.obj
 0001:00010f48       ?VTFromRegType@CRegParser@ATL@@KAHPBGAAG@Z 10011f48 f i dllmain.obj
 0001:00011010       ?ChToByte@CRegParser@ATL@@KAEG@Z 10012010 f i dllmain.obj
 0001:00011068       ?HKeyFromString@CRegParser@ATL@@KAPAUHKEY__@@PAG@Z 10012068 f i dllmain.obj
 0001:000110b8       ?StrChrW@CRegParser@ATL@@KAPAGPAGG@Z 100120b8 f i dllmain.obj
 0001:00011100       ?SkipWhiteSpace@CRegParser@ATL@@IAAXXZ 10012100 f i dllmain.obj
 0001:00011140       ?NextToken@CRegParser@ATL@@IAAJPAG@Z 10012140 f i dllmain.obj
 0001:000112c8       ?CanForceRemoveKey@CRegParser@ATL@@IAAHPBG@Z 100122c8 f i dllmain.obj
 0001:00011310       ?HasSubKeys@CRegParser@ATL@@IAAHPAUHKEY__@@@Z 10012310 f i dllmain.obj
 0001:0001138c       ?SkipAssignment@CRegParser@ATL@@IAAJPAG@Z 1001238c f i dllmain.obj
 0001:00011418       ?RemoveAll@?$CSimpleMap@PAGPAGVCExpansionVectorEqualHelper@ATL@@@ATL@@QAAXXZ 10012418 f i dllmain.obj
 0001:0001145c       ?FindKey@?$CSimpleMap@PAGPAGVCExpansionVectorEqualHelper@ATL@@@ATL@@QBAHABQAG@Z 1001245c f i dllmain.obj
 0001:000114ac       ?FreeHeap@?$CTempBuffer@G$0EAA@VCCRTAllocator@ATL@@@ATL@@AAAXXZ 100124ac f i dllmain.obj
 0001:000114b4       ?FreeHeap@?$CTempBuffer@G$0BAA@VCCRTAllocator@ATL@@@ATL@@AAAXXZ 100124b4 f i dllmain.obj
 0001:000114bc       ?FreeHeap@?$CTempBuffer@E$0BAA@VCCRTAllocator@ATL@@@ATL@@AAAXXZ 100124bc f i dllmain.obj
 0001:000114c4       ?AllocateHeap@?$CTempBuffer@G$0EAA@VCCRTAllocator@ATL@@@ATL@@AAAXI@Z 100124c4 f i dllmain.obj
 0001:000114f0       ?AllocateHeap@?$CTempBuffer@G$0BAA@VCCRTAllocator@ATL@@@ATL@@AAAXI@Z 100124f0 f i dllmain.obj
 0001:0001151c       ?AllocateHeap@?$CTempBuffer@E$0BAA@VCCRTAllocator@ATL@@@ATL@@AAAXI@Z 1001251c f i dllmain.obj
 0001:00011550       ?RecurseDeleteKey@CRegKey@ATL@@QAAJPBG@Z 10012550 f i dllmain.obj
 0001:0001167c       ?ClearReplacements@CExpansionVector@ATL@@QAAJXZ 1001267c f i dllmain.obj
 0001:0001171c       ?ClearReplacements@CRegObject@ATL@@UAAJXZ 1001271c f i dllmain.obj
 0001:00011748       ?AddCommonRGSReplacements@?$CAtlModuleT@VCComModule@ATL@@@ATL@@UAAJPAUIRegistrarBase@@@Z 10012748 f i dllmain.obj
 0001:00011770       ?Lookup@?$CSimpleMap@PAGPAGVCExpansionVectorEqualHelper@ATL@@@ATL@@QBAPAGABQAG@Z 10012770 f i dllmain.obj
 0001:000117c0       ??_GCComModule@ATL@@UAAPAXI@Z 100127c0 f i dllmain.obj
 0001:000117c0       ??_ECComModule@ATL@@UAAPAXI@Z 100127c0 f i dllmain.obj
 0001:000117f0       ??1CRegObject@ATL@@UAA@XZ  100127f0 f i dllmain.obj
 0001:0001184c       ?QueryInterface@CRegObject@ATL@@UAAJABU_GUID@@PAPAX@Z 1001284c f i dllmain.obj
 0001:00011858       ?AddRef@CRegObject@ATL@@UAAKXZ 10012858 f i dllmain.obj
 0001:00011860       ?Release@CRegObject@ATL@@UAAKXZ 10012860 f i dllmain.obj
 0001:00011868       ??_ECRegObject@ATL@@UAAPAXI@Z 10012868 f i dllmain.obj
 0001:00011868       ??_GCRegObject@ATL@@UAAPAXI@Z 10012868 f i dllmain.obj
 0001:00011894       ?PreProcessBuffer@CRegParser@ATL@@QAAJPAGPAPAG@Z 10012894 f i dllmain.obj
 0001:00011c14       ??0CPOutlookAppFactory@@QAA@XZ 10012c14 f i dllmain.obj
 0001:00011c50       ??_GCPOutlookAppFactory@@UAAPAXI@Z 10012c50 f i dllmain.obj
 0001:00011c50       ??_ECPOutlookAppFactory@@UAAPAXI@Z 10012c50 f i dllmain.obj
 0001:00011c88       ?Add@?$CSimpleMap@PAGPAGVCExpansionVectorEqualHelper@ATL@@@ATL@@QAAHABQAG0@Z 10012c88 f i dllmain.obj
 0001:00011d18       ?Allocate@?$CTempBuffer@G$0EAA@VCCRTAllocator@ATL@@@ATL@@QAAPAGI@Z 10012d18 f i dllmain.obj
 0001:00011d78       ?Allocate@?$CTempBuffer@G$0BAA@VCCRTAllocator@ATL@@@ATL@@QAAPAGI@Z 10012d78 f i dllmain.obj
 0001:00011dd8       ?Allocate@?$CTempBuffer@E$0BAA@VCCRTAllocator@ATL@@@ATL@@QAAPAEI@Z 10012dd8 f i dllmain.obj
 0001:00011e30       ?Add@CExpansionVector@ATL@@QAAHPBG0@Z 10012e30 f i dllmain.obj
 0001:00011f30       ?AddReplacement@CRegObject@ATL@@UAAJPBG0@Z 10012f30 f i dllmain.obj
 0001:00011f98       ?AddValue@CRegParser@ATL@@IAAJAAVCRegKey@2@PBGPAG@Z 10012f98 f i dllmain.obj
 0001:000122c0       ?RegisterSubkeys@CRegParser@ATL@@IAAJPAGPAUHKEY__@@HH@Z 100132c0 f i dllmain.obj
 0001:00012890       DllGetClassObject          10013890 f   dllmain.obj
 0001:00012984       ?RegisterBuffer@CRegParser@ATL@@QAAJPAGH@Z 10013984 f i dllmain.obj
 0001:00012ac0       ?RegisterFromResource@CRegObject@ATL@@IAAJPBG00H@Z 10013ac0 f i dllmain.obj
 0001:00012c3c       ?UpdateRegistryFromResourceS@CAtlModule@ATL@@QAAJPBGHPAU_ATL_REGMAP_ENTRY@2@@Z 10013c3c f i dllmain.obj
 0001:00012e90       ?UpdateRegistryFromResourceS@CAtlModule@ATL@@QAAJIHPAU_ATL_REGMAP_ENTRY@2@@Z 10013e90 f i dllmain.obj
 0001:000130b0       ?UpdateRegistryFromResourceS@CComModule@ATL@@UAAJPBGHPAU_ATL_REGMAP_ENTRY@2@@Z 100140b0 f i dllmain.obj
 0001:000130b4       ?UpdateRegistryFromResourceS@CComModule@ATL@@UAAJIHPAU_ATL_REGMAP_ENTRY@2@@Z 100140b4 f i dllmain.obj
 0001:000130b8       ?_GetProcFromDLL@@YAXPAPAUHINSTANCE__@@PBGPAP6AHXZ1@Z 100140b8 f   DllLoadCmn.obj
 0001:0001310c       ?CreateTempFileStm@@YAJPAPAUIStream@@@Z 1001410c f   DllLoadCmn.obj
 0001:0001315c       ?GetMAPIStorePropTags@@YAHPAU_SPropTagArray@@@Z 1001415c f   DllLoadCmn.obj
 0001:000131a8       CreateMAPITableWalker      100141a8 f   DllLoadCmn.obj
 0001:000131f8       ?GetSignatureText@@YAJPAUIMsgStore@@HPAPAG@Z 100141f8 f   DllLoadCmn.obj
 0001:00013258       ?FreeDelayLoadedModules@@YAXXZ 10014258 f   DllLoadCmn.obj
 0001:00013280       FreeARI                    10014280 f   calstorelib:helper.obj
 0001:000132ec       EmptyARI                   100142ec f   calstorelib:helper.obj
 0001:00013334       div64_32_64                10014334 f i calstorelib:helper.obj
 0001:000133b8       ??0RTime@@QAA@ABU_FILETIME@@@Z 100143b8 f i calstorelib:helper.obj
 0001:00013400       ??4RTime@@QAA?AV0@ABU_FILETIME@@@Z 10014400 f i calstorelib:helper.obj
 0001:00013450       ??4RecPattern@@QAAAAV0@ABQAUtagRECURRENCEDATA@@@Z 10014450 f i calstorelib:helper.obj
 0001:0001354c       ??0RecPattern@@QAA@ABV0@@Z 1001454c f i calstorelib:helper.obj
 0001:000135bc       GetStartAndEndDate         100145bc f   calstorelib:helper.obj
 0001:000138a0       SetRecurrenceData          100148a0 f   calstorelib:helper.obj
 0001:000139d8       ??_Estringdispid@CComTypeInfoHolder@ATL@@QAAPAXI@Z 100149d8 f i calstorelib:precomp.obj
 0001:00013a44       ?get_lock@?$singleton@V?$free_list@$0GE@Vallocator@ce@@@ce@@$03V?$static_allocator@V?$free_list@$0GE@Vallocator@ce@@@ce@@$03@2@@ce@@KAAAVcritical_section@2@XZ 10014a44 f i calstorelib:precomp.obj
 0001:00013a98       ?FWeekDay@RTime@@QBAHXZ    10014a98 f i calstorelib:recpattern.obj
 0001:00013aec       ??0RecPattern@@QAA@XZ      10014aec f   calstorelib:recpattern.obj
 0001:00013b0c       ??1RecPattern@@QAA@XZ      10014b0c f   calstorelib:recpattern.obj
 0001:00013b10       ?Xfer@RecPattern@@QAAXAAVStreamContext@@AAG@Z 10014b10 f   calstorelib:recpattern.obj
 0001:00013c40       ?InitPattern@RecPattern@@QAAXXZ 10014c40 f   calstorelib:recpattern.obj
 0001:00013da4       ?EvalMinute@RecPattern@@ABA?AVRTime@@V2@H@Z 10014da4 f   calstorelib:recpattern.obj
 0001:00013e18       ?EvalWeek@RecPattern@@ABA?AVRTime@@V2@H@Z 10014e18 f   calstorelib:recpattern.obj
 0001:00014074       ?GetDateByIndexWeek@RecPattern@@ABA?AVRTime@@V2@I@Z 10015074 f   calstorelib:recpattern.obj
 0001:0001426c       ?InitializeDefaultPattern@RecPattern@@QAAXGVRTime@@HHH@Z 1001526c f   calstorelib:recpattern.obj
 0001:000143d4       ?GetMonthPatternDay@RecPattern@@ABAJVRTime@@ABVATime@@@Z 100153d4 f   calstorelib:recpattern.obj
 0001:00014700       ?EvalMonth@RecPattern@@ABA?AVRTime@@V2@H@Z 10015700 f   calstorelib:recpattern.obj
 0001:00014894       ?GetDateByIndexMonth@RecPattern@@ABA?AVRTime@@V2@I@Z 10015894 f   calstorelib:recpattern.obj
 0001:00014928       ?Eval@RecPattern@@QBA?AVRTime@@V2@H@Z 10015928 f   calstorelib:recpattern.obj
 0001:00014a68       ?GetDateByIndex@RecPattern@@QBA?AVRTime@@V2@I@Z 10015a68 f   calstorelib:recpattern.obj
 0001:00014b48       ?GetCurrentTimeZone@@YAXPAUtagTZREG@@@Z 10015b48 f   calstorelib:recur.obj
 0001:00014bcc       ?DestructGen@RGRTime@@UAAXPAX@Z 10015bcc f   calstorelib:recur.obj
 0001:00014bd0       ?XferEl@RGRecX@@CAXAAVStreamContext@@PAX1@Z 10015bd0 f   calstorelib:recur.obj
 0001:00014bd4       ?SetOccurrences@Recurrence@@QAAXH@Z 10015bd4 f   calstorelib:recur.obj
 0001:00014be4       CePerfBeginDuration        10015be4 f i calstorelib:recur.obj
 0001:00014c58       CePerfEndDuration          10015c58 f i calstorelib:recur.obj
 0001:00014ce0       ?FEqualSystimes@@YAHPBU_SYSTEMTIME@@0@Z 10015ce0 f   calstorelib:recur.obj
 0001:00014d68       ?InitTZInfo@ApptRecurrence@@AAAXXZ 10015d68 f   calstorelib:recur.obj
 0001:00014de4       ?GetString@ApptRecurrence@@AAAJAAVStreamContext@@PAPAG@Z 10015de4 f   calstorelib:recur.obj
 0001:00014e74       ??1ApptRecurBlock@@QAA@XZ  10015e74 f   calstorelib:recur.obj
 0001:00014ee8       ?SzMemDup@@YAPAGPBG@Z      10015ee8 f i calstorelib:recur.obj
 0001:00014f30       ?ConstructGen@RGRTime@@UAAXPAX@Z 10015f30 f   calstorelib:recur.obj
 0001:00014f40       ?ConstructGen@RGRTime@@UAAXPAXPBX@Z 10015f40 f   calstorelib:recur.obj
 0001:00014f4c       ?RtmNext@RGRecX@@QBA?AVRTime@@V2@H@Z 10015f4c f   calstorelib:recur.obj
 0001:00014ff4       ?AddRtm@RGRecX@@QAAXVRTime@@@Z 10015ff4 f   calstorelib:recur.obj
 0001:00015044       ?DelRtm@RGRecX@@QAAXVRTime@@@Z 10016044 f   calstorelib:recur.obj
 0001:00015088       ??1Recurrence@@QAA@XZ      10016088 f   calstorelib:recur.obj
 0001:000150b8       ?Xfer@Recurrence@@QAAXAAVStreamContext@@@Z 100160b8 f   calstorelib:recur.obj
 0001:00015138       ?SetPattern@Recurrence@@QAAXABVRecPattern@@@Z 10016138 f   calstorelib:recur.obj
 0001:00015170       ?GetNegativeExceptionStarts@Recurrence@@QAAXPAPAVRTime@@PAG@Z 10016170 f   calstorelib:recur.obj
 0001:000151d4       ?SetClipDates@Recurrence@@QAAXVRTime@@0@Z 100161d4 f   calstorelib:recur.obj
 0001:00015274       ?SetDefaultPattern@Recurrence@@QAAXGVRTime@@H@Z 10016274 f   calstorelib:recur.obj
 0001:000152dc       ?IsNegativeException@Recurrence@@QAAHVRTime@@@Z 100162dc f   calstorelib:recur.obj
 0001:00015310       ?Eval@Recurrence@@ABA?AVRTime@@V2@HHPAH@Z 10016310 f   calstorelib:recur.obj
 0001:000154dc       ??1ApptRecurrence@@QAA@XZ  100164dc f   calstorelib:recur.obj
 0001:00015514       ?CopyARItoARB@@YAXPAVApptRecurBlock@@PAUApptRecurInfo@@@Z 10016514 f   calstorelib:recur.obj
 0001:00015674       ?CopyARBtoARI@@YAXPAUApptRecurInfo@@PAVApptRecurBlock@@@Z 10016674 f   calstorelib:recur.obj
 0001:00015790       ?ConvertInputTime@ApptRecurrence@@QAAXPAVRTime@@@Z 10016790 f   calstorelib:recur.obj
 0001:000157f8       ?ConvertOutputTime@ApptRecurrence@@QAAXPAVRTime@@@Z 100167f8 f   calstorelib:recur.obj
 0001:00015860       ?DestructGen@RGApptRecurBlock@@UAAXPAX@Z 10016860 f   calstorelib:recur.obj
 0001:00015868       ??0ApptRecurBlock@@QAA@XZ  10016868 f   calstorelib:recur.obj
 0001:000158c8       ??4ApptRecurBlock@@QAAAAV0@ABV0@@Z 100168c8 f   calstorelib:recur.obj
 0001:000159dc       ??0Recurrence@@QAA@XZ      100169dc f   calstorelib:recur.obj
 0001:00015a8c       ?Snap@Recurrence@@QBA?AVRTime@@V2@PAH@Z 10016a8c f   calstorelib:recur.obj
 0001:00015ac8       ?Next@Recurrence@@QBA?AVRTime@@V2@PAH@Z 10016ac8 f   calstorelib:recur.obj
 0001:00015b04       ?ComputeEndDate@Recurrence@@QBA?AVRTime@@J@Z 10016b04 f   calstorelib:recur.obj
 0001:00015bb8       ?CountOccurrences@Recurrence@@QBAJXZ 10016bb8 f   calstorelib:recur.obj
 0001:00015c54       ??0ApptRecurrence@@QAA@H@Z 10016c54 f   calstorelib:recur.obj
 0001:00015cac       ?DeleteOccurrence@ApptRecurrence@@QAAHVRTime@@@Z 10016cac f   calstorelib:recur.obj
 0001:00015ddc       ?EditException@ApptRecurrence@@QAAHVRTime@@00PAUApptRecurInfo@@@Z 10016ddc f   calstorelib:recur.obj
 0001:00016010       ?Snap@ApptRecurrence@@QAA?AVRTime@@V2@PAV2@PAUApptRecurInfo@@H@Z 10017010 f   calstorelib:recur.obj
 0001:000161d0       ?Next@ApptRecurrence@@QAA?AVRTime@@V2@PAV2@PAUApptRecurInfo@@H@Z 100171d0 f   calstorelib:recur.obj
 0001:00016390       ?Xfer@ApptRecurrence@@AAAJAAVStreamContext@@@Z 10017390 f   calstorelib:recur.obj
 0001:00016e08       ?ConstructGen@RGApptRecurBlock@@UAAXPAX@Z 10017e08 f   calstorelib:recur.obj
 0001:00016e1c       ?FOverlappingException@ApptRecurrence@@QAAHVRTime@@00@Z 10017e1c f   calstorelib:recur.obj
 0001:00016f04       ?FOccurrenceSameDay@ApptRecurrence@@QAAHVRTime@@@Z 10017f04 f   calstorelib:recur.obj
 0001:00017004       ?FindExceptionFromOriginal@ApptRecurrence@@QAA?AVRTime@@V2@@Z 10018004 f   calstorelib:recur.obj
 0001:0001715c       ?GetDateByIndex@ApptRecurrence@@QAA?AVRTime@@I@Z 1001815c f   calstorelib:recur.obj
 0001:00017210       ?XferEx@ApptRecurrence@@QAAJAAVStreamContext@@0H@Z 10018210 f   calstorelib:recur.obj
 0001:00017258       ?XferOut@ApptRecurrence@@QAAJAAVStreamContext@@@Z 10018258 f   calstorelib:recur.obj
 0001:0001725c       ?ConstructGen@RGApptRecurBlock@@UAAXPAXPBX@Z 1001825c f   calstorelib:recur.obj
 0001:00017280       ?XferBlock@@YAXAAVStreamContext@@PAXK@Z 10018280 f   calstorelib:xfer.obj
 0001:000172c0       ?Xfer@@YAXAAVStreamContext@@PAH@Z 100182c0 f   calstorelib:xfer.obj
 0001:0001730c       ?Xfer@@YAXAAVStreamContext@@PAG@Z 1001830c f   calstorelib:xfer.obj
 0001:00017358       ?Xfer@@YAXAAVStreamContext@@PAJ@Z 10018358 f   calstorelib:xfer.obj
 0001:000173a4       ?Xfer@@YAXAAVStreamContext@@PAK@Z 100183a4 f   calstorelib:xfer.obj
 0001:000173f0       ?XferTsz@@YAXAAVStreamContext@@PAGG@Z 100183f0 f   calstorelib:xfer.obj
 0001:000174c0       ?Xfer@@YAXAAVStreamContext@@PAU_SYSTEMTIME@@@Z 100184c0 f   calstorelib:xfer.obj
 0001:00017534       ?Xfer@@YAXAAVStreamContext@@PAUtagTZREG@@@Z 10018534 f   calstorelib:xfer.obj
 0001:00017578       ?Xfer@@YAXAAVStreamContext@@PAVGenericArray@@PAXP6AX022@Z@Z 10018578 f   calstorelib:xfer.obj
 0001:00017624       ?MemRealloc@@YAPAXPAXK@Z   10018624 f   calstorelib:genarray.obj
 0001:00017660       ?SgnDefaultCompare@@YAJPBX0PAX@Z 10018660 f   calstorelib:genarray.obj
 0001:00017670       ?Search@@YAHPAXIKP6AJPBX10@Z00PAJ@Z 10018670 f   calstorelib:genarray.obj
 0001:000176ec       ?Pgen@GenericArray@@QBAPAXJ@Z 100186ec f   calstorelib:genarray.obj
 0001:000176fc       ?SetAllocation@GenericArray@@AAAXJ@Z 100186fc f   calstorelib:genarray.obj
 0001:00017760       ?Insert@GenericArray@@QAAPAXJJ@Z 10018760 f   calstorelib:genarray.obj
 0001:00017814       ?Remove@GenericArray@@QAAXJJ@Z 10018814 f   calstorelib:genarray.obj
 0001:000178c8       ?Search@GenericArray@@QBAHP6AJPBX0PAX@Z10PAJ@Z 100188c8 f   calstorelib:genarray.obj
 0001:00017904       ?ConstructGen@GenericArray@@MAAXPAX@Z 10018904 f   calstorelib:genarray.obj
 0001:00017918       ?ConstructGen@GenericArray@@MAAXPAXPBX@Z 10018918 f   calstorelib:genarray.obj
 0001:00017938       ?DestructGen@GenericArray@@MAAXPAX@Z 10018938 f   calstorelib:genarray.obj
 0001:0001793c       ?Realloc@GenericArray@@MAAPAXPAXK@Z 1001893c f   calstorelib:genarray.obj
 0001:0001795c       ??0GenericArray@@QAA@IH@Z  1001895c f   calstorelib:genarray.obj
 0001:00017984       ?SetSize@GenericArray@@QAAXJ@Z 10018984 f   calstorelib:genarray.obj
 0001:000179ac       ?Append@GenericArray@@QAAPAXJ@Z 100189ac f   calstorelib:genarray.obj
 0001:000179b8       ?RemoveAll@GenericArray@@QAAXXZ 100189b8 f   calstorelib:genarray.obj
 0001:000179c4       ??1GenericArray@@QAA@XZ    100189c4 f   calstorelib:genarray.obj
 0001:000179dc       ??0StreamContext@@QAA@XZ   100189dc f   calstorelib:stmctx.obj
 0001:000179f8       ?GetLength@StreamContext@@QAAKXZ 100189f8 f   calstorelib:stmctx.obj
 0001:00017a00       ?SetSize@StreamContext@@QAAXK@Z 10018a00 f   calstorelib:stmctx.obj
 0001:00017a54       ?Close@StreamContext@@QAAXXZ 10018a54 f   calstorelib:stmctx.obj
 0001:00017a68       ?Read@StreamContext@@QAAXPAXK@Z 10018a68 f   calstorelib:stmctx.obj
 0001:00017aa0       ?Write@StreamContext@@QAAXPAXK@Z 10018aa0 f   calstorelib:stmctx.obj
 0001:00017af8       ?Seek@StreamContext@@QAAKJW4SEEK@1@@Z 10018af8 f   calstorelib:stmctx.obj
 0001:00017b28       ?WriteW@StreamContext@@QAAXG@Z 10018b28 f   calstorelib:stmctx.obj
 0001:00017b44       ?WriteL@StreamContext@@QAAXJ@Z 10018b44 f   calstorelib:stmctx.obj
 0001:00017b60       ?WriteDW@StreamContext@@QAAXK@Z 10018b60 f   calstorelib:stmctx.obj
 0001:00017b7c       ?ReadW@StreamContext@@QAAGXZ 10018b7c f   calstorelib:stmctx.obj
 0001:00017bb8       ?ReadL@StreamContext@@QAAJXZ 10018bb8 f   calstorelib:stmctx.obj
 0001:00017bf4       ?ReadDW@StreamContext@@QAAKXZ 10018bf4 f   calstorelib:stmctx.obj
 0001:00017c30       ?Open@StreamContext@@QAAXPAXW4MODE@1@@Z 10018c30 f   calstorelib:stmctx.obj
 0001:00017c5c       ?PoomCloseHandle@@YAXKH@Z  10018c5c f   pimstorelib:PoomGlobals.obj
 0001:00017c84       ?_Buynode@?$list@UGlobalCleanupInfo@@Vallocator@ce@@@ce@@IAAPAU?$_ListNode@UGlobalCleanupInfo@@@list_impl@2@PAU342@@Z 10018c84 f i pimstorelib:PoomGlobals.obj
 0001:00017cd0       ?erase@?$list@UGlobalCleanupInfo@@Vallocator@ce@@@ce@@QAA?AV?$iterator@UGlobalCleanupInfo@@@list_impl@2@V342@@Z 10018cd0 f i pimstorelib:PoomGlobals.obj
 0001:00017d2c       ?erase@?$list@UGlobalCleanupInfo@@Vallocator@ce@@@ce@@QAA?AV?$iterator@UGlobalCleanupInfo@@@list_impl@2@V342@0@Z 10018d2c f i pimstorelib:PoomGlobals.obj
 0001:00017d84       ??$insert@UGlobalCleanupInfo@@@?$list@UGlobalCleanupInfo@@Vallocator@ce@@@ce@@QAA?AV?$iterator@UGlobalCleanupInfo@@@list_impl@1@V231@ABUGlobalCleanupInfo@@@Z 10018d84 f i pimstorelib:PoomGlobals.obj
 0001:00017dd4       ?Cleanup@GlobalCleanup@@QAAXH@Z 10018dd4 f i pimstorelib:PoomGlobals.obj
 0001:00017e44       ?PoomFreeGlobals@@YAXH@Z   10018e44 f   pimstorelib:PoomGlobals.obj
 0001:00017e54       ?PoomRegisterGlobal@@YAXP6AXKH@ZK@Z 10018e54 f   pimstorelib:PoomGlobals.obj
 0001:00017e98       ?CreatePolApp@CPOutlookAppFactory@@IAAJABU_GUID@@PAPAX@Z 10018e98 f   pimstorelib:factory.obj
 0001:00017f0c       ?LockServer@CPOutlookAppFactory@@UAAJH@Z 10018f0c f   pimstorelib:factory.obj
 0001:00017f38       ?QueryInterface@CPOutlookAppFactory@@UAAJABU_GUID@@PAPAX@Z 10018f38 f   pimstorelib:factory.obj
 0001:00017fe4       ??1CPimConfigurationManager@@QAA@XZ 10018fe4 f i pimstorelib:factory.obj
 0001:00018048       ?InlineIsEqualGUID@@YAHABU_GUID@@0@Z 10019048 f i pimstorelib:factory.obj
 0001:00018090       ?AtlComQIPtrAssign@ATL@@YAPAUIUnknown@@PAPAU2@PAU2@ABU_GUID@@@Z 10019090 f i pimstorelib:factory.obj
 0001:000180ec       ?GetTypeInfoCount@?$IDispatchImpl@VIPimConfigurationManager_Priv@@$1?IID_IPimConfigurationManager@@3U_GUID@@B$1?m_libid@CAtlModule@ATL@@2U_GUID@@A$00$0A@VCComTypeInfoHolder@ATL@@@ATL@@UAAJPAI@Z 100190ec f i pimstorelib:factory.obj
 0001:00018108       ?LoadNameCache@CComTypeInfoHolder@ATL@@QAAJPAUITypeInfo@@@Z 10019108 f i pimstorelib:factory.obj
 0001:000182f0       ?Cleanup@CComTypeInfoHolder@ATL@@SAXK@Z 100192f0 f i pimstorelib:factory.obj
 0001:00018334       ?IsEqualObject@?$CComPtrBase@UITypeInfo@@@ATL@@QAA_NPAUIUnknown@@@Z 10019334 f i pimstorelib:factory.obj
 0001:00018400       ?AtlModuleAddTermFunc@ATL@@YAJPAU_ATL_MODULE70@1@P6AXK@ZK@Z 10019400 f i pimstorelib:factory.obj
 0001:00018474       ?GetTI@CComTypeInfoHolder@ATL@@QAAJK@Z 10019474 f i pimstorelib:factory.obj
 0001:000186dc       ??0?$CComObject@VCPimConfigurationManager@@@ATL@@QAA@PAX@Z 100196dc f i pimstorelib:factory.obj
 0001:0001873c       ?AtlInternalQueryInterface@ATL@@YAJPAXPBU_ATL_INTMAP_ENTRY@1@ABU_GUID@@PAPAX@Z 1001973c f i pimstorelib:factory.obj
 0001:00018868       ?AddRef@?$CComObject@VCPimConfigurationManager@@@ATL@@UAAKXZ 10019868 f i pimstorelib:factory.obj
 0001:00018870       ?Release@?$CComObject@VCPimConfigurationManager@@@ATL@@UAAKXZ 10019870 f i pimstorelib:factory.obj
 0001:000188a8       ?QueryInterface@?$CComObject@VCPimConfigurationManager@@@ATL@@UAAJABU_GUID@@PAPAX@Z 100198a8 f i pimstorelib:factory.obj
 0001:000188bc       ??1?$CComObject@VCPimConfigurationManager@@@ATL@@UAA@XZ 100198bc f i pimstorelib:factory.obj
 0001:000188fc       ??_G?$CComObject@VCPimConfigurationManager@@@ATL@@UAAPAXI@Z 100198fc f i pimstorelib:factory.obj
 0001:000188fc       ??_E?$CComObject@VCPimConfigurationManager@@@ATL@@UAAPAXI@Z 100198fc f i pimstorelib:factory.obj
 0001:00018920       ?GetTI@CComTypeInfoHolder@ATL@@QAAJKPAPAUITypeInfo@@@Z 10019920 f i pimstorelib:factory.obj
 0001:00018978       ?GetIDsOfNames@CComTypeInfoHolder@ATL@@QAAJABU_GUID@@PAPAGIKPAJ@Z 10019978 f i pimstorelib:factory.obj
 0001:00018a7c       ?Invoke@CComTypeInfoHolder@ATL@@QAAJPAUIDispatch@@JABU_GUID@@KGPAUtagDISPPARAMS@@PAUtagVARIANT@@PAUtagEXCEPINFO@@PAI@Z 10019a7c f i pimstorelib:factory.obj
 0001:00018b08       ?GetTypeInfo@?$IDispatchImpl@VIPimConfigurationManager_Priv@@$1?IID_IPimConfigurationManager@@3U_GUID@@B$1?m_libid@CAtlModule@ATL@@2U_GUID@@A$00$0A@VCComTypeInfoHolder@ATL@@@ATL@@UAAJIKPAPAUITypeInfo@@@Z 10019b08 f i pimstorelib:factory.obj
 0001:00018b38       ?GetIDsOfNames@?$IDispatchImpl@VIPimConfigurationManager_Priv@@$1?IID_IPimConfigurationManager@@3U_GUID@@B$1?m_libid@CAtlModule@ATL@@2U_GUID@@A$00$0A@VCComTypeInfoHolder@ATL@@@ATL@@UAAJABU_GUID@@PAPAGIKPAJ@Z 10019b38 f i pimstorelib:factory.obj
 0001:00018b64       ?Invoke@?$IDispatchImpl@VIPimConfigurationManager_Priv@@$1?IID_IPimConfigurationManager@@3U_GUID@@B$1?m_libid@CAtlModule@ATL@@2U_GUID@@A$00$0A@VCComTypeInfoHolder@ATL@@@ATL@@UAAJJABU_GUID@@KGPAUtagDISPPARAMS@@PAUtagVARIANT@@PAUtagEXCEPINFO@@PAI@Z 10019b64 f i pimstorelib:factory.obj
 0001:00018bbc       ?CreateInstance@?$CComCreator@V?$CComObject@VCPimConfigurationManager@@@ATL@@@ATL@@SAJPAXABU_GUID@@PAPAX@Z 10019bbc f i pimstorelib:factory.obj
 0001:00018c98       ?CreateInstance@CPOutlookAppFactory@@UAAJPAUIUnknown@@ABU_GUID@@PAPAX@Z 10019c98 f   pimstorelib:factory.obj
 0001:00018cf8       ?PocketOutlook_ReleaseCOMPtr@@YAKPAUIUnknown@@@Z 10019cf8 f   pimstorelib:pocketoutlook.obj
 0001:00018d0c       ?PocketOutlook_IsFailure@@YAHJ@Z 10019d0c f   pimstorelib:pocketoutlook.obj
 0001:00018d1c       ?IRecurrencePattern_GetOccurrence@@YAJPAUIRecurrencePattern@@PANPAPAUIAppointment@@@Z 10019d1c f   pimstorelib:pocketoutlook.obj
 0001:00018d40       ?IRecipient_put_Address@@YAJPAUIRecipient@@PBG@Z 10019d40 f   pimstorelib:pocketoutlook.obj
 0001:00018d7c       ?IRecipient_get_Address@@YAJPAUIRecipient@@PAPAG@Z 10019d7c f   pimstorelib:pocketoutlook.obj
 0001:00018d90       ?IRecipient_get_Name@@YAJPAUIRecipient@@PAPAG@Z 10019d90 f   pimstorelib:pocketoutlook.obj
 0001:00018da4       ?IRecipient2_put_Status@@YAJPAUIRecipient2@@W4OlRecipientStatus@@@Z 10019da4 f   pimstorelib:pocketoutlook.obj
 0001:00018db8       ?IRecipient2_get_Status@@YAJPAUIRecipient2@@PAW4OlRecipientStatus@@@Z 10019db8 f   pimstorelib:pocketoutlook.obj
 0001:00018dcc       ?IRecipient2_put_Type@@YAJPAUIRecipient2@@W4OlRecipientType@@@Z 10019dcc f   pimstorelib:pocketoutlook.obj
 0001:00018de0       ?IRecipient2_get_Type@@YAJPAUIRecipient2@@PAW4OlRecipientType@@@Z 10019de0 f   pimstorelib:pocketoutlook.obj
 0001:00018df4       ?IRecipients_Remove@@YAJPAUIRecipients@@H@Z 10019df4 f   pimstorelib:pocketoutlook.obj
 0001:00018e08       ?IRecipients_get_Count@@YAJPAUIRecipients@@PAH@Z 10019e08 f   pimstorelib:pocketoutlook.obj
 0001:00018e1c       ?IPOutlookItemCollection_get_Count@@YAJPAUIPOutlookItemCollection@@PAH@Z 10019e1c f   pimstorelib:pocketoutlook.obj
 0001:00018e30       ?IPOutlookItemCollection_Find@@YAJPAUIPOutlookItemCollection@@PBGPAPAUIDispatch@@@Z 10019e30 f   pimstorelib:pocketoutlook.obj
 0001:00018e74       ?IPOutlookItemCollection_FindNext@@YAJPAUIPOutlookItemCollection@@PAPAUIDispatch@@@Z 10019e74 f   pimstorelib:pocketoutlook.obj
 0001:00018e88       ?IPOutlookItemCollection_Add@@YAJPAUIPOutlookItemCollection@@PAPAUIDispatch@@@Z 10019e88 f   pimstorelib:pocketoutlook.obj
 0001:00018e9c       ?IPOutlookItemCollection_Item@@YAJPAUIPOutlookItemCollection@@HPAPAUIDispatch@@@Z 10019e9c f   pimstorelib:pocketoutlook.obj
 0001:00018eb0       ?IPOutlookItemCollection_Remove@@YAJPAUIPOutlookItemCollection@@H@Z 10019eb0 f   pimstorelib:pocketoutlook.obj
 0001:00018ec4       ?IPOutlookItemCollection_Restrict@@YAJPAUIPOutlookItemCollection@@PBGPAPAU1@@Z 10019ec4 f   pimstorelib:pocketoutlook.obj
 0001:00018f08       ?IPOutlookItemCollection_Sort@@YAJPAUIPOutlookItemCollection@@PBGF@Z 10019f08 f   pimstorelib:pocketoutlook.obj
 0001:00018f4c       ?IItem_QIToContact@@YAJPAUIItem@@PAPAUIContact@@@Z 10019f4c f   pimstorelib:pocketoutlook.obj
 0001:00018f6c       ?ITask_ClearRecurrencePattern@@YAJPAUITask@@@Z 10019f6c f   pimstorelib:pocketoutlook.obj
 0001:00018f80       ?ITask_GetRecurrencePattern@@YAJPAUITask@@PAPAUIRecurrencePattern@@@Z 10019f80 f   pimstorelib:pocketoutlook.obj
 0001:00018f94       ?ITask_SkipRecurrence@@YAJPAUITask@@@Z 10019f94 f   pimstorelib:pocketoutlook.obj
 0001:00018fa8       ?IAppointment_ClearRecurrencePattern@@YAJPAUIAppointment@@@Z 10019fa8 f   pimstorelib:pocketoutlook.obj
 0001:00018fbc       ?IAppointment_GetRecurrencePattern@@YAJPAUIAppointment@@PAPAUIRecurrencePattern@@@Z 10019fbc f   pimstorelib:pocketoutlook.obj
 0001:00018fd0       ?IAppointment_get_Recipients@@YAJPAUIAppointment@@PAPAUIRecipients@@@Z 10019fd0 f   pimstorelib:pocketoutlook.obj
 0001:00018fe4       ?IAppointment_Send@@YAJPAUIAppointment@@@Z 10019fe4 f   pimstorelib:pocketoutlook.obj
 0001:00018ff8       ?IAppointment_Cancel@@YAJPAUIAppointment@@@Z 10019ff8 f   pimstorelib:pocketoutlook.obj
 0001:0001900c       ?IFolder_get_Items@@YAJPAUIFolder@@PAPAUIPOutlookItemCollection@@@Z 1001a00c f   pimstorelib:pocketoutlook.obj
 0001:00019020       ?IPOutlookApp_Create@@YAJPAPAUIPOutlookApp@@@Z 1001a020 f   pimstorelib:pocketoutlook.obj
 0001:00019054       ?IPOutlookApp_Logon@@YAJPAUIPOutlookApp@@J@Z 1001a054 f   pimstorelib:pocketoutlook.obj
 0001:00019068       ?IPOutlookApp_Logoff@@YAJPAUIPOutlookApp@@@Z 1001a068 f   pimstorelib:pocketoutlook.obj
 0001:0001907c       ?IPOutlookApp_GetDefaultFolder@@YAJPAUIPOutlookApp@@HPAPAUIFolder@@@Z 1001a07c f   pimstorelib:pocketoutlook.obj
 0001:00019090       ?IPOutlookApp_GetItemFromOid@@YAJPAUIPOutlookApp@@JPAPAUIDispatch@@@Z 1001a090 f   pimstorelib:pocketoutlook.obj
 0001:000190a4       ?IPOutlookApp_SysFreeString@@YAJPAUIPOutlookApp@@PAG@Z 1001a0a4 f   pimstorelib:pocketoutlook.obj
 0001:000190b8       ?IPOutlookApp_HeapFree@@YAHPAU_CEPROPVAL@@@Z 1001a0b8 f   pimstorelib:pocketoutlook.obj
 0001:000190d4       ?GetItemType@@YA_NPAUIDispatch@@PAH@Z 1001a0d4 f   pimstorelib:pocketoutlook.obj
 0001:000191b4       ?GetTypedItem@@YA_NPAUIDispatch@@PAHPAPAU1@@Z 1001a1b4 f   pimstorelib:pocketoutlook.obj
 0001:00019248       ?IContact_release_Picture_buffer@@YAJPAPAD@Z 1001a248 f   pimstorelib:pocketoutlook.obj
 0001:0001925c       ?IPOutlookItemCollection_GetIndexFromOid@@YAJPAUIPOutlookItemCollection@@KPAK@Z 1001a25c f   pimstorelib:pocketoutlook.obj
 0001:00019260       ?IRecipients_Add@@YAJPAUIRecipients@@PBGPAPAUIRecipient2@@@Z 1001a260 f   pimstorelib:pocketoutlook.obj
 0001:000192e4       ?IRecipients_Item@@YAJPAUIRecipients@@HPAPAUIRecipient2@@@Z 1001a2e4 f   pimstorelib:pocketoutlook.obj
 0001:00019348       ?IItem_Save@@YAJPAUIDispatch@@@Z 1001a348 f   pimstorelib:pocketoutlook.obj
 0001:000193ac       ?IItem_Delete@@YAJPAUIDispatch@@@Z 1001a3ac f   pimstorelib:pocketoutlook.obj
 0001:00019410       ?IItem_Copy@@YAJPAUIDispatch@@PAPAUIItem@@@Z 1001a410 f   pimstorelib:pocketoutlook.obj
 0001:0001947c       ?IItem_get_Oid@@YAJPAUIDispatch@@PAJ@Z 1001a47c f   pimstorelib:pocketoutlook.obj
 0001:000194e8       ?IPOutlookStoreCollection_Find@@YAJPAUIPOutlookStoreCollection@@PAGPAPAUIStore@@@Z 1001a4e8 f   pimstorelib:pocketoutlook.obj
 0001:00019508       ?IPOutlookStoreCollection_FindNext@@YAJPAUIPOutlookStoreCollection@@PAPAUIStore@@@Z 1001a508 f   pimstorelib:pocketoutlook.obj
 0001:00019528       ?IPOutlookStoreCollection_GetStore@@YAJPAUIPOutlookStoreCollection@@HPAPAUIStore@@@Z 1001a528 f   pimstorelib:pocketoutlook.obj
 0001:00019548       ?IPOutlookStoreCollection_get_Count@@YAJPAUIPOutlookStoreCollection@@PAH@Z 1001a548 f   pimstorelib:pocketoutlook.obj
 0001:00019568       ?IStore_Delete@@YAJPAUIStore@@@Z 1001a568 f   pimstorelib:pocketoutlook.obj
 0001:00019588       ?IStore_get_DisplayName@@YAJPAUIStore@@PAPAG@Z 1001a588 f   pimstorelib:pocketoutlook.obj
 0001:000195a8       ?IStore_GetDefaultFolder@@YAJPAUIStore@@W4OlDefaultFolders@@PAPAUIFolder2@@@Z 1001a5a8 f   pimstorelib:pocketoutlook.obj
 0001:000195c8       ?IStore_get_Int4PropertyFromPropId@@YAJPAUIStore@@KPAJ@Z 1001a5c8 f   pimstorelib:pocketoutlook.obj
 0001:00019680       ?IStore_put_Int4PropertyFromPropId@@YAJPAUIStore@@KJ@Z 1001a680 f   pimstorelib:pocketoutlook.obj
 0001:000196f4       ?IStore_get_Int2PropertyFromPropId@@YAJPAUIStore@@KPAF@Z 1001a6f4 f   pimstorelib:pocketoutlook.obj
 0001:000197ac       ?IStore_put_Int2PropertyFromPropId@@YAJPAUIStore@@KF@Z 1001a7ac f   pimstorelib:pocketoutlook.obj
 0001:00019820       ?IStore_get_UInt4PropertyFromPropId@@YAJPAUIStore@@KPAK@Z 1001a820 f   pimstorelib:pocketoutlook.obj
 0001:000198d8       ?IStore_put_UInt4PropertyFromPropId@@YAJPAUIStore@@KK@Z 1001a8d8 f   pimstorelib:pocketoutlook.obj
 0001:0001994c       ?IStore_get_UInt2PropertyFromPropId@@YAJPAUIStore@@KPAG@Z 1001a94c f   pimstorelib:pocketoutlook.obj
 0001:00019a04       ?IStore_put_UInt2PropertyFromPropId@@YAJPAUIStore@@KG@Z 1001aa04 f   pimstorelib:pocketoutlook.obj
 0001:00019a78       ?IStore_get_StringPropertyFromPropId@@YAJPAUIStore@@KPAPAXPAPAG@Z 1001aa78 f   pimstorelib:pocketoutlook.obj
 0001:00019b30       ?IStore_put_StringPropertyFromPropId@@YAJPAUIStore@@KPBG@Z 1001ab30 f   pimstorelib:pocketoutlook.obj
 0001:00019bac       ?IStore_GetStoreID@@YAJPAUIStore@@PAUOLITEMID@@@Z 1001abac f   pimstorelib:pocketoutlook.obj
 0001:00019bdc       ?IPOutlookApp3_GetIDsFromNames@@YAJPAUIPOutlookApp2@@KPBQBGKPAK@Z 1001abdc f   pimstorelib:pocketoutlook.obj
 0001:00019c34       ?IContact_put_Picture@@YAJPAUIDispatch@@PBDH@Z 1001ac34 f   pimstorelib:pocketoutlook.obj
 0001:00019d14       ?IContact_get_Picture@@YAJPAUIDispatch@@PAPADPAH@Z 1001ad14 f   pimstorelib:pocketoutlook.obj
 0001:00019e74       ?IItem_show_Dialog@@YAJPAUIDispatch@@@Z 1001ae74 f   pimstorelib:pocketoutlook.obj
 0001:00019edc       ?IItem_get_StringPropertyFromPropId@@YAJPAUIPOutlookApp2@@PAUIDispatch@@KPAPAXPAPAG@Z 1001aedc f   pimstorelib:pocketoutlook.obj
 0001:00019fb4       ?IItem_put_StringPropertyFromPropId@@YAJPAUIPOutlookApp2@@PAUIDispatch@@KPBG@Z 1001afb4 f   pimstorelib:pocketoutlook.obj
 0001:0001a068       ?IItem_get_BoolPropertyFromPropId@@YAJPAUIPOutlookApp2@@PAUIDispatch@@KPAF@Z 1001b068 f   pimstorelib:pocketoutlook.obj
 0001:0001a170       ?IItem_put_BoolPropertyFromPropId@@YAJPAUIPOutlookApp2@@PAUIDispatch@@KF@Z 1001b170 f   pimstorelib:pocketoutlook.obj
 0001:0001a20c       ?IItem_get_Int4PropertyFromPropId@@YAJPAUIPOutlookApp2@@PAUIDispatch@@KPAJ@Z 1001b20c f   pimstorelib:pocketoutlook.obj
 0001:0001a304       ?IItem_put_Int4PropertyFromPropId@@YAJPAUIPOutlookApp2@@PAUIDispatch@@KJ@Z 1001b304 f   pimstorelib:pocketoutlook.obj
 0001:0001a398       ?IItem_get_DatePropertyFromPropId@@YAJPAUIPOutlookApp2@@PAUIDispatch@@KPAK2@Z 1001b398 f   pimstorelib:pocketoutlook.obj
 0001:0001a4a4       ?IItem_put_DatePropertyFromPropId@@YAJPAUIPOutlookApp2@@PAUIDispatch@@KKK@Z 1001b4a4 f   pimstorelib:pocketoutlook.obj
 0001:0001a540       ?CheckPropertyExists@@YAJPAUIPOutlookApp2@@PBGPAH@Z 1001b540 f   pimstorelib:pocketoutlook.obj
 0001:0001a5a4       ?AddCustomProperty@@YAJPAUIPOutlookApp2@@PBGHHPAH@Z 1001b5a4 f   pimstorelib:pocketoutlook.obj
 0001:0001a628       ?SetPOOM2PropertyHelper@@YAJPAUIPOutlookApp2@@PAUIDispatch@@QAU_CEPROPVAL@@@Z 1001b628 f   pimstorelib:pocketoutlook.obj
 0001:0001a6a0       ?IItem_put_Int16PropertyFromPropId@@YAJPAUIPOutlookApp2@@PAUIDispatch@@KF@Z 1001b6a0 f   pimstorelib:pocketoutlook.obj
 0001:0001a6d0       ?IItem_put_UInt32PropertyFromPropId@@YAJPAUIPOutlookApp2@@PAUIDispatch@@KK@Z 1001b6d0 f   pimstorelib:pocketoutlook.obj
 0001:0001a700       ?IItem_put_UInt16PropertyFromPropId@@YAJPAUIPOutlookApp2@@PAUIDispatch@@KG@Z 1001b700 f   pimstorelib:pocketoutlook.obj
 0001:0001a730       ?IItem_put_DoublePropertyFromPropId@@YAJPAUIPOutlookApp2@@PAUIDispatch@@KPAN@Z 1001b730 f   pimstorelib:pocketoutlook.obj
 0001:0001a764       ?IItem_put_BlobPropertyFromPropId@@YAJPAUIPOutlookApp2@@PAUIDispatch@@KHPAE@Z 1001b764 f   pimstorelib:pocketoutlook.obj
 0001:0001a79c       ?GetCustomProperty@@YAJPAUIPOutlookApp2@@PAUIDispatch@@KPAPAX2@Z 1001b79c f   pimstorelib:pocketoutlook.obj
 0001:0001a8e8       ?GetBulkRead@@YAJPAUIPOutlookApp2@@PAUIDispatch@@PAPAXPAK2G@Z 1001b8e8 f   pimstorelib:pocketoutlook.obj
 0001:0001a9e4       ?LocalFileTimeToUTCFileTime@@YAJKKPAK0@Z 1001b9e4 f   pimstorelib:pocketoutlook.obj
 0001:0001aa5c       ?UTCFileTimeToLocalFileTime@@YAJKKPAK0@Z 1001ba5c f   pimstorelib:pocketoutlook.obj
 0001:0001aad4       ?IPOutlookApp_CreateTask@@YAJPAUIPOutlookApp@@PAPAUITask@@@Z 1001bad4 f   pimstorelib:pocketoutlook.obj
 0001:0001ab44       ?IPOutlookApp_CreateContact@@YAJPAUIPOutlookApp@@PAPAUIContact@@@Z 1001bb44 f   pimstorelib:pocketoutlook.obj
 0001:0001abb4       ?IPOutlookApp_CreateAppointment@@YAJPAUIPOutlookApp@@PAPAUIAppointment@@@Z 1001bbb4 f   pimstorelib:pocketoutlook.obj
 0001:0001ac24       ?IStore_GetItems@@YAJPAUIStore@@W4OlItemType@@PAPAUIPOutlookItemCollection@@@Z 1001bc24 f   pimstorelib:pocketoutlook.obj
 0001:0001aca0       ?IFolder2_CreateTask@@YAJPAUIFolder2@@PAPAUITask@@@Z 1001bca0 f   pimstorelib:pocketoutlook.obj
 0001:0001ad20       ?IFolder2_CreateContact@@YAJPAUIFolder2@@PAPAUIContact@@@Z 1001bd20 f   pimstorelib:pocketoutlook.obj
 0001:0001ada0       ?IFolder2_CreateAppointment@@YAJPAUIFolder2@@PAPAUIAppointment@@@Z 1001bda0 f   pimstorelib:pocketoutlook.obj
 0001:0001ae20       ?IPOutlookItemCollection_GetIndexFromId@@YAJPAUIPOutlookItemCollection@@PAUOLITEMID@@PAK@Z 1001be20 f   pimstorelib:pocketoutlook.obj
 0001:0001aeb4       ?IPOutlookItemCollection_IncludeSimContacts@@YAJPAUIPOutlookItemCollection@@@Z 1001beb4 f   pimstorelib:pocketoutlook.obj
 0001:0001af3c       ?IPOutlookApp3_CreateStore@@YAJPAUIPOutlookApp@@PAGKPAPAUIStore@@@Z 1001bf3c f   pimstorelib:pocketoutlook.obj
 0001:0001aff4       ?IPOutlookApp3_GetStores@@YAJPAUIPOutlookApp@@PAPAUIPOutlookStoreCollection@@@Z 1001bff4 f   pimstorelib:pocketoutlook.obj
 0001:0001b084       ?IPOutlookApp3_GetDefaultStore@@YAJPAUIPOutlookApp@@PAPAUIStore@@@Z 1001c084 f   pimstorelib:pocketoutlook.obj
 0001:0001b114       ?IPOutlookApp3_GetItemFromItemId@@YAJPAUIPOutlookApp@@PAUOLITEMID@@PAPAUIItem2@@@Z 1001c114 f   pimstorelib:pocketoutlook.obj
 0001:0001b1ac       ?IItem2_get_Id@@YAJPAUIItem@@PAUOLITEMID@@@Z 1001c1ac f   pimstorelib:pocketoutlook.obj
 0001:0001b23c       ?IsLeafNode@CRestriction@@UAAJPAH@Z 1001c23c f   pimstorelib:Restriction.obj
 0001:0001b25c       ?GetOperator@CRestriction@@UAAJPAW4_RestrictionOp@@@Z 1001c25c f   pimstorelib:Restriction.obj
 0001:0001b27c       ?RestrictionOperatorToText@CRestriction@@CAPBGW4_RestrictionOp@@@Z 1001c27c f   pimstorelib:Restriction.obj
 0001:0001b304       ?ConvertToUSRELOP@CRestriction@@CAJW4_RestrictionOp@@PAW4__MIDL___MIDL_itf_unistore_0000_0000_0002@@@Z 1001c304 f   pimstorelib:Restriction.obj
 0001:0001b37c       ?CompareValue@CRestriction@@CAHJW4_RestrictionOp@@@Z 1001c37c f i pimstorelib:Restriction.obj
 0001:0001b3d8       ?ItemPassesSpecialPropertyRestriction@CRestriction@@AAAJPAU_CEPROPVAL@@PAH1@Z 1001c3d8 f   pimstorelib:Restriction.obj
 0001:0001b434       ?AtlComPtrAssign@ATL@@YAPAUIUnknown@@PAPAU2@PAU2@@Z 1001c434 f i pimstorelib:Restriction.obj
 0001:0001b480       ?DATEtoFILETIME@@YAXPBNPAU_FILETIME@@@Z 1001c480 f i pimstorelib:Restriction.obj
 0001:0001b4d8       ?FILETIMEtoDATE@@YAXPBU_FILETIME@@PAN@Z 1001c4d8 f i pimstorelib:Restriction.obj
 0001:0001b518       ?IsMidnight@@YAHPAU_FILETIME@@@Z 1001c518 f i pimstorelib:Restriction.obj
 0001:0001b564       ?ConvertToString@CRestriction@@UAAJPAPAG@Z 1001c564 f   pimstorelib:Restriction.obj
 0001:0001b8b4       ?ConvertToUSRestriction@CRestriction@@UAAJPAU_USRestriction@@@Z 1001c8b4 f   pimstorelib:Restriction.obj
 0001:0001b9d0       ?GetValue@CRestriction@@UAAJPAPAU_CEPROPVAL@@@Z 1001c9d0 f   pimstorelib:Restriction.obj
 0001:0001b9f0       ?GetLeft@CRestriction@@UAAJPAPAUIRestriction@@@Z 1001c9f0 f   pimstorelib:Restriction.obj
 0001:0001ba2c       ?GetRight@CRestriction@@UAAJPAPAUIRestriction@@@Z 1001ca2c f   pimstorelib:Restriction.obj
 0001:0001ba68       ?CheckForEnumeratedTypes@CRestriction@@CAJKPAGPAPAU_CEPROPVAL@@PAH@Z 1001ca68 f   pimstorelib:Restriction.obj
 0001:0001bc1c       ?ItemPassesLogicalRestriction@CRestriction@@AAAJPAUIItem2@@PAH@Z 1001cc1c f   pimstorelib:Restriction.obj
 0001:0001bcfc       ?USOIDPassesLogicalRestriction@CRestriction@@AAAJPAUUSOID@@PAH@Z 1001ccfc f   pimstorelib:Restriction.obj
 0001:0001bddc       ?ItemPassesPropertyRestriction@CRestriction@@AAAJPAU_CEPROPVAL@@PAH@Z 1001cddc f   pimstorelib:Restriction.obj
 0001:0001bff8       ?EnsureFiletimeWithinLimits@CRestriction@@CAXPAU_FILETIME@@@Z 1001cff8 f   pimstorelib:Restriction.obj
 0001:0001c088       ??1POOMRestrictionHelper@@UAA@XZ 1001d088 f   pimstorelib:Restriction.obj
 0001:0001c0d0       ?ItemPassesRestriction@POOMRestrictionHelper@@UAAJPAUIItem2@@PAH@Z 1001d0d0 f   pimstorelib:Restriction.obj
 0001:0001c0e8       ??0CComBSTR@ATL@@QAA@PBG@Z 1001d0e8 f i pimstorelib:Restriction.obj
 0001:0001c12c       ??0CRestriction@@QAA@XZ    1001d12c f   pimstorelib:Restriction.obj
 0001:0001c198       ??1CRestriction@@QAA@XZ    1001d198 f   pimstorelib:Restriction.obj
 0001:0001c25c       ?USOIDPassesRestriction@CRestriction@@UAAJPAUUSOID@@PAH@Z 1001d25c f   pimstorelib:Restriction.obj
 0001:0001c364       ?GetFirstAndLastDates@CRestriction@@UAAJPAU_FILETIME@@0PAH@Z 1001d364 f   pimstorelib:Restriction.obj
 0001:0001c6dc       ??_GPOOMRestrictionHelper@@UAAPAXI@Z 1001d6dc f i pimstorelib:Restriction.obj
 0001:0001c6dc       ??_EPOOMRestrictionHelper@@UAAPAXI@Z 1001d6dc f i pimstorelib:Restriction.obj
 0001:0001c700       ??0?$CComObject@VPOOMRestrictionHelper@@@ATL@@QAA@PAX@Z 1001d700 f i pimstorelib:Restriction.obj
 0001:0001c758       ??1?$CComObject@VPOOMRestrictionHelper@@@ATL@@UAA@XZ 1001d758 f i pimstorelib:Restriction.obj
 0001:0001c798       ?AddRef@?$CComObject@VPOOMRestrictionHelper@@@ATL@@UAAKXZ 1001d798 f i pimstorelib:Restriction.obj
 0001:0001c7a0       ?Release@?$CComObject@VPOOMRestrictionHelper@@@ATL@@UAAKXZ 1001d7a0 f i pimstorelib:Restriction.obj
 0001:0001c7d8       ??_G?$CComObject@VPOOMRestrictionHelper@@@ATL@@UAAPAXI@Z 1001d7d8 f i pimstorelib:Restriction.obj
 0001:0001c7d8       ??_E?$CComObject@VPOOMRestrictionHelper@@@ATL@@UAAPAXI@Z 1001d7d8 f i pimstorelib:Restriction.obj
 0001:0001c7fc       ?QueryInterface@?$CComObject@VPOOMRestrictionHelper@@@ATL@@UAAJABU_GUID@@PAPAX@Z 1001d7fc f i pimstorelib:Restriction.obj
 0001:0001c810       ?AddRef@?$CComObject@VCRestriction@@@ATL@@UAAKXZ 1001d810 f i pimstorelib:Restriction.obj
 0001:0001c818       ?Release@?$CComObject@VCRestriction@@@ATL@@UAAKXZ 1001d818 f i pimstorelib:Restriction.obj
 0001:0001c850       ??1?$CComObject@VCRestriction@@@ATL@@UAA@XZ 1001d850 f i pimstorelib:Restriction.obj
 0001:0001c890       ?QueryInterface@?$CComObject@VCRestriction@@@ATL@@UAAJABU_GUID@@PAPAX@Z 1001d890 f i pimstorelib:Restriction.obj
 0001:0001c8a4       ??_G?$CComObject@VCRestriction@@@ATL@@UAAPAXI@Z 1001d8a4 f i pimstorelib:Restriction.obj
 0001:0001c8a4       ??_E?$CComObject@VCRestriction@@@ATL@@UAAPAXI@Z 1001d8a4 f i pimstorelib:Restriction.obj
 0001:0001c8c8       ?Init@CRestriction@@QAAJPAVCPOutlookApp@@PAUIUSStore@@K@Z 1001d8c8 f   pimstorelib:Restriction.obj
 0001:0001c918       ?ItemPassesCategoryRestriction@CRestriction@@AAAJPAUIItem2@@PAU_CEPROPVAL@@PAH@Z 1001d918 f   pimstorelib:Restriction.obj
 0001:0001cad0       ?CreateInstance@?$CComObject@VCRestriction@@@ATL@@SAJPAPAV12@@Z 1001dad0 f i pimstorelib:Restriction.obj
 0001:0001cb90       ?Clone@CRestriction@@UAAJPAPAUIRestriction@@@Z 1001db90 f   pimstorelib:Restriction.obj
 0001:0001cc74       ?ParseDateWithNoHours@CRestriction@@AAAJKW4_RestrictionOp@@PAU_CEPROPVAL@@@Z 1001dc74 f   pimstorelib:Restriction.obj
 0001:0001ced4       ?ItemPassesRestriction@CRestriction@@UAAJPAUIItem2@@PAH@Z 1001ded4 f   pimstorelib:Restriction.obj
 0001:0001cfec       ?ParseSimpleRestriction@CRestriction@@AAAJPAG@Z 1001dfec f   pimstorelib:Restriction.obj
 0001:0001d270       ?ParseRestriction@CRestriction@@AAAJPAG@Z 1001e270 f   pimstorelib:Restriction.obj
 0001:0001d5b8       ?CreateRestriction@CRestriction@@SAJPAVCPOutlookApp@@PAUIUSStore@@KPBGPAPAV1@@Z 1001e5b8 f   pimstorelib:Restriction.obj
 0001:0001d6cc       ?AddRestriction@CRestriction@@UAAJPAG@Z 1001e6cc f   pimstorelib:Restriction.obj
 0001:0001d818       ?CreateCombinedRestriction@CRestriction@@SAJPAVCPOutlookApp@@PAUIUSStore@@PAUIRestriction@@KPBGPAPAU4@@Z 1001e818 f   pimstorelib:Restriction.obj
 0001:0001d958       ?Initialize@POOMRestrictionHelper@@IAAJPAUIPOutlookApp3@@W4OlDefaultFolders@@PBG@Z 1001e958 f   pimstorelib:Restriction.obj
 0001:0001d9bc       ?CreateInstance@POOMRestrictionHelper@@SAJPAUIPOutlookApp3@@W4OlDefaultFolders@@PBGPAPAV1@@Z 1001e9bc f   pimstorelib:Restriction.obj
 0001:0001da6c       ?POOMRestrictionHelper_CreateInstance@@YAJPAUIPOutlookApp3@@W4OlDefaultFolders@@PBGPAPAUIPOOMRestrictionHelper@@@Z 1001ea6c f   pimstorelib:Restriction.obj
 0001:0001dac4       ?IsGsmText@PhonebookAssimilator@@AAAHPBG@Z 1001eac4 f   pimstorelib:PhBookAssimilator.obj
 0001:0001db28       ?FreeCellcore@PhonebookAssimilator@@AAAXXZ 1001eb28 f   pimstorelib:PhBookAssimilator.obj
 0001:0001db68       ?s_GetSimCaps@PhonebookAssimilator@@SAKXZ 1001eb68 f   pimstorelib:PhBookAssimilator.obj
 0001:0001db8c       ??1PhonebookAssimilator@@QAA@XZ 1001eb8c f   pimstorelib:PhBookAssimilator.obj
 0001:0001dbd8       ?DeleteSpbe@PhonebookAssimilator@@QAAJK@Z 1001ebd8 f   pimstorelib:PhBookAssimilator.obj
 0001:0001dc00       ?EnsureCellcore@PhonebookAssimilator@@AAAJXZ 1001ec00 f   pimstorelib:PhBookAssimilator.obj
 0001:0001de84       ?EnsurePhonebookCapabilities@PhonebookAssimilator@@AAAJXZ 1001ee84 f   pimstorelib:PhBookAssimilator.obj
 0001:0001df70       ?CopyText@PhonebookAssimilator@@AAAJPBGIPAGI@Z 1001ef70 f   pimstorelib:PhBookAssimilator.obj
 0001:0001e01c       ?GetPoomName@PhonebookAssimilator@@AAAJKPAUIContact@@HPAG@Z 1001f01c f   pimstorelib:PhBookAssimilator.obj
 0001:0001e140       ?s_GetSimContactsCollection@PhonebookAssimilator@@CAJPAUIPOutlookApp2@@PAPAUIPOutlookItemCollection@@@Z 1001f140 f   pimstorelib:PhBookAssimilator.obj
 0001:0001e23c       ?CoercePoomPhoneNumber@PhonebookAssimilator@@AAAJPAUIItem@@PAU_CEPROPVAL@@@Z 1001f23c f   pimstorelib:PhBookAssimilator.obj
 0001:0001e3b4       ?CoercePoomString@PhonebookAssimilator@@AAAJPAU_CEPROPVAL@@PAG@Z 1001f3b4 f   pimstorelib:PhBookAssimilator.obj
 0001:0001e4cc       ?CoercePoomEmail@PhonebookAssimilator@@AAAJPAU_CEPROPVAL@@K@Z 1001f4cc f   pimstorelib:PhBookAssimilator.obj
 0001:0001e5ec       ?ContactizeSpbePhoneNumbers@PhonebookAssimilator@@AAAJXZ 1001f5ec f   pimstorelib:PhBookAssimilator.obj
 0001:0001e74c       ?ContactizeSpbeEmails@PhonebookAssimilator@@AAAJXZ 1001f74c f   pimstorelib:PhBookAssimilator.obj
 0001:0001e8d8       ?SpbePrepareOneEmail@PhonebookAssimilator@@AAAJPAUIContact@@KPAU_CEPROPVAL@@@Z 1001f8d8 f   pimstorelib:PhBookAssimilator.obj
 0001:0001e9e4       ?SpbePrepareOnePhoneNumber@PhonebookAssimilator@@AAAJPAUIContact@@KPAU_CEPROPVAL@@K@Z 1001f9e4 f   pimstorelib:PhBookAssimilator.obj
 0001:0001ed54       ?SpbePrepareNewEmails@PhonebookAssimilator@@AAAJPAUIContact@@@Z 1001fd54 f   pimstorelib:PhBookAssimilator.obj
 0001:0001ef00       ?SpbePrepareNewPhoneNumbers@PhonebookAssimilator@@AAAJPAUIContact@@@Z 1001ff00 f   pimstorelib:PhBookAssimilator.obj
 0001:0001f1c8       ?ComparePBEntryStruct@@YAHPBUsimphonebookentryex_tag@@0@Z 100201c8 f   pimstorelib:PhBookAssimilator.obj
 0001:0001f45c       ?SpbeRead@PhonebookAssimilator@@AAAJK@Z 1002045c f   pimstorelib:PhBookAssimilator.obj
 0001:0001f4c0       ?SpbeWrite@PhonebookAssimilator@@AAAJK@Z 100204c0 f   pimstorelib:PhBookAssimilator.obj
 0001:0001f530       ?PhonebookPurgeSimContactsFromPoom@@YAJPAUIPOutlookApp2@@@Z 10020530 f   pimstorelib:PhBookAssimilator.obj
 0001:0001f710       ?Init@PhonebookAssimilator@@AAAJXZ 10020710 f   pimstorelib:PhBookAssimilator.obj
 0001:0001f790       ?CoercePoomContact@PhonebookAssimilator@@AAAJPAUIContact@@@Z 10020790 f   pimstorelib:PhBookAssimilator.obj
 0001:0001fb84       ?ContactizeSpbe@PhonebookAssimilator@@AAAJXZ 10020b84 f   pimstorelib:PhBookAssimilator.obj
 0001:0001fe48       ?SpbePrepare@PhonebookAssimilator@@AAAJPAUIContact@@@Z 10020e48 f   pimstorelib:PhBookAssimilator.obj
 0001:0001ffbc       ?s_Create@PhonebookAssimilator@@SAJPAUIPOutlookApp2@@PAXPAPAV1@@Z 10020fbc f   pimstorelib:PhBookAssimilator.obj
 0001:0002004c       ?PhonebookEntryChanged@PhonebookAssimilator@@QAAJKH@Z 1002104c f   pimstorelib:PhBookAssimilator.obj
 0001:000202ac       ?CoerceSpbe@PhonebookAssimilator@@QAAJPAUIContact@@K@Z 100212ac f   pimstorelib:PhBookAssimilator.obj
 0001:000202ec       ?WriteNewSpbe@PhonebookAssimilator@@QAAJPAUIContact@@@Z 100212ec f   pimstorelib:PhBookAssimilator.obj
 0001:00020348       ?s_CompareSpbe@PhonebookAssimilator@@SAJPAUIPOutlookApp2@@PAXPAUIContact@@KPAH@Z 10021348 f   pimstorelib:PhBookAssimilator.obj
 0001:00020464       ?CheckPoomEntriesAgainstSIM@PhonebookAssimilator@@AAAJPAKK0@Z 10021464 f   pimstorelib:PhBookAssimilator.obj
 0001:0002078c       ?PhonebookSimEntryChanged@@YAJPAUIPOutlookApp2@@PAXKH@Z 1002178c f   pimstorelib:PhBookAssimilator.obj
 0001:000207f0       ?ImportFromSim@PhonebookAssimilator@@QAAJK@Z 100217f0 f   pimstorelib:PhBookAssimilator.obj
 0001:00020970       ?PhonebookImportFromSim@@YAJPAUIPOutlookApp2@@PAXK@Z 10021970 f   pimstorelib:PhBookAssimilator.obj
 0001:000209cc       ?GetReminderSet@@YAJPAUtagREMINDERINFO@@PAF@Z 100219cc f   pimstorelib:utility.obj
 0001:000209e8       ?GetReminderMinutesBeforeStart@@YAJPAUtagREMINDERINFO@@PAJ@Z 100219e8 f   pimstorelib:utility.obj
 0001:000209f8       ?GetReminderOptions@@YAJPAUtagREMINDERINFO@@PAJ@Z 100219f8 f   pimstorelib:utility.obj
 0001:00020a08       ?SetReminderSet@@YAJPAUtagREMINDERINFO@@F@Z 10021a08 f   pimstorelib:utility.obj
 0001:00020a20       ?SingleNumberSim@@YAHXZ    10021a20 f   pimstorelib:utility.obj
 0001:00020a80       ?AllocateString@@YAJPAGPAPAG@Z 10021a80 f   pimstorelib:utility.obj
 0001:00020ab4       ?GetNextDOUBLE@@YAJPAPAGPANPAH@Z 10021ab4 f   pimstorelib:utility.obj
 0001:00020b6c       ?GetNextWORD@@YAXPAPAGPAG@Z 10021b6c f   pimstorelib:utility.obj
 0001:00020be8       ?SkipSpaces@@YAPAGPAG@Z    10021be8 f   pimstorelib:utility.obj
 0001:00020c00       ?CompareBlob@@YAHPAU_CEBLOB@@0@Z 10021c00 f   pimstorelib:utility.obj
 0001:00020c38       ?ParseDate@@YAJPAGPAU_FILETIME@@PAH@Z 10021c38 f   pimstorelib:utility.obj
 0001:00020ff0       ?IsEmptyUsOid@@YAHABUUSOID@@@Z 10021ff0 f i pimstorelib:utility.obj
 0001:00021030       ?GetReminderSoundFile@@YAJPAUtagREMINDERINFO@@PAPAG@Z 10022030 f   pimstorelib:utility.obj
 0001:00021038       ?SetReminderSoundFile@@YAJPAUtagREMINDERINFO@@PAG@Z 10022038 f   pimstorelib:utility.obj
 0001:0002113c       ?SetReminderOptions@@YAJPAUtagREMINDERINFO@@J@Z 1002213c f   pimstorelib:utility.obj
 0001:00021160       ?VerifyPropertySupportedBySim@@YAJK@Z 10022160 f   pimstorelib:utility.obj
 0001:000212bc       ?VerifyPropertySupportedByDeviceContact@@YAJK@Z 100222bc f   pimstorelib:utility.obj
 0001:000212e8       ?CreateContact@@YAJHPAVCPOutlookApp@@PAPAVCContact@@@Z 100222e8 f   pimstorelib:utility.obj
 0001:00021390       POOM_GetBodyText           10022390 f   pimstorelib:utility.obj
 0001:000213ec       POOM_GetBodyTextEx         100223ec f   pimstorelib:utility.obj
 0001:00021470       POOM_CompareInkBlobs       10022470 f   pimstorelib:utility.obj
 0001:0002159c       POOM_CompareInkToString    1002259c f   pimstorelib:utility.obj
 0001:00021630       ?CopyCEPROPVAL@@YAJPAU_CEPROPVAL@@PAPAU1@@Z 10022630 f   pimstorelib:utility.obj
 0001:00021700       ?CopyCEPROPVAL@@YAJPAU_CEPROPVAL@@0PAPAEPAI@Z 10022700 f   pimstorelib:utility.obj
 0001:00021800       ?StringToCEPROPVAL@@YAJKPAGW4_RestrictionOp@@PAPAU_CEPROPVAL@@PAH@Z 10022800 f   pimstorelib:utility.obj
 0001:00021b04       ?FileTimeToStr@@YAJPBU_FILETIME@@KKPAPBG@Z 10022b04 f   pimstorelib:utility.obj
 0001:00021c30       ?AllocateAndCopyProps@@YAJKGPAPAU_CEPROPVAL@@PAKKPAPAE1PAU1@PAX@Z 10022c30 f   pimstorelib:utility.obj
 0001:00021d34       StringToOLITEMID           10022d34 f   pimstorelib:utility.obj
 0001:00021d94       ?CompareProperty@@YAHPAU_CEPROPVAL@@0@Z 10022d94 f   pimstorelib:utility.obj
 0001:00021f98       ?PIMPR_DEFAULT_ITEM_TYPEToUSPR_ITEM_TYPE@@YAJPAU_CEPROPVAL@@PAU_USPROPVAL@@@Z 10022f98 f   pimstorelib:utility.obj
 0001:00022008       ?StartTransaction@@YAJPAUIUSStore@@@Z 10023008 f   pimstorelib:utility.obj
 0001:0002202c       ?EndTransaction@@YAJPAUIUSStore@@H@Z 1002302c f   pimstorelib:utility.obj
 0001:0002204c       ??4CComBSTR@ATL@@QAAAAV01@PBG@Z 1002304c f i pimstorelib:utility.obj
 0001:000220a0       ?SetContactType@@YAJPAUIPOutlookApp@@PAUIContact2@@W4OlItemType@@@Z 100230a0 f   pimstorelib:utility.obj
 0001:0002218c       ?CEPROPVALToString@@YAJPAU_CEPROPVAL@@PAPBG@Z 1002318c f   pimstorelib:utility.obj
 0001:000222f0       OLITEMIDToString           100232f0 f   pimstorelib:utility.obj
 0001:000223b0       OlItemTypeFromOLITEMID     100233b0 f   pimstorelib:utility.obj
 0001:0002247c       IsSimContact               1002347c f   pimstorelib:utility.obj
 0001:00022580       ?GetItemFromUSOID@@YAJPAVCPOutlookApp@@UUSOID@@PAPAUIItem2@@@Z 10023580 f   pimstorelib:utility.obj
 0001:0002292c       IsContactNameEmpty         1002392c f   pimstorelib:utility.obj
 0001:000229b8       ?GetDefaultUSFolder@@YAJPAUIUSStoreManager@@W4US_ITEMTYPE@@PAPAUIUSFolder@@@Z 100239b8 f   pimstorelib:utility.obj
 0001:00022a78       ?GetUSFolderFromPOOMFolder@@YAJPAUIUSStoreManager@@PAUIFolder2@@PAPAUIUSFolder@@@Z 10023a78 f   pimstorelib:utility.obj
 0001:00022bf4       DisplayContactSummaryCard  10023bf4 f   pimstorelib:utility.obj
 0001:00022c8c       GetContactsWithoutSIMRestriction 10023c8c f   pimstorelib:utility.obj
 0001:00022d50       ?put_Birthday@CContact@@UAAJN@Z 10023d50 f   pimstorelib:contacts.obj
 0001:00022d64       ?put_Anniversary@CContact@@UAAJN@Z 10023d64 f   pimstorelib:contacts.obj
 0001:00022d78       ?put_BodyInk@CContact@@UAAJPAU_CEBLOB@@@Z 10023d78 f   pimstorelib:contacts.obj
 0001:00022d88       ?put_Body@CContact@@UAAJPAG@Z 10023d88 f   pimstorelib:contacts.obj
 0001:00022d98       ?ClearAddressPropCache@CContact@@AAAXK@Z 10023d98 f   pimstorelib:contacts.obj
 0001:00022e18       ?QueryInterfaceImpl@?$CPOOMItem@UIContact2@@@@QAAJABU_GUID@@PAPAX@Z 10023e18 f i pimstorelib:contacts.obj
 0001:00022ed4       ?AddRef@?$CUnknownImpl@UIItem2@@@@UAAKXZ 10023ed4 f i pimstorelib:contacts.obj
 0001:00022edc       ?Release@?$CUnknownImpl@UIItem2@@@@UAAKXZ 10023edc f i pimstorelib:contacts.obj
 0001:00022f10       ?OpenProperty@?$CPOOMItem@UIContact2@@@@UAAJKKPAPAUIStream@@@Z 10023f10 f i pimstorelib:contacts.obj
 0001:00022f18       ??_E?$CUnknownImpl@UIItem2@@@@UAAPAXI@Z 10023f18 f i pimstorelib:contacts.obj
 0001:00022f18       ??_G?$CUnknownImpl@UIItem2@@@@UAAPAXI@Z 10023f18 f i pimstorelib:contacts.obj
 0001:00022f50       ?GetHashPhoneString@@YAJPBGPAGH@Z 10023f50 f   pimstorelib:contacts.obj
 0001:00022fc0       ?_QueryInterface@CContact@@AAAJABU_GUID@@PAPAX@Z 10023fc0 f   pimstorelib:contacts.obj
 0001:00023118       ?InitializeNew@CContact@@QAAJPAUIUSFolder@@@Z 10024118 f   pimstorelib:contacts.obj
 0001:000231f8       ?_Delete@CContact@@AAAJXZ  100241f8 f   pimstorelib:contacts.obj
 0001:000232e4       ?_get_ItemType@CContact@@AAAJPAW4OlItemType@@@Z 100242e4 f   pimstorelib:contacts.obj
 0001:0002330c       ?BuildStringFromComponents@@YAJPAVCDBProperties@@P6APAPAXXZP6AXPAPAX@ZP6AJ2@ZP6APAG2@ZPBQ6AJ2PBG@ZPBHHHPAPAG@Z 1002430c f   pimstorelib:contacts.obj
 0001:00023448       ?EnsureDBPropertiesCached@CContact@@IAAJW4CACHE_DB_PROPERTIES_OPTION@1@@Z 10024448 f   pimstorelib:contacts.obj
 0001:000235a4       ?IsSmartPropModified@CContact@@AAAHK@Z 100245a4 f   pimstorelib:contacts.obj
 0001:0002363c       ?USOIDToOLITEMID@@YAJABUUSOID@@PAUOLITEMID@@@Z 1002463c f i pimstorelib:contacts.obj
 0001:00023688       ??1?$CPOOMItem@UIContact2@@@@MAA@XZ 10024688 f i pimstorelib:contacts.obj
 0001:000236e8       ?get_Parent@CItemProvider@@UAAJPAPAUIFolder2@@@Z 100246e8 f i pimstorelib:contacts.obj
 0001:000236ec       ?get_Parent@CItemProvider@@UAAJPAPAUIFolder@@@Z 100246ec f i pimstorelib:contacts.obj
 0001:000236f0       ?MoveToFolder@CItemProvider@@UAAJPAUIFolder2@@@Z 100246f0 f i pimstorelib:contacts.obj
 0001:00023740       ?IsFolder@CItemProvider@@UAAHXZ 10024740 f i pimstorelib:contacts.obj
 0001:00023748       ?GetTypeInfoCount@?$CDispatchImpl@UIItem2@@@@UAAJPAI@Z 10024748 f i pimstorelib:contacts.obj
 0001:0002374c       ?GetTypeInfo@?$CDispatchImpl@UIItem2@@@@UAAJIKPAPAUITypeInfo@@@Z 1002474c f i pimstorelib:contacts.obj
 0001:00023750       ?GetIDsOfNames@?$CDispatchImpl@UIItem2@@@@UAAJABU_GUID@@PAPAGIKPAJ@Z 10024750 f i pimstorelib:contacts.obj
 0001:00023774       ?Invoke@?$CDispatchImpl@UIItem2@@@@UAAJJABU_GUID@@KGPAUtagDISPPARAMS@@PAUtagVARIANT@@PAUtagEXCEPINFO@@PAI@Z 10024774 f i pimstorelib:contacts.obj
 0001:000237bc       ?get_Application@?$CDispatchImpl@UIItem2@@@@UAAJPAPAUIPOutlookApp3@@@Z 100247bc f i pimstorelib:contacts.obj
 0001:000237c4       ?get_Application@?$CDispatchImpl@UIItem2@@@@UAAJPAPAUIPOutlookApp@@@Z 100247c4 f i pimstorelib:contacts.obj
 0001:000237c8       ?get_Application@?$CPOOMItem@UIContact2@@@@UAAJPAPAUIPOutlookApp3@@@Z 100247c8 f i pimstorelib:contacts.obj
 0001:000237d0       ?get_Application@?$CPOOMItem@UIContact2@@@@UAAJPAPAUIPOutlookApp@@@Z 100247d0 f i pimstorelib:contacts.obj
 0001:000237d4       ?MoveToFolder@?$CPOOMItem@UIContact2@@@@UAAJPAUIFolder2@@@Z 100247d4 f i pimstorelib:contacts.obj
 0001:000237dc       ?get_ItemType@?$CPOOMItem@UIContact2@@@@UAAJPAW4OlItemType@@@Z 100247dc f i pimstorelib:contacts.obj
 0001:000237f0       ?get_Store@?$CPOOMItem@UIContact2@@@@UAAJPAPAUIStore@@@Z 100247f0 f i pimstorelib:contacts.obj
 0001:00023830       ?GetProps@?$CPOOMItem@UIContact2@@@@UAAJPBKKGPAPAU_CEPROPVAL@@PAKPAX@Z 10024830 f i pimstorelib:contacts.obj
 0001:00023860       ?SetProps@?$CPOOMItem@UIContact2@@@@UAAJKGPAU_CEPROPVAL@@@Z 10024860 f i pimstorelib:contacts.obj
 0001:000238b0       ?get_Parent@?$CPOOMItem@UIContact2@@@@UAAJPAPAUIFolder2@@@Z 100248b0 f i pimstorelib:contacts.obj
 0001:000238f0       ?get_Parent@?$CPOOMItem@UIContact2@@@@UAAJPAPAUIFolder@@@Z 100248f0 f i pimstorelib:contacts.obj
 0001:000238f8       ?AddCategory@?$CPOOMItem@UIContact2@@@@UAAJPBG@Z 100248f8 f i pimstorelib:contacts.obj
 0001:00023900       ?RemoveCategory@?$CPOOMItem@UIContact2@@@@UAAJPBG@Z 10024900 f i pimstorelib:contacts.obj
 0001:00023908       ?get_Oid@?$CPOOMItem@UIContact2@@@@UAAJPAJ@Z 10024908 f i pimstorelib:contacts.obj
 0001:00023910       ?get_Id@?$CPOOMItem@UIContact2@@@@UAAJPAUOLITEMID@@@Z 10024910 f i pimstorelib:contacts.obj
 0001:00023918       ?get_Categories@?$CPOOMItem@UIContact2@@@@UAAJPAPAG@Z 10024918 f i pimstorelib:contacts.obj
 0001:00023958       ?put_Categories@?$CPOOMItem@UIContact2@@@@UAAJPAG@Z 10024958 f i pimstorelib:contacts.obj
 0001:0002395c       ?get_DefaultItemType@?$CPOOMItem@UIContact2@@@@UAAJPAH@Z 1002495c f i pimstorelib:contacts.obj
 0001:00023964       ?Display@?$CPOOMItem@UIContact2@@@@UAAJPAUHWND__@@@Z 10024964 f i pimstorelib:contacts.obj
 0001:00023970       ?Edit@?$CPOOMItem@UIContact2@@@@UAAJPAUHWND__@@@Z 10024970 f i pimstorelib:contacts.obj
 0001:0002397c       ?CopyToFolder@?$CPOOMItem@UIContact2@@@@UAAJPAUIFolder2@@PAPAUIItem2@@@Z 1002497c f i pimstorelib:contacts.obj
 0001:000239d8       ?get_Parent@?$CPOOMItem@UIContact2@@@@W3AAJPAPAUIFolder@@@Z 100249d8 f i pimstorelib:contacts.obj
 0001:000239e0       ?OpenProperty@?$CPOOMItem@UIContact2@@@@WBI@AAJKKPAPAUIStream@@@Z 100249e0 f i pimstorelib:contacts.obj
 0001:000239e8       ??_E?$CPOOMItem@UIContact2@@@@O7AAPAXI@Z 100249e8 f i pimstorelib:contacts.obj
 0001:000239f0       ?get_Store@?$CPOOMItem@UIContact2@@@@WBM@AAJPAPAUIStore@@@Z 100249f0 f i pimstorelib:contacts.obj
 0001:000239f8       ?get_Oid@?$CPOOMItem@UIContact2@@@@W3AAJPAJ@Z 100249f8 f i pimstorelib:contacts.obj
 0001:00023a00       ?OpenProperty@?$CPOOMItem@UIContact2@@@@WBM@AAJKKPAPAUIStream@@@Z 10024a00 f i pimstorelib:contacts.obj
 0001:00023a08       ?AddCategory@?$CPOOMItem@UIContact2@@@@WBI@AAJPBG@Z 10024a08 f i pimstorelib:contacts.obj
 0001:00023a10       ?get_Application@?$CPOOMItem@UIContact2@@@@WBA@AAJPAPAUIPOutlookApp@@@Z 10024a10 f i pimstorelib:contacts.obj
 0001:00023a18       ?get_ItemType@?$CPOOMItem@UIContact2@@@@WBM@AAJPAW4OlItemType@@@Z 10024a18 f i pimstorelib:contacts.obj
 0001:00023a20       ?AddCategory@?$CPOOMItem@UIContact2@@@@WBM@AAJPBG@Z 10024a20 f i pimstorelib:contacts.obj
 0001:00023a28       ?Display@?$CPOOMItem@UIContact2@@@@WBI@AAJPAUHWND__@@@Z 10024a28 f i pimstorelib:contacts.obj
 0001:00023a30       ?get_DefaultItemType@?$CPOOMItem@UIContact2@@@@W3AAJPAH@Z 10024a30 f i pimstorelib:contacts.obj
 0001:00023a38       ?SetProps@?$CPOOMItem@UIContact2@@@@WBI@AAJKGPAU_CEPROPVAL@@@Z 10024a38 f i pimstorelib:contacts.obj
 0001:00023a40       ?SetProps@?$CPOOMItem@UIContact2@@@@WBM@AAJKGPAU_CEPROPVAL@@@Z 10024a40 f i pimstorelib:contacts.obj
 0001:00023a48       ?get_Id@?$CPOOMItem@UIContact2@@@@WBM@AAJPAUOLITEMID@@@Z 10024a48 f i pimstorelib:contacts.obj
 0001:00023a50       ?GetProps@?$CPOOMItem@UIContact2@@@@WBI@AAJPBKKGPAPAU_CEPROPVAL@@PAKPAX@Z 10024a50 f i pimstorelib:contacts.obj
 0001:00023a58       ?MoveToFolder@?$CPOOMItem@UIContact2@@@@WBM@AAJPAUIFolder2@@@Z 10024a58 f i pimstorelib:contacts.obj
 0001:00023a60       ?get_Parent@?$CPOOMItem@UIContact2@@@@WBM@AAJPAPAUIFolder2@@@Z 10024a60 f i pimstorelib:contacts.obj
 0001:00023a68       ?GetProps@?$CPOOMItem@UIContact2@@@@WBM@AAJPBKKGPAPAU_CEPROPVAL@@PAKPAX@Z 10024a68 f i pimstorelib:contacts.obj
 0001:00023a70       ?RemoveCategory@?$CPOOMItem@UIContact2@@@@WBI@AAJPBG@Z 10024a70 f i pimstorelib:contacts.obj
 0001:00023a78       ?Edit@?$CPOOMItem@UIContact2@@@@WBI@AAJPAUHWND__@@@Z 10024a78 f i pimstorelib:contacts.obj
 0001:00023a80       ?RemoveCategory@?$CPOOMItem@UIContact2@@@@WBM@AAJPBG@Z 10024a80 f i pimstorelib:contacts.obj
 0001:00023a88       ?get_Application@?$CPOOMItem@UIContact2@@@@W7AAJPAPAUIPOutlookApp3@@@Z 10024a88 f i pimstorelib:contacts.obj
 0001:00023a90       ?AddRef@?$CDispatchImpl@UIItem2@@@@UAAKXZ 10024a90 f i pimstorelib:contacts.obj
 0001:00023a98       ?Release@?$CDispatchImpl@UIItem2@@@@UAAKXZ 10024a98 f i pimstorelib:contacts.obj
 0001:00023acc       ?AddRef@?$CPOOMItem@UIContact2@@@@UAAKXZ 10024acc f i pimstorelib:contacts.obj
 0001:00023ad4       ?Release@?$CPOOMItem@UIContact2@@@@UAAKXZ 10024ad4 f i pimstorelib:contacts.obj
 0001:00023b08       ??_G?$CPOOMItem@UIContact2@@@@MAAPAXI@Z 10024b08 f i pimstorelib:contacts.obj
 0001:00023b08       ??_E?$CPOOMItem@UIContact2@@@@MAAPAXI@Z 10024b08 f i pimstorelib:contacts.obj
 0001:00023b2c       ?Release@?$CPOOMItem@UIContact2@@@@WBI@AAKXZ 10024b2c f i pimstorelib:contacts.obj
 0001:00023b34       ?AddRef@?$CPOOMItem@UIContact2@@@@WBI@AAKXZ 10024b34 f i pimstorelib:contacts.obj
 0001:00023b3c       ?InitializeExisting@CContact@@QAAJUUSOID@@@Z 10024b3c f   pimstorelib:contacts.obj
 0001:00023c8c       ??1CContact@@MAA@XZ        10024c8c f   pimstorelib:contacts.obj
 0001:00023d20       ?put_Body@CContact@@W3AAJPAG@Z 10024d20 f i pimstorelib:contacts.obj
 0001:00023d28       ?put_Birthday@CContact@@W3AAJN@Z 10024d28 f i pimstorelib:contacts.obj
 0001:00023d30       ?put_BodyInk@CContact@@W3AAJPAU_CEBLOB@@@Z 10024d30 f i pimstorelib:contacts.obj
 0001:00023d38       ?put_Anniversary@CContact@@W3AAJN@Z 10024d38 f i pimstorelib:contacts.obj
 0001:00023d40       ??_ECContact@@O7AAPAXI@Z   10024d40 f i pimstorelib:contacts.obj
 0001:00023d48       ?Display@CContact@@UAAJXZ  10024d48 f i pimstorelib:contacts.obj
 0001:00023d54       ?DisplayWithFocus@CContact@@UAAJPAUHWND__@@K@Z 10024d54 f i pimstorelib:contacts.obj
 0001:00023d60       ?TypeSpecificPropsModified@CContact@@UAAHXZ 10024d60 f i pimstorelib:contacts.obj
 0001:00023d68       ?UserSetFileAs@CContact@@MAAHI@Z 10024d68 f i pimstorelib:contacts.obj
 0001:00023d74       ?Display@CContact@@W3AAJXZ 10024d74 f i pimstorelib:contacts.obj
 0001:00023d7c       ?QueryInterface@CContact@@UAAJABU_GUID@@PAPAX@Z 10024d7c f i pimstorelib:contacts.obj
 0001:00023d80       ?GetTypeInfoCount@CContact@@UAAJPAI@Z 10024d80 f i pimstorelib:contacts.obj
 0001:00023d84       ?GetTypeInfo@CContact@@UAAJIKPAPAUITypeInfo@@@Z 10024d84 f i pimstorelib:contacts.obj
 0001:00023d88       ?GetIDsOfNames@CContact@@UAAJABU_GUID@@PAPAGIKPAJ@Z 10024d88 f i pimstorelib:contacts.obj
 0001:00023dac       ?Invoke@CContact@@UAAJJABU_GUID@@KGPAUtagDISPPARAMS@@PAUtagVARIANT@@PAUtagEXCEPINFO@@PAI@Z 10024dac f i pimstorelib:contacts.obj
 0001:00023df4       ?get_Application@CContact@@UAAJPAPAUIPOutlookApp3@@@Z 10024df4 f i pimstorelib:contacts.obj
 0001:00023dfc       ?get_Application@CContact@@UAAJPAPAUIPOutlookApp@@@Z 10024dfc f i pimstorelib:contacts.obj
 0001:00023e00       ?get_Categories@CContact@@UAAJPAPAG@Z 10024e00 f i pimstorelib:contacts.obj
 0001:00023e04       ?put_Categories@CContact@@UAAJPAG@Z 10024e04 f i pimstorelib:contacts.obj
 0001:00023e08       ?get_Oid@CContact@@UAAJPAJ@Z 10024e08 f i pimstorelib:contacts.obj
 0001:00023e10       ?get_Id@CContact@@UAAJPAUOLITEMID@@@Z 10024e10 f i pimstorelib:contacts.obj
 0001:00023e18       ?get_Store@CContact@@UAAJPAPAUIStore@@@Z 10024e18 f i pimstorelib:contacts.obj
 0001:00023e1c       ?get_Parent@CContact@@UAAJPAPAUIFolder2@@@Z 10024e1c f i pimstorelib:contacts.obj
 0001:00023e20       ?Delete@CContact@@UAAJXZ   10024e20 f i pimstorelib:contacts.obj
 0001:00023e88       ?get_ItemType@CContact@@UAAJPAW4OlItemType@@@Z 10024e88 f i pimstorelib:contacts.obj
 0001:00023ea4       ?get_Birthday@CContact@@UAAJPAN@Z 10024ea4 f   pimstorelib:contacts.obj
 0001:00023ee0       ?get_Anniversary@CContact@@UAAJPAN@Z 10024ee0 f   pimstorelib:contacts.obj
 0001:00023f1c       ?get_BusinessFaxNumber@CContact@@UAAJPAPAG@Z 10024f1c f   pimstorelib:contacts.obj
 0001:00023f58       ?get_CompanyName@CContact@@UAAJPAPAG@Z 10024f58 f   pimstorelib:contacts.obj
 0001:00023f94       ?get_Department@CContact@@UAAJPAPAG@Z 10024f94 f   pimstorelib:contacts.obj
 0001:00023fd0       ?get_Email1Address@CContact@@UAAJPAPAG@Z 10024fd0 f   pimstorelib:contacts.obj
 0001:0002400c       ?get_MobileTelephoneNumber@CContact@@UAAJPAPAG@Z 1002500c f   pimstorelib:contacts.obj
 0001:00024048       ?get_OfficeLocation@CContact@@UAAJPAPAG@Z 10025048 f   pimstorelib:contacts.obj
 0001:00024084       ?get_PagerNumber@CContact@@UAAJPAPAG@Z 10025084 f   pimstorelib:contacts.obj
 0001:000240c0       ?get_BusinessTelephoneNumber@CContact@@UAAJPAPAG@Z 100250c0 f   pimstorelib:contacts.obj
 0001:000240fc       ?get_JobTitle@CContact@@UAAJPAPAG@Z 100250fc f   pimstorelib:contacts.obj
 0001:00024138       ?get_HomeTelephoneNumber@CContact@@UAAJPAPAG@Z 10025138 f   pimstorelib:contacts.obj
 0001:00024174       ?get_Email2Address@CContact@@UAAJPAPAG@Z 10025174 f   pimstorelib:contacts.obj
 0001:000241b0       ?get_Spouse@CContact@@UAAJPAPAG@Z 100251b0 f   pimstorelib:contacts.obj
 0001:000241ec       ?get_Email3Address@CContact@@UAAJPAPAG@Z 100251ec f   pimstorelib:contacts.obj
 0001:00024228       ?get_Home2TelephoneNumber@CContact@@UAAJPAPAG@Z 10025228 f   pimstorelib:contacts.obj
 0001:00024264       ?get_HomeFaxNumber@CContact@@UAAJPAPAG@Z 10025264 f   pimstorelib:contacts.obj
 0001:000242a0       ?get_CarTelephoneNumber@CContact@@UAAJPAPAG@Z 100252a0 f   pimstorelib:contacts.obj
 0001:000242dc       ?get_AssistantName@CContact@@UAAJPAPAG@Z 100252dc f   pimstorelib:contacts.obj
 0001:00024318       ?get_AssistantTelephoneNumber@CContact@@UAAJPAPAG@Z 10025318 f   pimstorelib:contacts.obj
 0001:00024354       ?get_Children@CContact@@UAAJPAPAG@Z 10025354 f   pimstorelib:contacts.obj
 0001:00024390       ?get_WebPage@CContact@@UAAJPAPAG@Z 10025390 f   pimstorelib:contacts.obj
 0001:000243cc       ?get_Business2TelephoneNumber@CContact@@UAAJPAPAG@Z 100253cc f   pimstorelib:contacts.obj
 0001:00024408       ?get_Title@CContact@@UAAJPAPAG@Z 10025408 f   pimstorelib:contacts.obj
 0001:00024444       ?get_FirstName@CContact@@UAAJPAPAG@Z 10025444 f   pimstorelib:contacts.obj
 0001:00024480       ?get_MiddleName@CContact@@UAAJPAPAG@Z 10025480 f   pimstorelib:contacts.obj
 0001:000244bc       ?get_LastName@CContact@@UAAJPAPAG@Z 100254bc f   pimstorelib:contacts.obj
 0001:000244f8       ?get_Suffix@CContact@@UAAJPAPAG@Z 100254f8 f   pimstorelib:contacts.obj
 0001:00024534       ?get_HomeAddressStreet@CContact@@UAAJPAPAG@Z 10025534 f   pimstorelib:contacts.obj
 0001:00024570       ?get_HomeAddressCity@CContact@@UAAJPAPAG@Z 10025570 f   pimstorelib:contacts.obj
 0001:000245ac       ?get_HomeAddressState@CContact@@UAAJPAPAG@Z 100255ac f   pimstorelib:contacts.obj
 0001:000245e8       ?get_HomeAddressPostalCode@CContact@@UAAJPAPAG@Z 100255e8 f   pimstorelib:contacts.obj
 0001:00024624       ?get_HomeAddressCountry@CContact@@UAAJPAPAG@Z 10025624 f   pimstorelib:contacts.obj
 0001:00024660       ?get_OtherAddressStreet@CContact@@UAAJPAPAG@Z 10025660 f   pimstorelib:contacts.obj
 0001:0002469c       ?get_OtherAddressCity@CContact@@UAAJPAPAG@Z 1002569c f   pimstorelib:contacts.obj
 0001:000246d8       ?get_OtherAddressState@CContact@@UAAJPAPAG@Z 100256d8 f   pimstorelib:contacts.obj
 0001:00024714       ?get_OtherAddressPostalCode@CContact@@UAAJPAPAG@Z 10025714 f   pimstorelib:contacts.obj
 0001:00024750       ?get_OtherAddressCountry@CContact@@UAAJPAPAG@Z 10025750 f   pimstorelib:contacts.obj
 0001:0002478c       ?get_BusinessAddressStreet@CContact@@UAAJPAPAG@Z 1002578c f   pimstorelib:contacts.obj
 0001:000247c8       ?get_BusinessAddressCity@CContact@@UAAJPAPAG@Z 100257c8 f   pimstorelib:contacts.obj
 0001:00024804       ?get_BusinessAddressState@CContact@@UAAJPAPAG@Z 10025804 f   pimstorelib:contacts.obj
 0001:00024840       ?get_BusinessAddressPostalCode@CContact@@UAAJPAPAG@Z 10025840 f   pimstorelib:contacts.obj
 0001:0002487c       ?get_BusinessAddressCountry@CContact@@UAAJPAPAG@Z 1002587c f   pimstorelib:contacts.obj
 0001:000248b8       ?get_RadioTelephoneNumber@CContact@@UAAJPAPAG@Z 100258b8 f   pimstorelib:contacts.obj
 0001:000248f4       ?get_BodyInk@CContact@@UAAJPAU_CEBLOB@@@Z 100258f4 f   pimstorelib:contacts.obj
 0001:00024930       ?get_Body@CContact@@UAAJPAPAG@Z 10025930 f   pimstorelib:contacts.obj
 0001:0002496c       ?get_YomiFirstName@CContact@@UAAJPAPAG@Z 1002596c f   pimstorelib:contacts.obj
 0001:000249a8       ?get_YomiLastName@CContact@@UAAJPAPAG@Z 100259a8 f   pimstorelib:contacts.obj
 0001:000249e4       ?get_YomiCompanyName@CContact@@UAAJPAPAG@Z 100259e4 f   pimstorelib:contacts.obj
 0001:00024a20       ?SetStringProperty@CContact@@AAAJW4CONTACT_PROP@1@PAGK@Z 10025a20 f   pimstorelib:contacts.obj
 0001:00024a68       ?ConstructAddress@CContact@@AAAJKPAU_CEPROPVAL@@PAEKPAK@Z 10025a68 f   pimstorelib:contacts.obj
 0001:00024b9c       ?ConstructFileAs@CContact@@AAAJW4USERSETFILEASINDEX@@@Z 10025b9c f   pimstorelib:contacts.obj
 0001:00024e20       ?CacheTypeSpecificProp@CContact@@MAAJPAU_CEPROPVAL@@@Z 10025e20 f   pimstorelib:contacts.obj
 0001:00025010       ?GetPropByRef@CContact@@AAAJKPAW4CACHE_DB_PROPERTIES_OPTION@1@PAU_CEPROPVAL@@@Z 10026010 f   pimstorelib:contacts.obj
 0001:000251a0       ?EnsureSmartPropUpToDateHelper@CContact@@AAAJXZ 100261a0 f   pimstorelib:contacts.obj
 0001:000253f0       ?SetHasPicture@CContact@@QAAJH@Z 100263f0 f   pimstorelib:contacts.obj
 0001:000254d0       ?get_Application@CContact@@WGI@AAJPAPAUIPOutlookApp@@@Z 100264d0 f i pimstorelib:contacts.obj
 0001:000254d8       ?get_Email2Address@CContact@@W3AAJPAPAG@Z 100264d8 f i pimstorelib:contacts.obj
 0001:000254e0       ?get_Store@CContact@@WBM@AAJPAPAUIStore@@@Z 100264e0 f i pimstorelib:contacts.obj
 0001:000254e8       ?get_OtherAddressState@CContact@@W3AAJPAPAG@Z 100264e8 f i pimstorelib:contacts.obj
 0001:000254f0       ?get_AssistantName@CContact@@W3AAJPAPAG@Z 100264f0 f i pimstorelib:contacts.obj
 0001:000254f8       ?get_Oid@CContact@@W3AAJPAJ@Z 100264f8 f i pimstorelib:contacts.obj
 0001:00025500       ?get_BusinessAddressPostalCode@CContact@@W3AAJPAPAG@Z 10026500 f i pimstorelib:contacts.obj
 0001:00025508       ?get_BusinessAddressState@CContact@@W3AAJPAPAG@Z 10026508 f i pimstorelib:contacts.obj
 0001:00025510       ?get_OtherAddressCountry@CContact@@W3AAJPAPAG@Z 10026510 f i pimstorelib:contacts.obj
 0001:00025518       ?get_Department@CContact@@W3AAJPAPAG@Z 10026518 f i pimstorelib:contacts.obj
 0001:00025520       ?get_Application@CContact@@WGM@AAJPAPAUIPOutlookApp3@@@Z 10026520 f i pimstorelib:contacts.obj
 0001:00025528       ?GetIDsOfNames@CContact@@WGE@AAJABU_GUID@@PAPAGIKPAJ@Z 10026528 f i pimstorelib:contacts.obj
 0001:00025530       ?get_Categories@CContact@@WFA@AAJPAPAG@Z 10026530 f i pimstorelib:contacts.obj
 0001:00025538       ?get_Id@CContact@@WGM@AAJPAUOLITEMID@@@Z 10026538 f i pimstorelib:contacts.obj
 0001:00025540       ?get_Application@CContact@@WBA@AAJPAPAUIPOutlookApp@@@Z 10026540 f i pimstorelib:contacts.obj
 0001:00025548       ?get_HomeAddressState@CContact@@W3AAJPAPAG@Z 10026548 f i pimstorelib:contacts.obj
 0001:00025550       ?get_Suffix@CContact@@W3AAJPAPAG@Z 10026550 f i pimstorelib:contacts.obj
 0001:00025558       ?get_Home2TelephoneNumber@CContact@@W3AAJPAPAG@Z 10026558 f i pimstorelib:contacts.obj
 0001:00025560       ?Delete@CContact@@WGM@AAJXZ 10026560 f i pimstorelib:contacts.obj
 0001:00025568       ?get_ItemType@CContact@@WBM@AAJPAW4OlItemType@@@Z 10026568 f i pimstorelib:contacts.obj
 0001:00025570       ?get_BusinessAddressCountry@CContact@@W3AAJPAPAG@Z 10026570 f i pimstorelib:contacts.obj
 0001:00025578       ?get_HomeAddressPostalCode@CContact@@W3AAJPAPAG@Z 10026578 f i pimstorelib:contacts.obj
 0001:00025580       ?get_WebPage@CContact@@W3AAJPAPAG@Z 10026580 f i pimstorelib:contacts.obj
 0001:00025588       ?GetIDsOfNames@CContact@@WGI@AAJABU_GUID@@PAPAGIKPAJ@Z 10026588 f i pimstorelib:contacts.obj
 0001:00025590       ?put_Categories@CContact@@WFA@AAJPAG@Z 10026590 f i pimstorelib:contacts.obj
 0001:00025598       ?get_YomiLastName@CContact@@W3AAJPAPAG@Z 10026598 f i pimstorelib:contacts.obj
 0001:000255a0       ?get_Categories@CContact@@WFE@AAJPAPAG@Z 100265a0 f i pimstorelib:contacts.obj
 0001:000255a8       ?GetTypeInfoCount@CContact@@WGE@AAJPAI@Z 100265a8 f i pimstorelib:contacts.obj
 0001:000255b0       ?Delete@CContact@@WHA@AAJXZ 100265b0 f i pimstorelib:contacts.obj
 0001:000255b8       ?get_Parent@CContact@@WGM@AAJPAPAUIFolder2@@@Z 100265b8 f i pimstorelib:contacts.obj
 0001:000255c0       ?put_Categories@CContact@@WFE@AAJPAG@Z 100265c0 f i pimstorelib:contacts.obj
 0001:000255c8       ?get_Business2TelephoneNumber@CContact@@W3AAJPAPAG@Z 100265c8 f i pimstorelib:contacts.obj
 0001:000255d0       ?get_Email1Address@CContact@@W3AAJPAPAG@Z 100265d0 f i pimstorelib:contacts.obj
 0001:000255d8       ?get_PagerNumber@CContact@@W3AAJPAPAG@Z 100265d8 f i pimstorelib:contacts.obj
 0001:000255e0       ?GetTypeInfoCount@CContact@@WGI@AAJPAI@Z 100265e0 f i pimstorelib:contacts.obj
 0001:000255e8       ?get_BodyInk@CContact@@W3AAJPAU_CEBLOB@@@Z 100265e8 f i pimstorelib:contacts.obj
 0001:000255f0       ?get_HomeTelephoneNumber@CContact@@W3AAJPAPAG@Z 100265f0 f i pimstorelib:contacts.obj
 0001:000255f8       ?get_BusinessFaxNumber@CContact@@W3AAJPAPAG@Z 100265f8 f i pimstorelib:contacts.obj
 0001:00025600       ?Delete@CContact@@WBI@AAJXZ 10026600 f i pimstorelib:contacts.obj
 0001:00025608       ?get_HomeAddressCity@CContact@@W3AAJPAPAG@Z 10026608 f i pimstorelib:contacts.obj
 0001:00025610       ?get_Title@CContact@@W3AAJPAPAG@Z 10026610 f i pimstorelib:contacts.obj
 0001:00025618       ?get_Email3Address@CContact@@W3AAJPAPAG@Z 10026618 f i pimstorelib:contacts.obj
 0001:00025620       ?get_CompanyName@CContact@@W3AAJPAPAG@Z 10026620 f i pimstorelib:contacts.obj
 0001:00025628       ?get_Birthday@CContact@@W3AAJPAN@Z 10026628 f i pimstorelib:contacts.obj
 0001:00025630       ?get_OtherAddressPostalCode@CContact@@W3AAJPAPAG@Z 10026630 f i pimstorelib:contacts.obj
 0001:00025638       ?QueryInterface@CContact@@WGM@AAJABU_GUID@@PAPAX@Z 10026638 f i pimstorelib:contacts.obj
 0001:00025640       ?get_Id@CContact@@WBM@AAJPAUOLITEMID@@@Z 10026640 f i pimstorelib:contacts.obj
 0001:00025648       ?get_BusinessAddressCity@CContact@@W3AAJPAPAG@Z 10026648 f i pimstorelib:contacts.obj
 0001:00025650       ?get_Store@CContact@@WGM@AAJPAPAUIStore@@@Z 10026650 f i pimstorelib:contacts.obj
 0001:00025658       ?get_BusinessAddressStreet@CContact@@W3AAJPAPAG@Z 10026658 f i pimstorelib:contacts.obj
 0001:00025660       ?get_MiddleName@CContact@@W3AAJPAPAG@Z 10026660 f i pimstorelib:contacts.obj
 0001:00025668       ?get_HomeAddressStreet@CContact@@W3AAJPAPAG@Z 10026668 f i pimstorelib:contacts.obj
 0001:00025670       ?get_AssistantTelephoneNumber@CContact@@W3AAJPAPAG@Z 10026670 f i pimstorelib:contacts.obj
 0001:00025678       ?get_Anniversary@CContact@@W3AAJPAN@Z 10026678 f i pimstorelib:contacts.obj
 0001:00025680       ?get_BusinessTelephoneNumber@CContact@@W3AAJPAPAG@Z 10026680 f i pimstorelib:contacts.obj
 0001:00025688       ?QueryInterface@CContact@@WHA@AAJABU_GUID@@PAPAX@Z 10026688 f i pimstorelib:contacts.obj
 0001:00025690       ?GetTypeInfo@CContact@@WGE@AAJIKPAPAUITypeInfo@@@Z 10026690 f i pimstorelib:contacts.obj
 0001:00025698       ?get_CarTelephoneNumber@CContact@@W3AAJPAPAG@Z 10026698 f i pimstorelib:contacts.obj
 0001:000256a0       ?get_JobTitle@CContact@@W3AAJPAPAG@Z 100266a0 f i pimstorelib:contacts.obj
 0001:000256a8       ?get_MobileTelephoneNumber@CContact@@W3AAJPAPAG@Z 100266a8 f i pimstorelib:contacts.obj
 0001:000256b0       ?get_Parent@CContact@@WBM@AAJPAPAUIFolder2@@@Z 100266b0 f i pimstorelib:contacts.obj
 0001:000256b8       ?get_Spouse@CContact@@W3AAJPAPAG@Z 100266b8 f i pimstorelib:contacts.obj
 0001:000256c0       ?get_OfficeLocation@CContact@@W3AAJPAPAG@Z 100266c0 f i pimstorelib:contacts.obj
 0001:000256c8       ?get_Oid@CContact@@WFI@AAJPAJ@Z 100266c8 f i pimstorelib:contacts.obj
 0001:000256d0       ?get_YomiFirstName@CContact@@W3AAJPAPAG@Z 100266d0 f i pimstorelib:contacts.obj
 0001:000256d8       ?get_Body@CContact@@W3AAJPAPAG@Z 100266d8 f i pimstorelib:contacts.obj
 0001:000256e0       ?get_RadioTelephoneNumber@CContact@@W3AAJPAPAG@Z 100266e0 f i pimstorelib:contacts.obj
 0001:000256e8       ?QueryInterface@CContact@@WHE@AAJABU_GUID@@PAPAX@Z 100266e8 f i pimstorelib:contacts.obj
 0001:000256f0       ?get_OtherAddressCity@CContact@@W3AAJPAPAG@Z 100266f0 f i pimstorelib:contacts.obj
 0001:000256f8       ?get_HomeFaxNumber@CContact@@W3AAJPAPAG@Z 100266f8 f i pimstorelib:contacts.obj
 0001:00025700       ?GetTypeInfo@CContact@@WGI@AAJIKPAPAUITypeInfo@@@Z 10026700 f i pimstorelib:contacts.obj
 0001:00025708       ?Invoke@CContact@@WGM@AAJJABU_GUID@@KGPAUtagDISPPARAMS@@PAUtagVARIANT@@PAUtagEXCEPINFO@@PAI@Z 10026708 f i pimstorelib:contacts.obj
 0001:00025710       ?QueryInterface@CContact@@WBI@AAJABU_GUID@@PAPAX@Z 10026710 f i pimstorelib:contacts.obj
 0001:00025718       ?get_YomiCompanyName@CContact@@W3AAJPAPAG@Z 10026718 f i pimstorelib:contacts.obj
 0001:00025720       ?get_LastName@CContact@@W3AAJPAPAG@Z 10026720 f i pimstorelib:contacts.obj
 0001:00025728       ?get_Children@CContact@@W3AAJPAPAG@Z 10026728 f i pimstorelib:contacts.obj
 0001:00025730       ?get_Application@CContact@@W7AAJPAPAUIPOutlookApp3@@@Z 10026730 f i pimstorelib:contacts.obj
 0001:00025738       ?get_OtherAddressStreet@CContact@@W3AAJPAPAG@Z 10026738 f i pimstorelib:contacts.obj
 0001:00025740       ?QueryInterface@CContact@@WHI@AAJABU_GUID@@PAPAX@Z 10026740 f i pimstorelib:contacts.obj
 0001:00025748       ?get_HomeAddressCountry@CContact@@W3AAJPAPAG@Z 10026748 f i pimstorelib:contacts.obj
 0001:00025750       ?get_FirstName@CContact@@W3AAJPAPAG@Z 10026750 f i pimstorelib:contacts.obj
 0001:00025758       ?Invoke@CContact@@WHA@AAJJABU_GUID@@KGPAUtagDISPPARAMS@@PAUtagVARIANT@@PAUtagEXCEPINFO@@PAI@Z 10026758 f i pimstorelib:contacts.obj
 0001:00025760       ?AddRef@CContact@@UAAKXZ   10026760 f i pimstorelib:contacts.obj
 0001:00025768       ?Release@CContact@@UAAKXZ  10026768 f i pimstorelib:contacts.obj
 0001:0002579c       ?EnsureSmartPropUpToDate@CContact@@AAAJXZ 1002679c f i pimstorelib:contacts.obj
 0001:000257cc       ??0?$CDispatchImpl@UIItem2@@@@QAA@PAVCPOutlookApp@@@Z 100267cc f i pimstorelib:contacts.obj
 0001:00025824       ??_G?$CDispatchImpl@UIItem2@@@@UAAPAXI@Z 10026824 f i pimstorelib:contacts.obj
 0001:00025824       ??_E?$CDispatchImpl@UIItem2@@@@UAAPAXI@Z 10026824 f i pimstorelib:contacts.obj
 0001:00025864       ??_E?$CDispatchImpl@UIItem2@@@@W7AAPAXI@Z 10026864 f i pimstorelib:contacts.obj
 0001:0002586c       ?get_Application@?$CDispatchImpl@UIItem2@@@@W7AAJPAPAUIPOutlookApp3@@@Z 1002686c f i pimstorelib:contacts.obj
 0001:0002587c       ?FindMatchingContactInStore@@YAJPAUIPOutlookApp3@@PBGKPAUIUSStore@@PAUIUSFolder@@PAPAUIItem2@@PAKPAI@Z 1002687c f   pimstorelib:contacts.obj
 0001:00025c68       FindMatchingContactEx      10026c68 f   pimstorelib:contacts.obj
 0001:000260bc       FindMatchingContact        100270bc f   pimstorelib:contacts.obj
 0001:000262cc       ??_GCContact@@MAAPAXI@Z    100272cc f i pimstorelib:contacts.obj
 0001:000262cc       ??_ECContact@@MAAPAXI@Z    100272cc f i pimstorelib:contacts.obj
 0001:000262f0       ?CopyToType@CContact@@QAAJHPAPAUIContact2@@PAK@Z 100272f0 f   pimstorelib:contacts.obj
 0001:00026610       ?OpenProperty@CContact@@UAAJKKPAPAUIStream@@@Z 10027610 f   pimstorelib:contacts.obj
 0001:000266f0       ?get_FileAs@CContact@@UAAJPAPAG@Z 100276f0 f   pimstorelib:contacts.obj
 0001:00026734       ?put_BusinessFaxNumber@CContact@@UAAJPAG@Z 10027734 f   pimstorelib:contacts.obj
 0001:0002674c       ?put_CompanyName@CContact@@UAAJPAG@Z 1002774c f   pimstorelib:contacts.obj
 0001:000267c0       ?put_Department@CContact@@UAAJPAG@Z 100277c0 f   pimstorelib:contacts.obj
 0001:000267d8       ?put_Email1Address@CContact@@UAAJPAG@Z 100277d8 f   pimstorelib:contacts.obj
 0001:000267f0       ?put_MobileTelephoneNumber@CContact@@UAAJPAG@Z 100277f0 f   pimstorelib:contacts.obj
 0001:00026808       ?put_OfficeLocation@CContact@@UAAJPAG@Z 10027808 f   pimstorelib:contacts.obj
 0001:00026820       ?put_PagerNumber@CContact@@UAAJPAG@Z 10027820 f   pimstorelib:contacts.obj
 0001:00026838       ?put_BusinessTelephoneNumber@CContact@@UAAJPAG@Z 10027838 f   pimstorelib:contacts.obj
 0001:00026850       ?put_JobTitle@CContact@@UAAJPAG@Z 10027850 f   pimstorelib:contacts.obj
 0001:00026868       ?put_HomeTelephoneNumber@CContact@@UAAJPAG@Z 10027868 f   pimstorelib:contacts.obj
 0001:00026880       ?put_Email2Address@CContact@@UAAJPAG@Z 10027880 f   pimstorelib:contacts.obj
 0001:00026898       ?put_Spouse@CContact@@UAAJPAG@Z 10027898 f   pimstorelib:contacts.obj
 0001:000268b0       ?put_Email3Address@CContact@@UAAJPAG@Z 100278b0 f   pimstorelib:contacts.obj
 0001:000268c8       ?put_Home2TelephoneNumber@CContact@@UAAJPAG@Z 100278c8 f   pimstorelib:contacts.obj
 0001:000268e0       ?put_HomeFaxNumber@CContact@@UAAJPAG@Z 100278e0 f   pimstorelib:contacts.obj
 0001:000268f8       ?put_CarTelephoneNumber@CContact@@UAAJPAG@Z 100278f8 f   pimstorelib:contacts.obj
 0001:00026910       ?put_AssistantName@CContact@@UAAJPAG@Z 10027910 f   pimstorelib:contacts.obj
 0001:00026928       ?put_AssistantTelephoneNumber@CContact@@UAAJPAG@Z 10027928 f   pimstorelib:contacts.obj
 0001:00026940       ?put_Children@CContact@@UAAJPAG@Z 10027940 f   pimstorelib:contacts.obj
 0001:00026958       ?put_WebPage@CContact@@UAAJPAG@Z 10027958 f   pimstorelib:contacts.obj
 0001:00026970       ?put_Business2TelephoneNumber@CContact@@UAAJPAG@Z 10027970 f   pimstorelib:contacts.obj
 0001:00026988       ?put_Title@CContact@@UAAJPAG@Z 10027988 f   pimstorelib:contacts.obj
 0001:000269a0       ?put_FirstName@CContact@@UAAJPAG@Z 100279a0 f   pimstorelib:contacts.obj
 0001:000269b8       ?put_MiddleName@CContact@@UAAJPAG@Z 100279b8 f   pimstorelib:contacts.obj
 0001:000269d0       ?put_LastName@CContact@@UAAJPAG@Z 100279d0 f   pimstorelib:contacts.obj
 0001:000269e8       ?put_Suffix@CContact@@UAAJPAG@Z 100279e8 f   pimstorelib:contacts.obj
 0001:00026a00       ?put_HomeAddressStreet@CContact@@UAAJPAG@Z 10027a00 f   pimstorelib:contacts.obj
 0001:00026a18       ?put_HomeAddressCity@CContact@@UAAJPAG@Z 10027a18 f   pimstorelib:contacts.obj
 0001:00026a30       ?put_HomeAddressState@CContact@@UAAJPAG@Z 10027a30 f   pimstorelib:contacts.obj
 0001:00026a48       ?put_HomeAddressPostalCode@CContact@@UAAJPAG@Z 10027a48 f   pimstorelib:contacts.obj
 0001:00026a60       ?put_HomeAddressCountry@CContact@@UAAJPAG@Z 10027a60 f   pimstorelib:contacts.obj
 0001:00026a78       ?put_OtherAddressStreet@CContact@@UAAJPAG@Z 10027a78 f   pimstorelib:contacts.obj
 0001:00026a90       ?put_OtherAddressCity@CContact@@UAAJPAG@Z 10027a90 f   pimstorelib:contacts.obj
 0001:00026aa8       ?put_OtherAddressState@CContact@@UAAJPAG@Z 10027aa8 f   pimstorelib:contacts.obj
 0001:00026ac0       ?put_OtherAddressPostalCode@CContact@@UAAJPAG@Z 10027ac0 f   pimstorelib:contacts.obj
 0001:00026ad8       ?put_OtherAddressCountry@CContact@@UAAJPAG@Z 10027ad8 f   pimstorelib:contacts.obj
 0001:00026af0       ?put_BusinessAddressStreet@CContact@@UAAJPAG@Z 10027af0 f   pimstorelib:contacts.obj
 0001:00026b08       ?put_BusinessAddressCity@CContact@@UAAJPAG@Z 10027b08 f   pimstorelib:contacts.obj
 0001:00026b20       ?put_BusinessAddressState@CContact@@UAAJPAG@Z 10027b20 f   pimstorelib:contacts.obj
 0001:00026b38       ?put_BusinessAddressPostalCode@CContact@@UAAJPAG@Z 10027b38 f   pimstorelib:contacts.obj
 0001:00026b50       ?put_BusinessAddressCountry@CContact@@UAAJPAG@Z 10027b50 f   pimstorelib:contacts.obj
 0001:00026b68       ?put_RadioTelephoneNumber@CContact@@UAAJPAG@Z 10027b68 f   pimstorelib:contacts.obj
 0001:00026b80       ?put_FileAs@CContact@@UAAJPAG@Z 10027b80 f   pimstorelib:contacts.obj
 0001:00026bb0       ?put_YomiFirstName@CContact@@UAAJPAG@Z 10027bb0 f   pimstorelib:contacts.obj
 0001:00026bc8       ?put_YomiLastName@CContact@@UAAJPAG@Z 10027bc8 f   pimstorelib:contacts.obj
 0001:00026be0       ?put_YomiCompanyName@CContact@@UAAJPAG@Z 10027be0 f   pimstorelib:contacts.obj
 0001:00026bf8       ?GetTypeSpecificProp@CContact@@UAAJKPAU_CEPROPVAL@@PAEKPAK@Z 10027bf8 f   pimstorelib:contacts.obj
 0001:00026fd8       ?UpdateHelper@CContact@@AAAJPBIIKP6AJPBGPAGH@Z@Z 10027fd8 f   pimstorelib:contacts.obj
 0001:00027314       ?DeterminePropFromVal@CContact@@UAAJPAKKPBG@Z 10028314 f   pimstorelib:contacts.obj
 0001:000274a4       ?IsNameEmpty@CContact@@SAJPAUIContact@@PAH@Z 100284a4 f   pimstorelib:contacts.obj
 0001:000275ec       ??0?$CPOOMItem@UIContact2@@@@QAA@PAVCPOutlookApp@@@Z 100285ec f i pimstorelib:contacts.obj
 0001:00027640       ?put_YomiFirstName@CContact@@W3AAJPAG@Z 10028640 f i pimstorelib:contacts.obj
 0001:00027648       ?put_HomeAddressCity@CContact@@W3AAJPAG@Z 10028648 f i pimstorelib:contacts.obj
 0001:00027650       ?put_OfficeLocation@CContact@@W3AAJPAG@Z 10028650 f i pimstorelib:contacts.obj
 0001:00027658       ?put_BusinessAddressCountry@CContact@@W3AAJPAG@Z 10028658 f i pimstorelib:contacts.obj
 0001:00027660       ?put_BusinessAddressCity@CContact@@W3AAJPAG@Z 10028660 f i pimstorelib:contacts.obj
 0001:00027668       ?put_OtherAddressStreet@CContact@@W3AAJPAG@Z 10028668 f i pimstorelib:contacts.obj
 0001:00027670       ?put_BusinessAddressState@CContact@@W3AAJPAG@Z 10028670 f i pimstorelib:contacts.obj
 0001:00027678       ?put_HomeAddressPostalCode@CContact@@W3AAJPAG@Z 10028678 f i pimstorelib:contacts.obj
 0001:00027680       ?put_Email1Address@CContact@@W3AAJPAG@Z 10028680 f i pimstorelib:contacts.obj
 0001:00027688       ?Release@CContact@@WGM@AAKXZ 10028688 f i pimstorelib:contacts.obj
 0001:00027690       ?put_Title@CContact@@W3AAJPAG@Z 10028690 f i pimstorelib:contacts.obj
 0001:00027698       ?put_OtherAddressPostalCode@CContact@@W3AAJPAG@Z 10028698 f i pimstorelib:contacts.obj
 0001:000276a0       ?put_LastName@CContact@@W3AAJPAG@Z 100286a0 f i pimstorelib:contacts.obj
 0001:000276a8       ?put_Spouse@CContact@@W3AAJPAG@Z 100286a8 f i pimstorelib:contacts.obj
 0001:000276b0       ?put_Business2TelephoneNumber@CContact@@W3AAJPAG@Z 100286b0 f i pimstorelib:contacts.obj
 0001:000276b8       ?put_Email2Address@CContact@@W3AAJPAG@Z 100286b8 f i pimstorelib:contacts.obj
 0001:000276c0       ?Release@CContact@@WHA@AAKXZ 100286c0 f i pimstorelib:contacts.obj
 0001:000276c8       ?put_AssistantTelephoneNumber@CContact@@W3AAJPAG@Z 100286c8 f i pimstorelib:contacts.obj
 0001:000276d0       ?put_Suffix@CContact@@W3AAJPAG@Z 100286d0 f i pimstorelib:contacts.obj
 0001:000276d8       ?put_BusinessFaxNumber@CContact@@W3AAJPAG@Z 100286d8 f i pimstorelib:contacts.obj
 0001:000276e0       ?Release@CContact@@WHE@AAKXZ 100286e0 f i pimstorelib:contacts.obj
 0001:000276e8       ?put_HomeTelephoneNumber@CContact@@W3AAJPAG@Z 100286e8 f i pimstorelib:contacts.obj
 0001:000276f0       ?put_Department@CContact@@W3AAJPAG@Z 100286f0 f i pimstorelib:contacts.obj
 0001:000276f8       ?AddRef@CContact@@WGM@AAKXZ 100286f8 f i pimstorelib:contacts.obj
 0001:00027700       ?put_FirstName@CContact@@W3AAJPAG@Z 10028700 f i pimstorelib:contacts.obj
 0001:00027708       ?Release@CContact@@WBI@AAKXZ 10028708 f i pimstorelib:contacts.obj
 0001:00027710       ?put_HomeFaxNumber@CContact@@W3AAJPAG@Z 10028710 f i pimstorelib:contacts.obj
 0001:00027718       ?put_RadioTelephoneNumber@CContact@@W3AAJPAG@Z 10028718 f i pimstorelib:contacts.obj
 0001:00027720       ?Release@CContact@@WHI@AAKXZ 10028720 f i pimstorelib:contacts.obj
 0001:00027728       ?put_MiddleName@CContact@@W3AAJPAG@Z 10028728 f i pimstorelib:contacts.obj
 0001:00027730       ?AddRef@CContact@@WHA@AAKXZ 10028730 f i pimstorelib:contacts.obj
 0001:00027738       ?put_JobTitle@CContact@@W3AAJPAG@Z 10028738 f i pimstorelib:contacts.obj
 0001:00027740       ?put_BusinessAddressStreet@CContact@@W3AAJPAG@Z 10028740 f i pimstorelib:contacts.obj
 0001:00027748       ?put_OtherAddressState@CContact@@W3AAJPAG@Z 10028748 f i pimstorelib:contacts.obj
 0001:00027750       ?AddRef@CContact@@WHE@AAKXZ 10028750 f i pimstorelib:contacts.obj
 0001:00027758       ?put_FileAs@CContact@@W3AAJPAG@Z 10028758 f i pimstorelib:contacts.obj
 0001:00027760       ?put_BusinessAddressPostalCode@CContact@@W3AAJPAG@Z 10028760 f i pimstorelib:contacts.obj
 0001:00027768       ?AddRef@CContact@@WBI@AAKXZ 10028768 f i pimstorelib:contacts.obj
 0001:00027770       ?put_OtherAddressCity@CContact@@W3AAJPAG@Z 10028770 f i pimstorelib:contacts.obj
 0001:00027778       ?put_Home2TelephoneNumber@CContact@@W3AAJPAG@Z 10028778 f i pimstorelib:contacts.obj
 0001:00027780       ?put_OtherAddressCountry@CContact@@W3AAJPAG@Z 10028780 f i pimstorelib:contacts.obj
 0001:00027788       ?put_HomeAddressStreet@CContact@@W3AAJPAG@Z 10028788 f i pimstorelib:contacts.obj
 0001:00027790       ?AddRef@CContact@@WHI@AAKXZ 10028790 f i pimstorelib:contacts.obj
 0001:00027798       ?put_YomiLastName@CContact@@W3AAJPAG@Z 10028798 f i pimstorelib:contacts.obj
 0001:000277a0       ?put_PagerNumber@CContact@@W3AAJPAG@Z 100287a0 f i pimstorelib:contacts.obj
 0001:000277a8       ?put_Children@CContact@@W3AAJPAG@Z 100287a8 f i pimstorelib:contacts.obj
 0001:000277b0       ?put_Email3Address@CContact@@W3AAJPAG@Z 100287b0 f i pimstorelib:contacts.obj
 0001:000277b8       ?put_CompanyName@CContact@@W3AAJPAG@Z 100287b8 f i pimstorelib:contacts.obj
 0001:000277c0       ?put_HomeAddressCountry@CContact@@W3AAJPAG@Z 100287c0 f i pimstorelib:contacts.obj
 0001:000277c8       ?put_HomeAddressState@CContact@@W3AAJPAG@Z 100287c8 f i pimstorelib:contacts.obj
 0001:000277d0       ?put_WebPage@CContact@@W3AAJPAG@Z 100287d0 f i pimstorelib:contacts.obj
 0001:000277d8       ?get_FileAs@CContact@@W3AAJPAPAG@Z 100287d8 f i pimstorelib:contacts.obj
 0001:000277e0       ?OpenProperty@CContact@@WBI@AAJKKPAPAUIStream@@@Z 100287e0 f i pimstorelib:contacts.obj
 0001:000277e8       ?put_AssistantName@CContact@@W3AAJPAG@Z 100287e8 f i pimstorelib:contacts.obj
 0001:000277f0       ?put_BusinessTelephoneNumber@CContact@@W3AAJPAG@Z 100287f0 f i pimstorelib:contacts.obj
 0001:000277f8       ?put_CarTelephoneNumber@CContact@@W3AAJPAG@Z 100287f8 f i pimstorelib:contacts.obj
 0001:00027800       ?put_MobileTelephoneNumber@CContact@@W3AAJPAG@Z 10028800 f i pimstorelib:contacts.obj
 0001:00027808       ?put_YomiCompanyName@CContact@@W3AAJPAG@Z 10028808 f i pimstorelib:contacts.obj
 0001:00027810       ?OpenProperty@CContact@@WBM@AAJKKPAPAUIStream@@@Z 10028810 f i pimstorelib:contacts.obj
 0001:00027818       ??0CContact@@QAA@PAVCPOutlookApp@@@Z 10028818 f   pimstorelib:contacts.obj
 0001:000278d8       ?CreateInstance@CContact@@SAJPAVCPOutlookApp@@PAUIUSFolder@@PAUUSOID@@PAPAUIItem2@@@Z 100288d8 f   pimstorelib:contacts.obj
 0001:0002797c       ?_Copy@CContact@@AAAJPAPAUIContact2@@@Z 1002897c f   pimstorelib:contacts.obj
 0001:00027ae4       ?UpdateQuickFindInfo@CContact@@AAAJH@Z 10028ae4 f   pimstorelib:contacts.obj
 0001:00027c3c       ?_Copy@CContact@@AAAJPAPAUIContact@@@Z 10028c3c f   pimstorelib:contacts.obj
 0001:00027cf0       ?Copy@CContact@@UAAJPAPAUIContact@@@Z 10028cf0 f i pimstorelib:contacts.obj
 0001:00027d44       ?Copy@CContact@@UAAJPAPAUIContact2@@@Z 10028d44 f i pimstorelib:contacts.obj
 0001:00027d98       ?_Save@CContact@@AAAJXZ    10028d98 f   pimstorelib:contacts.obj
 0001:00027e44       ?Copy@CContact@@WGM@AAJPAPAUIContact2@@@Z 10028e44 f i pimstorelib:contacts.obj
 0001:00027e4c       ?Save@CContact@@UAAJXZ     10028e4c f i pimstorelib:contacts.obj
 0001:00027eb4       ?Save@CContact@@WHA@AAJXZ  10028eb4 f i pimstorelib:contacts.obj
 0001:00027ebc       ?Save@CContact@@WBI@AAJXZ  10028ebc f i pimstorelib:contacts.obj
 0001:00027ec4       ?Save@CContact@@WGM@AAJXZ  10028ec4 f i pimstorelib:contacts.obj
 0001:00027ecc       ?SetColumns@CItems@@UAAJPAG@Z 10028ecc f   pimstorelib:items.obj
 0001:00027ed4       ?AddRef@?$CUnknownImpl@UIPOlItems3@@@@UAAKXZ 10028ed4 f i pimstorelib:items.obj
 0001:00027edc       ?Release@?$CUnknownImpl@UIPOlItems3@@@@UAAKXZ 10028edc f i pimstorelib:items.obj
 0001:00027f10       ?AddRef@?$CUnknownImpl@UIEnumVARIANT@@@@UAAKXZ 10028f10 f i pimstorelib:items.obj
 0001:00027f18       ?Release@?$CUnknownImpl@UIEnumVARIANT@@@@UAAKXZ 10028f18 f i pimstorelib:items.obj
 0001:00027f4c       ??_G?$CUnknownImpl@UIPOlItems3@@@@UAAPAXI@Z 10028f4c f i pimstorelib:items.obj
 0001:00027f4c       ??_E?$CUnknownImpl@UIPOlItems3@@@@UAAPAXI@Z 10028f4c f i pimstorelib:items.obj
 0001:00027f84       ?QueryInterface@CItems@@UAAJABU_GUID@@PAPAX@Z 10028f84 f   pimstorelib:items.obj
 0001:000280d4       ?_get_IncludeRecurrences@CItems@@AAAJPAF@Z 100290d4 f   pimstorelib:items.obj
 0001:0002810c       ?_get_Count@CItems@@AAAJPAH@Z 1002910c f   pimstorelib:items.obj
 0001:000281b4       ?Update@CItems@@QAAJABUUSOID@@I@Z 100291b4 f   pimstorelib:items.obj
 0001:00028238       ?_get__NewEnum@CItems@@AAAJPAPAUIUnknown@@@Z 10029238 f   pimstorelib:items.obj
 0001:000282a8       GetItemIndexFromOid        100292a8 f   pimstorelib:items.obj
 0001:00028380       ??_GCPOOMItemsEnum@@UAAPAXI@Z 10029380 f i pimstorelib:items.obj
 0001:00028380       ??_ECPOOMItemsEnum@@UAAPAXI@Z 10029380 f i pimstorelib:items.obj
 0001:000283a4       ??1CItems@@UAA@XZ          100293a4 f   pimstorelib:items.obj
 0001:000284cc       ??_ECItems@@W7AAPAXI@Z     100294cc f i pimstorelib:items.obj
 0001:000284d4       ?GetTypeInfoCount@?$CDispatchImpl@UIPOlItems3@@@@UAAJPAI@Z 100294d4 f i pimstorelib:items.obj
 0001:000284dc       ?GetTypeInfo@?$CDispatchImpl@UIPOlItems3@@@@UAAJIKPAPAUITypeInfo@@@Z 100294dc f i pimstorelib:items.obj
 0001:000284e4       ?GetIDsOfNames@?$CDispatchImpl@UIPOlItems3@@@@UAAJABU_GUID@@PAPAGIKPAJ@Z 100294e4 f i pimstorelib:items.obj
 0001:0002850c       ?Invoke@?$CDispatchImpl@UIPOlItems3@@@@UAAJJABU_GUID@@KGPAUtagDISPPARAMS@@PAUtagVARIANT@@PAUtagEXCEPINFO@@PAI@Z 1002950c f i pimstorelib:items.obj
 0001:00028554       ?get_Application@?$CDispatchImpl@UIPOlItems3@@@@UAAJPAPAUIPOutlookApp3@@@Z 10029554 f i pimstorelib:items.obj
 0001:00028558       ?get_Application@?$CDispatchImpl@UIPOlItems3@@@@UAAJPAPAUIPOutlookApp@@@Z 10029558 f i pimstorelib:items.obj
 0001:00028560       ?QueryInterface@CItems@@WBI@AAJABU_GUID@@PAPAX@Z 10029560 f i pimstorelib:items.obj
 0001:00028568       ?GetTypeInfoCount@CItems@@UAAJPAI@Z 10029568 f i pimstorelib:items.obj
 0001:00028570       ?GetTypeInfo@CItems@@UAAJIKPAPAUITypeInfo@@@Z 10029570 f i pimstorelib:items.obj
 0001:00028578       ?GetIDsOfNames@CItems@@UAAJABU_GUID@@PAPAGIKPAJ@Z 10029578 f i pimstorelib:items.obj
 0001:000285a0       ?Invoke@CItems@@UAAJJABU_GUID@@KGPAUtagDISPPARAMS@@PAUtagVARIANT@@PAUtagEXCEPINFO@@PAI@Z 100295a0 f i pimstorelib:items.obj
 0001:000285e8       ?get_Application@CItems@@UAAJPAPAUIPOutlookApp3@@@Z 100295e8 f i pimstorelib:items.obj
 0001:000285ec       ?get_Application@CItems@@UAAJPAPAUIPOutlookApp@@@Z 100295ec f i pimstorelib:items.obj
 0001:000285f4       ?get_Count@CItems@@UAAJPAH@Z 100295f4 f i pimstorelib:items.obj
 0001:00028634       ?get_IncludeRecurrences@CItems@@UAAJPAF@Z 10029634 f i pimstorelib:items.obj
 0001:00028638       ?get__NewEnum@CItems@@UAAJPAPAUIUnknown@@@Z 10029638 f i pimstorelib:items.obj
 0001:0002863c       ?AddRef@?$CDispatchImpl@UIPOlItems3@@@@UAAKXZ 1002963c f i pimstorelib:items.obj
 0001:00028644       ?Release@?$CDispatchImpl@UIPOlItems3@@@@UAAKXZ 10029644 f i pimstorelib:items.obj
 0001:00028678       ?_Add@CItems@@AAAJPAPAUIDispatch@@@Z 10029678 f   pimstorelib:items.obj
 0001:00028768       ?_Item@CItems@@AAAJHPAPAUIItem2@@@Z 10029768 f   pimstorelib:items.obj
 0001:00028824       ?_ItemId@CItems@@AAAJHPAUOLITEMID@@@Z 10029824 f   pimstorelib:items.obj
 0001:000288a4       ?_GetProps@CItems@@AAAJHPBKKGPAPAU_CEPROPVAL@@PAKPAX@Z 100298a4 f   pimstorelib:items.obj
 0001:00028974       ?_FindNext@CItems@@AAAJPAPAUIItem2@@@Z 10029974 f   pimstorelib:items.obj
 0001:00028a40       ?_GetIndexFromId@CItems@@AAAJPAUOLITEMID@@PAK@Z 10029a40 f   pimstorelib:items.obj
 0001:00028bb0       ?Invoke@CItems@@WBI@AAJJABU_GUID@@KGPAUtagDISPPARAMS@@PAUtagVARIANT@@PAUtagEXCEPINFO@@PAI@Z 10029bb0 f i pimstorelib:items.obj
 0001:00028bb8       ?GetTypeInfo@CItems@@WBI@AAJIKPAPAUITypeInfo@@@Z 10029bb8 f i pimstorelib:items.obj
 0001:00028bc0       ?get_Application@CItems@@WBA@AAJPAPAUIPOutlookApp3@@@Z 10029bc0 f i pimstorelib:items.obj
 0001:00028bc8       ?GetIDsOfNames@CItems@@W7AAJABU_GUID@@PAPAGIKPAJ@Z 10029bc8 f i pimstorelib:items.obj
 0001:00028bd0       ?GetTypeInfoCount@CItems@@W7AAJPAI@Z 10029bd0 f i pimstorelib:items.obj
 0001:00028bd8       ?get_IncludeRecurrences@CItems@@WBI@AAJPAF@Z 10029bd8 f i pimstorelib:items.obj
 0001:00028be0       ?get__NewEnum@CItems@@WBI@AAJPAPAUIUnknown@@@Z 10029be0 f i pimstorelib:items.obj
 0001:00028be8       ?GetTypeInfo@CItems@@W7AAJIKPAPAUITypeInfo@@@Z 10029be8 f i pimstorelib:items.obj
 0001:00028bf0       ?get_Count@CItems@@WBI@AAJPAH@Z 10029bf0 f i pimstorelib:items.obj
 0001:00028bf8       ?GetIDsOfNames@CItems@@WBI@AAJABU_GUID@@PAPAGIKPAJ@Z 10029bf8 f i pimstorelib:items.obj
 0001:00028c00       ?GetTypeInfoCount@CItems@@WBI@AAJPAI@Z 10029c00 f i pimstorelib:items.obj
 0001:00028c08       ?get_Application@CItems@@W7AAJPAPAUIPOutlookApp@@@Z 10029c08 f i pimstorelib:items.obj
 0001:00028c10       ?AddRef@CItems@@UAAKXZ     10029c10 f i pimstorelib:items.obj
 0001:00028c18       ?Release@CItems@@UAAKXZ    10029c18 f i pimstorelib:items.obj
 0001:00028c4c       ?Add@CItems@@UAAJPAPAUIDispatch@@@Z 10029c4c f i pimstorelib:items.obj
 0001:00028c8c       ?GetIndexFromId@CItems@@UAAJPAUOLITEMID@@PAK@Z 10029c8c f i pimstorelib:items.obj
 0001:00028c94       ?GetProps@CItems@@UAAJHPBKKGPAPAU_CEPROPVAL@@PAKPAX@Z 10029c94 f i pimstorelib:items.obj
 0001:00028d0c       ?Item@CItems@@UAAJHPAPAUIItem2@@@Z 10029d0c f i pimstorelib:items.obj
 0001:00028d54       ?ItemId@CItems@@UAAJHPAUOLITEMID@@@Z 10029d54 f i pimstorelib:items.obj
 0001:00028d9c       ?FindNext@CItems@@UAAJPAPAUIItem2@@@Z 10029d9c f i pimstorelib:items.obj
 0001:00028ddc       ??_GCItems@@UAAPAXI@Z      10029ddc f i pimstorelib:items.obj
 0001:00028ddc       ??_ECItems@@UAAPAXI@Z      10029ddc f i pimstorelib:items.obj
 0001:00028e00       ?GetRestriction@CItems@@AAAJPAGPAPAUIRestriction@@1@Z 10029e00 f   pimstorelib:items.obj
 0001:00028ff4       ?IncludeSimContacts@CItems@@UAAJXZ 10029ff4 f   pimstorelib:items.obj
 0001:00029180       ?_FindNext@CItems@@AAAJPAPAUIDispatch@@@Z 1002a180 f   pimstorelib:items.obj
 0001:00029240       ?_Item@CItems@@AAAJHPAPAUIDispatch@@@Z 1002a240 f   pimstorelib:items.obj
 0001:000292f4       ?Release@CItems@@WBI@AAKXZ 1002a2f4 f i pimstorelib:items.obj
 0001:000292fc       ?AddRef@CItems@@WBI@AAKXZ  1002a2fc f i pimstorelib:items.obj
 0001:00029304       ?Item@CItems@@UAAJHPAPAUIDispatch@@@Z 1002a304 f i pimstorelib:items.obj
 0001:0002934c       ?FindNext@CItems@@UAAJPAPAUIDispatch@@@Z 1002a34c f i pimstorelib:items.obj
 0001:00029350       ?InitializeHelper@CItems@@AAAJH@Z 1002a350 f   pimstorelib:items.obj
 0001:00029508       ?_put_IncludeRecurrences@CItems@@AAAJF@Z 1002a508 f   pimstorelib:items.obj
 0001:000296c8       ?_Remove@CItems@@AAAJH@Z   1002a6c8 f   pimstorelib:items.obj
 0001:000297ac       ?_Sort@CItems@@AAAJKPAPAGPAF@Z 1002a7ac f   pimstorelib:items.obj
 0001:00029a24       ?_Find@CItems@@AAAJPAGPAPAUIItem2@@@Z 1002aa24 f   pimstorelib:items.obj
 0001:00029cc8       ?_Find@CItems@@AAAJPAGPAPAUIDispatch@@@Z 1002acc8 f   pimstorelib:items.obj
 0001:00029d88       ?Remove@CItems@@UAAJH@Z    1002ad88 f i pimstorelib:items.obj
 0001:00029dc8       ?Find@CItems@@UAAJPAGPAPAUIDispatch@@@Z 1002adc8 f i pimstorelib:items.obj
 0001:00029dcc       ?Find@CItems@@UAAJPAGPAPAUIItem2@@@Z 1002adcc f i pimstorelib:items.obj
 0001:00029e14       ?Sort@CItems@@UAAJPAGF@Z   1002ae14 f i pimstorelib:items.obj
 0001:00029e44       ?Sort@CItems@@UAAJKPAPAGPAF@Z 1002ae44 f i pimstorelib:items.obj
 0001:00029e94       ?put_IncludeRecurrences@CItems@@UAAJF@Z 1002ae94 f i pimstorelib:items.obj
 0001:00029e98       ?Initialize@CItems@@QAAJXZ 1002ae98 f   pimstorelib:items.obj
 0001:00029ec8       ?InitializeWithoutSIMRestriction@CItems@@QAAJXZ 1002aec8 f   pimstorelib:items.obj
 0001:00029ef8       ?put_IncludeRecurrences@CItems@@WBI@AAJF@Z 1002aef8 f i pimstorelib:items.obj
 0001:00029f00       ??0?$CDispatchImpl@UIPOlItems3@@@@QAA@PAVCPOutlookApp@@@Z 1002af00 f i pimstorelib:items.obj
 0001:00029f58       ??_E?$CDispatchImpl@UIPOlItems3@@@@W7AAPAXI@Z 1002af58 f i pimstorelib:items.obj
 0001:00029f60       ??_G?$CDispatchImpl@UIPOlItems3@@@@UAAPAXI@Z 1002af60 f i pimstorelib:items.obj
 0001:00029f60       ??_E?$CDispatchImpl@UIPOlItems3@@@@UAAPAXI@Z 1002af60 f i pimstorelib:items.obj
 0001:00029fa0       ?GetTypeInfo@?$CDispatchImpl@UIPOlItems3@@@@W7AAJIKPAPAUITypeInfo@@@Z 1002afa0 f i pimstorelib:items.obj
 0001:00029fa8       ?get_Application@?$CDispatchImpl@UIPOlItems3@@@@W7AAJPAPAUIPOutlookApp@@@Z 1002afa8 f i pimstorelib:items.obj
 0001:00029fb0       ?GetIDsOfNames@?$CDispatchImpl@UIPOlItems3@@@@W7AAJABU_GUID@@PAPAGIKPAJ@Z 1002afb0 f i pimstorelib:items.obj
 0001:00029fb8       ?GetTypeInfoCount@?$CDispatchImpl@UIPOlItems3@@@@W7AAJPAI@Z 1002afb8 f i pimstorelib:items.obj
 0001:00029fc0       ??0CItems@@QAA@PAVCPOutlookApp@@PAUIUSFolder@@W4OlDefaultFolders@@H@Z 1002afc0 f   pimstorelib:items.obj
 0001:0002a068       ?_Restrict@CItems@@AAAJPAGPAPAUIPOutlookItemCollection2@@@Z 1002b068 f   pimstorelib:items.obj
 0001:0002a2fc       ?_Restrict@CItems@@AAAJPAGPAPAUIPOutlookItemCollection@@@Z 1002b2fc f   pimstorelib:items.obj
 0001:0002a3a8       ?Restrict@CItems@@UAAJPAGPAPAUIPOutlookItemCollection2@@@Z 1002b3a8 f i pimstorelib:items.obj
 0001:0002a3f0       ?Restrict@CItems@@UAAJPAGPAPAUIPOutlookItemCollection@@@Z 1002b3f0 f i pimstorelib:items.obj
 0001:0002a438       ?get_HomeCity@CPOutlookApp@@UAAJPAPAUICity@@@Z 1002b438 f   pimstorelib:polapp.obj
 0001:0002a444       ?put_HomeCity@CPOutlookApp@@UAAJPAUICity@@@Z 1002b444 f   pimstorelib:polapp.obj
 0001:0002a450       ?get_VisitingCity@CPOutlookApp@@UAAJPAPAUICity@@@Z 1002b450 f   pimstorelib:polapp.obj
 0001:0002a45c       ?put_VisitingCity@CPOutlookApp@@UAAJPAUICity@@@Z 1002b45c f   pimstorelib:polapp.obj
 0001:0002a468       ?get_CurrentCityIndex@CPOutlookApp@@UAAJPAJ@Z 1002b468 f   pimstorelib:polapp.obj
 0001:0002a474       ?put_CurrentCityIndex@CPOutlookApp@@UAAJJ@Z 1002b474 f   pimstorelib:polapp.obj
 0001:0002a480       ?ReceiveFromInfrared@CPOutlookApp@@UAAJXZ 1002b480 f   pimstorelib:polapp.obj
 0001:0002a48c       ?SysFreeString@CPOutlookApp@@UAAJPAG@Z 1002b48c f   pimstorelib:polapp.obj
 0001:0002a4a0       ?VariantTimeToSystemTime@CPOutlookApp@@UAAJNPAU_SYSTEMTIME@@@Z 1002b4a0 f   pimstorelib:polapp.obj
 0001:0002a4bc       ?SystemTimeToVariantTime@CPOutlookApp@@UAAJPAU_SYSTEMTIME@@PAN@Z 1002b4bc f   pimstorelib:polapp.obj
 0001:0002a4c8       ?AddItems@CPOutlookApp@@QAAJPAVCItems@@@Z 1002b4c8 f   pimstorelib:polapp.obj
 0001:0002a50c       ?RemoveItems@CPOutlookApp@@QAAJPAVCItems@@@Z 1002b50c f   pimstorelib:polapp.obj
 0001:0002a568       ?IsCalculatedProperty@CPOutlookApp@@QAAHKPAP6AJPAU_CEPROPVAL@@PAU_USPROPVAL@@@Z@Z 1002b568 f   pimstorelib:polapp.obj
 0001:0002a5c0       ?SelectRecentList@CPOutlookApp@@AAAJKPAPAUUSOID@@PAPAK@Z 1002b5c0 f   pimstorelib:polapp.obj
 0001:0002a618       ?IsEmptyOlItemId@@YAHABUOLITEMID@@@Z 1002b618 f i pimstorelib:polapp.obj
 0001:0002a67c       ?AddRef@?$CUnknownImpl@UIPOutlookApp2@@@@UAAKXZ 1002b67c f i pimstorelib:polapp.obj
 0001:0002a684       ?Release@?$CUnknownImpl@UIPOutlookApp2@@@@UAAKXZ 1002b684 f i pimstorelib:polapp.obj
 0001:0002a6b8       ??_E?$CUnknownImpl@UIPOutlookApp2@@@@UAAPAXI@Z 1002b6b8 f i pimstorelib:polapp.obj
 0001:0002a6b8       ??_G?$CUnknownImpl@UIPOutlookApp2@@@@UAAPAXI@Z 1002b6b8 f i pimstorelib:polapp.obj
 0001:0002a6f0       ?QueryInterface@CPOutlookApp@@UAAJABU_GUID@@PAPAX@Z 1002b6f0 f   pimstorelib:polapp.obj
 0001:0002a890       ?_get_Version@CPOutlookApp@@AAAJPAPAG@Z 1002b890 f   pimstorelib:polapp.obj
 0001:0002a990       ?_get_OutlookCompatible@CPOutlookApp@@AAAJPAF@Z 1002b990 f   pimstorelib:polapp.obj
 0001:0002a9d4       ?SetFolderNotificationRegistration@CPOutlookApp@@QAAJW4OlDefaultFolders@@E@Z 1002b9d4 f   pimstorelib:polapp.obj
 0001:0002aa28       ?GetFolderNotificationRegistration@CPOutlookApp@@QAAEW4OlDefaultFolders@@@Z 1002ba28 f   pimstorelib:polapp.obj
 0001:0002aa70       ?UpdateItems@CPOutlookApp@@QAAJABUUSOID@@I@Z 1002ba70 f   pimstorelib:polapp.obj
 0001:0002ab0c       ?PersistRecentList@CPOutlookApp@@QAAJK@Z 1002bb0c f   pimstorelib:polapp.obj
 0001:0002ac44       ?RefreshRecentList@CPOutlookApp@@QAAJXZ 1002bc44 f   pimstorelib:polapp.obj
 0001:0002ad94       ?CreateItemCollection@CPOutlookApp@@UAAJPAUIUSFolder@@W4OlDefaultFolders@@HPAUIRestriction@@KPAPAGPAFHPAPAUICollection@@@Z 1002bd94 f   pimstorelib:polapp.obj
 0001:0002ae18       ?_get_Stores@CPOutlookApp@@AAAJPAPAUIPOutlookStoreCollection@@@Z 1002be18 f   pimstorelib:polapp.obj
 0001:0002aeb4       ?get_Application@CPOutlookApp@@UAAJPAPAUIPOutlookApp@@@Z 1002beb4 f   pimstorelib:polapp.obj
 0001:0002aef0       ?USITEMTYPEToPIMPRType@@YAJW4US_ITEMTYPE@@PAK@Z 1002bef0 f i pimstorelib:polapp.obj
 0001:0002af6c       ?AddRef@?$CDispatchImpl@UIPOutlookApp2@@@@UAAKXZ 1002bf6c f i pimstorelib:polapp.obj
 0001:0002af74       ?Release@?$CDispatchImpl@UIPOutlookApp2@@@@UAAKXZ 1002bf74 f i pimstorelib:polapp.obj
 0001:0002afa8       ?GetStoreManagerInstance@@YAJPAPAUIUSStoreManager@@@Z 1002bfa8 f   pimstorelib:polapp.obj
 0001:0002b050       ?InternalAddRef@CPOutlookApp@@QAAKXZ 1002c050 f   pimstorelib:polapp.obj
 0001:0002b058       ?InternalRelease@CPOutlookApp@@QAAKXZ 1002c058 f   pimstorelib:polapp.obj
 0001:0002b08c       ?GetStore@CPOutlookApp@@QAAPAXXZ 1002c08c f   pimstorelib:polapp.obj
 0001:0002b150       ?_Logon@CPOutlookApp@@AAAJJ@Z 1002c150 f   pimstorelib:polapp.obj
 0001:0002b218       ?_GetItemFromOid@CPOutlookApp@@AAAJJPAPAUIDispatch@@@Z 1002c218 f   pimstorelib:polapp.obj
 0001:0002b2f8       ?_GetItemFromOidEx@CPOutlookApp@@AAAJKKPAPAUIItem@@@Z 1002c2f8 f   pimstorelib:polapp.obj
 0001:0002b3d4       ?_GetItemFromItemId@CPOutlookApp@@AAAJPAUOLITEMID@@PAPAUIItem2@@@Z 1002c3d4 f   pimstorelib:polapp.obj
 0001:0002b440       ?_GetIDsFromNames@CPOutlookApp@@AAAJKPBQBGKPAK@Z 1002c440 f   pimstorelib:polapp.obj
 0001:0002b6e0       ?GetPIMPR_FOLDER_CATEGORIES@CPOutlookApp@@AAAJUUSOID@@PAVCPropertyHandler@@PAPAGPAK@Z 1002c6e0 f   pimstorelib:polapp.obj
 0001:0002b8c0       ?PreProcessProps@CPOutlookApp@@AAAJUUSOID@@PBKGPAVCPropertyHandler@@PAPAKPAIPAH5@Z 1002c8c0 f   pimstorelib:polapp.obj
 0001:0002bb5c       ?IsItemInRecentList@CPOutlookApp@@QAAJABUUSOID@@PAH@Z 1002cb5c f   pimstorelib:polapp.obj
 0001:0002bc40       ?RemoveFromRecentList@CPOutlookApp@@QAAJABUUSOID@@@Z 1002cc40 f   pimstorelib:polapp.obj
 0001:0002bd5c       ?EnumerateItemsInRecentList@CPOutlookApp@@QAAJKPAUIUSFolder@@HP6AJUOLITEMID@@J@ZJ@Z 1002cd5c f   pimstorelib:polapp.obj
 0001:0002be84       ?SetUSStoreManager@CPOutlookApp@@UAAJPAUIUSStoreManager@@@Z 1002ce84 f   pimstorelib:polapp.obj
 0001:0002bec0       ?SetCategoryDBManager@CPOutlookApp@@UAAJPAUICategoryDBManager@@@Z 1002cec0 f   pimstorelib:polapp.obj
 0001:0002bed8       ?CreateRestriction@CPOutlookApp@@UAAJKPAUIUSStore@@PBGPAPAUIRestriction@@@Z 1002ced8 f   pimstorelib:polapp.obj
 0001:0002bf5c       ?_get_DefaultStore@CPOutlookApp@@AAAJPAPAUIStore@@@Z 1002cf5c f   pimstorelib:polapp.obj
 0001:0002c06c       ?_CreateStore@CPOutlookApp@@AAAJPAGKPAPAUIStore@@@Z 1002d06c f   pimstorelib:polapp.obj
 0001:0002c154       ?_GetStoreFromId@CPOutlookApp@@AAAJPAUOLITEMID@@PAPAUIStore@@@Z 1002d154 f   pimstorelib:polapp.obj
 0001:0002c2f8       ?_get_DefaultStoreId@CPOutlookApp@@AAAJPAUOLITEMID@@@Z 1002d2f8 f   pimstorelib:polapp.obj
 0001:0002c3fc       ?_Advise@CPOutlookApp@@AAAJW4OlObjectType@@KKPAUIChangeEventSink@@PAK@Z 1002d3fc f   pimstorelib:polapp.obj
 0001:0002c4e8       ?_Unadvise@CPOutlookApp@@AAAJK@Z 1002d4e8 f   pimstorelib:polapp.obj
 0001:0002c554       ?_AdviseCustomEvent@CPOutlookApp@@AAAJPBU_GUID@@KPAUICustomEventSink@@PAK@Z 1002d554 f   pimstorelib:polapp.obj
 0001:0002c634       ?_FlushEvents@CPOutlookApp@@AAAJXZ 1002d634 f   pimstorelib:polapp.obj
 0001:0002c698       ?AddRef@CPOutlookApp@@UAAKXZ 1002d698 f   pimstorelib:polapp.obj
 0001:0002c6b4       ?Release@CPOutlookApp@@UAAKXZ 1002d6b4 f   pimstorelib:polapp.obj
 0001:0002c6e8       ?Reset@CPOutlookApp@@QAAJXZ 1002d6e8 f   pimstorelib:polapp.obj
 0001:0002c7c4       ?_GetDefaultFolder@CPOutlookApp@@AAAJHPAPAUIFolder@@@Z 1002d7c4 f   pimstorelib:polapp.obj
 0001:0002c8ac       ?_CreateItem@CPOutlookApp@@AAAJHPAPAUIDispatch@@@Z 1002d8ac f   pimstorelib:polapp.obj
 0001:0002cb5c       ?GetUnifiedStoreProps@CPOutlookApp@@AAAJUUSOID@@KPAK1PAPAU_USPROPVAL@@@Z 1002db5c f   pimstorelib:polapp.obj
 0001:0002ccb8       ?FillProviderAndCalculatedProps@CPOutlookApp@@AAAJUUSOID@@PBKGPAVCPropertyHandler@@PAU_CEPROPVAL@@PAEI@Z 1002dcb8 f   pimstorelib:polapp.obj
 0001:0002d034       ?AddToRecentList@CPOutlookApp@@QAAJABUUSOID@@@Z 1002e034 f   pimstorelib:polapp.obj
 0001:0002d128       ?_SendCustomEvent@CPOutlookApp@@AAAJPBUPIMCUSTOMEVENT@@@Z 1002e128 f   pimstorelib:polapp.obj
 0001:0002d1e4       ?OLITEMIDToLegacyPimOid@CPOutlookApp@@UAAJPBUOLITEMID@@HPAK@Z 1002e1e4 f   pimstorelib:polapp.obj
 0001:0002d670       ??1CPOutlookApp@@UAA@XZ    1002e670 f   pimstorelib:polapp.obj
 0001:0002d75c       ??_ECPOutlookApp@@W7AAPAXI@Z 1002e75c f i pimstorelib:polapp.obj
 0001:0002d764       ?GetTimeZoneFromIndex@CPOutlookApp@@UAAJHPAPAUITimeZone@@@Z 1002e764 f i pimstorelib:polapp.obj
 0001:0002d770       ?GetTimeZoneInformationFromIndex@CPOutlookApp@@UAAJHPAU_TIME_ZONE_INFORMATION@@@Z 1002e770 f i pimstorelib:polapp.obj
 0001:0002d77c       ?EnsureUiComponentsInitialized@CPOutlookApp@@UAAJXZ 1002e77c f i pimstorelib:polapp.obj
 0001:0002d788       ?GetTypeInfoCount@?$CDispatchImpl@UIPOutlookApp2@@@@UAAJPAI@Z 1002e788 f i pimstorelib:polapp.obj
 0001:0002d790       ?GetTypeInfo@?$CDispatchImpl@UIPOutlookApp2@@@@UAAJIKPAPAUITypeInfo@@@Z 1002e790 f i pimstorelib:polapp.obj
 0001:0002d798       ?GetIDsOfNames@?$CDispatchImpl@UIPOutlookApp2@@@@UAAJABU_GUID@@PAPAGIKPAJ@Z 1002e798 f i pimstorelib:polapp.obj
 0001:0002d7c0       ?Invoke@?$CDispatchImpl@UIPOutlookApp2@@@@UAAJJABU_GUID@@KGPAUtagDISPPARAMS@@PAUtagVARIANT@@PAUtagEXCEPINFO@@PAI@Z 1002e7c0 f i pimstorelib:polapp.obj
 0001:0002d808       ?get_Application@?$CDispatchImpl@UIPOutlookApp2@@@@UAAJPAPAUIPOutlookApp3@@@Z 1002e808 f i pimstorelib:polapp.obj
 0001:0002d80c       ?QueryInterface@CPOutlookApp@@WCE@AAJABU_GUID@@PAPAX@Z 1002e80c f i pimstorelib:polapp.obj
 0001:0002d814       ?QueryInterface@CPOutlookApp@@WBI@AAJABU_GUID@@PAPAX@Z 1002e814 f i pimstorelib:polapp.obj
 0001:0002d81c       ?get_Application@CPOutlookApp@@W7AAJPAPAUIPOutlookApp@@@Z 1002e81c f i pimstorelib:polapp.obj
 0001:0002d824       ?QueryInterface@CPOutlookApp@@WBM@AAJABU_GUID@@PAPAX@Z 1002e824 f i pimstorelib:polapp.obj
 0001:0002d82c       ?QueryInterface@CPOutlookApp@@WCA@AAJABU_GUID@@PAPAX@Z 1002e82c f i pimstorelib:polapp.obj
 0001:0002d834       ?GetTypeInfoCount@CPOutlookApp@@UAAJPAI@Z 1002e834 f i pimstorelib:polapp.obj
 0001:0002d83c       ?GetTypeInfo@CPOutlookApp@@UAAJIKPAPAUITypeInfo@@@Z 1002e83c f i pimstorelib:polapp.obj
 0001:0002d844       ?GetIDsOfNames@CPOutlookApp@@UAAJABU_GUID@@PAPAGIKPAJ@Z 1002e844 f i pimstorelib:polapp.obj
 0001:0002d86c       ?Invoke@CPOutlookApp@@UAAJJABU_GUID@@KGPAUtagDISPPARAMS@@PAUtagVARIANT@@PAUtagEXCEPINFO@@PAI@Z 1002e86c f i pimstorelib:polapp.obj
 0001:0002d8b4       ?get_Stores@CPOutlookApp@@UAAJPAPAUIPOutlookStoreCollection@@@Z 1002e8b4 f i pimstorelib:polapp.obj
 0001:0002d8f4       ?get_Version@CPOutlookApp@@UAAJPAPAG@Z 1002e8f4 f i pimstorelib:polapp.obj
 0001:0002d8f8       ?get_OutlookCompatible@CPOutlookApp@@UAAJPAF@Z 1002e8f8 f i pimstorelib:polapp.obj
 0001:0002d8fc       ?Invoke@CPOutlookApp@@WBI@AAJJABU_GUID@@KGPAUtagDISPPARAMS@@PAUtagVARIANT@@PAUtagEXCEPINFO@@PAI@Z 1002e8fc f i pimstorelib:polapp.obj
 0001:0002d904       ?GetTypeInfo@CPOutlookApp@@WBI@AAJIKPAPAUITypeInfo@@@Z 1002e904 f i pimstorelib:polapp.obj
 0001:0002d90c       ?GetTypeInfoCount@CPOutlookApp@@W7AAJPAI@Z 1002e90c f i pimstorelib:polapp.obj
 0001:0002d914       ?GetIDsOfNames@CPOutlookApp@@WBI@AAJABU_GUID@@PAPAGIKPAJ@Z 1002e914 f i pimstorelib:polapp.obj
 0001:0002d91c       ?GetTypeInfo@CPOutlookApp@@W7AAJIKPAPAUITypeInfo@@@Z 1002e91c f i pimstorelib:polapp.obj
 0001:0002d924       ?GetTypeInfoCount@CPOutlookApp@@WBI@AAJPAI@Z 1002e924 f i pimstorelib:polapp.obj
 0001:0002d92c       ?GetIDsOfNames@CPOutlookApp@@W7AAJABU_GUID@@PAPAGIKPAJ@Z 1002e92c f i pimstorelib:polapp.obj
 0001:0002d934       ?GetCategoryDBManager@CPOutlookApp@@UAAJPAPAUICategoryDBManager@@@Z 1002e934 f i pimstorelib:polapp.obj
 0001:0002d9d0       ?get_DefaultStore@CPOutlookApp@@UAAJPAPAUIStore@@@Z 1002e9d0 f i pimstorelib:polapp.obj
 0001:0002da10       ?GetStoreFromId@CPOutlookApp@@UAAJPAUOLITEMID@@PAPAUIStore@@@Z 1002ea10 f i pimstorelib:polapp.obj
 0001:0002da58       ?get_DefaultStoreId@CPOutlookApp@@UAAJPAUOLITEMID@@@Z 1002ea58 f i pimstorelib:polapp.obj
 0001:0002da98       ?GetItemFromItemId@CPOutlookApp@@UAAJPAUOLITEMID@@PAPAUIItem2@@@Z 1002ea98 f i pimstorelib:polapp.obj
 0001:0002dae0       ?CreateStore@CPOutlookApp@@UAAJPAGKPAPAUIStore@@@Z 1002eae0 f i pimstorelib:polapp.obj
 0001:0002db30       ?Advise@CPOutlookApp@@UAAJW4OlObjectType@@KKPAUIChangeEventSink@@PAK@Z 1002eb30 f i pimstorelib:polapp.obj
 0001:0002db58       ?Unadvise@CPOutlookApp@@UAAJK@Z 1002eb58 f i pimstorelib:polapp.obj
 0001:0002db60       ?AdviseCustomEvent@CPOutlookApp@@UAAJPBU_GUID@@KPAUICustomEventSink@@PAK@Z 1002eb60 f i pimstorelib:polapp.obj
 0001:0002db80       ?FlushEvents@CPOutlookApp@@UAAJXZ 1002eb80 f i pimstorelib:polapp.obj
 0001:0002db88       ?Logon@CPOutlookApp@@UAAJJ@Z 1002eb88 f i pimstorelib:polapp.obj
 0001:0002dbc8       ?GetItemFromOid@CPOutlookApp@@UAAJJPAPAUIDispatch@@@Z 1002ebc8 f i pimstorelib:polapp.obj
 0001:0002dbcc       ?GetItemFromOidEx@CPOutlookApp@@UAAJKKPAPAUIItem@@@Z 1002ebcc f i pimstorelib:polapp.obj
 0001:0002dbd0       ?GetUSStoreManager@CPOutlookApp@@UAAJPAPAUIUSStoreManager@@@Z 1002ebd0 f i pimstorelib:polapp.obj
 0001:0002dc30       ?GetIDsFromNames@CPOutlookApp@@UAAJKPBQBGKPAK@Z 1002ec30 f i pimstorelib:polapp.obj
 0001:0002dc90       ?Logon@CPOutlookApp@@WBI@AAJJ@Z 1002ec90 f i pimstorelib:polapp.obj
 0001:0002dc98       ?Release@CPOutlookApp@@WBI@AAKXZ 1002ec98 f i pimstorelib:polapp.obj
 0001:0002dca0       ?Release@CPOutlookApp@@WBM@AAKXZ 1002eca0 f i pimstorelib:polapp.obj
 0001:0002dca8       ?Release@CPOutlookApp@@WCA@AAKXZ 1002eca8 f i pimstorelib:polapp.obj
 0001:0002dcb0       ?AddRef@CPOutlookApp@@WBI@AAKXZ 1002ecb0 f i pimstorelib:polapp.obj
 0001:0002dcb8       ?Release@CPOutlookApp@@WCE@AAKXZ 1002ecb8 f i pimstorelib:polapp.obj
 0001:0002dcc0       ?AddRef@CPOutlookApp@@WBM@AAKXZ 1002ecc0 f i pimstorelib:polapp.obj
 0001:0002dcc8       ?AddRef@CPOutlookApp@@WCA@AAKXZ 1002ecc8 f i pimstorelib:polapp.obj
 0001:0002dcd0       ?AddRef@CPOutlookApp@@WCE@AAKXZ 1002ecd0 f i pimstorelib:polapp.obj
 0001:0002dcd8       ?GetIDsFromNames@CPOutlookApp@@WBI@AAJKPBQBGKPAK@Z 1002ecd8 f i pimstorelib:polapp.obj
 0001:0002dce0       ?SendCustomEvent@CPOutlookApp@@UAAJPBUPIMCUSTOMEVENT@@@Z 1002ece0 f i pimstorelib:polapp.obj
 0001:0002dce8       ?Logoff@CPOutlookApp@@UAAJXZ 1002ece8 f i pimstorelib:polapp.obj
 0001:0002dd2c       ?GetDefaultFolder@CPOutlookApp@@UAAJHPAPAUIFolder@@@Z 1002ed2c f i pimstorelib:polapp.obj
 0001:0002dd30       ?CreateItem@CPOutlookApp@@UAAJHPAPAUIDispatch@@@Z 1002ed30 f i pimstorelib:polapp.obj
 0001:0002dd78       ?_GetProps@CPOutlookApp@@AAAJUUSOID@@PBKKGPAPAU_CEPROPVAL@@PAKPAXPAVCPropertyHandler@@@Z 1002ed78 f   pimstorelib:polapp.obj
 0001:0002e1c8       ??0?$CDispatchImpl@UIPOutlookApp2@@@@QAA@PAVCPOutlookApp@@@Z 1002f1c8 f i pimstorelib:polapp.obj
 0001:0002e220       ??_E?$CDispatchImpl@UIPOutlookApp2@@@@W7AAPAXI@Z 1002f220 f i pimstorelib:polapp.obj
 0001:0002e228       ?get_Application@?$CDispatchImpl@UIPOutlookApp2@@@@UAAJPAPAUIPOutlookApp@@@Z 1002f228 f i pimstorelib:polapp.obj
 0001:0002e230       ??_E?$CDispatchImpl@UIPOutlookApp2@@@@UAAPAXI@Z 1002f230 f i pimstorelib:polapp.obj
 0001:0002e230       ??_G?$CDispatchImpl@UIPOutlookApp2@@@@UAAPAXI@Z 1002f230 f i pimstorelib:polapp.obj
 0001:0002e270       ?GetTypeInfo@?$CDispatchImpl@UIPOutlookApp2@@@@W7AAJIKPAPAUITypeInfo@@@Z 1002f270 f i pimstorelib:polapp.obj
 0001:0002e278       ?get_Application@?$CDispatchImpl@UIPOutlookApp2@@@@W7AAJPAPAUIPOutlookApp@@@Z 1002f278 f i pimstorelib:polapp.obj
 0001:0002e280       ?GetIDsOfNames@?$CDispatchImpl@UIPOutlookApp2@@@@W7AAJABU_GUID@@PAPAGIKPAJ@Z 1002f280 f i pimstorelib:polapp.obj
 0001:0002e288       ?GetTypeInfoCount@?$CDispatchImpl@UIPOutlookApp2@@@@W7AAJPAI@Z 1002f288 f i pimstorelib:polapp.obj
 0001:0002e290       ?Logoff@CPOutlookApp@@WBI@AAJXZ 1002f290 f i pimstorelib:polapp.obj
 0001:0002e298       ?GetProps@CPOutlookApp@@UAAJUUSOID@@PBKKGPAPAU_CEPROPVAL@@PAKPAXPAVCPropertyHandler@@@Z 1002f298 f i pimstorelib:polapp.obj
 0001:0002e324       ??0CPOutlookApp@@QAA@XZ    1002f324 f   pimstorelib:polapp.obj
 0001:0002e400       ??_GCPOutlookApp@@UAAPAXI@Z 1002f400 f i pimstorelib:polapp.obj
 0001:0002e400       ??_ECPOutlookApp@@UAAPAXI@Z 1002f400 f i pimstorelib:polapp.obj
 0001:0002e424       ?GetProviderClsIdForStore@CPimConfigurationManager@@IAAJPAUIStore@@AAU_GUID@@@Z 1002f424 f   pimstorelib:PoomExtensibilityInterfaces.obj
 0001:0002e58c       ?SetProviderClsIdForStore@CPimConfigurationManager@@IAAJPAUIStore@@ABU_GUID@@@Z 1002f58c f   pimstorelib:PoomExtensibilityInterfaces.obj
 0001:0002e674       ?GetStoreFromItemId@CPimConfigurationManager@@IAAJABUOLITEMID@@PAPAUIStore@@@Z 1002f674 f   pimstorelib:PoomExtensibilityInterfaces.obj
 0001:0002e6ec       ?GetDefaultStoreId@CPimConfigurationManager@@IAAJXZ 1002f6ec f   pimstorelib:PoomExtensibilityInterfaces.obj
 0001:0002e740       ?IsItemInDefaultStore@CPimConfigurationManager@@IAAJABUOLITEMID@@AAH@Z 1002f740 f   pimstorelib:PoomExtensibilityInterfaces.obj
 0001:0002e784       ?GetStoreFromId@CPimConfigurationManager@@IAAJABUOLITEMID@@PAPAUIStore@@@Z 1002f784 f   pimstorelib:PoomExtensibilityInterfaces.obj
 0001:0002e7fc       ?Initialize@CPimConfigurationManager@@IAAJXZ 1002f7fc f   pimstorelib:PoomExtensibilityInterfaces.obj
 0001:0002e838       ?ManageNotification@CPimConfigurationManager@@UAAJKK@Z 1002f838 f   pimstorelib:PoomExtensibilityInterfaces.obj
 0001:0002e988       ?RegisterProvider@CPimConfigurationManager@@UAAJPAU_GUID@@PAUOLITEMID@@@Z 1002f988 f   pimstorelib:PoomExtensibilityInterfaces.obj
 0001:0002eb5c       ?UnregisterProvider@CPimConfigurationManager@@UAAJPAU_GUID@@PAUOLITEMID@@@Z 1002fb5c f   pimstorelib:PoomExtensibilityInterfaces.obj
 0001:0002ec60       ?GetProvider@CPimConfigurationManager@@UAAJABUOLITEMID@@ABU_GUID@@PAPAX@Z 1002fc60 f   pimstorelib:PoomExtensibilityInterfaces.obj
 0001:0002ee00       ?CreateItemCollection@@YAJPAVCPOutlookApp@@PAUIUSFolder@@W4OlDefaultFolders@@HPAUIRestriction@@KPAPAGPAFHPAPAUICollection@@@Z 1002fe00 f   pimstorelib:CollectionsHelper.obj
 0001:0002eed4       ?CreateFolderCollection@@YAJPAVCPOutlookApp@@PAUIUSFolder@@PAUIRestriction@@KPAPAGPAFPAPAUICollection@@@Z 1002fed4 f   pimstorelib:CollectionsHelper.obj
 0001:0002ef34       ?CreateStoreCollection@@YAJPAVCPOutlookApp@@PAUIRestriction@@KPAPAGPAFPAPAUICollection@@@Z 1002ff34 f   pimstorelib:CollectionsHelper.obj
 0001:0002ef58       ?CreateRecipientCollection@@YAJPAVCPOutlookApp@@W4OlItemType@@PAUIUSStore@@PAUIRestriction@@KPAPAGPAFPAPAUICollection@@@Z 1002ff58 f   pimstorelib:CollectionsHelper.obj
 0001:0002efc8       ?CopySortIds@@YAJKPAKPAPAK@Z 1002ffc8 f   pimstorelib:CollectionsHelper.obj
 0001:0002f024       ?CopyDescendingVals@@YAJKPAFPAPAF@Z 10030024 f   pimstorelib:CollectionsHelper.obj
 0001:0002f080       ?FreeSortNames@@YAXKPAPAG@Z 10030080 f   pimstorelib:CollectionsHelper.obj
 0001:0002f0c0       ?GetItemCollectionFromUSStore@@YAJPAUIUSFolder@@KPAUUS_SORTSPEC@@PAU_USRestriction@@HW4OlItemType@@PAPAUIUSObjectCollection@@@Z 100300c0 f   pimstorelib:CollectionsHelper.obj
 0001:0002f15c       ?GetFolderCollectionFromUSStore@@YAJPAUIUSFolder@@KPAUUS_SORTSPEC@@PAU_USRestriction@@PAPAUIUSObjectCollection@@@Z 1003015c f   pimstorelib:CollectionsHelper.obj
 0001:0002f194       ?GetRecipientCollectionFromUSStore@@YAJPAUIUSStore@@W4OlItemType@@KPAUUS_SORTSPEC@@PAU_USRestriction@@PAPAUIUSObjectCollection@@@Z 10030194 f   pimstorelib:CollectionsHelper.obj
 0001:0002f1fc       ?GetPropIDFromPropName@@YAJPAVCPOutlookApp@@PAGKPAK@Z 100301fc f   pimstorelib:CollectionsHelper.obj
 0001:0002f250       ?GetArrayOfPropIDsFromArrayOfNames@@YAJPAVCPOutlookApp@@KPAPAGKPAPAK@Z 10030250 f   pimstorelib:CollectionsHelper.obj
 0001:0002f2e4       ?CopySortsToUS_SORTSPEC@@YAJPAVCPOutlookApp@@KPAKPAFPAPAUUS_SORTSPEC@@@Z 100302e4 f   pimstorelib:CollectionsHelper.obj
 0001:0002f400       ?GetStoreCollectionFromUSStore@@YAJPAVCPOutlookApp@@KPAUUS_SORTSPEC@@PAU_USRestriction@@PAPAUIUSObjectCollection@@@Z 10030400 f   pimstorelib:CollectionsHelper.obj
 0001:0002f48c       ?CopySortNames@@YAJKPAPAGPAPAPAGH@Z 1003048c f   pimstorelib:CollectionsHelper.obj
 0001:0002f630       ??1CSimContact@@MAA@XZ     10030630 f   pimstorelib:SimContacts.obj
 0001:0002f698       ?GetSimSaveMutex@@YAPAXXZ  10030698 f   pimstorelib:SimContacts.obj
 0001:0002f6e4       ??_ECSimContact@@O7AAPAXI@Z 100306e4 f i pimstorelib:SimContacts.obj
 0001:0002f6ec       ??0CSimContact@@QAA@PAVCPOutlookApp@@H@Z 100306ec f   pimstorelib:SimContacts.obj
 0001:0002f76c       ??_GCSimContact@@MAAPAXI@Z 1003076c f i pimstorelib:SimContacts.obj
 0001:0002f76c       ??_ECSimContact@@MAAPAXI@Z 1003076c f i pimstorelib:SimContacts.obj
 0001:0002f790       ?DbDelete@CSimContact@@QAAJXZ 10030790 f   pimstorelib:SimContacts.obj
 0001:0002f794       ?SimDelete@CSimContact@@QAAJXZ 10030794 f   pimstorelib:SimContacts.obj
 0001:0002f894       ?DbSave@CSimContact@@QAAJXZ 10030894 f   pimstorelib:SimContacts.obj
 0001:0002f898       ?CheckItemType@CSimContact@@AAAXXZ 10030898 f   pimstorelib:SimContacts.obj
 0001:0002f8cc       ?SimNotifyProc@@YAXKPBXKK@Z 100308cc f   pimstorelib:SimContacts.obj
 0001:0002f954       ?Copy@CSimContact@@UAAJPAPAUIContact2@@@Z 10030954 f i pimstorelib:SimContacts.obj
 0001:0002f9c8       ?get_ItemType@CSimContact@@UAAJPAW4OlItemType@@@Z 100309c8 f i pimstorelib:SimContacts.obj
 0001:0002fa28       ?CacheTypeSpecificProp@CSimContact@@UAAJPAU_CEPROPVAL@@@Z 10030a28 f i pimstorelib:SimContacts.obj
 0001:0002fa88       ?get_Birthday@CSimContact@@UAAJPAN@Z 10030a88 f i pimstorelib:SimContacts.obj
 0001:0002fad0       ?get_Anniversary@CSimContact@@UAAJPAN@Z 10030ad0 f i pimstorelib:SimContacts.obj
 0001:0002fb18       ?get_CompanyName@CSimContact@@UAAJPAPAG@Z 10030b18 f i pimstorelib:SimContacts.obj
 0001:0002fb60       ?get_Department@CSimContact@@UAAJPAPAG@Z 10030b60 f i pimstorelib:SimContacts.obj
 0001:0002fba8       ?get_OfficeLocation@CSimContact@@UAAJPAPAG@Z 10030ba8 f i pimstorelib:SimContacts.obj
 0001:0002fbf0       ?get_JobTitle@CSimContact@@UAAJPAPAG@Z 10030bf0 f i pimstorelib:SimContacts.obj
 0001:0002fc38       ?get_Spouse@CSimContact@@UAAJPAPAG@Z 10030c38 f i pimstorelib:SimContacts.obj
 0001:0002fc80       ?get_AssistantName@CSimContact@@UAAJPAPAG@Z 10030c80 f i pimstorelib:SimContacts.obj
 0001:0002fcc8       ?get_Children@CSimContact@@UAAJPAPAG@Z 10030cc8 f i pimstorelib:SimContacts.obj
 0001:0002fd10       ?get_WebPage@CSimContact@@UAAJPAPAG@Z 10030d10 f i pimstorelib:SimContacts.obj
 0001:0002fd58       ?get_Title@CSimContact@@UAAJPAPAG@Z 10030d58 f i pimstorelib:SimContacts.obj
 0001:0002fda0       ?get_MiddleName@CSimContact@@UAAJPAPAG@Z 10030da0 f i pimstorelib:SimContacts.obj
 0001:0002fde8       ?get_LastName@CSimContact@@UAAJPAPAG@Z 10030de8 f i pimstorelib:SimContacts.obj
 0001:0002fe30       ?get_Suffix@CSimContact@@UAAJPAPAG@Z 10030e30 f i pimstorelib:SimContacts.obj
 0001:0002fe78       ?get_HomeAddressStreet@CSimContact@@UAAJPAPAG@Z 10030e78 f i pimstorelib:SimContacts.obj
 0001:0002fec0       ?get_HomeAddressCity@CSimContact@@UAAJPAPAG@Z 10030ec0 f i pimstorelib:SimContacts.obj
 0001:0002ff08       ?get_HomeAddressState@CSimContact@@UAAJPAPAG@Z 10030f08 f i pimstorelib:SimContacts.obj
 0001:0002ff50       ?get_HomeAddressPostalCode@CSimContact@@UAAJPAPAG@Z 10030f50 f i pimstorelib:SimContacts.obj
 0001:0002ff98       ?get_HomeAddressCountry@CSimContact@@UAAJPAPAG@Z 10030f98 f i pimstorelib:SimContacts.obj
 0001:0002ffe0       ?get_OtherAddressStreet@CSimContact@@UAAJPAPAG@Z 10030fe0 f i pimstorelib:SimContacts.obj
 0001:00030028       ?get_OtherAddressCity@CSimContact@@UAAJPAPAG@Z 10031028 f i pimstorelib:SimContacts.obj
 0001:00030070       ?get_OtherAddressState@CSimContact@@UAAJPAPAG@Z 10031070 f i pimstorelib:SimContacts.obj
 0001:000300b8       ?get_OtherAddressPostalCode@CSimContact@@UAAJPAPAG@Z 100310b8 f i pimstorelib:SimContacts.obj
 0001:00030100       ?get_OtherAddressCountry@CSimContact@@UAAJPAPAG@Z 10031100 f i pimstorelib:SimContacts.obj
 0001:00030148       ?get_BusinessAddressStreet@CSimContact@@UAAJPAPAG@Z 10031148 f i pimstorelib:SimContacts.obj
 0001:00030190       ?get_BusinessAddressCity@CSimContact@@UAAJPAPAG@Z 10031190 f i pimstorelib:SimContacts.obj
 0001:000301d8       ?get_BusinessAddressState@CSimContact@@UAAJPAPAG@Z 100311d8 f i pimstorelib:SimContacts.obj
 0001:00030220       ?get_BusinessAddressPostalCode@CSimContact@@UAAJPAPAG@Z 10031220 f i pimstorelib:SimContacts.obj
 0001:00030268       ?get_BusinessAddressCountry@CSimContact@@UAAJPAPAG@Z 10031268 f i pimstorelib:SimContacts.obj
 0001:000302b0       ?get_BodyInk@CSimContact@@UAAJPAU_CEBLOB@@@Z 100312b0 f i pimstorelib:SimContacts.obj
 0001:000302f8       ?get_Body@CSimContact@@UAAJPAPAG@Z 100312f8 f i pimstorelib:SimContacts.obj
 0001:00030340       ?get_YomiCompanyName@CSimContact@@UAAJPAPAG@Z 10031340 f i pimstorelib:SimContacts.obj
 0001:00030388       ?get_YomiFirstName@CSimContact@@UAAJPAPAG@Z 10031388 f i pimstorelib:SimContacts.obj
 0001:000303d0       ?get_YomiLastName@CSimContact@@UAAJPAPAG@Z 100313d0 f i pimstorelib:SimContacts.obj
 0001:00030418       ?put_Birthday@CSimContact@@UAAJN@Z 10031418 f i pimstorelib:SimContacts.obj
 0001:00030468       ?put_Anniversary@CSimContact@@UAAJN@Z 10031468 f i pimstorelib:SimContacts.obj
 0001:000304b8       ?put_CompanyName@CSimContact@@UAAJPAG@Z 100314b8 f i pimstorelib:SimContacts.obj
 0001:00030500       ?put_Department@CSimContact@@UAAJPAG@Z 10031500 f i pimstorelib:SimContacts.obj
 0001:00030548       ?put_OfficeLocation@CSimContact@@UAAJPAG@Z 10031548 f i pimstorelib:SimContacts.obj
 0001:00030590       ?put_JobTitle@CSimContact@@UAAJPAG@Z 10031590 f i pimstorelib:SimContacts.obj
 0001:000305d8       ?put_Spouse@CSimContact@@UAAJPAG@Z 100315d8 f i pimstorelib:SimContacts.obj
 0001:00030620       ?put_AssistantName@CSimContact@@UAAJPAG@Z 10031620 f i pimstorelib:SimContacts.obj
 0001:00030668       ?put_Children@CSimContact@@UAAJPAG@Z 10031668 f i pimstorelib:SimContacts.obj
 0001:000306b0       ?put_WebPage@CSimContact@@UAAJPAG@Z 100316b0 f i pimstorelib:SimContacts.obj
 0001:000306f8       ?put_Title@CSimContact@@UAAJPAG@Z 100316f8 f i pimstorelib:SimContacts.obj
 0001:00030740       ?put_MiddleName@CSimContact@@UAAJPAG@Z 10031740 f i pimstorelib:SimContacts.obj
 0001:00030788       ?put_LastName@CSimContact@@UAAJPAG@Z 10031788 f i pimstorelib:SimContacts.obj
 0001:000307d0       ?put_Suffix@CSimContact@@UAAJPAG@Z 100317d0 f i pimstorelib:SimContacts.obj
 0001:00030818       ?put_HomeAddressStreet@CSimContact@@UAAJPAG@Z 10031818 f i pimstorelib:SimContacts.obj
 0001:00030860       ?put_HomeAddressCity@CSimContact@@UAAJPAG@Z 10031860 f i pimstorelib:SimContacts.obj
 0001:000308a8       ?put_HomeAddressState@CSimContact@@UAAJPAG@Z 100318a8 f i pimstorelib:SimContacts.obj
 0001:000308f0       ?put_HomeAddressPostalCode@CSimContact@@UAAJPAG@Z 100318f0 f i pimstorelib:SimContacts.obj
 0001:00030938       ?put_HomeAddressCountry@CSimContact@@UAAJPAG@Z 10031938 f i pimstorelib:SimContacts.obj
 0001:00030980       ?put_OtherAddressStreet@CSimContact@@UAAJPAG@Z 10031980 f i pimstorelib:SimContacts.obj
 0001:000309c8       ?put_OtherAddressCity@CSimContact@@UAAJPAG@Z 100319c8 f i pimstorelib:SimContacts.obj
 0001:00030a10       ?put_OtherAddressState@CSimContact@@UAAJPAG@Z 10031a10 f i pimstorelib:SimContacts.obj
 0001:00030a58       ?put_OtherAddressPostalCode@CSimContact@@UAAJPAG@Z 10031a58 f i pimstorelib:SimContacts.obj
 0001:00030aa0       ?put_OtherAddressCountry@CSimContact@@UAAJPAG@Z 10031aa0 f i pimstorelib:SimContacts.obj
 0001:00030ae8       ?put_BusinessAddressStreet@CSimContact@@UAAJPAG@Z 10031ae8 f i pimstorelib:SimContacts.obj
 0001:00030b30       ?put_BusinessAddressCity@CSimContact@@UAAJPAG@Z 10031b30 f i pimstorelib:SimContacts.obj
 0001:00030b78       ?put_BusinessAddressState@CSimContact@@UAAJPAG@Z 10031b78 f i pimstorelib:SimContacts.obj
 0001:00030bc0       ?put_BusinessAddressPostalCode@CSimContact@@UAAJPAG@Z 10031bc0 f i pimstorelib:SimContacts.obj
 0001:00030c08       ?put_BusinessAddressCountry@CSimContact@@UAAJPAG@Z 10031c08 f i pimstorelib:SimContacts.obj
 0001:00030c50       ?put_BodyInk@CSimContact@@UAAJPAU_CEBLOB@@@Z 10031c50 f i pimstorelib:SimContacts.obj
 0001:00030c98       ?put_Body@CSimContact@@UAAJPAG@Z 10031c98 f i pimstorelib:SimContacts.obj
 0001:00030ce0       ?put_YomiCompanyName@CSimContact@@UAAJPAG@Z 10031ce0 f i pimstorelib:SimContacts.obj
 0001:00030d28       ?put_YomiFirstName@CSimContact@@UAAJPAG@Z 10031d28 f i pimstorelib:SimContacts.obj
 0001:00030d70       ?put_YomiLastName@CSimContact@@UAAJPAG@Z 10031d70 f i pimstorelib:SimContacts.obj
 0001:00030db8       ?put_BusinessFaxNumber@CSimContact@@UAAJPAG@Z 10031db8 f i pimstorelib:SimContacts.obj
 0001:00030de4       ?put_Email1Address@CSimContact@@UAAJPAG@Z 10031de4 f i pimstorelib:SimContacts.obj
 0001:00030e10       ?put_MobileTelephoneNumber@CSimContact@@UAAJPAG@Z 10031e10 f i pimstorelib:SimContacts.obj
 0001:00030e3c       ?put_PagerNumber@CSimContact@@UAAJPAG@Z 10031e3c f i pimstorelib:SimContacts.obj
 0001:00030e68       ?put_BusinessTelephoneNumber@CSimContact@@UAAJPAG@Z 10031e68 f i pimstorelib:SimContacts.obj
 0001:00030e94       ?put_HomeTelephoneNumber@CSimContact@@UAAJPAG@Z 10031e94 f i pimstorelib:SimContacts.obj
 0001:00030ec0       ?put_Email2Address@CSimContact@@UAAJPAG@Z 10031ec0 f i pimstorelib:SimContacts.obj
 0001:00030eec       ?put_Email3Address@CSimContact@@UAAJPAG@Z 10031eec f i pimstorelib:SimContacts.obj
 0001:00030f18       ?put_Home2TelephoneNumber@CSimContact@@UAAJPAG@Z 10031f18 f i pimstorelib:SimContacts.obj
 0001:00030f44       ?put_HomeFaxNumber@CSimContact@@UAAJPAG@Z 10031f44 f i pimstorelib:SimContacts.obj
 0001:00030f70       ?put_CarTelephoneNumber@CSimContact@@UAAJPAG@Z 10031f70 f i pimstorelib:SimContacts.obj
 0001:00030f9c       ?put_AssistantTelephoneNumber@CSimContact@@UAAJPAG@Z 10031f9c f i pimstorelib:SimContacts.obj
 0001:00030fc8       ?put_Business2TelephoneNumber@CSimContact@@UAAJPAG@Z 10031fc8 f i pimstorelib:SimContacts.obj
 0001:00030ff4       ?put_FirstName@CSimContact@@UAAJPAG@Z 10031ff4 f i pimstorelib:SimContacts.obj
 0001:00031020       ?put_RadioTelephoneNumber@CSimContact@@UAAJPAG@Z 10032020 f i pimstorelib:SimContacts.obj
 0001:0003104c       ?put_FileAs@CSimContact@@UAAJPAG@Z 1003204c f i pimstorelib:SimContacts.obj
 0001:00031078       ?_Delete@CSimContact@@AAAJXZ 10032078 f   pimstorelib:SimContacts.obj
 0001:000310c4       ?SimSave@CSimContact@@QAAJXZ 100320c4 f   pimstorelib:SimContacts.obj
 0001:00031334       ?put_BusinessAddressState@CSimContact@@W3AAJPAG@Z 10032334 f i pimstorelib:SimContacts.obj
 0001:0003133c       ?put_MobileTelephoneNumber@CSimContact@@W3AAJPAG@Z 1003233c f i pimstorelib:SimContacts.obj
 0001:00031344       ?put_HomeAddressPostalCode@CSimContact@@W3AAJPAG@Z 10032344 f i pimstorelib:SimContacts.obj
 0001:0003134c       ?put_Email1Address@CSimContact@@W3AAJPAG@Z 1003234c f i pimstorelib:SimContacts.obj
 0001:00031354       ?get_OtherAddressState@CSimContact@@W3AAJPAPAG@Z 10032354 f i pimstorelib:SimContacts.obj
 0001:0003135c       ?get_AssistantName@CSimContact@@W3AAJPAPAG@Z 1003235c f i pimstorelib:SimContacts.obj
 0001:00031364       ?get_BusinessAddressPostalCode@CSimContact@@W3AAJPAPAG@Z 10032364 f i pimstorelib:SimContacts.obj
 0001:0003136c       ?get_BusinessAddressState@CSimContact@@W3AAJPAPAG@Z 1003236c f i pimstorelib:SimContacts.obj
 0001:00031374       ?get_OtherAddressCountry@CSimContact@@W3AAJPAPAG@Z 10032374 f i pimstorelib:SimContacts.obj
 0001:0003137c       ?get_Department@CSimContact@@W3AAJPAPAG@Z 1003237c f i pimstorelib:SimContacts.obj
 0001:00031384       ?put_Title@CSimContact@@W3AAJPAG@Z 10032384 f i pimstorelib:SimContacts.obj
 0001:0003138c       ?Copy@CSimContact@@WGM@AAJPAPAUIContact2@@@Z 1003238c f i pimstorelib:SimContacts.obj
 0001:00031394       ?put_OtherAddressPostalCode@CSimContact@@W3AAJPAG@Z 10032394 f i pimstorelib:SimContacts.obj
 0001:0003139c       ?put_LastName@CSimContact@@W3AAJPAG@Z 1003239c f i pimstorelib:SimContacts.obj
 0001:000313a4       ?put_Spouse@CSimContact@@W3AAJPAG@Z 100323a4 f i pimstorelib:SimContacts.obj
 0001:000313ac       ?get_HomeAddressState@CSimContact@@W3AAJPAPAG@Z 100323ac f i pimstorelib:SimContacts.obj
 0001:000313b4       ?get_Suffix@CSimContact@@W3AAJPAPAG@Z 100323b4 f i pimstorelib:SimContacts.obj
 0001:000313bc       ?get_ItemType@CSimContact@@WBM@AAJPAW4OlItemType@@@Z 100323bc f i pimstorelib:SimContacts.obj
 0001:000313c4       ?put_Business2TelephoneNumber@CSimContact@@W3AAJPAG@Z 100323c4 f i pimstorelib:SimContacts.obj
 0001:000313cc       ?put_Email2Address@CSimContact@@W3AAJPAG@Z 100323cc f i pimstorelib:SimContacts.obj
 0001:000313d4       ?get_BusinessAddressCountry@CSimContact@@W3AAJPAPAG@Z 100323d4 f i pimstorelib:SimContacts.obj
 0001:000313dc       ?get_HomeAddressPostalCode@CSimContact@@W3AAJPAPAG@Z 100323dc f i pimstorelib:SimContacts.obj
 0001:000313e4       ?get_WebPage@CSimContact@@W3AAJPAPAG@Z 100323e4 f i pimstorelib:SimContacts.obj
 0001:000313ec       ?put_AssistantTelephoneNumber@CSimContact@@W3AAJPAG@Z 100323ec f i pimstorelib:SimContacts.obj
 0001:000313f4       ?get_YomiLastName@CSimContact@@W3AAJPAPAG@Z 100323f4 f i pimstorelib:SimContacts.obj
 0001:000313fc       ?put_Suffix@CSimContact@@W3AAJPAG@Z 100323fc f i pimstorelib:SimContacts.obj
 0001:00031404       ?put_BusinessFaxNumber@CSimContact@@W3AAJPAG@Z 10032404 f i pimstorelib:SimContacts.obj
 0001:0003140c       ?put_HomeTelephoneNumber@CSimContact@@W3AAJPAG@Z 1003240c f i pimstorelib:SimContacts.obj
 0001:00031414       ?put_Department@CSimContact@@W3AAJPAG@Z 10032414 f i pimstorelib:SimContacts.obj
 0001:0003141c       ?put_Body@CSimContact@@W3AAJPAG@Z 1003241c f i pimstorelib:SimContacts.obj
 0001:00031424       ?put_FirstName@CSimContact@@W3AAJPAG@Z 10032424 f i pimstorelib:SimContacts.obj
 0001:0003142c       ?get_BodyInk@CSimContact@@W3AAJPAU_CEBLOB@@@Z 1003242c f i pimstorelib:SimContacts.obj
 0001:00031434       ?put_RadioTelephoneNumber@CSimContact@@W3AAJPAG@Z 10032434 f i pimstorelib:SimContacts.obj
 0001:0003143c       ?put_MiddleName@CSimContact@@W3AAJPAG@Z 1003243c f i pimstorelib:SimContacts.obj
 0001:00031444       ?put_JobTitle@CSimContact@@W3AAJPAG@Z 10032444 f i pimstorelib:SimContacts.obj
 0001:0003144c       ?get_HomeAddressCity@CSimContact@@W3AAJPAPAG@Z 1003244c f i pimstorelib:SimContacts.obj
 0001:00031454       ?get_Title@CSimContact@@W3AAJPAPAG@Z 10032454 f i pimstorelib:SimContacts.obj
 0001:0003145c       ?get_CompanyName@CSimContact@@W3AAJPAPAG@Z 1003245c f i pimstorelib:SimContacts.obj
 0001:00031464       ?get_Birthday@CSimContact@@W3AAJPAN@Z 10032464 f i pimstorelib:SimContacts.obj
 0001:0003146c       ?put_BusinessAddressStreet@CSimContact@@W3AAJPAG@Z 1003246c f i pimstorelib:SimContacts.obj
 0001:00031474       ?put_HomeFaxNumber@CSimContact@@W3AAJPAG@Z 10032474 f i pimstorelib:SimContacts.obj
 0001:0003147c       ?put_Birthday@CSimContact@@W3AAJN@Z 1003247c f i pimstorelib:SimContacts.obj
 0001:00031484       ?put_OtherAddressState@CSimContact@@W3AAJPAG@Z 10032484 f i pimstorelib:SimContacts.obj
 0001:0003148c       ?get_OtherAddressPostalCode@CSimContact@@W3AAJPAPAG@Z 1003248c f i pimstorelib:SimContacts.obj
 0001:00031494       ?put_BodyInk@CSimContact@@W3AAJPAU_CEBLOB@@@Z 10032494 f i pimstorelib:SimContacts.obj
 0001:0003149c       ?put_FileAs@CSimContact@@W3AAJPAG@Z 1003249c f i pimstorelib:SimContacts.obj
 0001:000314a4       ?get_BusinessAddressCity@CSimContact@@W3AAJPAPAG@Z 100324a4 f i pimstorelib:SimContacts.obj
 0001:000314ac       ?put_BusinessAddressPostalCode@CSimContact@@W3AAJPAG@Z 100324ac f i pimstorelib:SimContacts.obj
 0001:000314b4       ?get_BusinessAddressStreet@CSimContact@@W3AAJPAPAG@Z 100324b4 f i pimstorelib:SimContacts.obj
 0001:000314bc       ?get_MiddleName@CSimContact@@W3AAJPAPAG@Z 100324bc f i pimstorelib:SimContacts.obj
 0001:000314c4       ?put_OtherAddressCity@CSimContact@@W3AAJPAG@Z 100324c4 f i pimstorelib:SimContacts.obj
 0001:000314cc       ?put_Home2TelephoneNumber@CSimContact@@W3AAJPAG@Z 100324cc f i pimstorelib:SimContacts.obj
 0001:000314d4       ?get_Anniversary@CSimContact@@W3AAJPAN@Z 100324d4 f i pimstorelib:SimContacts.obj
 0001:000314dc       ?put_HomeAddressStreet@CSimContact@@W3AAJPAG@Z 100324dc f i pimstorelib:SimContacts.obj
 0001:000314e4       ?put_YomiLastName@CSimContact@@W3AAJPAG@Z 100324e4 f i pimstorelib:SimContacts.obj
 0001:000314ec       ?put_PagerNumber@CSimContact@@W3AAJPAG@Z 100324ec f i pimstorelib:SimContacts.obj
 0001:000314f4       ?get_JobTitle@CSimContact@@W3AAJPAPAG@Z 100324f4 f i pimstorelib:SimContacts.obj
 0001:000314fc       ?put_Children@CSimContact@@W3AAJPAG@Z 100324fc f i pimstorelib:SimContacts.obj
 0001:00031504       ?put_Email3Address@CSimContact@@W3AAJPAG@Z 10032504 f i pimstorelib:SimContacts.obj
 0001:0003150c       ?put_Anniversary@CSimContact@@W3AAJN@Z 1003250c f i pimstorelib:SimContacts.obj
 0001:00031514       ?get_Spouse@CSimContact@@W3AAJPAPAG@Z 10032514 f i pimstorelib:SimContacts.obj
 0001:0003151c       ?put_HomeAddressCountry@CSimContact@@W3AAJPAG@Z 1003251c f i pimstorelib:SimContacts.obj
 0001:00031524       ?get_YomiFirstName@CSimContact@@W3AAJPAPAG@Z 10032524 f i pimstorelib:SimContacts.obj
 0001:0003152c       ?get_Body@CSimContact@@W3AAJPAPAG@Z 1003252c f i pimstorelib:SimContacts.obj
 0001:00031534       ?get_HomeAddressStreet@CSimContact@@W3AAJPAPAG@Z 10032534 f i pimstorelib:SimContacts.obj
 0001:0003153c       ?put_OtherAddressCountry@CSimContact@@W3AAJPAG@Z 1003253c f i pimstorelib:SimContacts.obj
 0001:00031544       ?put_HomeAddressState@CSimContact@@W3AAJPAG@Z 10032544 f i pimstorelib:SimContacts.obj
 0001:0003154c       ?put_WebPage@CSimContact@@W3AAJPAG@Z 1003254c f i pimstorelib:SimContacts.obj
 0001:00031554       ?get_OtherAddressCity@CSimContact@@W3AAJPAPAG@Z 10032554 f i pimstorelib:SimContacts.obj
 0001:0003155c       ?put_AssistantName@CSimContact@@W3AAJPAG@Z 1003255c f i pimstorelib:SimContacts.obj
 0001:00031564       ?put_BusinessTelephoneNumber@CSimContact@@W3AAJPAG@Z 10032564 f i pimstorelib:SimContacts.obj
 0001:0003156c       ?put_CompanyName@CSimContact@@W3AAJPAG@Z 1003256c f i pimstorelib:SimContacts.obj
 0001:00031574       ?get_YomiCompanyName@CSimContact@@W3AAJPAPAG@Z 10032574 f i pimstorelib:SimContacts.obj
 0001:0003157c       ?get_LastName@CSimContact@@W3AAJPAPAG@Z 1003257c f i pimstorelib:SimContacts.obj
 0001:00031584       ?get_Children@CSimContact@@W3AAJPAPAG@Z 10032584 f i pimstorelib:SimContacts.obj
 0001:0003158c       ?get_OfficeLocation@CSimContact@@W3AAJPAPAG@Z 1003258c f i pimstorelib:SimContacts.obj
 0001:00031594       ?put_CarTelephoneNumber@CSimContact@@W3AAJPAG@Z 10032594 f i pimstorelib:SimContacts.obj
 0001:0003159c       ?get_OtherAddressStreet@CSimContact@@W3AAJPAPAG@Z 1003259c f i pimstorelib:SimContacts.obj
 0001:000315a4       ?put_YomiCompanyName@CSimContact@@W3AAJPAG@Z 100325a4 f i pimstorelib:SimContacts.obj
 0001:000315ac       ?get_HomeAddressCountry@CSimContact@@W3AAJPAPAG@Z 100325ac f i pimstorelib:SimContacts.obj
 0001:000315b4       ?put_YomiFirstName@CSimContact@@W3AAJPAG@Z 100325b4 f i pimstorelib:SimContacts.obj
 0001:000315bc       ?put_HomeAddressCity@CSimContact@@W3AAJPAG@Z 100325bc f i pimstorelib:SimContacts.obj
 0001:000315c4       ?put_OfficeLocation@CSimContact@@W3AAJPAG@Z 100325c4 f i pimstorelib:SimContacts.obj
 0001:000315cc       ?put_BusinessAddressCountry@CSimContact@@W3AAJPAG@Z 100325cc f i pimstorelib:SimContacts.obj
 0001:000315d4       ?put_BusinessAddressCity@CSimContact@@W3AAJPAG@Z 100325d4 f i pimstorelib:SimContacts.obj
 0001:000315dc       ?put_OtherAddressStreet@CSimContact@@W3AAJPAG@Z 100325dc f i pimstorelib:SimContacts.obj
 0001:000315e4       ?Delete@CSimContact@@UAAJXZ 100325e4 f i pimstorelib:SimContacts.obj
 0001:00031628       ?_Copy@CSimContact@@AAAJPAPAUIContact@@@Z 10032628 f   pimstorelib:SimContacts.obj
 0001:000316d8       ?_Save@CSimContact@@AAAJXZ 100326d8 f   pimstorelib:SimContacts.obj
 0001:000317bc       ?Delete@CSimContact@@WGM@AAJXZ 100327bc f i pimstorelib:SimContacts.obj
 0001:000317c4       ?Delete@CSimContact@@WHA@AAJXZ 100327c4 f i pimstorelib:SimContacts.obj
 0001:000317cc       ?Delete@CSimContact@@WBI@AAJXZ 100327cc f i pimstorelib:SimContacts.obj
 0001:000317d4       ?Copy@CSimContact@@UAAJPAPAUIContact@@@Z 100327d4 f i pimstorelib:SimContacts.obj
 0001:00031828       ?Save@CSimContact@@UAAJXZ  10032828 f i pimstorelib:SimContacts.obj
 0001:0003186c       ?Save@CSimContact@@WHA@AAJXZ 1003286c f i pimstorelib:SimContacts.obj
 0001:00031874       ?Save@CSimContact@@WBI@AAJXZ 10032874 f i pimstorelib:SimContacts.obj
 0001:0003187c       ?Save@CSimContact@@WGM@AAJXZ 1003287c f i pimstorelib:SimContacts.obj
 0001:00031884       ?IsAnyFlagSet@CFlagArray@@QBAHXZ 10032884 f   pimstorelib:dbprops.obj
 0001:000318c0       ?GetIndexFromProperty@CDBProperties@@QAAHK@Z 100328c0 f   pimstorelib:dbprops.obj
 0001:0003190c       ?FreePropExtraMem@@YAXPAU_CEPROPVAL@@@Z 1003290c f   pimstorelib:dbprops.obj
 0001:00031940       ??0CDBPropCache@@QAA@XZ    10032940 f   pimstorelib:dbprops.obj
 0001:00031958       ?Init@CDBPropCache@@QAAJK@Z 10032958 f   pimstorelib:dbprops.obj
 0001:00031964       ?Reset@CDBPropCache@@QAAXXZ 10032964 f   pimstorelib:dbprops.obj
 0001:000319d0       ?FindProp@CDBPropCache@@QAAPAU_CEPROPVAL@@K@Z 100329d0 f   pimstorelib:dbprops.obj
 0001:00031a1c       ?Init@CFlagArray@@QAAJI@Z  10032a1c f   pimstorelib:dbprops.obj
 0001:00031a9c       ?DeInit@CDBProperties@@QAAXXZ 10032a9c f   pimstorelib:dbprops.obj
 0001:00031b3c       ?Delete@CDBProperties@@QAAJXZ 10032b3c f   pimstorelib:dbprops.obj
 0001:00031bdc       ?CacheInitProperties@CDBProperties@@QAAJPAPAU_CEPROPVAL@@I@Z 10032bdc f   pimstorelib:dbprops.obj
 0001:00031d4c       ?FPropertyChanged@CDBProperties@@QAAHI@Z 10032d4c f   pimstorelib:dbprops.obj
 0001:00031d88       ?FChanged@CDBProperties@@QAAHXZ 10032d88 f   pimstorelib:dbprops.obj
 0001:00031db0       ?GetProperty@CDBProperties@@QAAJIPAPAU_CEPROPVAL@@@Z 10032db0 f   pimstorelib:dbprops.obj
 0001:00031df8       ?GetStringProperty@CDBProperties@@QAAPBGI@Z 10032df8 f   pimstorelib:dbprops.obj
 0001:00031e48       ?GetBlobProperty@CDBProperties@@QAAJIPAU_CEBLOB@@@Z 10032e48 f   pimstorelib:dbprops.obj
 0001:00031eb4       ?GetFiletimeProperty@CDBProperties@@QAAPBU_FILETIME@@I@Z 10032eb4 f   pimstorelib:dbprops.obj
 0001:00031ef4       ?GetIntProperty@CDBProperties@@QAAHIH@Z 10032ef4 f   pimstorelib:dbprops.obj
 0001:00031f5c       ?GetBlobOrStringPropertyAsBSTR@CDBProperties@@QAAJIPAPAG@Z 10032f5c f   pimstorelib:dbprops.obj
 0001:00031fdc       ?GetFiletimePropertyAsDATE@CDBProperties@@QAAJIPAN@Z 10032fdc f   pimstorelib:dbprops.obj
 0001:0003205c       ?GetCachedProperties@CDBProperties@@QAAJPAPAU_CEPROPVAL@@PAI@Z 1003305c f   pimstorelib:dbprops.obj
 0001:00032150       ?SetProperty@CDBProperties@@QAAJIAAPBU_CEPROPVAL@@@Z 10033150 f   pimstorelib:dbprops.obj
 0001:0003233c       ?SetStringProperty@CDBProperties@@QAAJIQBG@Z 1003333c f   pimstorelib:dbprops.obj
 0001:00032414       ?SetBlobProperty@CDBProperties@@QAAJIPBU_CEBLOB@@@Z 10033414 f   pimstorelib:dbprops.obj
 0001:000324d4       ?SetFiletimePropertyFromSystemtime@CDBProperties@@QAAJIABU_SYSTEMTIME@@@Z 100334d4 f   pimstorelib:dbprops.obj
 0001:00032594       ?SetIntProperty@CDBProperties@@QAAJIH@Z 10033594 f   pimstorelib:dbprops.obj
 0001:00032644       ?SetStringPropertyFromBSTR@CDBProperties@@QAAJIQAG@Z 10033644 f   pimstorelib:dbprops.obj
 0001:0003268c       ?SetBlobOrStringPropertyFromBSTR@CDBProperties@@QAAJIQAG@Z 1003368c f   pimstorelib:dbprops.obj
 0001:00032770       ?SetFiletimePropertyFromDATE@CDBProperties@@QAAJIN@Z 10033770 f   pimstorelib:dbprops.obj
 0001:00032810       ?CopyProp@@YAJPAU_CEPROPVAL@@PBU1@PAEKPAK@Z 10033810 f   pimstorelib:dbprops.obj
 0001:000328c4       ?FillStringProp@@YAJKPAU_CEPROPVAL@@PAEKPAKPBG@Z 100338c4 f   pimstorelib:dbprops.obj
 0001:00032968       ?FillBlobProp@@YAJKPAU_CEPROPVAL@@PAEKPAK1K@Z 10033968 f   pimstorelib:dbprops.obj
 0001:000329d8       ??1CDBPropCache@@QAA@XZ    100339d8 f   pimstorelib:dbprops.obj
 0001:000329dc       ?IsPropCopyAllowed@@YAHKK@Z 100339dc f i pimstorelib:dbprops.obj
 0001:00032a20       ?CacheProps@CDBPropCache@@QAAJKGPAU_CEPROPVAL@@PAG@Z 10033a20 f   pimstorelib:dbprops.obj
 0001:00032bd8       ??1CDBProperties@@QAA@XZ   10033bd8 f   pimstorelib:dbprops.obj
 0001:00032c40       ?InitHelper@CDBProperties@@AAAJIQBK@Z 10033c40 f   pimstorelib:dbprops.obj
 0001:00032cf4       ?CopyCachedProperties@CDBProperties@@QAAJPAV1@H@Z 10033cf4 f   pimstorelib:dbprops.obj
 0001:00032dec       ?GetStringPropertyAsBSTR@CDBProperties@@QAAJIPAPAG@Z 10033dec f   pimstorelib:dbprops.obj
 0001:00032e48       ?SetPropertyEx@CDBProperties@@QAAJIPBU_CEPROPVAL@@@Z 10033e48 f   pimstorelib:dbprops.obj
 0001:00032ec4       ??0CDBProperties@@QAA@XZ   10033ec4 f   pimstorelib:dbprops.obj
 0001:00032f0c       ?InitNew@CDBProperties@@QAAJPAUIUnknown@@W4US_OBJECTTYPE@@IQBK@Z 10033f0c f   pimstorelib:dbprops.obj
 0001:00032f94       ?InitExisting@CDBProperties@@QAAJPAUIUSObject@@UUSOID@@IQBK@Z 10033f94 f   pimstorelib:dbprops.obj
 0001:0003303c       ?Save@CDBProperties@@QAAJPAUUSOID@@@Z 1003403c f   pimstorelib:dbprops.obj
 0001:0003375c       ?CheckItemTypeSupported@CFolder@@AAAHW4US_ITEMTYPE@@@Z 1003475c f   pimstorelib:folder.obj
 0001:00033794       ?QueryInterfaceImpl@?$CPOOMItem@UIFolder2@@@@QAAJABU_GUID@@PAPAX@Z 10034794 f i pimstorelib:folder.obj
 0001:00033850       ?_QueryInterface@CFolder@@AAAJABU_GUID@@PAPAX@Z 10034850 f   pimstorelib:folder.obj
 0001:0003395c       ?_put_DisplayName@CFolder@@AAAJPAG@Z 1003495c f   pimstorelib:folder.obj
 0001:000339a8       ?Copy@CComBSTR@ATL@@QBAPAGXZ 100349a8 f i pimstorelib:folder.obj
 0001:000339f0       ?CopyTo@CComBSTR@ATL@@QBAJPAPAG@Z 100349f0 f i pimstorelib:folder.obj
 0001:00033a38       ??1?$CPOOMItem@UIFolder2@@@@MAA@XZ 10034a38 f i pimstorelib:folder.obj
 0001:00033a98       ?get_Application@?$CPOOMItem@UIFolder2@@@@UAAJPAPAUIPOutlookApp3@@@Z 10034a98 f i pimstorelib:folder.obj
 0001:00033aa0       ?get_Application@?$CPOOMItem@UIFolder2@@@@UAAJPAPAUIPOutlookApp@@@Z 10034aa0 f i pimstorelib:folder.obj
 0001:00033aa4       ?MoveToFolder@?$CPOOMItem@UIFolder2@@@@UAAJPAUIFolder2@@@Z 10034aa4 f i pimstorelib:folder.obj
 0001:00033aac       ?get_ItemType@?$CPOOMItem@UIFolder2@@@@UAAJPAW4OlItemType@@@Z 10034aac f i pimstorelib:folder.obj
 0001:00033ac0       ?get_Store@?$CPOOMItem@UIFolder2@@@@UAAJPAPAUIStore@@@Z 10034ac0 f i pimstorelib:folder.obj
 0001:00033b00       ?GetProps@?$CPOOMItem@UIFolder2@@@@UAAJPBKKGPAPAU_CEPROPVAL@@PAKPAX@Z 10034b00 f i pimstorelib:folder.obj
 0001:00033b30       ?SetProps@?$CPOOMItem@UIFolder2@@@@UAAJKGPAU_CEPROPVAL@@@Z 10034b30 f i pimstorelib:folder.obj
 0001:00033b80       ?OpenProperty@?$CPOOMItem@UIFolder2@@@@UAAJKKPAPAUIStream@@@Z 10034b80 f i pimstorelib:folder.obj
 0001:00033b88       ?get_Parent@?$CPOOMItem@UIFolder2@@@@UAAJPAPAUIFolder2@@@Z 10034b88 f i pimstorelib:folder.obj
 0001:00033bc8       ?get_Parent@?$CPOOMItem@UIFolder2@@@@UAAJPAPAUIFolder@@@Z 10034bc8 f i pimstorelib:folder.obj
 0001:00033bd0       ?AddCategory@?$CPOOMItem@UIFolder2@@@@UAAJPBG@Z 10034bd0 f i pimstorelib:folder.obj
 0001:00033bd8       ?RemoveCategory@?$CPOOMItem@UIFolder2@@@@UAAJPBG@Z 10034bd8 f i pimstorelib:folder.obj
 0001:00033be0       ?get_Oid@?$CPOOMItem@UIFolder2@@@@UAAJPAJ@Z 10034be0 f i pimstorelib:folder.obj
 0001:00033be8       ?get_Id@?$CPOOMItem@UIFolder2@@@@UAAJPAUOLITEMID@@@Z 10034be8 f i pimstorelib:folder.obj
 0001:00033bf0       ?get_Categories@?$CPOOMItem@UIFolder2@@@@UAAJPAPAG@Z 10034bf0 f i pimstorelib:folder.obj
 0001:00033c30       ?put_Categories@?$CPOOMItem@UIFolder2@@@@UAAJPAG@Z 10034c30 f i pimstorelib:folder.obj
 0001:00033c34       ?get_DefaultItemType@?$CPOOMItem@UIFolder2@@@@UAAJPAH@Z 10034c34 f i pimstorelib:folder.obj
 0001:00033c3c       ?Display@?$CPOOMItem@UIFolder2@@@@UAAJPAUHWND__@@@Z 10034c3c f i pimstorelib:folder.obj
 0001:00033c48       ?Edit@?$CPOOMItem@UIFolder2@@@@UAAJPAUHWND__@@@Z 10034c48 f i pimstorelib:folder.obj
 0001:00033c54       ?CopyToFolder@?$CPOOMItem@UIFolder2@@@@UAAJPAUIFolder2@@PAPAUIItem2@@@Z 10034c54 f i pimstorelib:folder.obj
 0001:00033cb0       ?get_Application@?$CPOOMItem@UIFolder2@@@@W7AAJPAPAUIPOutlookApp3@@@Z 10034cb0 f i pimstorelib:folder.obj
 0001:00033cb8       ?get_Parent@?$CPOOMItem@UIFolder2@@@@W3AAJPAPAUIFolder@@@Z 10034cb8 f i pimstorelib:folder.obj
 0001:00033cc0       ?OpenProperty@?$CPOOMItem@UIFolder2@@@@WBI@AAJKKPAPAUIStream@@@Z 10034cc0 f i pimstorelib:folder.obj
 0001:00033cc8       ??_E?$CPOOMItem@UIFolder2@@@@O7AAPAXI@Z 10034cc8 f i pimstorelib:folder.obj
 0001:00033cd0       ?get_Store@?$CPOOMItem@UIFolder2@@@@WBM@AAJPAPAUIStore@@@Z 10034cd0 f i pimstorelib:folder.obj
 0001:00033cd8       ?get_Oid@?$CPOOMItem@UIFolder2@@@@W3AAJPAJ@Z 10034cd8 f i pimstorelib:folder.obj
 0001:00033ce0       ?OpenProperty@?$CPOOMItem@UIFolder2@@@@WBM@AAJKKPAPAUIStream@@@Z 10034ce0 f i pimstorelib:folder.obj
 0001:00033ce8       ?AddCategory@?$CPOOMItem@UIFolder2@@@@WBI@AAJPBG@Z 10034ce8 f i pimstorelib:folder.obj
 0001:00033cf0       ?get_Application@?$CPOOMItem@UIFolder2@@@@WBA@AAJPAPAUIPOutlookApp@@@Z 10034cf0 f i pimstorelib:folder.obj
 0001:00033cf8       ?get_ItemType@?$CPOOMItem@UIFolder2@@@@WBM@AAJPAW4OlItemType@@@Z 10034cf8 f i pimstorelib:folder.obj
 0001:00033d00       ?AddCategory@?$CPOOMItem@UIFolder2@@@@WBM@AAJPBG@Z 10034d00 f i pimstorelib:folder.obj
 0001:00033d08       ?Display@?$CPOOMItem@UIFolder2@@@@WBI@AAJPAUHWND__@@@Z 10034d08 f i pimstorelib:folder.obj
 0001:00033d10       ?get_DefaultItemType@?$CPOOMItem@UIFolder2@@@@W3AAJPAH@Z 10034d10 f i pimstorelib:folder.obj
 0001:00033d18       ?SetProps@?$CPOOMItem@UIFolder2@@@@WBI@AAJKGPAU_CEPROPVAL@@@Z 10034d18 f i pimstorelib:folder.obj
 0001:00033d20       ?SetProps@?$CPOOMItem@UIFolder2@@@@WBM@AAJKGPAU_CEPROPVAL@@@Z 10034d20 f i pimstorelib:folder.obj
 0001:00033d28       ?get_Id@?$CPOOMItem@UIFolder2@@@@WBM@AAJPAUOLITEMID@@@Z 10034d28 f i pimstorelib:folder.obj
 0001:00033d30       ?GetProps@?$CPOOMItem@UIFolder2@@@@WBI@AAJPBKKGPAPAU_CEPROPVAL@@PAKPAX@Z 10034d30 f i pimstorelib:folder.obj
 0001:00033d38       ?MoveToFolder@?$CPOOMItem@UIFolder2@@@@WBM@AAJPAUIFolder2@@@Z 10034d38 f i pimstorelib:folder.obj
 0001:00033d40       ?get_Parent@?$CPOOMItem@UIFolder2@@@@WBM@AAJPAPAUIFolder2@@@Z 10034d40 f i pimstorelib:folder.obj
 0001:00033d48       ?GetProps@?$CPOOMItem@UIFolder2@@@@WBM@AAJPBKKGPAPAU_CEPROPVAL@@PAKPAX@Z 10034d48 f i pimstorelib:folder.obj
 0001:00033d50       ?RemoveCategory@?$CPOOMItem@UIFolder2@@@@WBI@AAJPBG@Z 10034d50 f i pimstorelib:folder.obj
 0001:00033d58       ?Edit@?$CPOOMItem@UIFolder2@@@@WBI@AAJPAUHWND__@@@Z 10034d58 f i pimstorelib:folder.obj
 0001:00033d60       ?RemoveCategory@?$CPOOMItem@UIFolder2@@@@WBM@AAJPBG@Z 10034d60 f i pimstorelib:folder.obj
 0001:00033d68       ?AddRef@?$CPOOMItem@UIFolder2@@@@UAAKXZ 10034d68 f i pimstorelib:folder.obj
 0001:00033d70       ?Release@?$CPOOMItem@UIFolder2@@@@UAAKXZ 10034d70 f i pimstorelib:folder.obj
 0001:00033da4       ??_G?$CPOOMItem@UIFolder2@@@@MAAPAXI@Z 10034da4 f i pimstorelib:folder.obj
 0001:00033da4       ??_E?$CPOOMItem@UIFolder2@@@@MAAPAXI@Z 10034da4 f i pimstorelib:folder.obj
 0001:00033dc8       ?Release@?$CPOOMItem@UIFolder2@@@@WBI@AAKXZ 10034dc8 f i pimstorelib:folder.obj
 0001:00033dd0       ?AddRef@?$CPOOMItem@UIFolder2@@@@WBI@AAKXZ 10034dd0 f i pimstorelib:folder.obj
 0001:00033dd8       ?InitializeNew@CFolder@@QAAJPAUIUSFolder@@PAGW4OlItemType@@@Z 10034dd8 f   pimstorelib:folder.obj
 0001:00033e80       ??1CFolder@@MAA@XZ         10034e80 f   pimstorelib:folder.obj
 0001:00033f44       ??_ECFolder@@O7AAPAXI@Z    10034f44 f i pimstorelib:folder.obj
 0001:00033f4c       ?ReceiveFromInfrared@CFolder@@UAAJPAPAUIPOutlookItemCollection2@@@Z 10034f4c f i pimstorelib:folder.obj
 0001:00033f58       ?SendToInfrared@CFolder@@UAAJXZ 10034f58 f i pimstorelib:folder.obj
 0001:00033f64       ?AddItemToInfraredFolder@CFolder@@UAAJHPAUIDispatch@@@Z 10034f64 f i pimstorelib:folder.obj
 0001:00033f70       ?CopyToFolder@CFolder@@UAAJPAUIFolder2@@PAPAUIItem2@@@Z 10034f70 f i pimstorelib:folder.obj
 0001:00033f7c       ?Copy@CFolder@@UAAJPAPAUIFolder2@@@Z 10034f7c f i pimstorelib:folder.obj
 0001:00033f88       ?Copy@CFolder@@UAAJPAPAUIFolder@@@Z 10034f88 f i pimstorelib:folder.obj
 0001:00033f94       ?TypeSpecificPropsModified@CFolder@@EAAHXZ 10034f94 f i pimstorelib:folder.obj
 0001:00033f9c       ?IsFolder@CFolder@@EAAHXZ  10034f9c f i pimstorelib:folder.obj
 0001:00033fa4       ?SendToInfrared@CFolder@@W3AAJXZ 10034fa4 f i pimstorelib:folder.obj
 0001:00033fac       ?QueryInterface@CFolder@@UAAJABU_GUID@@PAPAX@Z 10034fac f i pimstorelib:folder.obj
 0001:00033fb0       ?GetTypeInfoCount@CFolder@@UAAJPAI@Z 10034fb0 f i pimstorelib:folder.obj
 0001:00033fb4       ?GetTypeInfo@CFolder@@UAAJIKPAPAUITypeInfo@@@Z 10034fb4 f i pimstorelib:folder.obj
 0001:00033fb8       ?GetIDsOfNames@CFolder@@UAAJABU_GUID@@PAPAGIKPAJ@Z 10034fb8 f i pimstorelib:folder.obj
 0001:00033fdc       ?Invoke@CFolder@@UAAJJABU_GUID@@KGPAUtagDISPPARAMS@@PAUtagVARIANT@@PAUtagEXCEPINFO@@PAI@Z 10034fdc f i pimstorelib:folder.obj
 0001:00034024       ?get_Application@CFolder@@UAAJPAPAUIPOutlookApp3@@@Z 10035024 f i pimstorelib:folder.obj
 0001:0003402c       ?get_Application@CFolder@@UAAJPAPAUIPOutlookApp@@@Z 1003502c f i pimstorelib:folder.obj
 0001:00034030       ?get_Oid@CFolder@@UAAJPAJ@Z 10035030 f i pimstorelib:folder.obj
 0001:00034038       ?get_Id@CFolder@@UAAJPAUOLITEMID@@@Z 10035038 f i pimstorelib:folder.obj
 0001:00034040       ?get_Store@CFolder@@UAAJPAPAUIStore@@@Z 10035040 f i pimstorelib:folder.obj
 0001:00034044       ?get_DefaultItemType@CFolder@@UAAJPAH@Z 10035044 f i pimstorelib:folder.obj
 0001:0003404c       ?put_DisplayName@CFolder@@UAAJPAG@Z 1003504c f i pimstorelib:folder.obj
 0001:0003408c       ?get_ItemType@CFolder@@UAAJPAW4OlItemType@@@Z 1003508c f i pimstorelib:folder.obj
 0001:000340b8       ?IsEmpty@CFolder@@UAAJKPAH@Z 100350b8 f i pimstorelib:folder.obj
 0001:000340d0       ?_get_Items@CFolder@@AAAJPAPAUIPOutlookItemCollection2@@@Z 100350d0 f   pimstorelib:folder.obj
 0001:000341b0       ?CacheTypeSpecificProp@CFolder@@EAAJPAU_CEPROPVAL@@@Z 100351b0 f   pimstorelib:folder.obj
 0001:000342f0       ?EnsureFolderNameCache@CFolder@@AAAJXZ 100352f0 f   pimstorelib:folder.obj
 0001:000343b8       ?_Save@CFolder@@AAAJXZ     100353b8 f   pimstorelib:folder.obj
 0001:00034610       ?_Delete@CFolder@@AAAJXZ   10035610 f   pimstorelib:folder.obj
 0001:000346e8       ?_get_DisplayName@CFolder@@AAAJPAPAG@Z 100356e8 f   pimstorelib:folder.obj
 0001:0003471c       ?_get_Folders@CFolder@@AAAJPAPAUIPOutlookFolderCollection@@@Z 1003571c f   pimstorelib:folder.obj
 0001:000347d8       ?_MoveToFolder@CFolder@@AAAJPAUIFolder2@@@Z 100357d8 f   pimstorelib:folder.obj
 0001:00034884       ?GetParentFolder@CFolder@@EAAJPAPAUIUSFolder@@@Z 10035884 f   pimstorelib:folder.obj
 0001:00034940       ?IsChildOfRoot@CFolder@@AAAHXZ 10035940 f   pimstorelib:folder.obj
 0001:00034bd0       ?_get_Parent@CFolder@@AAAJPAPAUIFolder2@@@Z 10035bd0 f   pimstorelib:folder.obj
 0001:00034c20       ?GetTypeInfoCount@CFolder@@WGI@AAJPAI@Z 10035c20 f i pimstorelib:folder.obj
 0001:00034c28       ?get_DefaultItemType@CFolder@@W3AAJPAH@Z 10035c28 f i pimstorelib:folder.obj
 0001:00034c30       ?QueryInterface@CFolder@@WGM@AAJABU_GUID@@PAPAX@Z 10035c30 f i pimstorelib:folder.obj
 0001:00034c38       ?get_Id@CFolder@@WBM@AAJPAUOLITEMID@@@Z 10035c38 f i pimstorelib:folder.obj
 0001:00034c40       ?get_Store@CFolder@@WGM@AAJPAPAUIStore@@@Z 10035c40 f i pimstorelib:folder.obj
 0001:00034c48       ?QueryInterface@CFolder@@WHA@AAJABU_GUID@@PAPAX@Z 10035c48 f i pimstorelib:folder.obj
 0001:00034c50       ?GetTypeInfo@CFolder@@WGE@AAJIKPAPAUITypeInfo@@@Z 10035c50 f i pimstorelib:folder.obj
 0001:00034c58       ?get_ItemType@CFolder@@WGM@AAJPAW4OlItemType@@@Z 10035c58 f i pimstorelib:folder.obj
 0001:00034c60       ?GetTypeInfo@CFolder@@WGI@AAJIKPAPAUITypeInfo@@@Z 10035c60 f i pimstorelib:folder.obj
 0001:00034c68       ?QueryInterface@CFolder@@WBI@AAJABU_GUID@@PAPAX@Z 10035c68 f i pimstorelib:folder.obj
 0001:00034c70       ?Invoke@CFolder@@WGM@AAJJABU_GUID@@KGPAUtagDISPPARAMS@@PAUtagVARIANT@@PAUtagEXCEPINFO@@PAI@Z 10035c70 f i pimstorelib:folder.obj
 0001:00034c78       ?get_Store@CFolder@@WBM@AAJPAPAUIStore@@@Z 10035c78 f i pimstorelib:folder.obj
 0001:00034c80       ?get_Application@CFolder@@W7AAJPAPAUIPOutlookApp3@@@Z 10035c80 f i pimstorelib:folder.obj
 0001:00034c88       ?Invoke@CFolder@@WHA@AAJJABU_GUID@@KGPAUtagDISPPARAMS@@PAUtagVARIANT@@PAUtagEXCEPINFO@@PAI@Z 10035c88 f i pimstorelib:folder.obj
 0001:00034c90       ?get_Oid@CFolder@@W3AAJPAJ@Z 10035c90 f i pimstorelib:folder.obj
 0001:00034c98       ?get_Application@CFolder@@WGI@AAJPAPAUIPOutlookApp@@@Z 10035c98 f i pimstorelib:folder.obj
 0001:00034ca0       ?GetIDsOfNames@CFolder@@WGE@AAJABU_GUID@@PAPAGIKPAJ@Z 10035ca0 f i pimstorelib:folder.obj
 0001:00034ca8       ?get_DefaultItemType@CFolder@@WFI@AAJPAH@Z 10035ca8 f i pimstorelib:folder.obj
 0001:00034cb0       ?get_Id@CFolder@@WGM@AAJPAUOLITEMID@@@Z 10035cb0 f i pimstorelib:folder.obj
 0001:00034cb8       ?get_ItemType@CFolder@@WBM@AAJPAW4OlItemType@@@Z 10035cb8 f i pimstorelib:folder.obj
 0001:00034cc0       ?GetIDsOfNames@CFolder@@WGI@AAJABU_GUID@@PAPAGIKPAJ@Z 10035cc0 f i pimstorelib:folder.obj
 0001:00034cc8       ?get_Application@CFolder@@WGM@AAJPAPAUIPOutlookApp3@@@Z 10035cc8 f i pimstorelib:folder.obj
 0001:00034cd0       ?GetTypeInfoCount@CFolder@@WGE@AAJPAI@Z 10035cd0 f i pimstorelib:folder.obj
 0001:00034cd8       ?get_Application@CFolder@@WBA@AAJPAPAUIPOutlookApp@@@Z 10035cd8 f i pimstorelib:folder.obj
 0001:00034ce0       ?AddRef@CFolder@@UAAKXZ    10035ce0 f i pimstorelib:folder.obj
 0001:00034ce8       ?Release@CFolder@@UAAKXZ   10035ce8 f i pimstorelib:folder.obj
 0001:00034d1c       ?get_DisplayName@CFolder@@UAAJPAPAG@Z 10035d1c f i pimstorelib:folder.obj
 0001:00034d5c       ?get_Folders@CFolder@@UAAJPAPAUIPOutlookFolderCollection@@@Z 10035d5c f i pimstorelib:folder.obj
 0001:00034d9c       ?MoveToFolder@CFolder@@UAAJPAUIFolder2@@@Z 10035d9c f i pimstorelib:folder.obj
 0001:00034ddc       ?get_Parent@CFolder@@UAAJPAPAUIFolder2@@@Z 10035ddc f i pimstorelib:folder.obj
 0001:00034de0       ?get_Items@CFolder@@UAAJPAPAUIPOutlookItemCollection2@@@Z 10035de0 f i pimstorelib:folder.obj
 0001:00034de8       ?Save@CFolder@@UAAJXZ      10035de8 f i pimstorelib:folder.obj
 0001:00034e20       ?Delete@CFolder@@UAAJXZ    10035e20 f i pimstorelib:folder.obj
 0001:00034e58       ??_ECFolder@@MAAPAXI@Z     10035e58 f i pimstorelib:folder.obj
 0001:00034e58       ??_GCFolder@@MAAPAXI@Z     10035e58 f i pimstorelib:folder.obj
 0001:00034e7c       ?InitializeExisting@CFolder@@QAAJPAUIUSFolder@@@Z 10035e7c f   pimstorelib:folder.obj
 0001:00034fec       ?GetTypeSpecificProp@CFolder@@EAAJKPAU_CEPROPVAL@@PAEKPAK@Z 10035fec f   pimstorelib:folder.obj
 0001:00035144       ?_CreateItem@CFolder@@AAAJW4OlItemType@@PAPAUIItem2@@@Z 10036144 f   pimstorelib:folder.obj
 0001:00035284       ?_get_Items@CFolder@@AAAJPAPAUIPOutlookItemCollection@@@Z 10036284 f   pimstorelib:folder.obj
 0001:00035370       ?ReceiveFromInfrared@CFolder@@UAAJPAPAUIPOutlookItemCollection@@@Z 10036370 f   pimstorelib:folder.obj
 0001:0003543c       ??0?$CPOOMItem@UIFolder2@@@@QAA@PAVCPOutlookApp@@@Z 1003643c f i pimstorelib:folder.obj
 0001:00035490       ?MoveToFolder@CFolder@@WGM@AAJPAUIFolder2@@@Z 10036490 f i pimstorelib:folder.obj
 0001:00035498       ?Release@CFolder@@WBI@AAKXZ 10036498 f i pimstorelib:folder.obj
 0001:000354a0       ?AddRef@CFolder@@WHA@AAKXZ 100364a0 f i pimstorelib:folder.obj
 0001:000354a8       ?Delete@CFolder@@WBI@AAJXZ 100364a8 f i pimstorelib:folder.obj
 0001:000354b0       ?AddRef@CFolder@@WBI@AAKXZ 100364b0 f i pimstorelib:folder.obj
 0001:000354b8       ?get_Parent@CFolder@@WBM@AAJPAPAUIFolder2@@@Z 100364b8 f i pimstorelib:folder.obj
 0001:000354c0       ?MoveToFolder@CFolder@@WBM@AAJPAUIFolder2@@@Z 100364c0 f i pimstorelib:folder.obj
 0001:000354c8       ?Save@CFolder@@WGM@AAJXZ   100364c8 f i pimstorelib:folder.obj
 0001:000354d0       ?Release@CFolder@@WGM@AAKXZ 100364d0 f i pimstorelib:folder.obj
 0001:000354d8       ?Delete@CFolder@@WGM@AAJXZ 100364d8 f i pimstorelib:folder.obj
 0001:000354e0       ?Release@CFolder@@WHA@AAKXZ 100364e0 f i pimstorelib:folder.obj
 0001:000354e8       ?get_Parent@CFolder@@WGM@AAJPAPAUIFolder2@@@Z 100364e8 f i pimstorelib:folder.obj
 0001:000354f0       ?AddRef@CFolder@@WGM@AAKXZ 100364f0 f i pimstorelib:folder.obj
 0001:000354f8       ?Save@CFolder@@WBI@AAJXZ   100364f8 f i pimstorelib:folder.obj
 0001:00035500       ?CreateItem@CFolder@@UAAJW4OlItemType@@PAPAUIItem2@@@Z 10036500 f i pimstorelib:folder.obj
 0001:00035548       ?get_Items@CFolder@@UAAJPAPAUIPOutlookItemCollection@@@Z 10036548 f i pimstorelib:folder.obj
 0001:00035550       ??0CFolder@@QAA@PAVCPOutlookApp@@@Z 10036550 f   pimstorelib:folder.obj
 0001:000355d4       ?InitializeExisting@CFolder@@QAAJUUSOID@@@Z 100365d4 f   pimstorelib:folder.obj
 0001:00035760       ?_CreateFolder@CFolder@@AAAJPAGW4OlItemType@@PAPAUIFolder2@@@Z 10036760 f   pimstorelib:folder.obj
 0001:00035830       ?CreateFolder@CFolder@@UAAJPAGW4OlItemType@@PAPAUIFolder2@@@Z 10036830 f i pimstorelib:folder.obj
 0001:00035880       ?OpenProperty@CMailItem@@UAAJKKPAPAUIStream@@@Z 10036880 f   pimstorelib:Mail.obj
 0001:00035904       ?CacheTypeSpecificProp@CMailItem@@UAAJPAU_CEPROPVAL@@@Z 10036904 f   pimstorelib:Mail.obj
 0001:00035930       ?QueryInterfaceImpl@?$CPOOMItem@VCMailItem@@@@QAAJABU_GUID@@PAPAX@Z 10036930 f i pimstorelib:Mail.obj
 0001:000359ec       ?_QueryInterface@CMailItem@@AAAJABU_GUID@@PAPAX@Z 100369ec f   pimstorelib:Mail.obj
 0001:00035a9c       ?InitializeNew@CMailItem@@AAAJPAUIUSFolder@@@Z 10036a9c f   pimstorelib:Mail.obj
 0001:00035adc       ?GetSupportedStreamPropIds@CMailItem@@UAAJPAPAKPAK@Z 10036adc f   pimstorelib:Mail.obj
 0001:00035b18       ?GetTypeSpecificProp@CMailItem@@UAAJKPAU_CEPROPVAL@@PAEKPAK@Z 10036b18 f   pimstorelib:Mail.obj
 0001:00035bbc       ?TypeSpecificPropsModified@CMailItem@@UAAHXZ 10036bbc f   pimstorelib:Mail.obj
 0001:00035bd0       ??1?$CPOOMItem@VCMailItem@@@@MAA@XZ 10036bd0 f i pimstorelib:Mail.obj
 0001:00035c30       ?get_Application@?$CPOOMItem@VCMailItem@@@@UAAJPAPAUIPOutlookApp3@@@Z 10036c30 f i pimstorelib:Mail.obj
 0001:00035c38       ?get_Application@?$CPOOMItem@VCMailItem@@@@UAAJPAPAUIPOutlookApp@@@Z 10036c38 f i pimstorelib:Mail.obj
 0001:00035c3c       ?MoveToFolder@?$CPOOMItem@VCMailItem@@@@UAAJPAUIFolder2@@@Z 10036c3c f i pimstorelib:Mail.obj
 0001:00035c44       ?get_ItemType@?$CPOOMItem@VCMailItem@@@@UAAJPAW4OlItemType@@@Z 10036c44 f i pimstorelib:Mail.obj
 0001:00035c58       ?get_Store@?$CPOOMItem@VCMailItem@@@@UAAJPAPAUIStore@@@Z 10036c58 f i pimstorelib:Mail.obj
 0001:00035c98       ?GetProps@?$CPOOMItem@VCMailItem@@@@UAAJPBKKGPAPAU_CEPROPVAL@@PAKPAX@Z 10036c98 f i pimstorelib:Mail.obj
 0001:00035cc8       ?SetProps@?$CPOOMItem@VCMailItem@@@@UAAJKGPAU_CEPROPVAL@@@Z 10036cc8 f i pimstorelib:Mail.obj
 0001:00035d18       ?OpenProperty@?$CPOOMItem@VCMailItem@@@@UAAJKKPAPAUIStream@@@Z 10036d18 f i pimstorelib:Mail.obj
 0001:00035d20       ?get_Parent@?$CPOOMItem@VCMailItem@@@@UAAJPAPAUIFolder2@@@Z 10036d20 f i pimstorelib:Mail.obj
 0001:00035d60       ?get_Parent@?$CPOOMItem@VCMailItem@@@@UAAJPAPAUIFolder@@@Z 10036d60 f i pimstorelib:Mail.obj
 0001:00035d68       ?AddCategory@?$CPOOMItem@VCMailItem@@@@UAAJPBG@Z 10036d68 f i pimstorelib:Mail.obj
 0001:00035d70       ?RemoveCategory@?$CPOOMItem@VCMailItem@@@@UAAJPBG@Z 10036d70 f i pimstorelib:Mail.obj
 0001:00035d78       ?get_Oid@?$CPOOMItem@VCMailItem@@@@UAAJPAJ@Z 10036d78 f i pimstorelib:Mail.obj
 0001:00035d80       ?get_Id@?$CPOOMItem@VCMailItem@@@@UAAJPAUOLITEMID@@@Z 10036d80 f i pimstorelib:Mail.obj
 0001:00035d88       ?get_Categories@?$CPOOMItem@VCMailItem@@@@UAAJPAPAG@Z 10036d88 f i pimstorelib:Mail.obj
 0001:00035dc8       ?put_Categories@?$CPOOMItem@VCMailItem@@@@UAAJPAG@Z 10036dc8 f i pimstorelib:Mail.obj
 0001:00035dcc       ?get_DefaultItemType@?$CPOOMItem@VCMailItem@@@@UAAJPAH@Z 10036dcc f i pimstorelib:Mail.obj
 0001:00035dd4       ?Display@?$CPOOMItem@VCMailItem@@@@UAAJPAUHWND__@@@Z 10036dd4 f i pimstorelib:Mail.obj
 0001:00035de0       ?Edit@?$CPOOMItem@VCMailItem@@@@UAAJPAUHWND__@@@Z 10036de0 f i pimstorelib:Mail.obj
 0001:00035dec       ?CopyToFolder@?$CPOOMItem@VCMailItem@@@@UAAJPAUIFolder2@@PAPAUIItem2@@@Z 10036dec f i pimstorelib:Mail.obj
 0001:00035e48       ?SetProps@?$CPOOMItem@VCMailItem@@@@WBI@AAJKGPAU_CEPROPVAL@@@Z 10036e48 f i pimstorelib:Mail.obj
 0001:00035e50       ?SetProps@?$CPOOMItem@VCMailItem@@@@WBM@AAJKGPAU_CEPROPVAL@@@Z 10036e50 f i pimstorelib:Mail.obj
 0001:00035e58       ?get_Id@?$CPOOMItem@VCMailItem@@@@WBM@AAJPAUOLITEMID@@@Z 10036e58 f i pimstorelib:Mail.obj
 0001:00035e60       ?GetProps@?$CPOOMItem@VCMailItem@@@@WBI@AAJPBKKGPAPAU_CEPROPVAL@@PAKPAX@Z 10036e60 f i pimstorelib:Mail.obj
 0001:00035e68       ?get_Parent@?$CPOOMItem@VCMailItem@@@@WBM@AAJPAPAUIFolder2@@@Z 10036e68 f i pimstorelib:Mail.obj
 0001:00035e70       ?RemoveCategory@?$CPOOMItem@VCMailItem@@@@WBI@AAJPBG@Z 10036e70 f i pimstorelib:Mail.obj
 0001:00035e78       ?GetProps@?$CPOOMItem@VCMailItem@@@@WBM@AAJPBKKGPAPAU_CEPROPVAL@@PAKPAX@Z 10036e78 f i pimstorelib:Mail.obj
 0001:00035e80       ?MoveToFolder@?$CPOOMItem@VCMailItem@@@@WBM@AAJPAUIFolder2@@@Z 10036e80 f i pimstorelib:Mail.obj
 0001:00035e88       ?Edit@?$CPOOMItem@VCMailItem@@@@WBI@AAJPAUHWND__@@@Z 10036e88 f i pimstorelib:Mail.obj
 0001:00035e90       ?RemoveCategory@?$CPOOMItem@VCMailItem@@@@WBM@AAJPBG@Z 10036e90 f i pimstorelib:Mail.obj
 0001:00035e98       ?get_Application@?$CPOOMItem@VCMailItem@@@@W7AAJPAPAUIPOutlookApp3@@@Z 10036e98 f i pimstorelib:Mail.obj
 0001:00035ea0       ?OpenProperty@?$CPOOMItem@VCMailItem@@@@WBI@AAJKKPAPAUIStream@@@Z 10036ea0 f i pimstorelib:Mail.obj
 0001:00035ea8       ??_E?$CPOOMItem@VCMailItem@@@@O7AAPAXI@Z 10036ea8 f i pimstorelib:Mail.obj
 0001:00035eb0       ?get_Parent@?$CPOOMItem@VCMailItem@@@@W3AAJPAPAUIFolder@@@Z 10036eb0 f i pimstorelib:Mail.obj
 0001:00035eb8       ?get_Store@?$CPOOMItem@VCMailItem@@@@WBM@AAJPAPAUIStore@@@Z 10036eb8 f i pimstorelib:Mail.obj
 0001:00035ec0       ?OpenProperty@?$CPOOMItem@VCMailItem@@@@WBM@AAJKKPAPAUIStream@@@Z 10036ec0 f i pimstorelib:Mail.obj
 0001:00035ec8       ?AddCategory@?$CPOOMItem@VCMailItem@@@@WBI@AAJPBG@Z 10036ec8 f i pimstorelib:Mail.obj
 0001:00035ed0       ?get_Oid@?$CPOOMItem@VCMailItem@@@@W3AAJPAJ@Z 10036ed0 f i pimstorelib:Mail.obj
 0001:00035ed8       ?get_Application@?$CPOOMItem@VCMailItem@@@@WBA@AAJPAPAUIPOutlookApp@@@Z 10036ed8 f i pimstorelib:Mail.obj
 0001:00035ee0       ?get_ItemType@?$CPOOMItem@VCMailItem@@@@WBM@AAJPAW4OlItemType@@@Z 10036ee0 f i pimstorelib:Mail.obj
 0001:00035ee8       ?AddCategory@?$CPOOMItem@VCMailItem@@@@WBM@AAJPBG@Z 10036ee8 f i pimstorelib:Mail.obj
 0001:00035ef0       ?Display@?$CPOOMItem@VCMailItem@@@@WBI@AAJPAUHWND__@@@Z 10036ef0 f i pimstorelib:Mail.obj
 0001:00035ef8       ?get_DefaultItemType@?$CPOOMItem@VCMailItem@@@@W3AAJPAH@Z 10036ef8 f i pimstorelib:Mail.obj
 0001:00035f00       ?AddRef@?$CPOOMItem@VCMailItem@@@@UAAKXZ 10036f00 f i pimstorelib:Mail.obj
 0001:00035f08       ?Release@?$CPOOMItem@VCMailItem@@@@UAAKXZ 10036f08 f i pimstorelib:Mail.obj
 0001:00035f3c       ??_G?$CPOOMItem@VCMailItem@@@@MAAPAXI@Z 10036f3c f i pimstorelib:Mail.obj
 0001:00035f3c       ??_E?$CPOOMItem@VCMailItem@@@@MAAPAXI@Z 10036f3c f i pimstorelib:Mail.obj
 0001:00035f60       ?Release@?$CPOOMItem@VCMailItem@@@@WBI@AAKXZ 10036f60 f i pimstorelib:Mail.obj
 0001:00035f68       ?AddRef@?$CPOOMItem@VCMailItem@@@@WBI@AAKXZ 10036f68 f i pimstorelib:Mail.obj
 0001:00035f70       ?InitializeExisting@CMailItem@@AAAJUUSOID@@@Z 10036f70 f   pimstorelib:Mail.obj
 0001:00036074       ?_Save@CMailItem@@AAAJXZ   10037074 f   pimstorelib:Mail.obj
 0001:000361b0       ?_Delete@CMailItem@@AAAJXZ 100371b0 f   pimstorelib:Mail.obj
 0001:00036214       ??0?$CPOOMItem@VCMailItem@@@@QAA@PAVCPOutlookApp@@@Z 10037214 f i pimstorelib:Mail.obj
 0001:00036268       ??0CMailItem@@AAA@PAVCPOutlookApp@@@Z 10037268 f i pimstorelib:Mail.obj
 0001:000362c0       ?AddCategory@CMailItem@@UAAJPBG@Z 100372c0 f i pimstorelib:Mail.obj
 0001:000362cc       ?RemoveCategory@CMailItem@@UAAJPBG@Z 100372cc f i pimstorelib:Mail.obj
 0001:000362d8       ?RemoveCategory@CMailItem@@WBI@AAJPBG@Z 100372d8 f i pimstorelib:Mail.obj
 0001:000362e0       ?OpenProperty@CMailItem@@WBI@AAJKKPAPAUIStream@@@Z 100372e0 f i pimstorelib:Mail.obj
 0001:000362e8       ?RemoveCategory@CMailItem@@WBM@AAJPBG@Z 100372e8 f i pimstorelib:Mail.obj
 0001:000362f0       ?OpenProperty@CMailItem@@WBM@AAJKKPAPAUIStream@@@Z 100372f0 f i pimstorelib:Mail.obj
 0001:000362f8       ??_ECMailItem@@G7AAPAXI@Z  100372f8 f i pimstorelib:Mail.obj
 0001:00036300       ?AddCategory@CMailItem@@WBI@AAJPBG@Z 10037300 f i pimstorelib:Mail.obj
 0001:00036308       ?AddCategory@CMailItem@@WBM@AAJPBG@Z 10037308 f i pimstorelib:Mail.obj
 0001:00036310       ?QueryInterface@CMailItem@@UAAJABU_GUID@@PAPAX@Z 10037310 f i pimstorelib:Mail.obj
 0001:00036314       ?GetTypeInfoCount@CMailItem@@UAAJPAI@Z 10037314 f i pimstorelib:Mail.obj
 0001:00036318       ?GetTypeInfo@CMailItem@@UAAJIKPAPAUITypeInfo@@@Z 10037318 f i pimstorelib:Mail.obj
 0001:0003631c       ?GetIDsOfNames@CMailItem@@UAAJABU_GUID@@PAPAGIKPAJ@Z 1003731c f i pimstorelib:Mail.obj
 0001:00036340       ?Invoke@CMailItem@@UAAJJABU_GUID@@KGPAUtagDISPPARAMS@@PAUtagVARIANT@@PAUtagEXCEPINFO@@PAI@Z 10037340 f i pimstorelib:Mail.obj
 0001:00036388       ?get_ItemType@CMailItem@@UAAJPAW4OlItemType@@@Z 10037388 f i pimstorelib:Mail.obj
 0001:000363a4       ?get_Id@CMailItem@@UAAJPAUOLITEMID@@@Z 100373a4 f i pimstorelib:Mail.obj
 0001:000363ac       ?get_Parent@CMailItem@@UAAJPAPAUIFolder2@@@Z 100373ac f i pimstorelib:Mail.obj
 0001:000363b0       ?get_Store@CMailItem@@UAAJPAPAUIStore@@@Z 100373b0 f i pimstorelib:Mail.obj
 0001:000363b4       ?get_Application@CMailItem@@UAAJPAPAUIPOutlookApp3@@@Z 100373b4 f i pimstorelib:Mail.obj
 0001:000363bc       ?QueryInterface@CMailItem@@WGM@AAJABU_GUID@@PAPAX@Z 100373bc f i pimstorelib:Mail.obj
 0001:000363c4       ?get_Id@CMailItem@@WBM@AAJPAUOLITEMID@@@Z 100373c4 f i pimstorelib:Mail.obj
 0001:000363cc       ?GetTypeInfo@CMailItem@@WGE@AAJIKPAPAUITypeInfo@@@Z 100373cc f i pimstorelib:Mail.obj
 0001:000363d4       ?get_Parent@CMailItem@@WBM@AAJPAPAUIFolder2@@@Z 100373d4 f i pimstorelib:Mail.obj
 0001:000363dc       ?QueryInterface@CMailItem@@WBI@AAJABU_GUID@@PAPAX@Z 100373dc f i pimstorelib:Mail.obj
 0001:000363e4       ?get_Application@CMailItem@@W7AAJPAPAUIPOutlookApp3@@@Z 100373e4 f i pimstorelib:Mail.obj
 0001:000363ec       ?Invoke@CMailItem@@WGM@AAJJABU_GUID@@KGPAUtagDISPPARAMS@@PAUtagVARIANT@@PAUtagEXCEPINFO@@PAI@Z 100373ec f i pimstorelib:Mail.obj
 0001:000363f4       ?get_Store@CMailItem@@WBM@AAJPAPAUIStore@@@Z 100373f4 f i pimstorelib:Mail.obj
 0001:000363fc       ?GetIDsOfNames@CMailItem@@WGE@AAJABU_GUID@@PAPAGIKPAJ@Z 100373fc f i pimstorelib:Mail.obj
 0001:00036404       ?get_ItemType@CMailItem@@WBM@AAJPAW4OlItemType@@@Z 10037404 f i pimstorelib:Mail.obj
 0001:0003640c       ?GetTypeInfoCount@CMailItem@@WGE@AAJPAI@Z 1003740c f i pimstorelib:Mail.obj
 0001:00036414       ?AddRef@CMailItem@@UAAKXZ  10037414 f i pimstorelib:Mail.obj
 0001:0003641c       ?Release@CMailItem@@UAAKXZ 1003741c f i pimstorelib:Mail.obj
 0001:00036450       ??1CMailItem@@EAA@XZ       10037450 f i pimstorelib:Mail.obj
 0001:000364a8       ??_ECMailItem@@EAAPAXI@Z   100374a8 f i pimstorelib:Mail.obj
 0001:000364a8       ??_GCMailItem@@EAAPAXI@Z   100374a8 f i pimstorelib:Mail.obj
 0001:000364cc       ?AddRef@CMailItem@@WBI@AAKXZ 100374cc f i pimstorelib:Mail.obj
 0001:000364d4       ?Release@CMailItem@@WGM@AAKXZ 100374d4 f i pimstorelib:Mail.obj
 0001:000364dc       ?AddRef@CMailItem@@WGM@AAKXZ 100374dc f i pimstorelib:Mail.obj
 0001:000364e4       ?Release@CMailItem@@WBI@AAKXZ 100374e4 f i pimstorelib:Mail.obj
 0001:000364ec       ?Save@CMailItem@@UAAJXZ    100374ec f i pimstorelib:Mail.obj
 0001:00036538       ?Delete@CMailItem@@UAAJXZ  10037538 f i pimstorelib:Mail.obj
 0001:00036584       ?Delete@CMailItem@@WBI@AAJXZ 10037584 f i pimstorelib:Mail.obj
 0001:0003658c       ?Save@CMailItem@@WBI@AAJXZ 1003758c f i pimstorelib:Mail.obj
 0001:00036594       ?CreateInstance@CMailItem@@CAJPAVCPOutlookApp@@PAUIUSFolder@@PAUUSOID@@PAPAV1@@Z 10037594 f   pimstorelib:Mail.obj
 0001:0003664c       ?_Copy@CMailItem@@AAAJPAPAV1@@Z 1003764c f   pimstorelib:Mail.obj
 0001:00036720       ?Copy@CMailItem@@UAAJPAPAV1@@Z 10037720 f i pimstorelib:Mail.obj
 0001:00036774       ?CreateInstance@CMailItem@@SAJPAVCPOutlookApp@@PAUIUSFolder@@PAUUSOID@@PAPAUIItem2@@@Z 10037774 f   pimstorelib:Mail.obj
 0001:0003679c       ?GetExtraPropsArray@CAppointment@@AAAJPAIPAPAU_USPROPVAL@@@Z 1003779c f   pimstorelib:apptment.obj
 0001:0003684c       ?get_EntryID@CAppointment@@UAAJPAJ@Z 1003784c f   pimstorelib:apptment.obj
 0001:00036858       ?_ClearRecurrencePattern@CAppointment@@AAAJXZ 10037858 f   pimstorelib:apptment.obj
 0001:00036940       ?_get_IsRecurring@CAppointment@@AAAJPAF@Z 10037940 f   pimstorelib:apptment.obj
 0001:00036980       ?get_ReplicationID@CAppointment@@UAAJPAPAG@Z 10037980 f   pimstorelib:apptment.obj
 0001:0003698c       ?_put_Duration@CAppointment@@AAAJJ@Z 1003798c f   pimstorelib:apptment.obj
 0001:00036aa4       ?_put_BusyStatus@CAppointment@@AAAJJ@Z 10037aa4 f   pimstorelib:apptment.obj
 0001:00036ae0       ?_put_BodyInk@CAppointment@@AAAJPAU_CEBLOB@@@Z 10037ae0 f   pimstorelib:apptment.obj
 0001:00036b18       ?_put_Body@CAppointment@@AAAJPAG@Z 10037b18 f   pimstorelib:apptment.obj
 0001:00036b60       ?put_ReplicationID@CAppointment@@UAAJPAG@Z 10037b60 f   pimstorelib:apptment.obj
 0001:00036b6c       ?_get_MeetingStatus@CAppointment@@AAAJPAJ@Z 10037b6c f   pimstorelib:apptment.obj
 0001:00036bb8       ?TypeSpecificPropsModified@CAppointment@@EAAHXZ 10037bb8 f   pimstorelib:apptment.obj
 0001:00036bd4       ?Forward@CAppointment@@UAAJPAUHWND__@@@Z 10037bd4 f   pimstorelib:apptment.obj
 0001:00036bdc       ?Reply@CAppointment@@UAAJH@Z 10037bdc f   pimstorelib:apptment.obj
 0001:00036be4       ?QueryInterfaceImpl@?$CPOOMItem@UIAppointment2@@@@QAAJABU_GUID@@PAPAX@Z 10037be4 f i pimstorelib:apptment.obj
 0001:00036ca0       ?get_Categories@?$CPOOMItem@UIAppointment2@@@@UAAJPAPAG@Z 10037ca0 f i pimstorelib:apptment.obj
 0001:00036ce0       ?put_Categories@?$CPOOMItem@UIAppointment2@@@@UAAJPAG@Z 10037ce0 f i pimstorelib:apptment.obj
 0001:00036ce4       ?_QueryInterface@CAppointment@@AAAJABU_GUID@@PAPAX@Z 10037ce4 f   pimstorelib:apptment.obj
 0001:00036e10       ?GetValidAppointment@CAppointment@@AAAJXZ 10037e10 f   pimstorelib:apptment.obj
 0001:00036f6c       ?InitializeNew@CAppointment@@QAAJPAUIUSFolder@@@Z 10037f6c f   pimstorelib:apptment.obj
 0001:00036fb0       ?InitializeApptRecurInfo@CAppointment@@AAAJPAUApptRecurInfo@@KPAUtagAPPOINTMENTDATA@@@Z 10037fb0 f   pimstorelib:apptment.obj
 0001:00037180       ?GetRecurrenceChanged@CAppointment@@AAAJPAHPAKPAUtagApptTime@@@Z 10038180 f   pimstorelib:apptment.obj
 0001:000372a0       ?_Delete@CAppointment@@AAAJXZ 100382a0 f   pimstorelib:apptment.obj
 0001:000373c4       ?_Cancel@CAppointment@@AAAJXZ 100383c4 f   pimstorelib:apptment.obj
 0001:00037460       ?_Respond@CAppointment@@AAAJW4enumOlResponseType@@PAG@Z 10038460 f   pimstorelib:apptment.obj
 0001:00037514       ?_put_GlobjId@CAppointment@@AAAJPBU_CEBLOB@@@Z 10038514 f   pimstorelib:apptment.obj
 0001:0003760c       ?_get_Duration@CAppointment@@AAAJPAJ@Z 1003860c f   pimstorelib:apptment.obj
 0001:000376cc       ?_put_Subject@CAppointment@@AAAJPAG@Z 100386cc f   pimstorelib:apptment.obj
 0001:00037750       ?_put_Location@CAppointment@@AAAJPAG@Z 10038750 f   pimstorelib:apptment.obj
 0001:000377d4       ?_put_Organizer@CAppointment@@AAAJPAG@Z 100387d4 f   pimstorelib:apptment.obj
 0001:00037858       ?_put_OrganizerEmail@CAppointment@@AAAJPAG@Z 10038858 f   pimstorelib:apptment.obj
 0001:000378dc       ?PassStartToRecPattern@CAppointment@@AAAJH@Z 100388dc f   pimstorelib:apptment.obj
 0001:000379ac       ?_put_AttendeeCriticalChange@CAppointment@@AAAJN@Z 100389ac f   pimstorelib:apptment.obj
 0001:000379f8       ?GetFileTimeValueFromUnifiedStore@CAppointment@@AAAJKPAU_FILETIME@@@Z 100389f8 f   pimstorelib:apptment.obj
 0001:00037a98       ?_put_OwnerCriticalChange@CAppointment@@AAAJN@Z 10038a98 f   pimstorelib:apptment.obj
 0001:00037ae4       ?_get_IsInstance@CAppointment@@AAAJPAF@Z 10038ae4 f   pimstorelib:apptment.obj
 0001:00037b50       ?_get_IsException@CAppointment@@AAAJPAF@Z 10038b50 f   pimstorelib:apptment.obj
 0001:00037bd0       ??1?$CPOOMItem@UIAppointment2@@@@MAA@XZ 10038bd0 f i pimstorelib:apptment.obj
 0001:00037c30       ?get_Application@?$CPOOMItem@UIAppointment2@@@@UAAJPAPAUIPOutlookApp3@@@Z 10038c30 f i pimstorelib:apptment.obj
 0001:00037c38       ?get_Application@?$CPOOMItem@UIAppointment2@@@@UAAJPAPAUIPOutlookApp@@@Z 10038c38 f i pimstorelib:apptment.obj
 0001:00037c3c       ?MoveToFolder@?$CPOOMItem@UIAppointment2@@@@UAAJPAUIFolder2@@@Z 10038c3c f i pimstorelib:apptment.obj
 0001:00037c44       ?get_ItemType@?$CPOOMItem@UIAppointment2@@@@UAAJPAW4OlItemType@@@Z 10038c44 f i pimstorelib:apptment.obj
 0001:00037c58       ?get_Store@?$CPOOMItem@UIAppointment2@@@@UAAJPAPAUIStore@@@Z 10038c58 f i pimstorelib:apptment.obj
 0001:00037c98       ?GetProps@?$CPOOMItem@UIAppointment2@@@@UAAJPBKKGPAPAU_CEPROPVAL@@PAKPAX@Z 10038c98 f i pimstorelib:apptment.obj
 0001:00037cc8       ?SetProps@?$CPOOMItem@UIAppointment2@@@@UAAJKGPAU_CEPROPVAL@@@Z 10038cc8 f i pimstorelib:apptment.obj
 0001:00037d18       ?OpenProperty@?$CPOOMItem@UIAppointment2@@@@UAAJKKPAPAUIStream@@@Z 10038d18 f i pimstorelib:apptment.obj
 0001:00037d20       ?get_Parent@?$CPOOMItem@UIAppointment2@@@@UAAJPAPAUIFolder2@@@Z 10038d20 f i pimstorelib:apptment.obj
 0001:00037d60       ?get_Parent@?$CPOOMItem@UIAppointment2@@@@UAAJPAPAUIFolder@@@Z 10038d60 f i pimstorelib:apptment.obj
 0001:00037d68       ?AddCategory@?$CPOOMItem@UIAppointment2@@@@UAAJPBG@Z 10038d68 f i pimstorelib:apptment.obj
 0001:00037d70       ?RemoveCategory@?$CPOOMItem@UIAppointment2@@@@UAAJPBG@Z 10038d70 f i pimstorelib:apptment.obj
 0001:00037d78       ?get_Oid@?$CPOOMItem@UIAppointment2@@@@UAAJPAJ@Z 10038d78 f i pimstorelib:apptment.obj
 0001:00037d80       ?get_Id@?$CPOOMItem@UIAppointment2@@@@UAAJPAUOLITEMID@@@Z 10038d80 f i pimstorelib:apptment.obj
 0001:00037d88       ?get_DefaultItemType@?$CPOOMItem@UIAppointment2@@@@UAAJPAH@Z 10038d88 f i pimstorelib:apptment.obj
 0001:00037d90       ?Display@?$CPOOMItem@UIAppointment2@@@@UAAJPAUHWND__@@@Z 10038d90 f i pimstorelib:apptment.obj
 0001:00037d9c       ?Edit@?$CPOOMItem@UIAppointment2@@@@UAAJPAUHWND__@@@Z 10038d9c f i pimstorelib:apptment.obj
 0001:00037da8       ?CopyToFolder@?$CPOOMItem@UIAppointment2@@@@UAAJPAUIFolder2@@PAPAUIItem2@@@Z 10038da8 f i pimstorelib:apptment.obj
 0001:00037e04       ?Display@?$CPOOMItem@UIAppointment2@@@@WBI@AAJPAUHWND__@@@Z 10038e04 f i pimstorelib:apptment.obj
 0001:00037e0c       ?SetProps@?$CPOOMItem@UIAppointment2@@@@WBI@AAJKGPAU_CEPROPVAL@@@Z 10038e0c f i pimstorelib:apptment.obj
 0001:00037e14       ?get_DefaultItemType@?$CPOOMItem@UIAppointment2@@@@W3AAJPAH@Z 10038e14 f i pimstorelib:apptment.obj
 0001:00037e1c       ?SetProps@?$CPOOMItem@UIAppointment2@@@@WBM@AAJKGPAU_CEPROPVAL@@@Z 10038e1c f i pimstorelib:apptment.obj
 0001:00037e24       ?get_Id@?$CPOOMItem@UIAppointment2@@@@WBM@AAJPAUOLITEMID@@@Z 10038e24 f i pimstorelib:apptment.obj
 0001:00037e2c       ?GetProps@?$CPOOMItem@UIAppointment2@@@@WBI@AAJPBKKGPAPAU_CEPROPVAL@@PAKPAX@Z 10038e2c f i pimstorelib:apptment.obj
 0001:00037e34       ?get_Parent@?$CPOOMItem@UIAppointment2@@@@WBM@AAJPAPAUIFolder2@@@Z 10038e34 f i pimstorelib:apptment.obj
 0001:00037e3c       ?GetProps@?$CPOOMItem@UIAppointment2@@@@WBM@AAJPBKKGPAPAU_CEPROPVAL@@PAKPAX@Z 10038e3c f i pimstorelib:apptment.obj
 0001:00037e44       ?RemoveCategory@?$CPOOMItem@UIAppointment2@@@@WBI@AAJPBG@Z 10038e44 f i pimstorelib:apptment.obj
 0001:00037e4c       ?MoveToFolder@?$CPOOMItem@UIAppointment2@@@@WBM@AAJPAUIFolder2@@@Z 10038e4c f i pimstorelib:apptment.obj
 0001:00037e54       ?Edit@?$CPOOMItem@UIAppointment2@@@@WBI@AAJPAUHWND__@@@Z 10038e54 f i pimstorelib:apptment.obj
 0001:00037e5c       ?RemoveCategory@?$CPOOMItem@UIAppointment2@@@@WBM@AAJPBG@Z 10038e5c f i pimstorelib:apptment.obj
 0001:00037e64       ?get_Application@?$CPOOMItem@UIAppointment2@@@@W7AAJPAPAUIPOutlookApp3@@@Z 10038e64 f i pimstorelib:apptment.obj
 0001:00037e6c       ?get_Parent@?$CPOOMItem@UIAppointment2@@@@W3AAJPAPAUIFolder@@@Z 10038e6c f i pimstorelib:apptment.obj
 0001:00037e74       ?OpenProperty@?$CPOOMItem@UIAppointment2@@@@WBI@AAJKKPAPAUIStream@@@Z 10038e74 f i pimstorelib:apptment.obj
 0001:00037e7c       ??_E?$CPOOMItem@UIAppointment2@@@@O7AAPAXI@Z 10038e7c f i pimstorelib:apptment.obj
 0001:00037e84       ?get_Store@?$CPOOMItem@UIAppointment2@@@@WBM@AAJPAPAUIStore@@@Z 10038e84 f i pimstorelib:apptment.obj
 0001:00037e8c       ?get_Oid@?$CPOOMItem@UIAppointment2@@@@W3AAJPAJ@Z 10038e8c f i pimstorelib:apptment.obj
 0001:00037e94       ?OpenProperty@?$CPOOMItem@UIAppointment2@@@@WBM@AAJKKPAPAUIStream@@@Z 10038e94 f i pimstorelib:apptment.obj
 0001:00037e9c       ?AddCategory@?$CPOOMItem@UIAppointment2@@@@WBI@AAJPBG@Z 10038e9c f i pimstorelib:apptment.obj
 0001:00037ea4       ?get_Application@?$CPOOMItem@UIAppointment2@@@@WBA@AAJPAPAUIPOutlookApp@@@Z 10038ea4 f i pimstorelib:apptment.obj
 0001:00037eac       ?get_ItemType@?$CPOOMItem@UIAppointment2@@@@WBM@AAJPAW4OlItemType@@@Z 10038eac f i pimstorelib:apptment.obj
 0001:00037eb4       ?AddCategory@?$CPOOMItem@UIAppointment2@@@@WBM@AAJPBG@Z 10038eb4 f i pimstorelib:apptment.obj
 0001:00037ebc       ?AddRef@?$CPOOMItem@UIAppointment2@@@@UAAKXZ 10038ebc f i pimstorelib:apptment.obj
 0001:00037ec4       ?Release@?$CPOOMItem@UIAppointment2@@@@UAAKXZ 10038ec4 f i pimstorelib:apptment.obj
 0001:00037ef8       ??_G?$CPOOMItem@UIAppointment2@@@@MAAPAXI@Z 10038ef8 f i pimstorelib:apptment.obj
 0001:00037ef8       ??_E?$CPOOMItem@UIAppointment2@@@@MAAPAXI@Z 10038ef8 f i pimstorelib:apptment.obj
 0001:00037f1c       ?Release@?$CPOOMItem@UIAppointment2@@@@WBI@AAKXZ 10038f1c f i pimstorelib:apptment.obj
 0001:00037f24       ?AddRef@?$CPOOMItem@UIAppointment2@@@@WBI@AAKXZ 10038f24 f i pimstorelib:apptment.obj
 0001:00037f2c       ??1CAppointment@@EAA@XZ    10038f2c f   pimstorelib:apptment.obj
 0001:00038054       ??_ECAppointment@@G7AAPAXI@Z 10039054 f i pimstorelib:apptment.obj
 0001:0003805c       ?Display@CAppointment@@UAAJXZ 1003905c f i pimstorelib:apptment.obj
 0001:00038068       ?ClearRecurrencePattern@CAppointment@@UAAJXZ 10039068 f i pimstorelib:apptment.obj
 0001:00038070       ?get_IsRecurring@CAppointment@@UAAJPAF@Z 10039070 f i pimstorelib:apptment.obj
 0001:00038078       ?get_AllDayEvent@CAppointment@@UAAJPAF@Z 10039078 f i pimstorelib:apptment.obj
 0001:000380a4       ?get_BusyStatus@CAppointment@@UAAJPAJ@Z 100390a4 f i pimstorelib:apptment.obj
 0001:000380c0       ?get_Sensitivity@CAppointment@@UAAJPAJ@Z 100390c0 f i pimstorelib:apptment.obj
 0001:000380dc       ?get_NoResponseRequested@CAppointment@@UAAJPAF@Z 100390dc f i pimstorelib:apptment.obj
 0001:00038108       ?get_MeetingStatus@CAppointment@@UAAJPAJ@Z 10039108 f i pimstorelib:apptment.obj
 0001:00038110       ?get_ReplyTime@CAppointment@@UAAJPAN@Z 10039110 f i pimstorelib:apptment.obj
 0001:0003812c       ?get_ResponseType@CAppointment@@UAAJPAW4OlRecipientStatus@@@Z 1003912c f i pimstorelib:apptment.obj
 0001:00038148       ?get_NoNewTimeProposals@CAppointment@@UAAJPAF@Z 10039148 f i pimstorelib:apptment.obj
 0001:00038174       ?get_ReminderSet@CAppointment@@UAAJPAF@Z 10039174 f i pimstorelib:apptment.obj
 0001:00038194       ?get_ReminderMinutesBeforeStart@CAppointment@@UAAJPAJ@Z 10039194 f i pimstorelib:apptment.obj
 0001:000381b4       ?get_ReminderOptions@CAppointment@@UAAJPAJ@Z 100391b4 f i pimstorelib:apptment.obj
 0001:000381d4       ?put_Duration@CAppointment@@UAAJJ@Z 100391d4 f i pimstorelib:apptment.obj
 0001:000381dc       ?put_AllDayEvent@CAppointment@@UAAJF@Z 100391dc f i pimstorelib:apptment.obj
 0001:000381fc       ?put_BusyStatus@CAppointment@@UAAJJ@Z 100391fc f i pimstorelib:apptment.obj
 0001:00038204       ?put_Sensitivity@CAppointment@@UAAJJ@Z 10039204 f i pimstorelib:apptment.obj
 0001:00038224       ?put_NoResponseRequested@CAppointment@@UAAJF@Z 10039224 f i pimstorelib:apptment.obj
 0001:00038244       ?put_BodyInk@CAppointment@@UAAJPAU_CEBLOB@@@Z 10039244 f i pimstorelib:apptment.obj
 0001:0003824c       ?put_Body@CAppointment@@UAAJPAG@Z 1003924c f i pimstorelib:apptment.obj
 0001:00038254       ?put_ReplyTime@CAppointment@@UAAJN@Z 10039254 f i pimstorelib:apptment.obj
 0001:00038268       ?put_ResponseType@CAppointment@@UAAJW4OlRecipientStatus@@@Z 10039268 f i pimstorelib:apptment.obj
 0001:00038274       ?put_NoNewTimeProposals@CAppointment@@UAAJF@Z 10039274 f i pimstorelib:apptment.obj
 0001:00038294       ?put_ReminderSet@CAppointment@@UAAJF@Z 10039294 f i pimstorelib:apptment.obj
 0001:000382a8       ?put_ReminderMinutesBeforeStart@CAppointment@@UAAJJ@Z 100392a8 f i pimstorelib:apptment.obj
 0001:000382bc       ?put_ReminderOptions@CAppointment@@UAAJJ@Z 100392bc f i pimstorelib:apptment.obj
 0001:000382d0       ?get_OriginalStartTime@CAppointment@@UAAJPAN@Z 100392d0 f i pimstorelib:apptment.obj
 0001:000382dc       ?put_OriginalStartTime@CAppointment@@UAAJN@Z 100392dc f i pimstorelib:apptment.obj
 0001:000382e8       ?get_ItemType@CAppointment@@UAAJPAW4OlItemType@@@Z 100392e8 f i pimstorelib:apptment.obj
 0001:00038304       ?put_BusyStatus@CAppointment@@W3AAJJ@Z 10039304 f i pimstorelib:apptment.obj
 0001:0003830c       ?put_Body@CAppointment@@W3AAJPAG@Z 1003930c f i pimstorelib:apptment.obj
 0001:00038314       ?put_ReminderMinutesBeforeStart@CAppointment@@W3AAJJ@Z 10039314 f i pimstorelib:apptment.obj
 0001:0003831c       ?put_Sensitivity@CAppointment@@W3AAJJ@Z 1003931c f i pimstorelib:apptment.obj
 0001:00038324       ?get_ReminderOptions@CAppointment@@W3AAJPAJ@Z 10039324 f i pimstorelib:apptment.obj
 0001:0003832c       ?put_BodyInk@CAppointment@@W3AAJPAU_CEBLOB@@@Z 1003932c f i pimstorelib:apptment.obj
 0001:00038334       ?Display@CAppointment@@W3AAJXZ 10039334 f i pimstorelib:apptment.obj
 0001:0003833c       ?get_Sensitivity@CAppointment@@W3AAJPAJ@Z 1003933c f i pimstorelib:apptment.obj
 0001:00038344       ?get_AllDayEvent@CAppointment@@W3AAJPAF@Z 10039344 f i pimstorelib:apptment.obj
 0001:0003834c       ?get_ReminderSet@CAppointment@@W3AAJPAF@Z 1003934c f i pimstorelib:apptment.obj
 0001:00038354       ?get_BusyStatus@CAppointment@@W3AAJPAJ@Z 10039354 f i pimstorelib:apptment.obj
 0001:0003835c       ?put_Duration@CAppointment@@W3AAJJ@Z 1003935c f i pimstorelib:apptment.obj
 0001:00038364       ?put_ReminderSet@CAppointment@@W3AAJF@Z 10039364 f i pimstorelib:apptment.obj
 0001:0003836c       ?ClearRecurrencePattern@CAppointment@@W3AAJXZ 1003936c f i pimstorelib:apptment.obj
 0001:00038374       ?put_AllDayEvent@CAppointment@@W3AAJF@Z 10039374 f i pimstorelib:apptment.obj
 0001:0003837c       ?get_ItemType@CAppointment@@WBM@AAJPAW4OlItemType@@@Z 1003937c f i pimstorelib:apptment.obj
 0001:00038384       ?get_IsRecurring@CAppointment@@W3AAJPAF@Z 10039384 f i pimstorelib:apptment.obj
 0001:0003838c       ?get_ReminderMinutesBeforeStart@CAppointment@@W3AAJPAJ@Z 1003938c f i pimstorelib:apptment.obj
 0001:00038394       ?get_MeetingStatus@CAppointment@@W3AAJPAJ@Z 10039394 f i pimstorelib:apptment.obj
 0001:0003839c       ?put_ReminderOptions@CAppointment@@W3AAJJ@Z 1003939c f i pimstorelib:apptment.obj
 0001:000383a4       ?QueryInterface@CAppointment@@UAAJABU_GUID@@PAPAX@Z 100393a4 f i pimstorelib:apptment.obj
 0001:000383a8       ?GetTypeInfoCount@CAppointment@@UAAJPAI@Z 100393a8 f i pimstorelib:apptment.obj
 0001:000383ac       ?GetTypeInfo@CAppointment@@UAAJIKPAPAUITypeInfo@@@Z 100393ac f i pimstorelib:apptment.obj
 0001:000383b0       ?GetIDsOfNames@CAppointment@@UAAJABU_GUID@@PAPAGIKPAJ@Z 100393b0 f i pimstorelib:apptment.obj
 0001:000383d4       ?Invoke@CAppointment@@UAAJJABU_GUID@@KGPAUtagDISPPARAMS@@PAUtagVARIANT@@PAUtagEXCEPINFO@@PAI@Z 100393d4 f i pimstorelib:apptment.obj
 0001:0003841c       ?get_Application@CAppointment@@UAAJPAPAUIPOutlookApp3@@@Z 1003941c f i pimstorelib:apptment.obj
 0001:00038424       ?get_Application@CAppointment@@UAAJPAPAUIPOutlookApp@@@Z 10039424 f i pimstorelib:apptment.obj
 0001:00038428       ?get_Categories@CAppointment@@UAAJPAPAG@Z 10039428 f i pimstorelib:apptment.obj
 0001:0003842c       ?put_Categories@CAppointment@@UAAJPAG@Z 1003942c f i pimstorelib:apptment.obj
 0001:00038430       ?get_Oid@CAppointment@@UAAJPAJ@Z 10039430 f i pimstorelib:apptment.obj
 0001:00038438       ?get_Id@CAppointment@@UAAJPAUOLITEMID@@@Z 10039438 f i pimstorelib:apptment.obj
 0001:00038440       ?get_Store@CAppointment@@UAAJPAPAUIStore@@@Z 10039440 f i pimstorelib:apptment.obj
 0001:00038444       ?get_Parent@CAppointment@@UAAJPAPAUIFolder2@@@Z 10039444 f i pimstorelib:apptment.obj
 0001:00038448       ?Delete@CAppointment@@UAAJXZ 10039448 f i pimstorelib:apptment.obj
 0001:00038494       ?Cancel@CAppointment@@UAAJXZ 10039494 f i pimstorelib:apptment.obj
 0001:0003849c       ?get_Duration@CAppointment@@UAAJPAJ@Z 1003949c f i pimstorelib:apptment.obj
 0001:000384a4       ?put_Subject@CAppointment@@UAAJPAG@Z 100394a4 f i pimstorelib:apptment.obj
 0001:000384ac       ?put_Location@CAppointment@@UAAJPAG@Z 100394ac f i pimstorelib:apptment.obj
 0001:000384b4       ?put_Organizer@CAppointment@@UAAJPAG@Z 100394b4 f i pimstorelib:apptment.obj
 0001:000384bc       ?put_OrganizerEmail@CAppointment@@UAAJPAG@Z 100394bc f i pimstorelib:apptment.obj
 0001:000384c4       ?put_ReminderSoundFile@CAppointment@@UAAJPAG@Z 100394c4 f i pimstorelib:apptment.obj
 0001:000384f0       ?Respond@CAppointment@@UAAJW4enumOlResponseType@@PAG@Z 100394f0 f i pimstorelib:apptment.obj
 0001:000384f8       ?put_GlobjId@CAppointment@@UAAJPBU_CEBLOB@@@Z 100394f8 f i pimstorelib:apptment.obj
 0001:00038500       ?put_MeetingStatus@CAppointment@@UAAJJ@Z 10039500 f i pimstorelib:apptment.obj
 0001:00038528       ?put_AttendeeCriticalChange@CAppointment@@UAAJN@Z 10039528 f i pimstorelib:apptment.obj
 0001:00038530       ?put_OwnerCriticalChange@CAppointment@@UAAJN@Z 10039530 f i pimstorelib:apptment.obj
 0001:00038538       ?get_IsInstance@CAppointment@@UAAJPAF@Z 10039538 f i pimstorelib:apptment.obj
 0001:00038540       ?get_IsException@CAppointment@@UAAJPAF@Z 10039540 f i pimstorelib:apptment.obj
 0001:00038548       ?CreateRecurrencePattern@CAppointment@@AAAJPAPAVCRecurrencePattern@@PAUtagRECURRENCEDATA@@@Z 10039548 f   pimstorelib:apptment.obj
 0001:00038640       ?CreateTimeZone@CAppointment@@AAAJH@Z 10039640 f   pimstorelib:apptment.obj
 0001:00038884       ?_get_GlobjId@CAppointment@@AAAJPAU_CEBLOB@@@Z 10039884 f   pimstorelib:apptment.obj
 0001:0003892c       ?get_AttendeeCriticalChange@CAppointment@@AAAJPAU_FILETIME@@@Z 1003992c f   pimstorelib:apptment.obj
 0001:0003898c       ?get_OwnerCriticalChange@CAppointment@@AAAJPAU_FILETIME@@@Z 1003998c f   pimstorelib:apptment.obj
 0001:000389ec       ?IsMeetingUpToDate@CAppointment@@UAAJPAU_FILETIME@@PAK@Z 100399ec f   pimstorelib:apptment.obj
 0001:00038aa4       ?CacheTypeSpecificProp@CAppointment@@EAAJPAU_CEPROPVAL@@@Z 10039aa4 f   pimstorelib:apptment.obj
 0001:000390e0       ?put_ReminderSoundFile@CAppointment@@W3AAJPAG@Z 1003a0e0 f i pimstorelib:apptment.obj
 0001:000390e8       ?put_Categories@CAppointment@@WFE@AAJPAG@Z 1003a0e8 f i pimstorelib:apptment.obj
 0001:000390f0       ?GetTypeInfoCount@CAppointment@@WGI@AAJPAI@Z 1003a0f0 f i pimstorelib:apptment.obj
 0001:000390f8       ?put_Subject@CAppointment@@W3AAJPAG@Z 1003a0f8 f i pimstorelib:apptment.obj
 0001:00039100       ?Delete@CAppointment@@WBI@AAJXZ 1003a100 f i pimstorelib:apptment.obj
 0001:00039108       ?QueryInterface@CAppointment@@WGM@AAJABU_GUID@@PAPAX@Z 1003a108 f i pimstorelib:apptment.obj
 0001:00039110       ?get_Id@CAppointment@@WBM@AAJPAUOLITEMID@@@Z 1003a110 f i pimstorelib:apptment.obj
 0001:00039118       ?get_Store@CAppointment@@WGM@AAJPAPAUIStore@@@Z 1003a118 f i pimstorelib:apptment.obj
 0001:00039120       ?QueryInterface@CAppointment@@WHA@AAJABU_GUID@@PAPAX@Z 1003a120 f i pimstorelib:apptment.obj
 0001:00039128       ?GetTypeInfo@CAppointment@@WGE@AAJIKPAPAUITypeInfo@@@Z 1003a128 f i pimstorelib:apptment.obj
 0001:00039130       ?get_Parent@CAppointment@@WBM@AAJPAPAUIFolder2@@@Z 1003a130 f i pimstorelib:apptment.obj
 0001:00039138       ?get_Oid@CAppointment@@WFI@AAJPAJ@Z 1003a138 f i pimstorelib:apptment.obj
 0001:00039140       ?QueryInterface@CAppointment@@WHE@AAJABU_GUID@@PAPAX@Z 1003a140 f i pimstorelib:apptment.obj
 0001:00039148       ?GetTypeInfo@CAppointment@@WGI@AAJIKPAPAUITypeInfo@@@Z 1003a148 f i pimstorelib:apptment.obj
 0001:00039150       ?Invoke@CAppointment@@WGM@AAJJABU_GUID@@KGPAUtagDISPPARAMS@@PAUtagVARIANT@@PAUtagEXCEPINFO@@PAI@Z 1003a150 f i pimstorelib:apptment.obj
 0001:00039158       ?QueryInterface@CAppointment@@WBI@AAJABU_GUID@@PAPAX@Z 1003a158 f i pimstorelib:apptment.obj
 0001:00039160       ?get_Application@CAppointment@@W7AAJPAPAUIPOutlookApp3@@@Z 1003a160 f i pimstorelib:apptment.obj
 0001:00039168       ?put_Location@CAppointment@@W3AAJPAG@Z 1003a168 f i pimstorelib:apptment.obj
 0001:00039170       ?Invoke@CAppointment@@WHA@AAJJABU_GUID@@KGPAUtagDISPPARAMS@@PAUtagVARIANT@@PAUtagEXCEPINFO@@PAI@Z 1003a170 f i pimstorelib:apptment.obj
 0001:00039178       ?get_Application@CAppointment@@WGI@AAJPAPAUIPOutlookApp@@@Z 1003a178 f i pimstorelib:apptment.obj
 0001:00039180       ?get_Categories@CAppointment@@WFA@AAJPAPAG@Z 1003a180 f i pimstorelib:apptment.obj
 0001:00039188       ?get_Store@CAppointment@@WBM@AAJPAPAUIStore@@@Z 1003a188 f i pimstorelib:apptment.obj
 0001:00039190       ?Cancel@CAppointment@@W3AAJXZ 1003a190 f i pimstorelib:apptment.obj
 0001:00039198       ?get_Duration@CAppointment@@W3AAJPAJ@Z 1003a198 f i pimstorelib:apptment.obj
 0001:000391a0       ?get_Oid@CAppointment@@W3AAJPAJ@Z 1003a1a0 f i pimstorelib:apptment.obj
 0001:000391a8       ?get_Application@CAppointment@@WGM@AAJPAPAUIPOutlookApp3@@@Z 1003a1a8 f i pimstorelib:apptment.obj
 0001:000391b0       ?GetIDsOfNames@CAppointment@@WGE@AAJABU_GUID@@PAPAGIKPAJ@Z 1003a1b0 f i pimstorelib:apptment.obj
 0001:000391b8       ?get_Categories@CAppointment@@WFE@AAJPAPAG@Z 1003a1b8 f i pimstorelib:apptment.obj
 0001:000391c0       ?get_Id@CAppointment@@WGM@AAJPAUOLITEMID@@@Z 1003a1c0 f i pimstorelib:apptment.obj
 0001:000391c8       ?get_Application@CAppointment@@WBA@AAJPAPAUIPOutlookApp@@@Z 1003a1c8 f i pimstorelib:apptment.obj
 0001:000391d0       ?Delete@CAppointment@@WGM@AAJXZ 1003a1d0 f i pimstorelib:apptment.obj
 0001:000391d8       ?GetIDsOfNames@CAppointment@@WGI@AAJABU_GUID@@PAPAGIKPAJ@Z 1003a1d8 f i pimstorelib:apptment.obj
 0001:000391e0       ?put_Categories@CAppointment@@WFA@AAJPAG@Z 1003a1e0 f i pimstorelib:apptment.obj
 0001:000391e8       ?GetTypeInfoCount@CAppointment@@WGE@AAJPAI@Z 1003a1e8 f i pimstorelib:apptment.obj
 0001:000391f0       ?Delete@CAppointment@@WHA@AAJXZ 1003a1f0 f i pimstorelib:apptment.obj
 0001:000391f8       ?get_Parent@CAppointment@@WGM@AAJPAPAUIFolder2@@@Z 1003a1f8 f i pimstorelib:apptment.obj
 0001:00039200       ?AddRef@CAppointment@@UAAKXZ 1003a200 f i pimstorelib:apptment.obj
 0001:00039208       ?Release@CAppointment@@UAAKXZ 1003a208 f i pimstorelib:apptment.obj
 0001:0003923c       ?get_GlobjId@CAppointment@@UAAJPAU_CEBLOB@@@Z 1003a23c f i pimstorelib:apptment.obj
 0001:00039244       ?EnsureApptStrings@CAppointment@@AAAJK@Z 1003a244 f   pimstorelib:apptment.obj
 0001:000392c4       ??_GCAppointment@@EAAPAXI@Z 1003a2c4 f i pimstorelib:apptment.obj
 0001:000392c4       ??_ECAppointment@@EAAPAXI@Z 1003a2c4 f i pimstorelib:apptment.obj
 0001:000392e8       ?InitializeExisting@CAppointment@@QAAJUUSOID@@PAU_SYSTEMTIME@@PAIPAVCExceptionCollection@@@Z 1003a2e8 f   pimstorelib:apptment.obj
 0001:000395e4       ?AdjustForTimeZoneChange@CAppointment@@AAAJUtagAPPOINTMENTDATA@@PAU2@@Z 1003a5e4 f   pimstorelib:apptment.obj
 0001:00039790       ?Save@CAppointment@@AAAJH@Z 1003a790 f   pimstorelib:apptment.obj
 0001:0003a28c       ?CopyCachedAppointmentProps@CAppointment@@AAAJPAV1@@Z 1003b28c f   pimstorelib:apptment.obj
 0001:0003a66c       ?EnsureRecipients@CAppointment@@AAAJXZ 1003b66c f   pimstorelib:apptment.obj
 0001:0003a708       ?_get_Recipients@CAppointment@@AAAJPAPAUIRecipients2@@@Z 1003b708 f   pimstorelib:apptment.obj
 0001:0003a74c       ?_get_Recipients@CAppointment@@AAAJPAPAUIRecipients@@@Z 1003b74c f   pimstorelib:apptment.obj
 0001:0003a784       ?_GetRecurrencePattern@CAppointment@@AAAJPAPAUIRecurrencePattern2@@@Z 1003b784 f   pimstorelib:apptment.obj
 0001:0003a7f0       ?_GetTimeZone@CAppointment@@AAAJPAPAUITimeZone@@@Z 1003b7f0 f   pimstorelib:apptment.obj
 0001:0003a844       ?GetRefApptTimeZone@CAppointment@@AAAJPAPAU_TIME_ZONE_INFORMATION@@@Z 1003b844 f   pimstorelib:apptment.obj
 0001:0003a87c       ?_get_TimeZone@CAppointment@@AAAJPAU_CEBLOB@@@Z 1003b87c f   pimstorelib:apptment.obj
 0001:0003a8e8       ?_put_TimeZone@CAppointment@@AAAJPBU_CEBLOB@@@Z 1003b8e8 f   pimstorelib:apptment.obj
 0001:0003aa68       ?_get_Start@CAppointment@@AAAJPAN@Z 1003ba68 f   pimstorelib:apptment.obj
 0001:0003aba8       ?_get_End@CAppointment@@AAAJPAN@Z 1003bba8 f   pimstorelib:apptment.obj
 0001:0003ad04       ?_put_Start@CAppointment@@AAAJN@Z 1003bd04 f   pimstorelib:apptment.obj
 0001:0003aeac       ?_put_End@CAppointment@@AAAJN@Z 1003beac f   pimstorelib:apptment.obj
 0001:0003b06c       ?_get_AttendeeCriticalChange@CAppointment@@AAAJPAN@Z 1003c06c f   pimstorelib:apptment.obj
 0001:0003b0b0       ?_get_OwnerCriticalChange@CAppointment@@AAAJPAN@Z 1003c0b0 f   pimstorelib:apptment.obj
 0001:0003b0fc       ?GetTypeSpecificProp@CAppointment@@EAAJKPAU_CEPROPVAL@@PAEKPAK@Z 1003c0fc f   pimstorelib:apptment.obj
 0001:0003b8ac       ?_GetRecurrencePattern@CAppointment@@AAAJPAPAUIRecurrencePattern@@@Z 1003c8ac f   pimstorelib:apptment.obj
 0001:0003b96c       ??0?$CPOOMItem@UIAppointment2@@@@QAA@PAVCPOutlookApp@@@Z 1003c96c f i pimstorelib:apptment.obj
 0001:0003b9c0       ?Release@CAppointment@@WHE@AAKXZ 1003c9c0 f i pimstorelib:apptment.obj
 0001:0003b9c8       ?AddRef@CAppointment@@WGM@AAKXZ 1003c9c8 f i pimstorelib:apptment.obj
 0001:0003b9d0       ?Release@CAppointment@@WBI@AAKXZ 1003c9d0 f i pimstorelib:apptment.obj
 0001:0003b9d8       ?AddRef@CAppointment@@WHA@AAKXZ 1003c9d8 f i pimstorelib:apptment.obj
 0001:0003b9e0       ?AddRef@CAppointment@@WHE@AAKXZ 1003c9e0 f i pimstorelib:apptment.obj
 0001:0003b9e8       ?AddRef@CAppointment@@WBI@AAKXZ 1003c9e8 f i pimstorelib:apptment.obj
 0001:0003b9f0       ?Release@CAppointment@@WGM@AAKXZ 1003c9f0 f i pimstorelib:apptment.obj
 0001:0003b9f8       ?Release@CAppointment@@WHA@AAKXZ 1003c9f8 f i pimstorelib:apptment.obj
 0001:0003ba00       ?Save@CAppointment@@UAAJXZ 1003ca00 f i pimstorelib:apptment.obj
 0001:0003ba50       ?Send@CAppointment@@UAAJXZ 1003ca50 f i pimstorelib:apptment.obj
 0001:0003ba5c       ?GetRecurrencePattern@CAppointment@@UAAJPAPAUIRecurrencePattern@@@Z 1003ca5c f i pimstorelib:apptment.obj
 0001:0003ba64       ?GetRecurrencePattern@CAppointment@@UAAJPAPAUIRecurrencePattern2@@@Z 1003ca64 f i pimstorelib:apptment.obj
 0001:0003ba6c       ?get_Subject@CAppointment@@UAAJPAPAG@Z 1003ca6c f i pimstorelib:apptment.obj
 0001:0003ba98       ?get_Location@CAppointment@@UAAJPAPAG@Z 1003ca98 f i pimstorelib:apptment.obj
 0001:0003bac4       ?get_Organizer@CAppointment@@UAAJPAPAG@Z 1003cac4 f i pimstorelib:apptment.obj
 0001:0003baf0       ?get_OrganizerEmail@CAppointment@@UAAJPAPAG@Z 1003caf0 f i pimstorelib:apptment.obj
 0001:0003bb1c       ?get_Start@CAppointment@@UAAJPAN@Z 1003cb1c f i pimstorelib:apptment.obj
 0001:0003bb24       ?get_End@CAppointment@@UAAJPAN@Z 1003cb24 f i pimstorelib:apptment.obj
 0001:0003bb2c       ?get_BodyInk@CAppointment@@UAAJPAU_CEBLOB@@@Z 1003cb2c f i pimstorelib:apptment.obj
 0001:0003bb58       ?get_Body@CAppointment@@UAAJPAPAG@Z 1003cb58 f i pimstorelib:apptment.obj
 0001:0003bb84       ?get_Recipients@CAppointment@@UAAJPAPAUIRecipients2@@@Z 1003cb84 f i pimstorelib:apptment.obj
 0001:0003bb8c       ?get_Recipients@CAppointment@@UAAJPAPAUIRecipients@@@Z 1003cb8c f i pimstorelib:apptment.obj
 0001:0003bb94       ?get_ReminderSoundFile@CAppointment@@UAAJPAPAG@Z 1003cb94 f i pimstorelib:apptment.obj
 0001:0003bbc0       ?put_Start@CAppointment@@UAAJN@Z 1003cbc0 f i pimstorelib:apptment.obj
 0001:0003bbc8       ?put_End@CAppointment@@UAAJN@Z 1003cbc8 f i pimstorelib:apptment.obj
 0001:0003bbd0       ?GetTimeZone@CAppointment@@UAAJPAPAUITimeZone@@@Z 1003cbd0 f i pimstorelib:apptment.obj
 0001:0003bbd8       ?get_TimeZone@CAppointment@@UAAJPAU_CEBLOB@@@Z 1003cbd8 f i pimstorelib:apptment.obj
 0001:0003bbe0       ?put_TimeZone@CAppointment@@UAAJPBU_CEBLOB@@@Z 1003cbe0 f i pimstorelib:apptment.obj
 0001:0003bbe8       ?get_AttendeeCriticalChange@CAppointment@@UAAJPAN@Z 1003cbe8 f i pimstorelib:apptment.obj
 0001:0003bbf0       ?get_OwnerCriticalChange@CAppointment@@UAAJPAN@Z 1003cbf0 f i pimstorelib:apptment.obj
 0001:0003bbf8       ??0CAppointment@@QAA@PAVCPOutlookApp@@@Z 1003cbf8 f   pimstorelib:apptment.obj
 0001:0003bcbc       ?Validate@CAppointment@@EAAJXZ 1003ccbc f   pimstorelib:apptment.obj
 0001:0003bf68       ?_Copy@CAppointment@@AAAJPAPAUIAppointment2@@@Z 1003cf68 f   pimstorelib:apptment.obj
 0001:0003c12c       ?_Copy@CAppointment@@AAAJPAPAUIAppointment@@@Z 1003d12c f   pimstorelib:apptment.obj
 0001:0003c1e0       ?get_BodyInk@CAppointment@@W3AAJPAU_CEBLOB@@@Z 1003d1e0 f i pimstorelib:apptment.obj
 0001:0003c1e8       ?put_End@CAppointment@@W3AAJN@Z 1003d1e8 f i pimstorelib:apptment.obj
 0001:0003c1f0       ?put_Start@CAppointment@@W3AAJN@Z 1003d1f0 f i pimstorelib:apptment.obj
 0001:0003c1f8       ?get_ReminderSoundFile@CAppointment@@W3AAJPAPAG@Z 1003d1f8 f i pimstorelib:apptment.obj
 0001:0003c200       ?get_End@CAppointment@@W3AAJPAN@Z 1003d200 f i pimstorelib:apptment.obj
 0001:0003c208       ?Send@CAppointment@@W3AAJXZ 1003d208 f i pimstorelib:apptment.obj
 0001:0003c210       ?get_Location@CAppointment@@W3AAJPAPAG@Z 1003d210 f i pimstorelib:apptment.obj
 0001:0003c218       ?get_Body@CAppointment@@W3AAJPAPAG@Z 1003d218 f i pimstorelib:apptment.obj
 0001:0003c220       ?get_Subject@CAppointment@@W3AAJPAPAG@Z 1003d220 f i pimstorelib:apptment.obj
 0001:0003c228       ?Save@CAppointment@@WGM@AAJXZ 1003d228 f i pimstorelib:apptment.obj
 0001:0003c230       ?get_Start@CAppointment@@W3AAJPAN@Z 1003d230 f i pimstorelib:apptment.obj
 0001:0003c238       ?Save@CAppointment@@WHA@AAJXZ 1003d238 f i pimstorelib:apptment.obj
 0001:0003c240       ?Save@CAppointment@@WBI@AAJXZ 1003d240 f i pimstorelib:apptment.obj
 0001:0003c248       ?Copy@CAppointment@@UAAJPAPAUIAppointment@@@Z 1003d248 f i pimstorelib:apptment.obj
 0001:0003c29c       ?Copy@CAppointment@@UAAJPAPAUIAppointment2@@@Z 1003d29c f i pimstorelib:apptment.obj
 0001:0003c2f0       ?CreateInstance@CAppointment@@SAJPAVCPOutlookApp@@PAUIUSFolder@@PAUUSOID@@PAPAUIItem2@@@Z 1003d2f0 f   pimstorelib:apptment.obj
 0001:0003c3a8       ?Copy@CAppointment@@WGM@AAJPAPAUIAppointment2@@@Z 1003d3a8 f i pimstorelib:apptment.obj
 0001:0003c3b0       ?GetExtraPropsArray@CTask@@AAAJPAIPAPAU_USPROPVAL@@@Z 1003d3b0 f   pimstorelib:task.obj
 0001:0003c430       ?get_Importance@CTask@@UAAJPAJ@Z 1003d430 f   pimstorelib:task.obj
 0001:0003c440       ?get_Complete@CTask@@UAAJPAF@Z 1003d440 f   pimstorelib:task.obj
 0001:0003c45c       ?get_Sensitivity@CTask@@UAAJPAJ@Z 1003d45c f   pimstorelib:task.obj
 0001:0003c46c       ?get_TeamTask@CTask@@UAAJPAF@Z 1003d46c f   pimstorelib:task.obj
 0001:0003c488       ?get_ReminderSet@CTask@@UAAJPAF@Z 1003d488 f   pimstorelib:task.obj
 0001:0003c490       ?get_ReminderTime@CTask@@UAAJPAN@Z 1003d490 f   pimstorelib:task.obj
 0001:0003c4c0       ?get_ReminderOptions@CTask@@UAAJPAJ@Z 1003d4c0 f   pimstorelib:task.obj
 0001:0003c4c8       ?put_Subject@CTask@@UAAJPAG@Z 1003d4c8 f   pimstorelib:task.obj
 0001:0003c520       ?put_Complete@CTask@@UAAJF@Z 1003d520 f   pimstorelib:task.obj
 0001:0003c5a4       ?put_Sensitivity@CTask@@UAAJJ@Z 1003d5a4 f   pimstorelib:task.obj
 0001:0003c5c4       ?put_TeamTask@CTask@@UAAJF@Z 1003d5c4 f   pimstorelib:task.obj
 0001:0003c5e8       ?put_ReminderSet@CTask@@UAAJF@Z 1003d5e8 f   pimstorelib:task.obj
 0001:0003c5f8       ?put_ReminderTime@CTask@@UAAJN@Z 1003d5f8 f   pimstorelib:task.obj
 0001:0003c664       ?put_ReminderOptions@CTask@@UAAJJ@Z 1003d664 f   pimstorelib:task.obj
 0001:0003c674       ?QueryInterfaceImpl@?$CPOOMItem@UITask2@@@@QAAJABU_GUID@@PAPAX@Z 1003d674 f i pimstorelib:task.obj
 0001:0003c730       ?FILETIMEtoYMD@@YAXPBU_FILETIME@@PAUtagYmd@@@Z 1003d730 f i pimstorelib:task.obj
 0001:0003c77c       ?YMDtoFILETIME@@YAXPBUtagYmd@@PAU_FILETIME@@@Z 1003d77c f i pimstorelib:task.obj
 0001:0003c7e4       ?YMDToDate@@YAXPBUtagYmd@@PAN@Z 1003d7e4 f i pimstorelib:task.obj
 0001:0003c840       ?DateToYMD@@YAXPANPAUtagYmd@@@Z 1003d840 f i pimstorelib:task.obj
 0001:0003c898       ?_QueryInterface@CTask@@AAAJABU_GUID@@PAPAX@Z 1003d898 f   pimstorelib:task.obj
 0001:0003c9c4       ?EnsureTaskStrings@CTask@@AAAJK@Z 1003d9c4 f   pimstorelib:task.obj
 0001:0003ca10       ?CreateRecurrencePattern@CTask@@AAAJPAUtagRECURRENCEDATA@@PAPAVCRecurrencePattern@@@Z 1003da10 f   pimstorelib:task.obj
 0001:0003caa8       ?InitializeRecurrencePattern@CTask@@AAAJXZ 1003daa8 f   pimstorelib:task.obj
 0001:0003cb78       ?_get_IsRecurring@CTask@@AAAJPAF@Z 1003db78 f   pimstorelib:task.obj
 0001:0003cbb4       ?CopyCachedTaskProps@CTask@@AAAJPAV1@@Z 1003dbb4 f   pimstorelib:task.obj
 0001:0003ccc8       ?_get_Subject@CTask@@AAAJPAPAG@Z 1003dcc8 f   pimstorelib:task.obj
 0001:0003ccfc       ?get_StartDate@CTask@@UAAJPAN@Z 1003dcfc f   pimstorelib:task.obj
 0001:0003cd10       ?get_DueDate@CTask@@UAAJPAN@Z 1003dd10 f   pimstorelib:task.obj
 0001:0003cd24       ?get_DateCompleted@CTask@@UAAJPAN@Z 1003dd24 f   pimstorelib:task.obj
 0001:0003cd38       ?_get_ReminderSoundFile@CTask@@AAAJPAPAG@Z 1003dd38 f   pimstorelib:task.obj
 0001:0003cd6c       ?_get_BodyInk@CTask@@AAAJPAU_CEBLOB@@@Z 1003dd6c f   pimstorelib:task.obj
 0001:0003cda0       ?_get_Body@CTask@@AAAJPAPAG@Z 1003dda0 f   pimstorelib:task.obj
 0001:0003cdd4       ?put_StartDate@CTask@@UAAJN@Z 1003ddd4 f   pimstorelib:task.obj
 0001:0003ce60       ?put_DueDate@CTask@@UAAJN@Z 1003de60 f   pimstorelib:task.obj
 0001:0003ceec       ?put_Importance@CTask@@UAAJJ@Z 1003deec f   pimstorelib:task.obj
 0001:0003cf2c       ?_put_BodyInk@CTask@@AAAJPAU_CEBLOB@@@Z 1003df2c f   pimstorelib:task.obj
 0001:0003cf6c       ?_put_Body@CTask@@AAAJPAG@Z 1003df6c f   pimstorelib:task.obj
 0001:0003cfbc       ?GetTypeSpecificProp@CTask@@EAAJKPAU_CEPROPVAL@@PAEKPAK@Z 1003dfbc f   pimstorelib:task.obj
 0001:0003d414       ?CacheTypeSpecificProp@CTask@@EAAJPAU_CEPROPVAL@@@Z 1003e414 f   pimstorelib:task.obj
 0001:0003d81c       ?EnsureCategoriesInitialized@CTask@@UAAJXZ 1003e81c f   pimstorelib:task.obj
 0001:0003d904       ??1?$CPOOMItem@UITask2@@@@MAA@XZ 1003e904 f i pimstorelib:task.obj
 0001:0003d964       ?get_Application@?$CPOOMItem@UITask2@@@@UAAJPAPAUIPOutlookApp3@@@Z 1003e964 f i pimstorelib:task.obj
 0001:0003d96c       ?get_Application@?$CPOOMItem@UITask2@@@@UAAJPAPAUIPOutlookApp@@@Z 1003e96c f i pimstorelib:task.obj
 0001:0003d970       ?MoveToFolder@?$CPOOMItem@UITask2@@@@UAAJPAUIFolder2@@@Z 1003e970 f i pimstorelib:task.obj
 0001:0003d978       ?get_ItemType@?$CPOOMItem@UITask2@@@@UAAJPAW4OlItemType@@@Z 1003e978 f i pimstorelib:task.obj
 0001:0003d98c       ?get_Store@?$CPOOMItem@UITask2@@@@UAAJPAPAUIStore@@@Z 1003e98c f i pimstorelib:task.obj
 0001:0003d9cc       ?GetProps@?$CPOOMItem@UITask2@@@@UAAJPBKKGPAPAU_CEPROPVAL@@PAKPAX@Z 1003e9cc f i pimstorelib:task.obj
 0001:0003d9fc       ?SetProps@?$CPOOMItem@UITask2@@@@UAAJKGPAU_CEPROPVAL@@@Z 1003e9fc f i pimstorelib:task.obj
 0001:0003da4c       ?OpenProperty@?$CPOOMItem@UITask2@@@@UAAJKKPAPAUIStream@@@Z 1003ea4c f i pimstorelib:task.obj
 0001:0003da54       ?get_Parent@?$CPOOMItem@UITask2@@@@UAAJPAPAUIFolder2@@@Z 1003ea54 f i pimstorelib:task.obj
 0001:0003da94       ?get_Parent@?$CPOOMItem@UITask2@@@@UAAJPAPAUIFolder@@@Z 1003ea94 f i pimstorelib:task.obj
 0001:0003da9c       ?AddCategory@?$CPOOMItem@UITask2@@@@UAAJPBG@Z 1003ea9c f i pimstorelib:task.obj
 0001:0003daa4       ?RemoveCategory@?$CPOOMItem@UITask2@@@@UAAJPBG@Z 1003eaa4 f i pimstorelib:task.obj
 0001:0003daac       ?get_Oid@?$CPOOMItem@UITask2@@@@UAAJPAJ@Z 1003eaac f i pimstorelib:task.obj
 0001:0003dab4       ?get_Id@?$CPOOMItem@UITask2@@@@UAAJPAUOLITEMID@@@Z 1003eab4 f i pimstorelib:task.obj
 0001:0003dabc       ?get_Categories@?$CPOOMItem@UITask2@@@@UAAJPAPAG@Z 1003eabc f i pimstorelib:task.obj
 0001:0003dafc       ?put_Categories@?$CPOOMItem@UITask2@@@@UAAJPAG@Z 1003eafc f i pimstorelib:task.obj
 0001:0003db00       ?get_DefaultItemType@?$CPOOMItem@UITask2@@@@UAAJPAH@Z 1003eb00 f i pimstorelib:task.obj
 0001:0003db08       ?Display@?$CPOOMItem@UITask2@@@@UAAJPAUHWND__@@@Z 1003eb08 f i pimstorelib:task.obj
 0001:0003db14       ?Edit@?$CPOOMItem@UITask2@@@@UAAJPAUHWND__@@@Z 1003eb14 f i pimstorelib:task.obj
 0001:0003db20       ?CopyToFolder@?$CPOOMItem@UITask2@@@@UAAJPAUIFolder2@@PAPAUIItem2@@@Z 1003eb20 f i pimstorelib:task.obj
 0001:0003db7c       ?RemoveCategory@?$CPOOMItem@UITask2@@@@WBM@AAJPBG@Z 1003eb7c f i pimstorelib:task.obj
 0001:0003db84       ?get_Application@?$CPOOMItem@UITask2@@@@W7AAJPAPAUIPOutlookApp3@@@Z 1003eb84 f i pimstorelib:task.obj
 0001:0003db8c       ?get_Parent@?$CPOOMItem@UITask2@@@@W3AAJPAPAUIFolder@@@Z 1003eb8c f i pimstorelib:task.obj
 0001:0003db94       ?OpenProperty@?$CPOOMItem@UITask2@@@@WBI@AAJKKPAPAUIStream@@@Z 1003eb94 f i pimstorelib:task.obj
 0001:0003db9c       ??_E?$CPOOMItem@UITask2@@@@O7AAPAXI@Z 1003eb9c f i pimstorelib:task.obj
 0001:0003dba4       ?get_Store@?$CPOOMItem@UITask2@@@@WBM@AAJPAPAUIStore@@@Z 1003eba4 f i pimstorelib:task.obj
 0001:0003dbac       ?get_Oid@?$CPOOMItem@UITask2@@@@W3AAJPAJ@Z 1003ebac f i pimstorelib:task.obj
 0001:0003dbb4       ?OpenProperty@?$CPOOMItem@UITask2@@@@WBM@AAJKKPAPAUIStream@@@Z 1003ebb4 f i pimstorelib:task.obj
 0001:0003dbbc       ?AddCategory@?$CPOOMItem@UITask2@@@@WBI@AAJPBG@Z 1003ebbc f i pimstorelib:task.obj
 0001:0003dbc4       ?get_Application@?$CPOOMItem@UITask2@@@@WBA@AAJPAPAUIPOutlookApp@@@Z 1003ebc4 f i pimstorelib:task.obj
 0001:0003dbcc       ?get_ItemType@?$CPOOMItem@UITask2@@@@WBM@AAJPAW4OlItemType@@@Z 1003ebcc f i pimstorelib:task.obj
 0001:0003dbd4       ?AddCategory@?$CPOOMItem@UITask2@@@@WBM@AAJPBG@Z 1003ebd4 f i pimstorelib:task.obj
 0001:0003dbdc       ?Display@?$CPOOMItem@UITask2@@@@WBI@AAJPAUHWND__@@@Z 1003ebdc f i pimstorelib:task.obj
 0001:0003dbe4       ?get_DefaultItemType@?$CPOOMItem@UITask2@@@@W3AAJPAH@Z 1003ebe4 f i pimstorelib:task.obj
 0001:0003dbec       ?SetProps@?$CPOOMItem@UITask2@@@@WBI@AAJKGPAU_CEPROPVAL@@@Z 1003ebec f i pimstorelib:task.obj
 0001:0003dbf4       ?SetProps@?$CPOOMItem@UITask2@@@@WBM@AAJKGPAU_CEPROPVAL@@@Z 1003ebf4 f i pimstorelib:task.obj
 0001:0003dbfc       ?get_Id@?$CPOOMItem@UITask2@@@@WBM@AAJPAUOLITEMID@@@Z 1003ebfc f i pimstorelib:task.obj
 0001:0003dc04       ?GetProps@?$CPOOMItem@UITask2@@@@WBI@AAJPBKKGPAPAU_CEPROPVAL@@PAKPAX@Z 1003ec04 f i pimstorelib:task.obj
 0001:0003dc0c       ?MoveToFolder@?$CPOOMItem@UITask2@@@@WBM@AAJPAUIFolder2@@@Z 1003ec0c f i pimstorelib:task.obj
 0001:0003dc14       ?get_Parent@?$CPOOMItem@UITask2@@@@WBM@AAJPAPAUIFolder2@@@Z 1003ec14 f i pimstorelib:task.obj
 0001:0003dc1c       ?GetProps@?$CPOOMItem@UITask2@@@@WBM@AAJPBKKGPAPAU_CEPROPVAL@@PAKPAX@Z 1003ec1c f i pimstorelib:task.obj
 0001:0003dc24       ?RemoveCategory@?$CPOOMItem@UITask2@@@@WBI@AAJPBG@Z 1003ec24 f i pimstorelib:task.obj
 0001:0003dc2c       ?Edit@?$CPOOMItem@UITask2@@@@WBI@AAJPAUHWND__@@@Z 1003ec2c f i pimstorelib:task.obj
 0001:0003dc34       ?AddRef@?$CPOOMItem@UITask2@@@@UAAKXZ 1003ec34 f i pimstorelib:task.obj
 0001:0003dc3c       ?Release@?$CPOOMItem@UITask2@@@@UAAKXZ 1003ec3c f i pimstorelib:task.obj
 0001:0003dc70       ??_E?$CPOOMItem@UITask2@@@@MAAPAXI@Z 1003ec70 f i pimstorelib:task.obj
 0001:0003dc70       ??_G?$CPOOMItem@UITask2@@@@MAAPAXI@Z 1003ec70 f i pimstorelib:task.obj
 0001:0003dc94       ?Release@?$CPOOMItem@UITask2@@@@WBI@AAKXZ 1003ec94 f i pimstorelib:task.obj
 0001:0003dc9c       ?AddRef@?$CPOOMItem@UITask2@@@@WBI@AAKXZ 1003ec9c f i pimstorelib:task.obj
 0001:0003dca4       ??1CTask@@MAA@XZ           1003eca4 f   pimstorelib:task.obj
 0001:0003dd38       ?put_ReminderOptions@CTask@@W3AAJJ@Z 1003ed38 f i pimstorelib:task.obj
 0001:0003dd40       ?put_Sensitivity@CTask@@W3AAJJ@Z 1003ed40 f i pimstorelib:task.obj
 0001:0003dd48       ?put_Subject@CTask@@W3AAJPAG@Z 1003ed48 f i pimstorelib:task.obj
 0001:0003dd50       ?get_ReminderOptions@CTask@@W3AAJPAJ@Z 1003ed50 f i pimstorelib:task.obj
 0001:0003dd58       ?get_Complete@CTask@@W3AAJPAF@Z 1003ed58 f i pimstorelib:task.obj
 0001:0003dd60       ?get_Sensitivity@CTask@@W3AAJPAJ@Z 1003ed60 f i pimstorelib:task.obj
 0001:0003dd68       ??_ECTask@@O7AAPAXI@Z      1003ed68 f i pimstorelib:task.obj
 0001:0003dd70       ?put_ReminderSet@CTask@@W3AAJF@Z 1003ed70 f i pimstorelib:task.obj
 0001:0003dd78       ?get_ReminderTime@CTask@@W3AAJPAN@Z 1003ed78 f i pimstorelib:task.obj
 0001:0003dd80       ?get_ReminderSet@CTask@@W3AAJPAF@Z 1003ed80 f i pimstorelib:task.obj
 0001:0003dd88       ?put_ReminderTime@CTask@@W3AAJN@Z 1003ed88 f i pimstorelib:task.obj
 0001:0003dd90       ?get_Importance@CTask@@W3AAJPAJ@Z 1003ed90 f i pimstorelib:task.obj
 0001:0003dd98       ?put_Complete@CTask@@W3AAJF@Z 1003ed98 f i pimstorelib:task.obj
 0001:0003dda0       ?get_TeamTask@CTask@@W3AAJPAF@Z 1003eda0 f i pimstorelib:task.obj
 0001:0003dda8       ?put_TeamTask@CTask@@W3AAJF@Z 1003eda8 f i pimstorelib:task.obj
 0001:0003ddb0       ?Display@CTask@@UAAJXZ     1003edb0 f i pimstorelib:task.obj
 0001:0003ddbc       ?TypeSpecificPropsModified@CTask@@EAAHXZ 1003edbc f i pimstorelib:task.obj
 0001:0003ddc4       ?get_DueDate@CTask@@W3AAJPAN@Z 1003edc4 f i pimstorelib:task.obj
 0001:0003ddcc       ?Display@CTask@@W3AAJXZ    1003edcc f i pimstorelib:task.obj
 0001:0003ddd4       ?get_DateCompleted@CTask@@W3AAJPAN@Z 1003edd4 f i pimstorelib:task.obj
 0001:0003dddc       ?put_DueDate@CTask@@W3AAJN@Z 1003eddc f i pimstorelib:task.obj
 0001:0003dde4       ?put_StartDate@CTask@@W3AAJN@Z 1003ede4 f i pimstorelib:task.obj
 0001:0003ddec       ?get_StartDate@CTask@@W3AAJPAN@Z 1003edec f i pimstorelib:task.obj
 0001:0003ddf4       ?put_Importance@CTask@@W3AAJJ@Z 1003edf4 f i pimstorelib:task.obj
 0001:0003ddfc       ?QueryInterface@CTask@@UAAJABU_GUID@@PAPAX@Z 1003edfc f i pimstorelib:task.obj
 0001:0003de00       ?GetTypeInfoCount@CTask@@UAAJPAI@Z 1003ee00 f i pimstorelib:task.obj
 0001:0003de04       ?GetTypeInfo@CTask@@UAAJIKPAPAUITypeInfo@@@Z 1003ee04 f i pimstorelib:task.obj
 0001:0003de08       ?GetIDsOfNames@CTask@@UAAJABU_GUID@@PAPAGIKPAJ@Z 1003ee08 f i pimstorelib:task.obj
 0001:0003de2c       ?Invoke@CTask@@UAAJJABU_GUID@@KGPAUtagDISPPARAMS@@PAUtagVARIANT@@PAUtagEXCEPINFO@@PAI@Z 1003ee2c f i pimstorelib:task.obj
 0001:0003de74       ?get_Application@CTask@@UAAJPAPAUIPOutlookApp3@@@Z 1003ee74 f i pimstorelib:task.obj
 0001:0003de7c       ?get_Application@CTask@@UAAJPAPAUIPOutlookApp@@@Z 1003ee7c f i pimstorelib:task.obj
 0001:0003de80       ?get_Categories@CTask@@UAAJPAPAG@Z 1003ee80 f i pimstorelib:task.obj
 0001:0003de84       ?put_Categories@CTask@@UAAJPAG@Z 1003ee84 f i pimstorelib:task.obj
 0001:0003de88       ?get_Oid@CTask@@UAAJPAJ@Z  1003ee88 f i pimstorelib:task.obj
 0001:0003de90       ?get_Id@CTask@@UAAJPAUOLITEMID@@@Z 1003ee90 f i pimstorelib:task.obj
 0001:0003de98       ?get_Store@CTask@@UAAJPAPAUIStore@@@Z 1003ee98 f i pimstorelib:task.obj
 0001:0003de9c       ?get_Parent@CTask@@UAAJPAPAUIFolder2@@@Z 1003ee9c f i pimstorelib:task.obj
 0001:0003dea0       ?get_IsRecurring@CTask@@UAAJPAF@Z 1003eea0 f i pimstorelib:task.obj
 0001:0003dea8       ?get_Subject@CTask@@UAAJPAPAG@Z 1003eea8 f i pimstorelib:task.obj
 0001:0003deb0       ?get_BodyInk@CTask@@UAAJPAU_CEBLOB@@@Z 1003eeb0 f i pimstorelib:task.obj
 0001:0003deb8       ?get_Body@CTask@@UAAJPAPAG@Z 1003eeb8 f i pimstorelib:task.obj
 0001:0003dec0       ?get_ReminderSoundFile@CTask@@UAAJPAPAG@Z 1003eec0 f i pimstorelib:task.obj
 0001:0003dec8       ?put_BodyInk@CTask@@UAAJPAU_CEBLOB@@@Z 1003eec8 f i pimstorelib:task.obj
 0001:0003ded0       ?put_Body@CTask@@UAAJPAG@Z 1003eed0 f i pimstorelib:task.obj
 0001:0003ded8       ?put_ReminderSoundFile@CTask@@UAAJPAG@Z 1003eed8 f i pimstorelib:task.obj
 0001:0003df08       ?get_ItemType@CTask@@UAAJPAW4OlItemType@@@Z 1003ef08 f i pimstorelib:task.obj
 0001:0003df24       ?_ClearRecurrencePattern@CTask@@AAAJXZ 1003ef24 f   pimstorelib:task.obj
 0001:0003df80       ?GetRecurrencePattern@CTask@@UAAJPAPAUIRecurrencePattern2@@@Z 1003ef80 f   pimstorelib:task.obj
 0001:0003dfd8       ?get_BodyInk@CTask@@W3AAJPAU_CEBLOB@@@Z 1003efd8 f i pimstorelib:task.obj
 0001:0003dfe0       ?put_ReminderSoundFile@CTask@@W3AAJPAG@Z 1003efe0 f i pimstorelib:task.obj
 0001:0003dfe8       ?put_Categories@CTask@@WFE@AAJPAG@Z 1003efe8 f i pimstorelib:task.obj
 0001:0003dff0       ?QueryInterface@CTask@@WGM@AAJABU_GUID@@PAPAX@Z 1003eff0 f i pimstorelib:task.obj
 0001:0003dff8       ?get_Id@CTask@@WBM@AAJPAUOLITEMID@@@Z 1003eff8 f i pimstorelib:task.obj
 0001:0003e000       ?put_BodyInk@CTask@@W3AAJPAU_CEBLOB@@@Z 1003f000 f i pimstorelib:task.obj
 0001:0003e008       ?get_Store@CTask@@WGM@AAJPAPAUIStore@@@Z 1003f008 f i pimstorelib:task.obj
 0001:0003e010       ?QueryInterface@CTask@@WHA@AAJABU_GUID@@PAPAX@Z 1003f010 f i pimstorelib:task.obj
 0001:0003e018       ?GetTypeInfo@CTask@@WGE@AAJIKPAPAUITypeInfo@@@Z 1003f018 f i pimstorelib:task.obj
 0001:0003e020       ?get_ReminderSoundFile@CTask@@W3AAJPAPAG@Z 1003f020 f i pimstorelib:task.obj
 0001:0003e028       ?get_Parent@CTask@@WBM@AAJPAPAUIFolder2@@@Z 1003f028 f i pimstorelib:task.obj
 0001:0003e030       ?get_Oid@CTask@@WFI@AAJPAJ@Z 1003f030 f i pimstorelib:task.obj
 0001:0003e038       ?QueryInterface@CTask@@WHE@AAJABU_GUID@@PAPAX@Z 1003f038 f i pimstorelib:task.obj
 0001:0003e040       ?GetTypeInfo@CTask@@WGI@AAJIKPAPAUITypeInfo@@@Z 1003f040 f i pimstorelib:task.obj
 0001:0003e048       ?QueryInterface@CTask@@WBI@AAJABU_GUID@@PAPAX@Z 1003f048 f i pimstorelib:task.obj
 0001:0003e050       ?get_Application@CTask@@W7AAJPAPAUIPOutlookApp3@@@Z 1003f050 f i pimstorelib:task.obj
 0001:0003e058       ?get_Body@CTask@@W3AAJPAPAG@Z 1003f058 f i pimstorelib:task.obj
 0001:0003e060       ?get_Subject@CTask@@W3AAJPAPAG@Z 1003f060 f i pimstorelib:task.obj
 0001:0003e068       ?Invoke@CTask@@WGM@AAJJABU_GUID@@KGPAUtagDISPPARAMS@@PAUtagVARIANT@@PAUtagEXCEPINFO@@PAI@Z 1003f068 f i pimstorelib:task.obj
 0001:0003e070       ?get_Application@CTask@@WGI@AAJPAPAUIPOutlookApp@@@Z 1003f070 f i pimstorelib:task.obj
 0001:0003e078       ?get_Store@CTask@@WBM@AAJPAPAUIStore@@@Z 1003f078 f i pimstorelib:task.obj
 0001:0003e080       ?Invoke@CTask@@WHA@AAJJABU_GUID@@KGPAUtagDISPPARAMS@@PAUtagVARIANT@@PAUtagEXCEPINFO@@PAI@Z 1003f080 f i pimstorelib:task.obj
 0001:0003e088       ?get_Oid@CTask@@W3AAJPAJ@Z 1003f088 f i pimstorelib:task.obj
 0001:0003e090       ?get_Application@CTask@@WGM@AAJPAPAUIPOutlookApp3@@@Z 1003f090 f i pimstorelib:task.obj
 0001:0003e098       ?GetIDsOfNames@CTask@@WGE@AAJABU_GUID@@PAPAGIKPAJ@Z 1003f098 f i pimstorelib:task.obj
 0001:0003e0a0       ?get_Categories@CTask@@WFA@AAJPAPAG@Z 1003f0a0 f i pimstorelib:task.obj
 0001:0003e0a8       ?get_Id@CTask@@WGM@AAJPAUOLITEMID@@@Z 1003f0a8 f i pimstorelib:task.obj
 0001:0003e0b0       ?get_Application@CTask@@WBA@AAJPAPAUIPOutlookApp@@@Z 1003f0b0 f i pimstorelib:task.obj
 0001:0003e0b8       ?get_ItemType@CTask@@WBM@AAJPAW4OlItemType@@@Z 1003f0b8 f i pimstorelib:task.obj
 0001:0003e0c0       ?get_IsRecurring@CTask@@W3AAJPAF@Z 1003f0c0 f i pimstorelib:task.obj
 0001:0003e0c8       ?GetIDsOfNames@CTask@@WGI@AAJABU_GUID@@PAPAGIKPAJ@Z 1003f0c8 f i pimstorelib:task.obj
 0001:0003e0d0       ?get_Categories@CTask@@WFE@AAJPAPAG@Z 1003f0d0 f i pimstorelib:task.obj
 0001:0003e0d8       ?GetTypeInfoCount@CTask@@WGE@AAJPAI@Z 1003f0d8 f i pimstorelib:task.obj
 0001:0003e0e0       ?get_Parent@CTask@@WGM@AAJPAPAUIFolder2@@@Z 1003f0e0 f i pimstorelib:task.obj
 0001:0003e0e8       ?put_Body@CTask@@W3AAJPAG@Z 1003f0e8 f i pimstorelib:task.obj
 0001:0003e0f0       ?put_Categories@CTask@@WFA@AAJPAG@Z 1003f0f0 f i pimstorelib:task.obj
 0001:0003e0f8       ?GetTypeInfoCount@CTask@@WGI@AAJPAI@Z 1003f0f8 f i pimstorelib:task.obj
 0001:0003e100       ?AddRef@CTask@@UAAKXZ      1003f100 f i pimstorelib:task.obj
 0001:0003e108       ?Release@CTask@@UAAKXZ     1003f108 f i pimstorelib:task.obj
 0001:0003e13c       ?ClearRecurrencePattern@CTask@@UAAJXZ 1003f13c f i pimstorelib:task.obj
 0001:0003e144       ?GetValidTask@CTask@@AAAJXZ 1003f144 f   pimstorelib:task.obj
 0001:0003e1f8       ??_ECTask@@MAAPAXI@Z       1003f1f8 f i pimstorelib:task.obj
 0001:0003e1f8       ??_GCTask@@MAAPAXI@Z       1003f1f8 f i pimstorelib:task.obj
 0001:0003e21c       ?InitializeExisting@CTask@@QAAJUUSOID@@@Z 1003f21c f   pimstorelib:task.obj
 0001:0003e3b4       ?InitializeNew@CTask@@QAAJPAUIUSFolder@@@Z 1003f3b4 f   pimstorelib:task.obj
 0001:0003e40c       ?_Save@CTask@@AAAJXZ       1003f40c f   pimstorelib:task.obj
 0001:0003ec54       ?_Delete@CTask@@AAAJXZ     1003fc54 f   pimstorelib:task.obj
 0001:0003ed00       ?SkipRecurrence@CTask@@UAAJXZ 1003fd00 f   pimstorelib:task.obj
 0001:0003edb8       ?GetRecurrencePattern@CTask@@UAAJPAPAUIRecurrencePattern@@@Z 1003fdb8 f   pimstorelib:task.obj
 0001:0003ee78       ??0?$CPOOMItem@UITask2@@@@QAA@PAVCPOutlookApp@@@Z 1003fe78 f i pimstorelib:task.obj
 0001:0003eecc       ?AddRef@CTask@@WHA@AAKXZ   1003fecc f i pimstorelib:task.obj
 0001:0003eed4       ?SkipRecurrence@CTask@@W3AAJXZ 1003fed4 f i pimstorelib:task.obj
 0001:0003eedc       ?AddRef@CTask@@WHE@AAKXZ   1003fedc f i pimstorelib:task.obj
 0001:0003eee4       ?AddRef@CTask@@WBI@AAKXZ   1003fee4 f i pimstorelib:task.obj
 0001:0003eeec       ?ClearRecurrencePattern@CTask@@W3AAJXZ 1003feec f i pimstorelib:task.obj
 0001:0003eef4       ?Release@CTask@@WGM@AAKXZ  1003fef4 f i pimstorelib:task.obj
 0001:0003eefc       ?Release@CTask@@WHA@AAKXZ  1003fefc f i pimstorelib:task.obj
 0001:0003ef04       ?Release@CTask@@WHE@AAKXZ  1003ff04 f i pimstorelib:task.obj
 0001:0003ef0c       ?AddRef@CTask@@WGM@AAKXZ   1003ff0c f i pimstorelib:task.obj
 0001:0003ef14       ?Release@CTask@@WBI@AAKXZ  1003ff14 f i pimstorelib:task.obj
 0001:0003ef1c       ?Save@CTask@@UAAJXZ        1003ff1c f i pimstorelib:task.obj
 0001:0003ef68       ?Delete@CTask@@UAAJXZ      1003ff68 f i pimstorelib:task.obj
 0001:0003efb4       ??0CTask@@QAA@PAVCPOutlookApp@@@Z 1003ffb4 f   pimstorelib:task.obj
 0001:0003f040       ?CreateInstance@CTask@@SAJPAVCPOutlookApp@@PAUIUSFolder@@PAUUSOID@@PAPAUIItem2@@@Z 10040040 f   pimstorelib:task.obj
 0001:0003f0e4       ?_Copy@CTask@@AAAJPAPAUITask2@@@Z 100400e4 f   pimstorelib:task.obj
 0001:0003f204       ?_Copy@CTask@@AAAJPAPAUITask@@@Z 10040204 f   pimstorelib:task.obj
 0001:0003f2b8       ?Delete@CTask@@WBI@AAJXZ   100402b8 f i pimstorelib:task.obj
 0001:0003f2c0       ?Save@CTask@@WGM@AAJXZ     100402c0 f i pimstorelib:task.obj
 0001:0003f2c8       ?Save@CTask@@WHA@AAJXZ     100402c8 f i pimstorelib:task.obj
 0001:0003f2d0       ?Delete@CTask@@WGM@AAJXZ   100402d0 f i pimstorelib:task.obj
 0001:0003f2d8       ?Delete@CTask@@WHA@AAJXZ   100402d8 f i pimstorelib:task.obj
 0001:0003f2e0       ?Save@CTask@@WBI@AAJXZ     100402e0 f i pimstorelib:task.obj
 0001:0003f2e8       ?Copy@CTask@@UAAJPAPAUITask@@@Z 100402e8 f i pimstorelib:task.obj
 0001:0003f33c       ?Copy@CTask@@UAAJPAPAUITask2@@@Z 1004033c f i pimstorelib:task.obj
 0001:0003f390       ?Copy@CTask@@WGM@AAJPAPAUITask2@@@Z 10040390 f i pimstorelib:task.obj
 0001:0003f398       ?QueryInterfaceImpl@?$CPOOMItem@VCNote@@@@QAAJABU_GUID@@PAPAX@Z 10040398 f i pimstorelib:note.obj
 0001:0003f454       ?_QueryInterface@CNote@@AAAJABU_GUID@@PAPAX@Z 10040454 f   pimstorelib:note.obj
 0001:0003f514       ?InitializeNew@CNote@@AAAJPAUIUSFolder@@@Z 10040514 f   pimstorelib:note.obj
 0001:0003f590       ?_Save@CNote@@AAAJXZ       10040590 f   pimstorelib:note.obj
 0001:0003f5d0       ?CacheTypeSpecificProp@CNote@@UAAJPAU_CEPROPVAL@@@Z 100405d0 f   pimstorelib:note.obj
 0001:0003f668       ??1?$CPOOMItem@VCNote@@@@MAA@XZ 10040668 f i pimstorelib:note.obj
 0001:0003f6c8       ?get_Application@?$CPOOMItem@VCNote@@@@UAAJPAPAUIPOutlookApp3@@@Z 100406c8 f i pimstorelib:note.obj
 0001:0003f6d0       ?get_Application@?$CPOOMItem@VCNote@@@@UAAJPAPAUIPOutlookApp@@@Z 100406d0 f i pimstorelib:note.obj
 0001:0003f6d4       ?MoveToFolder@?$CPOOMItem@VCNote@@@@UAAJPAUIFolder2@@@Z 100406d4 f i pimstorelib:note.obj
 0001:0003f6dc       ?get_ItemType@?$CPOOMItem@VCNote@@@@UAAJPAW4OlItemType@@@Z 100406dc f i pimstorelib:note.obj
 0001:0003f6f0       ?get_Store@?$CPOOMItem@VCNote@@@@UAAJPAPAUIStore@@@Z 100406f0 f i pimstorelib:note.obj
 0001:0003f730       ?GetProps@?$CPOOMItem@VCNote@@@@UAAJPBKKGPAPAU_CEPROPVAL@@PAKPAX@Z 10040730 f i pimstorelib:note.obj
 0001:0003f760       ?SetProps@?$CPOOMItem@VCNote@@@@UAAJKGPAU_CEPROPVAL@@@Z 10040760 f i pimstorelib:note.obj
 0001:0003f7b0       ?OpenProperty@?$CPOOMItem@VCNote@@@@UAAJKKPAPAUIStream@@@Z 100407b0 f i pimstorelib:note.obj
 0001:0003f7b8       ?get_Parent@?$CPOOMItem@VCNote@@@@UAAJPAPAUIFolder2@@@Z 100407b8 f i pimstorelib:note.obj
 0001:0003f7f8       ?get_Parent@?$CPOOMItem@VCNote@@@@UAAJPAPAUIFolder@@@Z 100407f8 f i pimstorelib:note.obj
 0001:0003f800       ?AddCategory@?$CPOOMItem@VCNote@@@@UAAJPBG@Z 10040800 f i pimstorelib:note.obj
 0001:0003f808       ?RemoveCategory@?$CPOOMItem@VCNote@@@@UAAJPBG@Z 10040808 f i pimstorelib:note.obj
 0001:0003f810       ?get_Oid@?$CPOOMItem@VCNote@@@@UAAJPAJ@Z 10040810 f i pimstorelib:note.obj
 0001:0003f818       ?get_Id@?$CPOOMItem@VCNote@@@@UAAJPAUOLITEMID@@@Z 10040818 f i pimstorelib:note.obj
 0001:0003f820       ?get_Categories@?$CPOOMItem@VCNote@@@@UAAJPAPAG@Z 10040820 f i pimstorelib:note.obj
 0001:0003f860       ?put_Categories@?$CPOOMItem@VCNote@@@@UAAJPAG@Z 10040860 f i pimstorelib:note.obj
 0001:0003f864       ?get_DefaultItemType@?$CPOOMItem@VCNote@@@@UAAJPAH@Z 10040864 f i pimstorelib:note.obj
 0001:0003f86c       ?Display@?$CPOOMItem@VCNote@@@@UAAJPAUHWND__@@@Z 1004086c f i pimstorelib:note.obj
 0001:0003f878       ?Edit@?$CPOOMItem@VCNote@@@@UAAJPAUHWND__@@@Z 10040878 f i pimstorelib:note.obj
 0001:0003f884       ?CopyToFolder@?$CPOOMItem@VCNote@@@@UAAJPAUIFolder2@@PAPAUIItem2@@@Z 10040884 f i pimstorelib:note.obj
 0001:0003f8e0       ?get_Oid@?$CPOOMItem@VCNote@@@@W3AAJPAJ@Z 100408e0 f i pimstorelib:note.obj
 0001:0003f8e8       ?OpenProperty@?$CPOOMItem@VCNote@@@@WBM@AAJKKPAPAUIStream@@@Z 100408e8 f i pimstorelib:note.obj
 0001:0003f8f0       ?AddCategory@?$CPOOMItem@VCNote@@@@WBI@AAJPBG@Z 100408f0 f i pimstorelib:note.obj
 0001:0003f8f8       ?get_Application@?$CPOOMItem@VCNote@@@@WBA@AAJPAPAUIPOutlookApp@@@Z 100408f8 f i pimstorelib:note.obj
 0001:0003f900       ?get_ItemType@?$CPOOMItem@VCNote@@@@WBM@AAJPAW4OlItemType@@@Z 10040900 f i pimstorelib:note.obj
 0001:0003f908       ?AddCategory@?$CPOOMItem@VCNote@@@@WBM@AAJPBG@Z 10040908 f i pimstorelib:note.obj
 0001:0003f910       ?Display@?$CPOOMItem@VCNote@@@@WBI@AAJPAUHWND__@@@Z 10040910 f i pimstorelib:note.obj
 0001:0003f918       ?SetProps@?$CPOOMItem@VCNote@@@@WBI@AAJKGPAU_CEPROPVAL@@@Z 10040918 f i pimstorelib:note.obj
 0001:0003f920       ?get_DefaultItemType@?$CPOOMItem@VCNote@@@@W3AAJPAH@Z 10040920 f i pimstorelib:note.obj
 0001:0003f928       ?SetProps@?$CPOOMItem@VCNote@@@@WBM@AAJKGPAU_CEPROPVAL@@@Z 10040928 f i pimstorelib:note.obj
 0001:0003f930       ?get_Id@?$CPOOMItem@VCNote@@@@WBM@AAJPAUOLITEMID@@@Z 10040930 f i pimstorelib:note.obj
 0001:0003f938       ?GetProps@?$CPOOMItem@VCNote@@@@WBI@AAJPBKKGPAPAU_CEPROPVAL@@PAKPAX@Z 10040938 f i pimstorelib:note.obj
 0001:0003f940       ?get_Parent@?$CPOOMItem@VCNote@@@@WBM@AAJPAPAUIFolder2@@@Z 10040940 f i pimstorelib:note.obj
 0001:0003f948       ?GetProps@?$CPOOMItem@VCNote@@@@WBM@AAJPBKKGPAPAU_CEPROPVAL@@PAKPAX@Z 10040948 f i pimstorelib:note.obj
 0001:0003f950       ?RemoveCategory@?$CPOOMItem@VCNote@@@@WBI@AAJPBG@Z 10040950 f i pimstorelib:note.obj
 0001:0003f958       ?MoveToFolder@?$CPOOMItem@VCNote@@@@WBM@AAJPAUIFolder2@@@Z 10040958 f i pimstorelib:note.obj
 0001:0003f960       ?Edit@?$CPOOMItem@VCNote@@@@WBI@AAJPAUHWND__@@@Z 10040960 f i pimstorelib:note.obj
 0001:0003f968       ?RemoveCategory@?$CPOOMItem@VCNote@@@@WBM@AAJPBG@Z 10040968 f i pimstorelib:note.obj
 0001:0003f970       ?get_Application@?$CPOOMItem@VCNote@@@@W7AAJPAPAUIPOutlookApp3@@@Z 10040970 f i pimstorelib:note.obj
 0001:0003f978       ??_E?$CPOOMItem@VCNote@@@@O7AAPAXI@Z 10040978 f i pimstorelib:note.obj
 0001:0003f980       ?get_Parent@?$CPOOMItem@VCNote@@@@W3AAJPAPAUIFolder@@@Z 10040980 f i pimstorelib:note.obj
 0001:0003f988       ?OpenProperty@?$CPOOMItem@VCNote@@@@WBI@AAJKKPAPAUIStream@@@Z 10040988 f i pimstorelib:note.obj
 0001:0003f990       ?get_Store@?$CPOOMItem@VCNote@@@@WBM@AAJPAPAUIStore@@@Z 10040990 f i pimstorelib:note.obj
 0001:0003f998       ?AddRef@?$CPOOMItem@VCNote@@@@UAAKXZ 10040998 f i pimstorelib:note.obj
 0001:0003f9a0       ?Release@?$CPOOMItem@VCNote@@@@UAAKXZ 100409a0 f i pimstorelib:note.obj
 0001:0003f9d4       ??_E?$CPOOMItem@VCNote@@@@MAAPAXI@Z 100409d4 f i pimstorelib:note.obj
 0001:0003f9d4       ??_G?$CPOOMItem@VCNote@@@@MAAPAXI@Z 100409d4 f i pimstorelib:note.obj
 0001:0003f9f8       ?Release@?$CPOOMItem@VCNote@@@@WBI@AAKXZ 100409f8 f i pimstorelib:note.obj
 0001:0003fa00       ?AddRef@?$CPOOMItem@VCNote@@@@WBI@AAKXZ 10040a00 f i pimstorelib:note.obj
 0001:0003fa08       ?InitializeExisting@CNote@@AAAJUUSOID@@@Z 10040a08 f   pimstorelib:note.obj
 0001:0003fba4       ?GetTypeSpecificProp@CNote@@UAAJKPAU_CEPROPVAL@@PAEKPAK@Z 10040ba4 f   pimstorelib:note.obj
 0001:0003ff2c       ??0?$CPOOMItem@VCNote@@@@QAA@PAVCPOutlookApp@@@Z 10040f2c f i pimstorelib:note.obj
 0001:0003ff80       ??0CNote@@AAA@PAVCPOutlookApp@@@Z 10040f80 f i pimstorelib:note.obj
 0001:0003ffd8       ?TypeSpecificPropsModified@CNote@@UAAHXZ 10040fd8 f i pimstorelib:note.obj
 0001:0003ffe0       ??_ECNote@@G7AAPAXI@Z      10040fe0 f i pimstorelib:note.obj
 0001:0003ffe8       ?QueryInterface@CNote@@UAAJABU_GUID@@PAPAX@Z 10040fe8 f i pimstorelib:note.obj
 0001:0003ffec       ?GetTypeInfoCount@CNote@@UAAJPAI@Z 10040fec f i pimstorelib:note.obj
 0001:0003fff0       ?GetTypeInfo@CNote@@UAAJIKPAPAUITypeInfo@@@Z 10040ff0 f i pimstorelib:note.obj
 0001:0003fff4       ?GetIDsOfNames@CNote@@UAAJABU_GUID@@PAPAGIKPAJ@Z 10040ff4 f i pimstorelib:note.obj
 0001:00040018       ?Invoke@CNote@@UAAJJABU_GUID@@KGPAUtagDISPPARAMS@@PAUtagVARIANT@@PAUtagEXCEPINFO@@PAI@Z 10041018 f i pimstorelib:note.obj
 0001:00040060       ?get_ItemType@CNote@@UAAJPAW4OlItemType@@@Z 10041060 f i pimstorelib:note.obj
 0001:0004007c       ?get_Id@CNote@@UAAJPAUOLITEMID@@@Z 1004107c f i pimstorelib:note.obj
 0001:00040084       ?get_Parent@CNote@@UAAJPAPAUIFolder2@@@Z 10041084 f i pimstorelib:note.obj
 0001:00040088       ?get_Store@CNote@@UAAJPAPAUIStore@@@Z 10041088 f i pimstorelib:note.obj
 0001:0004008c       ?Save@CNote@@UAAJXZ        1004108c f i pimstorelib:note.obj
 0001:000400d8       ?Delete@CNote@@UAAJXZ      100410d8 f i pimstorelib:note.obj
 0001:00040138       ?get_Application@CNote@@UAAJPAPAUIPOutlookApp3@@@Z 10041138 f i pimstorelib:note.obj
 0001:00040140       ?get_Application@CNote@@W7AAJPAPAUIPOutlookApp3@@@Z 10041140 f i pimstorelib:note.obj
 0001:00040148       ?Invoke@CNote@@WGM@AAJJABU_GUID@@KGPAUtagDISPPARAMS@@PAUtagVARIANT@@PAUtagEXCEPINFO@@PAI@Z 10041148 f i pimstorelib:note.obj
 0001:00040150       ?get_Store@CNote@@WBM@AAJPAPAUIStore@@@Z 10041150 f i pimstorelib:note.obj
 0001:00040158       ?GetIDsOfNames@CNote@@WGE@AAJABU_GUID@@PAPAGIKPAJ@Z 10041158 f i pimstorelib:note.obj
 0001:00040160       ?get_ItemType@CNote@@WBM@AAJPAW4OlItemType@@@Z 10041160 f i pimstorelib:note.obj
 0001:00040168       ?Save@CNote@@WBI@AAJXZ     10041168 f i pimstorelib:note.obj
 0001:00040170       ?GetTypeInfoCount@CNote@@WGE@AAJPAI@Z 10041170 f i pimstorelib:note.obj
 0001:00040178       ?Delete@CNote@@WBI@AAJXZ   10041178 f i pimstorelib:note.obj
 0001:00040180       ?QueryInterface@CNote@@WGM@AAJABU_GUID@@PAPAX@Z 10041180 f i pimstorelib:note.obj
 0001:00040188       ?get_Id@CNote@@WBM@AAJPAUOLITEMID@@@Z 10041188 f i pimstorelib:note.obj
 0001:00040190       ?GetTypeInfo@CNote@@WGE@AAJIKPAPAUITypeInfo@@@Z 10041190 f i pimstorelib:note.obj
 0001:00040198       ?get_Parent@CNote@@WBM@AAJPAPAUIFolder2@@@Z 10041198 f i pimstorelib:note.obj
 0001:000401a0       ?QueryInterface@CNote@@WBI@AAJABU_GUID@@PAPAX@Z 100411a0 f i pimstorelib:note.obj
 0001:000401a8       ?AddRef@CNote@@UAAKXZ      100411a8 f i pimstorelib:note.obj
 0001:000401b0       ?Release@CNote@@UAAKXZ     100411b0 f i pimstorelib:note.obj
 0001:000401e4       ??1CNote@@EAA@XZ           100411e4 f i pimstorelib:note.obj
 0001:0004023c       ??_ECNote@@EAAPAXI@Z       1004123c f i pimstorelib:note.obj
 0001:0004023c       ??_GCNote@@EAAPAXI@Z       1004123c f i pimstorelib:note.obj
 0001:00040260       ?Release@CNote@@WGM@AAKXZ  10041260 f i pimstorelib:note.obj
 0001:00040268       ?AddRef@CNote@@WGM@AAKXZ   10041268 f i pimstorelib:note.obj
 0001:00040270       ?Release@CNote@@WBI@AAKXZ  10041270 f i pimstorelib:note.obj
 0001:00040278       ?AddRef@CNote@@WBI@AAKXZ   10041278 f i pimstorelib:note.obj
 0001:00040280       ?CreateInstance@CNote@@CAJPAVCPOutlookApp@@PAUIUSFolder@@PAUUSOID@@PAPAV1@@Z 10041280 f   pimstorelib:note.obj
 0001:00040324       ?_Copy@CNote@@AAAJPAPAV1@@Z 10041324 f   pimstorelib:note.obj
 0001:000403f8       ?Copy@CNote@@UAAJPAPAV1@@Z 100413f8 f i pimstorelib:note.obj
 0001:0004044c       ?CreateInstance@CNote@@SAJPAVCPOutlookApp@@PAUIUSFolder@@PAUUSOID@@PAPAUIItem2@@@Z 1004144c f   pimstorelib:note.obj
 0001:00040474       ?get_DefaultItemType@CItemProvider@@UAAJPAH@Z 10041474 f   pimstorelib:item.obj
 0001:00040488       ?StartTransaction@CItemProvider@@IAAJXZ 10041488 f   pimstorelib:item.obj
 0001:000404ac       ?EndTransaction@CItemProvider@@IAAJH@Z 100414ac f   pimstorelib:item.obj
 0001:000404d0       ?CopyCachedItemProps@CItemProvider@@QAAJPAUIItem2@@@Z 100414d0 f   pimstorelib:item.obj
 0001:00040570       ?GetSupportedStreamPropIds@CItemProvider@@UAAJPAPAKPAK@Z 10041570 f   pimstorelib:item.obj
 0001:000405b4       ?OpenProperty@CItemProvider@@UAAJKKPAPAUIStream@@@Z 100415b4 f   pimstorelib:item.obj
 0001:000407e4       ?AddCategory@CItemProvider@@UAAJPBG@Z 100417e4 f   pimstorelib:item.obj
 0001:00040858       ?RemoveCategory@CItemProvider@@UAAJPBG@Z 10041858 f   pimstorelib:item.obj
 0001:000408c4       ?get_Categories@CItemProvider@@UAAJPAPAG@Z 100418c4 f   pimstorelib:item.obj
 0001:00040910       ?NormalizeCategoryString@@YAJPAGPAPAG@Z 10041910 f   pimstorelib:item.obj
 0001:000409fc       ?put_Categories@CItemProvider@@UAAJPAG@Z 100419fc f   pimstorelib:item.obj
 0001:00040ab0       ?CacheTypeSpecificProps@CItemProvider@@UAAJGPAU_CEPROPVAL@@PAG@Z 10041ab0 f   pimstorelib:item.obj
 0001:00040c88       ?GetParentFolderCache@CItemProvider@@IAAJPAPAUIUSFolder@@@Z 10041c88 f   pimstorelib:item.obj
 0001:00040cb4       ?HandleDeletedProp@@YAXPAU_CEPROPVAL@@H@Z 10041cb4 f   pimstorelib:item.obj
 0001:00040e1c       ?GetItemProp@CItemProvider@@QAAJKPAU_CEPROPVAL@@PAEKPAK@Z 10041e1c f   pimstorelib:item.obj
 0001:00040e90       ?Copy@?$CPOOMItem@UIContact2@@@@UAAJPAPAUIItem2@@@Z 10041e90 f i pimstorelib:item.obj
 0001:00040f08       ?Copy@?$CPOOMItem@UITask2@@@@UAAJPAPAUIItem2@@@Z 10041f08 f i pimstorelib:item.obj
 0001:00040f80       ?Copy@?$CPOOMItem@VCNote@@@@UAAJPAPAUIItem2@@@Z 10041f80 f i pimstorelib:item.obj
 0001:00040ff8       ?Copy@?$CPOOMItem@VCMailItem@@@@UAAJPAPAUIItem2@@@Z 10041ff8 f i pimstorelib:item.obj
 0001:00041070       ?Copy@?$CPOOMItem@UIAppointment2@@@@UAAJPAPAUIItem2@@@Z 10042070 f i pimstorelib:item.obj
 0001:000410e8       ?Copy@?$CPOOMItem@UIFolder2@@@@UAAJPAPAUIItem2@@@Z 100420e8 f i pimstorelib:item.obj
 0001:00041160       ??0CItemProvider@@QAA@PAVCPOutlookApp@@@Z 10042160 f   pimstorelib:item.obj
 0001:000411ac       ??_E?$CComPtr@UIStream@@@ATL@@QAAPAXI@Z 100421ac f i pimstorelib:item.obj
 0001:00041234       ?DeleteItem@CItemProvider@@QAAJXZ 10042234 f   pimstorelib:item.obj
 0001:000412d4       ?_get_Parent@CItemProvider@@AAAJPAPAUIFolder2@@@Z 100422d4 f   pimstorelib:item.obj
 0001:000413e0       ?get_Id@CItemProvider@@UAAJPAUOLITEMID@@@Z 100423e0 f   pimstorelib:item.obj
 0001:00041494       ?EnsureCategoriesInitialized@CItemProvider@@MAAJXZ 10042494 f   pimstorelib:item.obj
 0001:000415c8       ?SaveStream@CItemProvider@@IAAJPAUIStream@@K@Z 100425c8 f   pimstorelib:item.obj
 0001:000416ec       ?GetLegacyPimOid@CItemProvider@@QAAJPAK@Z 100426ec f   pimstorelib:item.obj
 0001:00041768       ?_CopyToFolder@?$CPOOMItem@UIContact2@@@@AAAJPAUIFolder2@@PAPAUIItem2@@@Z 10042768 f i pimstorelib:item.obj
 0001:0004186c       ?_CopyToFolder@?$CPOOMItem@UITask2@@@@AAAJPAUIFolder2@@PAPAUIItem2@@@Z 1004286c f i pimstorelib:item.obj
 0001:00041970       ?_CopyToFolder@?$CPOOMItem@VCNote@@@@AAAJPAUIFolder2@@PAPAUIItem2@@@Z 10042970 f i pimstorelib:item.obj
 0001:00041a74       ?_CopyToFolder@?$CPOOMItem@VCMailItem@@@@AAAJPAUIFolder2@@PAPAUIItem2@@@Z 10042a74 f i pimstorelib:item.obj
 0001:00041b78       ?_CopyToFolder@?$CPOOMItem@UIAppointment2@@@@AAAJPAUIFolder2@@PAPAUIItem2@@@Z 10042b78 f i pimstorelib:item.obj
 0001:00041c7c       ?_CopyToFolder@?$CPOOMItem@UIFolder2@@@@AAAJPAUIFolder2@@PAPAUIItem2@@@Z 10042c7c f i pimstorelib:item.obj
 0001:00041d88       ?CopyItem@CItemProvider@@QAAJPAUUSOID@@@Z 10042d88 f   pimstorelib:item.obj
 0001:00042204       ?SaveItem@CItemProvider@@QAAJH@Z 10043204 f   pimstorelib:item.obj
 0001:000423a8       ?get_Oid@CItemProvider@@UAAJPAJ@Z 100433a8 f   pimstorelib:item.obj
 0001:0004241c       ?SetParentFolder@CItemProvider@@IAAJPAUIUSFolder@@@Z 1004341c f   pimstorelib:item.obj
 0001:00042434       ?GetParentFolder@CItemProvider@@MAAJPAPAUIUSFolder@@@Z 10043434 f   pimstorelib:item.obj
 0001:0004256c       ?Copy@?$CPOOMItem@UIContact2@@@@UAAJPAPAUIItem@@@Z 1004356c f i pimstorelib:item.obj
 0001:00042638       ?Copy@?$CPOOMItem@UITask2@@@@UAAJPAPAUIItem@@@Z 10043638 f i pimstorelib:item.obj
 0001:00042704       ?Copy@?$CPOOMItem@VCNote@@@@UAAJPAPAUIItem@@@Z 10043704 f i pimstorelib:item.obj
 0001:000427d0       ?Copy@?$CPOOMItem@VCMailItem@@@@UAAJPAPAUIItem@@@Z 100437d0 f i pimstorelib:item.obj
 0001:0004289c       ?Copy@?$CPOOMItem@UIAppointment2@@@@UAAJPAPAUIItem@@@Z 1004389c f i pimstorelib:item.obj
 0001:00042968       ?Copy@?$CPOOMItem@UIFolder2@@@@UAAJPAPAUIItem@@@Z 10043968 f i pimstorelib:item.obj
 0001:00042a34       ??1CItemProvider@@QAA@XZ   10043a34 f   pimstorelib:item.obj
 0001:00042abc       ?InitHelper@CItemProvider@@AAAJXZ 10043abc f   pimstorelib:item.obj
 0001:00042b70       ?get_Store@CItemProvider@@UAAJPAPAUIStore@@@Z 10043b70 f   pimstorelib:item.obj
 0001:00042d84       ?_MoveToFolder@CItemProvider@@AAAJPAUIFolder2@@@Z 10043d84 f   pimstorelib:item.obj
 0001:00042ee8       ?_get_Parent@CItemProvider@@AAAJPAPAUIFolder@@@Z 10043ee8 f   pimstorelib:item.obj
 0001:00042fd4       ?InitNewItem@CItemProvider@@QAAJPAUIUSFolder@@@Z 10043fd4 f   pimstorelib:item.obj
 0001:0004302c       ?InitExistingItem@CItemProvider@@QAAJPAUIUSObject@@@Z 1004402c f   pimstorelib:item.obj
 0001:0004305c       ??0CDispatchProvider@@QAA@PAVCPOutlookApp@@@Z 1004405c f   pimstorelib:dispprv.obj
 0001:00043098       ??1CDispatchProvider@@UAA@XZ 10044098 f   pimstorelib:dispprv.obj
 0001:000430f0       ??_GCDispatchProvider@@UAAPAXI@Z 100440f0 f i pimstorelib:dispprv.obj
 0001:000430f0       ??_ECDispatchProvider@@UAAPAXI@Z 100440f0 f i pimstorelib:dispprv.obj
 0001:00043114       ?GetTypeInfoCount@CDispatchProvider@@UAAJPAI@Z 10044114 f   pimstorelib:dispprv.obj
 0001:00043130       ?GetTypeInfo@CDispatchProvider@@UAAJIKPAPAUITypeInfo@@@Z 10044130 f   pimstorelib:dispprv.obj
 0001:00043198       ?GetIDsOfNames@CDispatchProvider@@UAAJABU_GUID@@PAPAGIKPAJ@Z 10044198 f   pimstorelib:dispprv.obj
 0001:00043200       ?Invoke@CDispatchProvider@@UAAJJABU_GUID@@KGPAUtagDISPPARAMS@@PAUtagVARIANT@@PAUtagEXCEPINFO@@PAIPAUIDispatch@@@Z 10044200 f   pimstorelib:dispprv.obj
 0001:000432b4       ?get_Application@CDispatchProvider@@UAAJPAPAUIPOutlookApp3@@@Z 100442b4 f   pimstorelib:dispprv.obj
 0001:00043308       ?get_Application@CDispatchProvider@@UAAJPAPAUIPOutlookApp@@@Z 10044308 f   pimstorelib:dispprv.obj
 0001:000433c4       ?CacheTypeSpecificProps@CPropertyHandler@@UAAJGPAU_CEPROPVAL@@PAG@Z 100443c4 f   pimstorelib:PropertyHandler.obj
 0001:00043438       ?SetProps@CPropertyHandler@@UAAJKGPAU_CEPROPVAL@@@Z 10044438 f   pimstorelib:PropertyHandler.obj
 0001:00043518       ?GetProps@CPropertyHandler@@UAAJPBKKGPAPAU_CEPROPVAL@@PAKPAX@Z 10044518 f   pimstorelib:PropertyHandler.obj
 0001:00043594       ??0CPropertyHandler@@QAA@PAVCPOutlookApp@@@Z 10044594 f   pimstorelib:PropertyHandler.obj
 0001:000435e4       ?IsEqualObject@?$CComPtrBase@UIUSObject@@@ATL@@QAA_NPAUIUnknown@@@Z 100445e4 f i pimstorelib:PropertyHandler.obj
 0001:000436b0       ?InitPropertyHandler@CPropertyHandler@@QAAJPAUIUSObject@@@Z 100446b0 f   pimstorelib:PropertyHandler.obj
 0001:0004377c       ?SetUSObject@CPropertyHandler@@IAAJPAUIUSObject@@@Z 1004477c f   pimstorelib:PropertyHandler.obj
 0001:000437c0       ??1CPropertyHandler@@QAA@XZ 100447c0 f   pimstorelib:PropertyHandler.obj
 0001:00043844       ?GetNamedProp@CPropertyHandler@@QAAJKPAU_CEPROPVAL@@PAEKPAK@Z 10044844 f   pimstorelib:PropertyHandler.obj
 0001:000438d0       ?EnsureStoreObject@CPropertyHandler@@QAAJXZ 100448d0 f   pimstorelib:PropertyHandler.obj
 0001:000439d8       ?GetUSObject@CPropertyHandler@@QAAJPAPAUIUSObject@@@Z 100449d8 f   pimstorelib:PropertyHandler.obj
 0001:00043a6c       ?SaveNamedProps@CPropertyHandler@@IAAJXZ 10044a6c f   pimstorelib:PropertyHandler.obj
 0001:00043ab4       ?CreateHashRestriction@@YAJKW4__MIDL___MIDL_itf_unistore_0000_0000_0002@@PBGPAUIUSFolder@@HPAU_USRestriction@@@Z 10044ab4 f   pimstorelib:FindMatchingContactHelper.obj
 0001:00043c44       ?FindFileAs@FindMatchingContactHelper@@SAJPAUIUSStore@@PAUIUSFolder@@PBGHPAUUSOID@@@Z 10044c44 f   pimstorelib:FindMatchingContactHelper.obj
 0001:00043e10       ?FindEmailPrefixRecord@FindMatchingContactHelper@@SAJPAUIUSStore@@PAUIUSFolder@@PBGHPAIPAUUSOID@@@Z 10044e10 f   pimstorelib:FindMatchingContactHelper.obj
 0001:00044350       ?FindPhonePrefixRecord@FindMatchingContactHelper@@SAJPAUIUSStore@@PAUIUSFolder@@PBGHPAUUSOID@@@Z 10045350 f   pimstorelib:FindMatchingContactHelper.obj
 0001:0004480c       ?QueryInterface@_CUnknownBase@@UAAJABU_GUID@@PAPAX@Z 1004580c f i pimstorelib:PictureStream.obj
 0001:00044818       ?AddRef@_CUnknownBase@@UAAKXZ 10045818 f i pimstorelib:PictureStream.obj
 0001:00044820       ?Release@_CUnknownBase@@UAAKXZ 10045820 f i pimstorelib:PictureStream.obj
 0001:00044858       ??_E_CUnknownBase@@MAAPAXI@Z 10045858 f i pimstorelib:PictureStream.obj
 0001:00044858       ??_G_CUnknownBase@@MAAPAXI@Z 10045858 f i pimstorelib:PictureStream.obj
 0001:0004487c       ?QueryInterface@PictureStream@@UAAJABU_GUID@@PAPAX@Z 1004587c f   pimstorelib:PictureStream.obj
 0001:00044910       ??_ECUnknownPrivate@@UAAPAXI@Z 10045910 f i pimstorelib:PictureStream.obj
 0001:00044910       ??_GCUnknownPrivate@@UAAPAXI@Z 10045910 f i pimstorelib:PictureStream.obj
 0001:00044934       ??1PictureStream@@MAA@XZ   10045934 f   pimstorelib:PictureStream.obj
 0001:000449a4       ??_EPictureStream@@O3AAPAXI@Z 100459a4 f i pimstorelib:PictureStream.obj
 0001:000449ac       ?Read@PictureStream@@UAAJPAXKPAK@Z 100459ac f i pimstorelib:PictureStream.obj
 0001:000449d8       ?Write@PictureStream@@UAAJPBXKPAK@Z 100459d8 f i pimstorelib:PictureStream.obj
 0001:00044a04       ?Seek@PictureStream@@UAAJT_LARGE_INTEGER@@KPAT_ULARGE_INTEGER@@@Z 10045a04 f i pimstorelib:PictureStream.obj
 0001:00044a54       ?SetSize@PictureStream@@UAAJT_ULARGE_INTEGER@@@Z 10045a54 f i pimstorelib:PictureStream.obj
 0001:00044a90       ?CopyTo@PictureStream@@UAAJPAUIStream@@T_ULARGE_INTEGER@@PAT3@2@Z 10045a90 f i pimstorelib:PictureStream.obj
 0001:00044ae8       ?Revert@PictureStream@@UAAJXZ 10045ae8 f i pimstorelib:PictureStream.obj
 0001:00044b14       ?LockRegion@PictureStream@@UAAJT_ULARGE_INTEGER@@0K@Z 10045b14 f i pimstorelib:PictureStream.obj
 0001:00044b70       ?UnlockRegion@PictureStream@@UAAJT_ULARGE_INTEGER@@0K@Z 10045b70 f i pimstorelib:PictureStream.obj
 0001:00044bcc       ?Stat@PictureStream@@UAAJPAUtagSTATSTG@@K@Z 10045bcc f i pimstorelib:PictureStream.obj
 0001:00044bf8       ?Clone@PictureStream@@UAAJPAPAUIStream@@@Z 10045bf8 f i pimstorelib:PictureStream.obj
 0001:00044c24       ?AddRef@PictureStream@@UAAKXZ 10045c24 f i pimstorelib:PictureStream.obj
 0001:00044c2c       ?Release@PictureStream@@UAAKXZ 10045c2c f i pimstorelib:PictureStream.obj
 0001:00044c6c       ?Commit@PictureStream@@UAAJK@Z 10045c6c f   pimstorelib:PictureStream.obj
 0001:00044d38       ?Release@PictureStream@@W3AAKXZ 10045d38 f i pimstorelib:PictureStream.obj
 0001:00044d40       ?AddRef@PictureStream@@W3AAKXZ 10045d40 f i pimstorelib:PictureStream.obj
 0001:00044d48       ?QueryInterface@PictureStream@@W3AAJABU_GUID@@PAPAX@Z 10045d48 f i pimstorelib:PictureStream.obj
 0001:00044d50       ??_GPictureStream@@MAAPAXI@Z 10045d50 f i pimstorelib:PictureStream.obj
 0001:00044d50       ??_EPictureStream@@MAAPAXI@Z 10045d50 f i pimstorelib:PictureStream.obj
 0001:00044d74       ?CreateInstance@PictureStream@@SAJPAUIStream@@PAVCContact@@PAPAU2@@Z 10045d74 f   pimstorelib:PictureStream.obj
 0001:00044e6c       ?Reset@CPOOMEnum@@UAAJXZ   10045e6c f   pimstorelib:enum.obj
 0001:00044e7c       ??_G?$CUnknownImpl@UIEnumVARIANT@@@@UAAPAXI@Z 10045e7c f i pimstorelib:enum.obj
 0001:00044e7c       ??_E?$CUnknownImpl@UIEnumVARIANT@@@@UAAPAXI@Z 10045e7c f i pimstorelib:enum.obj
 0001:00044eb4       ??1CPOOMEnum@@UAA@XZ       10045eb4 f   pimstorelib:enum.obj
 0001:00044ef4       ?QueryInterface@CPOOMEnum@@UAAJABU_GUID@@PAPAX@Z 10045ef4 f   pimstorelib:enum.obj
 0001:00044fa0       ??_ECPOOMEnum@@UAAPAXI@Z   10045fa0 f i pimstorelib:enum.obj
 0001:00044fa0       ??_GCPOOMEnum@@UAAPAXI@Z   10045fa0 f i pimstorelib:enum.obj
 0001:00044fc4       ??0CPOOMEnum@@QAA@PAUIDispatch@@@Z 10045fc4 f   pimstorelib:enum.obj
 0001:00045020       ?Next@CPOOMEnum@@UAAJKPAUtagVARIANT@@PAK@Z 10046020 f   pimstorelib:enum.obj
 0001:00045140       ?GetNextDispatch@CPOOMItemsEnum@@EAAJPAPAUIDispatch@@@Z 10046140 f   pimstorelib:enum.obj
 0001:0004522c       ?Skip@CPOOMItemsEnum@@UAAJK@Z 1004622c f   pimstorelib:enum.obj
 0001:000453c0       ?GetNextDispatch@CPOOMFoldersEnum@@EAAJPAPAUIDispatch@@@Z 100463c0 f   pimstorelib:enum.obj
 0001:00045510       ?Skip@CPOOMFoldersEnum@@UAAJK@Z 10046510 f   pimstorelib:enum.obj
 0001:000455dc       ?GetNextDispatch@CPOOMStoresEnum@@EAAJPAPAUIDispatch@@@Z 100465dc f   pimstorelib:enum.obj
 0001:0004572c       ?Skip@CPOOMStoresEnum@@UAAJK@Z 1004672c f   pimstorelib:enum.obj
 0001:000457f8       ?GetNextDispatch@CPOOMRecipientsEnum@@EAAJPAPAUIDispatch@@@Z 100467f8 f   pimstorelib:enum.obj
 0001:00045948       ?Skip@CPOOMRecipientsEnum@@UAAJK@Z 10046948 f   pimstorelib:enum.obj
 0001:00045a14       ?GetNextDispatch@CPOOMExceptionsEnum@@EAAJPAPAUIDispatch@@@Z 10046a14 f   pimstorelib:enum.obj
 0001:00045b64       ?Skip@CPOOMExceptionsEnum@@UAAJK@Z 10046b64 f   pimstorelib:enum.obj
 0001:00045c30       ??_ECPOOMRecipientsEnum@@UAAPAXI@Z 10046c30 f i pimstorelib:enum.obj
 0001:00045c30       ??_GCPOOMRecipientsEnum@@UAAPAXI@Z 10046c30 f i pimstorelib:enum.obj
 0001:00045c54       ??_ECPOOMExceptionsEnum@@UAAPAXI@Z 10046c54 f i pimstorelib:enum.obj
 0001:00045c54       ??_GCPOOMExceptionsEnum@@UAAPAXI@Z 10046c54 f i pimstorelib:enum.obj
 0001:00045c78       ??_ECPOOMFoldersEnum@@UAAPAXI@Z 10046c78 f i pimstorelib:enum.obj
 0001:00045c78       ??_GCPOOMFoldersEnum@@UAAPAXI@Z 10046c78 f i pimstorelib:enum.obj
 0001:00045c9c       ??_GCPOOMStoresEnum@@UAAPAXI@Z 10046c9c f i pimstorelib:enum.obj
 0001:00045c9c       ??_ECPOOMStoresEnum@@UAAPAXI@Z 10046c9c f i pimstorelib:enum.obj
 0001:00045cc0       ?Clone@CPOOMItemsEnum@@UAAJPAPAUIEnumVARIANT@@@Z 10046cc0 f   pimstorelib:enum.obj
 0001:00045d24       ?Clone@CPOOMFoldersEnum@@UAAJPAPAUIEnumVARIANT@@@Z 10046d24 f   pimstorelib:enum.obj
 0001:00045d88       ?Clone@CPOOMStoresEnum@@UAAJPAPAUIEnumVARIANT@@@Z 10046d88 f   pimstorelib:enum.obj
 0001:00045dec       ?Clone@CPOOMRecipientsEnum@@UAAJPAPAUIEnumVARIANT@@@Z 10046dec f   pimstorelib:enum.obj
 0001:00045e50       ?Clone@CPOOMExceptionsEnum@@UAAJPAPAUIEnumVARIANT@@@Z 10046e50 f   pimstorelib:enum.obj
 0001:00045eb4       ?AddRef@?$CUnknownImpl@UIPOutlookStoreCollection@@@@UAAKXZ 10046eb4 f i pimstorelib:StoreCollection.obj
 0001:00045ebc       ?Release@?$CUnknownImpl@UIPOutlookStoreCollection@@@@UAAKXZ 10046ebc f i pimstorelib:StoreCollection.obj
 0001:00045ef0       ??_G?$CUnknownImpl@UIPOutlookStoreCollection@@@@UAAPAXI@Z 10046ef0 f i pimstorelib:StoreCollection.obj
 0001:00045ef0       ??_E?$CUnknownImpl@UIPOutlookStoreCollection@@@@UAAPAXI@Z 10046ef0 f i pimstorelib:StoreCollection.obj
 0001:00045f28       ?QueryInterface@CStoreCollection@@UAAJABU_GUID@@PAPAX@Z 10046f28 f   pimstorelib:StoreCollection.obj
 0001:00045fc8       ?_get_Count@CStoreCollection@@AAAJPAH@Z 10046fc8 f   pimstorelib:StoreCollection.obj
 0001:00046030       ?_get__NewEnum@CStoreCollection@@AAAJPAPAUIUnknown@@@Z 10047030 f   pimstorelib:StoreCollection.obj
 0001:0004609c       ??1CStoreCollection@@UAA@XZ 1004709c f   pimstorelib:StoreCollection.obj
 0001:000461a4       ??_ECStoreCollection@@W7AAPAXI@Z 100471a4 f i pimstorelib:StoreCollection.obj
 0001:000461ac       ?GetTypeInfoCount@?$CDispatchImpl@UIPOutlookStoreCollection@@@@UAAJPAI@Z 100471ac f i pimstorelib:StoreCollection.obj
 0001:000461b4       ?GetTypeInfo@?$CDispatchImpl@UIPOutlookStoreCollection@@@@UAAJIKPAPAUITypeInfo@@@Z 100471b4 f i pimstorelib:StoreCollection.obj
 0001:000461bc       ?GetIDsOfNames@?$CDispatchImpl@UIPOutlookStoreCollection@@@@UAAJABU_GUID@@PAPAGIKPAJ@Z 100471bc f i pimstorelib:StoreCollection.obj
 0001:000461e4       ?Invoke@?$CDispatchImpl@UIPOutlookStoreCollection@@@@UAAJJABU_GUID@@KGPAUtagDISPPARAMS@@PAUtagVARIANT@@PAUtagEXCEPINFO@@PAI@Z 100471e4 f i pimstorelib:StoreCollection.obj
 0001:0004622c       ?get_Application@?$CDispatchImpl@UIPOutlookStoreCollection@@@@UAAJPAPAUIPOutlookApp@@@Z 1004722c f i pimstorelib:StoreCollection.obj
 0001:00046230       ?GetTypeInfo@?$CDispatchImpl@UIPOutlookStoreCollection@@@@W7AAJIKPAPAUITypeInfo@@@Z 10047230 f i pimstorelib:StoreCollection.obj
 0001:00046238       ?GetIDsOfNames@?$CDispatchImpl@UIPOutlookStoreCollection@@@@W7AAJABU_GUID@@PAPAGIKPAJ@Z 10047238 f i pimstorelib:StoreCollection.obj
 0001:00046240       ?GetTypeInfoCount@?$CDispatchImpl@UIPOutlookStoreCollection@@@@W7AAJPAI@Z 10047240 f i pimstorelib:StoreCollection.obj
 0001:00046248       ?get_Count@CStoreCollection@@UAAJPAH@Z 10047248 f i pimstorelib:StoreCollection.obj
 0001:00046288       ?get__NewEnum@CStoreCollection@@UAAJPAPAUIUnknown@@@Z 10047288 f i pimstorelib:StoreCollection.obj
 0001:000462c8       ?GetStore@CStoreCollection@@UAAJHPAPAUIStore@@@Z 100472c8 f i pimstorelib:StoreCollection.obj
 0001:00046328       ?AddRef@?$CDispatchImpl@UIPOutlookStoreCollection@@@@UAAKXZ 10047328 f i pimstorelib:StoreCollection.obj
 0001:00046330       ?Release@?$CDispatchImpl@UIPOutlookStoreCollection@@@@UAAKXZ 10047330 f i pimstorelib:StoreCollection.obj
 0001:00046364       ?_get_Application@CStoreCollection@@AAAJPAPAUIPOutlookApp3@@@Z 10047364 f   pimstorelib:StoreCollection.obj
 0001:000463c8       ?_Find@CStoreCollection@@AAAJPAGPAPAUIStore@@@Z 100473c8 f   pimstorelib:StoreCollection.obj
 0001:00046578       ?_FindNext@CStoreCollection@@AAAJPAPAUIStore@@@Z 10047578 f   pimstorelib:StoreCollection.obj
 0001:00046600       ?get_Application@CStoreCollection@@UAAJPAPAUIPOutlookApp3@@@Z 10047600 f i pimstorelib:StoreCollection.obj
 0001:00046604       ?Find@CStoreCollection@@UAAJPAGPAPAUIStore@@@Z 10047604 f i pimstorelib:StoreCollection.obj
 0001:0004664c       ?FindNext@CStoreCollection@@UAAJPAPAUIStore@@@Z 1004764c f i pimstorelib:StoreCollection.obj
 0001:0004668c       ??_GCStoreCollection@@UAAPAXI@Z 1004768c f i pimstorelib:StoreCollection.obj
 0001:0004668c       ??_ECStoreCollection@@UAAPAXI@Z 1004768c f i pimstorelib:StoreCollection.obj
 0001:000466b0       ?Initialize@CStoreCollection@@QAAJKPAPAGPAFPAUIRestriction@@@Z 100476b0 f   pimstorelib:StoreCollection.obj
 0001:00046814       ??0?$CDispatchImpl@UIPOutlookStoreCollection@@@@QAA@PAVCPOutlookApp@@@Z 10047814 f i pimstorelib:StoreCollection.obj
 0001:0004686c       ??_E?$CDispatchImpl@UIPOutlookStoreCollection@@@@W7AAPAXI@Z 1004786c f i pimstorelib:StoreCollection.obj
 0001:00046874       ?get_Application@?$CDispatchImpl@UIPOutlookStoreCollection@@@@UAAJPAPAUIPOutlookApp3@@@Z 10047874 f i pimstorelib:StoreCollection.obj
 0001:0004687c       ??_E?$CDispatchImpl@UIPOutlookStoreCollection@@@@UAAPAXI@Z 1004787c f i pimstorelib:StoreCollection.obj
 0001:0004687c       ??_G?$CDispatchImpl@UIPOutlookStoreCollection@@@@UAAPAXI@Z 1004787c f i pimstorelib:StoreCollection.obj
 0001:000468bc       ?get_Application@?$CDispatchImpl@UIPOutlookStoreCollection@@@@W7AAJPAPAUIPOutlookApp3@@@Z 100478bc f i pimstorelib:StoreCollection.obj
 0001:000468c4       ?get_Application@CStoreCollection@@W7AAJPAPAUIPOutlookApp3@@@Z 100478c4 f i pimstorelib:StoreCollection.obj
 0001:000468cc       ?Sort@CStoreCollection@@UAAJKPAPAGPAF@Z 100478cc f i pimstorelib:StoreCollection.obj
 0001:0004692c       ??0CStoreCollection@@QAA@PAVCPOutlookApp@@@Z 1004792c f   pimstorelib:StoreCollection.obj
 0001:00046998       ?_Restrict@CStoreCollection@@AAAJPAGPAPAUIPOutlookStoreCollection@@@Z 10047998 f   pimstorelib:StoreCollection.obj
 0001:00046a78       ?Restrict@CStoreCollection@@UAAJPAGPAPAUIPOutlookStoreCollection@@@Z 10047a78 f i pimstorelib:StoreCollection.obj
 0001:00046ac0       ??1CPoomNotify@@QAA@XZ     10047ac0 f   pimstorelib:PoomNotifications.obj
 0001:00046af0       ?AddRef@CPoomNotify@@UAAKXZ 10047af0 f   pimstorelib:PoomNotifications.obj
 0001:00046af8       ?EventTypeToPoomNotificationMsg@CPoomNotify@@AAAJW4OlEventType@@HPAI@Z 10047af8 f   pimstorelib:PoomNotifications.obj
 0001:00046b84       ?FolderTypeToIndex@CPoomNotify@@AAAHW4OlDefaultFolders@@@Z 10047b84 f i pimstorelib:PoomNotifications.obj
 0001:00046bd4       ?AddRef@CPoomNotify@@W3AAKXZ 10047bd4 f i pimstorelib:PoomNotifications.obj
 0001:00046bdc       ?Release@CPoomNotify@@UAAKXZ 10047bdc f   pimstorelib:PoomNotifications.obj
 0001:00046c14       ?QueryInterface@CPoomNotify@@UAAJABU_GUID@@PAPAX@Z 10047c14 f   pimstorelib:PoomNotifications.obj
 0001:00046cc8       ?QueryInterface@CPoomNotify@@W3AAJABU_GUID@@PAPAX@Z 10047cc8 f i pimstorelib:PoomNotifications.obj
 0001:00046cd0       ?Release@CPoomNotify@@W3AAKXZ 10047cd0 f i pimstorelib:PoomNotifications.obj
 0001:00046cd8       ?Initialize@CPoomNotify@@AAAJPAVCPOutlookApp@@@Z 10047cd8 f   pimstorelib:PoomNotifications.obj
 0001:00046db4       ?CreateInstance@CPoomNotify@@SAJPAVCPOutlookApp@@PAPAVIPoomNotify@@@Z 10047db4 f   pimstorelib:PoomNotifications.obj
 0001:00046ea4       ?Reset@CPoomNotify@@UAAXXZ 10047ea4 f   pimstorelib:PoomNotifications.obj
 0001:00046f30       ?RegisterNotification@CPoomNotify@@UAAJW4OlDefaultFolders@@E@Z 10047f30 f   pimstorelib:PoomNotifications.obj
 0001:00046f74       ?GetRegisteredNotification@CPoomNotify@@UAAEW4OlDefaultFolders@@@Z 10047f74 f   pimstorelib:PoomNotifications.obj
 0001:00046fb8       ?IsRegisteredForNotifications@CPoomNotify@@UAAHW4OlDefaultFolders@@I@Z 10047fb8 f   pimstorelib:PoomNotifications.obj
 0001:00047030       ?OnEvent@CPoomNotify@@UAAJKKPBUPIMEVENT@@@Z 10048030 f   pimstorelib:PoomNotifications.obj
 0001:00047218       POOM_FreeTimeZoneData      10048218 f   pimstorelib:poomplug.obj
 0001:00047244       POOM_GetBodyInk            10048244 f   pimstorelib:poomplug.obj
 0001:000472ac       POOM_SetBodyInk            100482ac f   pimstorelib:poomplug.obj
 0001:00047340       POOM_FreePimDlgState       10048340 f   pimstorelib:poomplug.obj
 0001:0004734c       POOM_IsRunFromPimApp       1004834c f   pimstorelib:poomplug.obj
 0001:000473f0       POOM_ReleaseParser         100483f0 f   pimstorelib:poomplug.obj
 0001:000473f4       ?AddRef@?$CUnknownImpl@UIStore@@@@UAAKXZ 100483f4 f i pimstorelib:StorePoom.obj
 0001:000473fc       ?Release@?$CUnknownImpl@UIStore@@@@UAAKXZ 100483fc f i pimstorelib:StorePoom.obj
 0001:00047430       ??_E?$CUnknownImpl@UIStore@@@@UAAPAXI@Z 10048430 f i pimstorelib:StorePoom.obj
 0001:00047430       ??_G?$CUnknownImpl@UIStore@@@@UAAPAXI@Z 10048430 f i pimstorelib:StorePoom.obj
 0001:00047468       ?_QueryInterface@CStore@@AAAJABU_GUID@@PAPAX@Z 10048468 f   pimstorelib:StorePoom.obj
 0001:00047510       ?EnsureProp@CStore@@AAAJK@Z 10048510 f   pimstorelib:StorePoom.obj
 0001:000475c4       ?_get_Recipients@CStore@@AAAJW4OlItemType@@PAPAUIPOutlookRecipientCollection@@@Z 100485c4 f   pimstorelib:StorePoom.obj
 0001:00047668       ??1CStore@@UAA@XZ          10048668 f   pimstorelib:StorePoom.obj
 0001:00047724       ??_ECStore@@W7AAPAXI@Z     10048724 f i pimstorelib:StorePoom.obj
 0001:0004772c       ?GetProps@CStore@@UAAJPBKKGPAPAU_CEPROPVAL@@PAKPAX@Z 1004872c f i pimstorelib:StorePoom.obj
 0001:0004779c       ?SetProps@CStore@@UAAJKGPAU_CEPROPVAL@@@Z 1004879c f i pimstorelib:StorePoom.obj
 0001:000477ec       ?TypeSpecificPropsModified@CStore@@EAAHXZ 100487ec f i pimstorelib:StorePoom.obj
 0001:000477f4       ?get_Parent@CStore@@EAAJPAPAUIFolder2@@@Z 100487f4 f i pimstorelib:StorePoom.obj
 0001:00047804       ?GetTypeInfoCount@?$CDispatchImpl@UIStore@@@@UAAJPAI@Z 10048804 f i pimstorelib:StorePoom.obj
 0001:0004780c       ?GetTypeInfo@?$CDispatchImpl@UIStore@@@@UAAJIKPAPAUITypeInfo@@@Z 1004880c f i pimstorelib:StorePoom.obj
 0001:00047814       ?GetIDsOfNames@?$CDispatchImpl@UIStore@@@@UAAJABU_GUID@@PAPAGIKPAJ@Z 10048814 f i pimstorelib:StorePoom.obj
 0001:0004783c       ?Invoke@?$CDispatchImpl@UIStore@@@@UAAJJABU_GUID@@KGPAUtagDISPPARAMS@@PAUtagVARIANT@@PAUtagEXCEPINFO@@PAI@Z 1004883c f i pimstorelib:StorePoom.obj
 0001:00047884       ?get_Application@?$CDispatchImpl@UIStore@@@@UAAJPAPAUIPOutlookApp@@@Z 10048884 f i pimstorelib:StorePoom.obj
 0001:00047888       ?GetIDsOfNames@?$CDispatchImpl@UIStore@@@@W7AAJABU_GUID@@PAPAGIKPAJ@Z 10048888 f i pimstorelib:StorePoom.obj
 0001:00047890       ?SetProps@CStore@@WBI@AAJKGPAU_CEPROPVAL@@@Z 10048890 f i pimstorelib:StorePoom.obj
 0001:00047898       ?GetTypeInfoCount@?$CDispatchImpl@UIStore@@@@W7AAJPAI@Z 10048898 f i pimstorelib:StorePoom.obj
 0001:000478a0       ?GetProps@CStore@@WBI@AAJPBKKGPAPAU_CEPROPVAL@@PAKPAX@Z 100488a0 f i pimstorelib:StorePoom.obj
 0001:000478a8       ?GetTypeInfo@?$CDispatchImpl@UIStore@@@@W7AAJIKPAPAUITypeInfo@@@Z 100488a8 f i pimstorelib:StorePoom.obj
 0001:000478b0       ?QueryInterface@CStore@@UAAJABU_GUID@@PAPAX@Z 100488b0 f i pimstorelib:StorePoom.obj
 0001:000478b4       ?get_DisplayName@CStore@@UAAJPAPAG@Z 100488b4 f i pimstorelib:StorePoom.obj
 0001:00047910       ?get_Recipients@CStore@@UAAJW4OlItemType@@PAPAUIPOutlookRecipientCollection@@@Z 10048910 f i pimstorelib:StorePoom.obj
 0001:00047914       ?AddRef@?$CDispatchImpl@UIStore@@@@UAAKXZ 10048914 f i pimstorelib:StorePoom.obj
 0001:0004791c       ?Release@?$CDispatchImpl@UIStore@@@@UAAKXZ 1004891c f i pimstorelib:StorePoom.obj
 0001:00047950       ?CreateDefaultCategories@CStore@@AAAJXZ 10048950 f   pimstorelib:StorePoom.obj
 0001:00047a4c       ?InitializeNew@CStore@@QAAJPAGK@Z 10048a4c f   pimstorelib:StorePoom.obj
 0001:00047b20       ?FirstInit@CStore@@AAAJXZ  10048b20 f   pimstorelib:StorePoom.obj
 0001:00047c40       ?GetTypeSpecificProp@CStore@@UAAJKPAU_CEPROPVAL@@PAEKPAK@Z 10048c40 f   pimstorelib:StorePoom.obj
 0001:00047cec       ?_Save@CStore@@AAAJXZ      10048cec f   pimstorelib:StorePoom.obj
 0001:00047dac       ?_Delete@CStore@@AAAJXZ    10048dac f   pimstorelib:StorePoom.obj
 0001:00047eb4       ?_get_Id@CStore@@AAAJPAUOLITEMID@@@Z 10048eb4 f   pimstorelib:StorePoom.obj
 0001:00047f18       ?_SetDefaultFolder@CStore@@AAAJPAUIFolder2@@@Z 10048f18 f   pimstorelib:StorePoom.obj
 0001:000481a4       ?_GetItemFromItemId@CStore@@AAAJPAUOLITEMID@@PAPAUIItem2@@@Z 100491a4 f   pimstorelib:StorePoom.obj
 0001:00048250       ?GetIPMRoot@CStore@@AAAJPAPAUIUSFolder@@@Z 10049250 f   pimstorelib:StorePoom.obj
 0001:000483c4       ?_Advise@CStore@@AAAJW4OlObjectType@@KKPAUIChangeEventSink@@PAK@Z 100493c4 f   pimstorelib:StorePoom.obj
 0001:000484f0       ?_Unadvise@CStore@@AAAJK@Z 100494f0 f   pimstorelib:StorePoom.obj
 0001:00048560       ?IsDeviceStore@CStore@@AAAJPAH@Z 10049560 f   pimstorelib:StorePoom.obj
 0001:00048634       ?Save@CStore@@UAAJXZ       10049634 f i pimstorelib:StorePoom.obj
 0001:00048638       ?get_Id@CStore@@UAAJPAUOLITEMID@@@Z 10049638 f i pimstorelib:StorePoom.obj
 0001:00048678       ?SetDefaultFolder@CStore@@UAAJPAUIFolder2@@@Z 10049678 f i pimstorelib:StorePoom.obj
 0001:000486b8       ?GetItemFromItemId@CStore@@UAAJPAUOLITEMID@@PAPAUIItem2@@@Z 100496b8 f i pimstorelib:StorePoom.obj
 0001:00048700       ?Delete@CStore@@UAAJXZ     10049700 f i pimstorelib:StorePoom.obj
 0001:00048738       ?Advise@CStore@@UAAJW4OlObjectType@@KKPAUIChangeEventSink@@PAK@Z 10049738 f i pimstorelib:StorePoom.obj
 0001:0004875c       ?Unadvise@CStore@@UAAJK@Z  1004975c f i pimstorelib:StorePoom.obj
 0001:00048760       ??_GCStore@@UAAPAXI@Z      10049760 f i pimstorelib:StorePoom.obj
 0001:00048760       ??_ECStore@@UAAPAXI@Z      10049760 f i pimstorelib:StorePoom.obj
 0001:00048784       ?InitializeExisting@CStore@@QAAJPAUIUSStore@@@Z 10049784 f   pimstorelib:StorePoom.obj
 0001:000488b8       ?get_Application@CStore@@UAAJPAPAUIPOutlookApp3@@@Z 100498b8 f   pimstorelib:StorePoom.obj
 0001:00048944       ?_GetDefaultFolder@CStore@@AAAJW4OlDefaultFolders@@PAPAUIFolder2@@@Z 10049944 f   pimstorelib:StorePoom.obj
 0001:00048ad8       ?_CreateFolder@CStore@@AAAJPAGW4OlItemType@@PAPAUIFolder2@@@Z 10049ad8 f   pimstorelib:StorePoom.obj
 0001:00048c0c       ?_GetFolderFromId@CStore@@AAAJPAUOLITEMID@@PAPAUIFolder2@@@Z 10049c0c f   pimstorelib:StorePoom.obj
 0001:00048e08       ?_get_Folders@CStore@@AAAJPAPAUIPOutlookFolderCollection@@@Z 10049e08 f   pimstorelib:StorePoom.obj
 0001:00048ed8       ?_get_Items@CStore@@AAAJW4OlItemType@@PAPAUIPOutlookItemCollection2@@@Z 10049ed8 f   pimstorelib:StorePoom.obj
 0001:0004901c       ?CacheTypeSpecificProp@CStore@@EAAJPAU_CEPROPVAL@@@Z 1004a01c f   pimstorelib:StorePoom.obj
 0001:000490ac       ??0?$CDispatchImpl@UIStore@@@@QAA@PAVCPOutlookApp@@@Z 1004a0ac f i pimstorelib:StorePoom.obj
 0001:00049104       ??_E?$CDispatchImpl@UIStore@@@@W7AAPAXI@Z 1004a104 f i pimstorelib:StorePoom.obj
 0001:0004910c       ?get_Application@?$CDispatchImpl@UIStore@@@@UAAJPAPAUIPOutlookApp3@@@Z 1004a10c f i pimstorelib:StorePoom.obj
 0001:00049114       ??_E?$CDispatchImpl@UIStore@@@@UAAPAXI@Z 1004a114 f i pimstorelib:StorePoom.obj
 0001:00049114       ??_G?$CDispatchImpl@UIStore@@@@UAAPAXI@Z 1004a114 f i pimstorelib:StorePoom.obj
 0001:00049154       ?get_Application@?$CDispatchImpl@UIStore@@@@W7AAJPAPAUIPOutlookApp3@@@Z 1004a154 f i pimstorelib:StorePoom.obj
 0001:0004915c       ?get_Application@CStore@@W7AAJPAPAUIPOutlookApp3@@@Z 1004a15c f i pimstorelib:StorePoom.obj
 0001:00049164       ?GetDefaultFolder@CStore@@UAAJW4OlDefaultFolders@@PAPAUIFolder2@@@Z 1004a164 f i pimstorelib:StorePoom.obj
 0001:000491ac       ?get_Folders@CStore@@UAAJPAPAUIPOutlookFolderCollection@@@Z 1004a1ac f i pimstorelib:StorePoom.obj
 0001:000491ec       ?GetFolderFromId@CStore@@UAAJPAUOLITEMID@@PAPAUIFolder2@@@Z 1004a1ec f i pimstorelib:StorePoom.obj
 0001:00049234       ?CreateFolder@CStore@@UAAJPAGW4OlItemType@@PAPAUIFolder2@@@Z 1004a234 f i pimstorelib:StorePoom.obj
 0001:00049284       ?get_Items@CStore@@UAAJW4OlItemType@@PAPAUIPOutlookItemCollection2@@@Z 1004a284 f i pimstorelib:StorePoom.obj
 0001:000492cc       ??0CStore@@QAA@PAVCPOutlookApp@@@Z 1004a2cc f   pimstorelib:StorePoom.obj
 0001:0004934c       ?ShouldSendCustomEvent@@YAHPBU_GUID@@PBU__MIDL___MIDL_itf_unistore_0000_0000_0009@@@Z 1004a34c f i pimstorelib:EventSink.obj
 0001:00049394       ?ConvertUSEventToPIMEVENT@CChangeEventSink@@CAJKQBQBU__MIDL___MIDL_itf_unistore_0000_0000_0009@@W4US_OBJECTTYPE@@PAKPAPAUPIMEVENT@@@Z 1004a394 f   pimstorelib:EventSink.obj
 0001:00049520       ?ConvertUSEventToPIMCUSTOMEVENT@CChangeEventSink@@CAJKQBQBU__MIDL___MIDL_itf_unistore_0000_0000_0009@@PBU_GUID@@PAKPAPAUPIMCUSTOMEVENT@@@Z 1004a520 f   pimstorelib:EventSink.obj
 0001:0004963c       ?AddRef@?$CUnknownImpl@UIChangeEventSink@@@@UAAKXZ 1004a63c f i pimstorelib:EventSink.obj
 0001:00049644       ?Release@?$CUnknownImpl@UIChangeEventSink@@@@UAAKXZ 1004a644 f i pimstorelib:EventSink.obj
 0001:00049678       ?AddRef@?$CUnknownImpl@UICustomEventSink@@@@UAAKXZ 1004a678 f i pimstorelib:EventSink.obj
 0001:00049680       ?Release@?$CUnknownImpl@UICustomEventSink@@@@UAAKXZ 1004a680 f i pimstorelib:EventSink.obj
 0001:000496b4       ??_E?$CUnknownImpl@UIChangeEventSink@@@@UAAPAXI@Z 1004a6b4 f i pimstorelib:EventSink.obj
 0001:000496b4       ??_G?$CUnknownImpl@UIChangeEventSink@@@@UAAPAXI@Z 1004a6b4 f i pimstorelib:EventSink.obj
 0001:000496ec       ??_E?$CUnknownImpl@UICustomEventSink@@@@UAAPAXI@Z 1004a6ec f i pimstorelib:EventSink.obj
 0001:000496ec       ??_G?$CUnknownImpl@UICustomEventSink@@@@UAAPAXI@Z 1004a6ec f i pimstorelib:EventSink.obj
 0001:00049724       ?AtlGetGITPtr@ATL@@YAJPAPAUIGlobalInterfaceTable@@@Z 1004a724 f i pimstorelib:EventSink.obj
 0001:00049794       ?AddRef@?$CUnknownImpl@UIUSAdviseSink@@@@UAAKXZ 1004a794 f i pimstorelib:EventSink.obj
 0001:0004979c       ?Release@?$CUnknownImpl@UIUSAdviseSink@@@@UAAKXZ 1004a79c f i pimstorelib:EventSink.obj
 0001:000497d0       ??_E?$CUnknownImpl@UIUSAdviseSink@@@@UAAPAXI@Z 1004a7d0 f i pimstorelib:EventSink.obj
 0001:000497d0       ??_G?$CUnknownImpl@UIUSAdviseSink@@@@UAAPAXI@Z 1004a7d0 f i pimstorelib:EventSink.obj
 0001:00049808       ??1CChangeEventSink@@UAA@XZ 1004a808 f   pimstorelib:EventSink.obj
 0001:00049878       ?QueryInterface@CChangeEventSink@@UAAJABU_GUID@@PAPAX@Z 1004a878 f   pimstorelib:EventSink.obj
 0001:000498f4       ??_GCChangeEventSink@@UAAPAXI@Z 1004a8f4 f i pimstorelib:EventSink.obj
 0001:000498f4       ??_ECChangeEventSink@@UAAPAXI@Z 1004a8f4 f i pimstorelib:EventSink.obj
 0001:00049920       ?ShouldSinkBeMarshaled@CChangeEventSink@@CAJABU_GUID@@PAUIUnknown@@@Z 1004a920 f   pimstorelib:EventSink.obj
 0001:00049a8c       ?Attach@?$CComGITPtr@UIChangeEventSink@@@ATL@@QAAJPAUIChangeEventSink@@@Z 1004aa8c f i pimstorelib:EventSink.obj
 0001:00049b58       ?Attach@?$CComGITPtr@UICustomEventSink@@@ATL@@QAAJPAUICustomEventSink@@@Z 1004ab58 f i pimstorelib:EventSink.obj
 0001:00049c24       ?Revoke@?$CComGITPtr@UIChangeEventSink@@@ATL@@QAAJXZ 1004ac24 f i pimstorelib:EventSink.obj
 0001:00049cb0       ?Revoke@?$CComGITPtr@UICustomEventSink@@@ATL@@QAAJXZ 1004acb0 f i pimstorelib:EventSink.obj
 0001:00049d3c       ??0CChangeEventSink@@AAA@XZ 1004ad3c f   pimstorelib:EventSink.obj
 0001:00049d8c       ?OnNotify@CChangeEventSink@@UAAJKKQBQBU__MIDL___MIDL_itf_unistore_0000_0000_0009@@@Z 1004ad8c f   pimstorelib:EventSink.obj
 0001:00049ef4       ??0?$CEventSinkProxy@UIChangeEventSink@@UPIMEVENT@@@@QAA@XZ 1004aef4 f i pimstorelib:EventSink.obj
 0001:00049f38       ?QueryInterface@?$CEventSinkProxy@UIChangeEventSink@@UPIMEVENT@@@@UAAJABU_GUID@@PAPAX@Z 1004af38 f i pimstorelib:EventSink.obj
 0001:00049fb8       ?CopyTo@?$CComGITPtr@UIChangeEventSink@@@ATL@@QBAJPAPAUIChangeEventSink@@@Z 1004afb8 f i pimstorelib:EventSink.obj
 0001:0004a040       ?OnEvent@?$CEventSinkProxy@UIChangeEventSink@@UPIMEVENT@@@@UAAJKKPBUPIMEVENT@@@Z 1004b040 f i pimstorelib:EventSink.obj
 0001:0004a0b4       ??0?$CEventSinkProxy@UICustomEventSink@@UPIMCUSTOMEVENT@@@@QAA@XZ 1004b0b4 f i pimstorelib:EventSink.obj
 0001:0004a0f8       ?QueryInterface@?$CEventSinkProxy@UICustomEventSink@@UPIMCUSTOMEVENT@@@@UAAJABU_GUID@@PAPAX@Z 1004b0f8 f i pimstorelib:EventSink.obj
 0001:0004a178       ?CopyTo@?$CComGITPtr@UICustomEventSink@@@ATL@@QBAJPAPAUICustomEventSink@@@Z 1004b178 f i pimstorelib:EventSink.obj
 0001:0004a200       ?OnEvent@?$CEventSinkProxy@UICustomEventSink@@UPIMCUSTOMEVENT@@@@UAAJKKPBUPIMCUSTOMEVENT@@@Z 1004b200 f i pimstorelib:EventSink.obj
 0001:0004a274       ?CreateInstance@?$CEventSinkProxy@UIChangeEventSink@@UPIMEVENT@@@@SAJPAUIChangeEventSink@@PAPAU2@@Z 1004b274 f i pimstorelib:EventSink.obj
 0001:0004a314       ?CreateInstance@?$CEventSinkProxy@UICustomEventSink@@UPIMCUSTOMEVENT@@@@SAJPAUICustomEventSink@@PAPAU2@@Z 1004b314 f i pimstorelib:EventSink.obj
 0001:0004a3b4       ??_E?$CEventSinkProxy@UIChangeEventSink@@UPIMEVENT@@@@UAAPAXI@Z 1004b3b4 f i pimstorelib:EventSink.obj
 0001:0004a3b4       ??_G?$CEventSinkProxy@UIChangeEventSink@@UPIMEVENT@@@@UAAPAXI@Z 1004b3b4 f i pimstorelib:EventSink.obj
 0001:0004a3f4       ??_G?$CEventSinkProxy@UICustomEventSink@@UPIMCUSTOMEVENT@@@@UAAPAXI@Z 1004b3f4 f i pimstorelib:EventSink.obj
 0001:0004a3f4       ??_E?$CEventSinkProxy@UICustomEventSink@@UPIMCUSTOMEVENT@@@@UAAPAXI@Z 1004b3f4 f i pimstorelib:EventSink.obj
 0001:0004a434       ?CreateInstance@CChangeEventSink@@SAJW4OlObjectType@@PAUIChangeEventSink@@PAPAUIUSAdviseSink@@@Z 1004b434 f   pimstorelib:EventSink.obj
 0001:0004a520       ?CreateInstance@CChangeEventSink@@SAJPBU_GUID@@PAUICustomEventSink@@PAPAUIUSAdviseSink@@@Z 1004b520 f   pimstorelib:EventSink.obj
 0001:0004a638       ?WriteLastAlarmDate@CPOutlookApp@@UAAJPAU_SYSTEMTIME@@@Z 1004b638 f   pimstorelib:CalstoreAppointment.obj
 0001:0004a654       ?SetNextAlarms@CPOutlookApp@@UAAJXZ 1004b654 f   pimstorelib:CalstoreAppointment.obj
 0001:0004a668       ?SetTaskAlarms@CPOutlookApp@@UAAJXZ 1004b668 f   pimstorelib:CalstoreAppointment.obj
 0001:0004a67c       ?ReplSetTaskAlarm@CTask@@UAAJPAH@Z 1004b67c f   pimstorelib:CalstoreAppointment.obj
 0001:0004a6a0       ?GetOidDB@CAppointment@@UAAKXZ 1004b6a0 f   pimstorelib:CalstoreAppointment.obj
 0001:0004a734       ?ClearAttendeeStatus@CAppointment@@UAAJXZ 1004b734 f   pimstorelib:CalstoreAppointment.obj
 0001:0004a83c       ?UpdateAttendeesOnExceptions@CAppointment@@UAAJPAVIAttendeeList@@0@Z 1004b83c f   pimstorelib:CalstoreAppointment.obj
 0001:0004a954       ?HandleProposeNewTime@CAppointment@@UAAJPAUHWND__@@PAH@Z 1004b954 f   pimstorelib:CalstoreAppointment.obj
 0001:0004aa78       ?GetHighestPriorityConflict@CAppointment@@UAAJPAUtagAPPOINTMENTDATA@@PAUtagRECURRENCEDATA@@PAUtagApptTime@@UtagYmd@@PAUOLITEMID@@PAU5@PAK@Z 1004ba78 f   pimstorelib:CalstoreAppointment.obj
 0001:0004ab14       ?ReplSetApptAlarm@CAppointment@@UAAJPAH@Z 1004bb14 f   pimstorelib:CalstoreAppointment.obj
 0001:0004ab68       ?GetHighestPriorityConflict@CPOutlookApp@@UAAJPAUIPOlAppointment@@PAUtagAPPOINTMENTDATA@@PAUtagRECURRENCEDATA@@PAUtagApptTime@@UtagYmd@@PAUOLITEMID@@PAU6@PAK@Z 1004bb68 f   pimstorelib:CalstoreAppointment.obj
 0001:0004ac24       ?FindAppointmentFromGlobj@CPOutlookApp@@UAAJPAU_CEBLOB@@PAUtagFindGlobjHint@@PAPAUIAppointment2@@@Z 1004bc24 f   pimstorelib:CalstoreAppointment.obj
 0001:0004ad6c       ?FindExceptionsFromGlobj@CPOutlookApp@@UAAJPAU_CEBLOB@@PAU_DPA@@@Z 1004bd6c f   pimstorelib:CalstoreAppointment.obj
 0001:0004b078       ?CanHandleReccurences@CRecurringApptCollection@@UAAJPAH@Z 1004c078 f   pimstorelib:RecurCollection.obj
 0001:0004b094       ?CanHandleRestrictionAndSort@CRecurringApptCollection@@UAAJPAUIRestriction@@KPAPAGPAF@Z 1004c094 f   pimstorelib:RecurCollection.obj
 0001:0004b09c       ?Update@CRecurringApptCollection@@UAAJPBUUSOID@@I@Z 1004c09c f   pimstorelib:RecurCollection.obj
 0001:0004b0dc       ?Clone@CRecurringApptCollection@@UAAJPAPAUICollection@@@Z 1004c0dc f   pimstorelib:RecurCollection.obj
 0001:0004b0e8       ?UpdateFirstUncachedMonth@CRecurringApptCollection@@AAAXUtagYmd@@@Z 1004c0e8 f   pimstorelib:RecurCollection.obj
 0001:0004b148       ?CompareTime@?$CUSOIDList@VSortedArrayAppt@@UArrayApptData@@@@KAHPAX0J@Z 1004c148 f i pimstorelib:RecurCollection.obj
 0001:0004b188       ?FreeItemCallback@?$CUSOIDList@VSortedArrayAppt@@UArrayApptData@@@@KAHPAX0@Z 1004c188 f i pimstorelib:RecurCollection.obj
 0001:0004b1ac       ??1CRecurringApptCollection@@QAA@XZ 1004c1ac f   pimstorelib:RecurCollection.obj
 0001:0004b25c       ?InitializeFirstAndLastDates@CRecurringApptCollection@@AAAJPAUIRestriction@@@Z 1004c25c f   pimstorelib:RecurCollection.obj
 0001:0004b2cc       ??1CApptIterator@@QAA@XZ   1004c2cc f   pimstorelib:RecurCollection.obj
 0001:0004b338       ?Reset@CApptIterator@@UAAJXZ 1004c338 f i pimstorelib:RecurCollection.obj
 0001:0004b340       ?GetCount@CApptIterator@@UAAJPAK@Z 1004c340 f   pimstorelib:RecurCollection.obj
 0001:0004b35c       ?SortByStartTimestamp@?$CUSOIDApptItem@VSortedArrayAppt@@UArrayApptData@@@@QAAJH@Z 1004c35c f i pimstorelib:RecurCollection.obj
 0001:0004b444       ??0?$CComObject@VCRecurringApptCollection@@@ATL@@QAA@PAX@Z 1004c444 f i pimstorelib:RecurCollection.obj
 0001:0004b4b0       ??1?$CComObject@VCRecurringApptCollection@@@ATL@@UAA@XZ 1004c4b0 f i pimstorelib:RecurCollection.obj
 0001:0004b4f0       ?AddRef@?$CComObject@VCRecurringApptCollection@@@ATL@@UAAKXZ 1004c4f0 f i pimstorelib:RecurCollection.obj
 0001:0004b4f8       ?Release@?$CComObject@VCRecurringApptCollection@@@ATL@@UAAKXZ 1004c4f8 f i pimstorelib:RecurCollection.obj
 0001:0004b530       ??_E?$CComObject@VCRecurringApptCollection@@@ATL@@UAAPAXI@Z 1004c530 f i pimstorelib:RecurCollection.obj
 0001:0004b530       ??_G?$CComObject@VCRecurringApptCollection@@@ATL@@UAAPAXI@Z 1004c530 f i pimstorelib:RecurCollection.obj
 0001:0004b554       ?QueryInterface@?$CComObject@VCRecurringApptCollection@@@ATL@@UAAJABU_GUID@@PAPAX@Z 1004c554 f i pimstorelib:RecurCollection.obj
 0001:0004b568       ??0?$CComObject@VCApptIterator@@@ATL@@QAA@PAX@Z 1004c568 f i pimstorelib:RecurCollection.obj
 0001:0004b5c0       ??1?$CComObject@VCApptIterator@@@ATL@@UAA@XZ 1004c5c0 f i pimstorelib:RecurCollection.obj
 0001:0004b600       ?AddRef@?$CComObject@VCApptIterator@@@ATL@@UAAKXZ 1004c600 f i pimstorelib:RecurCollection.obj
 0001:0004b608       ?Release@?$CComObject@VCApptIterator@@@ATL@@UAAKXZ 1004c608 f i pimstorelib:RecurCollection.obj
 0001:0004b640       ??_E?$CComObject@VCApptIterator@@@ATL@@UAAPAXI@Z 1004c640 f i pimstorelib:RecurCollection.obj
 0001:0004b640       ??_G?$CComObject@VCApptIterator@@@ATL@@UAAPAXI@Z 1004c640 f i pimstorelib:RecurCollection.obj
 0001:0004b664       ?QueryInterface@?$CComObject@VCApptIterator@@@ATL@@UAAJABU_GUID@@PAPAX@Z 1004c664 f i pimstorelib:RecurCollection.obj
 0001:0004b678       ?erase@?$vector@U?$pair@V?$iterator@UArrayApptData@@@list_impl@ce@@I@std@@Vallocator@ce@@U?$exponential_growth@$09@4@@ce@@QAAPAU?$pair@V?$iterator@UArrayApptData@@@list_impl@ce@@I@std@@PAU34@0@Z 1004c678 f i pimstorelib:RecurCollection.obj
 0001:0004b6dc       ?erase@?$list@UArrayApptData@@Vallocator@ce@@@ce@@QAA?AV?$iterator@UArrayApptData@@@list_impl@2@V342@@Z 1004c6dc f i pimstorelib:RecurCollection.obj
 0001:0004b738       ?Init@?$CUSOIDList@VSortedArrayAppt@@UArrayApptData@@@@IAAJPAVCPOutlookApp@@KPAUIUSFolder@@@Z 1004c738 f i pimstorelib:RecurCollection.obj
 0001:0004b7a8       ?find@?$hash@V?$hash_set_traits@UArrayApptData@@U?$hash_traits@UArrayApptData@@@ce@@Vallocator@3@@details@ce@@@details@ce@@QBA?AV?$const_iterator@UArrayApptData@@@list_impl@3@ABUArrayApptData@@@Z 1004c7a8 f i pimstorelib:RecurCollection.obj
 0001:0004b838       ?Init@CRecurringApptCollection@@QAAJPAVCPOutlookApp@@PAUIUSFolder@@H@Z 1004c838 f   pimstorelib:RecurCollection.obj
 0001:0004b8a4       ?Restrict@CRecurringApptCollection@@UAAJPAUIRestriction@@@Z 1004c8a4 f   pimstorelib:RecurCollection.obj
 0001:0004b8d8       ?Init@CApptIterator@@QAAJPAVCPOutlookApp@@PAVCRecurringApptCollection@@@Z 1004c8d8 f   pimstorelib:RecurCollection.obj
 0001:0004b918       ?CreateInstance@?$CComObject@VCRecurringApptCollection@@@ATL@@SAJPAPAV12@@Z 1004c918 f i pimstorelib:RecurCollection.obj
 0001:0004b9b8       ?CreateInstance@?$CComObject@VCApptIterator@@@ATL@@SAJPAPAV12@@Z 1004c9b8 f i pimstorelib:RecurCollection.obj
 0001:0004ba58       ?erase@?$list@UArrayApptData@@Vallocator@ce@@@ce@@QAA?AV?$iterator@UArrayApptData@@@list_impl@2@V342@0@Z 1004ca58 f i pimstorelib:RecurCollection.obj
 0001:0004bab0       ?FindMapEntry@?$CUSOIDList@VSortedArrayAppt@@UArrayApptData@@@@IBAJABUArrayApptData@@@Z 1004cab0 f i pimstorelib:RecurCollection.obj
 0001:0004bafc       ?CreateRecurringApptCollection@CRecurringApptCollection@@SAJPAVCPOutlookApp@@PAUIUSFolder@@W4OlDefaultFolders@@HPAUIRestriction@@KPAPAGPAFHPAPAUICollection@@@Z 1004cafc f   pimstorelib:RecurCollection.obj
 0001:0004bc44       ?CreateIterator@CRecurringApptCollection@@UAAJPAPAUIUnknown@@@Z 1004cc44 f   pimstorelib:RecurCollection.obj
 0001:0004bcc0       ?ItemExists@?$CUSOIDList@VSortedArrayAppt@@UArrayApptData@@@@QAAHPAVSortedArrayAppt@@@Z 1004ccc0 f i pimstorelib:RecurCollection.obj
 0001:0004bd18       ?AddAppointmentToList@?$CUSOIDApptItem@VSortedArrayAppt@@UArrayApptData@@@@SAJPAXPAUtagAPPOINTMENTDATA@@PAU_SYSTEMTIME@@J@Z 1004cd18 f i pimstorelib:RecurCollection.obj
 0001:0004bfe4       ?AddRecurringAppointments@?$CUSOIDApptItem@VSortedArrayAppt@@UArrayApptData@@@@QAAJPAUIRestriction@@PAUtagYmd@@1H@Z 1004cfe4 f i pimstorelib:RecurCollection.obj
 0001:0004c084       ??1?$hash@V?$hash_set_traits@UArrayApptData@@U?$hash_traits@UArrayApptData@@@ce@@Vallocator@3@@details@ce@@@details@ce@@QAA@XZ 1004d084 f i pimstorelib:RecurCollection.obj
 0001:0004c0c4       ?EnsureAllItems@CRecurringApptCollection@@AAAJXZ 1004d0c4 f   pimstorelib:RecurCollection.obj
 0001:0004c1d4       ??0?$CUSOIDList@VSortedArrayAppt@@UArrayApptData@@@@IAA@XZ 1004d1d4 f i pimstorelib:RecurCollection.obj
 0001:0004c240       ?GetCount@?$CUSOIDList@VSortedArrayAppt@@UArrayApptData@@@@UAAJPAK@Z 1004d240 f i pimstorelib:RecurCollection.obj
 0001:0004c260       ?CompareData@?$CUSOIDList@VSortedArrayAppt@@UArrayApptData@@@@KAHPAX0J@Z 1004d260 f i pimstorelib:RecurCollection.obj
 0001:0004c2a8       ?_Buynode@?$list@UArrayApptData@@Vallocator@ce@@@ce@@IAAPAU?$_ListNode@UArrayApptData@@@list_impl@2@PAU342@@Z 1004d2a8 f i pimstorelib:RecurCollection.obj
 0001:0004c2f4       ?ClearProperties@?$CUSOIDList@VSortedArrayAppt@@UArrayApptData@@@@IAAJXZ 1004d2f4 f i pimstorelib:RecurCollection.obj
 0001:0004c374       ?erase@?$vector@U?$pair@V?$iterator@UArrayApptData@@@list_impl@ce@@I@std@@V?$reference_allocator@Vallocator@ce@@@details@ce@@U?$exponential_growth@$09@5@@ce@@QAAPAU?$pair@V?$iterator@UArrayApptData@@@list_impl@ce@@I@std@@PAU34@0@Z 1004d374 f i pimstorelib:RecurCollection.obj
 0001:0004c3d8       ??$insert@UArrayApptData@@@?$list@UArrayApptData@@Vallocator@ce@@@ce@@QAA?AV?$iterator@UArrayApptData@@@list_impl@1@V231@ABUArrayApptData@@@Z 1004d3d8 f i pimstorelib:RecurCollection.obj
 0001:0004c42c       ?Sort@?$CUSOIDList@VSortedArrayAppt@@UArrayApptData@@@@UAAJKPAKPAF@Z 1004d42c f i pimstorelib:RecurCollection.obj
 0001:0004c540       ?GetItem@?$CUSOIDList@VSortedArrayAppt@@UArrayApptData@@@@UAAJJPAPAVSortedArrayAppt@@@Z 1004d540 f i pimstorelib:RecurCollection.obj
 0001:0004c5e8       ?GetFirst@?$CUSOIDList@VSortedArrayAppt@@UArrayApptData@@@@UAAJPAPAVSortedArrayAppt@@@Z 1004d5e8 f i pimstorelib:RecurCollection.obj
 0001:0004c6a0       ?GetNext@?$CUSOIDList@VSortedArrayAppt@@UArrayApptData@@@@UAAJPAPAVSortedArrayAppt@@@Z 1004d6a0 f i pimstorelib:RecurCollection.obj
 0001:0004c760       ?_Insert_dispatch@?$vector@U?$pair@V?$iterator@UArrayApptData@@@list_impl@ce@@I@std@@Vallocator@ce@@U?$exponential_growth@$09@4@@ce@@AAA_NPAU?$pair@V?$iterator@UArrayApptData@@@list_impl@ce@@I@std@@IABU34@ABUtrue_type@detail@2@@Z 1004d760 f i pimstorelib:RecurCollection.obj
 0001:0004c9a8       ?resize@?$vector@U?$pair@V?$iterator@UArrayApptData@@@list_impl@ce@@I@std@@Vallocator@ce@@U?$exponential_growth@$09@4@@ce@@QAA_NIABU?$pair@V?$iterator@UArrayApptData@@@list_impl@ce@@I@std@@@Z 1004d9a8 f i pimstorelib:RecurCollection.obj
 0001:0004ca04       ?SortByPropIdArray@CRecurringApptCollection@@AAAJKPAKPAF@Z 1004da04 f   pimstorelib:RecurCollection.obj
 0001:0004cae8       ?EnsureItemAtIndex@CRecurringApptCollection@@AAAJK@Z 1004dae8 f   pimstorelib:RecurCollection.obj
 0001:0004cd14       ??1?$CUSOIDList@VSortedArrayAppt@@UArrayApptData@@@@UAA@XZ 1004dd14 f i pimstorelib:RecurCollection.obj
 0001:0004cd90       ??_G?$CUSOIDList@VSortedArrayAppt@@UArrayApptData@@@@UAAPAXI@Z 1004dd90 f i pimstorelib:RecurCollection.obj
 0001:0004cd90       ??_E?$CUSOIDList@VSortedArrayAppt@@UArrayApptData@@@@UAAPAXI@Z 1004dd90 f i pimstorelib:RecurCollection.obj
 0001:0004cdb4       ?GetObjectType@?$CUSOIDApptItem@VSortedArrayAppt@@UArrayApptData@@@@EAAJPAW4US_OBJECTTYPE@@@Z 1004ddb4 f i pimstorelib:RecurCollection.obj
 0001:0004cdc8       ?Sort@CRecurringApptCollection@@UAAJKPAPAGPAF@Z 1004ddc8 f   pimstorelib:RecurCollection.obj
 0001:0004ce70       ?CreateUSOIDListFromRecurringAppointments@?$CUSOIDApptItem@VSortedArrayAppt@@UArrayApptData@@@@SAJPAVCPOutlookApp@@PAUIUSFolder@@KPAUIRestriction@@PAUtagYmd@@3HPAPAV1@@Z 1004de70 f i pimstorelib:RecurCollection.obj
 0001:0004cf30       ?InitializeNew@?$CUSOIDApptItem@VSortedArrayAppt@@UArrayApptData@@@@EAAJPAPAV?$CUSOIDList@VSortedArrayAppt@@UArrayApptData@@@@@Z 1004df30 f i pimstorelib:RecurCollection.obj
 0001:0004cfbc       ??_G?$CUSOIDApptItem@VSortedArrayAppt@@UArrayApptData@@@@UAAPAXI@Z 1004dfbc f i pimstorelib:RecurCollection.obj
 0001:0004cfbc       ??_E?$CUSOIDApptItem@VSortedArrayAppt@@UArrayApptData@@@@UAAPAXI@Z 1004dfbc f i pimstorelib:RecurCollection.obj
 0001:0004cfe0       ?_ready@?$hash@V?$hash_set_traits@UArrayApptData@@U?$hash_traits@UArrayApptData@@@ce@@Vallocator@3@@details@ce@@@details@ce@@IAA_NXZ 1004dfe0 f i pimstorelib:RecurCollection.obj
 0001:0004d038       ?EnsureCache@CRecurringApptCollection@@AAAJXZ 1004e038 f   pimstorelib:RecurCollection.obj
 0001:0004d1c0       ?GetItem@CRecurringApptCollection@@QAAJJPAUUSOID@@PAU_FILETIME@@@Z 1004e1c0 f   pimstorelib:RecurCollection.obj
 0001:0004d2a4       ?GetFirst@CRecurringApptCollection@@QAAJPAUUSOID@@PAU_FILETIME@@@Z 1004e2a4 f   pimstorelib:RecurCollection.obj
 0001:0004d37c       ?GetNext@CRecurringApptCollection@@QAAJPAUUSOID@@PAU_FILETIME@@@Z 1004e37c f   pimstorelib:RecurCollection.obj
 0001:0004d45c       ?GetItem@CApptIterator@@UAAJJPAPAUIItem2@@@Z 1004e45c f   pimstorelib:RecurCollection.obj
 0001:0004d56c       ?GetItemId@CApptIterator@@UAAJJPAUOLITEMID@@@Z 1004e56c f   pimstorelib:RecurCollection.obj
 0001:0004d5b0       ?GetFirst@CApptIterator@@UAAJPAPAUIItem2@@@Z 1004e5b0 f   pimstorelib:RecurCollection.obj
 0001:0004d6c0       ?GetNext@CApptIterator@@UAAJPAPAUIItem2@@@Z 1004e6c0 f   pimstorelib:RecurCollection.obj
 0001:0004d7d0       ?insert@?$hash@V?$hash_set_traits@UArrayApptData@@U?$hash_traits@UArrayApptData@@@ce@@Vallocator@3@@details@ce@@@details@ce@@QAA?AV?$iterator@UArrayApptData@@@list_impl@3@ABUArrayApptData@@@Z 1004e7d0 f i pimstorelib:RecurCollection.obj
 0001:0004d8a0       ?find@?$hash@V?$hash_set_traits@UArrayApptData@@U?$hash_traits@UArrayApptData@@@ce@@Vallocator@3@@details@ce@@@details@ce@@QAA?AV?$iterator@UArrayApptData@@@list_impl@3@ABUArrayApptData@@@Z 1004e8a0 f i pimstorelib:RecurCollection.obj
 0001:0004d924       ?AddMapEntry@?$CUSOIDList@VSortedArrayAppt@@UArrayApptData@@@@IAAJABUArrayApptData@@@Z 1004e924 f i pimstorelib:RecurCollection.obj
 0001:0004d9a0       ?Add@?$CUSOIDList@VSortedArrayAppt@@UArrayApptData@@@@QAAJPAVSortedArrayAppt@@@Z 1004e9a0 f i pimstorelib:RecurCollection.obj
 0001:0004da30       ?InsertItem@?$CUSOIDList@VSortedArrayAppt@@UArrayApptData@@@@UAAJPAVSortedArrayAppt@@@Z 1004ea30 f i pimstorelib:RecurCollection.obj
 0001:0004dd4c       ?PopulateList@?$CUSOIDList@VSortedArrayAppt@@UArrayApptData@@@@QAAJPAV1@PAUIRestriction@@@Z 1004ed4c f i pimstorelib:RecurCollection.obj
 0001:0004defc       ?Restrict@?$CUSOIDList@VSortedArrayAppt@@UArrayApptData@@@@UAAJPAUIRestriction@@PAPAV1@@Z 1004eefc f i pimstorelib:RecurCollection.obj
 0001:0004dfc0       ?CanHandleReccurences@CUSOIDCollection@@UAAJPAH@Z 1004efc0 f   pimstorelib:OidCollection.obj
 0001:0004dfdc       ?CanHandleRestrictionAndSort@CUSOIDCollection@@UAAJPAUIRestriction@@KPAPAGPAF@Z 1004efdc f   pimstorelib:OidCollection.obj
 0001:0004dfe4       ?GetTagMask@CUSOIDCollectionItem@@EAAJPAK@Z 1004efe4 f   pimstorelib:OidCollection.obj
 0001:0004dfec       ?GetTagMask@CUSOIDCollectionFolder@@UAAJPAK@Z 1004efec f   pimstorelib:OidCollection.obj
 0001:0004dffc       ?GetObjectType@CUSOIDCollectionFolder@@UAAJPAW4US_OBJECTTYPE@@@Z 1004effc f   pimstorelib:OidCollection.obj
 0001:0004e00c       ?GetTagMask@CUSOIDCollectionRecipient@@UAAJPAK@Z 1004f00c f   pimstorelib:OidCollection.obj
 0001:0004e01c       ?GetObjectType@CUSOIDCollectionRecipient@@UAAJPAW4US_OBJECTTYPE@@@Z 1004f01c f   pimstorelib:OidCollection.obj
 0001:0004e030       ?IsObjectInCollection@CUSOIDCollectionRecipient@@UAAJPBUUSOID@@PAH@Z 1004f030 f   pimstorelib:OidCollection.obj
 0001:0004e040       ?GetDefaultSortOrder@?$CUSOIDList@VSortedArrayItem@@UArrayItemData@@@@KAJW4OlItemType@@PAKPAPAKPAPAF@Z 1004f040 f i pimstorelib:OidCollection.obj
 0001:0004e08c       ?FreeItemCallback@?$CUSOIDList@VSortedArrayItem@@UArrayItemData@@@@KAHPAX0@Z 1004f08c f i pimstorelib:OidCollection.obj
 0001:0004e0b0       ?EnsureCache@CUSOIDCollection@@IAAJXZ 1004f0b0 f   pimstorelib:OidCollection.obj
 0001:0004e14c       ?SortByPropIdArray@CUSOIDCollection@@IAAJKPAKPAF@Z 1004f14c f   pimstorelib:OidCollection.obj
 0001:0004e224       ?GetCount@CUSOIDCollection@@QAAJPAK@Z 1004f224 f   pimstorelib:OidCollection.obj
 0001:0004e260       ?GetObjectType@CUSOIDCollectionItem@@EAAJPAW4US_OBJECTTYPE@@@Z 1004f260 f   pimstorelib:OidCollection.obj
 0001:0004e284       ?IsObjectInCollection@CUSOIDCollectionItem@@EAAJPBUUSOID@@PAH@Z 1004f284 f   pimstorelib:OidCollection.obj
 0001:0004e2a4       ?IsObjectInCollection@CUSOIDCollectionFolder@@UAAJPBUUSOID@@PAH@Z 1004f2a4 f   pimstorelib:OidCollection.obj
 0001:0004e2c4       ??1CUSOIDItemIterator@@QAA@XZ 1004f2c4 f   pimstorelib:OidCollection.obj
 0001:0004e330       ?Reset@CUSOIDItemIterator@@UAAJXZ 1004f330 f i pimstorelib:OidCollection.obj
 0001:0004e338       ?GetCount@CUSOIDItemIterator@@UAAJPAK@Z 1004f338 f   pimstorelib:OidCollection.obj
 0001:0004e358       ??1CUSOIDRecipientIterator@@QAA@XZ 1004f358 f   pimstorelib:OidCollection.obj
 0001:0004e3c4       ?Reset@CUSOIDRecipientIterator@@UAAJXZ 1004f3c4 f i pimstorelib:OidCollection.obj
 0001:0004e3cc       ?GetCount@CUSOIDRecipientIterator@@UAAJPAK@Z 1004f3cc f   pimstorelib:OidCollection.obj
 0001:0004e3ec       ?_Buynode@?$list@UArrayItemData@@Vallocator@ce@@@ce@@IAAPAU?$_ListNode@UArrayItemData@@@list_impl@2@PAU342@@Z 1004f3ec f i pimstorelib:OidCollection.obj
 0001:0004e438       ??0CUSOIDCollection@@QAA@XZ 1004f438 f   pimstorelib:OidCollection.obj
 0001:0004e490       ??1CUSOIDCollection@@QAA@XZ 1004f490 f   pimstorelib:OidCollection.obj
 0001:0004e540       ?Sort@CUSOIDCollection@@UAAJKPAPAGPAF@Z 1004f540 f   pimstorelib:OidCollection.obj
 0001:0004e5d8       ?GetItem@CUSOIDCollection@@QAAJJPAUUSOID@@@Z 1004f5d8 f   pimstorelib:OidCollection.obj
 0001:0004e66c       ?GetFirst@CUSOIDCollection@@QAAJPAUUSOID@@@Z 1004f66c f   pimstorelib:OidCollection.obj
 0001:0004e6dc       ?GetNext@CUSOIDCollection@@QAAJPAUUSOID@@@Z 1004f6dc f   pimstorelib:OidCollection.obj
 0001:0004e754       ?GetItem@CUSOIDItemIterator@@UAAJJPAPAUIItem2@@@Z 1004f754 f   pimstorelib:OidCollection.obj
 0001:0004e81c       ?GetItemId@CUSOIDItemIterator@@UAAJJPAUOLITEMID@@@Z 1004f81c f   pimstorelib:OidCollection.obj
 0001:0004e864       ?GetFirst@CUSOIDItemIterator@@UAAJPAPAUIItem2@@@Z 1004f864 f   pimstorelib:OidCollection.obj
 0001:0004e934       ?GetNext@CUSOIDItemIterator@@UAAJPAPAUIItem2@@@Z 1004f934 f   pimstorelib:OidCollection.obj
 0001:0004e9fc       ??0?$CComObject@VCUSOIDItemIterator@@@ATL@@QAA@PAX@Z 1004f9fc f i pimstorelib:OidCollection.obj
 0001:0004ea54       ??1?$CComObject@VCUSOIDItemIterator@@@ATL@@UAA@XZ 1004fa54 f i pimstorelib:OidCollection.obj
 0001:0004ea94       ?AddRef@?$CComObject@VCUSOIDItemIterator@@@ATL@@UAAKXZ 1004fa94 f i pimstorelib:OidCollection.obj
 0001:0004ea9c       ?Release@?$CComObject@VCUSOIDItemIterator@@@ATL@@UAAKXZ 1004fa9c f i pimstorelib:OidCollection.obj
 0001:0004ead4       ??_G?$CComObject@VCUSOIDItemIterator@@@ATL@@UAAPAXI@Z 1004fad4 f i pimstorelib:OidCollection.obj
 0001:0004ead4       ??_E?$CComObject@VCUSOIDItemIterator@@@ATL@@UAAPAXI@Z 1004fad4 f i pimstorelib:OidCollection.obj
 0001:0004eaf8       ?QueryInterface@?$CComObject@VCUSOIDItemIterator@@@ATL@@UAAJABU_GUID@@PAPAX@Z 1004faf8 f i pimstorelib:OidCollection.obj
 0001:0004eb0c       ??0?$CComObject@VCUSOIDRecipientIterator@@@ATL@@QAA@PAX@Z 1004fb0c f i pimstorelib:OidCollection.obj
 0001:0004eb64       ??1?$CComObject@VCUSOIDRecipientIterator@@@ATL@@UAA@XZ 1004fb64 f i pimstorelib:OidCollection.obj
 0001:0004eba4       ?AddRef@?$CComObject@VCUSOIDRecipientIterator@@@ATL@@UAAKXZ 1004fba4 f i pimstorelib:OidCollection.obj
 0001:0004ebac       ?Release@?$CComObject@VCUSOIDRecipientIterator@@@ATL@@UAAKXZ 1004fbac f i pimstorelib:OidCollection.obj
 0001:0004ebe4       ??_E?$CComObject@VCUSOIDRecipientIterator@@@ATL@@UAAPAXI@Z 1004fbe4 f i pimstorelib:OidCollection.obj
 0001:0004ebe4       ??_G?$CComObject@VCUSOIDRecipientIterator@@@ATL@@UAAPAXI@Z 1004fbe4 f i pimstorelib:OidCollection.obj
 0001:0004ec08       ?QueryInterface@?$CComObject@VCUSOIDRecipientIterator@@@ATL@@UAAJABU_GUID@@PAPAX@Z 1004fc08 f i pimstorelib:OidCollection.obj
 0001:0004ec1c       ?erase@?$vector@U?$pair@V?$iterator@UArrayItemData@@@list_impl@ce@@I@std@@Vallocator@ce@@U?$exponential_growth@$09@4@@ce@@QAAPAU?$pair@V?$iterator@UArrayItemData@@@list_impl@ce@@I@std@@PAU34@0@Z 1004fc1c f i pimstorelib:OidCollection.obj
 0001:0004ec80       ?erase@?$list@UArrayItemData@@Vallocator@ce@@@ce@@QAA?AV?$iterator@UArrayItemData@@@list_impl@2@V342@@Z 1004fc80 f i pimstorelib:OidCollection.obj
 0001:0004ecdc       ?Init@?$CUSOIDList@VSortedArrayItem@@UArrayItemData@@@@IAAJPAVCPOutlookApp@@KPAUIUSFolder@@@Z 1004fcdc f i pimstorelib:OidCollection.obj
 0001:0004ed4c       ?find@?$hash@V?$hash_set_traits@UArrayItemData@@U?$hash_traits@UArrayItemData@@@ce@@Vallocator@3@@details@ce@@@details@ce@@QBA?AV?$const_iterator@UArrayItemData@@@list_impl@3@ABUArrayItemData@@@Z 1004fd4c f i pimstorelib:OidCollection.obj
 0001:0004ede4       ?erase@?$hash@V?$hash_set_traits@UArrayItemData@@U?$hash_traits@UArrayItemData@@@ce@@Vallocator@3@@details@ce@@@details@ce@@QAA?AV?$iterator@UArrayItemData@@@list_impl@3@V453@@Z 1004fde4 f i pimstorelib:OidCollection.obj
 0001:0004ee58       ?erase@?$vector@U?$pair@V?$iterator@UArrayItemData@@@list_impl@ce@@I@std@@V?$reference_allocator@Vallocator@ce@@@details@ce@@U?$exponential_growth@$09@5@@ce@@QAAPAU?$pair@V?$iterator@UArrayItemData@@@list_impl@ce@@I@std@@PAU34@0@Z 1004fe58 f i pimstorelib:OidCollection.obj
 0001:0004eebc       ??$insert@UArrayItemData@@@?$list@UArrayItemData@@Vallocator@ce@@@ce@@QAA?AV?$iterator@UArrayItemData@@@list_impl@1@V231@ABUArrayItemData@@@Z 1004febc f i pimstorelib:OidCollection.obj
 0001:0004ef14       ?Initialize@CUSOIDCollection@@IAAJPAVCPOutlookApp@@PAUIUSStore@@PAUIRestriction@@KPAKPAF@Z 1004ff14 f   pimstorelib:OidCollection.obj
 0001:0004efac       ?Restrict@CUSOIDCollection@@UAAJPAUIRestriction@@@Z 1004ffac f   pimstorelib:OidCollection.obj
 0001:0004f074       ?Initialize@CUSOIDCollectionItem@@AAAJPAVCPOutlookApp@@PAUIUSFolder@@PAUIUSStore@@W4OlDefaultFolders@@HPAUIRestriction@@KPAKPAFH@Z 10050074 f   pimstorelib:OidCollection.obj
 0001:0004f130       ?Initialize@CUSOIDCollectionFolder@@AAAJPAVCPOutlookApp@@PAUIUSFolder@@PAUIUSStore@@PAUIRestriction@@KPAKPAF@Z 10050130 f   pimstorelib:OidCollection.obj
 0001:0004f188       ?Init@CUSOIDItemIterator@@QAAJPAVCPOutlookApp@@PAVCUSOIDCollection@@@Z 10050188 f   pimstorelib:OidCollection.obj
 0001:0004f1c8       ?Init@CUSOIDRecipientIterator@@QAAJPAVCPOutlookApp@@PAVCUSOIDCollection@@@Z 100501c8 f   pimstorelib:OidCollection.obj
 0001:0004f208       ?GetRecipientFromUSOID@CUSOIDRecipientIterator@@AAAJPAUUSOID@@PAPAUIRecipient3@@@Z 10050208 f   pimstorelib:OidCollection.obj
 0001:0004f3a4       ?GetRecipient@CUSOIDRecipientIterator@@UAAJJPAPAUIRecipient3@@@Z 100503a4 f   pimstorelib:OidCollection.obj
 0001:0004f3ec       ?GetFirst@CUSOIDRecipientIterator@@UAAJPAPAUIRecipient3@@@Z 100503ec f   pimstorelib:OidCollection.obj
 0001:0004f434       ?GetNext@CUSOIDRecipientIterator@@UAAJPAPAUIRecipient3@@@Z 10050434 f   pimstorelib:OidCollection.obj
 0001:0004f47c       ?CreateInstance@?$CComObject@VCUSOIDItemIterator@@@ATL@@SAJPAPAV12@@Z 1005047c f i pimstorelib:OidCollection.obj
 0001:0004f51c       ?CreateInstance@?$CComObject@VCUSOIDRecipientIterator@@@ATL@@SAJPAPAV12@@Z 1005051c f i pimstorelib:OidCollection.obj
 0001:0004f5bc       ??0?$CComObject@VCUSOIDCollectionItem@@@ATL@@QAA@PAX@Z 100505bc f i pimstorelib:OidCollection.obj
 0001:0004f5fc       ?AddRef@?$CComObject@VCUSOIDCollectionItem@@@ATL@@UAAKXZ 100505fc f i pimstorelib:OidCollection.obj
 0001:0004f604       ?Release@?$CComObject@VCUSOIDCollectionItem@@@ATL@@UAAKXZ 10050604 f i pimstorelib:OidCollection.obj
 0001:0004f63c       ?QueryInterface@?$CComObject@VCUSOIDCollectionItem@@@ATL@@UAAJABU_GUID@@PAPAX@Z 1005063c f i pimstorelib:OidCollection.obj
 0001:0004f650       ??1?$CComObject@VCUSOIDCollectionItem@@@ATL@@UAA@XZ 10050650 f i pimstorelib:OidCollection.obj
 0001:0004f6ac       ??_G?$CComObject@VCUSOIDCollectionItem@@@ATL@@UAAPAXI@Z 100506ac f i pimstorelib:OidCollection.obj
 0001:0004f6ac       ??_E?$CComObject@VCUSOIDCollectionItem@@@ATL@@UAAPAXI@Z 100506ac f i pimstorelib:OidCollection.obj
 0001:0004f6d0       ??0?$CComObject@VCUSOIDCollectionFolder@@@ATL@@QAA@PAX@Z 100506d0 f i pimstorelib:OidCollection.obj
 0001:0004f710       ?AddRef@?$CComObject@VCUSOIDCollectionFolder@@@ATL@@UAAKXZ 10050710 f i pimstorelib:OidCollection.obj
 0001:0004f718       ?Release@?$CComObject@VCUSOIDCollectionFolder@@@ATL@@UAAKXZ 10050718 f i pimstorelib:OidCollection.obj
 0001:0004f750       ?QueryInterface@?$CComObject@VCUSOIDCollectionFolder@@@ATL@@UAAJABU_GUID@@PAPAX@Z 10050750 f i pimstorelib:OidCollection.obj
 0001:0004f764       ??1?$CComObject@VCUSOIDCollectionFolder@@@ATL@@UAA@XZ 10050764 f i pimstorelib:OidCollection.obj
 0001:0004f7c0       ??_E?$CComObject@VCUSOIDCollectionFolder@@@ATL@@UAAPAXI@Z 100507c0 f i pimstorelib:OidCollection.obj
 0001:0004f7c0       ??_G?$CComObject@VCUSOIDCollectionFolder@@@ATL@@UAAPAXI@Z 100507c0 f i pimstorelib:OidCollection.obj
 0001:0004f7e4       ??0?$CComObject@VCUSOIDCollectionRecipient@@@ATL@@QAA@PAX@Z 100507e4 f i pimstorelib:OidCollection.obj
 0001:0004f824       ?AddRef@?$CComObject@VCUSOIDCollectionRecipient@@@ATL@@UAAKXZ 10050824 f i pimstorelib:OidCollection.obj
 0001:0004f82c       ?Release@?$CComObject@VCUSOIDCollectionRecipient@@@ATL@@UAAKXZ 1005082c f i pimstorelib:OidCollection.obj
 0001:0004f864       ?QueryInterface@?$CComObject@VCUSOIDCollectionRecipient@@@ATL@@UAAJABU_GUID@@PAPAX@Z 10050864 f i pimstorelib:OidCollection.obj
 0001:0004f878       ??1?$CComObject@VCUSOIDCollectionRecipient@@@ATL@@UAA@XZ 10050878 f i pimstorelib:OidCollection.obj
 0001:0004f8d4       ??_G?$CComObject@VCUSOIDCollectionRecipient@@@ATL@@UAAPAXI@Z 100508d4 f i pimstorelib:OidCollection.obj
 0001:0004f8d4       ??_E?$CComObject@VCUSOIDCollectionRecipient@@@ATL@@UAAPAXI@Z 100508d4 f i pimstorelib:OidCollection.obj
 0001:0004f8f8       ?erase@?$list@UArrayItemData@@Vallocator@ce@@@ce@@QAA?AV?$iterator@UArrayItemData@@@list_impl@2@V342@0@Z 100508f8 f i pimstorelib:OidCollection.obj
 0001:0004f950       ?FindMapEntry@?$CUSOIDList@VSortedArrayItem@@UArrayItemData@@@@IBAJABUArrayItemData@@@Z 10050950 f i pimstorelib:OidCollection.obj
 0001:0004f99c       ?CreateIterator@CUSOIDCollectionItem@@UAAJPAPAUIUnknown@@@Z 1005099c f   pimstorelib:OidCollection.obj
 0001:0004fa18       ?CreateIterator@CUSOIDCollectionFolder@@UAAJPAPAUIUnknown@@@Z 10050a18 f   pimstorelib:OidCollection.obj
 0001:0004fa94       ?CreateIterator@CUSOIDCollectionRecipient@@UAAJPAPAUIUnknown@@@Z 10050a94 f   pimstorelib:OidCollection.obj
 0001:0004fb10       ?ItemExists@?$CUSOIDList@VSortedArrayItem@@UArrayItemData@@@@QAAHPAVSortedArrayItem@@@Z 10050b10 f i pimstorelib:OidCollection.obj
 0001:0004fb50       ?CreateInstance@?$CComObject@VCUSOIDCollectionItem@@@ATL@@SAJPAPAV12@@Z 10050b50 f i pimstorelib:OidCollection.obj
 0001:0004fbf0       ?CreateInstance@?$CComObject@VCUSOIDCollectionFolder@@@ATL@@SAJPAPAV12@@Z 10050bf0 f i pimstorelib:OidCollection.obj
 0001:0004fc90       ?CreateInstance@?$CComObject@VCUSOIDCollectionRecipient@@@ATL@@SAJPAPAV12@@Z 10050c90 f i pimstorelib:OidCollection.obj
 0001:0004fd30       ?CreateCollection@CUSOIDCollectionItem@@SAJPAVCPOutlookApp@@PAUIUSFolder@@W4OlDefaultFolders@@HPAUIRestriction@@KPAPAGPAFHPAPAUICollection@@@Z 10050d30 f   pimstorelib:OidCollection.obj
 0001:0004fe7c       ?Clone@CUSOIDCollectionItem@@UAAJPAPAUICollection@@@Z 10050e7c f   pimstorelib:OidCollection.obj
 0001:0004ffcc       ?CreateCollection@CUSOIDCollectionFolder@@SAJPAVCPOutlookApp@@PAUIUSFolder@@PAUIRestriction@@KPAPAGPAFPAPAUICollection@@@Z 10050fcc f   pimstorelib:OidCollection.obj
 0001:000500ec       ?Clone@CUSOIDCollectionFolder@@UAAJPAPAUICollection@@@Z 100510ec f   pimstorelib:OidCollection.obj
 0001:00050198       ?CreateCollection@CUSOIDCollectionRecipient@@SAJPAVCPOutlookApp@@W4OlItemType@@PAUIUSStore@@PAUIRestriction@@KPAPAGPAFPAPAUICollection@@@Z 10051198 f   pimstorelib:OidCollection.obj
 0001:0005027c       ?Clone@CUSOIDCollectionRecipient@@UAAJPAPAUICollection@@@Z 1005127c f   pimstorelib:OidCollection.obj
 0001:00050328       ?_Insert_dispatch@?$vector@U?$pair@V?$iterator@UArrayItemData@@@list_impl@ce@@I@std@@Vallocator@ce@@U?$exponential_growth@$09@4@@ce@@AAA_NPAU?$pair@V?$iterator@UArrayItemData@@@list_impl@ce@@I@std@@IABU34@ABUtrue_type@detail@2@@Z 10051328 f i pimstorelib:OidCollection.obj
 0001:00050570       ??1?$hash@V?$hash_set_traits@UArrayItemData@@U?$hash_traits@UArrayItemData@@@ce@@Vallocator@3@@details@ce@@@details@ce@@QAA@XZ 10051570 f i pimstorelib:OidCollection.obj
 0001:000505b0       ??0?$CUSOIDList@VSortedArrayItem@@UArrayItemData@@@@IAA@XZ 100515b0 f i pimstorelib:OidCollection.obj
 0001:0005061c       ?GetCount@?$CUSOIDList@VSortedArrayItem@@UArrayItemData@@@@UAAJPAK@Z 1005161c f i pimstorelib:OidCollection.obj
 0001:0005063c       ?CompareData@?$CUSOIDList@VSortedArrayItem@@UArrayItemData@@@@KAHPAX0J@Z 1005163c f i pimstorelib:OidCollection.obj
 0001:00050684       ?ClearProperties@?$CUSOIDList@VSortedArrayItem@@UArrayItemData@@@@IAAJXZ 10051684 f i pimstorelib:OidCollection.obj
 0001:00050704       ?Sort@?$CUSOIDList@VSortedArrayItem@@UArrayItemData@@@@UAAJKPAKPAF@Z 10051704 f i pimstorelib:OidCollection.obj
 0001:00050818       ?GetItem@?$CUSOIDList@VSortedArrayItem@@UArrayItemData@@@@UAAJJPAPAVSortedArrayItem@@@Z 10051818 f i pimstorelib:OidCollection.obj
 0001:000508c0       ?GetFirst@?$CUSOIDList@VSortedArrayItem@@UArrayItemData@@@@UAAJPAPAVSortedArrayItem@@@Z 100518c0 f i pimstorelib:OidCollection.obj
 0001:00050978       ?GetNext@?$CUSOIDList@VSortedArrayItem@@UArrayItemData@@@@UAAJPAPAVSortedArrayItem@@@Z 10051978 f i pimstorelib:OidCollection.obj
 0001:00050a38       ?resize@?$vector@U?$pair@V?$iterator@UArrayItemData@@@list_impl@ce@@I@std@@Vallocator@ce@@U?$exponential_growth@$09@4@@ce@@QAA_NIABU?$pair@V?$iterator@UArrayItemData@@@list_impl@ce@@I@std@@@Z 10051a38 f i pimstorelib:OidCollection.obj
 0001:00050a94       ??1?$CUSOIDList@VSortedArrayItem@@UArrayItemData@@@@UAA@XZ 10051a94 f i pimstorelib:OidCollection.obj
 0001:00050b10       ??_E?$CUSOIDList@VSortedArrayItem@@UArrayItemData@@@@UAAPAXI@Z 10051b10 f i pimstorelib:OidCollection.obj
 0001:00050b10       ??_G?$CUSOIDList@VSortedArrayItem@@UArrayItemData@@@@UAAPAXI@Z 10051b10 f i pimstorelib:OidCollection.obj
 0001:00050b34       ?GetObjectType@?$CUSOIDListFolder@VSortedArrayItem@@UArrayItemData@@@@EAAJPAW4US_OBJECTTYPE@@@Z 10051b34 f i pimstorelib:OidCollection.obj
 0001:00050b44       ??0?$CUSOIDListItem@VSortedArrayItem@@UArrayItemData@@@@QAA@W4OlItemType@@@Z 10051b44 f i pimstorelib:OidCollection.obj
 0001:00050b84       ?GetObjectType@?$CUSOIDListItem@VSortedArrayItem@@UArrayItemData@@@@EAAJPAW4US_OBJECTTYPE@@@Z 10051b84 f i pimstorelib:OidCollection.obj
 0001:00050bb4       ?Reset@?$CUSOIDList@VSortedArrayItem@@UArrayItemData@@@@IAAJXZ 10051bb4 f i pimstorelib:OidCollection.obj
 0001:00050c0c       ?GetObjectType@?$CUSOIDListRecipients@VSortedArrayItem@@UArrayItemData@@@@EAAJPAW4US_OBJECTTYPE@@@Z 10051c0c f i pimstorelib:OidCollection.obj
 0001:00050c20       ??1?$CUSOIDListItem@VSortedArrayItem@@UArrayItemData@@@@UAA@XZ 10051c20 f i pimstorelib:OidCollection.obj
 0001:00050c6c       ?CreateUSOIDListFromFolder@?$CUSOIDListItem@VSortedArrayItem@@UArrayItemData@@@@SAJPAVCPOutlookApp@@PAUIUSFolder@@KW4OlItemType@@PAUIRestriction@@HPAPAV?$CUSOIDList@VSortedArrayItem@@UArrayItemData@@@@@Z 10051c6c f i pimstorelib:OidCollection.obj
 0001:00050e7c       ?InitializeNew@?$CUSOIDListItem@VSortedArrayItem@@UArrayItemData@@@@EAAJPAPAV?$CUSOIDList@VSortedArrayItem@@UArrayItemData@@@@@Z 10051e7c f i pimstorelib:OidCollection.obj
 0001:00050f00       ?InitializeNew@?$CUSOIDListFolder@VSortedArrayItem@@UArrayItemData@@@@EAAJPAPAV?$CUSOIDList@VSortedArrayItem@@UArrayItemData@@@@@Z 10051f00 f i pimstorelib:OidCollection.obj
 0001:00050f8c       ?InitializeNew@?$CUSOIDListRecipients@VSortedArrayItem@@UArrayItemData@@@@EAAJPAPAV?$CUSOIDList@VSortedArrayItem@@UArrayItemData@@@@@Z 10051f8c f i pimstorelib:OidCollection.obj
 0001:00051020       ??_G?$CUSOIDListFolder@VSortedArrayItem@@UArrayItemData@@@@UAAPAXI@Z 10052020 f i pimstorelib:OidCollection.obj
 0001:00051020       ??_E?$CUSOIDListFolder@VSortedArrayItem@@UArrayItemData@@@@UAAPAXI@Z 10052020 f i pimstorelib:OidCollection.obj
 0001:00051044       ??_E?$CUSOIDListItem@VSortedArrayItem@@UArrayItemData@@@@UAAPAXI@Z 10052044 f i pimstorelib:OidCollection.obj
 0001:00051044       ??_G?$CUSOIDListItem@VSortedArrayItem@@UArrayItemData@@@@UAAPAXI@Z 10052044 f i pimstorelib:OidCollection.obj
 0001:00051068       ??_E?$CUSOIDListRecipients@VSortedArrayItem@@UArrayItemData@@@@UAAPAXI@Z 10052068 f i pimstorelib:OidCollection.obj
 0001:00051068       ??_G?$CUSOIDListRecipients@VSortedArrayItem@@UArrayItemData@@@@UAAPAXI@Z 10052068 f i pimstorelib:OidCollection.obj
 0001:0005108c       ?_ready@?$hash@V?$hash_set_traits@UArrayItemData@@U?$hash_traits@UArrayItemData@@@ce@@Vallocator@3@@details@ce@@@details@ce@@IAA_NXZ 1005208c f i pimstorelib:OidCollection.obj
 0001:000510e4       ?insert@?$hash@V?$hash_set_traits@UArrayItemData@@U?$hash_traits@UArrayItemData@@@ce@@Vallocator@3@@details@ce@@@details@ce@@QAA?AV?$iterator@UArrayItemData@@@list_impl@3@ABUArrayItemData@@@Z 100520e4 f i pimstorelib:OidCollection.obj
 0001:000511bc       ?find@?$hash@V?$hash_set_traits@UArrayItemData@@U?$hash_traits@UArrayItemData@@@ce@@Vallocator@3@@details@ce@@@details@ce@@QAA?AV?$iterator@UArrayItemData@@@list_impl@3@ABUArrayItemData@@@Z 100521bc f i pimstorelib:OidCollection.obj
 0001:00051248       ?AddMapEntry@?$CUSOIDList@VSortedArrayItem@@UArrayItemData@@@@IAAJABUArrayItemData@@@Z 10052248 f i pimstorelib:OidCollection.obj
 0001:000512c4       ?erase@?$hash@V?$hash_set_traits@UArrayItemData@@U?$hash_traits@UArrayItemData@@@ce@@Vallocator@3@@details@ce@@@details@ce@@QAAIABUArrayItemData@@@Z 100522c4 f i pimstorelib:OidCollection.obj
 0001:00051310       ?Add@?$CUSOIDList@VSortedArrayItem@@UArrayItemData@@@@QAAJPAVSortedArrayItem@@@Z 10052310 f i pimstorelib:OidCollection.obj
 0001:00051398       ?AddItemToList@?$CUSOIDListItem@VSortedArrayItem@@UArrayItemData@@@@CAJUOLITEMID@@J@Z 10052398 f i pimstorelib:OidCollection.obj
 0001:0005149c       ?InsertItem@?$CUSOIDList@VSortedArrayItem@@UArrayItemData@@@@UAAJPAVSortedArrayItem@@@Z 1005249c f i pimstorelib:OidCollection.obj
 0001:0005177c       ?InsertItem@?$CUSOIDListItem@VSortedArrayItem@@UArrayItemData@@@@EAAJPAVSortedArrayItem@@@Z 1005277c f i pimstorelib:OidCollection.obj
 0001:000518b4       ?PopulateList@?$CUSOIDList@VSortedArrayItem@@UArrayItemData@@@@QAAJPAV1@PAUIRestriction@@@Z 100528b4 f i pimstorelib:OidCollection.obj
 0001:00051a64       ?AddOids@?$CUSOIDList@VSortedArrayItem@@UArrayItemData@@@@QAAJPAUIUSObjectCollection@@PAUIRestriction@@@Z 10052a64 f i pimstorelib:OidCollection.obj
 0001:00051b90       ?AddItems@?$CUSOIDList@VSortedArrayItem@@UArrayItemData@@@@QAAJPAUIUSObjectCollection@@PAUIRestriction@@@Z 10052b90 f i pimstorelib:OidCollection.obj
 0001:00051d84       ?CreateUSOIDListWithMatchingCategories@?$CUSOIDListItem@VSortedArrayItem@@UArrayItemData@@@@SAJPAVCPOutlookApp@@PAUIUSFolder@@KW4OlItemType@@PBGHPAPAV?$CUSOIDList@VSortedArrayItem@@UArrayItemData@@@@@Z 10052d84 f i pimstorelib:OidCollection.obj
 0001:00051f10       ?CreateUSOIDListWithRecentItems@?$CUSOIDListItem@VSortedArrayItem@@UArrayItemData@@@@SAJPAVCPOutlookApp@@PAUIUSFolder@@KW4OlItemType@@HPAPAV?$CUSOIDList@VSortedArrayItem@@UArrayItemData@@@@@Z 10052f10 f i pimstorelib:OidCollection.obj
 0001:00051fec       ?EnsureItemAtIndex@?$CUSOIDListItem@VSortedArrayItem@@UArrayItemData@@@@AAAJJ@Z 10052fec f i pimstorelib:OidCollection.obj
 0001:0005222c       ?Restrict@?$CUSOIDList@VSortedArrayItem@@UArrayItemData@@@@UAAJPAUIRestriction@@PAPAV1@@Z 1005322c f i pimstorelib:OidCollection.obj
 0001:000522f0       ?DeleteItem@?$CUSOIDList@VSortedArrayItem@@UArrayItemData@@@@QAAJPAVSortedArrayItem@@@Z 100532f0 f i pimstorelib:OidCollection.obj
 0001:000523c8       ?CreateUSOIDListForSpecialRestrictions@?$CUSOIDListItem@VSortedArrayItem@@UArrayItemData@@@@SAJPAVCPOutlookApp@@PAUIUSFolder@@KW4OlItemType@@PAUIRestriction@@HPAHPAPAV?$CUSOIDList@VSortedArrayItem@@UArrayItemData@@@@@Z 100533c8 f i pimstorelib:OidCollection.obj
 0001:00052574       ?GetItem@?$CUSOIDListItem@VSortedArrayItem@@UArrayItemData@@@@UAAJJPAPAVSortedArrayItem@@@Z 10053574 f i pimstorelib:OidCollection.obj
 0001:000525a0       ?GetFirst@?$CUSOIDListItem@VSortedArrayItem@@UArrayItemData@@@@UAAJPAPAVSortedArrayItem@@@Z 100535a0 f i pimstorelib:OidCollection.obj
 0001:000525c8       ?GetNext@?$CUSOIDListItem@VSortedArrayItem@@UArrayItemData@@@@UAAJPAPAVSortedArrayItem@@@Z 100535c8 f i pimstorelib:OidCollection.obj
 0001:000525f0       ?Restrict@?$CUSOIDListItem@VSortedArrayItem@@UArrayItemData@@@@UAAJPAUIRestriction@@PAPAV?$CUSOIDList@VSortedArrayItem@@UArrayItemData@@@@@Z 100535f0 f i pimstorelib:OidCollection.obj
 0001:0005297c       ?CreateUSOIDListFromFolder@?$CUSOIDListFolder@VSortedArrayItem@@UArrayItemData@@@@SAJPAVCPOutlookApp@@PAUIUSFolder@@KPAUIRestriction@@PAPAV?$CUSOIDList@VSortedArrayItem@@UArrayItemData@@@@@Z 1005397c f i pimstorelib:OidCollection.obj
 0001:00052a70       ?CreateRecipientUSOIDListFromStore@?$CUSOIDListRecipients@VSortedArrayItem@@UArrayItemData@@@@SAJPAVCPOutlookApp@@W4OlItemType@@KPAUIRestriction@@PAPAV?$CUSOIDList@VSortedArrayItem@@UArrayItemData@@@@@Z 10053a70 f i pimstorelib:OidCollection.obj
 0001:00052be4       ?Update@CUSOIDCollection@@UAAJPBUUSOID@@I@Z 10053be4 f   pimstorelib:OidCollection.obj
 0001:00052d98       ?CreateNewList@CUSOIDCollectionItem@@EAAJPAUIRestriction@@PAPAV?$CUSOIDList@VSortedArrayItem@@UArrayItemData@@@@@Z 10053d98 f   pimstorelib:OidCollection.obj
 0001:00052e64       ?CreateNewList@CUSOIDCollectionFolder@@EAAJPAUIRestriction@@PAPAV?$CUSOIDList@VSortedArrayItem@@UArrayItemData@@@@@Z 10053e64 f   pimstorelib:OidCollection.obj
 0001:00052ec8       ?CreateNewList@CUSOIDCollectionRecipient@@EAAJPAUIRestriction@@PAPAV?$CUSOIDList@VSortedArrayItem@@UArrayItemData@@@@@Z 10053ec8 f   pimstorelib:OidCollection.obj
 0001:00052f2c       ?GetCount@?$CUSOIDListItem@VSortedArrayItem@@UArrayItemData@@@@UAAJPAK@Z 10053f2c f i pimstorelib:OidCollection.obj
 0001:00052f6c       ?Sort@?$CUSOIDListItem@VSortedArrayItem@@UArrayItemData@@@@UAAJKPAKPAF@Z 10053f6c f i pimstorelib:OidCollection.obj
 0001:000531a4       ?CanHandleReccurences@CObjectCollectionUS@@UAAJPAH@Z 100541a4 f   pimstorelib:PoomUSObjectCollection.obj
 0001:000531c0       ?Update@CObjectCollectionUS@@UAAJPBUUSOID@@I@Z 100541c0 f   pimstorelib:PoomUSObjectCollection.obj
 0001:000531c8       ?GetTagMask@CObjectCollectionUSItem@@EAAJPAK@Z 100541c8 f   pimstorelib:PoomUSObjectCollection.obj
 0001:000531d0       ?GetTagMask@CObjectCollectionUSFolder@@EAAJPAK@Z 100541d0 f   pimstorelib:PoomUSObjectCollection.obj
 0001:000531e0       ?GetTagMask@CObjectCollectionUSStore@@EAAJPAK@Z 100541e0 f   pimstorelib:PoomUSObjectCollection.obj
 0001:000531f0       ?GetTagMask@CObjectCollectionUSRecipient@@EAAJPAK@Z 100541f0 f   pimstorelib:PoomUSObjectCollection.obj
 0001:00053200       ?Reset@CUSItemIterator@@UAAJXZ 10054200 f   pimstorelib:PoomUSObjectCollection.obj
 0001:00053210       ?GetItem@CObjectCollectionUS@@QAAJJPAPAUIUSObject@@@Z 10054210 f   pimstorelib:PoomUSObjectCollection.obj
 0001:0005326c       ?GetItemId@CObjectCollectionUS@@QAAJJPAUUSOID@@@Z 1005426c f   pimstorelib:PoomUSObjectCollection.obj
 0001:000532c8       ?GetFirst@CObjectCollectionUS@@QAAJPAPAUIUSObject@@@Z 100542c8 f   pimstorelib:PoomUSObjectCollection.obj
 0001:0005330c       ?GetNext@CObjectCollectionUS@@QAAJPAPAUIUSObject@@@Z 1005430c f   pimstorelib:PoomUSObjectCollection.obj
 0001:00053350       ?MoveNext@CObjectCollectionUS@@QAAJPAUUSOID@@@Z 10054350 f   pimstorelib:PoomUSObjectCollection.obj
 0001:00053394       ?GetCollectionFromUSStore@CObjectCollectionUSItem@@EAAJKPAUUS_SORTSPEC@@PAU_USRestriction@@PAPAUIUSObjectCollection@@@Z 10054394 f   pimstorelib:PoomUSObjectCollection.obj
 0001:000533c4       ?GetCollectionFromUSStore@CObjectCollectionUSFolder@@EAAJKPAUUS_SORTSPEC@@PAU_USRestriction@@PAPAUIUSObjectCollection@@@Z 100543c4 f   pimstorelib:PoomUSObjectCollection.obj
 0001:000533e4       ?GetCollectionFromUSStore@CObjectCollectionUSStore@@EAAJKPAUUS_SORTSPEC@@PAU_USRestriction@@PAPAUIUSObjectCollection@@@Z 100543e4 f   pimstorelib:PoomUSObjectCollection.obj
 0001:00053404       ?GetCollectionFromUSStore@CObjectCollectionUSRecipient@@EAAJKPAUUS_SORTSPEC@@PAU_USRestriction@@PAPAUIUSObjectCollection@@@Z 10054404 f   pimstorelib:PoomUSObjectCollection.obj
 0001:00053438       ??1CUSItemIterator@@QAA@XZ 10054438 f   pimstorelib:PoomUSObjectCollection.obj
 0001:000534a4       ?GetCount@CUSItemIterator@@UAAJPAK@Z 100544a4 f   pimstorelib:PoomUSObjectCollection.obj
 0001:000534cc       ??1CUSStoreIterator@@QAA@XZ 100544cc f   pimstorelib:PoomUSObjectCollection.obj
 0001:00053538       ?GetCount@CUSStoreIterator@@UAAJPAK@Z 10054538 f   pimstorelib:PoomUSObjectCollection.obj
 0001:00053560       ??1CUSRecipientIterator@@QAA@XZ 10054560 f   pimstorelib:PoomUSObjectCollection.obj
 0001:000535cc       ?GetCount@CUSRecipientIterator@@UAAJPAK@Z 100545cc f   pimstorelib:PoomUSObjectCollection.obj
 0001:000535f4       ??0CObjectCollectionUS@@QAA@XZ 100545f4 f   pimstorelib:PoomUSObjectCollection.obj
 0001:0005364c       ??1CObjectCollectionUS@@QAA@XZ 1005464c f   pimstorelib:PoomUSObjectCollection.obj
 0001:00053700       ?HasCalculatedOrNamedProperty@CObjectCollectionUS@@IAAJPAUIRestriction@@PAH@Z 10054700 f   pimstorelib:PoomUSObjectCollection.obj
 0001:00053944       ?GetItemFromUSObject@CUSItemIterator@@AAAJPAUIUSObject@@PAPAUIItem2@@@Z 10054944 f   pimstorelib:PoomUSObjectCollection.obj
 0001:000539d0       ?GetItem@CUSItemIterator@@UAAJJPAPAUIItem2@@@Z 100549d0 f   pimstorelib:PoomUSObjectCollection.obj
 0001:00053a98       ?GetItemId@CUSItemIterator@@UAAJJPAUOLITEMID@@@Z 10054a98 f   pimstorelib:PoomUSObjectCollection.obj
 0001:00053b10       ?GetFirst@CUSItemIterator@@UAAJPAPAUIItem2@@@Z 10054b10 f   pimstorelib:PoomUSObjectCollection.obj
 0001:00053bac       ?GetNext@CUSItemIterator@@UAAJPAPAUIItem2@@@Z 10054bac f   pimstorelib:PoomUSObjectCollection.obj
 0001:00053c58       ?GetStoreFromUSObject@CUSStoreIterator@@AAAJPAUIUSObject@@PAPAUIStore@@@Z 10054c58 f   pimstorelib:PoomUSObjectCollection.obj
 0001:00053d6c       ?GetStore@CUSStoreIterator@@UAAJJPAPAUIStore@@@Z 10054d6c f   pimstorelib:PoomUSObjectCollection.obj
 0001:00053e00       ?GetFirst@CUSStoreIterator@@UAAJPAPAUIStore@@@Z 10054e00 f   pimstorelib:PoomUSObjectCollection.obj
 0001:00053e94       ?GetNext@CUSStoreIterator@@UAAJPAPAUIStore@@@Z 10054e94 f   pimstorelib:PoomUSObjectCollection.obj
 0001:00053f28       ??0?$CComObject@VCUSItemIterator@@@ATL@@QAA@PAX@Z 10054f28 f i pimstorelib:PoomUSObjectCollection.obj
 0001:00053f88       ??1?$CComObject@VCUSItemIterator@@@ATL@@UAA@XZ 10054f88 f i pimstorelib:PoomUSObjectCollection.obj
 0001:00053fc8       ?AddRef@?$CComObject@VCUSItemIterator@@@ATL@@UAAKXZ 10054fc8 f i pimstorelib:PoomUSObjectCollection.obj
 0001:00053fd0       ?Release@?$CComObject@VCUSItemIterator@@@ATL@@UAAKXZ 10054fd0 f i pimstorelib:PoomUSObjectCollection.obj
 0001:00054008       ??_E?$CComObject@VCUSItemIterator@@@ATL@@UAAPAXI@Z 10055008 f i pimstorelib:PoomUSObjectCollection.obj
 0001:00054008       ??_G?$CComObject@VCUSItemIterator@@@ATL@@UAAPAXI@Z 10055008 f i pimstorelib:PoomUSObjectCollection.obj
 0001:0005402c       ?QueryInterface@?$CComObject@VCUSItemIterator@@@ATL@@UAAJABU_GUID@@PAPAX@Z 1005502c f i pimstorelib:PoomUSObjectCollection.obj
 0001:00054040       ??0?$CComObject@VCUSStoreIterator@@@ATL@@QAA@PAX@Z 10055040 f i pimstorelib:PoomUSObjectCollection.obj
 0001:00054098       ??1?$CComObject@VCUSStoreIterator@@@ATL@@UAA@XZ 10055098 f i pimstorelib:PoomUSObjectCollection.obj
 0001:000540d8       ?AddRef@?$CComObject@VCUSStoreIterator@@@ATL@@UAAKXZ 100550d8 f i pimstorelib:PoomUSObjectCollection.obj
 0001:000540e0       ?Release@?$CComObject@VCUSStoreIterator@@@ATL@@UAAKXZ 100550e0 f i pimstorelib:PoomUSObjectCollection.obj
 0001:00054118       ??_E?$CComObject@VCUSStoreIterator@@@ATL@@UAAPAXI@Z 10055118 f i pimstorelib:PoomUSObjectCollection.obj
 0001:00054118       ??_G?$CComObject@VCUSStoreIterator@@@ATL@@UAAPAXI@Z 10055118 f i pimstorelib:PoomUSObjectCollection.obj
 0001:0005413c       ?QueryInterface@?$CComObject@VCUSStoreIterator@@@ATL@@UAAJABU_GUID@@PAPAX@Z 1005513c f i pimstorelib:PoomUSObjectCollection.obj
 0001:00054150       ??0?$CComObject@VCUSRecipientIterator@@@ATL@@QAA@PAX@Z 10055150 f i pimstorelib:PoomUSObjectCollection.obj
 0001:000541a8       ??1?$CComObject@VCUSRecipientIterator@@@ATL@@UAA@XZ 100551a8 f i pimstorelib:PoomUSObjectCollection.obj
 0001:000541e8       ?AddRef@?$CComObject@VCUSRecipientIterator@@@ATL@@UAAKXZ 100551e8 f i pimstorelib:PoomUSObjectCollection.obj
 0001:000541f0       ?Release@?$CComObject@VCUSRecipientIterator@@@ATL@@UAAKXZ 100551f0 f i pimstorelib:PoomUSObjectCollection.obj
 0001:00054228       ??_E?$CComObject@VCUSRecipientIterator@@@ATL@@UAAPAXI@Z 10055228 f i pimstorelib:PoomUSObjectCollection.obj
 0001:00054228       ??_G?$CComObject@VCUSRecipientIterator@@@ATL@@UAAPAXI@Z 10055228 f i pimstorelib:PoomUSObjectCollection.obj
 0001:0005424c       ?QueryInterface@?$CComObject@VCUSRecipientIterator@@@ATL@@UAAJABU_GUID@@PAPAX@Z 1005524c f i pimstorelib:PoomUSObjectCollection.obj
 0001:00054260       ?CanHandleRestrictionAndSort@CObjectCollectionUS@@IAAJPAUIRestriction@@KPAKPAF@Z 10055260 f   pimstorelib:PoomUSObjectCollection.obj
 0001:00054364       ?SortAndRestrict@CObjectCollectionUS@@IAAJKPAKPAFPAUIRestriction@@@Z 10055364 f   pimstorelib:PoomUSObjectCollection.obj
 0001:00054500       ?Init@CUSItemIterator@@QAAJPAVCPOutlookApp@@PAVCObjectCollectionUS@@@Z 10055500 f   pimstorelib:PoomUSObjectCollection.obj
 0001:00054540       ?Init@CUSStoreIterator@@QAAJPAVCPOutlookApp@@PAVCObjectCollectionUS@@@Z 10055540 f   pimstorelib:PoomUSObjectCollection.obj
 0001:00054580       ?Init@CUSRecipientIterator@@QAAJPAVCPOutlookApp@@PAVCObjectCollectionUS@@@Z 10055580 f   pimstorelib:PoomUSObjectCollection.obj
 0001:000545c0       ?GetRecipientFromUSObject@CUSRecipientIterator@@AAAJPAUIUSObject@@PAPAUIRecipient3@@@Z 100555c0 f   pimstorelib:PoomUSObjectCollection.obj
 0001:00054678       ?GetRecipient@CUSRecipientIterator@@UAAJJPAPAUIRecipient3@@@Z 10055678 f   pimstorelib:PoomUSObjectCollection.obj
 0001:0005470c       ?GetFirst@CUSRecipientIterator@@UAAJPAPAUIRecipient3@@@Z 1005570c f   pimstorelib:PoomUSObjectCollection.obj
 0001:000547a0       ?GetNext@CUSRecipientIterator@@UAAJPAPAUIRecipient3@@@Z 100557a0 f   pimstorelib:PoomUSObjectCollection.obj
 0001:00054834       ?CreateInstance@?$CComObject@VCUSItemIterator@@@ATL@@SAJPAPAV12@@Z 10055834 f i pimstorelib:PoomUSObjectCollection.obj
 0001:000548d4       ?CreateInstance@?$CComObject@VCUSStoreIterator@@@ATL@@SAJPAPAV12@@Z 100558d4 f i pimstorelib:PoomUSObjectCollection.obj
 0001:00054974       ?CreateInstance@?$CComObject@VCUSRecipientIterator@@@ATL@@SAJPAPAV12@@Z 10055974 f i pimstorelib:PoomUSObjectCollection.obj
 0001:00054a14       ??0?$CComObject@VCObjectCollectionUSItem@@@ATL@@QAA@PAX@Z 10055a14 f i pimstorelib:PoomUSObjectCollection.obj
 0001:00054a54       ?AddRef@?$CComObject@VCObjectCollectionUSItem@@@ATL@@UAAKXZ 10055a54 f i pimstorelib:PoomUSObjectCollection.obj
 0001:00054a5c       ?Release@?$CComObject@VCObjectCollectionUSItem@@@ATL@@UAAKXZ 10055a5c f i pimstorelib:PoomUSObjectCollection.obj
 0001:00054a94       ?QueryInterface@?$CComObject@VCObjectCollectionUSItem@@@ATL@@UAAJABU_GUID@@PAPAX@Z 10055a94 f i pimstorelib:PoomUSObjectCollection.obj
 0001:00054aa8       ??1?$CComObject@VCObjectCollectionUSItem@@@ATL@@UAA@XZ 10055aa8 f i pimstorelib:PoomUSObjectCollection.obj
 0001:00054b04       ??_E?$CComObject@VCObjectCollectionUSItem@@@ATL@@UAAPAXI@Z 10055b04 f i pimstorelib:PoomUSObjectCollection.obj
 0001:00054b04       ??_G?$CComObject@VCObjectCollectionUSItem@@@ATL@@UAAPAXI@Z 10055b04 f i pimstorelib:PoomUSObjectCollection.obj
 0001:00054b28       ??0?$CComObject@VCObjectCollectionUSFolder@@@ATL@@QAA@PAX@Z 10055b28 f i pimstorelib:PoomUSObjectCollection.obj
 0001:00054b68       ?AddRef@?$CComObject@VCObjectCollectionUSFolder@@@ATL@@UAAKXZ 10055b68 f i pimstorelib:PoomUSObjectCollection.obj
 0001:00054b70       ?Release@?$CComObject@VCObjectCollectionUSFolder@@@ATL@@UAAKXZ 10055b70 f i pimstorelib:PoomUSObjectCollection.obj
 0001:00054ba8       ?QueryInterface@?$CComObject@VCObjectCollectionUSFolder@@@ATL@@UAAJABU_GUID@@PAPAX@Z 10055ba8 f i pimstorelib:PoomUSObjectCollection.obj
 0001:00054bbc       ??1?$CComObject@VCObjectCollectionUSFolder@@@ATL@@UAA@XZ 10055bbc f i pimstorelib:PoomUSObjectCollection.obj
 0001:00054c18       ??_E?$CComObject@VCObjectCollectionUSFolder@@@ATL@@UAAPAXI@Z 10055c18 f i pimstorelib:PoomUSObjectCollection.obj
 0001:00054c18       ??_G?$CComObject@VCObjectCollectionUSFolder@@@ATL@@UAAPAXI@Z 10055c18 f i pimstorelib:PoomUSObjectCollection.obj
 0001:00054c3c       ?AddRef@?$CComObject@VCObjectCollectionUSStore@@@ATL@@UAAKXZ 10055c3c f i pimstorelib:PoomUSObjectCollection.obj
 0001:00054c44       ?Release@?$CComObject@VCObjectCollectionUSStore@@@ATL@@UAAKXZ 10055c44 f i pimstorelib:PoomUSObjectCollection.obj
 0001:00054c7c       ?QueryInterface@?$CComObject@VCObjectCollectionUSStore@@@ATL@@UAAJABU_GUID@@PAPAX@Z 10055c7c f i pimstorelib:PoomUSObjectCollection.obj
 0001:00054c90       ??1?$CComObject@VCObjectCollectionUSStore@@@ATL@@UAA@XZ 10055c90 f i pimstorelib:PoomUSObjectCollection.obj
 0001:00054cd0       ??_E?$CComObject@VCObjectCollectionUSStore@@@ATL@@UAAPAXI@Z 10055cd0 f i pimstorelib:PoomUSObjectCollection.obj
 0001:00054cd0       ??_G?$CComObject@VCObjectCollectionUSStore@@@ATL@@UAAPAXI@Z 10055cd0 f i pimstorelib:PoomUSObjectCollection.obj
 0001:00054cf4       ?AddRef@?$CComObject@VCObjectCollectionUSRecipient@@@ATL@@UAAKXZ 10055cf4 f i pimstorelib:PoomUSObjectCollection.obj
 0001:00054cfc       ?Release@?$CComObject@VCObjectCollectionUSRecipient@@@ATL@@UAAKXZ 10055cfc f i pimstorelib:PoomUSObjectCollection.obj
 0001:00054d34       ?QueryInterface@?$CComObject@VCObjectCollectionUSRecipient@@@ATL@@UAAJABU_GUID@@PAPAX@Z 10055d34 f i pimstorelib:PoomUSObjectCollection.obj
 0001:00054d48       ??1?$CComObject@VCObjectCollectionUSRecipient@@@ATL@@UAA@XZ 10055d48 f i pimstorelib:PoomUSObjectCollection.obj
 0001:00054d88       ??_E?$CComObject@VCObjectCollectionUSRecipient@@@ATL@@UAAPAXI@Z 10055d88 f i pimstorelib:PoomUSObjectCollection.obj
 0001:00054d88       ??_G?$CComObject@VCObjectCollectionUSRecipient@@@ATL@@UAAPAXI@Z 10055d88 f i pimstorelib:PoomUSObjectCollection.obj
 0001:00054dac       ?Initialize@CObjectCollectionUS@@IAAJPAVCPOutlookApp@@PAUIUSStore@@PAUIRestriction@@KPAKPAF@Z 10055dac f   pimstorelib:PoomUSObjectCollection.obj
 0001:00054e4c       ?CanHandleRestrictionAndSort@CObjectCollectionUS@@UAAJPAUIRestriction@@KPAPAGPAF@Z 10055e4c f   pimstorelib:PoomUSObjectCollection.obj
 0001:00054edc       ?Restrict@CObjectCollectionUS@@UAAJPAUIRestriction@@@Z 10055edc f   pimstorelib:PoomUSObjectCollection.obj
 0001:00054f10       ?Sort@CObjectCollectionUS@@UAAJKPAPAGPAF@Z 10055f10 f   pimstorelib:PoomUSObjectCollection.obj
 0001:00054fa0       ?Initialize@CObjectCollectionUSItem@@QAAJPAVCPOutlookApp@@PAUIUSFolder@@PAUIUSStore@@W4OlDefaultFolders@@HPAUIRestriction@@KPAKPAFH@Z 10055fa0 f   pimstorelib:PoomUSObjectCollection.obj
 0001:0005505c       ?CreateIterator@CObjectCollectionUSItem@@UAAJPAPAUIUnknown@@@Z 1005605c f   pimstorelib:PoomUSObjectCollection.obj
 0001:000550d8       ?Initialize@CObjectCollectionUSFolder@@QAAJPAVCPOutlookApp@@PAUIUSFolder@@PAUIUSStore@@PAUIRestriction@@KPAKPAF@Z 100560d8 f   pimstorelib:PoomUSObjectCollection.obj
 0001:00055130       ?CreateIterator@CObjectCollectionUSFolder@@UAAJPAPAUIUnknown@@@Z 10056130 f   pimstorelib:PoomUSObjectCollection.obj
 0001:000551ac       ?CreateIterator@CObjectCollectionUSStore@@UAAJPAPAUIUnknown@@@Z 100561ac f   pimstorelib:PoomUSObjectCollection.obj
 0001:00055228       ?CreateIterator@CObjectCollectionUSRecipient@@UAAJPAPAUIUnknown@@@Z 10056228 f   pimstorelib:PoomUSObjectCollection.obj
 0001:000552a4       ?CreateInstance@?$CComObject@VCObjectCollectionUSItem@@@ATL@@SAJPAPAV12@@Z 100562a4 f i pimstorelib:PoomUSObjectCollection.obj
 0001:00055344       ?CreateInstance@?$CComObject@VCObjectCollectionUSFolder@@@ATL@@SAJPAPAV12@@Z 10056344 f i pimstorelib:PoomUSObjectCollection.obj
 0001:000553e4       ?CreateInstance@?$CComObject@VCObjectCollectionUSStore@@@ATL@@SAJPAPAV12@@Z 100563e4 f i pimstorelib:PoomUSObjectCollection.obj
 0001:000554a4       ?CreateInstance@?$CComObject@VCObjectCollectionUSRecipient@@@ATL@@SAJPAPAV12@@Z 100564a4 f i pimstorelib:PoomUSObjectCollection.obj
 0001:00055564       ?CreateCollection@CObjectCollectionUSItem@@SAJPAVCPOutlookApp@@PAUIUSFolder@@W4OlDefaultFolders@@HPAUIRestriction@@KPAPAGPAFHPAPAUICollection@@@Z 10056564 f   pimstorelib:PoomUSObjectCollection.obj
 0001:000556b0       ?Clone@CObjectCollectionUSItem@@UAAJPAPAUICollection@@@Z 100566b0 f   pimstorelib:PoomUSObjectCollection.obj
 0001:00055788       ?CreateCollection@CObjectCollectionUSFolder@@SAJPAVCPOutlookApp@@PAUIUSFolder@@PAUIRestriction@@KPAPAGPAFPAPAUICollection@@@Z 10056788 f   pimstorelib:PoomUSObjectCollection.obj
 0001:000558ac       ?Clone@CObjectCollectionUSFolder@@UAAJPAPAUICollection@@@Z 100568ac f   pimstorelib:PoomUSObjectCollection.obj
 0001:00055958       ?CreateCollection@CObjectCollectionUSStore@@SAJPAVCPOutlookApp@@PAUIRestriction@@KPAPAGPAFPAPAUICollection@@@Z 10056958 f   pimstorelib:PoomUSObjectCollection.obj
 0001:00055a38       ?Clone@CObjectCollectionUSStore@@UAAJPAPAUICollection@@@Z 10056a38 f   pimstorelib:PoomUSObjectCollection.obj
 0001:00055adc       ?CreateCollection@CObjectCollectionUSRecipient@@SAJPAVCPOutlookApp@@W4OlItemType@@PAUIUSStore@@PAUIRestriction@@KPAPAGPAFPAPAUICollection@@@Z 10056adc f   pimstorelib:PoomUSObjectCollection.obj
 0001:00055bc0       ?Clone@CObjectCollectionUSRecipient@@UAAJPAPAUICollection@@@Z 10056bc0 f   pimstorelib:PoomUSObjectCollection.obj
 0001:00055c6c       ?AddRef@?$CUnknownImpl@UIPOutlookFolderCollection@@@@UAAKXZ 10056c6c f i pimstorelib:FolderCollection.obj
 0001:00055c74       ?Release@?$CUnknownImpl@UIPOutlookFolderCollection@@@@UAAKXZ 10056c74 f i pimstorelib:FolderCollection.obj
 0001:00055ca8       ??_G?$CUnknownImpl@UIPOutlookFolderCollection@@@@UAAPAXI@Z 10056ca8 f i pimstorelib:FolderCollection.obj
 0001:00055ca8       ??_E?$CUnknownImpl@UIPOutlookFolderCollection@@@@UAAPAXI@Z 10056ca8 f i pimstorelib:FolderCollection.obj
 0001:00055ce0       ?QueryInterface@CFolderCollection@@UAAJABU_GUID@@PAPAX@Z 10056ce0 f   pimstorelib:FolderCollection.obj
 0001:00055d80       ?_get_Count@CFolderCollection@@AAAJPAH@Z 10056d80 f   pimstorelib:FolderCollection.obj
 0001:00055de8       ?_get__NewEnum@CFolderCollection@@AAAJPAPAUIUnknown@@@Z 10056de8 f   pimstorelib:FolderCollection.obj
 0001:00055e54       ??1CFolderCollection@@UAA@XZ 10056e54 f   pimstorelib:FolderCollection.obj
 0001:00055f78       ??_ECFolderCollection@@W7AAPAXI@Z 10056f78 f i pimstorelib:FolderCollection.obj
 0001:00055f80       ?GetTypeInfoCount@?$CDispatchImpl@UIPOutlookFolderCollection@@@@UAAJPAI@Z 10056f80 f i pimstorelib:FolderCollection.obj
 0001:00055f88       ?GetTypeInfo@?$CDispatchImpl@UIPOutlookFolderCollection@@@@UAAJIKPAPAUITypeInfo@@@Z 10056f88 f i pimstorelib:FolderCollection.obj
 0001:00055f90       ?GetIDsOfNames@?$CDispatchImpl@UIPOutlookFolderCollection@@@@UAAJABU_GUID@@PAPAGIKPAJ@Z 10056f90 f i pimstorelib:FolderCollection.obj
 0001:00055fb8       ?Invoke@?$CDispatchImpl@UIPOutlookFolderCollection@@@@UAAJJABU_GUID@@KGPAUtagDISPPARAMS@@PAUtagVARIANT@@PAUtagEXCEPINFO@@PAI@Z 10056fb8 f i pimstorelib:FolderCollection.obj
 0001:00056000       ?get_Application@?$CDispatchImpl@UIPOutlookFolderCollection@@@@UAAJPAPAUIPOutlookApp@@@Z 10057000 f i pimstorelib:FolderCollection.obj
 0001:00056004       ?GetTypeInfo@?$CDispatchImpl@UIPOutlookFolderCollection@@@@W7AAJIKPAPAUITypeInfo@@@Z 10057004 f i pimstorelib:FolderCollection.obj
 0001:0005600c       ?GetIDsOfNames@?$CDispatchImpl@UIPOutlookFolderCollection@@@@W7AAJABU_GUID@@PAPAGIKPAJ@Z 1005700c f i pimstorelib:FolderCollection.obj
 0001:00056014       ?GetTypeInfoCount@?$CDispatchImpl@UIPOutlookFolderCollection@@@@W7AAJPAI@Z 10057014 f i pimstorelib:FolderCollection.obj
 0001:0005601c       ?get_Count@CFolderCollection@@UAAJPAH@Z 1005701c f i pimstorelib:FolderCollection.obj
 0001:0005605c       ?get__NewEnum@CFolderCollection@@UAAJPAPAUIUnknown@@@Z 1005705c f i pimstorelib:FolderCollection.obj
 0001:0005609c       ?AddRef@?$CDispatchImpl@UIPOutlookFolderCollection@@@@UAAKXZ 1005709c f i pimstorelib:FolderCollection.obj
 0001:000560a4       ?Release@?$CDispatchImpl@UIPOutlookFolderCollection@@@@UAAKXZ 100570a4 f i pimstorelib:FolderCollection.obj
 0001:000560d8       ?_get_Application@CFolderCollection@@AAAJPAPAUIPOutlookApp3@@@Z 100570d8 f   pimstorelib:FolderCollection.obj
 0001:0005613c       ?get_Application@CFolderCollection@@UAAJPAPAUIPOutlookApp3@@@Z 1005713c f i pimstorelib:FolderCollection.obj
 0001:00056140       ??_GCFolderCollection@@UAAPAXI@Z 10057140 f i pimstorelib:FolderCollection.obj
 0001:00056140       ??_ECFolderCollection@@UAAPAXI@Z 10057140 f i pimstorelib:FolderCollection.obj
 0001:00056164       ?Initialize@CFolderCollection@@QAAJKPAPAGPAFPAUIRestriction@@@Z 10057164 f   pimstorelib:FolderCollection.obj
 0001:000562c4       ?_GetFolder@CFolderCollection@@AAAJHPAPAUIFolder2@@@Z 100572c4 f   pimstorelib:FolderCollection.obj
 0001:00056390       ?_Find@CFolderCollection@@AAAJPAGPAPAUIFolder2@@@Z 10057390 f   pimstorelib:FolderCollection.obj
 0001:00056604       ?_FindNext@CFolderCollection@@AAAJPAPAUIFolder2@@@Z 10057604 f   pimstorelib:FolderCollection.obj
 0001:000566f8       ??0?$CDispatchImpl@UIPOutlookFolderCollection@@@@QAA@PAVCPOutlookApp@@@Z 100576f8 f i pimstorelib:FolderCollection.obj
 0001:00056750       ??_E?$CDispatchImpl@UIPOutlookFolderCollection@@@@W7AAPAXI@Z 10057750 f i pimstorelib:FolderCollection.obj
 0001:00056758       ?get_Application@?$CDispatchImpl@UIPOutlookFolderCollection@@@@UAAJPAPAUIPOutlookApp3@@@Z 10057758 f i pimstorelib:FolderCollection.obj
 0001:00056760       ??_G?$CDispatchImpl@UIPOutlookFolderCollection@@@@UAAPAXI@Z 10057760 f i pimstorelib:FolderCollection.obj
 0001:00056760       ??_E?$CDispatchImpl@UIPOutlookFolderCollection@@@@UAAPAXI@Z 10057760 f i pimstorelib:FolderCollection.obj
 0001:000567a0       ?get_Application@?$CDispatchImpl@UIPOutlookFolderCollection@@@@W7AAJPAPAUIPOutlookApp3@@@Z 100577a0 f i pimstorelib:FolderCollection.obj
 0001:000567a8       ?get_Application@CFolderCollection@@W7AAJPAPAUIPOutlookApp3@@@Z 100577a8 f i pimstorelib:FolderCollection.obj
 0001:000567b0       ?Find@CFolderCollection@@UAAJPAGPAPAUIFolder2@@@Z 100577b0 f i pimstorelib:FolderCollection.obj
 0001:000567f8       ?FindNext@CFolderCollection@@UAAJPAPAUIFolder2@@@Z 100577f8 f i pimstorelib:FolderCollection.obj
 0001:00056838       ?GetFolder@CFolderCollection@@UAAJHPAPAUIFolder2@@@Z 10057838 f i pimstorelib:FolderCollection.obj
 0001:00056880       ?Sort@CFolderCollection@@UAAJKPAPAGPAF@Z 10057880 f i pimstorelib:FolderCollection.obj
 0001:000568e0       ??0CFolderCollection@@QAA@PAVCPOutlookApp@@PAUIUSFolder@@@Z 100578e0 f   pimstorelib:FolderCollection.obj
 0001:00056968       ?_Restrict@CFolderCollection@@AAAJPAGPAPAUIPOutlookFolderCollection@@@Z 10057968 f   pimstorelib:FolderCollection.obj
 0001:00056a84       ?Restrict@CFolderCollection@@UAAJPAGPAPAUIPOutlookFolderCollection@@@Z 10057a84 f i pimstorelib:FolderCollection.obj
 0001:00056acc       ?get_AppointmentItem@CException@@UAAJPAPAUIAppointment@@@Z 10057acc f   pimstorelib:except.obj
 0001:00056b9c       ?get_Deleted@CException@@UAAJPAF@Z 10057b9c f   pimstorelib:except.obj
 0001:00056bd0       ?AddRef@?$CUnknownImpl@UIPOlException@@@@UAAKXZ 10057bd0 f i pimstorelib:except.obj
 0001:00056bd8       ?Release@?$CUnknownImpl@UIPOlException@@@@UAAKXZ 10057bd8 f i pimstorelib:except.obj
 0001:00056c0c       ?AddRef@?$CUnknownImpl@UIExceptions@@@@UAAKXZ 10057c0c f i pimstorelib:except.obj
 0001:00056c14       ?Release@?$CUnknownImpl@UIExceptions@@@@UAAKXZ 10057c14 f i pimstorelib:except.obj
 0001:00056c48       ??_E?$CUnknownImpl@UIPOlException@@@@UAAPAXI@Z 10057c48 f i pimstorelib:except.obj
 0001:00056c48       ??_G?$CUnknownImpl@UIPOlException@@@@UAAPAXI@Z 10057c48 f i pimstorelib:except.obj
 0001:00056c80       ??_G?$CUnknownImpl@UIExceptions@@@@UAAPAXI@Z 10057c80 f i pimstorelib:except.obj
 0001:00056c80       ??_E?$CUnknownImpl@UIExceptions@@@@UAAPAXI@Z 10057c80 f i pimstorelib:except.obj
 0001:00056cb8       ?QueryInterface@CExceptionCollection@@UAAJABU_GUID@@PAPAX@Z 10057cb8 f   pimstorelib:except.obj
 0001:00056d7c       ?ResetExceptionData@CExceptionCollection@@AAAXPAUUSOID@@@Z 10057d7c f   pimstorelib:except.obj
 0001:00056dd8       ?Reset@CExceptionCollection@@QAAXPAUUSOID@@@Z 10057dd8 f   pimstorelib:except.obj
 0001:00056df0       ?ClearExceptions@CExceptionCollection@@QAAXPAUUSOID@@@Z 10057df0 f   pimstorelib:except.obj
 0001:00056e08       ??1CExceptionCollection@@UAA@XZ 10057e08 f   pimstorelib:except.obj
 0001:00056e5c       ??_ECExceptionCollection@@W7AAPAXI@Z 10057e5c f i pimstorelib:except.obj
 0001:00056e64       ?GetTypeInfoCount@?$CDispatchImpl@UIExceptions@@@@UAAJPAI@Z 10057e64 f i pimstorelib:except.obj
 0001:00056e6c       ?GetTypeInfo@?$CDispatchImpl@UIExceptions@@@@UAAJIKPAPAUITypeInfo@@@Z 10057e6c f i pimstorelib:except.obj
 0001:00056e74       ?GetIDsOfNames@?$CDispatchImpl@UIExceptions@@@@UAAJABU_GUID@@PAPAGIKPAJ@Z 10057e74 f i pimstorelib:except.obj
 0001:00056e9c       ?Invoke@?$CDispatchImpl@UIExceptions@@@@UAAJJABU_GUID@@KGPAUtagDISPPARAMS@@PAUtagVARIANT@@PAUtagEXCEPINFO@@PAI@Z 10057e9c f i pimstorelib:except.obj
 0001:00056ee4       ?get_Application@?$CDispatchImpl@UIExceptions@@@@UAAJPAPAUIPOutlookApp3@@@Z 10057ee4 f i pimstorelib:except.obj
 0001:00056ee8       ?get_Application@?$CDispatchImpl@UIExceptions@@@@UAAJPAPAUIPOutlookApp@@@Z 10057ee8 f i pimstorelib:except.obj
 0001:00056ef0       ?get__NewEnum@CExceptionCollection@@UAAJPAPAUIUnknown@@@Z 10057ef0 f   pimstorelib:except.obj
 0001:00056f50       ?QueryInterface@CException@@UAAJABU_GUID@@PAPAX@Z 10057f50 f   pimstorelib:except.obj
 0001:00057030       ??1CException@@UAA@XZ      10058030 f   pimstorelib:except.obj
 0001:00057098       ??_ECException@@W7AAPAXI@Z 10058098 f i pimstorelib:except.obj
 0001:000570a0       ?GetTypeInfoCount@?$CDispatchImpl@UIPOlException@@@@UAAJPAI@Z 100580a0 f i pimstorelib:except.obj
 0001:000570a8       ?GetTypeInfo@?$CDispatchImpl@UIPOlException@@@@UAAJIKPAPAUITypeInfo@@@Z 100580a8 f i pimstorelib:except.obj
 0001:000570b0       ?GetIDsOfNames@?$CDispatchImpl@UIPOlException@@@@UAAJABU_GUID@@PAPAGIKPAJ@Z 100580b0 f i pimstorelib:except.obj
 0001:000570d8       ?Invoke@?$CDispatchImpl@UIPOlException@@@@UAAJJABU_GUID@@KGPAUtagDISPPARAMS@@PAUtagVARIANT@@PAUtagEXCEPINFO@@PAI@Z 100580d8 f i pimstorelib:except.obj
 0001:00057120       ?get_Application@?$CDispatchImpl@UIPOlException@@@@UAAJPAPAUIPOutlookApp3@@@Z 10058120 f i pimstorelib:except.obj
 0001:00057124       ?get_Application@?$CDispatchImpl@UIPOlException@@@@UAAJPAPAUIPOutlookApp@@@Z 10058124 f i pimstorelib:except.obj
 0001:0005712c       ?get_OriginalDate@CException@@UAAJPAN@Z 1005812c f   pimstorelib:except.obj
 0001:00057150       ?get_ExceptionInfo@CException@@UAAJPAJ@Z 10058150 f   pimstorelib:except.obj
 0001:000572ec       ?get_Application@?$CDispatchImpl@UIPOlException@@@@W7AAJPAPAUIPOutlookApp@@@Z 100582ec f i pimstorelib:except.obj
 0001:000572f4       ?GetIDsOfNames@?$CDispatchImpl@UIExceptions@@@@W7AAJABU_GUID@@PAPAGIKPAJ@Z 100582f4 f i pimstorelib:except.obj
 0001:000572fc       ?GetIDsOfNames@?$CDispatchImpl@UIPOlException@@@@W7AAJABU_GUID@@PAPAGIKPAJ@Z 100582fc f i pimstorelib:except.obj
 0001:00057304       ?GetTypeInfoCount@?$CDispatchImpl@UIExceptions@@@@W7AAJPAI@Z 10058304 f i pimstorelib:except.obj
 0001:0005730c       ?GetTypeInfoCount@?$CDispatchImpl@UIPOlException@@@@W7AAJPAI@Z 1005830c f i pimstorelib:except.obj
 0001:00057314       ?GetTypeInfo@?$CDispatchImpl@UIExceptions@@@@W7AAJIKPAPAUITypeInfo@@@Z 10058314 f i pimstorelib:except.obj
 0001:0005731c       ?GetTypeInfo@?$CDispatchImpl@UIPOlException@@@@W7AAJIKPAPAUITypeInfo@@@Z 1005831c f i pimstorelib:except.obj
 0001:00057324       ?get_Application@?$CDispatchImpl@UIExceptions@@@@W7AAJPAPAUIPOutlookApp@@@Z 10058324 f i pimstorelib:except.obj
 0001:0005732c       ?AddRef@?$CDispatchImpl@UIPOlException@@@@UAAKXZ 1005832c f i pimstorelib:except.obj
 0001:00057334       ?Release@?$CDispatchImpl@UIPOlException@@@@UAAKXZ 10058334 f i pimstorelib:except.obj
 0001:00057368       ?AddRef@?$CDispatchImpl@UIExceptions@@@@UAAKXZ 10058368 f i pimstorelib:except.obj
 0001:00057370       ?Release@?$CDispatchImpl@UIExceptions@@@@UAAKXZ 10058370 f i pimstorelib:except.obj
 0001:000573a4       ??_GCExceptionCollection@@UAAPAXI@Z 100583a4 f i pimstorelib:except.obj
 0001:000573a4       ??_ECExceptionCollection@@UAAPAXI@Z 100583a4 f i pimstorelib:except.obj
 0001:000573c8       ?EnsureInitialized@CExceptionCollection@@AAAJXZ 100583c8 f   pimstorelib:except.obj
 0001:000576f8       ?get_Count@CExceptionCollection@@UAAJPAH@Z 100586f8 f   pimstorelib:except.obj
 0001:0005772c       ??_ECException@@UAAPAXI@Z  1005872c f i pimstorelib:except.obj
 0001:0005772c       ??_GCException@@UAAPAXI@Z  1005872c f i pimstorelib:except.obj
 0001:00057750       ??0?$CDispatchImpl@UIExceptions@@@@QAA@PAVCPOutlookApp@@@Z 10058750 f i pimstorelib:except.obj
 0001:000577a8       ??_E?$CDispatchImpl@UIExceptions@@@@W7AAPAXI@Z 100587a8 f i pimstorelib:except.obj
 0001:000577b0       ??_E?$CDispatchImpl@UIExceptions@@@@UAAPAXI@Z 100587b0 f i pimstorelib:except.obj
 0001:000577b0       ??_G?$CDispatchImpl@UIExceptions@@@@UAAPAXI@Z 100587b0 f i pimstorelib:except.obj
 0001:000577f0       ??0CExceptionCollection@@QAA@PAVCPOutlookApp@@PAUUSOID@@@Z 100587f0 f   pimstorelib:except.obj
 0001:00057864       ??0?$CDispatchImpl@UIPOlException@@@@QAA@PAVCPOutlookApp@@@Z 10058864 f i pimstorelib:except.obj
 0001:000578bc       ??_E?$CDispatchImpl@UIPOlException@@@@W7AAPAXI@Z 100588bc f i pimstorelib:except.obj
 0001:000578c4       ??_G?$CDispatchImpl@UIPOlException@@@@UAAPAXI@Z 100588c4 f i pimstorelib:except.obj
 0001:000578c4       ??_E?$CDispatchImpl@UIPOlException@@@@UAAPAXI@Z 100588c4 f i pimstorelib:except.obj
 0001:00057904       ??0CException@@QAA@PAVCPOutlookApp@@ABUUSOID@@PAU_SYSTEMTIME@@2PAVCExceptionCollection@@@Z 10058904 f   pimstorelib:except.obj
 0001:00057984       ?Item@CExceptionCollection@@UAAJHPAPAUIException@@@Z 10058984 f   pimstorelib:except.obj
 0001:00057a3c       ?SetApptTimes@CRecurrencePattern@@QBAKPAUtagApptTime@@@Z 10058a3c f   pimstorelib:recur.obj
 0001:00057aa0       ?get_RecurrenceType@CRecurrencePattern@@UAAJPAJ@Z 10058aa0 f   pimstorelib:recur.obj
 0001:00057b30       ?get_StartTime@CRecurrencePattern@@UAAJPAN@Z 10058b30 f   pimstorelib:recur.obj
 0001:00057b68       ?get_EndTime@CRecurrencePattern@@UAAJPAN@Z 10058b68 f   pimstorelib:recur.obj
 0001:00057bd4       ?get_NoEndDate@CRecurrencePattern@@UAAJPAF@Z 10058bd4 f   pimstorelib:recur.obj
 0001:00057bf4       ?get_Interval@CRecurrencePattern@@UAAJPAJ@Z 10058bf4 f   pimstorelib:recur.obj
 0001:00057c68       ?get_DayOfWeekMask@CRecurrencePattern@@UAAJPAJ@Z 10058c68 f   pimstorelib:recur.obj
 0001:00057ca0       ?get_DayOfMonth@CRecurrencePattern@@UAAJPAJ@Z 10058ca0 f   pimstorelib:recur.obj
 0001:00057ccc       ?get_Instance@CRecurrencePattern@@UAAJPAJ@Z 10058ccc f   pimstorelib:recur.obj
 0001:00057ce8       ?get_Duration@CRecurrencePattern@@UAAJPAJ@Z 10058ce8 f   pimstorelib:recur.obj
 0001:00057d08       ?get_MonthOfYear@CRecurrencePattern@@UAAJPAJ@Z 10058d08 f   pimstorelib:recur.obj
 0001:00057d38       ?put_RecurrenceType@CRecurrencePattern@@UAAJJ@Z 10058d38 f   pimstorelib:recur.obj
 0001:00057df0       ?put_StartTime@CRecurrencePattern@@UAAJN@Z 10058df0 f   pimstorelib:recur.obj
 0001:00057e98       ?put_NoEndDate@CRecurrencePattern@@UAAJF@Z 10058e98 f   pimstorelib:recur.obj
 0001:00057ecc       ?put_Occurrences@CRecurrencePattern@@UAAJJ@Z 10058ecc f   pimstorelib:recur.obj
 0001:00057efc       ?put_Interval@CRecurrencePattern@@UAAJJ@Z 10058efc f   pimstorelib:recur.obj
 0001:00057f58       ?put_DayOfWeekMask@CRecurrencePattern@@UAAJJ@Z 10058f58 f   pimstorelib:recur.obj
 0001:00058008       ?put_DayOfMonth@CRecurrencePattern@@UAAJJ@Z 10059008 f   pimstorelib:recur.obj
 0001:00058034       ?put_Instance@CRecurrencePattern@@UAAJJ@Z 10059034 f   pimstorelib:recur.obj
 0001:00058050       ?put_Duration@CRecurrencePattern@@UAAJJ@Z 10059050 f   pimstorelib:recur.obj
 0001:00058104       ?put_MonthOfYear@CRecurrencePattern@@UAAJJ@Z 10059104 f   pimstorelib:recur.obj
 0001:00058134       ?GetStartSystemtime@CAppointment@@QBAXPAU_SYSTEMTIME@@@Z 10059134 f i pimstorelib:recur.obj
 0001:00058188       ?AddRef@?$CUnknownImpl@UIRecurrencePattern@@@@UAAKXZ 10059188 f i pimstorelib:recur.obj
 0001:00058190       ?Release@?$CUnknownImpl@UIRecurrencePattern@@@@UAAKXZ 10059190 f i pimstorelib:recur.obj
 0001:000581c4       ??_E?$CUnknownImpl@UIRecurrencePattern@@@@UAAPAXI@Z 100591c4 f i pimstorelib:recur.obj
 0001:000581c4       ??_G?$CUnknownImpl@UIRecurrencePattern@@@@UAAPAXI@Z 100591c4 f i pimstorelib:recur.obj
 0001:000581fc       ?QueryInterface@CRecurrencePattern@@UAAJABU_GUID@@PAPAX@Z 100591fc f   pimstorelib:recur.obj
 0001:000582f0       ??1CRecurrencePattern@@UAA@XZ 100592f0 f   pimstorelib:recur.obj
 0001:00058364       ?put_DayOfMonth@CRecurrencePattern@@WBI@AAJJ@Z 10059364 f i pimstorelib:recur.obj
 0001:0005836c       ?get_Instance@CRecurrencePattern@@WBI@AAJPAJ@Z 1005936c f i pimstorelib:recur.obj
 0001:00058374       ?get_DayOfMonth@CRecurrencePattern@@WBI@AAJPAJ@Z 10059374 f i pimstorelib:recur.obj
 0001:0005837c       ?get_EndTime@CRecurrencePattern@@WBI@AAJPAN@Z 1005937c f i pimstorelib:recur.obj
 0001:00058384       ??_ECRecurrencePattern@@W7AAPAXI@Z 10059384 f i pimstorelib:recur.obj
 0001:0005838c       ?get_MonthOfYear@CRecurrencePattern@@WBI@AAJPAJ@Z 1005938c f i pimstorelib:recur.obj
 0001:00058394       ?put_RecurrenceType@CRecurrencePattern@@WBI@AAJJ@Z 10059394 f i pimstorelib:recur.obj
 0001:0005839c       ?put_DayOfWeekMask@CRecurrencePattern@@WBI@AAJJ@Z 1005939c f i pimstorelib:recur.obj
 0001:000583a4       ?put_StartTime@CRecurrencePattern@@WBI@AAJN@Z 100593a4 f i pimstorelib:recur.obj
 0001:000583ac       ?put_MonthOfYear@CRecurrencePattern@@WBI@AAJJ@Z 100593ac f i pimstorelib:recur.obj
 0001:000583b4       ?put_Occurrences@CRecurrencePattern@@WBI@AAJJ@Z 100593b4 f i pimstorelib:recur.obj
 0001:000583bc       ?get_NoEndDate@CRecurrencePattern@@WBI@AAJPAF@Z 100593bc f i pimstorelib:recur.obj
 0001:000583c4       ?get_RecurrenceType@CRecurrencePattern@@WBI@AAJPAJ@Z 100593c4 f i pimstorelib:recur.obj
 0001:000583cc       ?get_Interval@CRecurrencePattern@@WBI@AAJPAJ@Z 100593cc f i pimstorelib:recur.obj
 0001:000583d4       ?put_Duration@CRecurrencePattern@@WBI@AAJJ@Z 100593d4 f i pimstorelib:recur.obj
 0001:000583dc       ?put_NoEndDate@CRecurrencePattern@@WBI@AAJF@Z 100593dc f i pimstorelib:recur.obj
 0001:000583e4       ?put_Instance@CRecurrencePattern@@WBI@AAJJ@Z 100593e4 f i pimstorelib:recur.obj
 0001:000583ec       ?get_Duration@CRecurrencePattern@@WBI@AAJPAJ@Z 100593ec f i pimstorelib:recur.obj
 0001:000583f4       ?get_StartTime@CRecurrencePattern@@WBI@AAJPAN@Z 100593f4 f i pimstorelib:recur.obj
 0001:000583fc       ?put_Interval@CRecurrencePattern@@WBI@AAJJ@Z 100593fc f i pimstorelib:recur.obj
 0001:00058404       ?get_DayOfWeekMask@CRecurrencePattern@@WBI@AAJPAJ@Z 10059404 f i pimstorelib:recur.obj
 0001:0005840c       ?put_EndType@CRecurrencePattern@@UAAJJ@Z 1005940c f i pimstorelib:recur.obj
 0001:0005842c       ?GetTypeInfoCount@?$CDispatchImpl@UIRecurrencePattern@@@@UAAJPAI@Z 1005942c f i pimstorelib:recur.obj
 0001:00058434       ?GetTypeInfo@?$CDispatchImpl@UIRecurrencePattern@@@@UAAJIKPAPAUITypeInfo@@@Z 10059434 f i pimstorelib:recur.obj
 0001:0005843c       ?GetIDsOfNames@?$CDispatchImpl@UIRecurrencePattern@@@@UAAJABU_GUID@@PAPAGIKPAJ@Z 1005943c f i pimstorelib:recur.obj
 0001:00058464       ?Invoke@?$CDispatchImpl@UIRecurrencePattern@@@@UAAJJABU_GUID@@KGPAUtagDISPPARAMS@@PAUtagVARIANT@@PAUtagEXCEPINFO@@PAI@Z 10059464 f i pimstorelib:recur.obj
 0001:000584ac       ?get_Application@?$CDispatchImpl@UIRecurrencePattern@@@@UAAJPAPAUIPOutlookApp3@@@Z 100594ac f i pimstorelib:recur.obj
 0001:000584b0       ?get_Application@?$CDispatchImpl@UIRecurrencePattern@@@@UAAJPAPAUIPOutlookApp@@@Z 100594b0 f i pimstorelib:recur.obj
 0001:000584b8       ?Initialize@CRecurrencePattern@@QAAJHPAXPBUtagApptTime@@PBUtagRECURRENCEDATA@@@Z 100594b8 f   pimstorelib:recur.obj
 0001:00058600       ?get_Exceptions@CRecurrencePattern@@UAAJPAPAUIExceptions@@@Z 10059600 f   pimstorelib:recur.obj
 0001:00058648       ?GetOccurrence@CRecurrencePattern@@UAAJNPAPAUIAppointment2@@@Z 10059648 f   pimstorelib:recur.obj
 0001:0005878c       ?GetOccurrenceByIndex@CRecurrencePattern@@UAAJIPAPAUIAppointment2@@@Z 1005978c f   pimstorelib:recur.obj
 0001:000588b0       ?HasExceptions@CRecurrencePattern@@UAAJPAF@Z 100598b0 f   pimstorelib:recur.obj
 0001:00058910       ?get_PatternStartDate@CRecurrencePattern@@UAAJPAN@Z 10059910 f   pimstorelib:recur.obj
 0001:00058924       ?_get_EndType@CRecurrencePattern@@AAAJPAW4OlRecurrenceEndType@@@Z 10059924 f   pimstorelib:recur.obj
 0001:00058988       ?get_PatternEndDate@CRecurrencePattern@@UAAJPAN@Z 10059988 f   pimstorelib:recur.obj
 0001:00058a0c       ?get_Occurrences@CRecurrencePattern@@UAAJPAJ@Z 10059a0c f   pimstorelib:recur.obj
 0001:00058a74       ?put_PatternStartDate@CRecurrencePattern@@UAAJN@Z 10059a74 f   pimstorelib:recur.obj
 0001:00058ad0       ?put_EndTime@CRecurrencePattern@@UAAJN@Z 10059ad0 f   pimstorelib:recur.obj
 0001:00058c3c       ?put_PatternEndDate@CRecurrencePattern@@UAAJN@Z 10059c3c f   pimstorelib:recur.obj
 0001:00058c68       ?GetTypeSpecificProp@CRecurrencePattern@@UAAJKPAU_CEPROPVAL@@PAEKPAK@Z 10059c68 f   pimstorelib:recur.obj
 0001:00058f7c       ?CacheTypeSpecificProp@CRecurrencePattern@@UAAJPAU_CEPROPVAL@@@Z 10059f7c f   pimstorelib:recur.obj
 0001:0005927c       ?CalcMaxDuration@CRecurrencePattern@@QAAJPAJ@Z 1005a27c f   pimstorelib:recur.obj
 0001:00059344       ?QueryInterface@CRecurrencePattern@@WBI@AAJABU_GUID@@PAPAX@Z 1005a344 f i pimstorelib:recur.obj
 0001:0005934c       ?get_PatternStartDate@CRecurrencePattern@@WBI@AAJPAN@Z 1005a34c f i pimstorelib:recur.obj
 0001:00059354       ?put_PatternEndDate@CRecurrencePattern@@WBI@AAJN@Z 1005a354 f i pimstorelib:recur.obj
 0001:0005935c       ?get_Occurrences@CRecurrencePattern@@WBI@AAJPAJ@Z 1005a35c f i pimstorelib:recur.obj
 0001:00059364       ?get_Exceptions@CRecurrencePattern@@WBI@AAJPAPAUIExceptions@@@Z 1005a364 f i pimstorelib:recur.obj
 0001:0005936c       ?get_PatternEndDate@CRecurrencePattern@@WBI@AAJPAN@Z 1005a36c f i pimstorelib:recur.obj
 0001:00059374       ?get_Application@?$CDispatchImpl@UIRecurrencePattern@@@@W7AAJPAPAUIPOutlookApp@@@Z 1005a374 f i pimstorelib:recur.obj
 0001:0005937c       ?put_PatternStartDate@CRecurrencePattern@@WBI@AAJN@Z 1005a37c f i pimstorelib:recur.obj
 0001:00059384       ?GetTypeInfoCount@CRecurrencePattern@@UAAJPAI@Z 1005a384 f i pimstorelib:recur.obj
 0001:0005938c       ?GetTypeInfo@CRecurrencePattern@@UAAJIKPAPAUITypeInfo@@@Z 1005a38c f i pimstorelib:recur.obj
 0001:00059394       ?GetIDsOfNames@CRecurrencePattern@@UAAJABU_GUID@@PAPAGIKPAJ@Z 1005a394 f i pimstorelib:recur.obj
 0001:000593bc       ?Invoke@CRecurrencePattern@@UAAJJABU_GUID@@KGPAUtagDISPPARAMS@@PAUtagVARIANT@@PAUtagEXCEPINFO@@PAI@Z 1005a3bc f i pimstorelib:recur.obj
 0001:00059404       ?get_EndType@CRecurrencePattern@@UAAJPAW4OlRecurrenceEndType@@@Z 1005a404 f i pimstorelib:recur.obj
 0001:0005940c       ?AddRef@?$CDispatchImpl@UIRecurrencePattern@@@@UAAKXZ 1005a40c f i pimstorelib:recur.obj
 0001:00059414       ?Release@?$CDispatchImpl@UIRecurrencePattern@@@@UAAKXZ 1005a414 f i pimstorelib:recur.obj
 0001:00059448       ??_ECRecurrencePattern@@UAAPAXI@Z 1005a448 f i pimstorelib:recur.obj
 0001:00059448       ??_GCRecurrencePattern@@UAAPAXI@Z 1005a448 f i pimstorelib:recur.obj
 0001:0005946c       ?IsValidPattern@CRecurrencePattern@@QAAJXZ 1005a46c f   pimstorelib:recur.obj
 0001:00059690       ?GetIDsOfNames@CRecurrencePattern@@W7AAJABU_GUID@@PAPAGIKPAJ@Z 1005a690 f i pimstorelib:recur.obj
 0001:00059698       ?Invoke@CRecurrencePattern@@WBI@AAJJABU_GUID@@KGPAUtagDISPPARAMS@@PAUtagVARIANT@@PAUtagEXCEPINFO@@PAI@Z 1005a698 f i pimstorelib:recur.obj
 0001:000596a0       ?GetTypeInfo@CRecurrencePattern@@WBI@AAJIKPAPAUITypeInfo@@@Z 1005a6a0 f i pimstorelib:recur.obj
 0001:000596a8       ?GetTypeInfoCount@CRecurrencePattern@@W7AAJPAI@Z 1005a6a8 f i pimstorelib:recur.obj
 0001:000596b0       ?GetIDsOfNames@CRecurrencePattern@@WBI@AAJABU_GUID@@PAPAGIKPAJ@Z 1005a6b0 f i pimstorelib:recur.obj
 0001:000596b8       ?GetTypeInfo@CRecurrencePattern@@W7AAJIKPAPAUITypeInfo@@@Z 1005a6b8 f i pimstorelib:recur.obj
 0001:000596c0       ?GetTypeInfoCount@CRecurrencePattern@@WBI@AAJPAI@Z 1005a6c0 f i pimstorelib:recur.obj
 0001:000596c8       ?AddRef@CRecurrencePattern@@UAAKXZ 1005a6c8 f i pimstorelib:recur.obj
 0001:000596d0       ?Release@CRecurrencePattern@@UAAKXZ 1005a6d0 f i pimstorelib:recur.obj
 0001:00059704       ?GetOccurrence@CRecurrencePattern@@UAAJNPAPAUIAppointment@@@Z 1005a704 f   pimstorelib:recur.obj
 0001:000597b8       ??0?$CDispatchImpl@UIRecurrencePattern@@@@QAA@PAVCPOutlookApp@@@Z 1005a7b8 f i pimstorelib:recur.obj
 0001:00059810       ??_E?$CDispatchImpl@UIRecurrencePattern@@@@W7AAPAXI@Z 1005a810 f i pimstorelib:recur.obj
 0001:00059818       ??_G?$CDispatchImpl@UIRecurrencePattern@@@@UAAPAXI@Z 1005a818 f i pimstorelib:recur.obj
 0001:00059818       ??_E?$CDispatchImpl@UIRecurrencePattern@@@@UAAPAXI@Z 1005a818 f i pimstorelib:recur.obj
 0001:00059858       ?GetIDsOfNames@?$CDispatchImpl@UIRecurrencePattern@@@@W7AAJABU_GUID@@PAPAGIKPAJ@Z 1005a858 f i pimstorelib:recur.obj
 0001:00059860       ?GetTypeInfoCount@?$CDispatchImpl@UIRecurrencePattern@@@@W7AAJPAI@Z 1005a860 f i pimstorelib:recur.obj
 0001:00059868       ?GetTypeInfo@?$CDispatchImpl@UIRecurrencePattern@@@@W7AAJIKPAPAUITypeInfo@@@Z 1005a868 f i pimstorelib:recur.obj
 0001:00059870       ?Release@CRecurrencePattern@@WBI@AAKXZ 1005a870 f i pimstorelib:recur.obj
 0001:00059878       ?AddRef@CRecurrencePattern@@WBI@AAKXZ 1005a878 f i pimstorelib:recur.obj
 0001:00059880       ??0CRecurrencePattern@@QAA@PAVCPOutlookApp@@PAVCExceptionCollection@@@Z 1005a880 f   pimstorelib:recur.obj
 0001:000598d4       ??0CRecurrencePattern@@QAA@ABV0@@Z 1005a8d4 f   pimstorelib:recur.obj
 0001:00059964       ?PutTimeZoneInfo@CTimeZone@@QAAJPAU_TIME_ZONE_INFORMATION@@@Z 1005a964 f   pimstorelib:timezone.obj
 0001:00059a60       ?GetTimeZoneInfo@CTimeZone@@QAAJPAU_TIME_ZONE_INFORMATION@@PAH@Z 1005aa60 f   pimstorelib:timezone.obj
 0001:00059ab0       ?get_Bias@CTimeZone@@UAAJPAJ@Z 1005aab0 f   pimstorelib:timezone.obj
 0001:00059ac4       ?get_SupportsDST@CTimeZone@@UAAJPAF@Z 1005aac4 f   pimstorelib:timezone.obj
 0001:00059ae4       ?get_IsStandardAbsoluteDate@CTimeZone@@UAAJPAF@Z 1005aae4 f   pimstorelib:timezone.obj
 0001:00059b04       ?get_StandardDate@CTimeZone@@UAAJPAN@Z 1005ab04 f   pimstorelib:timezone.obj
 0001:00059b78       ?get_StandardDayOfWeekMask@CTimeZone@@UAAJPAJ@Z 1005ab78 f   pimstorelib:timezone.obj
 0001:00059b94       ?get_StandardInstance@CTimeZone@@UAAJPAJ@Z 1005ab94 f   pimstorelib:timezone.obj
 0001:00059ba8       ?get_StandardMonthOfYear@CTimeZone@@UAAJPAJ@Z 1005aba8 f   pimstorelib:timezone.obj
 0001:00059bbc       ?get_StandardBias@CTimeZone@@UAAJPAJ@Z 1005abbc f   pimstorelib:timezone.obj
 0001:00059bd0       ?get_StandardName@CTimeZone@@UAAJPAPAG@Z 1005abd0 f   pimstorelib:timezone.obj
 0001:00059bd8       ?get_IsDaylightAbsoluteDate@CTimeZone@@UAAJPAF@Z 1005abd8 f   pimstorelib:timezone.obj
 0001:00059bf8       ?get_DaylightDate@CTimeZone@@UAAJPAN@Z 1005abf8 f   pimstorelib:timezone.obj
 0001:00059c6c       ?get_DaylightDayOfWeekMask@CTimeZone@@UAAJPAJ@Z 1005ac6c f   pimstorelib:timezone.obj
 0001:00059c88       ?get_DaylightInstance@CTimeZone@@UAAJPAJ@Z 1005ac88 f   pimstorelib:timezone.obj
 0001:00059c9c       ?get_DaylightMonthOfYear@CTimeZone@@UAAJPAJ@Z 1005ac9c f   pimstorelib:timezone.obj
 0001:00059cb0       ?get_DaylightBias@CTimeZone@@UAAJPAJ@Z 1005acb0 f   pimstorelib:timezone.obj
 0001:00059cc4       ?get_DaylightName@CTimeZone@@UAAJPAPAG@Z 1005acc4 f   pimstorelib:timezone.obj
 0001:00059ccc       ?AddRef@?$CUnknownImpl@UITimeZone@@@@UAAKXZ 1005accc f i pimstorelib:timezone.obj
 0001:00059cd4       ?Release@?$CUnknownImpl@UITimeZone@@@@UAAKXZ 1005acd4 f i pimstorelib:timezone.obj
 0001:00059d08       ??_E?$CUnknownImpl@UITimeZone@@@@UAAPAXI@Z 1005ad08 f i pimstorelib:timezone.obj
 0001:00059d08       ??_G?$CUnknownImpl@UITimeZone@@@@UAAPAXI@Z 1005ad08 f i pimstorelib:timezone.obj
 0001:00059d40       ??1CTimeZone@@UAA@XZ       1005ad40 f   pimstorelib:timezone.obj
 0001:00059da4       ??_ECTimeZone@@W7AAPAXI@Z  1005ada4 f i pimstorelib:timezone.obj
 0001:00059dac       ?GetTypeInfoCount@?$CDispatchImpl@UITimeZone@@@@UAAJPAI@Z 1005adac f i pimstorelib:timezone.obj
 0001:00059db4       ?GetTypeInfo@?$CDispatchImpl@UITimeZone@@@@UAAJIKPAPAUITypeInfo@@@Z 1005adb4 f i pimstorelib:timezone.obj
 0001:00059dbc       ?GetIDsOfNames@?$CDispatchImpl@UITimeZone@@@@UAAJABU_GUID@@PAPAGIKPAJ@Z 1005adbc f i pimstorelib:timezone.obj
 0001:00059de4       ?Invoke@?$CDispatchImpl@UITimeZone@@@@UAAJJABU_GUID@@KGPAUtagDISPPARAMS@@PAUtagVARIANT@@PAUtagEXCEPINFO@@PAI@Z 1005ade4 f i pimstorelib:timezone.obj
 0001:00059e2c       ?get_Application@?$CDispatchImpl@UITimeZone@@@@UAAJPAPAUIPOutlookApp3@@@Z 1005ae2c f i pimstorelib:timezone.obj
 0001:00059e30       ?get_Application@?$CDispatchImpl@UITimeZone@@@@UAAJPAPAUIPOutlookApp@@@Z 1005ae30 f i pimstorelib:timezone.obj
 0001:00059e38       ?QueryInterface@CTimeZone@@UAAJABU_GUID@@PAPAX@Z 1005ae38 f   pimstorelib:timezone.obj
 0001:00059f00       ?GetIDsOfNames@?$CDispatchImpl@UITimeZone@@@@W7AAJABU_GUID@@PAPAGIKPAJ@Z 1005af00 f i pimstorelib:timezone.obj
 0001:00059f08       ?GetTypeInfoCount@?$CDispatchImpl@UITimeZone@@@@W7AAJPAI@Z 1005af08 f i pimstorelib:timezone.obj
 0001:00059f10       ?GetTypeInfo@?$CDispatchImpl@UITimeZone@@@@W7AAJIKPAPAUITypeInfo@@@Z 1005af10 f i pimstorelib:timezone.obj
 0001:00059f18       ?get_Application@?$CDispatchImpl@UITimeZone@@@@W7AAJPAPAUIPOutlookApp@@@Z 1005af18 f i pimstorelib:timezone.obj
 0001:00059f20       ?AddRef@?$CDispatchImpl@UITimeZone@@@@UAAKXZ 1005af20 f i pimstorelib:timezone.obj
 0001:00059f28       ?Release@?$CDispatchImpl@UITimeZone@@@@UAAKXZ 1005af28 f i pimstorelib:timezone.obj
 0001:00059f5c       ??_GCTimeZone@@UAAPAXI@Z   1005af5c f i pimstorelib:timezone.obj
 0001:00059f5c       ??_ECTimeZone@@UAAPAXI@Z   1005af5c f i pimstorelib:timezone.obj
 0001:00059f80       ??0?$CDispatchImpl@UITimeZone@@@@QAA@PAVCPOutlookApp@@@Z 1005af80 f i pimstorelib:timezone.obj
 0001:00059fd8       ??_E?$CDispatchImpl@UITimeZone@@@@W7AAPAXI@Z 1005afd8 f i pimstorelib:timezone.obj
 0001:00059fe0       ??_E?$CDispatchImpl@UITimeZone@@@@UAAPAXI@Z 1005afe0 f i pimstorelib:timezone.obj
 0001:00059fe0       ??_G?$CDispatchImpl@UITimeZone@@@@UAAPAXI@Z 1005afe0 f i pimstorelib:timezone.obj
 0001:0005a020       ??0CTimeZone@@QAA@PAVCPOutlookApp@@PAUtypeTIMEZONE_DATA@@H@Z 1005b020 f   pimstorelib:timezone.obj
 0001:0005a06c       ?Initialize@CRecipients@@QAAJPBVIAttendeeList@@PAUUSOID@@@Z 1005b06c f   pimstorelib:recip.obj
 0001:0005a210       ?get_Count@CRecipients@@UAAJPAH@Z 1005b210 f   pimstorelib:recip.obj
 0001:0005a220       ?RecipientReleased@CRecipients@@IAAXPAVCRecipient@@@Z 1005b220 f   pimstorelib:recip.obj
 0001:0005a2c4       ?Remove@CRecipients@@UAAJH@Z 1005b2c4 f   pimstorelib:recip.obj
 0001:0005a370       ?put_Oid@CRecipients@@QAAJPAUUSOID@@@Z 1005b370 f   pimstorelib:recip.obj
 0001:0005a394       ?put_Address@CRecipient@@UAAJPAG@Z 1005b394 f   pimstorelib:recip.obj
 0001:0005a3c0       ?put_Type@CRecipient@@UAAJW4OlRecipientType@@@Z 1005b3c0 f   pimstorelib:recip.obj
 0001:0005a3dc       ?put_Status@CRecipient@@UAAJW4OlRecipientStatus@@@Z 1005b3dc f   pimstorelib:recip.obj
 0001:0005a3f8       ?get_Address@CRecipient@@UAAJPAPAG@Z 1005b3f8 f   pimstorelib:recip.obj
 0001:0005a400       ?get_Name@CRecipient@@UAAJPAPAG@Z 1005b400 f   pimstorelib:recip.obj
 0001:0005a408       ?get_Type@CRecipient@@UAAJPAW4OlRecipientType@@@Z 1005b408 f   pimstorelib:recip.obj
 0001:0005a424       ?get_Status@CRecipient@@UAAJPAW4OlRecipientStatus@@@Z 1005b424 f   pimstorelib:recip.obj
 0001:0005a440       ?AddRef@?$CUnknownImpl@UIRecipient2@@@@UAAKXZ 1005b440 f i pimstorelib:recip.obj
 0001:0005a448       ?Release@?$CUnknownImpl@UIRecipient2@@@@UAAKXZ 1005b448 f i pimstorelib:recip.obj
 0001:0005a47c       ?AddRef@?$CUnknownImpl@UIRecipients@@@@UAAKXZ 1005b47c f i pimstorelib:recip.obj
 0001:0005a484       ?Release@?$CUnknownImpl@UIRecipients@@@@UAAKXZ 1005b484 f i pimstorelib:recip.obj
 0001:0005a4b8       ??_E?$CUnknownImpl@UIRecipient2@@@@UAAPAXI@Z 1005b4b8 f i pimstorelib:recip.obj
 0001:0005a4b8       ??_G?$CUnknownImpl@UIRecipient2@@@@UAAPAXI@Z 1005b4b8 f i pimstorelib:recip.obj
 0001:0005a4f0       ??_E?$CUnknownImpl@UIRecipients@@@@UAAPAXI@Z 1005b4f0 f i pimstorelib:recip.obj
 0001:0005a4f0       ??_G?$CUnknownImpl@UIRecipients@@@@UAAPAXI@Z 1005b4f0 f i pimstorelib:recip.obj
 0001:0005a528       ?QueryInterface@CRecipients@@UAAJABU_GUID@@PAPAX@Z 1005b528 f   pimstorelib:recip.obj
 0001:0005a61c       ??1CRecipients@@UAA@XZ     1005b61c f   pimstorelib:recip.obj
 0001:0005a6d4       ?get_Count@CRecipients@@WBI@AAJPAH@Z 1005b6d4 f i pimstorelib:recip.obj
 0001:0005a6dc       ?Remove@CRecipients@@WBI@AAJH@Z 1005b6dc f i pimstorelib:recip.obj
 0001:0005a6e4       ??_ECRecipients@@W7AAPAXI@Z 1005b6e4 f i pimstorelib:recip.obj
 0001:0005a6ec       ?GetTypeInfoCount@?$CDispatchImpl@UIRecipients@@@@UAAJPAI@Z 1005b6ec f i pimstorelib:recip.obj
 0001:0005a6f4       ?GetTypeInfo@?$CDispatchImpl@UIRecipients@@@@UAAJIKPAPAUITypeInfo@@@Z 1005b6f4 f i pimstorelib:recip.obj
 0001:0005a6fc       ?GetIDsOfNames@?$CDispatchImpl@UIRecipients@@@@UAAJABU_GUID@@PAPAGIKPAJ@Z 1005b6fc f i pimstorelib:recip.obj
 0001:0005a724       ?Invoke@?$CDispatchImpl@UIRecipients@@@@UAAJJABU_GUID@@KGPAUtagDISPPARAMS@@PAUtagVARIANT@@PAUtagEXCEPINFO@@PAI@Z 1005b724 f i pimstorelib:recip.obj
 0001:0005a76c       ?get_Application@?$CDispatchImpl@UIRecipients@@@@UAAJPAPAUIPOutlookApp3@@@Z 1005b76c f i pimstorelib:recip.obj
 0001:0005a770       ?get_Application@?$CDispatchImpl@UIRecipients@@@@UAAJPAPAUIPOutlookApp@@@Z 1005b770 f i pimstorelib:recip.obj
 0001:0005a778       ?get__NewEnum@CRecipients@@UAAJPAPAUIUnknown@@@Z 1005b778 f   pimstorelib:recip.obj
 0001:0005a7d0       ?QueryInterface@CRecipient@@UAAJABU_GUID@@PAPAX@Z 1005b7d0 f   pimstorelib:recip.obj
 0001:0005a8fc       ??1CRecipient@@UAA@XZ      1005b8fc f   pimstorelib:recip.obj
 0001:0005a990       ?put_Address@CRecipient@@WBI@AAJPAG@Z 1005b990 f i pimstorelib:recip.obj
 0001:0005a998       ?put_Status@CRecipient@@WBI@AAJW4OlRecipientStatus@@@Z 1005b998 f i pimstorelib:recip.obj
 0001:0005a9a0       ?get_Type@CRecipient@@WBI@AAJPAW4OlRecipientType@@@Z 1005b9a0 f i pimstorelib:recip.obj
 0001:0005a9a8       ?get_Status@CRecipient@@WBI@AAJPAW4OlRecipientStatus@@@Z 1005b9a8 f i pimstorelib:recip.obj
 0001:0005a9b0       ?put_Type@CRecipient@@WBI@AAJW4OlRecipientType@@@Z 1005b9b0 f i pimstorelib:recip.obj
 0001:0005a9b8       ?get_Address@CRecipient@@WBI@AAJPAPAG@Z 1005b9b8 f i pimstorelib:recip.obj
 0001:0005a9c0       ??_ECRecipient@@W7AAPAXI@Z 1005b9c0 f i pimstorelib:recip.obj
 0001:0005a9c8       ?get_Name@CRecipient@@WBI@AAJPAPAG@Z 1005b9c8 f i pimstorelib:recip.obj
 0001:0005a9d0       ?Resolve@CRecipient@@UAAJFPAF@Z 1005b9d0 f i pimstorelib:recip.obj
 0001:0005a9dc       ?GetTypeInfoCount@?$CDispatchImpl@UIRecipient2@@@@UAAJPAI@Z 1005b9dc f i pimstorelib:recip.obj
 0001:0005a9e4       ?GetTypeInfo@?$CDispatchImpl@UIRecipient2@@@@UAAJIKPAPAUITypeInfo@@@Z 1005b9e4 f i pimstorelib:recip.obj
 0001:0005a9ec       ?GetIDsOfNames@?$CDispatchImpl@UIRecipient2@@@@UAAJABU_GUID@@PAPAGIKPAJ@Z 1005b9ec f i pimstorelib:recip.obj
 0001:0005aa14       ?Invoke@?$CDispatchImpl@UIRecipient2@@@@UAAJJABU_GUID@@KGPAUtagDISPPARAMS@@PAUtagVARIANT@@PAUtagEXCEPINFO@@PAI@Z 1005ba14 f i pimstorelib:recip.obj
 0001:0005aa5c       ?get_Application@?$CDispatchImpl@UIRecipient2@@@@UAAJPAPAUIPOutlookApp3@@@Z 1005ba5c f i pimstorelib:recip.obj
 0001:0005aa60       ?get_Application@?$CDispatchImpl@UIRecipient2@@@@UAAJPAPAUIPOutlookApp@@@Z 1005ba60 f i pimstorelib:recip.obj
 0001:0005aa68       ?_get_Alias@CRecipient@@AAAJPAPAG@Z 1005ba68 f   pimstorelib:recip.obj
 0001:0005aae4       ?GetIDsOfNames@?$CDispatchImpl@UIRecipients@@@@W7AAJABU_GUID@@PAPAGIKPAJ@Z 1005bae4 f i pimstorelib:recip.obj
 0001:0005aaec       ?QueryInterface@CRecipients@@WBI@AAJABU_GUID@@PAPAX@Z 1005baec f i pimstorelib:recip.obj
 0001:0005aaf4       ?GetTypeInfoCount@?$CDispatchImpl@UIRecipients@@@@W7AAJPAI@Z 1005baf4 f i pimstorelib:recip.obj
 0001:0005aafc       ?GetIDsOfNames@?$CDispatchImpl@UIRecipient2@@@@W7AAJABU_GUID@@PAPAGIKPAJ@Z 1005bafc f i pimstorelib:recip.obj
 0001:0005ab04       ?GetTypeInfoCount@?$CDispatchImpl@UIRecipient2@@@@W7AAJPAI@Z 1005bb04 f i pimstorelib:recip.obj
 0001:0005ab0c       ?GetTypeInfo@?$CDispatchImpl@UIRecipients@@@@W7AAJIKPAPAUITypeInfo@@@Z 1005bb0c f i pimstorelib:recip.obj
 0001:0005ab14       ?GetTypeInfo@?$CDispatchImpl@UIRecipient2@@@@W7AAJIKPAPAUITypeInfo@@@Z 1005bb14 f i pimstorelib:recip.obj
 0001:0005ab1c       ?get__NewEnum@CRecipients@@WBI@AAJPAPAUIUnknown@@@Z 1005bb1c f i pimstorelib:recip.obj
 0001:0005ab24       ?QueryInterface@CRecipient@@WBI@AAJABU_GUID@@PAPAX@Z 1005bb24 f i pimstorelib:recip.obj
 0001:0005ab2c       ?get_Application@?$CDispatchImpl@UIRecipient2@@@@W7AAJPAPAUIPOutlookApp@@@Z 1005bb2c f i pimstorelib:recip.obj
 0001:0005ab34       ?get_Alias@CRecipient@@UAAJPAPAG@Z 1005bb34 f i pimstorelib:recip.obj
 0001:0005ab3c       ?get_Application@CRecipients@@UAAJPAPAUIPOutlookApp3@@@Z 1005bb3c f i pimstorelib:recip.obj
 0001:0005ab40       ?get_Application@CRecipients@@UAAJPAPAUIPOutlookApp@@@Z 1005bb40 f i pimstorelib:recip.obj
 0001:0005ab48       ?AddRef@?$CDispatchImpl@UIRecipient2@@@@UAAKXZ 1005bb48 f i pimstorelib:recip.obj
 0001:0005ab50       ?Release@?$CDispatchImpl@UIRecipient2@@@@UAAKXZ 1005bb50 f i pimstorelib:recip.obj
 0001:0005ab84       ?AddRef@?$CDispatchImpl@UIRecipients@@@@UAAKXZ 1005bb84 f i pimstorelib:recip.obj
 0001:0005ab8c       ?Release@?$CDispatchImpl@UIRecipients@@@@UAAKXZ 1005bb8c f i pimstorelib:recip.obj
 0001:0005abc0       ??_ECRecipients@@UAAPAXI@Z 1005bbc0 f i pimstorelib:recip.obj
 0001:0005abc0       ??_GCRecipients@@UAAPAXI@Z 1005bbc0 f i pimstorelib:recip.obj
 0001:0005abe4       ?FillAttendeeList@CRecipients@@QAAJPAPAVIAttendeeList@@@Z 1005bbe4 f   pimstorelib:recip.obj
 0001:0005ad08       ??_GCRecipient@@UAAPAXI@Z  1005bd08 f i pimstorelib:recip.obj
 0001:0005ad08       ??_ECRecipient@@UAAPAXI@Z  1005bd08 f i pimstorelib:recip.obj
 0001:0005ad2c       ?_GetItem@CRecipient@@AAAJPAPAUIItem2@@@Z 1005bd2c f   pimstorelib:recip.obj
 0001:0005adb0       ?IsEqualObject@?$CComPtrBase@UIRecipient@@@ATL@@QAA_NPAUIUnknown@@@Z 1005bdb0 f i pimstorelib:recip.obj
 0001:0005ae7c       ?get_Application@CRecipients@@W7AAJPAPAUIPOutlookApp@@@Z 1005be7c f i pimstorelib:recip.obj
 0001:0005ae84       ?get_Application@CRecipients@@WBA@AAJPAPAUIPOutlookApp3@@@Z 1005be84 f i pimstorelib:recip.obj
 0001:0005ae8c       ?AddRef@CRecipient@@UAAKXZ 1005be8c f i pimstorelib:recip.obj
 0001:0005ae94       ?Release@CRecipient@@UAAKXZ 1005be94 f i pimstorelib:recip.obj
 0001:0005aec8       ?GetItem@CRecipient@@UAAJPAPAUIItem2@@@Z 1005bec8 f i pimstorelib:recip.obj
 0001:0005aed0       ?AddRef@CRecipients@@UAAKXZ 1005bed0 f i pimstorelib:recip.obj
 0001:0005aed8       ?Release@CRecipients@@UAAKXZ 1005bed8 f i pimstorelib:recip.obj
 0001:0005af0c       ??0?$CDispatchImpl@UIRecipients@@@@QAA@PAVCPOutlookApp@@@Z 1005bf0c f i pimstorelib:recip.obj
 0001:0005af64       ??_E?$CDispatchImpl@UIRecipients@@@@W7AAPAXI@Z 1005bf64 f i pimstorelib:recip.obj
 0001:0005af6c       ??_E?$CDispatchImpl@UIRecipients@@@@UAAPAXI@Z 1005bf6c f i pimstorelib:recip.obj
 0001:0005af6c       ??_G?$CDispatchImpl@UIRecipients@@@@UAAPAXI@Z 1005bf6c f i pimstorelib:recip.obj
 0001:0005afac       ?get_Application@?$CDispatchImpl@UIRecipients@@@@W7AAJPAPAUIPOutlookApp@@@Z 1005bfac f i pimstorelib:recip.obj
 0001:0005afb4       ?Release@CRecipient@@WBI@AAKXZ 1005bfb4 f i pimstorelib:recip.obj
 0001:0005afbc       ?AddRef@CRecipient@@WBI@AAKXZ 1005bfbc f i pimstorelib:recip.obj
 0001:0005afc4       ?Release@CRecipients@@WBI@AAKXZ 1005bfc4 f i pimstorelib:recip.obj
 0001:0005afcc       ?AddRef@CRecipients@@WBI@AAKXZ 1005bfcc f i pimstorelib:recip.obj
 0001:0005afd4       ??0CRecipients@@QAA@PAVCPOutlookApp@@@Z 1005bfd4 f   pimstorelib:recip.obj
 0001:0005b01c       ?Item@CRecipients@@UAAJHPAPAUIRecipient@@@Z 1005c01c f   pimstorelib:recip.obj
 0001:0005b0ec       ?Add@CRecipients@@UAAJPAGPAPAUIRecipient@@@Z 1005c0ec f   pimstorelib:recip.obj
 0001:0005b1bc       ??0?$CDispatchImpl@UIRecipient2@@@@QAA@PAVCPOutlookApp@@@Z 1005c1bc f i pimstorelib:recip.obj
 0001:0005b214       ??_E?$CDispatchImpl@UIRecipient2@@@@W7AAPAXI@Z 1005c214 f i pimstorelib:recip.obj
 0001:0005b21c       ??_E?$CDispatchImpl@UIRecipient2@@@@UAAPAXI@Z 1005c21c f i pimstorelib:recip.obj
 0001:0005b21c       ??_G?$CDispatchImpl@UIRecipient2@@@@UAAPAXI@Z 1005c21c f i pimstorelib:recip.obj
 0001:0005b25c       ??0CRecipient@@QAA@PAVCPOutlookApp@@PAVCRecipients@@PAG2W4OlRecipientType@@W4OlRecipientStatus@@@Z 1005c25c f   pimstorelib:recip.obj
 0001:0005b2cc       ?Add@CRecipients@@UAAJPAGPAPAUIRecipient3@@@Z 1005c2cc f   pimstorelib:recip.obj
 0001:0005b3f4       ?Item@CRecipients@@UAAJHPAPAUIRecipient3@@@Z 1005c3f4 f   pimstorelib:recip.obj
 0001:0005b4f8       ?LoadTypeInfo@CDispatchProvider@@IAAJXZ 1005c4f8 f   pimstorelib:stubs.obj
 0001:0005b504       ?AddRef@?$CUnknownImpl@UIPOutlookRecipientCollection@@@@UAAKXZ 1005c504 f i pimstorelib:RecipientTable.obj
 0001:0005b50c       ?Release@?$CUnknownImpl@UIPOutlookRecipientCollection@@@@UAAKXZ 1005c50c f i pimstorelib:RecipientTable.obj
 0001:0005b540       ?AddRef@?$CUnknownImpl@UIRecipient3@@@@UAAKXZ 1005c540 f i pimstorelib:RecipientTable.obj
 0001:0005b548       ?Release@?$CUnknownImpl@UIRecipient3@@@@UAAKXZ 1005c548 f i pimstorelib:RecipientTable.obj
 0001:0005b57c       ??_G?$CUnknownImpl@UIPOutlookRecipientCollection@@@@UAAPAXI@Z 1005c57c f i pimstorelib:RecipientTable.obj
 0001:0005b57c       ??_E?$CUnknownImpl@UIPOutlookRecipientCollection@@@@UAAPAXI@Z 1005c57c f i pimstorelib:RecipientTable.obj
 0001:0005b5b4       ??_E?$CUnknownImpl@UIRecipient3@@@@UAAPAXI@Z 1005c5b4 f i pimstorelib:RecipientTable.obj
 0001:0005b5b4       ??_G?$CUnknownImpl@UIRecipient3@@@@UAAPAXI@Z 1005c5b4 f i pimstorelib:RecipientTable.obj
 0001:0005b5ec       ?QueryInterface@CRecipientCollection@@UAAJABU_GUID@@PAPAX@Z 1005c5ec f   pimstorelib:RecipientTable.obj
 0001:0005b68c       ?_get_Count@CRecipientCollection@@AAAJPAH@Z 1005c68c f   pimstorelib:RecipientTable.obj
 0001:0005b6e4       ??1CCollectionRecipient@@UAA@XZ 1005c6e4 f   pimstorelib:RecipientTable.obj
 0001:0005b754       ?put_Address@CCollectionRecipient@@UAAJPAG@Z 1005c754 f i pimstorelib:RecipientTable.obj
 0001:0005b760       ?put_Type@CCollectionRecipient@@UAAJW4OlRecipientType@@@Z 1005c760 f i pimstorelib:RecipientTable.obj
 0001:0005b76c       ?put_Status@CCollectionRecipient@@UAAJW4OlRecipientStatus@@@Z 1005c76c f i pimstorelib:RecipientTable.obj
 0001:0005b778       ?QueryInterface@CCollectionRecipient@@UAAJABU_GUID@@PAPAX@Z 1005c778 f   pimstorelib:RecipientTable.obj
 0001:0005b818       ?_get_Type@CCollectionRecipient@@AAAJPAW4OlRecipientType@@@Z 1005c818 f   pimstorelib:RecipientTable.obj
 0001:0005b8a4       ?_get_Status@CCollectionRecipient@@AAAJPAW4OlRecipientStatus@@@Z 1005c8a4 f   pimstorelib:RecipientTable.obj
 0001:0005b930       ?get_Type@CCollectionRecipient@@UAAJPAW4OlRecipientType@@@Z 1005c930 f i pimstorelib:RecipientTable.obj
 0001:0005b934       ?get_Status@CCollectionRecipient@@UAAJPAW4OlRecipientStatus@@@Z 1005c934 f i pimstorelib:RecipientTable.obj
 0001:0005b938       ??1CRecipientCollection@@UAA@XZ 1005c938 f   pimstorelib:RecipientTable.obj
 0001:0005ba10       ?get_Count@CRecipientCollection@@UAAJPAH@Z 1005ca10 f i pimstorelib:RecipientTable.obj
 0001:0005ba14       ?Sort@CRecipientCollection@@UAAJKPAPAGPAF@Z 1005ca14 f i pimstorelib:RecipientTable.obj
 0001:0005ba38       ?GetRecipient@CRecipientCollection@@UAAJKPAPAUIRecipient3@@@Z 1005ca38 f i pimstorelib:RecipientTable.obj
 0001:0005ba5c       ??_ECCollectionRecipient@@UAAPAXI@Z 1005ca5c f i pimstorelib:RecipientTable.obj
 0001:0005ba5c       ??_GCCollectionRecipient@@UAAPAXI@Z 1005ca5c f i pimstorelib:RecipientTable.obj
 0001:0005ba80       ?_get_Address@CCollectionRecipient@@AAAJPAPAG@Z 1005ca80 f   pimstorelib:RecipientTable.obj
 0001:0005bb30       ?_get_Name@CCollectionRecipient@@AAAJPAPAG@Z 1005cb30 f   pimstorelib:RecipientTable.obj
 0001:0005bbe0       ?_get_Alias@CCollectionRecipient@@AAAJPAPAG@Z 1005cbe0 f   pimstorelib:RecipientTable.obj
 0001:0005bc90       ?get_Address@CCollectionRecipient@@UAAJPAPAG@Z 1005cc90 f i pimstorelib:RecipientTable.obj
 0001:0005bc94       ?get_Name@CCollectionRecipient@@UAAJPAPAG@Z 1005cc94 f i pimstorelib:RecipientTable.obj
 0001:0005bc98       ?get_Alias@CCollectionRecipient@@UAAJPAPAG@Z 1005cc98 f i pimstorelib:RecipientTable.obj
 0001:0005bc9c       ??0CRecipientCollection@@QAA@PAVCPOutlookApp@@W4OlItemType@@PAUIUSStore@@@Z 1005cc9c f   pimstorelib:RecipientTable.obj
 0001:0005bd34       ??_ECRecipientCollection@@UAAPAXI@Z 1005cd34 f i pimstorelib:RecipientTable.obj
 0001:0005bd34       ??_GCRecipientCollection@@UAAPAXI@Z 1005cd34 f i pimstorelib:RecipientTable.obj
 0001:0005bd58       ?Initialize@CRecipientCollection@@UAAJKPAPAGPAFPAUIRestriction@@@Z 1005cd58 f   pimstorelib:RecipientTable.obj
 0001:0005bed4       ?_Restrict@CRecipientCollection@@AAAJPAGPAPAUIPOutlookRecipientCollection@@@Z 1005ced4 f   pimstorelib:RecipientTable.obj
 0001:0005bfc4       ??0CCollectionRecipient@@QAA@PAVCPOutlookApp@@PAUIUSEmbeddedObject@@@Z 1005cfc4 f   pimstorelib:RecipientTable.obj
 0001:0005c03c       ?_GetItem@CCollectionRecipient@@AAAJPAPAUIItem2@@@Z 1005d03c f   pimstorelib:RecipientTable.obj
 0001:0005c4f8       ?Restrict@CRecipientCollection@@UAAJPAGPAPAUIPOutlookRecipientCollection@@@Z 1005d4f8 f i pimstorelib:RecipientTable.obj
 0001:0005c4fc       ?GetItem@CCollectionRecipient@@UAAJPAPAUIItem2@@@Z 1005d4fc f i pimstorelib:RecipientTable.obj
 0001:0005c500       ?ClearProperties@SortedArrayItem@@QAAJXZ 1005d500 f   pimstorelib:ArrayItems.obj
 0001:0005c534       ?IsSameItem@SortedArrayItem@@UAAHPAV1@@Z 1005d534 f   pimstorelib:ArrayItems.obj
 0001:0005c560       ?get_Oid@SortedArrayItem@@QAAJPAUUSOID@@@Z 1005d560 f   pimstorelib:ArrayItems.obj
 0001:0005c584       ?get_Filetime@SortedArrayAppt@@QAAJPAU_FILETIME@@@Z 1005d584 f   pimstorelib:ArrayItems.obj
 0001:0005c5a0       ?AddRef@SortedArrayItem@@UAAKXZ 1005d5a0 f i pimstorelib:ArrayItems.obj
 0001:0005c5a8       ?QueryInterface@SortedArrayItem@@UAAJABU_GUID@@PAPAX@Z 1005d5a8 f i pimstorelib:ArrayItems.obj
 0001:0005c5ec       ?FillProperties@SortedArrayItem@@MAAJPAVCPOutlookApp@@KPAK@Z 1005d5ec f   pimstorelib:ArrayItems.obj
 0001:0005c6c0       ?CompareProperties@SortedArrayItem@@QAAJPAVCPOutlookApp@@KPAKPAFPAV1@PAH@Z 1005d6c0 f   pimstorelib:ArrayItems.obj
 0001:0005c778       ?FillProperties@SortedArrayAppt@@UAAJPAVCPOutlookApp@@KPAK@Z 1005d778 f   pimstorelib:ArrayItems.obj
 0001:0005c8c0       ?Release@SortedArrayItem@@UAAKXZ 1005d8c0 f i pimstorelib:ArrayItems.obj
 0001:0005c904       ?Create@SortedArrayItem@@SAJPAUUSOID@@PAPAV1@@Z 1005d904 f   pimstorelib:ArrayItems.obj
 0001:0005c9c0       ?Create@SortedArrayAppt@@SAJPAUUSOID@@PAU_FILETIME@@PAPAV1@@Z 1005d9c0 f   pimstorelib:ArrayItems.obj
 0001:0005ca9c       PimProxyDllGetClassObject  1005da9c f   pimstoreuuid:pimproxy.obj
 0001:0005cad0       PimProxyDllCanUnloadNow    1005dad0 f   pimstoreuuid:pimproxy.obj
 0001:0005cadc       CStdStubBuffer_Release     1005dadc f   pimstoreuuid:pimproxy.obj
 0001:0005cae8       CStdStubBuffer2_Release    1005dae8 f   pimstoreuuid:pimproxy.obj
 0001:0005caf4       _purecall                  1005daf4 f   pimstoreuuid:pimproxy.obj
 0001:0005caf8       PimProxyDllMain            1005daf8 f   pimstoreuuid:pimproxy.obj
 0001:0005cb10       HWND_UserSize              1005db10 f   pimstoreuuid:pimproxy.obj
 0001:0005cb20       HWND_UserMarshal           1005db20 f   pimstoreuuid:pimproxy.obj
 0001:0005cb58       HWND_UserUnmarshal         1005db58 f   pimstoreuuid:pimproxy.obj
 0001:0005cb90       HWND_UserFree              1005db90 f   pimstoreuuid:pimproxy.obj
 0001:0005cb94       _poomext_IID_Lookup        1005db94 f   pimstoreuuid:poomext_p.obj
 0001:0005ccc0       RaiseException             1005dcc0 f   coredll:COREDLL.dll
 0001:0005ccd0       InitializeCriticalSection  1005dcd0 f   coredll:COREDLL.dll
 0001:0005cce0       DeleteCriticalSection      1005dce0 f   coredll:COREDLL.dll
 0001:0005ccf0       RegQueryValueExW           1005dcf0 f   coredll:COREDLL.dll
 0001:0005cd00       DisableThreadLibraryCalls  1005dd00 f   coredll:COREDLL.dll
 0001:0005cd10       InterlockedDecrement       1005dd10 f   coredll:COREDLL.dll
 0001:0005cd20       InterlockedIncrement       1005dd20 f   coredll:COREDLL.dll
 0001:0005cd30       EnterCriticalSection       1005dd30 f   coredll:COREDLL.dll
 0001:0005cd40       LeaveCriticalSection       1005dd40 f   coredll:COREDLL.dll
 0001:0005cd50       GetLastError               1005dd50 f   coredll:COREDLL.dll
 0001:0005cd60       RegDeleteKeyW              1005dd60 f   coredll:COREDLL.dll
 0001:0005cd70       RegDeleteValueW            1005dd70 f   coredll:COREDLL.dll
 0001:0005cd80       RegCloseKey                1005dd80 f   coredll:COREDLL.dll
 0001:0005cd90       RegCreateKeyExW            1005dd90 f   coredll:COREDLL.dll
 0001:0005cda0       RegOpenKeyExW              1005dda0 f   coredll:COREDLL.dll
 0001:0005cdb0       RegSetValueExW             1005ddb0 f   coredll:COREDLL.dll
 0001:0005cdc0       lstrcmpiW                  1005ddc0 f   coredll:COREDLL.dll
 0001:0005cdd0       CharNextW                  1005ddd0 f   coredll:COREDLL.dll
 0001:0005cde0       RegQueryInfoKeyW           1005dde0 f   coredll:COREDLL.dll
 0001:0005cdf0       RegEnumKeyExW              1005ddf0 f   coredll:COREDLL.dll
 0001:0005ce00       FreeLibrary                1005de00 f   coredll:COREDLL.dll
 0001:0005ce10       MultiByteToWideChar        1005de10 f   coredll:COREDLL.dll
 0001:0005ce20       SizeofResource             1005de20 f   coredll:COREDLL.dll
 0001:0005ce30       LoadResource               1005de30 f   coredll:COREDLL.dll
 0001:0005ce40       FindResourceW              1005de40 f   coredll:COREDLL.dll
 0001:0005ce50       LoadLibraryExW             1005de50 f   coredll:COREDLL.dll
 0001:0005ce60       GetModuleHandleW           1005de60 f   coredll:COREDLL.dll
 0001:0005ce70       GetModuleFileNameW         1005de70 f   coredll:COREDLL.dll
 0001:0005ce80       GetProcAddressW            1005de80 f   coredll:COREDLL.dll
 0001:0005ce90       LoadLibraryW               1005de90 f   coredll:COREDLL.dll
 0001:0005cea0       LocalFree                  1005dea0 f   coredll:COREDLL.dll
 0001:0005ceb0       LocalAlloc                 1005deb0 f   coredll:COREDLL.dll
 0001:0005cec0       SystemTimeToFileTime       1005dec0 f   coredll:COREDLL.dll
 0001:0005ced0       FileTimeToSystemTime       1005ded0 f   coredll:COREDLL.dll
 0001:0005cee0       GetTimeZoneInformation     1005dee0 f   coredll:COREDLL.dll
 0001:0005cef0       GetTickCount               1005def0 f   coredll:COREDLL.dll
 0001:0005cf00       StringCchCopyW             1005df00 f   coredll:COREDLL.dll
 0001:0005cf10       CompareStringW             1005df10 f   coredll:COREDLL.dll
 0001:0005cf20       LocalSize                  1005df20 f   coredll:COREDLL.dll
 0001:0005cf30       CloseHandle                1005df30 f   coredll:COREDLL.dll
 0001:0005cf40       HeapFree                   1005df40 f   coredll:COREDLL.dll
 0001:0005cf50       GetProcessHeap             1005df50 f   coredll:COREDLL.dll
 0001:0005cf60       LocalFileTimeToFileTime    1005df60 f   coredll:COREDLL.dll
 0001:0005cf70       FileTimeToLocalFileTime    1005df70 f   coredll:COREDLL.dll
 0001:0005cf80       StringCchPrintfW           1005df80 f   coredll:COREDLL.dll
 0001:0005cf90       StringCchLengthW           1005df90 f   coredll:COREDLL.dll
 0001:0005cfa0       CompareFileTime            1005dfa0 f   coredll:COREDLL.dll
 0001:0005cfb0       StringCchCopyNW            1005dfb0 f   coredll:COREDLL.dll
 0001:0005cfc0       SetLastError               1005dfc0 f   coredll:COREDLL.dll
 0001:0005cfd0       GetUserDefaultUILanguage   1005dfd0 f   coredll:COREDLL.dll
 0001:0005cfe0       GetLocalTime               1005dfe0 f   coredll:COREDLL.dll
 0001:0005cff0       GetLocaleInfoW             1005dff0 f   coredll:COREDLL.dll
 0001:0005d000       LocalReAlloc               1005e000 f   coredll:COREDLL.dll
 0001:0005d010       StringCchCatW              1005e010 f   coredll:COREDLL.dll
 0001:0005d020       GetTimeFormatW             1005e020 f   coredll:COREDLL.dll
 0001:0005d030       GetDateFormatW             1005e030 f   coredll:COREDLL.dll
 0001:0005d040       InterlockedCompareExchange 1005e040 f   coredll:COREDLL.dll
 0001:0005d050       GetVersionExW              1005e050 f   coredll:COREDLL.dll
 0001:0005d060       EventModify                1005e060 f   coredll:COREDLL.dll
 0001:0005d070       CreateMutexW               1005e070 f   coredll:COREDLL.dll
 0001:0005d080       ReleaseMutex               1005e080 f   coredll:COREDLL.dll
 0001:0005d090       WaitForSingleObject        1005e090 f   coredll:COREDLL.dll
 0001:0005d0a0       CreateEventW               1005e0a0 f   coredll:COREDLL.dll
 0001:0005d0b0       GetSystemTime              1005e0b0 f   coredll:COREDLL.dll
 0001:0005d0c0       PostMessageW               1005e0c0 f   coredll:COREDLL.dll
 0001:0005d0d0       DPA_DeletePtr              1005e0d0 f   coredll:COREDLL.dll
 0001:0005d0e0       DPA_Destroy                1005e0e0 f   coredll:COREDLL.dll
 0001:0005d0f0       DPA_InsertPtr              1005e0f0 f   coredll:COREDLL.dll
 0001:0005d100       DPA_GetPtr                 1005e100 f   coredll:COREDLL.dll
 0001:0005d110       DPA_Create                 1005e110 f   coredll:COREDLL.dll
 0001:0005d120       DPA_Sort                   1005e120 f   coredll:COREDLL.dll
 0001:0005d130       DPA_DestroyCallback        1005e130 f   coredll:COREDLL.dll
 0001:0005d140       SHGetSupportedSimContactsFields 1005e140 f   CEaygshell:CEAYGSHELL.dll
 0001:0005d150       GetDialableNumber          1005e150 f   CEaygshell:CEAYGSHELL.dll
 0001:0005d160       OptimizedReverseCompare    1005e160 f   CEaygshell:CEAYGSHELL.dll
 0001:0005d170       CoTaskMemAlloc             1005e170 f   ole32:ole32.dll
 0001:0005d180       CoTaskMemRealloc           1005e180 f   ole32:ole32.dll
 0001:0005d190       CoCreateInstance           1005e190 f   ole32:ole32.dll
 0001:0005d1a0       CoTaskMemFree              1005e1a0 f   ole32:ole32.dll
 0001:0005d1b0       VarUI4FromStr              1005e1b0 f   oleaut32:OLEAUT32.dll
 0001:0005d1c0       SysFreeString              1005e1c0 f   oleaut32:OLEAUT32.dll
 0001:0005d1d0       SysStringLen               1005e1d0 f   oleaut32:OLEAUT32.dll
 0001:0005d1e0       LoadRegTypeLib             1005e1e0 f   oleaut32:OLEAUT32.dll
 0001:0005d1f0       LoadTypeLib                1005e1f0 f   oleaut32:OLEAUT32.dll
 0001:0005d200       SysAllocString             1005e200 f   oleaut32:OLEAUT32.dll
 0001:0005d210       VariantTimeToSystemTime    1005e210 f   oleaut32:OLEAUT32.dll
 0001:0005d220       SystemTimeToVariantTime    1005e220 f   oleaut32:OLEAUT32.dll
 0001:0005d230       SysAllocStringLen          1005e230 f   oleaut32:OLEAUT32.dll
 0001:0005d240       SysAllocStringByteLen      1005e240 f   oleaut32:OLEAUT32.dll
 0001:0005d250       SysStringByteLen           1005e250 f   oleaut32:OLEAUT32.dll
 0001:0005d260       SetErrorInfo               1005e260 f   oleaut32:OLEAUT32.dll
 0001:0005d270       VariantClear               1005e270 f   oleaut32:OLEAUT32.dll
 0001:0005d280       VariantInit                1005e280 f   oleaut32:OLEAUT32.dll
 0001:0005d290       BSTR_UserFree              1005e290 f   oleaut32:OLEAUT32.dll
 0001:0005d2a0       BSTR_UserUnmarshal         1005e2a0 f   oleaut32:OLEAUT32.dll
 0001:0005d2b0       BSTR_UserMarshal           1005e2b0 f   oleaut32:OLEAUT32.dll
 0001:0005d2c0       BSTR_UserSize              1005e2c0 f   oleaut32:OLEAUT32.dll
 0001:0005d2d0       SAdd                       1005e2d0 f   ossvcs:ossvcs.dll
 0001:0005d2e0       ?SafeLPWSTR@@YAPBGPBU_CEPROPVAL@@@Z 1005e2e0 f   ossvcs:ossvcs.dll
 0001:0005d2f0       AddPlusToIntlEntries       1005e2f0 f   ossvcs:ossvcs.dll
 0001:0005d300       GetValidSimPhoneNumberAndAddressType 1005e300 f   ossvcs:ossvcs.dll
 0001:0005d310       UMul                       1005e310 f   ossvcs:ossvcs.dll
 0001:0005d320       ?GetPropMemSize@@YAIPBU_CEPROPVAL@@@Z 1005e320 f   ossvcs:ossvcs.dll
 0001:0005d330       HexStringToBinary          1005e330 f   ossvcs:ossvcs.dll
 0001:0005d340       BinaryToHexString          1005e340 f   ossvcs:ossvcs.dll
 0001:0005d350       ?DuplicateCEPROPVALArray@@YAJPBU_CEPROPVAL@@IIPAPAU1@@Z 1005e350 f   ossvcs:ossvcs.dll
 0001:0005d360       ?ComparePropVals@@YAHKPBU_CEPROPVAL@@0@Z 1005e360 f   ossvcs:ossvcs.dll
 0001:0005d370       ?CopyPropValue@@YAJPBU_CEPROPVAL@@PAU1@KPAPAX@Z 1005e370 f   ossvcs:ossvcs.dll
 0001:0005d380       GetCchTailMin              1005e380 f   ossvcs:ossvcs.dll
 0001:0005d390       ?Encode@ATime@@IBAJXZ      1005e390 f   pimutil:PIMUTIL.dll
 0001:0005d3a0       ?Decode@ATime@@IAAXJ@Z     1005e3a0 f   pimutil:PIMUTIL.dll
 0001:0005d3b0       ?AdjustMonth@ATime@@QAAXJ@Z 1005e3b0 f   pimutil:PIMUTIL.dll
 0001:0005d3c0       ?SetDay@ATime@@QAAXH@Z     1005e3c0 f   pimutil:PIMUTIL.dll
 0001:0005d3d0       ??0ATime@@QAA@XZ           1005e3d0 f   pimutil:PIMUTIL.dll
 0001:0005d3e0       ?FValid@ATime@@QBAHXZ      1005e3e0 f   pimutil:PIMUTIL.dll
 0001:0005d3f0       RenFromStdTimeZoneInfo     1005e3f0 f   pimutil:PIMUTIL.dll
 0001:0005d400       RenLocalAlloc              1005e400 f   pimutil:PIMUTIL.dll
 0001:0005d410       ?ConvertTzToTz@RTime@@QAA?AV1@PAUtagTZREG@@0@Z 1005e410 f   pimutil:PIMUTIL.dll
 0001:0005d420       CreateAttendeeList         1005e420 f   pimutil:PIMUTIL.dll
 0001:0005d430       RenLocalReAlloc            1005e430 f   pimutil:PIMUTIL.dll
 0001:0005d440       StdPropToText              1005e440 f   pimutil:PIMUTIL.dll
 0001:0005d450       IncrSystemTime             1005e450 f   pimutil:PIMUTIL.dll
 0001:0005d460       UnEscapePoomRestrictionValues 1005e460 f   pimutil:PIMUTIL.dll
 0001:0005d470       ?OlDefaultFoldersToTagMask@@YAJW4OlDefaultFolders@@PAK@Z 1005e470 f   pimutil:PIMUTIL.dll
 0001:0005d480       ?SpbeSafeGetNumber@@YAPAGPAUsimphonebookentryex_tag@@K@Z 1005e480 f   pimutil:PIMUTIL.dll
 0001:0005d490       ?GetSimPosForPoomPhoneNumber@@YAJPAUIPOutlookApp2@@KPAUIItem@@PAK@Z 1005e490 f   pimutil:PIMUTIL.dll
 0001:0005d4a0       ?SpbeSafeGetEmail@@YAPAGPAUsimphonebookentryex_tag@@K@Z 1005e4a0 f   pimutil:PIMUTIL.dll
 0001:0005d4b0       ?SpbeSafeGetEmailCount@@YAKPAUsimphonebookentryex_tag@@K@Z 1005e4b0 f   pimutil:PIMUTIL.dll
 0001:0005d4c0       ?GetSimNumberPosNamedPropIdFromPoomId@@YAKPAUIPOutlookApp2@@K@Z 1005e4c0 f   pimutil:PIMUTIL.dll
 0001:0005d4d0       ?SpbeGetPropIdsForPhoneNumbers@@YAJPAXPAUsimphonebookentryex_tag@@QAKPAK@Z 1005e4d0 f   pimutil:PIMUTIL.dll
 0001:0005d4e0       ?SpbeSafeGetNumberCount@@YAKPAUsimphonebookentryex_tag@@K@Z 1005e4e0 f   pimutil:PIMUTIL.dll
 0001:0005d4f0       ?SpbeGetTagIdsFromPropIds@@YAJPAXPAU_CEPROPVAL@@PAKK@Z 1005e4f0 f   pimutil:PIMUTIL.dll
 0001:0005d500       ?SpbeGetAllowedPOOMPhoneProperties@@YAJPAK0@Z 1005e500 f   pimutil:PIMUTIL.dll
 0001:0005d510       ?SpbeGetAllowedPOOMProperties@@YAJPAK0@Z 1005e510 f   pimutil:PIMUTIL.dll
 0001:0005d520       PimMakeNumericRestriction  1005e520 f   pimutil:PIMUTIL.dll
 0001:0005d530       ?GetSimRecordIndex@@YAJPAUIPOutlookApp2@@PAUIItem@@PAK@Z 1005e530 f   pimutil:PIMUTIL.dll
 0001:0005d540       ParseDateAsDouble          1005e540 f   pimutil:PIMUTIL.dll
 0001:0005d550       PimMapString               1005e550 f   pimutil:PIMUTIL.dll
 0001:0005d560       ?SpbeIsPropertySupported@@YAHK@Z 1005e560 f   pimutil:PIMUTIL.dll
 0001:0005d570       RealLocalFree              1005e570 f   pimutil:PIMUTIL.dll
 0001:0005d580       PimBinaryBodyToString      1005e580 f   pimutil:PIMUTIL.dll
 0001:0005d590       EnsureMemAvailable         1005e590 f   pimutil:PIMUTIL.dll
 0001:0005d5a0       ?OlItemTypeToUS_ITEMTYPE@@YAJW4OlItemType@@PAW4US_ITEMTYPE@@@Z 1005e5a0 f   pimutil:PIMUTIL.dll
 0001:0005d5b0       ?GetDefaultFolderFromStore@@YAJPAUIUSStore@@W4US_ITEMTYPE@@PAPAUIUSFolder@@@Z 1005e5b0 f   pimutil:PIMUTIL.dll
 0001:0005d5c0       ?GetDefaultUSStore@@YAJPAUIUSStoreManager@@PAPAUIUSStore@@@Z 1005e5c0 f   pimutil:PIMUTIL.dll
 0001:0005d5d0       SetYomiSurname             1005e5d0 f   pimutil:PIMUTIL.dll
 0001:0005d5e0       SetYomiGiven               1005e5e0 f   pimutil:PIMUTIL.dll
 0001:0005d5f0       SetSuffix                  1005e5f0 f   pimutil:PIMUTIL.dll
 0001:0005d600       SetSurname                 1005e600 f   pimutil:PIMUTIL.dll
 0001:0005d610       SetMiddle                  1005e610 f   pimutil:PIMUTIL.dll
 0001:0005d620       SetNickname                1005e620 f   pimutil:PIMUTIL.dll
 0001:0005d630       SetGiven                   1005e630 f   pimutil:PIMUTIL.dll
 0001:0005d640       SetTitle                   1005e640 f   pimutil:PIMUTIL.dll
 0001:0005d650       SetCountryName             1005e650 f   pimutil:PIMUTIL.dll
 0001:0005d660       SetPostalCode              1005e660 f   pimutil:PIMUTIL.dll
 0001:0005d670       SetState                   1005e670 f   pimutil:PIMUTIL.dll
 0001:0005d680       SetCity                    1005e680 f   pimutil:PIMUTIL.dll
 0001:0005d690       SetStreet                  1005e690 f   pimutil:PIMUTIL.dll
 0001:0005d6a0       GetBlankFileAs             1005e6a0 f   pimutil:PIMUTIL.dll
 0001:0005d6b0       IsCommunicationProperty    1005e6b0 f   pimutil:PIMUTIL.dll
 0001:0005d6c0       GetNewAddressParser        1005e6c0 f   pimutil:PIMUTIL.dll
 0001:0005d6d0       DestroyAddressParser       1005e6d0 f   pimutil:PIMUTIL.dll
 0001:0005d6e0       RebuildAddress             1005e6e0 f   pimutil:PIMUTIL.dll
 0001:0005d6f0       GetFullAddress             1005e6f0 f   pimutil:PIMUTIL.dll
 0001:0005d700       UpdateDefCountry           1005e700 f   pimutil:PIMUTIL.dll
 0001:0005d710       GetCorrespondingYomiFileAsPermutation 1005e710 f   pimutil:PIMUTIL.dll
 0001:0005d720       GetFileAsPermutation       1005e720 f   pimutil:PIMUTIL.dll
 0001:0005d730       SetupFAPStrings            1005e730 f   pimutil:PIMUTIL.dll
 0001:0005d740       GetHashEmailString         1005e740 f   pimutil:PIMUTIL.dll
 0001:0005d750       BuildYomiDisplayName       1005e750 f   pimutil:PIMUTIL.dll
 0001:0005d760       GetYomiDisplayName         1005e760 f   pimutil:PIMUTIL.dll
 0001:0005d770       GetNewNameParser           1005e770 f   pimutil:PIMUTIL.dll
 0001:0005d780       DestroyNameParser          1005e780 f   pimutil:PIMUTIL.dll
 0001:0005d790       BuildDisplayName           1005e790 f   pimutil:PIMUTIL.dll
 0001:0005d7a0       GetFullName                1005e7a0 f   pimutil:PIMUTIL.dll
 0001:0005d7b0       SubStringMatch             1005e7b0 f   pimutil:PIMUTIL.dll
 0001:0005d7c0       ?LegacyPimOidToOLITEMID@@YAJKPAUOLITEMID@@@Z 1005e7c0 f   pimutil:PIMUTIL.dll
 0001:0005d7d0       ?OlDefaultFoldersToUS_ITEMTYPE@@YAJW4OlDefaultFolders@@PAW4US_ITEMTYPE@@@Z 1005e7d0 f   pimutil:PIMUTIL.dll
 0001:0005d7e0       ?LegacyPimOidToUSOID@@YAJKPAUUSOID@@@Z 1005e7e0 f   pimutil:PIMUTIL.dll
 0001:0005d7f0       ?TextToTag@@YAKPAUIPOutlookApp3@@PBGK@Z 1005e7f0 f   pimutil:PIMUTIL.dll
 0001:0005d800       ValidateName               1005e800 f   pimutil:PIMUTIL.dll
 0001:0005d810       ?IsObjectInFolder@@YAJPBUUSOID@@PAUIUSFolder@@HPAH@Z 1005e810 f   pimutil:PIMUTIL.dll
 0001:0005d820       ?OlItemTypeToOlDefaultFolders@@YAJW4OlItemType@@PAW4OlDefaultFolders@@@Z 1005e820 f   pimutil:PIMUTIL.dll
 0001:0005d830       ?CreateCategoryDBManager@@YAJPAUIUSStoreManager@@PAPAUICategoryDBManager@@@Z 1005e830 f   pimutil:PIMUTIL.dll
 0001:0005d840       GetDefaultStoreId          1005e840 f   pimutil:PIMUTIL.dll
 0001:0005d850       ?POutlookAppManager_CreateInstance@@YAJPAPAUIPOutlookAppManager@@@Z 1005e850 f   pimutil:PIMUTIL.dll
 0001:0005d860       PimStringToBinaryBody      1005e860 f   pimutil:PIMUTIL.dll
 0001:0005d870       ?OlDefaultFoldersToOlItemType@@YAJW4OlDefaultFolders@@PAW4OlItemType@@@Z 1005e870 f   pimutil:PIMUTIL.dll
 0001:0005d880       ?GetInitialFolderProperties@@YAJW4US_FOLDERTYPE@@PAPBU_USPROPVAL@@PAI@Z 1005e880 f   pimutil:PIMUTIL.dll
 0001:0005d890       ?GetIPMRootFromStore@@YAJPAUIUSStore@@PAPAUIUSFolder@@@Z 1005e890 f   pimutil:PIMUTIL.dll
 0001:0005d8a0       ?US_ITEMTYPEToOlDefaultFolders@@YAJW4US_ITEMTYPE@@PAW4OlDefaultFolders@@@Z 1005e8a0 f   pimutil:PIMUTIL.dll
 0001:0005d8b0       DowFromDate                1005e8b0 f   pimutil:PIMUTIL.dll
 0001:0005d8c0       GetReminderDefaults        1005e8c0 f   pimutil:PIMUTIL.dll
 0001:0005d8d0       PimDuplicateString         1005e8d0 f   pimutil:PIMUTIL.dll
 0001:0005d8e0       AreRecurrencesEqual        1005e8e0 f   pimutil:PIMUTIL.dll
 0001:0005d8f0       FreeAppointmentData        1005e8f0 f   pimutil:PIMUTIL.dll
 0001:0005d900       PimCreateGlobalObjId       1005e900 f   pimutil:PIMUTIL.dll
 0001:0005d910       SetNewString               1005e910 f   pimutil:PIMUTIL.dll
 0001:0005d920       ConvertTimeZone            1005e920 f   pimutil:PIMUTIL.dll
 0001:0005d930       AreAppointmentsEqual       1005e930 f   pimutil:PIMUTIL.dll
 0001:0005d940       MinutesBetweenST           1005e940 f   pimutil:PIMUTIL.dll
 0001:0005d950       TaskReminderToSystemTime   1005e950 f   pimutil:PIMUTIL.dll
 0001:0005d960       FreeTaskStrings            1005e960 f   pimutil:PIMUTIL.dll
 0001:0005d970       AreTasksEqual              1005e970 f   pimutil:PIMUTIL.dll
 0001:0005d980       SystemTimeToTaskReminder   1005e980 f   pimutil:PIMUTIL.dll
 0001:0005d990       CmpDateST                  1005e990 f   pimutil:PIMUTIL.dll
 0001:0005d9a0       ?AddCategoryEx@@YAJPBGPAPAG@Z 1005e9a0 f   pimutil:PIMUTIL.dll
 0001:0005d9b0       ?RemoveCategoryEx@@YAJPBGPAPAG@Z 1005e9b0 f   pimutil:PIMUTIL.dll
 0001:0005d9c0       ?GetNextCategory@@YAPBGPAPBGPAK@Z 1005e9c0 f   pimutil:PIMUTIL.dll
 0001:0005d9d0       ?AddCategoryToCategoryString@@YAJPAGPAKPBGK@Z 1005e9d0 f   pimutil:PIMUTIL.dll
 0001:0005d9e0       PimLoadStringEx            1005e9e0 f   pimutil:PIMUTIL.dll
 0001:0005d9f0       ?OlItemTypeToUS_ITEMMASK@@YAJW4OlItemType@@PAW4US_ITEMMASK@@@Z 1005e9f0 f   pimutil:PIMUTIL.dll
 0001:0005da00       ?US_OBJECTTYPEToOlObjectType@@YAJW4US_OBJECTTYPE@@PAW4OlObjectType@@@Z 1005ea00 f   pimutil:PIMUTIL.dll
 0001:0005da10       ?OlObjectTypeToUS_OBJECTTYPE@@YAJW4OlObjectType@@PAW4US_OBJECTTYPE@@@Z 1005ea10 f   pimutil:PIMUTIL.dll
 0001:0005da20       OidDBFromOidPIM            1005ea20 f   pimutil:PIMUTIL.dll
 0001:0005da30       CmpYMD                     1005ea30 f   pimutil:PIMUTIL.dll
 0001:0005da40       GetDaysForMonth            1005ea40 f   pimutil:PIMUTIL.dll
 0001:0005da50       ?OlItemTypeToTagMask@@YAJW4OlItemType@@PAK@Z 1005ea50 f   pimutil:PIMUTIL.dll
 0001:0005da60       ?OlItemTypeToPIMPRType@@YAJW4OlItemType@@PAK@Z 1005ea60 f   pimutil:PIMUTIL.dll
 0001:0005da70       FindSenderEmailAlias       1005ea70 f   pimutil:PIMUTIL.dll
 0001:0005da80       NdrDllGetClassObject       1005ea80 f   rpcrt4legacy:RPCRT4LEGACY.dll
 0001:0005da90       NdrDllCanUnloadNow         1005ea90 f   rpcrt4legacy:RPCRT4LEGACY.dll
 0001:0005daa0       NdrCStdStubBuffer_Release  1005eaa0 f   rpcrt4legacy:RPCRT4LEGACY.dll
 0001:0005dab0       NdrCStdStubBuffer2_Release 1005eab0 f   rpcrt4legacy:RPCRT4LEGACY.dll
 0001:0005dac0       NdrOleFree                 1005eac0 f   rpcrt4legacy:RPCRT4LEGACY.dll
 0001:0005dad0       NdrOleAllocate             1005ead0 f   rpcrt4legacy:RPCRT4LEGACY.dll
 0001:0005dae0       CStdStubBuffer_DebugServerRelease 1005eae0 f   rpcrt4legacy:RPCRT4LEGACY.dll
 0001:0005daf0       CStdStubBuffer_DebugServerQueryInterface 1005eaf0 f   rpcrt4legacy:RPCRT4LEGACY.dll
 0001:0005db00       CStdStubBuffer_CountRefs   1005eb00 f   rpcrt4legacy:RPCRT4LEGACY.dll
 0001:0005db10       CStdStubBuffer_IsIIDSupported 1005eb10 f   rpcrt4legacy:RPCRT4LEGACY.dll
 0001:0005db20       CStdStubBuffer_Invoke      1005eb20 f   rpcrt4legacy:RPCRT4LEGACY.dll
 0001:0005db30       CStdStubBuffer_Disconnect  1005eb30 f   rpcrt4legacy:RPCRT4LEGACY.dll
 0001:0005db40       CStdStubBuffer_Connect     1005eb40 f   rpcrt4legacy:RPCRT4LEGACY.dll
 0001:0005db50       CStdStubBuffer_AddRef      1005eb50 f   rpcrt4legacy:RPCRT4LEGACY.dll
 0001:0005db60       CStdStubBuffer_QueryInterface 1005eb60 f   rpcrt4legacy:RPCRT4LEGACY.dll
 0001:0005db70       IUnknown_Release_Proxy     1005eb70 f   rpcrt4legacy:RPCRT4LEGACY.dll
 0001:0005db80       IUnknown_AddRef_Proxy      1005eb80 f   rpcrt4legacy:RPCRT4LEGACY.dll
 0001:0005db90       IUnknown_QueryInterface_Proxy 1005eb90 f   rpcrt4legacy:RPCRT4LEGACY.dll
 0001:0005dba0       NdrStubCall2               1005eba0 f   rpcrt4legacy:RPCRT4LEGACY.dll
 0001:0005dbb0       NdrStubForwardingFunction  1005ebb0 f   rpcrt4legacy:RPCRT4LEGACY.dll
 0001:0005dbc0       SimDeinitialize            1005ebc0 f   SIM:sim.dll
 0001:0005dbd0       SimInitialize              1005ebd0 f   SIM:sim.dll
 0001:0005dbe0       AtlRawDllMain              1005ebe0 f   atls:atlbase.obj
 0001:0005dc68       ??1CAtlBaseModule@ATL@@QAA@XZ 1005ec68 f   atls:atlbase.obj
 0001:0005dca0       ??0CAtlBaseModule@ATL@@QAA@XZ 1005eca0 f   atls:atlbase.obj
 0001:0005de2c       _DllMainCRTStartup         1005ee2c f   corelib0:pegdmain.obj
 0001:0005de58       __GSHandlerCheckCommon     1005ee58 f   corelib0:gshandler.obj
 0001:0005de94       __GSHandlerCheck           1005ee94 f   corelib0:gshandler.obj
 0001:0005deb4       __security_init_cookie     1005eeb4 f   corelib0:seccinit.obj
 0001:0005df00       __security_check_cookie    1005ef00 f   corelib0:armsecgs.obj
 0001:0005df10       __gsfailure                1005ef10     corelib0:armsecgs.obj
 0001:0005df5c       _onexit                    1005ef5c f   corelib0:onexit.obj
 0001:0005e0e0       atexit                     1005f0e0 f   corelib0:onexit.obj
 0001:0005e1e0       _cexit                     1005f1e0 f   corelib0:cexit.obj
 0001:0005e1f0       _initterm                  1005f1f0 f   corelib0:crt0dat.obj
 0001:0005e21c       _cinit                     1005f21c f   corelib0:crt0dat.obj
 0001:0005e27c       __crt_ExitProcess          1005f27c f   corelib0:exitproc_proxy.obj
 0001:0005e288       memcmp                     1005f288 f   corelib1:COREDLL.dll
 0001:0005e298       memset                     1005f298 f   corelib1:COREDLL.dll
 0001:0005e2a8       __C_specific_handler       1005f2a8 f   corelib1:COREDLL.dll
 0001:0005e2b8       ??3@YAXPAX@Z               1005f2b8 f   corelib1:COREDLL.dll
 0001:0005e2c8       wcsstr                     1005f2c8 f   corelib1:COREDLL.dll
 0001:0005e2d8       wcslen                     1005f2d8 f   corelib1:COREDLL.dll
 0001:0005e2e8       malloc                     1005f2e8 f   corelib1:COREDLL.dll
 0001:0005e2f8       free                       1005f2f8 f   corelib1:COREDLL.dll
 0001:0005e308       memcpy_s                   1005f308 f   corelib1:COREDLL.dll
 0001:0005e318       wcsncpy_s                  1005f318 f   corelib1:COREDLL.dll
 0001:0005e328       _recalloc                  1005f328 f   corelib1:COREDLL.dll
 0001:0005e338       ??2@YAPAXI@Z               1005f338 f   corelib1:COREDLL.dll
 0001:0005e348       ??_V@YAXPAX@Z              1005f348 f   corelib1:COREDLL.dll
 0001:0005e358       memcpy                     1005f358 f   corelib1:COREDLL.dll
 0001:0005e368       wcscmp                     1005f368 f   corelib1:COREDLL.dll
 0001:0005e378       memmove                    1005f378 f   corelib1:COREDLL.dll
 0001:0005e388       ??_U@YAPAXI@Z              1005f388 f   corelib1:COREDLL.dll
 0001:0005e398       _wcsnicmp                  1005f398 f   corelib1:COREDLL.dll
 0001:0005e3a8       _wcsicmp                   1005f3a8 f   corelib1:COREDLL.dll
 0001:0005e3b8       _wtoi                      1005f3b8 f   corelib1:COREDLL.dll
 0001:0005e3c8       wcstoul                    1005f3c8 f   corelib1:COREDLL.dll
 0001:0005e3d8       wcstod                     1005f3d8 f   corelib1:COREDLL.dll
 0001:0005e3e8       _wcsrev                    1005f3e8 f   corelib1:COREDLL.dll
 0001:0005e3f8       wcsncmp                    1005f3f8 f   corelib1:COREDLL.dll
 0001:0005e408       _XcptFilter                1005f408 f   corelib1:COREDLL.dll
 0001:0005e418       __security_gen_cookie2     1005f418 f   corelib1:COREDLL.dll
 0001:0005e428       __report_gsfailure         1005f428 f   corelib1:COREDLL.dll
 0001:0005e438       realloc                    1005f438 f   corelib1:COREDLL.dll
 0001:0005e448       _msize                     1005f448 f   corelib1:COREDLL.dll
 0001:0005e460       ?GetLastAlarmDate@CStore@@QAAJPAU_SYSTEMTIME@@@Z 1005f460 f   calstorelib:store.obj
 0001:0005e524       ?WriteLastAlarmDate@CStore@@QAAJPAU_SYSTEMTIME@@@Z 1005f524 f   calstorelib:store.obj
 0001:0005e5d0       WriteLastAlarmDate         1005f5d0 f   calstorelib:store.obj
 0001:0005e5ec       GetGlobjIdFromAppointment  1005f5ec f   calstorelib:store.obj
 0001:0005e608       ?Uninitialize@CStore@@AAAXXZ 1005f608 f   calstorelib:store.obj
 0001:0005e680       CopyAppointmentData        1005f680 f   calstorelib:store.obj
 0001:0005e860       ?InitializeCache@CStore@@QAAJXZ 1005f860 f   calstorelib:store.obj
 0001:0005e8bc       ?ResetCache@CStore@@QAAJXZ 1005f8bc f   calstorelib:store.obj
 0001:0005e8d8       ?DeleteAppointment@CStore@@QAAJPAVCCSAppointment@@@Z 1005f8d8 f   calstorelib:store.obj
 0001:0005e92c       ?EnumTaskAlarmProc@@YAJPAVCCSTask@@PAUtagTASKDATA@@J@Z 1005f92c f   calstorelib:store.obj
 0001:0005e950       DeleteAppointment          1005f950 f   calstorelib:store.obj
 0001:0005e96c       DeleteTask                 1005f96c f   calstorelib:store.obj
 0001:0005e9a4       ReplSetTaskAlarm           1005f9a4 f   calstorelib:store.obj
 0001:0005ea08       ResetCache                 1005fa08 f   calstorelib:store.obj
 0001:0005ea34       ?CreateAppointment@CStore@@QAAJPAUIUSFolder@@PAUtagAPPOINTMENTDATA@@PAUtagRECURRENCEDATA@@PAU_TIME_ZONE_INFORMATION@@PAU_CEBLOB@@IPAU_USPROPVAL@@PAPAVCCSAppointment@@@Z 1005fa34 f   calstorelib:store.obj
 0001:0005eb88       ?EnumRecurAppointments@CStore@@QAAJPAUIUSFolder@@UtagYmd@@1KP6AJPAVCCSAppointment@@PAUtagAPPOINTMENTDATA@@PAU_SYSTEMTIME@@J@ZJKPAU_TIME_ZONE_INFORMATION@@@Z 1005fb88 f   calstorelib:store.obj
 0001:0005ee88       ?EnumSingleAppointments@CStore@@QAAJPAUIUSFolder@@UtagYmd@@1KP6AJPAVCCSAppointment@@PAUtagAPPOINTMENTDATA@@PAU_SYSTEMTIME@@J@ZJKPAU_TIME_ZONE_INFORMATION@@@Z 1005fe88 f   calstorelib:store.obj
 0001:0005f270       ?EnumMDAppointments@CStore@@QAAJPAUIUSFolder@@UtagYmd@@1KP6AJPAVCCSAppointment@@PAUtagAPPOINTMENTDATA@@PAU_SYSTEMTIME@@J@ZJKPAU_TIME_ZONE_INFORMATION@@@Z 10060270 f   calstorelib:store.obj
 0001:0005f588       ?GetRecurringAppt@CStore@@QAAJUUSOID@@PAPAVCCSAppointment@@@Z 10060588 f   calstorelib:store.obj
 0001:0005f660       ?SetAlarm@CStore@@QAAJPAVCCSAppointment@@HPAHPAUtagAPPOINTMENTDATA@@@Z 10060660 f   calstorelib:store.obj
 0001:0005f954       ?AlarmEnumApptProc@@YAJPAVCCSAppointment@@PAUtagAPPOINTMENTDATA@@PAU_SYSTEMTIME@@J@Z 10060954 f   calstorelib:store.obj
 0001:0005f994       ?AppointmentFromOid@CStore@@QAAJPAPAVCCSAppointment@@UUSOID@@@Z 10060994 f   calstorelib:store.obj
 0001:0005f9d0       ?TaskFromOid@CStore@@QAAJPAPAVCCSTask@@UUSOID@@@Z 100609d0 f   calstorelib:store.obj
 0001:0005fab4       ?ReplSetApptAlarm@CStore@@QAAJPAVCCSAppointment@@PAH@Z 10060ab4 f   calstorelib:store.obj
 0001:0005fc88       ?CompareGlobj@CStore@@QAAJUUSOID@@PAU_CEBLOB@@PAPAVCCSAppointment@@H@Z 10060c88 f   calstorelib:store.obj
 0001:0005fdcc       ?FindExceptionsFromGlobj@CStore@@QAAJPAUIUSFolder@@PAU_CEBLOB@@PAU_DPA@@@Z 10060dcc f   calstorelib:store.obj
 0001:000600c0       ?FindAppointmentFromGlobj@CStore@@QAAJPAUIUSFolder@@PAU_CEBLOB@@PAUtagFindGlobjHint@@PAPAVCCSAppointment@@@Z 100610c0 f   calstorelib:store.obj
 0001:0006052c       ReleaseCalendarStore       1006152c f   calstorelib:store.obj
 0001:0006056c       CreateAppointment          1006156c f   calstorelib:store.obj
 0001:000605fc       AppointmentFromOid         100615fc f   calstorelib:store.obj
 0001:00060644       TaskFromOid                10061644 f   calstorelib:store.obj
 0001:0006068c       ReplSetApptAlarm           1006168c f   calstorelib:store.obj
 0001:00060690       FindExceptionsFromGlobj    10061690 f   calstorelib:store.obj
 0001:000606c0       FindAppointmentFromGlobj   100616c0 f   calstorelib:store.obj
 0001:00060704       ?IsEqualObject@?$CComPtrBase@UIUSItem@@@ATL@@QAA_NPAUIUnknown@@@Z 10061704 f i calstorelib:store.obj
 0001:000607d0       ?InitializeEx@CStore@@QAAJPAUIUSStoreManager@@PAUICategoryDBManager@@H@Z 100617d0 f   calstorelib:store.obj
 0001:000608d4       ?EnumAppointmentsA@CStore@@AAAJPAUIUSFolder@@UtagYmd@@1P6AJPAVCCSAppointment@@PAUtagAPPOINTMENTDATA@@PAU_SYSTEMTIME@@J@ZJKK@Z 100618d4 f   calstorelib:store.obj
 0001:00060d04       ?EnumTasks@CStore@@QAAJPAUIUSFolder@@P6AJPAVCCSTask@@PAUtagTASKDATA@@J@ZJ@Z 10061d04 f   calstorelib:store.obj
 0001:000611e4       ?SetTaskAlarms@CStore@@QAAJXZ 100621e4 f   calstorelib:store.obj
 0001:0006149c       GetCalendarObjectStore     1006249c f   calstorelib:store.obj
 0001:0006154c       SetTaskAlarms              1006254c f   calstorelib:store.obj
 0001:00061568       ?CreateTask@CStore@@QAAJPAUIUSFolder@@PAUtagTASKDATA@@PAUtagRECURRENCEDATA@@IPAU_USPROPVAL@@PAPAVCCSTask@@@Z 10062568 f   calstorelib:store.obj
 0001:00061620       ?EnumAppointments@CStore@@QAAJPAUIUSFolder@@UtagYmd@@1P6AJPAVCCSAppointment@@PAUtagAPPOINTMENTDATA@@PAU_SYSTEMTIME@@J@ZJKK@Z 10062620 f   calstorelib:store.obj
 0001:00061a04       ?GetNextRunDate@CStore@@QAAJPAUIUSFolder@@PAU_SYSTEMTIME@@PAVCCSAppointment@@@Z 10062a04 f   calstorelib:store.obj
 0001:00062164       EnumAppointments           10063164 f   calstorelib:store.obj
 0001:000621ec       ?GetAllConflicts@CStore@@QAAJPAVCCSAppointment@@PAUtagAPPOINTMENTDATA@@PAUtagRECURRENCEDATA@@PAUtagApptTime@@PAU_DPA@@UtagYmd@@@Z 100631ec f   calstorelib:store.obj
 0001:00062e2c       CreateTask                 10063e2c f   calstorelib:store.obj
 0001:00062e90       ?SetRunAppAtTime@CStore@@QAAJPAUIUSFolder@@PAVCCSAppointment@@@Z 10063e90 f   calstorelib:store.obj
 0001:00062eec       ?GetHighestPriorityConflict@CStore@@QAAJPAVCCSAppointment@@PAUtagAPPOINTMENTDATA@@PAUtagRECURRENCEDATA@@PAUtagApptTime@@UtagYmd@@PAUOLITEMID@@PAU6@PAK@Z 10063eec f   calstorelib:store.obj
 0001:00063008       GetHighestPriorityConflict 10064008 f   calstorelib:store.obj
 0001:00063084       ?SetNextAlarms@CStore@@QAAJXZ 10064084 f   calstorelib:store.obj
 0001:00063498       SetNextAlarms              10064498 f   calstorelib:store.obj
 0001:000634b4       ?CopyCache@CCSAppointment@@AAAJPAV1@@Z 100644b4 f   calstorelib:apptment.obj
 0001:000635a0       ?Cache@CCSAppointment@@QAAJPAUtagAPPOINTMENTDATA@@PAHPAX2@Z 100645a0 f   calstorelib:apptment.obj
 0001:000636c8       HandleProposeNewTime       100646c8 f   calstorelib:apptment.obj
 0001:000636f0       ??0RTime@@QAA@ABUtagYmd@@@Z 100646f0 f i calstorelib:apptment.obj
 0001:00063780       ?FlushCache@CCSAppointment@@QAAJXZ 10064780 f   calstorelib:apptment.obj
 0001:000637c0       ?AllocateAndPrependMessagingSubject@@YAJPAPAGIPAG@Z 100647c0 f   calstorelib:apptment.obj
 0001:00063910       ?AllocateAndFormatMessagingName@@YAJPAPAGPAIPBG2@Z 10064910 f   calstorelib:apptment.obj
 0001:00063aac       ConvertToTimeZone          10064aac f   calstorelib:apptment.obj
 0001:00063b6c       OidFromAppointment         10064b6c f   calstorelib:apptment.obj
 0001:00063ba0       ?PoomItemIdFromAppointment@CCSAppointment@@QBAJPAUOLITEMID@@@Z 10064ba0 f i calstorelib:apptment.obj
 0001:00063bf0       ?EnsureUSItem@CCSAppointment@@AAAJXZ 10064bf0 f   calstorelib:apptment.obj
 0001:00063d18       ?EnsureUSFolder@CCSAppointment@@AAAJXZ 10064d18 f   calstorelib:apptment.obj
 0001:00063d5c       ?EnsureUSStore@CCSAppointment@@AAAJXZ 10064d5c f   calstorelib:apptment.obj
 0001:00063db0       ?ClearUserNotification@CCSAppointment@@QAAJPAUtagAPPOINTMENTDATA@@@Z 10064db0 f   calstorelib:apptment.obj
 0001:00063e2c       ?GetRecipients@CCSAppointment@@QAAJPAPAVIAttendeeList@@@Z 10064e2c f   calstorelib:apptment.obj
 0001:00063fd0       ?GetGlobjId@CCSAppointment@@QAAJPAU_CEBLOB@@@Z 10064fd0 f   calstorelib:apptment.obj
 0001:0006409c       ?GetRecurringData@CCSAppointment@@QAAJPAPAX0H@Z 1006509c f   calstorelib:apptment.obj
 0001:000642f8       ?AddToMonthCache@CCSAppointment@@AAAJVRTime@@0PAUApptRecurInfo@@PAUtagAPPOINTMENTDATA@@@Z 100652f8 f   calstorelib:apptment.obj
 0001:00064420       ?EnsureCriticalIncrease@CCSAppointment@@QAAJPAU_FILETIME@@@Z 10065420 f   calstorelib:apptment.obj
 0001:000644fc       ?SetAttendeeCriticalChange@CCSAppointment@@AAAJPAU_FILETIME@@0@Z 100654fc f   calstorelib:apptment.obj
 0001:000645b8       PoomItemIdFromAppointment  100655b8 f   calstorelib:apptment.obj
 0001:000645d4       ??0CCSAppointment@@QAA@PAVCStore@@@Z 100655d4 f   calstorelib:apptment.obj
 0001:00064648       ??1CCSAppointment@@QAA@XZ  10065648 f   calstorelib:apptment.obj
 0001:000646b8       ?InitializeExisting@CCSAppointment@@QAAJPAUIUSStore@@UUSOID@@@Z 100656b8 f   calstorelib:apptment.obj
 0001:000646e8       ?InitializeExisting@CCSAppointment@@QAAJPAUIUSItem@@@Z 100656e8 f   calstorelib:apptment.obj
 0001:0006472c       ?GetRecurrenceClass@CCSAppointment@@QAAJPAPAVApptRecurrence@@HPAUtagTZREG@@@Z 1006572c f   calstorelib:apptment.obj
 0001:00064858       ?FillApptDataFromUSObject@CCSAppointment@@QAAJPAUIUSObject@@PAUIUSObjectCollection@@KPAU_TIME_ZONE_INFORMATION@@PAUtagAPPOINTMENTDATA@@PAH@Z 10065858 f   calstorelib:apptment.obj
 0001:000653bc       ?GetMessageStore@CCSAppointment@@QAAJPAPAUIMsgStore@@PAPAG@Z 100663bc f   calstorelib:apptment.obj
 0001:00065818       ?ExceptionFromOriginal@CCSAppointment@@QAAJPAU_SYSTEMTIME@@0@Z 10066818 f   calstorelib:apptment.obj
 0001:000658e4       ?GetNextInstance@CCSAppointment@@QAAJPAVApptRecurrence@@PAU_SYSTEMTIME@@11PAUApptRecurInfo@@@Z 100668e4 f   calstorelib:apptment.obj
 0001:000659b0       ?SetSnapDate@CCSAppointment@@QAAJPAU_SYSTEMTIME@@PAVApptRecurrence@@@Z 100669b0 f   calstorelib:apptment.obj
 0001:00065bc4       ?IsException@CCSAppointment@@QAAJPAH@Z 10066bc4 f   calstorelib:apptment.obj
 0001:00065c80       ?GetExceptionInfo@CCSAppointment@@QAAJPAUApptRecurInfo@@@Z 10066c80 f   calstorelib:apptment.obj
 0001:00065d78       ?GetPatternStartTime@CCSAppointment@@QAAJPAU_SYSTEMTIME@@0PAG@Z 10066d78 f   calstorelib:apptment.obj
 0001:00065e2c       ?GetOccurrenceDateByIndex@CCSAppointment@@QAAJIPAU_SYSTEMTIME@@@Z 10066e2c f   calstorelib:apptment.obj
 0001:00065ed8       ReleaseAppointment         10066ed8 f   calstorelib:apptment.obj
 0001:00065efc       IsException                10066efc f   calstorelib:apptment.obj
 0001:00065f18       SetSnapDate                10066f18 f   calstorelib:apptment.obj
 0001:00065f38       GetExceptionInfo           10066f38 f   calstorelib:apptment.obj
 0001:00065f54       GetPatternStartTime        10066f54 f   calstorelib:apptment.obj
 0001:00065f70       ExceptionFromOriginal      10066f70 f   calstorelib:apptment.obj
 0001:00065f8c       GetOccurrenceDateByIndex   10066f8c f   calstorelib:apptment.obj
 0001:00065fa8       ItemFromAppointment        10066fa8 f   calstorelib:apptment.obj
 0001:00065ff4       StoreFromAppointment       10066ff4 f   calstorelib:apptment.obj
 0001:00066040       ?Copy@CCSAppointment@@QAAJPAPAV1@@Z 10067040 f   calstorelib:apptment.obj
 0001:00066134       ?AdjustForRecurring@CCSAppointment@@QAAJPAUtagAPPOINTMENTDATA@@PAUtagRECURRENCEDATA@@PAVApptRecurrence@@HK@Z 10067134 f   calstorelib:apptment.obj
 0001:00066580       ?GetOriginalDateFromException@CCSAppointment@@QAAJPAU_SYSTEMTIME@@PAUtagYmd@@@Z 10067580 f   calstorelib:apptment.obj
 0001:000666d0       ?GetAppointmentData@CCSAppointment@@QAAJKPAUtagAPPOINTMENTDATA@@PAUtagRECURRENCEDATA@@H@Z 100676d0 f   calstorelib:apptment.obj
 0001:0006682c       ?SetDelete@CCSAppointment@@QAAJXZ 1006782c f   calstorelib:apptment.obj
 0001:000668a8       ?GetAlarmTime@CCSAppointment@@QAAJPAUtagAPPOINTMENTDATA@@HPAU_SYSTEMTIME@@@Z 100678a8 f   calstorelib:apptment.obj
 0001:00066974       ?ReplSetDefAlarm@CCSAppointment@@QAAJPAH@Z 10067974 f   calstorelib:apptment.obj
 0001:00066a84       ?SetAppointmentData@CCSAppointment@@QAAJPAUtagAPPOINTMENTDATA@@PAUtagRECURRENCEDATA@@W4ENUMSETDATA@@PAU_TIME_ZONE_INFORMATION@@PAU_CEBLOB@@IPAU_USPROPVAL@@H@Z 10067a84 f   calstorelib:apptment.obj
 0001:00067440       ?SendAttendeesExceptions@CCSAppointment@@QAAJKPAVIAttendeeList@@@Z 10068440 f   calstorelib:apptment.obj
 0001:0006775c       ?SetRecurringMailProperties@CCSAppointment@@QAAJPAPAU_SPropValue@@PAK1@Z 1006875c f   calstorelib:apptment.obj
 0001:00067be4       ?IsRecurring@CCSAppointment@@QAAHXZ 10068be4 f   calstorelib:apptment.obj
 0001:00067c58       ?GetMonthData@CCSAppointment@@QAAJPAUtagYmd@@PAK1IH@Z 10068c58 f   calstorelib:apptment.obj
 0001:00067fc0       ?GetNextRunTime@CCSAppointment@@QAAJPAU_SYSTEMTIME@@@Z 10068fc0 f   calstorelib:apptment.obj
 0001:00068150       ?IsOccurrenceSameDay@CCSAppointment@@QAAJPAUtagYmd@@PAH@Z 10069150 f   calstorelib:apptment.obj
 0001:00068244       ?IsOverlappingException@CCSAppointment@@QAAJPAU_SYSTEMTIME@@00JPAH@Z 10069244 f   calstorelib:apptment.obj
 0001:00068390       GetAppointmentData         10069390 f   calstorelib:apptment.obj
 0001:000683c8       SetAppointmentData         100693c8 f   calstorelib:apptment.obj
 0001:00068434       IsRecurring                10069434 f   calstorelib:apptment.obj
 0001:00068458       IsOccurrenceSameDay        10069458 f   calstorelib:apptment.obj
 0001:00068474       IsOverlappingException     10069474 f   calstorelib:apptment.obj
 0001:000684bc       ?InitializeNew@CCSAppointment@@QAAJPAUIUSFolder@@PAUtagAPPOINTMENTDATA@@PAUtagRECURRENCEDATA@@PAU_TIME_ZONE_INFORMATION@@PAU_CEBLOB@@IPAU_USPROPVAL@@@Z 100694bc f   calstorelib:apptment.obj
 0001:0006856c       ?SetUserNotification@CCSAppointment@@QAAJPAHPAUtagAPPOINTMENTDATA@@@Z 1006956c f   calstorelib:apptment.obj
 0001:00068ba0       ?SetMailProperties@CCSAppointment@@QAAJPAPAU_SPropValue@@PAKPAU_SYSTEMTIME@@PAUtagApptTime@@PAUtagAPPOINTMENTDATA@@PAPAEK@Z 10069ba0 f   calstorelib:apptment.obj
 0001:00069384       ?SendAttendeesUpdate@CCSAppointment@@QAAJPAUtagAPPOINTMENTDATA@@PAU_SYSTEMTIME@@KPAU_SBinary@@PAVIAttendeeList@@PAGPAUtagApptTime@@@Z 1006a384 f   calstorelib:apptment.obj
 0001:0006a230       ?HandleForward@CCSAppointment@@QAAJPAUHWND__@@@Z 1006b230 f   calstorelib:apptment.obj
 0001:0006a3f0       ?SendReply@CCSAppointment@@QAAJH@Z 1006b3f0 f   calstorelib:apptment.obj
 0001:0006aaf4       ?EditException@CCSAppointment@@QAAJPAUtagApptTime@@0JPAUApptRecurInfo@@@Z 1006baf4 f   calstorelib:apptment.obj
 0001:0006b25c       ?ClearAttendeeStatus@CCSAppointment@@QAAJXZ 1006c25c f   calstorelib:apptment.obj
 0001:0006b390       EditException              1006c390 f   calstorelib:apptment.obj
 0001:0006b3c8       SendReply                  1006c3c8 f   calstorelib:apptment.obj
 0001:0006b3e4       SendAttendeesUpdate        1006c3e4 f   calstorelib:apptment.obj
 0001:0006b448       HandleForward              1006c448 f   calstorelib:apptment.obj
 0001:0006b464       ClearAttendeeStatus        1006c464 f   calstorelib:apptment.obj
 0001:0006b480       ?UpdateAttendeesOnExceptions@CCSAppointment@@QAAJPAVIAttendeeList@@0@Z 1006c480 f   calstorelib:apptment.obj
 0001:0006b7b8       UpdateAttendeesOnExceptions 1006c7b8 f   calstorelib:apptment.obj
 0001:0006b7d4       ?FileTimeToLong@@YAXAAU_FILETIME@@AAJ@Z 1006c7d4 f   calstorelib:utility.obj
 0001:0006b808       ?FillLengthFromAPPTTIME@@YAXPAU_USPROPVAL@@UtagApptTime@@@Z 1006c808 f   calstorelib:utility.obj
 0001:0006b81c       ?FillVARIANTString@@YAXPAU_USPROPVAL@@PAG@Z 1006c81c f   calstorelib:utility.obj
 0001:0006b824       ?FillVARIANTLong@@YAXPAU_USPROPVAL@@J@Z 1006c824 f   calstorelib:utility.obj
 0001:0006b82c       ?FillVARIANTBool@@YAXPAU_USPROPVAL@@H@Z 1006c82c f   calstorelib:utility.obj
 0001:0006b834       ?FillOFFSETfromRI@@YAKPAU_USPROPVAL@@PAUtagREMINDERINFO@@@Z 1006c834 f   calstorelib:utility.obj
 0001:0006b844       ?SetReminderInfoTime@@YAXJPAUtagREMINDERINFO@@@Z 1006c844 f   calstorelib:utility.obj
 0001:0006b84c       ?GetRecurringType@@YAJPAUtagRECURRENCEDATA@@@Z 1006c84c f   calstorelib:utility.obj
 0001:0006b8b8       ?GetDayInterval@@YAJPAUtagRECURRENCEDATA@@@Z 1006c8b8 f   calstorelib:utility.obj
 0001:0006b8d8       ?GetEndDate@@YAJPAUtagRECURRENCEDATA@@@Z 1006c8d8 f   calstorelib:utility.obj
 0001:0006b950       ?GetStartRecurringDate@@YAJPAUtagRECURRENCEDATA@@@Z 1006c950 f   calstorelib:utility.obj
 0001:0006b9c8       ?GetDayOfWeekMask@@YAJJ@Z  1006c9c8 f   calstorelib:utility.obj
 0001:0006b9cc       ?GetDayOfMonthMask@@YAJPAUtagRECURRENCEDATA@@@Z 1006c9cc f   calstorelib:utility.obj
 0001:0006b9e0       ?GetMonthOfYearMask@@YAJPAUtagRECURRENCEDATA@@@Z 1006c9e0 f   calstorelib:utility.obj
 0001:0006b9f4       ?GetUserNotificationData@@YAHPAXPAPAEPAK@Z 1006c9f4 f   calstorelib:utility.obj
 0001:0006ba6c       ?IsNotificationActive@@YAHPAXPAPAEPAKPAU_SYSTEMTIME@@@Z 1006ca6c f   calstorelib:utility.obj
 0001:0006bac4       ?CompareInstanceInfoByDate@@YAHPAX0J@Z 1006cac4 f   calstorelib:utility.obj
 0001:0006bb30       ?DPAPimLocalFree_Callback@@YAHPAX0@Z 1006cb30 f   calstorelib:utility.obj
 0001:0006bb44       ConvertMeetingStatusToFlags 1006cb44 f   calstorelib:utility.obj
 0001:0006bb88       ?FillStartTimeFromAPPTTIME@@YAJPAU_USPROPVAL@@UtagApptTime@@PAU_TIME_ZONE_INFORMATION@@@Z 1006cb88 f   calstorelib:utility.obj
 0001:0006bc04       ?FillAPPTTIMEFromFILETIME@@YAJPAUtagApptTime@@U_FILETIME@@PAU_TIME_ZONE_INFORMATION@@@Z 1006cc04 f   calstorelib:utility.obj
 0001:0006bca4       ?FillVARIANTTz@@YAJPAU_USPROPVAL@@PAU_TIME_ZONE_INFORMATION@@@Z 1006cca4 f   calstorelib:utility.obj
 0001:0006bd70       ?GetStartRecurringTime@@YAJPAVApptRecurrence@@@Z 1006cd70 f   calstorelib:utility.obj
 0001:0006bdbc       ?GetEndRecurringTime@@YAJPAVApptRecurrence@@@Z 1006cdbc f   calstorelib:utility.obj
 0001:0006be58       ?CorrectAllDayAppt@CRecurrenceEnum@@AAAXPAUApptRecurInfo@@PAVRTime@@1@Z 1006ce58 f   calstorelib:utility.obj
 0001:0006bea0       ?SetOccurrence@CRecurrenceEnum@@AAAXVRTime@@0@Z 1006cea0 f   calstorelib:utility.obj
 0001:0006bedc       ?Next@CRecurrenceEnum@@QAAHXZ 1006cedc f   calstorelib:utility.obj
 0001:0006bfa0       ?GetSnapDate@CRecurrenceEnum@@QAAXPAU_SYSTEMTIME@@@Z 1006cfa0 f   calstorelib:utility.obj
 0001:0006bfdc       ?CopyAppointment@@YAJPAVCStore@@PAVCCSAppointment@@PAUtagAPPOINTMENTDATA@@PAPAV2@2PAU_SYSTEMTIME@@PAVApptRecurrence@@@Z 1006cfdc f   calstorelib:utility.obj
 0001:0006c088       ?InstanceDPAEnumProc@@YAJPAVCCSAppointment@@PAUtagAPPOINTMENTDATA@@PAU_SYSTEMTIME@@J@Z 1006d088 f   calstorelib:utility.obj
 0001:0006c130       ?CompareConflicts@@YAHPAX0J@Z 1006d130 f   calstorelib:utility.obj
 0001:0006c18c       ?GetNextRecurrenceInstance@@YAJPAU_SYSTEMTIME@@PAVApptRecurrence@@H00PAUApptRecurInfo@@@Z 1006d18c f   calstorelib:utility.obj
 0001:0006c314       ?GetAttendeesFromRecipientsCollection@@YAJPAUIUSObjectCollection@@PAVIAttendeeList@@@Z 1006d314 f   calstorelib:utility.obj
 0001:0006c464       ?GetAttendeePropArray@@YAJPBG0IIPAU_FILETIME@@PAPAU_USPROPVAL@@PAI@Z 1006d464 f   calstorelib:utility.obj
 0001:0006c5f0       ?PutAttendeesInRecipients@@YAJPAVIAttendeeList@@PBG1PAU_FILETIME@@PAUIUSItem@@H@Z 1006d5f0 f   calstorelib:utility.obj
 0001:0006c934       ?GetApptRecurrence@@YAJPAUtagApptTime@@PAUtagRECURRENCEDATA@@PAPAVApptRecurrence@@PAH@Z 1006d934 f   calstorelib:utility.obj
 0001:0006cb64       ?Begin@CRecurrenceEnum@@QAAHPAUtagAPPOINTMENTDATA@@PAVApptRecurrence@@PAU_SYSTEMTIME@@2@Z 1006db64 f   calstorelib:utility.obj
 0001:0006cd48       ?EnumAppointmentInstance@@YAJPAVCStore@@PAU_SYSTEMTIME@@1PAVCCSAppointment@@PAUtagAPPOINTMENTDATA@@PAVCRecurrenceEnum@@KP6AJ231J@ZJ@Z 1006dd48 f   calstorelib:utility.obj
 0001:0006d07c       ?EnumRecurringAppointment@@YAJPAVCStore@@PAU_SYSTEMTIME@@1PAVCCSAppointment@@PAUtagAPPOINTMENTDATA@@KP6AJ231J@ZJ@Z 1006e07c f   calstorelib:utility.obj
 0001:0006d200       ?EnumRecurringAppointmentNotInStore@@YAJPAU_SYSTEMTIME@@0PAUtagAPPOINTMENTDATA@@PAVApptRecurrence@@KP6AJPAVCCSAppointment@@10J@ZJ@Z 1006e200 f   calstorelib:utility.obj
 0001:0006d2e0       ?ConflictEnumProc@@YAJPAVCCSAppointment@@PAUtagAPPOINTMENTDATA@@PAU_SYSTEMTIME@@J@Z 1006e2e0 f   calstorelib:utility.obj
 0001:0006d57c       ?AppointmentFromCollection@@YAJPAVCStore@@PAUIUSStore@@PAUIUSObjectCollection@@KPAU_TIME_ZONE_INFORMATION@@PAPAVCCSAppointment@@PAUtagAPPOINTMENTDATA@@@Z 1006e57c f   calstorelib:utility.obj
 0001:0006d718       ?FillVARIANTRec@@YAJPAU_USPROPVAL@@PAUtagApptTime@@PAUtagRECURRENCEDATA@@PAVApptRecurrence@@@Z 1006e718 f   calstorelib:utility.obj
 0001:0006d7e8       ?Cache@CCSTask@@QAAJPAUtagTASKDATA@@PAHPAX@Z 1006e7e8 f   calstorelib:task.obj
 0001:0006d8a8       ?FlushCache@CCSTask@@QAAJXZ 1006e8a8 f   calstorelib:task.obj
 0001:0006d8e0       ?SetTaskAlarm@CCSTask@@QAAJPAUtagTASKDATA@@PAH@Z 1006e8e0 f   calstorelib:task.obj
 0001:0006de24       ?GetTaskData@CCSTask@@QAAJKPAUtagTASKDATA@@PAUtagRECURRENCEDATA@@@Z 1006ee24 f   calstorelib:task.obj
 0001:0006e65c       ?GetRecurringData@CCSTask@@QAAJPAPAE@Z 1006f65c f   calstorelib:task.obj
 0001:0006e770       ?IsRecurring@CCSTask@@QAAJPAH@Z 1006f770 f   calstorelib:task.obj
 0001:0006e7b0       ?GetTaskStartDate@CCSTask@@QAAJPAVRTime@@@Z 1006f7b0 f   calstorelib:task.obj
 0001:0006e834       ?GetTaskDueDate@CCSTask@@QAAJPAVRTime@@@Z 1006f834 f   calstorelib:task.obj
 0001:0006e8b8       ?GetTaskReminder@CCSTask@@QAAJPAVRTime@@@Z 1006f8b8 f   calstorelib:task.obj
 0001:0006e92c       ?SetDelete@CCSTask@@QAAJPAVCStore@@@Z 1006f92c f   calstorelib:task.obj
 0001:0006e990       ?CalcNewStartAndDue@CCSTask@@QAAJVRTime@@PAV2@11@Z 1006f990 f   calstorelib:task.obj
 0001:0006ea6c       GetTaskData                1006fa6c f   calstorelib:task.obj
 0001:0006ea88       IsRecurringTask            1006fa88 f   calstorelib:task.obj
 0001:0006eaa4       OidFromTask                1006faa4 f   calstorelib:task.obj
 0001:0006ead0       ?StoreFromTask@CCSTask@@QAAJPAPAUIUSStore@@@Z 1006fad0 f i calstorelib:task.obj
 0001:0006eb24       ??0CCSTask@@QAA@PAVCStore@@@Z 1006fb24 f   calstorelib:task.obj
 0001:0006eb5c       ??1CCSTask@@QAA@XZ         1006fb5c f   calstorelib:task.obj
 0001:0006ebc4       ?CopyTaskProps@CCSTask@@SAJPAUtagTASKDATA@@PAUtagRECURRENCEDATA@@W4ENUMSETDATA@@IPAU_USPROPVAL@@PAPAU5@PAKPAPAE@Z 1006fbc4 f   calstorelib:task.obj
 0001:0006f19c       ItemFromTask               1007019c f   calstorelib:task.obj
 0001:0006f1cc       StoreFromTask              100701cc f   calstorelib:task.obj
 0001:0006f1e8       ?InitializeNew@CCSTask@@QAAJPAUIUSFolder@@PAUtagTASKDATA@@PAUtagRECURRENCEDATA@@IPAU_USPROPVAL@@@Z 100701e8 f   calstorelib:task.obj
 0001:0006f2e4       ?InitializeExisting@CCSTask@@QAAJPAUIUSStore@@UUSOID@@@Z 100702e4 f   calstorelib:task.obj
 0001:0006f45c       ?InitializeExisting@CCSTask@@QAAJPAUIUSItem@@@Z 1007045c f   calstorelib:task.obj
 0001:0006f4a0       ?SetTaskData@CCSTask@@QAAJPAUtagTASKDATA@@PAUtagRECURRENCEDATA@@W4ENUMSETDATA@@IPAU_USPROPVAL@@@Z 100704a0 f   calstorelib:task.obj
 0001:0006f57c       ReleaseTask                1007057c f   calstorelib:task.obj
 0001:0006f5a0       SetTaskData                100705a0 f   calstorelib:task.obj
 0001:0006f5e4       ?AdvanceRecur@CCSTask@@QAAJVRTime@@HHPAPAV1@PAH@Z 100705e4 f   calstorelib:task.obj
 0001:0006fdd8       AdvanceRecurNoClone        10070dd8 f   calstorelib:task.obj
 0001:0006fe28       ?CompleteTask@CCSTask@@QAAJHPAPAV1@@Z 10070e28 f   calstorelib:task.obj
 0001:0006ff6c       CompleteTask               10070f6c f   calstorelib:task.obj
 0001:0006ff88       ?AddOidToTable@CCache@@AAAJUUSOID@@0PAK1H@Z 10070f88 f   calstorelib:cache.obj
 0001:000700b0       ?DestroyCacheThread@CCache@@QAAXXZ 100710b0 f   calstorelib:cache.obj
 0001:00070108       ?Dirty@CCache@@QAAJXZ      10071108 f   calstorelib:cache.obj
 0001:00070178       ?IsDateCached@CCache@@QAAJPAU_FILETIME@@PAH@Z 10071178 f   calstorelib:cache.obj
 0001:00070244       ?GetMonthIndex@CCache@@AAAJPAUtagYmd@@PAI@Z 10071244 f   calstorelib:cache.obj
 0001:000702ac       ?GetArrayOfMasks@CCache@@AAAJPAU_SYSTEMTIME@@0PAKPAH@Z 100712ac f   calstorelib:cache.obj
 0001:000704e0       ??1CCache@@QAA@XZ          100714e0 f   calstorelib:cache.obj
 0001:00070540       ?SetDate@CCache@@AAAJPAU_FILETIME@@@Z 10071540 f   calstorelib:cache.obj
 0001:000705b8       ?IsUpToDate@CCache@@QAAJPAH@Z 100715b8 f   calstorelib:cache.obj
 0001:00070688       ?SetMonthData@CCache@@AAAJPAUtagYmd@@K@Z 10071688 f   calstorelib:cache.obj
 0001:000706d8       ?CropRangeToCache@CCache@@QAAJPAUtagYmd@@0PAH@Z 100716d8 f   calstorelib:cache.obj
 0001:0007088c       ??0CCache@@QAA@PAUIUSStoreManager@@PAVCStore@@@Z 1007188c f   calstorelib:cache.obj
 0001:0007091c       ?SetRange@CCache@@QAAJPAU_FILETIME@@0@Z 1007191c f   calstorelib:cache.obj
 0001:00070af8       ?EnumAppointments@CCache@@QAAJPAUIUSFolder@@PAUtagYmd@@1P6AJPAVCCSAppointment@@PAUtagAPPOINTMENTDATA@@PAU_SYSTEMTIME@@J@ZJKK@Z 10071af8 f   calstorelib:cache.obj
 0001:00070f9c       ?AddDataToMonth@CCache@@QAAJPAUtagAPPOINTMENTDATA@@HPAUOLITEMID@@@Z 10071f9c f   calstorelib:cache.obj
 0001:00071328       ?PopulateRecurringAppointments@CCache@@AAAJPAUIUSFolder@@@Z 10072328 f   calstorelib:cache.obj
 0001:00071824       ?CacheAppointment@CCache@@AAAJPAVCCSAppointment@@PAUtagAPPOINTMENTDATA@@@Z 10072824 f   calstorelib:cache.obj
 0001:000719d0       ?PopulateSingleInstanceAppointments@CCache@@AAAJPAUIUSFolder@@@Z 100729d0 f   calstorelib:cache.obj
 0001:00071fa4       ?PopulateMultiDayAppointments@CCache@@AAAJPAUIUSFolder@@@Z 10072fa4 f   calstorelib:cache.obj
 0001:00072448       ?PopulateCacheFromFolder@CCache@@AAAJPAUIUSFolder@@@Z 10073448 f   calstorelib:cache.obj
 0001:00072494       ?PopulateChildFolders@CCache@@AAAJPAUIUSFolder@@@Z 10073494 f   calstorelib:cache.obj
 0001:00072660       ?PopulateCacheForAllStores@CCache@@AAAJXZ 10073660 f   calstorelib:cache.obj
 0001:00072b34       ?PopulateCache@@YAKPAPAX@Z 10073b34 f   calstorelib:cache.obj
 0001:00072c90       ?Initialize@CCache@@QAAJXZ 10073c90 f   calstorelib:cache.obj
 0001:00072db4       InterlockedExchange        10073db4 f   coredll:COREDLL.dll
 0001:00072dc4       TerminateProcess           10073dc4 f   coredll:COREDLL.dll
 0001:00072dd4       CeRunAppAtTime             10073dd4 f   coredll:COREDLL.dll
 0001:00072de4       FormatMessageW             10073de4 f   coredll:COREDLL.dll
 0001:00072df4       CeClearUserNotification    10073df4 f   coredll:COREDLL.dll
 0001:00072e04       CeSetUserNotification      10073e04 f   coredll:COREDLL.dll
 0001:00072e14       CeGetUserNotification      10073e14 f   coredll:COREDLL.dll
 0001:00072e24       DPA_Search                 10073e24 f   coredll:COREDLL.dll
 0001:00072e34       __GetUserKData             10073e34 f   coredll:COREDLL.dll
 0001:00072e44       SetThreadPriority          10073e44 f   coredll:COREDLL.dll
 0001:00072e54       Sleep                      10073e54 f   coredll:COREDLL.dll
 0001:00072e64       WaitForMultipleObjects     10073e64 f   coredll:COREDLL.dll
 0001:00072e74       CreateThread               10073e74 f   coredll:COREDLL.dll
 0001:00072e84       ?FreeAppointmentRestriction@@YAJU_USRestriction@@@Z 10073e84 f   pimutil:PIMUTIL.dll
 0001:00072e94       ?BuildAppointmentRestriction@@YAJPAH0PAU_FILETIME@@PAU_USRestriction@@@Z 10073e94 f   pimutil:PIMUTIL.dll
 0001:00072ea4       CmpST                      10073ea4 f   pimutil:PIMUTIL.dll
 0001:00072eb4       AdjustForBias              10073eb4 f   pimutil:PIMUTIL.dll
 0001:00072ec4       DaysBetweenDates           10073ec4 f   pimutil:PIMUTIL.dll
 0001:00072ed4       ?GetCalendarChildFolders@@YAJPAUIUSFolder@@PAPAUIUSObjectCollection@@@Z 10073ed4 f   pimutil:PIMUTIL.dll
 0001:00072ee4       ?GetTaskChildFolders@@YAJPAUIUSFolder@@PAPAUIUSObjectCollection@@@Z 10073ee4 f   pimutil:PIMUTIL.dll
 0001:00072ef4       StdTimeZoneInfoFromRen     10073ef4 f   pimutil:PIMUTIL.dll
 0001:00072f04       ConvertRenTzToSchedPlus    10073f04 f   pimutil:PIMUTIL.dll
 0001:00072f14       PimReadKey                 10073f14 f   pimutil:PIMUTIL.dll
 0001:00072f24       PimLoadNonLocalString      10073f24 f   pimutil:PIMUTIL.dll
 0001:00072f34       GetApptAlarmString         10073f34 f   pimutil:PIMUTIL.dll
 0001:00072f44       PimDisplayRecurringMessage 10073f44 f   pimutil:PIMUTIL.dll
 0001:00072f54       GetStartEndTime            10073f54 f   pimutil:PIMUTIL.dll
 0001:00072f64       IsAdjacentConflict         10073f64 f   pimutil:PIMUTIL.dll
 0001:00072f74       IsOverlapConflict          10073f74 f   pimutil:PIMUTIL.dll
 0001:00072f84       PimGetDateFormat           10073f84 f   pimutil:PIMUTIL.dll
 0001:00072f94       ?RetailLogEnterEx@@YAXKPBD@Z 10073f94 f   RetailLogUtils:RetailLogUtils.obj
 0001:00072fbc       ?RetailLogExitEx@@YAXKJ@Z  10073fbc f   RetailLogUtils:RetailLogUtils.obj
 0001:00072fe4       MAPIUninitialize           10073fe4 f   cemapi:CEMAPI.dll
 0001:00072ff4       MAPIFreeBuffer             10073ff4 f   cemapi:CEMAPI.dll
 0001:00073004       MAPILogonEx                10074004 f   cemapi:CEMAPI.dll
 0001:00073014       MAPIInitialize             10074014 f   cemapi:CEMAPI.dll
 0001:00073024       MailDisplayMessage         10074024 f   cemapi:CEMAPI.dll
 0001:00073034       MailComposeMessage         10074034 f   cemapi:CEMAPI.dll
 0001:00073044       wcschr                     10074044 f   corelib1:COREDLL.dll
 0001:00073110       ??__Fcs@?1??get_lock@?$singleton@V?$free_list@$0GE@Vallocator@ce@@@ce@@$03V?$static_allocator@V?$free_list@$0GE@Vallocator@ce@@@ce@@$03@2@@ce@@KAAAVcritical_section@2@XZ@YAXXZ 10074110 f i calstorelib:precomp.obj
 0001:00073324       __IMPORT_DESCRIPTOR_COREDLL 10074324     coredll:COREDLL.dll
 0001:00073338       __IMPORT_DESCRIPTOR_CEAYGSHELL 10074338     CEaygshell:CEAYGSHELL.dll
 0001:0007334c       __IMPORT_DESCRIPTOR_ole32  1007434c     ole32:ole32.dll
 0001:00073360       __IMPORT_DESCRIPTOR_OLEAUT32 10074360     oleaut32:OLEAUT32.dll
 0001:00073374       __IMPORT_DESCRIPTOR_ossvcs 10074374     ossvcs:ossvcs.dll
 0001:00073388       __IMPORT_DESCRIPTOR_PIMUTIL 10074388     pimutil:PIMUTIL.dll
 0001:0007339c       __IMPORT_DESCRIPTOR_RPCRT4LEGACY 1007439c     rpcrt4legacy:RPCRT4LEGACY.dll
 0001:000733b0       __IMPORT_DESCRIPTOR_sim    100743b0     SIM:sim.dll
 0001:000733c4       __IMPORT_DESCRIPTOR_CEMAPI 100743c4     cemapi:CEMAPI.dll
 0001:000733d8       __NULL_IMPORT_DESCRIPTOR   100743d8     coredll:COREDLL.dll
 0002:00000000       _pimstore_priv_IID_Lookup  10076000 f   pimstoreuuid:pimstore_priv_p.obj
 0002:000001cc       _pimstore_IID_Lookup       100761cc f   pimstoreuuid:pimstore_p.obj
 0003:00000000       __imp_SHGetSupportedSimContactsFields 10077000     CEaygshell:CEAYGSHELL.dll
 0003:00000004       __imp_GetDialableNumber    10077004     CEaygshell:CEAYGSHELL.dll
 0003:00000008       __imp_OptimizedReverseCompare 10077008     CEaygshell:CEAYGSHELL.dll
 0003:0000000c       \177CEAYGSHELL_NULL_THUNK_DATA 1007700c     CEaygshell:CEAYGSHELL.dll
 0003:00000010       __imp_MailDisplayMessage   10077010     cemapi:CEMAPI.dll
 0003:00000014       __imp_MAPIInitialize       10077014     cemapi:CEMAPI.dll
 0003:00000018       __imp_MAPILogonEx          10077018     cemapi:CEMAPI.dll
 0003:0000001c       __imp_MailComposeMessage   1007701c     cemapi:CEMAPI.dll
 0003:00000020       __imp_MAPIUninitialize     10077020     cemapi:CEMAPI.dll
 0003:00000024       __imp_MAPIFreeBuffer       10077024     cemapi:CEMAPI.dll
 0003:00000028       \177CEMAPI_NULL_THUNK_DATA 10077028     cemapi:CEMAPI.dll
 0003:0000002c       __imp_RegCloseKey          1007702c     coredll:COREDLL.dll
 0003:00000030       __imp_RegCreateKeyExW      10077030     coredll:COREDLL.dll
 0003:00000034       __imp_RegOpenKeyExW        10077034     coredll:COREDLL.dll
 0003:00000038       __imp_RegSetValueExW       10077038     coredll:COREDLL.dll
 0003:0000003c       __imp_lstrcmpiW            1007703c     coredll:COREDLL.dll
 0003:00000040       __imp_CharNextW            10077040     coredll:COREDLL.dll
 0003:00000044       __imp_RegQueryInfoKeyW     10077044     coredll:COREDLL.dll
 0003:00000048       __imp_RegEnumKeyExW        10077048     coredll:COREDLL.dll
 0003:0000004c       __imp_FreeLibrary          1007704c     coredll:COREDLL.dll
 0003:00000050       __imp_MultiByteToWideChar  10077050     coredll:COREDLL.dll
 0003:00000054       __imp_SizeofResource       10077054     coredll:COREDLL.dll
 0003:00000058       __imp_LoadResource         10077058     coredll:COREDLL.dll
 0003:0000005c       __imp_FindResourceW        1007705c     coredll:COREDLL.dll
 0003:00000060       __imp_LoadLibraryExW       10077060     coredll:COREDLL.dll
 0003:00000064       __imp_GetModuleHandleW     10077064     coredll:COREDLL.dll
 0003:00000068       __imp_GetModuleFileNameW   10077068     coredll:COREDLL.dll
 0003:0000006c       __imp_GetProcAddressW      1007706c     coredll:COREDLL.dll
 0003:00000070       __imp_LoadLibraryW         10077070     coredll:COREDLL.dll
 0003:00000074       __imp_LocalFree            10077074     coredll:COREDLL.dll
 0003:00000078       __imp_LocalAlloc           10077078     coredll:COREDLL.dll
 0003:0000007c       __imp_SystemTimeToFileTime 1007707c     coredll:COREDLL.dll
 0003:00000080       __imp_FileTimeToSystemTime 10077080     coredll:COREDLL.dll
 0003:00000084       __imp_GetTimeZoneInformation 10077084     coredll:COREDLL.dll
 0003:00000088       __imp_GetTickCount         10077088     coredll:COREDLL.dll
 0003:0000008c       __imp_StringCchCopyW       1007708c     coredll:COREDLL.dll
 0003:00000090       __imp_CompareStringW       10077090     coredll:COREDLL.dll
 0003:00000094       __imp_LocalSize            10077094     coredll:COREDLL.dll
 0003:00000098       __imp_CloseHandle          10077098     coredll:COREDLL.dll
 0003:0000009c       __imp_HeapFree             1007709c     coredll:COREDLL.dll
 0003:000000a0       __imp_GetProcessHeap       100770a0     coredll:COREDLL.dll
 0003:000000a4       __imp_RegDeleteValueW      100770a4     coredll:COREDLL.dll
 0003:000000a8       __imp_FileTimeToLocalFileTime 100770a8     coredll:COREDLL.dll
 0003:000000ac       __imp_StringCchPrintfW     100770ac     coredll:COREDLL.dll
 0003:000000b0       __imp_StringCchLengthW     100770b0     coredll:COREDLL.dll
 0003:000000b4       __imp_CompareFileTime      100770b4     coredll:COREDLL.dll
 0003:000000b8       __imp_StringCchCopyNW      100770b8     coredll:COREDLL.dll
 0003:000000bc       __imp_SetLastError         100770bc     coredll:COREDLL.dll
 0003:000000c0       __imp_GetUserDefaultUILanguage 100770c0     coredll:COREDLL.dll
 0003:000000c4       __imp_GetLocalTime         100770c4     coredll:COREDLL.dll
 0003:000000c8       __imp_GetLocaleInfoW       100770c8     coredll:COREDLL.dll
 0003:000000cc       __imp_LocalReAlloc         100770cc     coredll:COREDLL.dll
 0003:000000d0       __imp_StringCchCatW        100770d0     coredll:COREDLL.dll
 0003:000000d4       __imp_GetTimeFormatW       100770d4     coredll:COREDLL.dll
 0003:000000d8       __imp_GetDateFormatW       100770d8     coredll:COREDLL.dll
 0003:000000dc       __imp_InterlockedCompareExchange 100770dc     coredll:COREDLL.dll
 0003:000000e0       __imp_GetVersionExW        100770e0     coredll:COREDLL.dll
 0003:000000e4       __imp_EventModify          100770e4     coredll:COREDLL.dll
 0003:000000e8       __imp_CreateMutexW         100770e8     coredll:COREDLL.dll
 0003:000000ec       __imp_ReleaseMutex         100770ec     coredll:COREDLL.dll
 0003:000000f0       __imp_WaitForSingleObject  100770f0     coredll:COREDLL.dll
 0003:000000f4       __imp_CreateEventW         100770f4     coredll:COREDLL.dll
 0003:000000f8       __imp_GetSystemTime        100770f8     coredll:COREDLL.dll
 0003:000000fc       __imp_PostMessageW         100770fc     coredll:COREDLL.dll
 0003:00000100       __imp_DPA_DeletePtr        10077100     coredll:COREDLL.dll
 0003:00000104       __imp_DPA_Destroy          10077104     coredll:COREDLL.dll
 0003:00000108       __imp_DPA_InsertPtr        10077108     coredll:COREDLL.dll
 0003:0000010c       __imp_DPA_GetPtr           1007710c     coredll:COREDLL.dll
 0003:00000110       __imp_DPA_Create           10077110     coredll:COREDLL.dll
 0003:00000114       __imp_DPA_Sort             10077114     coredll:COREDLL.dll
 0003:00000118       __imp_DPA_DestroyCallback  10077118     coredll:COREDLL.dll
 0003:0000011c       __imp_RegDeleteKeyW        1007711c     coredll:COREDLL.dll
 0003:00000120       __imp_GetLastError         10077120     coredll:COREDLL.dll
 0003:00000124       __imp_LeaveCriticalSection 10077124     coredll:COREDLL.dll
 0003:00000128       __imp_EnterCriticalSection 10077128     coredll:COREDLL.dll
 0003:0000012c       __imp_InterlockedIncrement 1007712c     coredll:COREDLL.dll
 0003:00000130       __imp_InterlockedDecrement 10077130     coredll:COREDLL.dll
 0003:00000134       __imp_DisableThreadLibraryCalls 10077134     coredll:COREDLL.dll
 0003:00000138       __imp_RegQueryValueExW     10077138     coredll:COREDLL.dll
 0003:0000013c       __imp_DeleteCriticalSection 1007713c     coredll:COREDLL.dll
 0003:00000140       __imp_InitializeCriticalSection 10077140     coredll:COREDLL.dll
 0003:00000144       __imp_LocalFileTimeToFileTime 10077144     coredll:COREDLL.dll
 0003:00000148       __imp_RaiseException       10077148     coredll:COREDLL.dll
 0003:0000014c       __imp_CreateThread         1007714c     coredll:COREDLL.dll
 0003:00000150       __imp_WaitForMultipleObjects 10077150     coredll:COREDLL.dll
 0003:00000154       __imp_Sleep                10077154     coredll:COREDLL.dll
 0003:00000158       __imp_SetThreadPriority    10077158     coredll:COREDLL.dll
 0003:0000015c       __imp___GetUserKData       1007715c     coredll:COREDLL.dll
 0003:00000160       __imp_DPA_Search           10077160     coredll:COREDLL.dll
 0003:00000164       __imp_CeGetUserNotification 10077164     coredll:COREDLL.dll
 0003:00000168       __imp_CeSetUserNotification 10077168     coredll:COREDLL.dll
 0003:0000016c       __imp_CeClearUserNotification 1007716c     coredll:COREDLL.dll
 0003:00000170       __imp_FormatMessageW       10077170     coredll:COREDLL.dll
 0003:00000174       __imp_CeRunAppAtTime       10077174     coredll:COREDLL.dll
 0003:00000178       __imp_TerminateProcess     10077178     coredll:COREDLL.dll
 0003:0000017c       __imp_InterlockedExchange  1007717c     coredll:COREDLL.dll
 0003:00000180       __imp__msize               10077180     corelib1:COREDLL.dll
 0003:00000184       __imp_realloc              10077184     corelib1:COREDLL.dll
 0003:00000188       __imp___report_gsfailure   10077188     corelib1:COREDLL.dll
 0003:0000018c       __imp___security_gen_cookie2 1007718c     corelib1:COREDLL.dll
 0003:00000190       __imp__XcptFilter          10077190     corelib1:COREDLL.dll
 0003:00000194       __imp_wcsncmp              10077194     corelib1:COREDLL.dll
 0003:00000198       __imp__wcsrev              10077198     corelib1:COREDLL.dll
 0003:0000019c       __imp_wcstod               1007719c     corelib1:COREDLL.dll
 0003:000001a0       __imp_wcstoul              100771a0     corelib1:COREDLL.dll
 0003:000001a4       __imp__wtoi                100771a4     corelib1:COREDLL.dll
 0003:000001a8       __imp__wcsicmp             100771a8     corelib1:COREDLL.dll
 0003:000001ac       __imp__wcsnicmp            100771ac     corelib1:COREDLL.dll
 0003:000001b0       __imp_??_U@YAPAXI@Z        100771b0     corelib1:COREDLL.dll
 0003:000001b4       __imp_memmove              100771b4     corelib1:COREDLL.dll
 0003:000001b8       __imp_wcscmp               100771b8     corelib1:COREDLL.dll
 0003:000001bc       __imp_memcpy               100771bc     corelib1:COREDLL.dll
 0003:000001c0       __imp_floor                100771c0     corelib1:COREDLL.dll
 0003:000001c4       __imp___rt_udiv            100771c4     corelib1:COREDLL.dll
 0003:000001c8       __imp___rt_sdiv            100771c8     corelib1:COREDLL.dll
 0003:000001cc       __imp_??_V@YAXPAX@Z        100771cc     corelib1:COREDLL.dll
 0003:000001d0       __imp_??2@YAPAXI@Z         100771d0     corelib1:COREDLL.dll
 0003:000001d4       __imp__recalloc            100771d4     corelib1:COREDLL.dll
 0003:000001d8       __imp_wcsncpy_s            100771d8     corelib1:COREDLL.dll
 0003:000001dc       __imp_memcpy_s             100771dc     corelib1:COREDLL.dll
 0003:000001e0       __imp_free                 100771e0     corelib1:COREDLL.dll
 0003:000001e4       __imp_malloc               100771e4     corelib1:COREDLL.dll
 0003:000001e8       __imp_wcslen               100771e8     corelib1:COREDLL.dll
 0003:000001ec       __imp_wcsstr               100771ec     corelib1:COREDLL.dll
 0003:000001f0       __imp_??3@YAXPAX@Z         100771f0     corelib1:COREDLL.dll
 0003:000001f4       __imp___C_specific_handler 100771f4     corelib1:COREDLL.dll
 0003:000001f8       __imp_memset               100771f8     corelib1:COREDLL.dll
 0003:000001fc       __imp_memcmp               100771fc     corelib1:COREDLL.dll
 0003:00000200       __imp_wcschr               10077200     corelib1:COREDLL.dll
 0003:00000204       \177COREDLL_NULL_THUNK_DATA 10077204     coredll:COREDLL.dll
 0003:00000208       __imp_BSTR_UserMarshal     10077208     oleaut32:OLEAUT32.dll
 0003:0000020c       __imp_BSTR_UserUnmarshal   1007720c     oleaut32:OLEAUT32.dll
 0003:00000210       __imp_BSTR_UserFree        10077210     oleaut32:OLEAUT32.dll
 0003:00000214       __imp_VariantInit          10077214     oleaut32:OLEAUT32.dll
 0003:00000218       __imp_VariantClear         10077218     oleaut32:OLEAUT32.dll
 0003:0000021c       __imp_SetErrorInfo         1007721c     oleaut32:OLEAUT32.dll
 0003:00000220       __imp_SysStringByteLen     10077220     oleaut32:OLEAUT32.dll
 0003:00000224       __imp_SysAllocStringByteLen 10077224     oleaut32:OLEAUT32.dll
 0003:00000228       __imp_SysAllocStringLen    10077228     oleaut32:OLEAUT32.dll
 0003:0000022c       __imp_SystemTimeToVariantTime 1007722c     oleaut32:OLEAUT32.dll
 0003:00000230       __imp_VariantTimeToSystemTime 10077230     oleaut32:OLEAUT32.dll
 0003:00000234       __imp_SysAllocString       10077234     oleaut32:OLEAUT32.dll
 0003:00000238       __imp_LoadTypeLib          10077238     oleaut32:OLEAUT32.dll
 0003:0000023c       __imp_LoadRegTypeLib       1007723c     oleaut32:OLEAUT32.dll
 0003:00000240       __imp_SysStringLen         10077240     oleaut32:OLEAUT32.dll
 0003:00000244       __imp_SysFreeString        10077244     oleaut32:OLEAUT32.dll
 0003:00000248       __imp_VarUI4FromStr        10077248     oleaut32:OLEAUT32.dll
 0003:0000024c       __imp_BSTR_UserSize        1007724c     oleaut32:OLEAUT32.dll
 0003:00000250       \177OLEAUT32_NULL_THUNK_DATA 10077250     oleaut32:OLEAUT32.dll
 0003:00000254       __imp_?GetDefaultUSStore@@YAJPAUIUSStoreManager@@PAPAUIUSStore@@@Z 10077254     pimutil:PIMUTIL.dll
 0003:00000258       __imp_SetYomiSurname       10077258     pimutil:PIMUTIL.dll
 0003:0000025c       __imp_SetYomiGiven         1007725c     pimutil:PIMUTIL.dll
 0003:00000260       __imp_SetSuffix            10077260     pimutil:PIMUTIL.dll
 0003:00000264       __imp_SetSurname           10077264     pimutil:PIMUTIL.dll
 0003:00000268       __imp_SetMiddle            10077268     pimutil:PIMUTIL.dll
 0003:0000026c       __imp_SetNickname          1007726c     pimutil:PIMUTIL.dll
 0003:00000270       __imp_SetGiven             10077270     pimutil:PIMUTIL.dll
 0003:00000274       __imp_SetTitle             10077274     pimutil:PIMUTIL.dll
 0003:00000278       __imp_SetCountryName       10077278     pimutil:PIMUTIL.dll
 0003:0000027c       __imp_SetPostalCode        1007727c     pimutil:PIMUTIL.dll
 0003:00000280       __imp_?SpbeSafeGetNumber@@YAPAGPAUsimphonebookentryex_tag@@K@Z 10077280     pimutil:PIMUTIL.dll
 0003:00000284       __imp_SetCity              10077284     pimutil:PIMUTIL.dll
 0003:00000288       __imp_SetStreet            10077288     pimutil:PIMUTIL.dll
 0003:0000028c       __imp_GetBlankFileAs       1007728c     pimutil:PIMUTIL.dll
 0003:00000290       __imp_IsCommunicationProperty 10077290     pimutil:PIMUTIL.dll
 0003:00000294       __imp_GetNewAddressParser  10077294     pimutil:PIMUTIL.dll
 0003:00000298       __imp_DestroyAddressParser 10077298     pimutil:PIMUTIL.dll
 0003:0000029c       __imp_RebuildAddress       1007729c     pimutil:PIMUTIL.dll
 0003:000002a0       __imp_GetFullAddress       100772a0     pimutil:PIMUTIL.dll
 0003:000002a4       __imp_UpdateDefCountry     100772a4     pimutil:PIMUTIL.dll
 0003:000002a8       __imp_GetCorrespondingYomiFileAsPermutation 100772a8     pimutil:PIMUTIL.dll
 0003:000002ac       __imp_GetFileAsPermutation 100772ac     pimutil:PIMUTIL.dll
 0003:000002b0       __imp_SetupFAPStrings      100772b0     pimutil:PIMUTIL.dll
 0003:000002b4       __imp_GetHashEmailString   100772b4     pimutil:PIMUTIL.dll
 0003:000002b8       __imp_BuildYomiDisplayName 100772b8     pimutil:PIMUTIL.dll
 0003:000002bc       __imp_GetYomiDisplayName   100772bc     pimutil:PIMUTIL.dll
 0003:000002c0       __imp_GetNewNameParser     100772c0     pimutil:PIMUTIL.dll
 0003:000002c4       __imp_DestroyNameParser    100772c4     pimutil:PIMUTIL.dll
 0003:000002c8       __imp_BuildDisplayName     100772c8     pimutil:PIMUTIL.dll
 0003:000002cc       __imp_GetFullName          100772cc     pimutil:PIMUTIL.dll
 0003:000002d0       __imp_SubStringMatch       100772d0     pimutil:PIMUTIL.dll
 0003:000002d4       __imp_?LegacyPimOidToOLITEMID@@YAJKPAUOLITEMID@@@Z 100772d4     pimutil:PIMUTIL.dll
 0003:000002d8       __imp_?OlDefaultFoldersToUS_ITEMTYPE@@YAJW4OlDefaultFolders@@PAW4US_ITEMTYPE@@@Z 100772d8     pimutil:PIMUTIL.dll
 0003:000002dc       __imp_?LegacyPimOidToUSOID@@YAJKPAUUSOID@@@Z 100772dc     pimutil:PIMUTIL.dll
 0003:000002e0       __imp_?TextToTag@@YAKPAUIPOutlookApp3@@PBGK@Z 100772e0     pimutil:PIMUTIL.dll
 0003:000002e4       __imp_ValidateName         100772e4     pimutil:PIMUTIL.dll
 0003:000002e8       __imp_?IsObjectInFolder@@YAJPBUUSOID@@PAUIUSFolder@@HPAH@Z 100772e8     pimutil:PIMUTIL.dll
 0003:000002ec       __imp_?OlItemTypeToOlDefaultFolders@@YAJW4OlItemType@@PAW4OlDefaultFolders@@@Z 100772ec     pimutil:PIMUTIL.dll
 0003:000002f0       __imp_?CreateCategoryDBManager@@YAJPAUIUSStoreManager@@PAPAUICategoryDBManager@@@Z 100772f0     pimutil:PIMUTIL.dll
 0003:000002f4       __imp_GetDefaultStoreId    100772f4     pimutil:PIMUTIL.dll
 0003:000002f8       __imp_?POutlookAppManager_CreateInstance@@YAJPAPAUIPOutlookAppManager@@@Z 100772f8     pimutil:PIMUTIL.dll
 0003:000002fc       __imp_PimStringToBinaryBody 100772fc     pimutil:PIMUTIL.dll
 0003:00000300       __imp_?OlDefaultFoldersToOlItemType@@YAJW4OlDefaultFolders@@PAW4OlItemType@@@Z 10077300     pimutil:PIMUTIL.dll
 0003:00000304       __imp_?GetInitialFolderProperties@@YAJW4US_FOLDERTYPE@@PAPBU_USPROPVAL@@PAI@Z 10077304     pimutil:PIMUTIL.dll
 0003:00000308       __imp_?GetIPMRootFromStore@@YAJPAUIUSStore@@PAPAUIUSFolder@@@Z 10077308     pimutil:PIMUTIL.dll
 0003:0000030c       __imp_?US_ITEMTYPEToOlDefaultFolders@@YAJW4US_ITEMTYPE@@PAW4OlDefaultFolders@@@Z 1007730c     pimutil:PIMUTIL.dll
 0003:00000310       __imp_DowFromDate          10077310     pimutil:PIMUTIL.dll
 0003:00000314       __imp_GetReminderDefaults  10077314     pimutil:PIMUTIL.dll
 0003:00000318       __imp_PimDuplicateString   10077318     pimutil:PIMUTIL.dll
 0003:0000031c       __imp_AreRecurrencesEqual  1007731c     pimutil:PIMUTIL.dll
 0003:00000320       __imp_FreeAppointmentData  10077320     pimutil:PIMUTIL.dll
 0003:00000324       __imp_PimCreateGlobalObjId 10077324     pimutil:PIMUTIL.dll
 0003:00000328       __imp_SetNewString         10077328     pimutil:PIMUTIL.dll
 0003:0000032c       __imp_ConvertTimeZone      1007732c     pimutil:PIMUTIL.dll
 0003:00000330       __imp_?GetDefaultFolderFromStore@@YAJPAUIUSStore@@W4US_ITEMTYPE@@PAPAUIUSFolder@@@Z 10077330     pimutil:PIMUTIL.dll
 0003:00000334       __imp_MinutesBetweenST     10077334     pimutil:PIMUTIL.dll
 0003:00000338       __imp_TaskReminderToSystemTime 10077338     pimutil:PIMUTIL.dll
 0003:0000033c       __imp_FreeTaskStrings      1007733c     pimutil:PIMUTIL.dll
 0003:00000340       __imp_AreTasksEqual        10077340     pimutil:PIMUTIL.dll
 0003:00000344       __imp_SystemTimeToTaskReminder 10077344     pimutil:PIMUTIL.dll
 0003:00000348       __imp_CmpDateST            10077348     pimutil:PIMUTIL.dll
 0003:0000034c       __imp_?AddCategoryEx@@YAJPBGPAPAG@Z 1007734c     pimutil:PIMUTIL.dll
 0003:00000350       __imp_?RemoveCategoryEx@@YAJPBGPAPAG@Z 10077350     pimutil:PIMUTIL.dll
 0003:00000354       __imp_?GetNextCategory@@YAPBGPAPBGPAK@Z 10077354     pimutil:PIMUTIL.dll
 0003:00000358       __imp_?AddCategoryToCategoryString@@YAJPAGPAKPBGK@Z 10077358     pimutil:PIMUTIL.dll
 0003:0000035c       __imp_PimLoadStringEx      1007735c     pimutil:PIMUTIL.dll
 0003:00000360       __imp_?OlItemTypeToUS_ITEMMASK@@YAJW4OlItemType@@PAW4US_ITEMMASK@@@Z 10077360     pimutil:PIMUTIL.dll
 0003:00000364       __imp_?US_OBJECTTYPEToOlObjectType@@YAJW4US_OBJECTTYPE@@PAW4OlObjectType@@@Z 10077364     pimutil:PIMUTIL.dll
 0003:00000368       __imp_?OlObjectTypeToUS_OBJECTTYPE@@YAJW4OlObjectType@@PAW4US_OBJECTTYPE@@@Z 10077368     pimutil:PIMUTIL.dll
 0003:0000036c       __imp_OidDBFromOidPIM      1007736c     pimutil:PIMUTIL.dll
 0003:00000370       __imp_CmpYMD               10077370     pimutil:PIMUTIL.dll
 0003:00000374       __imp_GetDaysForMonth      10077374     pimutil:PIMUTIL.dll
 0003:00000378       __imp_?OlItemTypeToTagMask@@YAJW4OlItemType@@PAK@Z 10077378     pimutil:PIMUTIL.dll
 0003:0000037c       __imp_?OlItemTypeToPIMPRType@@YAJW4OlItemType@@PAK@Z 1007737c     pimutil:PIMUTIL.dll
 0003:00000380       __imp_FindSenderEmailAlias 10077380     pimutil:PIMUTIL.dll
 0003:00000384       __imp_?OlItemTypeToUS_ITEMTYPE@@YAJW4OlItemType@@PAW4US_ITEMTYPE@@@Z 10077384     pimutil:PIMUTIL.dll
 0003:00000388       __imp_SetState             10077388     pimutil:PIMUTIL.dll
 0003:0000038c       __imp_EnsureMemAvailable   1007738c     pimutil:PIMUTIL.dll
 0003:00000390       __imp_PimGetDateFormat     10077390     pimutil:PIMUTIL.dll
 0003:00000394       __imp_IsOverlapConflict    10077394     pimutil:PIMUTIL.dll
 0003:00000398       __imp_IsAdjacentConflict   10077398     pimutil:PIMUTIL.dll
 0003:0000039c       __imp_GetStartEndTime      1007739c     pimutil:PIMUTIL.dll
 0003:000003a0       __imp_PimDisplayRecurringMessage 100773a0     pimutil:PIMUTIL.dll
 0003:000003a4       __imp_GetApptAlarmString   100773a4     pimutil:PIMUTIL.dll
 0003:000003a8       __imp_PimLoadNonLocalString 100773a8     pimutil:PIMUTIL.dll
 0003:000003ac       __imp_PimReadKey           100773ac     pimutil:PIMUTIL.dll
 0003:000003b0       __imp_ConvertRenTzToSchedPlus 100773b0     pimutil:PIMUTIL.dll
 0003:000003b4       __imp_StdTimeZoneInfoFromRen 100773b4     pimutil:PIMUTIL.dll
 0003:000003b8       __imp_?GetTaskChildFolders@@YAJPAUIUSFolder@@PAPAUIUSObjectCollection@@@Z 100773b8     pimutil:PIMUTIL.dll
 0003:000003bc       __imp_?GetCalendarChildFolders@@YAJPAUIUSFolder@@PAPAUIUSObjectCollection@@@Z 100773bc     pimutil:PIMUTIL.dll
 0003:000003c0       __imp_DaysBetweenDates     100773c0     pimutil:PIMUTIL.dll
 0003:000003c4       __imp_AdjustForBias        100773c4     pimutil:PIMUTIL.dll
 0003:000003c8       __imp_CmpST                100773c8     pimutil:PIMUTIL.dll
 0003:000003cc       __imp_?BuildAppointmentRestriction@@YAJPAH0PAU_FILETIME@@PAU_USRestriction@@@Z 100773cc     pimutil:PIMUTIL.dll
 0003:000003d0       __imp_?FreeAppointmentRestriction@@YAJU_USRestriction@@@Z 100773d0     pimutil:PIMUTIL.dll
 0003:000003d4       __imp_PimBinaryBodyToString 100773d4     pimutil:PIMUTIL.dll
 0003:000003d8       __imp_RealLocalFree        100773d8     pimutil:PIMUTIL.dll
 0003:000003dc       __imp_?SpbeIsPropertySupported@@YAHK@Z 100773dc     pimutil:PIMUTIL.dll
 0003:000003e0       __imp_PimMapString         100773e0     pimutil:PIMUTIL.dll
 0003:000003e4       __imp_ParseDateAsDouble    100773e4     pimutil:PIMUTIL.dll
 0003:000003e8       __imp_?GetSimRecordIndex@@YAJPAUIPOutlookApp2@@PAUIItem@@PAK@Z 100773e8     pimutil:PIMUTIL.dll
 0003:000003ec       __imp_?OlDefaultFoldersToTagMask@@YAJW4OlDefaultFolders@@PAK@Z 100773ec     pimutil:PIMUTIL.dll
 0003:000003f0       __imp_UnEscapePoomRestrictionValues 100773f0     pimutil:PIMUTIL.dll
 0003:000003f4       __imp_IncrSystemTime       100773f4     pimutil:PIMUTIL.dll
 0003:000003f8       __imp_StdPropToText        100773f8     pimutil:PIMUTIL.dll
 0003:000003fc       __imp_RenLocalReAlloc      100773fc     pimutil:PIMUTIL.dll
 0003:00000400       __imp_CreateAttendeeList   10077400     pimutil:PIMUTIL.dll
 0003:00000404       __imp_?ConvertTzToTz@RTime@@QAA?AV1@PAUtagTZREG@@0@Z 10077404     pimutil:PIMUTIL.dll
 0003:00000408       __imp_RenLocalAlloc        10077408     pimutil:PIMUTIL.dll
 0003:0000040c       __imp_RenFromStdTimeZoneInfo 1007740c     pimutil:PIMUTIL.dll
 0003:00000410       __imp_?FValid@ATime@@QBAHXZ 10077410     pimutil:PIMUTIL.dll
 0003:00000414       __imp_??0ATime@@QAA@XZ     10077414     pimutil:PIMUTIL.dll
 0003:00000418       __imp_?SetDay@ATime@@QAAXH@Z 10077418     pimutil:PIMUTIL.dll
 0003:0000041c       __imp_?AdjustMonth@ATime@@QAAXJ@Z 1007741c     pimutil:PIMUTIL.dll
 0003:00000420       __imp_?Decode@ATime@@IAAXJ@Z 10077420     pimutil:PIMUTIL.dll
 0003:00000424       __imp_?Encode@ATime@@IBAJXZ 10077424     pimutil:PIMUTIL.dll
 0003:00000428       __imp_PimMakeNumericRestriction 10077428     pimutil:PIMUTIL.dll
 0003:0000042c       __imp_?SpbeGetAllowedPOOMProperties@@YAJPAK0@Z 1007742c     pimutil:PIMUTIL.dll
 0003:00000430       __imp_?SpbeGetAllowedPOOMPhoneProperties@@YAJPAK0@Z 10077430     pimutil:PIMUTIL.dll
 0003:00000434       __imp_?SpbeGetTagIdsFromPropIds@@YAJPAXPAU_CEPROPVAL@@PAKK@Z 10077434     pimutil:PIMUTIL.dll
 0003:00000438       __imp_?SpbeSafeGetNumberCount@@YAKPAUsimphonebookentryex_tag@@K@Z 10077438     pimutil:PIMUTIL.dll
 0003:0000043c       __imp_?SpbeGetPropIdsForPhoneNumbers@@YAJPAXPAUsimphonebookentryex_tag@@QAKPAK@Z 1007743c     pimutil:PIMUTIL.dll
 0003:00000440       __imp_?GetSimNumberPosNamedPropIdFromPoomId@@YAKPAUIPOutlookApp2@@K@Z 10077440     pimutil:PIMUTIL.dll
 0003:00000444       __imp_?SpbeSafeGetEmailCount@@YAKPAUsimphonebookentryex_tag@@K@Z 10077444     pimutil:PIMUTIL.dll
 0003:00000448       __imp_?SpbeSafeGetEmail@@YAPAGPAUsimphonebookentryex_tag@@K@Z 10077448     pimutil:PIMUTIL.dll
 0003:0000044c       __imp_AreAppointmentsEqual 1007744c     pimutil:PIMUTIL.dll
 0003:00000450       __imp_?GetSimPosForPoomPhoneNumber@@YAJPAUIPOutlookApp2@@KPAUIItem@@PAK@Z 10077450     pimutil:PIMUTIL.dll
 0003:00000454       \177PIMUTIL_NULL_THUNK_DATA 10077454     pimutil:PIMUTIL.dll
 0003:00000458       __imp_IUnknown_AddRef_Proxy 10077458     rpcrt4legacy:RPCRT4LEGACY.dll
 0003:0000045c       __imp_NdrDllGetClassObject 1007745c     rpcrt4legacy:RPCRT4LEGACY.dll
 0003:00000460       __imp_NdrCStdStubBuffer_Release 10077460     rpcrt4legacy:RPCRT4LEGACY.dll
 0003:00000464       __imp_NdrCStdStubBuffer2_Release 10077464     rpcrt4legacy:RPCRT4LEGACY.dll
 0003:00000468       __imp_NdrOleFree           10077468     rpcrt4legacy:RPCRT4LEGACY.dll
 0003:0000046c       __imp_NdrOleAllocate       1007746c     rpcrt4legacy:RPCRT4LEGACY.dll
 0003:00000470       __imp_CStdStubBuffer_DebugServerRelease 10077470     rpcrt4legacy:RPCRT4LEGACY.dll
 0003:00000474       __imp_CStdStubBuffer_DebugServerQueryInterface 10077474     rpcrt4legacy:RPCRT4LEGACY.dll
 0003:00000478       __imp_CStdStubBuffer_CountRefs 10077478     rpcrt4legacy:RPCRT4LEGACY.dll
 0003:0000047c       __imp_CStdStubBuffer_IsIIDSupported 1007747c     rpcrt4legacy:RPCRT4LEGACY.dll
 0003:00000480       __imp_CStdStubBuffer_Invoke 10077480     rpcrt4legacy:RPCRT4LEGACY.dll
 0003:00000484       __imp_CStdStubBuffer_Disconnect 10077484     rpcrt4legacy:RPCRT4LEGACY.dll
 0003:00000488       __imp_CStdStubBuffer_Connect 10077488     rpcrt4legacy:RPCRT4LEGACY.dll
 0003:0000048c       __imp_CStdStubBuffer_AddRef 1007748c     rpcrt4legacy:RPCRT4LEGACY.dll
 0003:00000490       __imp_CStdStubBuffer_QueryInterface 10077490     rpcrt4legacy:RPCRT4LEGACY.dll
 0003:00000494       __imp_NdrStubForwardingFunction 10077494     rpcrt4legacy:RPCRT4LEGACY.dll
 0003:00000498       __imp_NdrStubCall2         10077498     rpcrt4legacy:RPCRT4LEGACY.dll
 0003:0000049c       __imp_IUnknown_Release_Proxy 1007749c     rpcrt4legacy:RPCRT4LEGACY.dll
 0003:000004a0       __imp_NdrDllCanUnloadNow   100774a0     rpcrt4legacy:RPCRT4LEGACY.dll
 0003:000004a4       __imp_IUnknown_QueryInterface_Proxy 100774a4     rpcrt4legacy:RPCRT4LEGACY.dll
 0003:000004a8       \177RPCRT4LEGACY_NULL_THUNK_DATA 100774a8     rpcrt4legacy:RPCRT4LEGACY.dll
 0003:000004ac       __imp_CoTaskMemFree        100774ac     ole32:ole32.dll
 0003:000004b0       __imp_CoTaskMemAlloc       100774b0     ole32:ole32.dll
 0003:000004b4       __imp_CoTaskMemRealloc     100774b4     ole32:ole32.dll
 0003:000004b8       __imp_CoCreateInstance     100774b8     ole32:ole32.dll
 0003:000004bc       \177ole32_NULL_THUNK_DATA  100774bc     ole32:ole32.dll
 0003:000004c0       __imp_GetCchTailMin        100774c0     ossvcs:ossvcs.dll
 0003:000004c4       __imp_?CopyPropValue@@YAJPBU_CEPROPVAL@@PAU1@KPAPAX@Z 100774c4     ossvcs:ossvcs.dll
 0003:000004c8       __imp_?ComparePropVals@@YAHKPBU_CEPROPVAL@@0@Z 100774c8     ossvcs:ossvcs.dll
 0003:000004cc       __imp_BinaryToHexString    100774cc     ossvcs:ossvcs.dll
 0003:000004d0       __imp_HexStringToBinary    100774d0     ossvcs:ossvcs.dll
 0003:000004d4       __imp_?GetPropMemSize@@YAIPBU_CEPROPVAL@@@Z 100774d4     ossvcs:ossvcs.dll
 0003:000004d8       __imp_UMul                 100774d8     ossvcs:ossvcs.dll
 0003:000004dc       __imp_GetValidSimPhoneNumberAndAddressType 100774dc     ossvcs:ossvcs.dll
 0003:000004e0       __imp_SAdd                 100774e0     ossvcs:ossvcs.dll
 0003:000004e4       __imp_?SafeLPWSTR@@YAPBGPBU_CEPROPVAL@@@Z 100774e4     ossvcs:ossvcs.dll
 0003:000004e8       __imp_?DuplicateCEPROPVALArray@@YAJPBU_CEPROPVAL@@IIPAPAU1@@Z 100774e8     ossvcs:ossvcs.dll
 0003:000004ec       __imp_AddPlusToIntlEntries 100774ec     ossvcs:ossvcs.dll
 0003:000004f0       \177ossvcs_NULL_THUNK_DATA 100774f0     ossvcs:ossvcs.dll
 0003:000004f4       __imp_SimDeinitialize      100774f4     SIM:sim.dll
 0003:000004f8       __imp_SimInitialize        100774f8     SIM:sim.dll
 0003:000004fc       \177sim_NULL_THUNK_DATA    100774fc     SIM:sim.dll
 0003:00000500       ?g_rgCalstorePerfMarkers@@3PAU_CEPERF_BASIC_ITEM_DESCRIPTOR@@A 10077500     calstorelib:csperf.obj
 0003:00000cb0       ?g_poom_cleanup@@3VGlobalCleanup@@A 10077cb0     pimstorelib:PoomGlobals.obj
 0003:00000cd4       ?_tih@?$IDispatchImpl@VIPimConfigurationManager_Priv@@$1?IID_IPimConfigurationManager@@3U_GUID@@B$1?m_libid@CAtlModule@ATL@@2U_GUID@@A$00$0A@VCComTypeInfoHolder@ATL@@@ATL@@1VCComTypeInfoHolder@2@A 10077cd4     pimstorelib:factory.obj
 0003:00000cf0       ?s_dwSimContactCaps@PhonebookAssimilator@@0KA 10077cf0     pimstorelib:PhBookAssimilator.obj
 0003:00000cf4       ?s_cMaxAddressArraySize@PhonebookAssimilator@@0KA 10077cf4     pimstorelib:PhBookAssimilator.obj
 0003:00000cf8       ?s_SimPhonebookCaps@PhonebookAssimilator@@0Usimphonebookcaps_tag@@A 10077cf8     pimstorelib:PhBookAssimilator.obj
 0003:00000d44       ?s_cMaxTextArraySize@PhonebookAssimilator@@0KA 10077d44     pimstorelib:PhBookAssimilator.obj
 0003:00000d48       ?s_cMaxEmailAddressArraySize@PhonebookAssimilator@@0KA 10077d48     pimstorelib:PhBookAssimilator.obj
 0003:00000d4c       ?s_cMaxSecondNameArraySize@PhonebookAssimilator@@0KA 10077d4c     pimstorelib:PhBookAssimilator.obj
 0003:00000d50       ?g_rgPoomPerfItems@@3PAU_CEPERF_BASIC_ITEM_DESCRIPTOR@@A 10077d50     pimstorelib:poomperf.obj
 0003:00001980       ?c_rgszDB@@3PAPBGA         10078980     pimstorelib:polapp.obj
 0003:00001994       ?c_rgMailStreamPropId@@3PAKA 10078994     pimstorelib:Mail.obj
 0003:000019a4       ?c_rgStreamPropId@@3PAKA   100789a4     pimstorelib:item.obj
 0003:000019b0       ?g_rgContactsPerfMarkers@@3PAU_CEPERF_BASIC_ITEM_DESCRIPTOR@@A 100789b0     pimstorelib:ContactsPerf.obj
 0003:000019c0       ?g_hContactsPerfSession@@3PAXA 100789c0     pimstorelib:ContactsPerf.obj
 0003:000019c4       ?g_rgnStringIDs@@3PAIA     100789c4     pimstorelib:poomplug.obj
 0003:000019c8       ?s_ItemMask@?1??GetItemTypeMask@@YAKW4US_ITEMTYPE@@@Z@4PAW4US_ITEMMASK@@A 100789c8     pimstorelib:StorePoom.obj
 0003:000019e0       ?s_rgdwTasksSortPropID@?1??GetDefaultSortOrder@?$CUSOIDList@VSortedArrayItem@@UArrayItemData@@@@KAJW4OlItemType@@PAKPAPAKPAPAF@Z@4PAKA 100789e0     pimstorelib:OidCollection.obj
 0003:000019ec       ?s_rgfTasksSortDescending@?1??GetDefaultSortOrder@?$CUSOIDList@VSortedArrayItem@@UArrayItemData@@@@KAJW4OlItemType@@PAKPAPAKPAPAF@Z@4PAFA 100789ec     pimstorelib:OidCollection.obj
 0003:000019f4       aProxyFileList             100789f4     pimstoreuuid:pimproxy.obj
 0003:00001a2c       _IItemIteratorProxyVtbl    10078a2c     pimstoreuuid:pimstore_priv_p.obj
 0003:00001a58       _IRestrictionProxyVtbl     10078a58     pimstoreuuid:pimstore_priv_p.obj
 0003:00001a9c       _ICollectionProxyVtbl      10078a9c     pimstoreuuid:pimstore_priv_p.obj
 0003:00001acc       _IStoreIteratorProxyVtbl   10078acc     pimstoreuuid:pimstore_priv_p.obj
 0003:00001af0       _IRecipientIteratorProxyVtbl 10078af0     pimstoreuuid:pimstore_priv_p.obj
 0003:00001b14       _IPOutlookAppPrivProxyVtbl 10078b14     pimstoreuuid:pimstore_priv_p.obj
 0003:00001b30       _IContactPrivateProxyVtbl  10078b30     pimstoreuuid:pimstore_priv_p.obj
 0003:00001b5c       _IChangeEventSinkProxyVtbl 10078b5c     pimstoreuuid:pimstore_p.obj
 0003:00001b74       _ICustomEventSinkProxyVtbl 10078b74     pimstoreuuid:pimstore_p.obj
 0003:00001b8c       _IExceptionProxyVtbl       10078b8c     pimstoreuuid:pimstore_p.obj
 0003:00001bc0       _IExceptionStubVtbl        10078bc0     pimstoreuuid:pimstore_p.obj
 0003:00001bf8       _IExceptionsProxyVtbl      10078bf8     pimstoreuuid:pimstore_p.obj
 0003:00001c2c       _IExceptionsStubVtbl       10078c2c     pimstoreuuid:pimstore_p.obj
 0003:00001c64       _IRecipientProxyVtbl       10078c64     pimstoreuuid:pimstore_p.obj
 0003:00001c98       _ITimeZoneProxyVtbl        10078c98     pimstoreuuid:pimstore_p.obj
 0003:00001d00       _ITimeZoneStubVtbl         10078d00     pimstoreuuid:pimstore_p.obj
 0003:00001d38       _IRecurrencePatternProxyVtbl 10078d38     pimstoreuuid:pimstore_p.obj
 0003:00001dd0       _IRecurrencePatternStubVtbl 10078dd0     pimstoreuuid:pimstore_p.obj
 0003:00001e08       _IRecurrencePattern2ProxyVtbl 10078e08     pimstoreuuid:pimstore_p.obj
 0003:00001ea4       _IRecurrencePattern2StubVtbl 10078ea4     pimstoreuuid:pimstore_p.obj
 0003:00001edc       _IRecipientStubVtbl        10078edc     pimstoreuuid:pimstore_p.obj
 0003:00001f14       _IPOlRecipientProxyVtbl    10078f14     pimstoreuuid:pimstore_p.obj
 0003:00001f4c       _IPOlRecipientStubVtbl     10078f4c     pimstoreuuid:pimstore_p.obj
 0003:00001f84       _IRecipientsProxyVtbl      10078f84     pimstoreuuid:pimstore_p.obj
 0003:00001fc0       _IRecipient2ProxyVtbl      10078fc0     pimstoreuuid:pimstore_p.obj
 0003:00002008       _IRecipient2StubVtbl       10079008     pimstoreuuid:pimstore_p.obj
 0003:00002040       _IRecipientsStubVtbl       10079040     pimstoreuuid:pimstore_p.obj
 0003:00002078       _IRecipients2ProxyVtbl     10079078     pimstoreuuid:pimstore_p.obj
 0003:000020a4       _IFolderProxyVtbl          100790a4     pimstoreuuid:pimstore_p.obj
 0003:000020e0       _IPOutlookItemCollectionProxyVtbl 100790e0     pimstoreuuid:pimstore_p.obj
 0003:00002134       _IPOutlookItemCollectionStubVtbl 10079134     pimstoreuuid:pimstore_p.obj
 0003:0000216c       _IPOutlookRecipientCollectionProxyVtbl 1007916c     pimstoreuuid:pimstore_p.obj
 0003:00002190       _IPOutlookItemCollection2ProxyVtbl 10079190     pimstoreuuid:pimstore_p.obj
 0003:000021e4       _IPOutlookItemCollection2StubVtbl 100791e4     pimstoreuuid:pimstore_p.obj
 0003:00002220       _IPOutlookFolderCollectionProxyVtbl 10079220     pimstoreuuid:pimstore_p.obj
 0003:00002264       _IPOutlookFolderCollectionStubVtbl 10079264     pimstoreuuid:pimstore_p.obj
 0003:000022a0       _IPOutlookStoreCollectionProxyVtbl 100792a0     pimstoreuuid:pimstore_p.obj
 0003:000022e4       _IPOutlookStoreCollectionStubVtbl 100792e4     pimstoreuuid:pimstore_p.obj
 0003:00002320       _IPOlItemsProxyVtbl        10079320     pimstoreuuid:pimstore_p.obj
 0003:00002378       _IPOlItemsStubVtbl         10079378     pimstoreuuid:pimstore_p.obj
 0003:000023b0       _IContactProxyVtbl         100793b0     pimstoreuuid:pimstore_p.obj
 0003:00002584       _IContactStubVtbl          10079584     pimstoreuuid:pimstore_p.obj
 0003:000025c0       _IContact2ProxyVtbl        100795c0     pimstoreuuid:pimstore_p.obj
 0003:0000279c       _IContact2StubVtbl         1007979c     pimstoreuuid:pimstore_p.obj
 0003:000027d8       _ITaskProxyVtbl            100797d8     pimstoreuuid:pimstore_p.obj
 0003:00002898       _ITaskStubVtbl             10079898     pimstoreuuid:pimstore_p.obj
 0003:000028d0       _ITask2ProxyVtbl           100798d0     pimstoreuuid:pimstore_p.obj
 0003:00002998       _ITask2StubVtbl            10079998     pimstoreuuid:pimstore_p.obj
 0003:000029d0       _IAppointmentProxyVtbl     100799d0     pimstoreuuid:pimstore_p.obj
 0003:00002aa0       _IAppointmentStubVtbl      10079aa0     pimstoreuuid:pimstore_p.obj
 0003:00002ad8       _IAppointment2ProxyVtbl    10079ad8     pimstoreuuid:pimstore_p.obj
 0003:00002bf0       _IAppointment2StubVtbl     10079bf0     pimstoreuuid:pimstore_p.obj
 0003:00002c28       _ICityProxyVtbl            10079c28     pimstoreuuid:pimstore_p.obj
 0003:00002ca0       _ICityStubVtbl             10079ca0     pimstoreuuid:pimstore_p.obj
 0003:00002cd8       _IFolderStubVtbl           10079cd8     pimstoreuuid:pimstore_p.obj
 0003:00002d10       _IFolder2ProxyVtbl         10079d10     pimstoreuuid:pimstore_p.obj
 0003:00002d78       _IFolder2StubVtbl          10079d78     pimstoreuuid:pimstore_p.obj
 0003:00002db0       _IPOutlookAppProxyVtbl     10079db0     pimstoreuuid:pimstore_p.obj
 0003:00002e24       _IPOutlookAppStubVtbl      10079e24     pimstoreuuid:pimstore_p.obj
 0003:00002e60       _IPOutlookApp2ProxyVtbl    10079e60     pimstoreuuid:pimstore_p.obj
 0003:00002edc       _IPOutlookApp2StubVtbl     10079edc     pimstoreuuid:pimstore_p.obj
 0003:00002f18       _IPOutlookApp3ProxyVtbl    10079f18     pimstoreuuid:pimstore_p.obj
 0003:00002f74       _IPOutlookApp3StubVtbl     10079f74     pimstoreuuid:pimstore_p.obj
 0003:00002fb0       _IStoreProxyVtbl           10079fb0     pimstoreuuid:pimstore_p.obj
 0003:00003018       _IStoreStubVtbl            1007a018     pimstoreuuid:pimstore_p.obj
 0003:00003050       _IItemProxyVtbl            1007a050     pimstoreuuid:pimstore_p.obj
 0003:000030a0       _IItem2ProxyVtbl           1007a0a0     pimstoreuuid:pimstore_p.obj
 0003:000030f8       _IRecipient3ProxyVtbl      1007a0f8     pimstoreuuid:pimstore_p.obj
 0003:00003130       _IPOlItems2ProxyVtbl       1007a130     pimstoreuuid:pimstore_p.obj
 0003:0000318c       _IPOlItems2StubVtbl        1007a18c     pimstoreuuid:pimstore_p.obj
 0003:000031c4       ?g_rgTpcutilPerfItems@@3PAU_CEPERF_BASIC_ITEM_DESCRIPTOR@@A 1007a1c4     PerfMarker:perfmarker.obj
 0003:000031e4       ?CASSERT@@3HA              1007a1e4     PerfMarker:perfmarker.obj
 0003:000031e8       _pRawDllMain               1007a1e8     atls:atlbase.obj
 0003:000031ec       __security_cookie          1007a1ec     corelib0:seccinit.obj
 0003:000031f0       __security_cookie_complement 1007a1f0     corelib0:seccinit.obj
 0003:00003200       ?g_hInstRes@@3PAUHINSTANCE__@@A 1007a200     dllmain.obj
 0003:00003204       pCePerfInternal            1007a204     dllmain.obj
 0003:00003208       ?g_hInst@@3PAUHINSTANCE__@@A 1007a208     dllmain.obj
 0003:0000320c       g_HIDPI_LogPixelsY         1007a20c     dllmain.obj
 0003:00003210       g_HIDPI_LogPixelsX         1007a210     dllmain.obj
 0003:00003214       ?g_cComponents@@3JA        1007a214     dllmain.obj
 0003:00003218       ?g_cServerLocks@@3JA       1007a218     dllmain.obj
 0003:0000321c       ?_Module@@3VCComModule@ATL@@A 1007a21c     dllmain.obj
 0003:00003248       ?m_bInitFailed@CAtlBaseModule@ATL@@2_NA 1007a248     dllmain.obj
 0003:00003249       ?_AtlRegisterPerUser@ATL@@3_NA 1007a249     dllmain.obj
 0003:0000324c       ?_pAtlModule@ATL@@3PAVCAtlModule@1@A 1007a24c     dllmain.obj
 0003:00003250       ?m_libid@CAtlModule@ATL@@2U_GUID@@A 1007a250     dllmain.obj
 0003:00003260       ?_pModule@ATL@@3PAVCComModule@1@A 1007a260     dllmain.obj
 0003:00003264       ??_B?1??VTFromRegType@CRegParser@ATL@@KAHPBGAAG@Z@51 1007a264     dllmain.obj
 0003:00003268       ?map@?1??VTFromRegType@CRegParser@ATL@@KAHPBGAAG@Z@4QBUtypemap@?1??123@KAH01@Z@B 1007a268     dllmain.obj
 0003:00003288       ?g_hinstTMailUtl@@3PAUHINSTANCE__@@A 1007a288     DllLoadCmn.obj
 0003:0000329c       __@@_PchSym_@00@UygUDBFDUkirezgvUzkkhUlfgollpUhszivwUxzohglivUxnmxlivUlyqUzineHUivgzroUkivxlnkOlyq@calstorelib 1007a29c     calstorelib:precomp.obj
 0003:000032a0       ??_B?1??get_lock@?$singleton@V?$free_list@$0GE@Vallocator@ce@@@ce@@$03V?$static_allocator@V?$free_list@$0GE@Vallocator@ce@@@ce@@$03@2@@ce@@KAAAVcritical_section@2@XZ@51 1007a2a0     calstorelib:precomp.obj
 0003:000032a4       ?cs@?1??get_lock@?$singleton@V?$free_list@$0GE@Vallocator@ce@@@ce@@$03V?$static_allocator@V?$free_list@$0GE@Vallocator@ce@@@ce@@$03@2@@ce@@KAAAVcritical_section@3@XZ@4V43@A 1007a2a4     calstorelib:precomp.obj
 0003:000032b8       ?_factory@?$singleton@V?$free_list@$0GE@Vallocator@ce@@@ce@@$03V?$static_allocator@V?$free_list@$0GE@Vallocator@ce@@@ce@@$03@2@@ce@@1Ulock_factory@12@A 1007a2b8     calstorelib:precomp.obj
 0003:000032ec       ?g_hSqmSessionPIM@@3KA     1007a2ec     pimstorelib:pimstoresqm.obj
 0003:000032f0       ?g_csSqm@?A0xdf4121a8@@3VSaferCriticalSection@@A 1007a2f0     pimstorelib:pimstoresqm.obj
 0003:00003304       ?s_dwNewSimRecordIndex@PhonebookAssimilator@@0KA 1007a304     pimstorelib:PhBookAssimilator.obj
 0003:00003308       ?g_hPerfSession@@3PAXA     1007a308     pimstorelib:poomperf.obj
 0003:0000330c       ?g_dwRefCountPerfSession@@3JA 1007a30c     pimstorelib:poomperf.obj
 0003:00003310       __@@_PchSym_@00@UygUDBFDUkirezgvUzkkhUlfgollpUhszivwUkrnhglivUdkxUxnmxlivUlyqUzineHUivgzroUkivxlnkOlyq@pimstorelib 1007a310     pimstorelib:precomp.obj
 0003:00003314       ?g_pUSStoreManager@@3PAUIUSStoreManager@@A 1007a314     pimstorelib:polapp.obj
 0003:0000332c       ?g_dwNotifFlags@@3KA       1007a32c     pimstorelib:PoomNotifications.obj
 0003:00003330       gPFactory                  1007a330     pimstoreuuid:pimproxy.obj
 0003:00003340       hProxyDll                  1007a340     pimstoreuuid:pimproxy.obj
 0003:00003404       ?g_pcsLock@@3PAUCRITICAL_SECTION@@A 1007a404     sqmproxy:sqmproxy.obj
 0003:00003408       ?ghPerfTpcUtilSession@@3PAXA 1007a408     PerfMarker:perfmarker.obj
 0003:0000340c       __afxForceAtlRawDllMain    1007a40c     atls:atlbase.obj
 0003:00003410       ?_AtlModuleInstance@ATL@@3PAUHINSTANCE__@@A 1007a410     atls:atlbase.obj
 0003:00003414       ?_AtlBaseModule@ATL@@3VCAtlBaseModule@1@A 1007a414     atls:atlbase.obj
 0003:00003448       ?_pAtlRawDllMain@@3P6AHPAXK0@ZA 1007a448     atls:atlbase.obj
 0003:0000344c       __@@_PchSym_@00@UxsvozmCBUlgsvihUzgoJUhixUzgohUlyqUzineHUivgzroUhgwzucOlyq@atls 1007a44c     atls:stdafx.obj
 0003:00003450       _exitflag                  1007a450     corelib0:cexit.obj
 0003:00003454       ?g_pfnRetailLogEnter@@3P6AJKPBD@ZA 1007a454     RetailLogUtils:RetailLogUtils.obj
 0003:00003458       ?g_pfnRetailLogExit@@3P6AJKJ@ZA 1007a458     RetailLogUtils:RetailLogUtils.obj
 0003:0000345c       ?g_pfnRetailLogInit@@3P6AJPBG@ZA 1007a45c     RetailLogUtils:RetailLogUtils.obj
 0003:00003460       ?g_pfnRetailLogDeinit@@3P6AJXZA 1007a460     RetailLogUtils:RetailLogUtils.obj
 0003:00003464       ?g_pfnRetailLogRefresh@@3P6AXXZA 1007a464     RetailLogUtils:RetailLogUtils.obj
 0003:00003468       ?g_pfnRetailLogMessage@@3P6AJKKPBGPAD@ZA 1007a468     RetailLogUtils:RetailLogUtils.obj
 0003:0000346c       ?g_fRetailLogEnabled@@3HA  1007a46c     RetailLogUtils:RetailLogUtils.obj
 0003:00003470       ?g_hinstRetailLog@@3PAUHINSTANCE__@@A 1007a470     RetailLogUtils:RetailLogUtils.obj
 0003:00003474       __onexitend                1007a474     <common>
 0003:00003478       __onexitbegin              1007a478     <common>
 0003:0000347c       g_pcsExit                  1007a47c     <common>

 entry point at        0001:0005de2c

 Static symbols

 0001:0005cbb8       IRestriction_USPROPVALExprEval_0000 1005dbb8 f   pimstoreuuid:pimstore_priv_p.obj
 0001:0005cc10       IRestriction_CEPROPVALExprEval_0001 1005dc10 f   pimstoreuuid:pimstore_priv_p.obj
 0001:0005cc68       IStore_CEPROPVALExprEval_0000 1005dc68 f   pimstoreuuid:pimstore_p.obj
 0001:0005dd3c       _DllMainCRTStartupHelper   1005ed3c f   corelib0:pegdmain.obj
 0001:0005e0f8       doexit                     1005f0f8 f   corelib0:cexit.obj
 0001:00073054       ??__E_Module@@YAXXZ        10074054 f   dllmain.obj
 0001:00073090       ??__E?_factory@?$singleton@V?$free_list@$0GE@Vallocator@ce@@@ce@@$03V?$static_allocator@V?$free_list@$0GE@Vallocator@ce@@@ce@@$03@2@@ce@@1Ulock_factory@12@A@@YAXXZ 10074090 f   calstorelib:precomp.obj
 0001:00073094       ??__Eg_poom_cleanup@@YAXXZ 10074094 f   pimstorelib:PoomGlobals.obj
 0001:000730b4       ??__Eg_csSqm@?A0xdf4121a8@@YAXXZ 100740b4 f   pimstorelib:pimstoresqm.obj
 0001:000730d4       ??__E_AtlBaseModule@ATL@@YAXXZ 100740d4 f   atls:atlbase.obj
 0001:000730f4       ??__F_Module@@YAXXZ        100740f4 f   dllmain.obj
 0001:0007311c       ??__Fg_poom_cleanup@@YAXXZ 1007411c f   pimstorelib:PoomGlobals.obj
 0001:0007315c       ??__Fg_csSqm@?A0xdf4121a8@@YAXXZ 1007415c f   pimstorelib:pimstoresqm.obj
 0001:00073168       ??__F_AtlBaseModule@ATL@@YAXXZ 10074168 f   atls:atlbase.obj
