 pwwiff

 Timestamp is 618b15c8 (Tue Nov 09 17:43:52 2021)

 Preferred load address is 10000000

 Start         Length     Name                   Class
 0001:00000000 00000004H .CRT$XCA                CODE
 0001:00000004 00000004H .CRT$XCU                CODE
 0001:00000008 00000004H .CRT$XCZ                CODE
 0001:0000000c 00000004H .CRT$XIA                CODE
 0001:00000010 00000004H .CRT$XIZ                CODE
 0001:00000014 00000004H .CRT$XPA                CODE
 0001:00000018 00000004H .CRT$XPZ                CODE
 0001:0000001c 00000004H .CRT$XTA                CODE
 0001:00000020 00000004H .CRT$XTZ                CODE
 0001:00000030 000072f8H .rdata                  CODE
 0001:00007328 00000023H .rdata$debug            CODE
 0001:0000734c 0002850cH .text                   CODE
 0001:0002f858 00000024H .text$yc                CODE
 0001:0002f87c 000000d8H .xdata                  CODE
 0001:0002f954 00000028H .idata$2                CODE
 0001:0002f97c 00000014H .idata$3                CODE
 0001:0002f990 000000ccH .idata$4                CODE
 0001:0002fa5c 0000004cH .idata$6                CODE
 0001:0002fab0 000000f3H .edata                  CODE
 0002:00000000 000000ccH .idata$5                DATA
 0002:000000d0 000006dcH .data                   DATA
 0002:000007c0 000073c4H .bss                    DATA
 0003:00000000 00000c00H .pdata                  DATA
 0004:00000000 00000088H .rsrc$01                DATA
 0004:00000090 00000450H .rsrc$02                DATA

  Address         Publics by Value              Rva+Base       Lib:Object

 0000:00000000       ___safe_se_handler_count   00000000     <absolute>
 0000:00000000       ___safe_se_handler_table   00000000     <absolute>
 0001:00000000       __xc_a                     10001000     corelib0:crt0init.obj
 0001:00000008       __xc_z                     10001008     corelib0:crt0init.obj
 0001:0000000c       __xi_a                     1000100c     corelib0:crt0init.obj
 0001:00000010       __xi_z                     10001010     corelib0:crt0init.obj
 0001:00000014       __xp_a                     10001014     corelib0:crt0init.obj
 0001:00000018       __xp_z                     10001018     corelib0:crt0init.obj
 0001:0000001c       __xt_a                     1000101c     corelib0:crt0init.obj
 0001:00000020       __xt_z                     10001020     corelib0:crt0init.obj
 0001:0000004c       ??_C@_1BC@ENICKDH@?$AAC?$AAo?$AAn?$AAt?$AAe?$AAn?$AAt?$AAs?$AA?$AA@ 1000104c     pwwiff:pww_ce.obj
 0001:00000110       ??_C@_1BK@FJLCEJAE@?$AAW?$AAo?$AAr?$AAd?$AAD?$AAo?$AAc?$AAu?$AAm?$AAe?$AAn?$AAt?$AA?$AA@ 10001110     pwwiff:pww_ce.obj
 0001:0000012c       ??_7IWriteConverterExtCnv@@6B@ 1000112c     pwwiff:pww_ce.obj
 0001:00000148       ??_7CPwdCnvWord@@6BIReadConverterExtCnv@@@ 10001148     pwwiff:pww_ce.obj
 0001:00000170       ??_7CPwdCnvWord@@6BIWriteConverterExtCnv@@@ 10001170     pwwiff:pww_ce.obj
 0001:0000018c       ??_7CThisDllClassFactory@@6B@ 1000118c     pwwiff:pww_ce.obj
 0001:000001a0       ??_C@_00CNPNBAHC@?$AA@     100011a0     pwwiff:convmwin.obj
 0001:000001a8       ??_C@_0FB@EBNANOPF@Word?56?40?97?40?5for?5Windows?$ABWord?56?4@ 100011a8     pwwiff:winlib.obj
 0001:000001fc       ??_C@_0BC@PPIDLHLJ@?$FO?4doc?$AB?$FO?4doc?$AB?$FO?4doc?$AA@ 100011fc     pwwiff:winlib.obj
 0001:00000210       ??_C@_0EB@DIHFKLDB@Word?56?40?97?40?5for?5Windows?$CGMacinto@ 10001210     pwwiff:winlib.obj
 0001:00000254       ??_C@_0CC@PPALOBFJ@Microsoft?5Word?56?40?97?40?5Conversio@ 10001254     pwwiff:winlib.obj
 0001:00000278       ??_C@_04IHPBFPIM@1033?$AA@ 10001278     pwwiff:winlib.obj
 0001:00000280       ??_C@_0BF@CNPFOOB@Input?5file?5not?5found?$AA@ 10001280     pwwiff:winlib.obj
 0001:00000298       ??_C@_0BC@BIFBJKIE@Cannot?5write?5file?$AA@ 10001298     pwwiff:winlib.obj
 0001:000002ac       ??_C@_0BB@EGPKFKEF@Cannot?5read?5file?$AA@ 100012ac     pwwiff:winlib.obj
 0001:000002c0       ??_C@_0BB@FCMHAGJH@Cannot?5open?5file?$AA@ 100012c0     pwwiff:winlib.obj
 0001:000002d4       ??_C@_0CG@MMCKNNCN@File?5is?5not?5a?5Microsoft?5Word?5doc@ 100012d4     pwwiff:winlib.obj
 0001:000002fc       ??_C@_0CI@NOOBICMA@Not?5enough?5memory?5to?5complete?5op@ 100012fc     pwwiff:winlib.obj
 0001:00000324       ??_C@_0CG@BLGEIFFF@Memory?5error?3?5local?5heap?5is?5corr@ 10001324     pwwiff:winlib.obj
 0001:0000034c       ??_C@_0BH@IJOLDIKD@MSWord?5Text?5Converters?$AA@ 1000134c     pwwiff:winlib.obj
 0001:00000364       ??_C@_07DHGFEGMN@MSWord6?$AA@ 10001364     pwwiff:winlib.obj
 0001:0000036c       ??_C@_0M@ONLJFLGJ@msword6?4cnv?$AA@ 1000136c     pwwiff:winlib.obj
 0001:00000378       ??_C@_02POBAIDHK@ci?$AA@   10001378     pwwiff:winlib.obj
 0001:0000037c       ??_C@_0M@GNHDOGJK@WINWORDCONV?$AA@ 1000137c     pwwiff:winlib.obj
 0001:00000388       ??_C@_0N@GMJJPOIP@CONVERTMERGE?$AA@ 10001388     pwwiff:winlib.obj
 0001:00000398       ??_C@_0L@OKLEGLLG@FONTDIALOG?$AA@ 10001398     pwwiff:winlib.obj
 0001:000003a4       ??_C@_02NFLNFON@NO?$AA@    100013a4     pwwiff:winlib.obj
 0001:000003a8       ??_C@_0BO@NOEEDNBH@Use?5custom?5font?5mapping?5file?$DP?$AA@ 100013a8     pwwiff:winlib.obj
 0001:000003c8       ??_C@_0CM@IAIKJDIB@Font?5mapping?5file?5name?5or?5path?5i@ 100013c8     pwwiff:winlib.obj
 0001:000003f4       ??_C@_0CO@GJDIBOCH@Font?5mapping?5file?5name?5specified@ 100013f4     pwwiff:winlib.obj
 0001:00000424       ??_C@_0CL@JMMFCPNH@Font?5mapping?5file?5specified?5does@ 10001424     pwwiff:winlib.obj
 0001:00000450       ??_C@_0O@CEKAIDLH@RETAININCLUDE?$AA@ 10001450     pwwiff:winlib.obj
 0001:00000460       ??_C@_0CE@MDNLJOCD@Cannot?5open?5password?5protected?5f@ 10001460     pwwiff:winlib.obj
 0001:00000488       ??_C@_0EE@HBPFNIGF@This?5file?5contains?5double?9byte?5c@ 10001488     pwwiff:winlib.obj
 0001:000004cc       ??_C@_03GCDGINBO@ref?$AA@  100014cc     pwwiff:winlib.obj
 0001:000004d0       ??_C@_02ECNGIAOH@xe?$AA@   100014d0     pwwiff:winlib.obj
 0001:000004d4       ??_C@_06IAMJHCFI@ftnref?$AA@ 100014d4     pwwiff:winlib.obj
 0001:000004dc       ??_C@_03KCHOJKKI@set?$AA@  100014dc     pwwiff:winlib.obj
 0001:000004e0       ??_C@_02HEBPBKGD@if?$AA@   100014e0     pwwiff:winlib.obj
 0001:000004e4       ??_C@_05FKHKFDID@index?$AA@ 100014e4     pwwiff:winlib.obj
 0001:000004ec       ??_C@_02BNJGNOAF@tc?$AA@   100014ec     pwwiff:winlib.obj
 0001:000004f0       ??_C@_08BDFLIEDC@styleref?$AA@ 100014f0     pwwiff:winlib.obj
 0001:000004fc       ??_C@_02FGFKDEHA@rd?$AA@   100014fc     pwwiff:winlib.obj
 0001:00000500       ??_C@_03NPAJGOON@seq?$AA@  10001500     pwwiff:winlib.obj
 0001:00000504       ??_C@_03DHLNKDFB@toc?$AA@  10001504     pwwiff:winlib.obj
 0001:00000508       ??_C@_04NIDJFNBE@info?$AA@ 10001508     pwwiff:winlib.obj
 0001:00000510       ??_C@_0BO@JEEMOFFH@Microsoft?5Word?56?40?5Conversion?$AA@ 10001510     pwwiff:winlib.obj
 0001:00000530       ??_C@_07JNNGEGGO@subject?$AA@ 10001530     pwwiff:winlib.obj
 0001:00000538       ??_C@_06LIPPPFCI@author?$AA@ 10001538     pwwiff:winlib.obj
 0001:00000540       ??_C@_08KBIEDDDE@keywords?$AA@ 10001540     pwwiff:winlib.obj
 0001:0000054c       ??_C@_08PGBJEHDC@comments?$AA@ 1000154c     pwwiff:winlib.obj
 0001:00000558       ??_C@_0M@KEEIHMF@lastsavedby?$AA@ 10001558     pwwiff:winlib.obj
 0001:00000564       ??_C@_0L@EBADPLBF@createdate?$AA@ 10001564     pwwiff:winlib.obj
 0001:00000570       ??_C@_08LPECNBBJ@savedate?$AA@ 10001570     pwwiff:winlib.obj
 0001:0000057c       ??_C@_09BEKNCEDI@printdate?$AA@ 1000157c     pwwiff:winlib.obj
 0001:00000588       ??_C@_06GOFPFFGE@revnum?$AA@ 10001588     pwwiff:winlib.obj
 0001:00000590       ??_C@_08MHMHPOAN@edittime?$AA@ 10001590     pwwiff:winlib.obj
 0001:0000059c       ??_C@_08MAAJLMMO@numpages?$AA@ 1000159c     pwwiff:winlib.obj
 0001:000005a8       ??_C@_08EDJPPIN@numwords?$AA@ 100015a8     pwwiff:winlib.obj
 0001:000005b4       ??_C@_08HEFJEEKD@numchars?$AA@ 100015b4     pwwiff:winlib.obj
 0001:000005c0       ??_C@_08BABJIOEM@filename?$AA@ 100015c0     pwwiff:winlib.obj
 0001:000005cc       ??_C@_08FJNLKCPH@template?$AA@ 100015cc     pwwiff:winlib.obj
 0001:000005d8       ??_C@_04JNIHBGGH@date?$AA@ 100015d8     pwwiff:winlib.obj
 0001:000005e0       ??_C@_04CLCEDBPF@time?$AA@ 100015e0     pwwiff:winlib.obj
 0001:000005e8       ??_C@_04BGIHDKAM@page?$AA@ 100015e8     pwwiff:winlib.obj
 0001:000005f0       ??_C@_01NEMOKFLO@?$DN?$AA@ 100015f0     pwwiff:winlib.obj
 0001:000005f4       ??_C@_05JHEGFHLM@quote?$AA@ 100015f4     pwwiff:winlib.obj
 0001:000005fc       ??_C@_07FHOHOHLG@include?$AA@ 100015fc     pwwiff:winlib.obj
 0001:00000604       ??_C@_07ODOCJMHF@pageref?$AA@ 10001604     pwwiff:winlib.obj
 0001:0000060c       ??_C@_03INJPNEOA@ask?$AA@  1000160c     pwwiff:winlib.obj
 0001:00000610       ??_C@_06DEEEGDLN@fillin?$AA@ 10001610     pwwiff:winlib.obj
 0001:00000618       ??_C@_04PJOLNDGD@data?$AA@ 10001618     pwwiff:winlib.obj
 0001:00000620       ??_C@_04CJGEDOF@next?$AA@  10001620     pwwiff:winlib.obj
 0001:00000628       ??_C@_06LIHNCJJL@nextif?$AA@ 10001628     pwwiff:winlib.obj
 0001:00000630       ??_C@_06FGJMJMIA@skipif?$AA@ 10001630     pwwiff:winlib.obj
 0001:00000638       ??_C@_08NCPPHMBI@mergerec?$AA@ 10001638     pwwiff:winlib.obj
 0001:00000644       ??_C@_03DNKLLMKJ@dde?$AA@  10001644     pwwiff:winlib.obj
 0001:00000648       ??_C@_07KAJCMBHP@ddeauto?$AA@ 10001648     pwwiff:winlib.obj
 0001:00000650       ??_C@_08MCJIIFFD@glossary?$AA@ 10001650     pwwiff:winlib.obj
 0001:0000065c       ??_C@_05IJDJACGD@print?$AA@ 1000165c     pwwiff:winlib.obj
 0001:00000664       ??_C@_02HIIGGHJB@eq?$AA@   10001664     pwwiff:winlib.obj
 0001:00000668       ??_C@_0L@HOMDMINF@gotobutton?$AA@ 10001668     pwwiff:winlib.obj
 0001:00000674       ??_C@_0M@FJPPIBPH@macrobutton?$AA@ 10001674     pwwiff:winlib.obj
 0001:00000680       ??_C@_0L@CKCOIAND@autonumout?$AA@ 10001680     pwwiff:winlib.obj
 0001:0000068c       ??_C@_0L@KFCCMAHK@autonumlgl?$AA@ 1000168c     pwwiff:winlib.obj
 0001:00000698       ??_C@_07OKINOPBF@autonum?$AA@ 10001698     pwwiff:winlib.obj
 0001:000006a0       ??_C@_06EOGGDCGF@import?$AA@ 100016a0     pwwiff:winlib.obj
 0001:000006a8       ??_C@_04OHHBHOGB@link?$AA@ 100016a8     pwwiff:winlib.obj
 0001:000006b0       ??_C@_06OJHAJCPM@symbol?$AA@ 100016b0     pwwiff:winlib.obj
 0001:000006b8       ??_C@_05KJAEOLKJ@embed?$AA@ 100016b8     pwwiff:winlib.obj
 0001:000006c0       ??_C@_0L@ODCIBJAG@mergefield?$AA@ 100016c0     pwwiff:winlib.obj
 0001:000006cc       ??_C@_08ODGEKKOL@username?$AA@ 100016cc     pwwiff:winlib.obj
 0001:000006d8       ??_C@_0N@DOOABEIN@userinitials?$AA@ 100016d8     pwwiff:winlib.obj
 0001:000006e8       ??_C@_0M@JLAKBCNM@useraddress?$AA@ 100016e8     pwwiff:winlib.obj
 0001:000006f4       ??_C@_07IJLLHKBN@barcode?$AA@ 100016f4     pwwiff:winlib.obj
 0001:000006fc       ??_C@_09NJMHNAOE@autoindex?$AA@ 100016fc     pwwiff:winlib.obj
 0001:00000708       ??_C@_07BNGFJMOB@section?$AA@ 10001708     pwwiff:winlib.obj
 0001:00000710       ??_C@_0N@BANNGKNM@sectionpages?$AA@ 10001710     pwwiff:winlib.obj
 0001:00000720       ??_C@_0P@KHJIKNFL@includepicture?$AA@ 10001720     pwwiff:winlib.obj
 0001:00000730       ??_C@_0M@GBJPLCDL@includetext?$AA@ 10001730     pwwiff:winlib.obj
 0001:0000073c       ??_C@_08FELEEAGF@filesize?$AA@ 1000173c     pwwiff:winlib.obj
 0001:00000748       ??_C@_08OBMCLIMK@formtext?$AA@ 10001748     pwwiff:winlib.obj
 0001:00000754       ??_C@_0N@GMKCDFJL@formcheckbox?$AA@ 10001754     pwwiff:winlib.obj
 0001:00000764       ??_C@_07FPKOLEAE@noteref?$AA@ 10001764     pwwiff:winlib.obj
 0001:0000076c       ??_C@_03FILMBND@toa?$AA@   1000176c     pwwiff:winlib.obj
 0001:00000770       ??_C@_02CPKALMIH@ta?$AA@   10001770     pwwiff:winlib.obj
 0001:00000774       ??_C@_08BCLHGLKO@mergeseq?$AA@ 10001774     pwwiff:winlib.obj
 0001:00000780       ??_C@_07NMPLPEPB@private?$AA@ 10001780     pwwiff:winlib.obj
 0001:00000788       ??_C@_08PBOCEOLL@database?$AA@ 10001788     pwwiff:winlib.obj
 0001:00000794       ??_C@_08EGMAGMNB@autotext?$AA@ 10001794     pwwiff:winlib.obj
 0001:000007a0       ??_C@_07DIJKPEDD@compare?$AA@ 100017a0     pwwiff:winlib.obj
 0001:000007a8       ??_C@_0L@KMKCIBMO@pimprivate?$AA@ 100017a8     pwwiff:winlib.obj
 0001:000007b4       ??_C@_0L@BJDOMJNF@subscriber?$AA@ 100017b4     pwwiff:winlib.obj
 0001:000007c0       ??_C@_0N@LKBNFCNJ@formdropdown?$AA@ 100017c0     pwwiff:winlib.obj
 0001:000007d0       ??_C@_07JKODCMP@advance?$AA@ 100017d0     pwwiff:winlib.obj
 0001:000007d8       ??_C@_05EGMPFHEP@date?5?$AA@ 100017d8     pwwiff:winlib.obj
 0001:000007e0       ??_C@_05FIHIAGAA@time?5?$AA@ 100017e0     pwwiff:winlib.obj
 0001:000007e8       ??_C@_05JMCEOPLD@page?5?$AA@ 100017e8     pwwiff:winlib.obj
 0001:000007f0       ??_C@_0BH@HHNFBLEL@?2?$EA?5?$CC?5ddd?0?5MMM?5d?0?5yyyy?$CC?$AA@ 100017f0     pwwiff:winlib.obj
 0001:00000808       ??_C@_0BJ@KCNHEEBB@?2?$EA?5?$CC?5dddd?0?5MMMM?5d?0?5yyyy?$CC?$AA@ 10001808     pwwiff:winlib.obj
 0001:00000824       ??_C@_09GHENJAB@?2?$CK?5arabic?$AA@ 10001824     pwwiff:winlib.obj
 0001:00000830       ??_C@_0O@HJEPKDGD@?2?$CK?5ALPHABETIC?$AA@ 10001830     pwwiff:winlib.obj
 0001:00000840       ??_C@_0O@MPCCBBED@?2?$CK?5alphabetic?$AA@ 10001840     pwwiff:winlib.obj
 0001:00000850       ??_C@_08MHKCHNMJ@?2?$CK?5ROMAN?$AA@ 10001850     pwwiff:winlib.obj
 0001:0000085c       ??_C@_08MDEJKIH@?2?$CK?5roman?$AA@ 1000185c     pwwiff:winlib.obj
 0001:00000868       ??_C@_01KMDKNFGN@?1?$AA@   10001868     pwwiff:winlib.obj
 0001:0000086c       ??_C@_01LFCBOECM@?4?$AA@   1000186c     pwwiff:winlib.obj
 0001:00000870       ??_C@_01IHBHIGKO@?0?$AA@   10001870     pwwiff:winlib.obj
 0001:00000874       ??_C@_01JLIPDDHJ@?3?$AA@   10001874     pwwiff:winlib.obj
 0001:00000878       ??_C@_01LPLHEDKD@d?$AA@    10001878     pwwiff:winlib.obj
 0001:0000087c       ??_C@_01CKDDGHAB@D?$AA@    1000187c     pwwiff:winlib.obj
 0001:00000880       ??_C@_01EANLCPLP@y?$AA@    10001880     pwwiff:winlib.obj
 0001:00000884       ??_C@_01NFFPALBN@Y?$AA@    10001884     pwwiff:winlib.obj
 0001:00000888       ??_C@_01BDACAMKP@h?$AA@    10001888     pwwiff:winlib.obj
 0001:0000088c       ??_C@_01IGIGCIAN@H?$AA@    1000188c     pwwiff:winlib.obj
 0001:00000890       ??_C@_01GOHFPIOK@m?$AA@    10001890     pwwiff:winlib.obj
 0001:00000894       ??_C@_01PLPBNMEI@M?$AA@    10001894     pwwiff:winlib.obj
 0001:00000898       ??_C@_05NECKJAMC@upper?$AA@ 10001898     pwwiff:winlib.obj
 0001:000008a0       ??_C@_05IPJEPLHL@lower?$AA@ 100018a0     pwwiff:winlib.obj
 0001:000008a8       ??_C@_08EMIBNAIB@firstcap?$AA@ 100018a8     pwwiff:winlib.obj
 0001:000008b4       ??_C@_04DEDGNHHM@caps?$AA@ 100018b4     pwwiff:winlib.obj
 0001:000008bc       ??_C@_06DFBDGCKE@arabic?$AA@ 100018bc     pwwiff:winlib.obj
 0001:000008c4       ??_C@_07LEACAOHP@ordinal?$AA@ 100018c4     pwwiff:winlib.obj
 0001:000008cc       ??_C@_05GIJCNKOK@roman?$AA@ 100018cc     pwwiff:winlib.obj
 0001:000008d4       ??_C@_0L@OJPAHFPD@alphabetic?$AA@ 100018d4     pwwiff:winlib.obj
 0001:000008e0       ??_C@_08JJNALOHP@cardtext?$AA@ 100018e0     pwwiff:winlib.obj
 0001:000008ec       ??_C@_07GKJPNKOL@ordtext?$AA@ 100018ec     pwwiff:winlib.obj
 0001:000008f4       ??_C@_03IJNDAFDK@hex?$AA@  100018f4     pwwiff:winlib.obj
 0001:000008f8       ??_C@_0L@BDLKBMKP@dollartext?$AA@ 100018f8     pwwiff:winlib.obj
 0001:00000904       ??_C@_0L@GDMPLMGA@charformat?$AA@ 10001904     pwwiff:winlib.obj
 0001:00000910       ??_C@_0M@BIDNDMNP@mergeformat?$AA@ 10001910     pwwiff:winlib.obj
 0001:0000091c       ??_C@_03BCGAIFPO@abs?$AA@  1000191c     pwwiff:winlib.obj
 0001:00000920       ??_C@_03JBIPMCLC@int?$AA@  10001920     pwwiff:winlib.obj
 0001:00000924       ??_C@_04HHGHLBPI@sign?$AA@ 10001924     pwwiff:winlib.obj
 0001:0000092c       ??_C@_07MJAJDDLG@defined?$AA@ 1000192c     pwwiff:winlib.obj
 0001:00000934       ??_C@_03FFONCNID@mod?$AA@  10001934     pwwiff:winlib.obj
 0001:00000938       ??_C@_05MIMAKCN@round?$AA@ 10001938     pwwiff:winlib.obj
 0001:00000940       ??_C@_03BOPJPIAM@and?$AA@  10001940     pwwiff:winlib.obj
 0001:00000944       ??_C@_02FODMLBIE@or?$AA@   10001944     pwwiff:winlib.obj
 0001:00000948       ??_C@_03NJKJADM@not?$AA@   10001948     pwwiff:winlib.obj
 0001:0000094c       ??_C@_07EIHJKMF@average?$AA@ 1000194c     pwwiff:winlib.obj
 0001:00000954       ??_C@_05IOMEMJEC@count?$AA@ 10001954     pwwiff:winlib.obj
 0001:0000095c       ??_C@_03LJAEFNNE@max?$AA@  1000195c     pwwiff:winlib.obj
 0001:00000960       ??_C@_03KLIPLJLL@min?$AA@  10001960     pwwiff:winlib.obj
 0001:00000964       ??_C@_03CFFIJAMA@sum?$AA@  10001964     pwwiff:winlib.obj
 0001:00000968       ??_C@_07IFEJIFCD@product?$AA@ 10001968     pwwiff:winlib.obj
 0001:00000970       ??_C@_0CP@CJEFJEJF@?$AN?6This?5program?5requires?5Microsof@ 10001970     pwwiff:winlib.obj
 0001:000009a0       ??_C@_0CN@CFPOKDPJ@?$CIMicrosoft?5Word?56?40?5?$CIWin?5?$CG?5Mac?$CJ?5@ 100019a0     pwwiff:winlib.obj
 0001:000009d0       ??_C@_0BC@IEJNGNLA@Internal?5Version?5?$AA@ 100019d0     pwwiff:winlib.obj
 0001:000009e4       ??_C@_04CHJLGIGJ@Anno?$AA@ 100019e4     pwwiff:winlib.obj
 0001:000009ec       ??_C@_07MNBOGLKH@index?58?$AA@ 100019ec     pwwiff:winlib.obj
 0001:000009f4       ??_C@_07NEAFFKOG@index?59?$AA@ 100019f4     pwwiff:winlib.obj
 0001:000009fc       ??_C@_05NKLGGCKA@toc?59?$AA@ 100019fc     pwwiff:winlib.obj
 0001:00000a04       ??_C@_07BANDPJOM@caption?$AA@ 10001a04     pwwiff:winlib.obj
 0001:00000a0c       ??_C@_0BB@MLINIMPP@table?5of?5figures?$AA@ 10001a0c     pwwiff:winlib.obj
 0001:00000a20       ??_C@_0BB@CMEAGDHD@envelope?5address?$AA@ 10001a20     pwwiff:winlib.obj
 0001:00000a34       ??_C@_0BA@NGKJPLBM@envelope?5return?$AA@ 10001a34     pwwiff:winlib.obj
 0001:00000a44       ??_C@_0M@MOHNHNCJ@page?5number?$AA@ 10001a44     pwwiff:winlib.obj
 0001:00000a50       ??_C@_0BC@MINIHGGF@endnote?5reference?$AA@ 10001a50     pwwiff:winlib.obj
 0001:00000a64       ??_C@_0N@GJOOMNBA@endnote?5text?$AA@ 10001a64     pwwiff:winlib.obj
 0001:00000a74       ??_C@_0BF@BCCLEDFK@table?5of?5authorities?$AA@ 10001a74     pwwiff:winlib.obj
 0001:00000a8c       ??_C@_05MCIGIPJO@macro?$AA@ 10001a8c     pwwiff:winlib.obj
 0001:00000a94       ??_C@_0M@IHNPHKPF@toa?5heading?$AA@ 10001a94     pwwiff:winlib.obj
 0001:00000aa0       ??_C@_04PPBEGPNI@List?$AA@ 10001aa0     pwwiff:winlib.obj
 0001:00000aa8       ??_C@_0M@HDJLDKKE@List?5Bullet?$AA@ 10001aa8     pwwiff:winlib.obj
 0001:00000ab4       ??_C@_0M@DPNOKJNF@List?5Number?$AA@ 10001ab4     pwwiff:winlib.obj
 0001:00000ac0       ??_C@_06EBNBNOFL@List?52?$AA@ 10001ac0     pwwiff:winlib.obj
 0001:00000ac8       ??_C@_06FIMKOPBK@List?53?$AA@ 10001ac8     pwwiff:winlib.obj
 0001:00000ad0       ??_C@_06BHILHJNN@List?54?$AA@ 10001ad0     pwwiff:winlib.obj
 0001:00000ad8       ??_C@_06OJAEIJM@List?55?$AA@ 10001ad8     pwwiff:winlib.obj
 0001:00000ae0       ??_C@_0O@NJFKMBFF@List?5Bullet?52?$AA@ 10001ae0     pwwiff:winlib.obj
 0001:00000af0       ??_C@_0O@MAEBPABE@List?5Bullet?53?$AA@ 10001af0     pwwiff:winlib.obj
 0001:00000b00       ??_C@_0O@IPAAGGND@List?5Bullet?54?$AA@ 10001b00     pwwiff:winlib.obj
 0001:00000b10       ??_C@_0O@JGBLFHJC@List?5Bullet?55?$AA@ 10001b10     pwwiff:winlib.obj
 0001:00000b20       ??_C@_0O@IGHIAHFJ@List?5Number?52?$AA@ 10001b20     pwwiff:winlib.obj
 0001:00000b30       ??_C@_0O@JPGDDGBI@List?5Number?53?$AA@ 10001b30     pwwiff:winlib.obj
 0001:00000b40       ??_C@_0O@NACCKANP@List?5Number?54?$AA@ 10001b40     pwwiff:winlib.obj
 0001:00000b50       ??_C@_0O@MJDJJBJO@List?5Number?55?$AA@ 10001b50     pwwiff:winlib.obj
 0001:00000b60       ??_C@_05PABKJLOM@Title?$AA@ 10001b60     pwwiff:winlib.obj
 0001:00000b68       ??_C@_07BINCEHFK@Closing?$AA@ 10001b68     pwwiff:winlib.obj
 0001:00000b70       ??_C@_09GDNFOKKF@Signature?$AA@ 10001b70     pwwiff:winlib.obj
 0001:00000b7c       ??_C@_0BH@HLAFCKAD@Default?5Paragraph?5Font?$AA@ 10001b7c     pwwiff:winlib.obj
 0001:00000b94       ??_C@_09PPMHNLMO@Body?5Text?$AA@ 10001b94     pwwiff:winlib.obj
 0001:00000ba0       ??_C@_0BB@BCKAIKLC@Body?5Text?5Indent?$AA@ 10001ba0     pwwiff:winlib.obj
 0001:00000bb4       ??_C@_0O@DOJJBEBI@List?5Continue?$AA@ 10001bb4     pwwiff:winlib.obj
 0001:00000bc4       ??_C@_0BA@ENPMGACM@List?5Continue?52?$AA@ 10001bc4     pwwiff:winlib.obj
 0001:00000bd4       ??_C@_0BA@FEOHFBGN@List?5Continue?53?$AA@ 10001bd4     pwwiff:winlib.obj
 0001:00000be4       ??_C@_0BA@BLKGMHKK@List?5Continue?54?$AA@ 10001be4     pwwiff:winlib.obj
 0001:00000bf4       ??_C@_0BA@CLNPGOL@List?5Continue?55?$AA@ 10001bf4     pwwiff:winlib.obj
 0001:00000c04       ??_C@_0P@GDHACOMO@Message?5Header?$AA@ 10001c04     pwwiff:winlib.obj
 0001:00000c14       ??_C@_08BDDLJEFM@Subtitle?$AA@ 10001c14     pwwiff:winlib.obj
 0001:00000c20       ??_C@_0BM@JEGIGNOA@Microsoft?5Word?56?40?5Document?$AA@ 10001c20     pwwiff:winlib.obj
 0001:00000c3c       ??_C@_0BI@MMHPKJOK@date?5?2?2?$EA?5?$CCMMMM?5d?0?5yyyy?$CC?$AA@ 10001c3c     pwwiff:winlib.obj
 0001:00000c54       ??_C@_0BM@FJLILCAH@date?5?2?2?$EA?5?$CCddd?0?5MMM?5d?0?5yyyy?$CC?$AA@ 10001c54     pwwiff:winlib.obj
 0001:00000c70       ??_C@_0BO@FBBBHBDJ@date?5?2?2?$EA?5?$CCdddd?0?5MMMM?5d?0?5yyyy?$CC?$AA@ 10001c70     pwwiff:winlib.obj
 0001:00000c90       ??_C@_0BC@BJCBHHKD@date?5?2?2?$EA?5?$CCM?1d?1yy?$CC?$AA@ 10001c90     pwwiff:winlib.obj
 0001:00000ca4       ??_C@_0P@BGAMCPPH@date?5?2?2?$EA?5?$CCddd?$CC?$AA@ 10001ca4     pwwiff:winlib.obj
 0001:00000cb4       ??_C@_0BA@PAGKNMMC@date?5?2?2?$EA?5?$CCdddd?$CC?$AA@ 10001cb4     pwwiff:winlib.obj
 0001:00000cc4       ??_C@_0N@LMMAEHHP@date?5?2?2?$EA?5?$CCd?$CC?$AA@ 10001cc4     pwwiff:winlib.obj
 0001:00000cd4       ??_C@_0P@DAHLPPFJ@date?5?2?2?$EA?5?$CCMMM?$CC?$AA@ 10001cd4     pwwiff:winlib.obj
 0001:00000ce4       ??_C@_0BA@PGLOFIJC@date?5?2?2?$EA?5?$CCMMMM?$CC?$AA@ 10001ce4     pwwiff:winlib.obj
 0001:00000cf4       ??_C@_0N@ILFMDKBA@date?5?2?2?$EA?5?$CCM?$CC?$AA@ 10001cf4     pwwiff:winlib.obj
 0001:00000d04       ??_C@_0BG@FOICOFEC@time?5?2?2?$EA?5?$CCh?3mm?5AM?1PM?$CC?$AA@ 10001d04     pwwiff:winlib.obj
 0001:00000d1c       ??_C@_0BA@GBNPCBNF@date?5?2?2?$EA?5?$CCyyyy?$CC?$AA@ 10001d1c     pwwiff:winlib.obj
 0001:00000d2c       ??_C@_0O@KFCOKENJ@date?5?2?2?$EA?5?$CCyy?$CC?$AA@ 10001d2c     pwwiff:winlib.obj
 0001:00000d3c       ??_C@_0N@NCGKJEHB@time?5?2?2?$EA?5?$CCh?$CC?$AA@ 10001d3c     pwwiff:winlib.obj
 0001:00000d4c       ??_C@_0O@PNGPGFAI@time?5?2?2?$EA?5?$CChh?$CC?$AA@ 10001d4c     pwwiff:winlib.obj
 0001:00000d5c       ??_C@_0N@NEKBFGJK@time?5?2?2?$EA?5?$CCm?$CC?$AA@ 10001d5c     pwwiff:winlib.obj
 0001:00000d6c       ??_C@_0O@MMHKFHNB@time?5?2?2?$EA?5?$CCmm?$CC?$AA@ 10001d6c     pwwiff:winlib.obj
 0001:00000d7c       ??_C@_0N@MCBJNIOA@time?5?2?2?$EA?5?$CCs?$CC?$AA@ 10001d7c     pwwiff:winlib.obj
 0001:00000d8c       ??_C@_0BB@CKLNMJAE@time?5?2?2?$EA?5?$CCAM?1PM?$CC?$AA@ 10001d8c     pwwiff:winlib.obj
 0001:00000da0       ??_C@_0BJ@GBOJHPCJ@time?5?2?2?$EA?5?$CCh?3mm?3ss?5AM?1PM?$CC?$AA@ 10001da0     pwwiff:winlib.obj
 0001:00000dbc       ??_C@_03MGDKLHOH@CMA?$AA@  10001dbc     pwwiff:winlib.obj
 0001:00000dcc       ??_C@_06PFFBCHML@?$CFs?$CFd?$CFs?$AA@ 10001dcc     pwwiff:convio.obj
 0001:00000dd4       ??_C@_04DICKPMGH@Data?$AA@ 10001dd4     pwwiff:convio.obj
 0001:00000ddc       ??_C@_06DBNFADOB@0Table?$AA@ 10001ddc     pwwiff:convio.obj
 0001:00000de4       ??_C@_06JHKCAIFF@1Table?$AA@ 10001de4     pwwiff:convio.obj
 0001:00000dec       ??_C@_01KICIPPFI@?2?$AA@   10001dec     pwwiff:winutil.obj
 0001:00000df0       ??_C@_08KEPIKGMI@?2Windows?$AA@ 10001df0     pwwiff:ntloio.obj
 0001:00000dfc       ??_C@_0BB@JCEFLFJE@0123456789abcdef?$AA@ 10001dfc     pwwiff:convout.obj
 0001:000026d0       rgszRtfSym                 100036d0     pwwiff:convtabl.obj
 0001:000031e0       CLSID_WordDocument         100041e0     ww6:rwmain.obj
 0001:000031f0       CLSID_Word8Document        100041f0     ww6:rwmain.obj
 0001:00003200       ??_C@_0BI@KGFNGKKD@Microsoft?5Word?5Document?$AA@ 10004200     ww6:rwmain.obj
 0001:00003218       ??_C@_05DIALNFFA@?$CFs?5?$CFd?$AA@ 10004218     ww6:rwmain.obj
 0001:00003220       ??_C@_02DKCKIIND@?$CFs?$AA@ 10004220     ww6:rwmain.obj
 0001:00003224       ??_C@_0N@KPLCPABG@WordDocument?$AA@ 10004224     ww6:rwmain.obj
 0001:00003234       szStream                   10004234     ww6:pvexp.obj
 0001:00003244       szzReadClasses             10004244     ww6:pvexpwin.obj
 0001:00003258       szzWriteClasses            10004258     ww6:pvexpwin.obj
 0001:0000325c       szzReadExts                1000425c     ww6:pvexpwin.obj
 0001:00003268       szzWriteExts               10004268     ww6:pvexpwin.obj
 0001:00003270       sprmTableWR                10004270     ww6:wrprops.obj
 0001:00003720       sprmTable                  10004720     ww6:wrprops.obj
 0001:00003bd0       CodePageTable              10004bd0     ww6:codepage.obj
 0001:00003c90       ??_C@_09KAAAJHFP@formcheck?$AA@ 10004c90     ww6:wwutil.obj
 0001:00003c9c       ??_C@_08PHNBDENA@formlist?$AA@ 10004c9c     ww6:wwutil.obj
 0001:00003ca8       ??_C@_05PHLGJONK@title?$AA@ 10004ca8     ww6:wwutil.obj
 0001:00003cb0       ??_C@_0BG@DIEHBEDD@?2?$EA?5?$CCddd?0?5MMM?5d?0?5yyyy?$CC?$AA@ 10004cb0     ww6:wwutil.obj
 0001:00003cc8       ??_C@_0BI@NFIOOFOM@?2?$EA?5?$CCdddd?0?5MMMM?5d?0?5yyyy?$CC?$AA@ 10004cc8     ww6:wwutil.obj
 0001:00003ce0       ??_C@_03IDPBBFEM@?2a?5?$AA@ 10004ce0     ww6:rwpic.obj
 0001:00003ce4       ??_C@_03JNJBAIGF@?2r?5?$AA@ 10004ce4     ww6:rwpic.obj
 0001:00003ce8       ??_C@_03JJBMHENH@?2t?5?$AA@ 10004ce8     ww6:rwpic.obj
 0001:00003cec       ??_C@_03JOBFNMAL@?2p?5?$AA@ 10004cec     ww6:rwpic.obj
 0001:00003cf0       ??_C@_03IBLHKLBF@?2b?5?$AA@ 10004cf0     ww6:rwpic.obj
 0001:00003cf4       ??_C@_03PPDOHHGN@?2?$CK?5?$AA@ 10004cf4     ww6:rwpic.obj
 0001:00003cf8       ??_C@_03JMFDGCFC@?2s?5?$AA@ 10004cf8     ww6:rwpic.obj
 0001:00003cfc       rgicoNew                   10004cfc     ww6:rwcolor.obj
 0001:00003d10       rgrsym                     10004d10     ww6:ct_rtfww.obj
 0001:00004438       ??_C@_0KI@LAEIDBMM@?$HL?2stylesheet?$HL?5Normal?$DL?$HN?$HL?2s1?5headi@ 10005438     ww6:wrinit.obj
 0001:000044e0       rgbWmfFake                 100054e0     ww6:wwrtfin.obj
 0001:000045f0       rgiszRtf                   100055f0     ww6:ct_wwrtf.obj
 0001:000048c0       mpvaliisz                  100058c0     ww6:ct_wwrtf.obj
 0001:00004938       rgvalMax                   10005938     ww6:ct_wwrtf.obj
 0001:000049ac       mpibrciszPap               100059ac     ww6:ct_wwrtf.obj
 0001:000049c4       mpibrciszTc                100059c4     ww6:ct_wwrtf.obj
 0001:000049d4       mpibrciszTr                100059d4     ww6:ct_wwrtf.obj
 0001:000049f0       mpirrbisz                  100059f0     ww6:ct_wwrtf.obj
 0001:00004e30       rgrrb                      10005e30     ww6:ct_wwrtf.obj
 0001:000055c8       mpsprmSprmProp             100065c8     ww6:ct_wwrtf.obj
 0001:0000598c       _mpnfcins                  1000698c     ww6:wwrtfou.obj
 0001:000059a0       ??_C@_08GNGHKCKL@Thousand?$AA@ 100069a0     ww6:wrlist.obj
 0001:000059ac       ??_C@_0L@ILPHOLKC@Thousandth?$AA@ 100069ac     ww6:wrlist.obj
 0001:000059b8       ??_C@_07OACHGJK@Hundred?$AA@ 100069b8     ww6:wrlist.obj
 0001:000059c0       ??_C@_09MMBEJJLI@Hundredth?$AA@ 100069c0     ww6:wrlist.obj
 0001:000059cc       ??_C@_06NOKDLMBJ@Ninety?$AA@ 100069cc     ww6:wrlist.obj
 0001:000059d4       ??_C@_06CDNOFCEP@Eighty?$AA@ 100069d4     ww6:wrlist.obj
 0001:000059dc       ??_C@_07GCKPCDBD@Seventy?$AA@ 100069dc     ww6:wrlist.obj
 0001:000059e4       ??_C@_05FDILLLHJ@Sixty?$AA@ 100069e4     ww6:wrlist.obj
 0001:000059ec       ??_C@_05LAFGAIPN@Fifty?$AA@ 100069ec     ww6:wrlist.obj
 0001:000059f4       ??_C@_05OAGNDNJF@Forty?$AA@ 100069f4     ww6:wrlist.obj
 0001:000059fc       ??_C@_06KJLPBPAK@Thirty?$AA@ 100069fc     ww6:wrlist.obj
 0001:00005a04       ??_C@_06IEAAKKGC@Twenty?$AA@ 10006a04     ww6:wrlist.obj
 0001:00005a0c       ??_C@_09IGJMDKFH@Ninetieth?$AA@ 10006a0c     ww6:wrlist.obj
 0001:00005a18       ??_C@_09OELLEL@Eightieth?$AA@ 10006a18     ww6:wrlist.obj
 0001:00005a24       ??_C@_0L@HEGEGFMD@Seventieth?$AA@ 10006a24     ww6:wrlist.obj
 0001:00005a30       ??_C@_08LELPMPMH@Sixtieth?$AA@ 10006a30     ww6:wrlist.obj
 0001:00005a3c       ??_C@_08GFAJCPGK@Fiftieth?$AA@ 10006a3c     ww6:wrlist.obj
 0001:00005a48       ??_C@_08DAPHJODA@Fortieth?$AA@ 10006a48     ww6:wrlist.obj
 0001:00005a54       ??_C@_09JNHJEGM@Thirtieth?$AA@ 10006a54     ww6:wrlist.obj
 0001:00005a60       ??_C@_09INHPPKDJ@Twentieth?$AA@ 10006a60     ww6:wrlist.obj
 0001:00005a6c       ??_C@_08PGHKCPNJ@Nineteen?$AA@ 10006a6c     ww6:wrlist.obj
 0001:00005a78       ??_C@_08FNCJOHAJ@Eighteen?$AA@ 10006a78     ww6:wrlist.obj
 0001:00005a84       ??_C@_09GMCFPFIK@Seventeen?$AA@ 10006a84     ww6:wrlist.obj
 0001:00005a90       ??_C@_07NODFMPF@Sixteen?$AA@ 10006a90     ww6:wrlist.obj
 0001:00005a98       ??_C@_07GEAAFB@Fifteen?$AA@ 10006a98     ww6:wrlist.obj
 0001:00005aa0       ??_C@_08PAMHHOFB@Fourteen?$AA@ 10006aa0     ww6:wrlist.obj
 0001:00005aac       ??_C@_08NIEKOLAF@Thirteen?$AA@ 10006aac     ww6:wrlist.obj
 0001:00005ab8       ??_C@_06MLPKOLNK@Twelve?$AA@ 10006ab8     ww6:wrlist.obj
 0001:00005ac0       ??_C@_06KBHCPNOB@Eleven?$AA@ 10006ac0     ww6:wrlist.obj
 0001:00005ac8       ??_C@_03CPLGPHPE@Ten?$AA@  10006ac8     ww6:wrlist.obj
 0001:00005acc       ??_C@_0L@FPHJEFG@Nineteenth?$AA@ 10006acc     ww6:wrlist.obj
 0001:00005ad8       ??_C@_0L@BBHALAJI@Eighteenth?$AA@ 10006ad8     ww6:wrlist.obj
 0001:00005ae4       ??_C@_0M@PCGHDLFE@Seventeenth?$AA@ 10006ae4     ww6:wrlist.obj
 0001:00005af0       ??_C@_09PFMKCEOH@Sixteenth?$AA@ 10006af0     ww6:wrlist.obj
 0001:00005afc       ??_C@_09FNHMENFC@Fifteenth?$AA@ 10006afc     ww6:wrlist.obj
 0001:00005b08       ??_C@_0L@OKMBOBMK@Fourteenth?$AA@ 10006b08     ww6:wrlist.obj
 0001:00005b14       ??_C@_0L@LEHDDGNM@Thirteenth?$AA@ 10006b14     ww6:wrlist.obj
 0001:00005b20       ??_C@_07IGBELOFG@Twelfth?$AA@ 10006b20     ww6:wrlist.obj
 0001:00005b28       ??_C@_08HKLFMMFN@Eleventh?$AA@ 10006b28     ww6:wrlist.obj
 0001:00005b34       ??_C@_05KNNFENJD@Tenth?$AA@ 10006b34     ww6:wrlist.obj
 0001:00005b3c       ??_C@_04MCPDCPIL@Nine?$AA@ 10006b3c     ww6:wrlist.obj
 0001:00005b44       ??_C@_05COOMDJGP@Eight?$AA@ 10006b44     ww6:wrlist.obj
 0001:00005b4c       ??_C@_05GOMDGMJK@Seven?$AA@ 10006b4c     ww6:wrlist.obj
 0001:00005b54       ??_C@_03KHODIDPO@Six?$AA@  10006b54     ww6:wrlist.obj
 0001:00005b58       ??_C@_04OALGJGIC@Five?$AA@ 10006b58     ww6:wrlist.obj
 0001:00005b60       ??_C@_04MCBIPDJB@Four?$AA@ 10006b60     ww6:wrlist.obj
 0001:00005b68       ??_C@_05OHMANGAP@Three?$AA@ 10006b68     ww6:wrlist.obj
 0001:00005b70       ??_C@_03CJAPLBKL@Two?$AA@  10006b70     ww6:wrlist.obj
 0001:00005b74       ??_C@_03EHAPBBEA@One?$AA@  10006b74     ww6:wrlist.obj
 0001:00005b78       ??_C@_05MKGIIBGP@Ninth?$AA@ 10006b78     ww6:wrlist.obj
 0001:00005b80       ??_C@_06HAAHHBFP@Eighth?$AA@ 10006b80     ww6:wrlist.obj
 0001:00005b88       ??_C@_07DBHGAAAD@Seventh?$AA@ 10006b88     ww6:wrlist.obj
 0001:00005b90       ??_C@_05FCJIGJ@Sixth?$AA@  10006b90     ww6:wrlist.obj
 0001:00005b98       ??_C@_05ODIPCLON@Fifth?$AA@ 10006b98     ww6:wrlist.obj
 0001:00005ba0       ??_C@_06LCDCPLMG@Fourth?$AA@ 10006ba0     ww6:wrlist.obj
 0001:00005ba8       ??_C@_05GAKKICCF@Third?$AA@ 10006ba8     ww6:wrlist.obj
 0001:00005bb0       ??_C@_06NGJIOPAD@Second?$AA@ 10006bb0     ww6:wrlist.obj
 0001:00005bb8       ??_C@_05NPMMKAPN@First?$AA@ 10006bb8     ww6:wrlist.obj
 0001:00005bc0       mpRoman                    10006bc0     ww6:wrlist.obj
 0001:00005bf4       rgchRoman                  10006bf4     ww6:wrlist.obj
 0001:00005bfc       ??_C@_02BNFKEMBG@st?$AA@   10006bfc     ww6:wrlist.obj
 0001:00005c00       ??_C@_02EDGGGOGE@nd?$AA@   10006c00     ww6:wrlist.obj
 0001:00005c04       ??_C@_02POGCAHMO@th?$AA@   10006c04     ww6:wrlist.obj
 0001:00005c08       mpnpatpct                  10006c08     ww6:shading.obj
 0001:00005c40       mpipatpct                  10006c40     ww6:shading.obj
 0001:00005c88       mpAnsiTo437                10006c88     chmap:chmpnods.obj
 0001:00005d08       mpAnsiTo850                10006d08     chmap:chmpnods.obj
 0001:00005d88       mpAnsiTo860                10006d88     chmap:chmpnods.obj
 0001:00005e08       mpAnsiTo863                10006e08     chmap:chmpnods.obj
 0001:00005e88       mpAnsiTo865                10006e88     chmap:chmpnods.obj
 0001:00005f08       mpAnsiToMac                10006f08     chmap:chmpnods.obj
 0001:00005f88       mp850ToAnsi                10006f88     chmap:chmpnods.obj
 0001:00006008       mp437ToAnsi                10007008     chmap:chmpnods.obj
 0001:00006088       mp860ToAnsi                10007088     chmap:chmpnods.obj
 0001:00006108       mp863ToAnsi                10007108     chmap:chmpnods.obj
 0001:00006188       mp865ToAnsi                10007188     chmap:chmpnods.obj
 0001:00006208       mp437To850                 10007208     chmap:chmpnods.obj
 0001:00006288       mp437To860                 10007288     chmap:chmpnods.obj
 0001:00006308       mp437To863                 10007308     chmap:chmpnods.obj
 0001:00006388       mp437To865                 10007388     chmap:chmpnods.obj
 0001:00006408       mp850To437                 10007408     chmap:chmpnods.obj
 0001:00006488       mp850To860                 10007488     chmap:chmpnods.obj
 0001:00006508       mp850To863                 10007508     chmap:chmpnods.obj
 0001:00006588       mp850To865                 10007588     chmap:chmpnods.obj
 0001:00006608       mpMacTo437                 10007608     chmap:chmpnods.obj
 0001:00006688       mpMacTo850                 10007688     chmap:chmpnods.obj
 0001:00006708       mpMacTo860                 10007708     chmap:chmpnods.obj
 0001:00006788       mpMacTo863                 10007788     chmap:chmpnods.obj
 0001:00006808       mpMacTo865                 10007808     chmap:chmpnods.obj
 0001:00006888       mpMacToAnsi                10007888     chmap:chmpnods.obj
 0001:00006908       mp850ToMac                 10007908     chmap:chmpnods.obj
 0001:00006988       mp437ToMac                 10007988     chmap:chmpnods.obj
 0001:00006a08       mp860ToMac                 10007a08     chmap:chmpnods.obj
 0001:00006a88       mp863ToMac                 10007a88     chmap:chmpnods.obj
 0001:00006b08       mp865ToMac                 10007b08     chmap:chmpnods.obj
 0001:00006b88       mp863To850                 10007b88     chmap:chmpnods.obj
 0001:00006c08       mp860To850                 10007c08     chmap:chmpnods.obj
 0001:00006c88       mp865To437                 10007c88     chmap:chmpnods.obj
 0001:00006d08       mp852To1250                10007d08     chmap:chmpnods.obj
 0001:00006d88       mp1250To852                10007d88     chmap:chmpnods.obj
 0001:00006e08       mp737To1253                10007e08     chmap:chmpnods.obj
 0001:00006e88       mp1253To737                10007e88     chmap:chmpnods.obj
 0001:00006f08       mp857To1254                10007f08     chmap:chmpnods.obj
 0001:00006f88       mp857ToMacTur              10007f88     chmap:chmpnods.obj
 0001:00007008       mp1254To857                10008008     chmap:chmpnods.obj
 0001:00007088       mpMacTurTo857              10008088     chmap:chmpnods.obj
 0001:00007108       mp866To1251                10008108     chmap:chmpnods.obj
 0001:00007188       mp1251To866                10008188     chmap:chmpnods.obj
 0001:00007208       mp1254ToMacTur             10008208     chmap:chmpnods.obj
 0001:00007288       mpMacTurTo1254             10008288     chmap:chmpnods.obj
 0001:00007308       IID_IUnknown               10008308     uuid:dcomuuid.obj
 0001:00007318       IID_IClassFactory          10008318     uuid:dcomuuid.obj
 0001:0000734c       InitConverter32            1000834c f   pwwiff:initcnt.obj
 0001:00007374       DllMain                    10008374 f   pwwiff:initcnt.obj
 0001:000073fc       InitClassFactories         100083fc f   pwwiff:pww_ce.obj
 0001:00007438       ?QueryInterface@CThisDllClassFactory@@UAAJABU_GUID@@PAPAX@Z 10008438 f   pwwiff:pww_ce.obj
 0001:000074ac       ?AddRef@CThisDllClassFactory@@UAAKXZ 100084ac f   pwwiff:pww_ce.obj
 0001:000074b4       ?Release@CThisDllClassFactory@@UAAKXZ 100084b4 f   pwwiff:pww_ce.obj
 0001:000074bc       ?CreateInstance@CThisDllClassFactory@@UAAJPAUIUnknown@@ABU_GUID@@PAPAX@Z 100084bc f   pwwiff:pww_ce.obj
 0001:000074d4       ?LockServer@CThisDllClassFactory@@UAAJH@Z 100084d4 f   pwwiff:pww_ce.obj
 0001:000074f8       DllCanUnloadNow            100084f8 f   pwwiff:pww_ce.obj
 0001:0000751c       DllGetClassObject          1000851c f   pwwiff:pww_ce.obj
 0001:000075b4       ?QueryInterface@CPwdCnvWord@@UAAJABU_GUID@@PAPAX@Z 100085b4 f   pwwiff:pww_ce.obj
 0001:00007658       ?AddRef@CPwdCnvWord@@UAAKXZ 10008658 f   pwwiff:pww_ce.obj
 0001:0000766c       ?Release@CPwdCnvWord@@UAAKXZ 1000866c f   pwwiff:pww_ce.obj
 0001:00007690       ?Advise@IReadConverterExtCnv@@UAAJPAVIReadConverterAdviseSink@@PAK@Z 10008690 f   pwwiff:pww_ce.obj
 0001:00007698       ?Unadvise@IReadConverterExtCnv@@UAAJK@Z 10008698 f   pwwiff:pww_ce.obj
 0001:000076a0       ?ErrCodeToString@IReadConverterExtCnv@@UAAJJPAGK@Z 100086a0 f   pwwiff:pww_ce.obj
 0001:000076b4       ?Cancel@IReadConverterExtCnv@@UAAXJ@Z 100086b4 f   pwwiff:pww_ce.obj
 0001:000076b8       ?DestinationCLSIDIs@IReadConverterExtCnv@@UAAJABU_GUID@@@Z 100086b8 f   pwwiff:pww_ce.obj
 0001:000076c0       ?ReadDocument@@YAHHH@Z     100086c0 f   pwwiff:pww_ce.obj
 0001:00007700       ?IsFormatCorrect@IReadConverterExtCnv@@QAAJPAUIStorage@@PAPAUIStream@@PAH2PAE@Z 10008700 f   pwwiff:pww_ce.obj
 0001:000078e0       ?SetupWrite@IWriteConverterExtCnv@@UAAJPAGHPAUIStorage@@PAVIReadConverter@@@Z 100088e0 f   pwwiff:pww_ce.obj
 0001:00007920       ?WriteRecord@IWriteConverterExtCnv@@UAAJIPAXK@Z 10008920 f   pwwiff:pww_ce.obj
 0001:0000792c       ?Close@IWriteConverterExtCnv@@UAAJJ@Z 1000892c f   pwwiff:pww_ce.obj
 0001:00007958       ?SourceCLSIDIs@IWriteConverterExtCnv@@UAAJABU_GUID@@@Z 10008958 f   pwwiff:pww_ce.obj
 0001:00007968       ?CanOpenStream@IReadConverterExtCnv@@UAAJPAUIStorage@@@Z 10008968 f   pwwiff:pww_ce.obj
 0001:000079d4       ?Open@IReadConverterExtCnv@@UAAJPAUIStorage@@PAVIWriteConverter@@PBGPAUHWND__@@@Z 100089d4 f   pwwiff:pww_ce.obj
 0001:00007c10       ?QueryInterface@CPwdCnvWord@@W3AAJABU_GUID@@PAPAX@Z 10008c10 f i pwwiff:pww_ce.obj
 0001:00007c18       ?Release@CPwdCnvWord@@W3AAKXZ 10008c18 f i pwwiff:pww_ce.obj
 0001:00007c20       ?AddRef@CPwdCnvWord@@W3AAKXZ 10008c20 f i pwwiff:pww_ce.obj
 0001:00007c28       ?Create_PwdCnvObj@@YAJPBU_GUID@@PAUIUnknown@@ABU1@PAPAX@Z 10008c28 f   pwwiff:pww_ce.obj
 0001:00007d64       FCopyRcSozToHaszz          10008d64 f   pwwiff:convmwin.obj
 0001:00007e20       CbSzz                      10008e20 f   pwwiff:convmwin.obj
 0001:00007e50       RegisterApp                10008e50 f   pwwiff:convmwin.obj
 0001:00007ee8       Error                      10008ee8 f   pwwiff:convmwin.obj
 0001:00007eec       SendGlobalRtfBuff          10008eec f   pwwiff:convmwin.obj
 0001:00007f24       fumemmov                   10008f24 f   pwwiff:convmwin.obj
 0001:00007f7c       fumemset                   10008f7c f   pwwiff:convmwin.obj
 0001:00007fa0       GetRWNames                 10008fa0 f   pwwiff:convmwin.obj
 0001:000080f8       ForeignToRtf32             100090f8 f   pwwiff:convmwin.obj
 0001:000083bc       cbCopyGhToRgch             100093bc f   pwwiff:convmwin.obj
 0001:000083f0       cbGetMoreRtf               100093f0 f   pwwiff:convmwin.obj
 0001:00008508       WriteMoreRtf               10009508 f   pwwiff:convmwin.obj
 0001:00008600       GetReadNames               10009600 f   pwwiff:convmwin.obj
 0001:00008634       GetWriteNames              10009634 f   pwwiff:convmwin.obj
 0001:00008668       PvAllocFixedWin            10009668 f   pwwiff:winheap.obj
 0001:00008674       HAllocWin                  10009674 f   pwwiff:winheap.obj
 0001:000086b4       FReAllocHWin               100096b4 f   pwwiff:winheap.obj
 0001:00008708       FreeHWin                   10009708 f   pwwiff:winheap.obj
 0001:00008734       FreePHWin                  10009734 f   pwwiff:winheap.obj
 0001:00008770       HgAllocWin                 10009770 f   pwwiff:winheap.obj
 0001:00008774       FReAllocHgWin              10009774 f   pwwiff:winheap.obj
 0001:000087cc       LpvLockHgWin               100097cc f   pwwiff:winheap.obj
 0001:000087d4       UnlockHgWin                100097d4 f   pwwiff:winheap.obj
 0001:000087d8       FreeHgWin                  100097d8 f   pwwiff:winheap.obj
 0001:000087f8       my_LoadString              100097f8 f   pwwiff:winlib.obj
 0001:00009ab4       CbUnsToPpch                1000aab4 f   pwwiff:convutil.obj
 0001:00009b0c       CbULongToPpch              1000ab0c f   pwwiff:convutil.obj
 0001:00009b64       CbDiffer                   1000ab64 f   pwwiff:convutil.obj
 0001:00009ba8       shutDown                   1000aba8 f   pwwiff:convutil.obj
 0001:00009c8c       strcpyh                    1000ac8c f   pwwiff:convutil.obj
 0001:00009cc4       NoMemAbortProc             1000acc4 f   pwwiff:convutil.obj
 0001:00009cd0       CallGetMainStream          1000acd0 f   pwwiff:convutil.obj
 0001:00009d10       CbIntToPpch                1000ad10 f   pwwiff:convutil.obj
 0001:00009d94       CbLongToPpchR              1000ad94 f   pwwiff:convutil.obj
 0001:00009e20       FhOpenUnique_NT            1000ae20 f   pwwiff:convio.obj
 0001:00009f04       AllocateFCB                1000af04 f   pwwiff:convio.obj
 0001:0000a020       DisposeFCB                 1000b020 f   pwwiff:convio.obj
 0001:0000a078       FOpenMemoryFn              1000b078 f   pwwiff:convio.obj
 0001:0000a118       FcCurrFn                   1000b118 f   pwwiff:convio.obj
 0001:0000a254       FcMaxFn                    1000b254 f   pwwiff:convio.obj
 0001:0000a31c       _FcSeekFn                  1000b31c f   pwwiff:convio.obj
 0001:0000a418       FIsOpenFn                  1000b418 f   pwwiff:convio.obj
 0001:0000a440       FOpenStmPstgFn             1000b440 f   pwwiff:convio.obj
 0001:0000a510       StgRootFromFn              1000b510 f   pwwiff:convio.obj
 0001:0000a530       FDeleteFn                  1000b530 f   pwwiff:convio.obj
 0001:0000a57c       SetOutBuffer               1000b57c f   pwwiff:convio.obj
 0001:0000a5d4       UnsetOutBuffer             1000b5d4 f   pwwiff:convio.obj
 0001:0000a5d8       SetStreamForTables         1000b5d8 f   pwwiff:convio.obj
 0001:0000a67c       pwoptReadFromBuffer        1000b67c f   pwwiff:convio.obj
 0001:0000a81c       FOpenFn                    1000b81c f   pwwiff:convio.obj
 0001:0000aa1c       _CbReadFn                  1000ba1c f   pwwiff:convio.obj
 0001:0000ab08       _CbWriteFn                 1000bb08 f   pwwiff:convio.obj
 0001:0000ac10       FlushBuffer                1000bc10 f   pwwiff:convio.obj
 0001:0000aca0       FCloseFn                   1000bca0 f   pwwiff:convio.obj
 0001:0000adac       CbReadFn                   1000bdac f   pwwiff:convio.obj
 0001:0000af14       CbWriteFn                  1000bf14 f   pwwiff:convio.obj
 0001:0000b04c       FcSeekFn                   1000c04c f   pwwiff:convio.obj
 0001:0000b104       FCloseAllFiles             1000c104 f   pwwiff:convio.obj
 0001:0000b1d8       FCloseAndDeleteFn          1000c1d8 f   pwwiff:convio.obj
 0001:0000b204       GetCbFcPch                 1000c204 f   pwwiff:convio.obj
 0001:0000b254       UninitConvIO_NT            1000c254 f   pwwiff:convio.obj
 0001:0000b2b4       FInitConvIO_NT             1000c2b4 f   pwwiff:convio.obj
 0001:0000b3ec       InitConversion             1000c3ec f   pwwiff:wptowp.obj
 0001:0000b470       FreeConversion             1000c470 f   pwwiff:wptowp.obj
 0001:0000b4a0       _PchMacBltSz               1000c4a0 f   pwwiff:convcom.obj
 0001:0000b4b8       _ICmpRgb                   1000c4b8 f   pwwiff:convcom.obj
 0001:0000b4fc       _ICmpLpsz                  1000c4fc f   pwwiff:convcom.obj
 0001:0000b538       _PchFindSzCh               1000c538 f   pwwiff:convcom.obj
 0001:0000b560       _PchFindLastSzCh           1000c560 f   pwwiff:convcom.obj
 0001:0000b58c       _PchBltSz                  1000c58c f   pwwiff:convcom.obj
 0001:0000b5a4       _LpchBltLpsz               1000c5a4 f   pwwiff:convcom.obj
 0001:0000b5c4       _SzFromUl                  1000c5c4 f   pwwiff:convcom.obj
 0001:0000b664       _SzFromL                   1000c664 f   pwwiff:convcom.obj
 0001:0000b688       FMakeFileSpec              1000c688 f   pwwiff:winutil.obj
 0001:0000b6c0       FTruncateFileSpec          1000c6c0 f   pwwiff:winutil.obj
 0001:0000b6e0       FileNameSplit              1000c6e0 f   pwwiff:winutil.obj
 0001:0000b898       _AbortProcessing           1000c898 f   pwwiff:winutil.obj
 0001:0000b8b0       HAllocAbort                1000c8b0 f   pwwiff:heap.obj
 0001:0000b8c8       ReAllocHAbort              1000c8c8 f   pwwiff:heap.obj
 0001:0000b8dc       HgAllocAbort               1000c8dc f   pwwiff:heap.obj
 0001:0000b8f4       ReAllocHgAbort             1000c8f4 f   pwwiff:heap.obj
 0001:0000b908       MultiByteToWideChar_WithAlloc 1000c908 f   pwwiff:explicit.obj
 0001:0000b97c       DeleteFileA_Explicit       1000c97c f   pwwiff:explicit.obj
 0001:0000b9b4       RelstrcmpiA                1000c9b4 f   pwwiff:explicit.obj
 0001:0000b9f4       _FhOpenFs_NT               1000c9f4 f   pwwiff:ntloio.obj
 0001:0000bb34       _CbReadFh_NT               1000cb34 f   pwwiff:ntloio.obj
 0001:0000bb64       _CbWriteFh_NT              1000cb64 f   pwwiff:ntloio.obj
 0001:0000bb9c       _FGetConverterDir_NT       1000cb9c f   pwwiff:ntloio.obj
 0001:0000bc90       _FGetTempDir_NT            1000cc90 f   pwwiff:ntloio.obj
 0001:0000bd5c       _FGetPrefsDir_NT           1000cd5c f   pwwiff:ntloio.obj
 0001:0000bddc       FOpenRootStorage_NT        1000cddc f   pwwiff:convdfio.obj
 0001:0000be84       FOpenStorage               1000ce84 f   pwwiff:convdfio.obj
 0001:0000bf08       FCloseDf                   1000cf08 f   pwwiff:convdfio.obj
 0001:0000bfb0       CbReadStm                  1000cfb0 f   pwwiff:convdfio.obj
 0001:0000bfe8       CbWriteStm                 1000cfe8 f   pwwiff:convdfio.obj
 0001:0000c020       FcSeekStm                  1000d020 f   pwwiff:convdfio.obj
 0001:0000c080       FcMaxStm                   1000d080 f   pwwiff:convdfio.obj
 0001:0000c0d8       FOpenStream                1000d0d8 f   pwwiff:convdfio.obj
 0001:0000c27c       FOpenDf_NT                 1000d27c f   pwwiff:convdfio.obj
 0001:0000c3b4       SetOutFn                   1000d3b4 f   pwwiff:convout.obj
 0001:0000c420       OutIszRtf                  1000d420 f   pwwiff:convout.obj
 0001:0000c548       OutIszRtfInt               1000d548 f   pwwiff:convout.obj
 0001:0000c6b0       OutInt                     1000d6b0 f   pwwiff:convout.obj
 0001:0000c78c       OutIszRtfUns               1000d78c f   pwwiff:convout.obj
 0001:0000c8f4       OutIszRtfLong              1000d8f4 f   pwwiff:convout.obj
 0001:0000ca5c       OutLong                    1000da5c f   pwwiff:convout.obj
 0001:0000cb38       OutB                       1000db38 f   pwwiff:convout.obj
 0001:0000cbfc       OutBHex                    1000dbfc f   pwwiff:convout.obj
 0001:0000ccf4       OutSz                      1000dcf4 f   pwwiff:convout.obj
 0001:0000cdf8       OutRgb                     1000ddf8 f   pwwiff:convout.obj
 0001:0000cf10       OutRgbHex                  1000df10 f   pwwiff:convout.obj
 0001:0000d08c       _GetDateTimePdt_Nt         1000e08c f   pwwiff:convtime.obj
 0001:0000d0e4       _FIsDirSz_Win              1000e0e4 f   pwwiff:convwin.obj
 0001:0000d190       PwcsFromSz                 1000e190 f   pwwiff:convwin.obj
 0001:0000d1cc       IszRtfFromSz               1000e1cc f   pwwiff:convtabl.obj
 0001:0000d228       GetszFmrgszRtfSym          1000e228 f   pwwiff:convtabl.obj
 0001:0000d254       WchBinaryLookupWch         1000e254 f   ww6:rwmain.obj
 0001:0000d2bc       WriteTextRun               1000e2bc f   ww6:rwmain.obj
 0001:0000d7c0       WriteClassInfoToFn         1000e7c0 f   ww6:rwmain.obj
 0001:0000d864       WriteFib                   1000e864 f   ww6:rwmain.obj
 0001:0000f5c4       WriteNullSummaryInfo       100105c4 f   ww6:rwmain.obj
 0001:0000f684       WriteNullStylesheet        10010684 f   ww6:rwmain.obj
 0001:0000fc7c       WriteDop                   10010c7c f   ww6:rwmain.obj
 0001:0000fcf0       PushRtfState               10010cf0 f   ww6:rwmain.obj
 0001:0000fdd0       PopRtfState                10010dd0 f   ww6:rwmain.obj
 0001:0000feb0       HandleSpecCharAct          10010eb0 f   ww6:rwmain.obj
 0001:00010178       WriteCmds                  10011178 f   ww6:rwmain.obj
 0001:00010200       CbHexToBin                 10011200 f   ww6:rwmain.obj
 0001:0001025c       AddStyleToStylesheet       1001125c f   ww6:rwmain.obj
 0001:00010344       GetImportedStyleIdx        10011344 f   ww6:rwmain.obj
 0001:0001042c       AddChptoUpx                1001142c f   ww6:rwmain.obj
 0001:00010714       FreeStylesheet             10011714 f   ww6:rwmain.obj
 0001:00010780       ConvertWord6ToWord8        10011780 f   ww6:rwmain.obj
 0001:00010868       WriteLevels                10011868 f   ww6:rwmain.obj
 0001:0001384c       StartWordDocumentGeneration 1001484c f   ww6:rwmain.obj
 0001:00013bc8       EndWordDocumentGeneration  10014bc8 f   ww6:rwmain.obj
 0001:00013c04       FinishStylesheet           10014c04 f   ww6:rwmain.obj
 0001:00014548       HandleRTFDuringWordDocumentGeneration 10015548 f   ww6:rwmain.obj
 0001:000150b4       GetMainStream              100160b4 f   ww6:pvexp.obj
 0001:000150d8       GrfTypeFetch               100160d8 f   ww6:pvexp.obj
 0001:000150e8       RtfVersion                 100160e8 f   ww6:wwrtf.obj
 0001:00015308       Cleanup                    10016308 f   ww6:wwrtf.obj
 0001:00015364       ConvertForeigntoRTFWWord   10016364 f   ww6:wwrtf.obj
 0001:00015b84       GrpprlToProp               10016b84 f   ww6:wrprops.obj
 0001:00015b94       CbReadInPlxInfo            10016b94 f   ww6:wrclx.obj
 0001:00015f68       GetCurPlx                  10016f68 f   ww6:wrclx.obj
 0001:00015fc0       RestorePlx                 10016fc0 f   ww6:wrclx.obj
 0001:00016188       SavePlx                    10017188 f   ww6:wrclx.obj
 0001:0001635c       SavePlxGeneric             1001735c f   ww6:wrclx.obj
 0001:000164f0       RestorePlxGeneric          100174f0 f   ww6:wrclx.obj
 0001:00016674       CpCurPlxInfoCp             10017674 f   ww6:wrclx.obj
 0001:000166bc       CpNextPlxInfoCp            100176bc f   ww6:wrclx.obj
 0001:00016790       GetCurPcd                  10017790 f   ww6:wrclx.obj
 0001:00016a48       ApplyClxGrpprl             10017a48 f   ww6:wrclx.obj
 0001:00016b68       ReadPlx                    10017b68 f   ww6:wrclx.obj
 0001:00016db8       ReadSubdocPlx              10017db8 f   ww6:wrclx.obj
 0001:00016e98       AdvancePlxIndex            10017e98 f   ww6:wrclx.obj
 0001:00016f04       AdvancePiece               10017f04 f   ww6:wrclx.obj
 0001:00017110       CharSetIndexFromChar       10018110 f   ww6:codepage.obj
 0001:000171d8       GetCodePageFromWChar       100181d8 f   ww6:codepage.obj
 0001:00017244       GetCodePageFromCharSet     10018244 f   ww6:codepage.obj
 0001:00017294       ConvertLanguageIDtoCodePage 10018294 f   ww6:codepage.obj
 0001:000172f4       IsLeadByte                 100182f4 f   ww6:codepage.obj
 0001:00017414       IsFECharset                10018414 f   ww6:codepage.obj
 0001:00017448       IsFECodePage               10018448 f   ww6:codepage.obj
 0001:00017490       InitFontTable              10018490 f   ww6:rwfont.obj
 0001:00017590       AddFontToFontTable         10018590 f   ww6:rwfont.obj
 0001:000179c0       FinishFontTable            100189c0 f   ww6:rwfont.obj
 0001:00017a80       InitProps                  10018a80 f   ww6:rwprops.obj
 0001:00017b3c       WriteProps                 10018b3c f   ww6:rwprops.obj
 0001:00018090       FreeProps                  10019090 f   ww6:rwprops.obj
 0001:000180d8       PbMSpecActnProp            100190d8 f   ww6:rwprops.obj
 0001:000192c4       DoSpecRrbActions           1001a2c4 f   ww6:rwprops.obj
 0001:0001b178       chpStySetup                1001c178 f   ww6:rwprops.obj
 0001:0001b228       CbGrpprlFromProp           1001c228 f   ww6:rwprops.obj
 0001:0001b4f8       ApplyPropChange            1001c4f8 f   ww6:rwprops.obj
 0001:0001b758       PropsForNewSect            1001c758 f   ww6:rwprops.obj
 0001:0001b8a0       PropsForNewRun             1001c8a0 f   ww6:rwprops.obj
 0001:0001b960       PropsForNewPara            1001c960 f   ww6:rwprops.obj
 0001:0001ba88       StandardFib                1001ca88 f   ww6:wwutil.obj
 0001:0001bb98       StandardChp                1001cb98 f   ww6:wwutil.obj
 0001:0001bc7c       StandardPap                1001cc7c f   ww6:wwutil.obj
 0001:0001bd94       StandardPic                1001cd94 f   ww6:wwutil.obj
 0001:0001bdf8       AddTbdToPap                1001cdf8 f   ww6:wwutil.obj
 0001:0001be20       StandardSep                1001ce20 f   ww6:wwutil.obj
 0001:0001c13c       StandardDop                1001d13c f   ww6:wwutil.obj
 0001:0001c184       FParaEq                    1001d184 f   ww6:wwutil.obj
 0001:0001c1a0       CopyPap                    1001d1a0 f   ww6:wwutil.obj
 0001:0001c1a8       FreePap                    1001d1a8 f   ww6:wwutil.obj
 0001:0001c1ac       StandardTap                1001d1ac f   ww6:wwutil.obj
 0001:0001c1b8       OutIszRtfSpace             1001d1b8 f   ww6:wwutil.obj
 0001:0001c1e4       InitFieldMap               1001d1e4 f   ww6:wwutil.obj
 0001:0001ce64       CleanupFieldMap            1001de64 f   ww6:wwutil.obj
 0001:0001ce98       InitMiscStr                1001de98 f   ww6:wwutil.obj
 0001:0001d6d0       CleanupMiscStr             1001e6d0 f   ww6:wwutil.obj
 0001:0001d704       PadFnToFc                  1001e704 f   ww6:wwutil.obj
 0001:0001d78c       InitScanner                1001e78c f   ww6:rtfscan.obj
 0001:0001d790       ChNextRtf                  1001e790 f   ww6:rtfscan.obj
 0001:0001d7d0       IFromHexPair               1001e7d0 f   ww6:rtfscan.obj
 0001:0001d878       GetDataToken               1001e878 f   ww6:rtfscan.obj
 0001:0001d980       LParamFromStream           1001e980 f   ww6:rtfscan.obj
 0001:0001da08       GetBinToken                1001ea08 f   ww6:rtfscan.obj
 0001:0001db0c       GetKeywordToken            1001eb0c f   ww6:rtfscan.obj
 0001:0001dd28       GetBSObject                1001ed28 f   ww6:rtfscan.obj
 0001:0001dec8       GetToken                   1001eec8 f   ww6:rtfscan.obj
 0001:0001e104       InitFieldPlc               1001f104 f   ww6:rwfield.obj
 0001:0001e120       FieldBegin                 1001f120 f   ww6:rwfield.obj
 0001:0001e1cc       FieldSeparate              1001f1cc f   ww6:rwfield.obj
 0001:0001e26c       FieldEnd                   1001f26c f   ww6:rwfield.obj
 0001:0001e30c       WriteFieldPlc              1001f30c f   ww6:rwfield.obj
 0001:0001e398       InitDataStream             1001f398 f   ww6:rwpic.obj
 0001:0001e40c       FcWriteDataStream          1001f40c f   ww6:rwpic.obj
 0001:0001e4a0       TermDataStream             1001f4a0 f   ww6:rwpic.obj
 0001:0001e4a8       NewPicture                 1001f4a8 f   ww6:rwpic.obj
 0001:0001e560       WritePictureData           1001f560 f   ww6:rwpic.obj
 0001:0001e5bc       EndPicture                 1001f5bc f   ww6:rwpic.obj
 0001:0001e830       NewObject                  1001f830 f   ww6:rwpic.obj
 0001:0001e880       CacheObjInfo               1001f880 f   ww6:rwpic.obj
 0001:0001e934       WriteObjectInfo            1001f934 f   ww6:rwpic.obj
 0001:0001ecdc       WriteObjectData            1001fcdc f   ww6:rwpic.obj
 0001:0001ed30       EndObjectData              1001fd30 f   ww6:rwpic.obj
 0001:0001edb4       EndObject                  1001fdb4 f   ww6:rwpic.obj
 0001:0001ede0       InitColorTable             1001fde0 f   ww6:rwcolor.obj
 0001:0001ee04       AddColorTableEntry         1001fe04 f   ww6:rwcolor.obj
 0001:0001ef50       FreeColorTable             1001ff50 f   ww6:rwcolor.obj
 0001:0001ef6c       FGetRsymForIsz             1001ff6c f   ww6:ct_rtfww.obj
 0001:0001efdc       StyleCodeInfoToRTF         1001ffdc f   ww6:wrinit.obj
 0001:0001f00c       RevTableToRtf              1002000c f   ww6:wrinit.obj
 0001:0001f148       CleanupPlxInfoHandles      10020148 f   ww6:wrinit.obj
 0001:0001f1c0       EmitColorInfo              100201c0 f   ww6:wrinit.obj
 0001:0001f204       EmitFontInfo               10020204 f   ww6:wrinit.obj
 0001:0001f3f8       IReadRgCpUntil             100203f8 f   ww6:wrinit.obj
 0001:0001f54c       ReadBtePlx                 1002054c f   ww6:wrinit.obj
 0001:0001f6c4       ReadSepx                   100206c4 f   ww6:wrinit.obj
 0001:0001f864       ColorTableToRTF            10020864 f   ww6:wrinit.obj
 0001:0001f994       FontTableToRTF             10020994 f   ww6:wrinit.obj
 0001:0001fbfc       ReadClx                    10020bfc f   ww6:wrinit.obj
 0001:00022848       ReadInputPlxs              10023848 f   ww6:wrinit.obj
 0001:00022dec       InitStyCache               10023dec f   ww6:style.obj
 0001:00022e34       DeinitStyCache             10023e34 f   ww6:style.obj
 0001:00022e90       FIstdHasSty                10023e90 f   ww6:style.obj
 0001:00022ee4       LpstyLockIstd              10023ee4 f   ww6:style.obj
 0001:00022f14       UnlockIstd                 10023f14 f   ww6:style.obj
 0001:00022f44       GetStyleUPX                10023f44 f   ww6:style.obj
 0001:0002308c       ApplyStyle                 1002408c f   ww6:style.obj
 0001:00023180       AllocIstd                  10024180 f   ww6:style.obj
 0001:000231f8       ReAllocDataIstd            100241f8 f   ww6:style.obj
 0001:00023260       BuildOneStyle              10024260 f   ww6:style.obj
 0001:0002353c       BuildAllStyles             1002453c f   ww6:style.obj
 0001:000235d8       CacheStyles                100245d8 f   ww6:style.obj
 0001:0002382c       FInitFontCache             1002482c f   ww6:fontmap.obj
 0001:0002385c       CacheFontChs               1002485c f   ww6:fontmap.obj
 0001:000238f8       FreeFontCache              100248f8 f   ww6:fontmap.obj
 0001:00023920       EmitTemplate               10024920 f   ww6:wwrtfin.obj
 0001:00023aa4       EmitDopRtfFromSep          10024aa4 f   ww6:wwrtfin.obj
 0001:00023b50       EmitDatafield              10024b50 f   ww6:wwrtfin.obj
 0001:00023cc4       FEmptyRc                   10024cc4 f   ww6:wwrtfin.obj
 0001:00023d14       GetSzFontForIftc           10024d14 f   ww6:wwrtfin.obj
 0001:00023f2c       StartField                 10024f2c f   ww6:wwrtfin.obj
 0001:00023f64       FinishField                10024f64 f   ww6:wwrtfin.obj
 0001:00023f94       InitMpchrcidSpec           10024f94 f   ww6:wwrtfin.obj
 0001:00024064       FFakeWmfPict               10025064 f   ww6:wwrtfin.obj
 0001:00024168       OutputFixedSizePlaceholder 10025168 f   ww6:wwrtfin.obj
 0001:000241d4       SetCbCh                    100251d4 f   ww6:wwrtfin.obj
 0001:000242e0       EmitMetafileAsDIB          100252e0 f   ww6:wwrtfin.obj
 0001:00024608       FEmitPic                   10025608 f   ww6:wwrtfin.obj
 0001:00024800       GenField                   10025800 f   ww6:wwrtfin.obj
 0001:00024870       CchOutputPlxText           10025870 f   ww6:wwrtfin.obj
 0001:00025dac       OutputHdd                  10026dac f   ww6:wwrtfin.obj
 0001:000260a0       RtfOut                     100270a0 f   ww6:wwrtfin.obj
 0001:00026764       HplcAlloc                  10027764 f   ww6:rwplc.obj
 0001:00026884       FGetRecForIrecOnHplc       10027884 f   ww6:rwplc.obj
 0001:00026938       FPutRecForIrecOnHplc       10027938 f   ww6:rwplc.obj
 0001:000269e8       CrecForHplc                100279e8 f   ww6:rwplc.obj
 0001:00026a18       LcbWriteHplcFc             10027a18 f   ww6:rwplc.obj
 0001:00026b48       FreeHplc                   10027b48 f   ww6:rwplc.obj
 0001:00026bc0       ExpandHplcByCrec           10027bc0 f   ww6:rwplc.obj
 0001:00026ce8       AddRecAtCpOnHplc           10027ce8 f   ww6:rwplc.obj
 0001:00026e60       TermAtCpOnHplc             10027e60 f   ww6:rwplc.obj
 0001:00026f3c       HfkplAlloc                 10027f3c f   ww6:rwfkp.obj
 0001:000270ac       CfkpWriteHfkplPn           100280ac f   ww6:rwfkp.obj
 0001:000272c8       FreeHfkpl                  100282c8 f   ww6:rwfkp.obj
 0001:00027340       InsertFcOnHfkpl            10028340 f   ww6:rwfkp.obj
 0001:00027444       TerminateHfkpl             10028444 f   ww6:rwfkp.obj
 0001:00027498       AddRunOnHfkpl              10028498 f   ww6:rwfkp.obj
 0001:0002771c       IszFromImpVal              1002871c f   ww6:ct_wwrtf.obj
 0001:00027750       IszFromTlc                 10028750 f   ww6:ct_wwrtf.obj
 0001:00027760       IszFromTjc                 10028760 f   ww6:ct_wwrtf.obj
 0001:00027770       IszFromIbrcImpibrcisz      10028770 f   ww6:ct_wwrtf.obj
 0001:000277b8       IszFromIhdt                100287b8 f   ww6:ct_wwrtf.obj
 0001:000277cc       IszFromIpat                100287cc f   ww6:ct_wwrtf.obj
 0001:000277e0       IszFromClIpat              100287e0 f   ww6:ct_wwrtf.obj
 0001:000277f4       GetiszFmmpirrbisz          100287f4 f   ww6:ct_wwrtf.obj
 0001:00027808       GetrrbFmrgrrb              10028808 f   ww6:ct_wwrtf.obj
 0001:00027844       GetSprmPropFmSprm          10028844 f   ww6:ct_wwrtf.obj
 0001:00027948       OutRgchMixedCs             10028948 f   ww6:xchar.obj
 0001:000279e4       OutXch                     100289e4 f   ww6:xchar.obj
 0001:00027a14       OutRgxch                   10028a14 f   ww6:xchar.obj
 0001:00027aac       PropToRtf                  10028aac f   ww6:wwrtfou.obj
 0001:00027cc8       GetRtfBrcsForItc           10028cc8 f   ww6:wwrtfou.obj
 0001:00027e60       GetRtfBrcsForItc97         10028e60 f   ww6:wwrtfou.obj
 0001:00027f84       FPropToRtfSpec             10028f84 f   ww6:wwrtfou.obj
 0001:00029db8       GetNextSep                 1002adb8 f   ww6:wrfile.obj
 0001:0002a058       ReadFkp                    1002b058 f   ww6:wrfile.obj
 0001:0002a104       ChFindTermInPiece          1002b104 f   ww6:wrfile.obj
 0001:0002a2ac       LoadandIndexFkp            1002b2ac f   ww6:wrfile.obj
 0001:0002a690       ApplyCurFkpProps           1002b690 f   ww6:wrfile.obj
 0001:0002a880       GetNextChp                 1002b880 f   ww6:wrfile.obj
 0001:0002aa1c       FFindNextEndPar            1002ba1c f   ww6:wrfile.obj
 0001:0002ac18       GetNextPap                 1002bc18 f   ww6:wrfile.obj
 0001:0002b1c8       GetNextRef                 1002c1c8 f   ww6:wrfile.obj
 0001:0002b438       GetNextFtn                 1002c438 f   ww6:wrfile.obj
 0001:0002b484       GetNextEdn                 1002c484 f   ww6:wrfile.obj
 0001:0002b4d0       GetNextAtn                 1002c4d0 f   ww6:wrfile.obj
 0001:0002b518       EmitFld                    1002c518 f   ww6:wrfield.obj
 0001:0002baf0       FSkipFldCh                 1002caf0 f   ww6:wrfield.obj
 0001:0002c0f4       FGetFldr                   1002d0f4 f   ww6:wrfield.obj
 0001:0002c344       XlatChrFmt                 1002d344 f   ww6:wrfield.obj
 0001:0002c4b8       XlatFldPic                 1002d4b8 f   ww6:wrfield.obj
 0001:0002c9c0       EmitSubscriberData         1002d9c0 f   ww6:wrfield.obj
 0001:0002cbfc       EmitSpecFld                1002dbfc f   ww6:wrfield.obj
 0001:0002cd10       ParseFld                   1002dd10 f   ww6:wrfield.obj
 0001:0002cfd8       GetAnmLpchText             1002dfd8 f   ww6:wrlist.obj
 0001:0002d0e8       OutFormatUlNfc             1002e0e8 f   ww6:wrlist.obj
 0001:0002d5d4       ResetRgpnacc               1002e5d4 f   ww6:wrlist.obj
 0001:0002d604       HrgpnaccSaveAndClear       1002e604 f   ww6:wrlist.obj
 0001:0002d6ac       RestoreHrgpnacc            1002e6ac f   ww6:wrlist.obj
 0001:0002d6f4       ApplyPnProps               1002e6f4 f   ww6:wrlist.obj
 0001:0002d7f4       DumpPnProps                1002e7f4 f   ww6:wrlist.obj
 0001:0002d838       OutputParaNumbering        1002e838 f   ww6:wrlist.obj
 0001:0002de98       AllocOLF                   1002ee98 f   ww6:ole.obj
 0001:0002dfec       GetObjInfo                 1002efec f   ww6:ole.obj
 0001:0002e0a0       FSkipOleFldCh              1002f0a0 f   ww6:ole.obj
 0001:0002e5b8       OutputPlaceholderForOleObjectPicture 1002f5b8 f   ww6:ole.obj
 0001:0002e7ac       EmitOleFldToRtf            1002f7ac f   ww6:ole.obj
 0001:0002e804       HgrAllocAbort              1002f804 f   ww6:hgresize.obj
 0001:0002e8cc       FreeHgr                    1002f8cc f   ww6:hgresize.obj
 0001:0002e924       HpvLockHgrIrec             1002f924 f   ww6:hgresize.obj
 0001:0002e9ec       UnlockHgr                  1002f9ec f   ww6:hgresize.obj
 0001:0002ea44       FGetIrecFromHgr            1002fa44 f   ww6:hgresize.obj
 0001:0002eaa4       PutIrecIntoHgr             1002faa4 f   ww6:hgresize.obj
 0001:0002eae0       Shdt                       1002fae0 f   ww6:shading.obj
 0001:0002eb14       Pctx10FromShd              1002fb14 f   ww6:shading.obj
 0001:0002eb6c       CbCmNeeded                 1002fb6c f   chmap:chmap.obj
 0001:0002ebb0       GenCm                      1002fbb0 f   chmap:chmap.obj
 0001:0002ec98       MapRguch                   1002fc98 f   chmap:chmap.obj
 0001:0002ecf0       ImpFindMap                 1002fcf0 f   chmap:chmpnods.obj
 0001:0002f078       UchFromImpUch              10030078 f   chmap:chmpnods.obj
 0001:0002f328       StgCreateDocfile           10030328 f   ole32:ole32.dll
 0001:0002f338       StgOpenStorage             10030338 f   ole32:ole32.dll
 0001:0002f348       WriteClassStg              10030348 f   ole32:ole32.dll
 0001:0002f358       MessageBoxW                10030358 f   coredll:COREDLL.dll
 0001:0002f368       LoadStringW                10030368 f   coredll:COREDLL.dll
 0001:0002f378       LocalFree                  10030378 f   coredll:COREDLL.dll
 0001:0002f388       LocalAlloc                 10030388 f   coredll:COREDLL.dll
 0001:0002f398       LocalSize                  10030398 f   coredll:COREDLL.dll
 0001:0002f3a8       StringCchPrintfA           100303a8 f   coredll:COREDLL.dll
 0001:0002f3b8       SetFilePointer             100303b8 f   coredll:COREDLL.dll
 0001:0002f3c8       GetFileSize                100303c8 f   coredll:COREDLL.dll
 0001:0002f3d8       CloseHandle                100303d8 f   coredll:COREDLL.dll
 0001:0002f3e8       MultiByteToWideChar        100303e8 f   coredll:COREDLL.dll
 0001:0002f3f8       CreateFileW                100303f8 f   coredll:COREDLL.dll
 0001:0002f408       WideCharToMultiByte        10030408 f   coredll:COREDLL.dll
 0001:0002f418       DeleteFileW                10030418 f   coredll:COREDLL.dll
 0001:0002f428       ReadFile                   10030428 f   coredll:COREDLL.dll
 0001:0002f438       WriteFile                  10030438 f   coredll:COREDLL.dll
 0001:0002f448       GetModuleFileNameW         10030448 f   coredll:COREDLL.dll
 0001:0002f458       GetTempPathW               10030458 f   coredll:COREDLL.dll
 0001:0002f468       GetLocalTime               10030468 f   coredll:COREDLL.dll
 0001:0002f478       GetFileAttributesW         10030478 f   coredll:COREDLL.dll
 0001:0002f488       RegisterClipboardFormatW   10030488 f   coredll:COREDLL.dll
 0001:0002f498       GetACP                     10030498 f   coredll:COREDLL.dll
 0001:0002f4a8       LocalReAlloc               100304a8 f   coredll:COREDLL.dll
 0001:0002f4b8       IsDBCSLeadByte             100304b8 f   coredll:COREDLL.dll
 0001:0002f5b0       _cexit                     100305b0 f   corelib0:cexit.obj
 0001:0002f5c0       _initterm                  100305c0 f   corelib0:crt0dat.obj
 0001:0002f5ec       _cinit                     100305ec f   corelib0:crt0dat.obj
 0001:0002f64c       __GSHandlerCheckCommon     1003064c f   corelib0:gshandler.obj
 0001:0002f688       __GSHandlerCheck           10030688 f   corelib0:gshandler.obj
 0001:0002f6a8       __security_check_cookie    100306a8 f   corelib0:armsecgs.obj
 0001:0002f6b8       __gsfailure                100306b8     corelib0:armsecgs.obj
 0001:0002f6fc       __crt_ExitProcess          100306fc f   corelib0:exitproc_proxy.obj
 0001:0002f708       memcmp                     10030708 f   corelib1:COREDLL.dll
 0001:0002f718       _purecall                  10030718 f   corelib1:COREDLL.dll
 0001:0002f728       ??3@YAXPAX@Z               10030728 f   corelib1:COREDLL.dll
 0001:0002f738       memcpy                     10030738 f   corelib1:COREDLL.dll
 0001:0002f748       ??2@YAPAXI@Z               10030748 f   corelib1:COREDLL.dll
 0001:0002f758       setjmp                     10030758 f   corelib1:COREDLL.dll
 0001:0002f768       strlen                     10030768 f   corelib1:COREDLL.dll
 0001:0002f778       strcat                     10030778 f   corelib1:COREDLL.dll
 0001:0002f788       memset                     10030788 f   corelib1:COREDLL.dll
 0001:0002f798       longjmp                    10030798 f   corelib1:COREDLL.dll
 0001:0002f7a8       tolower                    100307a8 f   corelib1:COREDLL.dll
 0001:0002f7b8       strcpy                     100307b8 f   corelib1:COREDLL.dll
 0001:0002f7c8       free                       100307c8 f   corelib1:COREDLL.dll
 0001:0002f7d8       malloc                     100307d8 f   corelib1:COREDLL.dll
 0001:0002f7e8       memmove                    100307e8 f   corelib1:COREDLL.dll
 0001:0002f7f8       strncpy                    100307f8 f   corelib1:COREDLL.dll
 0001:0002f808       atoi                       10030808 f   corelib1:COREDLL.dll
 0001:0002f818       __report_gsfailure         10030818 f   corelib1:COREDLL.dll
 0001:0002f828       DeleteCriticalSection      10030828 f   coredll:COREDLL.dll
 0001:0002f838       InterlockedExchange        10030838 f   coredll:COREDLL.dll
 0001:0002f848       TerminateProcess           10030848 f   coredll:COREDLL.dll
 0001:0002f954       __IMPORT_DESCRIPTOR_ole32  10030954     ole32:ole32.dll
 0001:0002f968       __IMPORT_DESCRIPTOR_COREDLL 10030968     coredll:COREDLL.dll
 0001:0002f97c       __NULL_IMPORT_DESCRIPTOR   1003097c     ole32:ole32.dll
 0002:00000000       __imp_GetACP               10031000     coredll:COREDLL.dll
 0002:00000004       __imp_TerminateProcess     10031004     coredll:COREDLL.dll
 0002:00000008       __imp_InterlockedExchange  10031008     coredll:COREDLL.dll
 0002:0000000c       __imp_MessageBoxW          1003100c     coredll:COREDLL.dll
 0002:00000010       __imp_LoadStringW          10031010     coredll:COREDLL.dll
 0002:00000014       __imp_LocalFree            10031014     coredll:COREDLL.dll
 0002:00000018       __imp_LocalAlloc           10031018     coredll:COREDLL.dll
 0002:0000001c       __imp_LocalSize            1003101c     coredll:COREDLL.dll
 0002:00000020       __imp_StringCchPrintfA     10031020     coredll:COREDLL.dll
 0002:00000024       __imp_SetFilePointer       10031024     coredll:COREDLL.dll
 0002:00000028       __imp_GetFileSize          10031028     coredll:COREDLL.dll
 0002:0000002c       __imp_CloseHandle          1003102c     coredll:COREDLL.dll
 0002:00000030       __imp_MultiByteToWideChar  10031030     coredll:COREDLL.dll
 0002:00000034       __imp_CreateFileW          10031034     coredll:COREDLL.dll
 0002:00000038       __imp_WideCharToMultiByte  10031038     coredll:COREDLL.dll
 0002:0000003c       __imp_DeleteFileW          1003103c     coredll:COREDLL.dll
 0002:00000040       __imp_ReadFile             10031040     coredll:COREDLL.dll
 0002:00000044       __imp_WriteFile            10031044     coredll:COREDLL.dll
 0002:00000048       __imp_GetModuleFileNameW   10031048     coredll:COREDLL.dll
 0002:0000004c       __imp_GetTempPathW         1003104c     coredll:COREDLL.dll
 0002:00000050       __imp_GetLocalTime         10031050     coredll:COREDLL.dll
 0002:00000054       __imp_GetFileAttributesW   10031054     coredll:COREDLL.dll
 0002:00000058       __imp_RegisterClipboardFormatW 10031058     coredll:COREDLL.dll
 0002:0000005c       __imp_LocalReAlloc         1003105c     coredll:COREDLL.dll
 0002:00000060       __imp_IsDBCSLeadByte       10031060     coredll:COREDLL.dll
 0002:00000064       __imp_memcmp               10031064     corelib1:COREDLL.dll
 0002:00000068       __imp__purecall            10031068     corelib1:COREDLL.dll
 0002:0000006c       __imp_??3@YAXPAX@Z         1003106c     corelib1:COREDLL.dll
 0002:00000070       __imp_memcpy               10031070     corelib1:COREDLL.dll
 0002:00000074       __imp_??2@YAPAXI@Z         10031074     corelib1:COREDLL.dll
 0002:00000078       __imp_setjmp               10031078     corelib1:COREDLL.dll
 0002:0000007c       __imp___rt_udiv            1003107c     corelib1:COREDLL.dll
 0002:00000080       __imp___rt_sdiv            10031080     corelib1:COREDLL.dll
 0002:00000084       __imp_strlen               10031084     corelib1:COREDLL.dll
 0002:00000088       __imp_strcat               10031088     corelib1:COREDLL.dll
 0002:0000008c       __imp_memset               1003108c     corelib1:COREDLL.dll
 0002:00000090       __imp_longjmp              10031090     corelib1:COREDLL.dll
 0002:00000094       __imp_tolower              10031094     corelib1:COREDLL.dll
 0002:00000098       __imp_strcpy               10031098     corelib1:COREDLL.dll
 0002:0000009c       __imp_free                 1003109c     corelib1:COREDLL.dll
 0002:000000a0       __imp_malloc               100310a0     corelib1:COREDLL.dll
 0002:000000a4       __imp_memmove              100310a4     corelib1:COREDLL.dll
 0002:000000a8       __imp_strncpy              100310a8     corelib1:COREDLL.dll
 0002:000000ac       __imp_atoi                 100310ac     corelib1:COREDLL.dll
 0002:000000b0       __imp___report_gsfailure   100310b0     corelib1:COREDLL.dll
 0002:000000b4       __imp_DeleteCriticalSection 100310b4     coredll:COREDLL.dll
 0002:000000b8       \177COREDLL_NULL_THUNK_DATA 100310b8     coredll:COREDLL.dll
 0002:000000bc       __imp_WriteClassStg        100310bc     ole32:ole32.dll
 0002:000000c0       __imp_StgOpenStorage       100310c0     ole32:ole32.dll
 0002:000000c4       __imp_StgCreateDocfile     100310c4     ole32:ole32.dll
 0002:000000c8       \177ole32_NULL_THUNK_DATA  100310c8     ole32:ole32.dll
 0002:000000d0       ?pszwContents@@3PAGA       100310d0     pwwiff:pww_ce.obj
 0002:000000d4       host                       100310d4     pwwiff:convmwin.obj
 0002:000000ec       szWinIni                   100310ec     pwwiff:winlib.obj
 0002:000000f4       szConvIni                  100310f4     pwwiff:winlib.obj
 0002:00000104       szRegPath                  10031104     pwwiff:winlib.obj
 0002:0000010c       szRegExtensions            1003110c     pwwiff:winlib.obj
 0002:00000118       szRegName                  10031118     pwwiff:winlib.obj
 0002:00000120       szRegOptions               10031120     pwwiff:winlib.obj
 0002:00000128       szRegGraphicsFilters       10031128     pwwiff:winlib.obj
 0002:0000013c       szRegSharedToolsGraphicsFilters 1003113c     pwwiff:winlib.obj
 0002:00000170       szRegSharedTools           10031170     pwwiff:winlib.obj
 0002:00000190       szRegImport                10031190     pwwiff:winlib.obj
 0002:00000198       szRegExport                10031198     pwwiff:winlib.obj
 0002:000001a0       szCRLF                     100311a0     pwwiff:global.obj
 0002:000001a4       szNil                      100311a4     pwwiff:global.obj
 0002:000001a8       hszNil                     100311a8     pwwiff:global.obj
 0002:000001ac       rgPicChar                  100311ac     pwwiff:global.obj
 0002:000001dc       mpErrorOpusError           100311dc     pwwiff:convutil.obj
 0002:00000204       szRTFCompare               10031204     pwwiff:convio.obj
 0002:00000210       vfNeedOleInit              10031210     pwwiff:convdfio.obj
 0002:00000214       fSpaceOn                   10031214     pwwiff:convout.obj
 0002:00000218       fnOutCur                   10031218     pwwiff:convout.obj
 0002:00000220       cDayMonth                  10031220     pwwiff:convtime.obj
 0002:0000023c       szCFWordDoc                1003123c     ww6:rwmain.obj
 0002:00000250       szStiNormal                10031250     ww6:rwmain.obj
 0002:00000258       szStiNormalChar            10031258     ww6:rwmain.obj
 0002:00000270       szStiHeading               10031270     ww6:rwmain.obj
 0002:00000278       rgwchFromPub1252           10031278     ww6:rwmain.obj
 0002:000002d8       szVersion                  100312d8     ww6:wwrtf.obj
 0002:000002e0       rgidxCHP                   100312e0     ww6:rwprops.obj
 0002:00000300       rgidxPAP                   10031300     ww6:rwprops.obj
 0002:00000330       rgidxSEP                   10031330     ww6:rwprops.obj
 0002:0000033c       rgidxTAP                   1003133c     ww6:rwprops.obj
 0002:00000348       mplvlonpnfmt               10031348     ww6:wwutil.obj
 0002:00000368       rgfmpDefault               10031368     ww6:fontmap.obj
 0002:00000518       byPlaceholder              10031518     ww6:wwrtfin.obj
 0002:000005c8       szPlaceholderLeadRTF       100315c8     ww6:wwrtfin.obj
 0002:00000624       szMrgData                  10031624     ww6:wwrtfin.obj
 0002:0000062c       rgfkpd                     1003162c     ww6:rwfkp.obj
 0002:00000644       rgiszTapJust               10031644     ww6:wwrtfou.obj
 0002:0000064c       rgiszClBrdr                1003164c     ww6:wwrtfou.obj
 0002:00000654       rgszOrdOnes                10031654     ww6:wrlist.obj
 0002:0000067c       rgszCardOnes               1003167c     ww6:wrlist.obj
 0002:000006a4       rgszOrdTeens               100316a4     ww6:wrlist.obj
 0002:000006cc       rgszCardTeens              100316cc     ww6:wrlist.obj
 0002:000006f4       rgszOrdTens                100316f4     ww6:wrlist.obj
 0002:00000718       rgszCardTens               10031718     ww6:wrlist.obj
 0002:0000073c       szHundredth                1003173c     ww6:wrlist.obj
 0002:00000740       szHundred                  10031740     ww6:wrlist.obj
 0002:00000744       szThousandth               10031744     ww6:wrlist.obj
 0002:00000748       szThousand                 10031748     ww6:wrlist.obj
 0002:0000074c       szObjPool                  1003174c     ww6:ole.obj
 0002:00000758       szObjInfo                  10031758     ww6:ole.obj
 0002:00000764       szPresMeta                 10031764     ww6:ole.obj
 0002:0000076c       szPresPict                 1003176c     ww6:ole.obj
 0002:00000774       szPic                      10031774     ww6:ole.obj
 0002:0000077c       szWordPicture              1003177c     ww6:ole.obj
 0002:0000078c       STREAM_COPYALL             1003178c     ww6:ole.obj
 0002:00000794       cpgDefault                 10031794     chmap:chmap.obj
 0002:000007a4       __security_cookie          100317a4     corelib0:seccinit.obj
 0002:000007a8       __security_cookie_complement 100317a8     corelib0:seccinit.obj
 0002:000007c0       vfHeapOk                   100317c0     pwwiff:initcnt.obj
 0002:000007c4       vfInit                     100317c4     pwwiff:initcnt.obj
 0002:000007c8       ?g_pWriteConverter@@3PAVIWriteConverter@@A 100317c8     pwwiff:pww_ce.obj
 0002:000007cc       ?g_pData@@3PAEA            100317cc     pwwiff:pww_ce.obj
 0002:000007d0       ?g_ThisDll@@3VCThisDll@@A  100317d0     pwwiff:pww_ce.obj
 0002:000007dc       ?g_cfThisDll@@3PAVCThisDllClassFactory@@A 100317dc     pwwiff:pww_ce.obj
 0002:0000081c       cbRtfLeft                  1003181c     pwwiff:convmwin.obj
 0002:00000820       cbRtfInTotal               10031820     pwwiff:convmwin.obj
 0002:00000824       fEndOfRtf                  10031824     pwwiff:convmwin.obj
 0002:00000828       vjb                        10031828     pwwiff:convmwin.obj
 0002:0000085c       vinBuffer                  1003185c     pwwiff:global.obj
 0002:00000860       vpinBuffer                 10031860     pwwiff:global.obj
 0002:00000864       vpinBufferLimit            10031864     pwwiff:global.obj
 0002:00000868       vpinBufferLim              10031868     pwwiff:global.obj
 0002:0000086c       vfoutBufferLocked          1003186c     pwwiff:global.obj
 0002:00000870       fnoStylePrompt             10031870     pwwiff:global.obj
 0002:00000874       foperateSilent             10031874     pwwiff:global.obj
 0002:00000878       foverWrite                 10031878     pwwiff:global.obj
 0002:0000087c       fConvertMerge              1003187c     pwwiff:global.obj
 0002:00000880       fSSCreate                  10031880     pwwiff:global.obj
 0002:00000884       fForceMerge                10031884     pwwiff:global.obj
 0002:00000888       fSawAlias                  10031888     pwwiff:global.obj
 0002:0000088c       fWroteEndPara              1003188c     pwwiff:global.obj
 0002:00000890       fKeyCode                   10031890     pwwiff:global.obj
 0002:00000894       fEndnO                     10031894     pwwiff:global.obj
 0002:00000898       pdttm                      10031898     pwwiff:global.obj
 0002:0000089c       fIntlMetric                1003189c     pwwiff:global.obj
 0002:000008a0       vfComplex                  100318a0     pwwiff:global.obj
 0002:000008b4       vnCnvType                  100318b4     ww6:wwutil.obj
 0002:00000d08       vfcLastBrace               10031d08     ww6:wwrtfou.obj
 0002:00000d0c       fDateStartQuote            10031d0c     ww6:wrfield.obj
 0002:00000d10       fDateEndQuote              10031d10     ww6:wrfield.obj
 0002:00000d14       fOleStreamInit             10031d14     ww6:ole.obj
 0002:00000d18       _exitflag                  10031d18     corelib0:cexit.obj
 0002:00000d20       wcsName                    10031d20     <common>
 0002:00000f20       pbBufferMin                10031f20     <common>
 0002:00000f24       pcbBufferCurr              10031f24     <common>
 0002:00000f28       pcbBufferMac               10031f28     <common>
 0002:00000f2c       pfWriting                  10031f2c     <common>
 0002:00000f30       vgrf                       10031f30     <common>
 0002:00000f34       fnStreamForTables          10031f34     <common>
 0002:00000f38       fnStreamForData            10031f38     <common>
 0002:00000f40       g_BufferData               10031f40     <common>
 0002:00000f80       vrghfcbs                   10031f80     <common>
 0002:00001060       vrgdirs                    10032060     <common>
 0002:00001074       vifldsTop                  10032074     <common>
 0002:00001080       vrgchFldName               10032080     <common>
 0002:0000109c       vcpAtnPlxFirst             1003209c     <common>
 0002:000010a0       iFldCharFmt                100320a0     <common>
 0002:000010a4       fRtfFormatChecked          100320a4     <common>
 0002:000010b0       vpcdLast                   100320b0     <common>
 0002:000010bc       vcpHFPlxFirst              100320bc     <common>
 0002:000010c0       rgchFldCharFmt             100320c0     <common>
 0002:000010e0       cEntriesCur                100320e0     <common>
 0002:00001100       rgMiscStr                  10032100     <common>
 0002:000012c0       rgPlxInfo                  100322c0     <common>
 0002:00001720       hrgPlxSave                 10032720     <common>
 0002:00001740       ObjPicInfo                 10032740     <common>
 0002:00001754       vprebl                     10032754     <common>
 0002:00001758       vcpEdnPlxFirst             10032758     <common>
 0002:0000175c       cpSepNext                  1003275c     <common>
 0002:00001760       fLoseResult                10032760     <common>
 0002:00001764       vichFldName                10032764     <common>
 0002:00001768       fForeignToRtf              10032768     <common>
 0002:0000176c       vcpHdrTxbxPlxFirst         1003276c     <common>
 0002:00001780       vrgfldsStk                 10032780     <common>
 0002:000018c0       vcpFtnPlxFirst             100328c0     <common>
 0002:000018c4       hrgCpSave                  100328c4     <common>
 0002:000018e0       rgFieldMap                 100328e0     <common>
 0002:00001b88       vfldsCur                   10032b88     <common>
 0002:00001ba0       PapxFkp                    10032ba0     <common>
 0002:00001dc0       pInfoFields                10032dc0     <common>
 0002:00001de0       vribl                      10032de0     <common>
 0002:0000372c       vParseFld                  1003472c     <common>
 0002:00003730       fRtfToForeign              10034730     <common>
 0002:00003740       ChpxFkp                    10034740     <common>
 0002:00003950       vcpTxbxPlxFirst            10034950     <common>
 0002:00003954       vfHadSlashFld              10034954     <common>
 0002:00003958       g_bReadWord6               10034958     <common>
 0002:0000395c       vghszSubset                1003495c     <common>
 0002:00003960       hInstance                  10034960     <common>
 0002:00003964       vszModule                  10034964     <common>
 0002:00003968       hWndCaller                 10034968     <common>
 0002:00003980       rggr                       10034980     <common>
 0002:000039c0       vfMacPictOnly              100349c0     <common>
 0002:000039e0       g_rgpnaccHeading           100349e0     <common>
 0002:00003a00       fldbkmref                  10034a00     <common>
 0002:00003a1e       fldrEnd                    10034a1e     <common>
 0002:00003a20       cpFldBegin                 10034a20     <common>
 0002:00003a24       fldrBegin                  10034a24     <common>
 0002:00003a40       rgplc                      10034a40     <common>
 0002:00003a68       g_ftcDefaultJ              10034a68     <common>
 0002:00003a6c       _fDeadField                10034a6c     <common>
 0002:00003a80       mpchrcidSpec               10034a80     <common>
 0002:00003b20       fEdnOnly                   10034b20     <common>
 0002:00003b24       g_wUseFontHighAnsi         10034b24     <common>
 0002:00003b26       g_wUseFontDBCS             10034b26     <common>
 0002:00003b28       g_ftcDefaultEnglish        10034b28     <common>
 0002:00003b2c       tbs                        10034b2c     <common>
 0002:00003b30       g_ftcSetPrevious           10034b30     <common>
 0002:00003b34       g_wUseFontLowAnsi          10034b34     <common>
 0002:00003b38       g_cbchDataCache            10034b38     <common>
 0002:00003b40       cbSTDBaseInFile            10034b40     <common>
 0002:00003b42       istdMac                    10034b42     <common>
 0002:00003b44       vfNullStylesheet           10034b44     <common>
 0002:00003b48       vfStylesBuilt              10034b48     <common>
 0002:00003b4c       hszData                    10034b4c     <common>
 0002:00003b50       vcbObjectData              10034b50     <common>
 0002:00003b54       vfcObjectMin               10034b54     <common>
 0002:00003b58       vfcPictureMin              10034b58     <common>
 0002:00003b5c       vfDataStreamDirty          10034b5c     <common>
 0002:00003b60       vcbPictureData             10034b60     <common>
 0002:00003b64       hplcFld                    10034b64     <common>
 0002:00003b80       rgbRTFdata                 10034b80     <common>
 0002:00004380       cbBinData                  10035380     <common>
 0002:00004384       hcmXPlatform               10035384     <common>
 0002:00004388       hcmNull                    10035388     <common>
 0002:0000438c       hcmCurr                    1003538c     <common>
 0002:000043a0       tapSty                     100353a0     <common>
 0002:00004b20       chpSty                     10035b20     <common>
 0002:00004b64       hplcSep                    10035b64     <common>
 0002:00004b80       papSty                     10035b80     <common>
 0002:00004ca0       vpfcFixup                  10035ca0     <common>
 0002:00004ca4       cbsepxAlloc                10035ca4     <common>
 0002:00004ca8       hfkplPap                   10035ca8     <common>
 0002:00004cac       hggrpsepx                  10035cac     <common>
 0002:00004cc0       sepBase                    10035cc0     <common>
 0002:00004f60       hfkplChp                   10035f60     <common>
 0002:00004f64       ibsepxMac                  10035f64     <common>
 0002:00004f80       wFontMap                   10035f80     <common>
 0002:00005048       g_AnsiCodePage             10036048     <common>
 0002:0000504c       g_iDefaultAnsiFont         1003604c     <common>
 0002:00005050       fcFntTblMac                10036050     <common>
 0002:00005054       ftcMac                     10036054     <common>
 0002:00005058       fcFntTblMin                10036058     <common>
 0002:00005060       rgFontCharSet              10036060     <common>
 0002:00005460       g_iDefaultFEFont           10036460     <common>
 0002:00005464       cbFntTbl                   10036464     <common>
 0002:00005466       wFontCnt                   10036466     <common>
 0002:00005480       szFontNames                10036480     <common>
 0002:000055c0       g_MaxCchPlx                100365c0     <common>
 0002:000055c4       g_pCchPlx                  100365c4     <common>
 0002:000055d0       g_ListDataCache            100365d0     <common>
 0002:000055e0       fcDataStreamCurr           100365e0     <common>
 0002:000055e4       nLvlAnmPrev                100365e4     <common>
 0002:000055e8       g_bPrevParaInlist          100365e8     <common>
 0002:000055ec       cRecursion                 100365ec     <common>
 0002:000055f0       fIsDiagBrdr                100365f0     <common>
 0002:000055f4       bGotStylesheet             100365f4     <common>
 0002:000055f8       g_SaveAsWord_dwTotal       100365f8     <common>
 0002:000055fc       g_bProcessingUnicode       100365fc     <common>
 0002:00005600       g_IgnoreNextCharCountLeft  10036600     <common>
 0002:00005604       g_SaveAsWord_dwReadSoFar   10036604     <common>
 0002:00005620       g_pStyles                  10036620     <common>
 0002:00005904       g_SaveAsWord_pData         10036904     <common>
 0002:00005920       rgrsc                      10036920     <common>
 0002:00005b20       g_cStyles                  10036b20     <common>
 0002:00005b40       g_pLists                   10036b40     <common>
 0002:00006b48       iWordVerSprm               10037b48     <common>
 0002:00006b4c       fcStylesheetMin            10037b4c     <common>
 0002:00006b60       rgbUnicodeRTFdata          10037b60     <common>
 0002:00007b60       g_IgnoreNextCharCountValue 10038b60     <common>
 0002:00007b64       g_bRestartLists            10038b64     <common>
 0002:00007b68       fcTextMac                  10038b68     <common>
 0002:00007b6c       fcSectMin                  10038b6c     <common>
 0002:00007b70       irsc                       10038b70     <common>
 0002:00007b74       fcPapMin                   10038b74     <common>
 0002:00007b78       __onexitend                10038b78     <common>
 0002:00007b7c       __onexitbegin              10038b7c     <common>
 0002:00007b80       g_pcsExit                  10038b80     <common>

 entry point at        0001:00007374

 Static symbols

 0001:0002f4c8       doexit                     100304c8 f   corelib0:cexit.obj
 0001:0002f858       ??__Eg_cfThisDll@@YAXXZ    10030858 f   pwwiff:pww_ce.obj
