 riched60

 Timestamp is 618b15ca (Tue Nov 09 17:43:54 2021)

 Preferred load address is 10000000

 Start         Length     Name                   Class
 0001:00000000 00008d0cH .rdata                  CODE
 0001:00008d0c 00000025H .rdata$debug            CODE
 0001:00008d34 000b43c4H .text                   CODE
 0001:000bd0f8 00000188H .xdata                  CODE
 0001:000bd280 00000028H .idata$2                CODE
 0001:000bd2a8 00000014H .idata$3                CODE
 0001:000bd2bc 00000308H .idata$4                CODE
 0001:000bd5c4 00000060H .idata$6                CODE
 0001:000bd630 000001a0H .edata                  CODE
 0002:00000000 00000308H .idata$5                DATA
 0002:00000308 00000318H .data                   DATA
 0002:00000620 00000629H .bss                    DATA
 0003:00000000 000062b8H .pdata                  DATA
 0004:00000000 00000078H .rsrc$01                DATA
 0004:00000080 00000398H .rsrc$02                DATA

  Address         Publics by Value              Rva+Base       Lib:Object

 0000:00000000       ___safe_se_handler_count   00000000     <absolute>
 0000:00000000       ___safe_se_handler_table   00000000     <absolute>
 0001:0000001c       IID_IPersistTextBlobBits   1000101c     riched60:reinit.obj
 0001:0000002c       IID_ITextBlob              1000102c     riched60:reinit.obj
 0001:0000003c       IID_IEnumTextBlobIds       1000103c     riched60:reinit.obj
 0001:0000004c       IID_IEnumTextTrackers      1000104c     riched60:reinit.obj
 0001:0000005c       IID_ITextMarkContainer     1000105c     riched60:reinit.obj
 0001:0000006c       IID_IRichEditOle           1000106c     riched60:reinit.obj
 0001:0000007c       IID_IRichEditOleCallback   1000107c     riched60:reinit.obj
 0001:0000008c       ??_C@_1BM@OKHCBCMA@?$AAR?$AAi?$AAc?$AAh?$AAE?$AAd?$AAi?$AAt?$AA2?$AA0?$AAW?$AAP?$AAT?$AA?$AA@ 1000108c     riched60:reinit.obj
 0001:000000a8       ??_C@_1BI@FOHIGIAE@?$AAR?$AAi?$AAc?$AAh?$AAE?$AAd?$AAi?$AAt?$AA2?$AA0?$AAW?$AA?$AA@ 100010a8     riched60:reinit.obj
 0001:000000c0       ??_C@_1BI@IPBPLMPG@?$AAR?$AAI?$AAC?$AAH?$AAE?$AAD?$AAI?$AAT?$AA6?$AA0?$AAW?$AA?$AA@ 100010c0     riched60:reinit.obj
 0001:000000d8       ??_C@_1BI@BJALLBF@?$AAR?$AAI?$AAC?$AAH?$AAE?$AAD?$AAI?$AAT?$AA5?$AA0?$AAW?$AA?$AA@ 100010d8     riched60:reinit.obj
 0001:00000100       IID_ITextBlobSurrogate     10001100     riched60:uuid.obj
 0001:00000110       IID_IDispatch              10001110     riched60:uuid.obj
 0001:00000120       IID_IUnknown               10001120     riched60:uuid.obj
 0001:00000130       IID_IEnumFORMATETC         10001130     riched60:uuid.obj
 0001:00000140       IID_IDataObject            10001140     riched60:uuid.obj
 0001:00000150       IID_IDropSource            10001150     riched60:uuid.obj
 0001:00000160       IID_IDropTarget            10001160     riched60:uuid.obj
 0001:00000170       IID_IViewObject            10001170     riched60:uuid.obj
 0001:00000180       IID_IViewObject2           10001180     riched60:uuid.obj
 0001:00000190       IID_IAdviseSink            10001190     riched60:uuid.obj
 0001:000001a0       IID_IOleClientSite         100011a0     riched60:uuid.obj
 0001:000001b0       IID_IOleWindow             100011b0     riched60:uuid.obj
 0001:000001c0       IID_IOleInPlaceSite        100011c0     riched60:uuid.obj
 0001:000001d0       IID_IOleLink               100011d0     riched60:uuid.obj
 0001:000001e0       IID_IOleCache              100011e0     riched60:uuid.obj
 0001:000001f0       IID_IOleObject             100011f0     riched60:uuid.obj
 0001:00000200       IID_IPersistStorage        10001200     riched60:uuid.obj
 0001:00000210       IID_IOleInPlaceObject      10001210     riched60:uuid.obj
 0001:00000220       CLSID_Picture_EnhMetafile  10001220     riched60:uuid.obj
 0001:00000230       CLSID_StaticMetafile       10001230     riched60:uuid.obj
 0001:00000240       CLSID_StaticDib            10001240     riched60:uuid.obj
 0001:00000250       IID_IViewObjectEx          10001250     riched60:uuid.obj
 0001:00000260       LIBID_tom                  10001260     riched60:uuid.obj
 0001:00000270       IID_ITextDocument          10001270     riched60:uuid.obj
 0001:00000280       IID_ITextSelection         10001280     riched60:uuid.obj
 0001:00000290       IID_ITextRange             10001290     riched60:uuid.obj
 0001:000002a0       IID_ITextFont              100012a0     riched60:uuid.obj
 0001:000002b0       IID_ITextPara              100012b0     riched60:uuid.obj
 0001:000002c0       IID_ITextStoryRanges       100012c0     riched60:uuid.obj
 0001:000002d0       IID_ITextMsgFilter         100012d0     riched60:uuid.obj
 0001:000002e0       IID_ITextDocument2         100012e0     riched60:uuid.obj
 0001:000002f0       IID_ITextRange2            100012f0     riched60:uuid.obj
 0001:00000300       IID_ITextSelection2        10001300     riched60:uuid.obj
 0001:00000310       IID_ITextFont2             10001310     riched60:uuid.obj
 0001:00000320       IID_ITextPara2             10001320     riched60:uuid.obj
 0001:00000330       IID_ITextStoryRanges2      10001330     riched60:uuid.obj
 0001:00000340       IID_ITextStrings           10001340     riched60:uuid.obj
 0001:00000350       IID_ITextBorders           10001350     riched60:uuid.obj
 0001:00000360       IID_ITextBorder            10001360     riched60:uuid.obj
 0001:00000370       IID_ITextTable             10001370     riched60:uuid.obj
 0001:00000380       IID_ITextRows              10001380     riched60:uuid.obj
 0001:00000390       IID_ITextColumns           10001390     riched60:uuid.obj
 0001:000003a0       IID_ITextCells             100013a0     riched60:uuid.obj
 0001:000003b0       IID_ITextRow               100013b0     riched60:uuid.obj
 0001:000003c0       IID_ITextColumn            100013c0     riched60:uuid.obj
 0001:000003d0       IID_ITextCell              100013d0     riched60:uuid.obj
 0001:000003e0       IID_ITextDisplays          100013e0     riched60:uuid.obj
 0001:000003f0       IID_IAccessible            100013f0     riched60:uuid.obj
 0001:00000400       LIBID_Accessibility        10001400     riched60:uuid.obj
 0001:00000410       IID_IEnumVARIANT           10001410     riched60:uuid.obj
 0001:00000420       IID_ITextInputSupport      10001420     riched60:uuid.obj
 0001:00000430       IID_ITextServices          10001430     riched60:edit.obj
 0001:00000440       IID_ITextHost              10001440     riched60:edit.obj
 0001:00000450       IID_ITextHost2             10001450     riched60:edit.obj
 0001:00000460       IID_ITextHostEx            10001460     riched60:edit.obj
 0001:00000470       IID_IRichEditDO            10001470     riched60:edit.obj
 0001:00000480       ?szCRLF@@3QBGB             10001480     riched60:edit.obj
 0001:00000488       ?szCR@@3QBGB               10001488     riched60:edit.obj
 0001:0000048c       ??_7ITxNotify@@6B@         1000148c     riched60:edit.obj
 0001:00000498       ??_7IRichEditOle@@6B@      10001498     riched60:edit.obj
 0001:000004e4       ??_7CUnknown@CTxtEdit@@6B@ 100014e4     riched60:edit.obj
 0001:000004f0       ??_7CTextNotify@@6B@       100014f0     riched60:edit.obj
 0001:00000500       ??_7CTxtEdit@@6BITextServices@@@ 10001500     riched60:edit.obj
 0001:00000558       ??_7CTxtEdit@@6BIRichEditOle@@@ 10001558     riched60:edit.obj
 0001:000005a8       ??_7CTxtEdit@@6BITextDocument2@@@ 100015a8     riched60:edit.obj
 0001:000006b0       ??_7CTxtEdit@@6BITextInputSupport@@@ 100016b0     riched60:edit.obj
 0001:00000720       ??_7ITextHostEx@@6B@       10001720     riched60:host.obj
 0001:00000740       ??_7CTxtWinHost@@6BITextHost2@@@ 10001740     riched60:host.obj
 0001:0000083c       ??_7CTxtWinHost@@6BITextHostEx@@@ 1000183c     riched60:host.obj
 0001:00000c58       GUID_NULL                  10001c58     riched60:w32sys.obj
 0001:00000d68       ??_C@_1BK@FNHDCFOH@?$AAr?$AAi?$AAc?$AAh?$AAe?$AAd?$AA2?$AA0?$AA?4?$AAd?$AAl?$AAl?$AA?$AA@ 10001d68     riched60:w32sys.obj
 0001:00000d84       ??_C@_1CI@MFJGKNPK@?$AAM?$AAS?$AAI?$AAM?$AAE?$AAM?$AAo?$AAu?$AAs?$AAe?$AAO?$AAp?$AAe?$AAr?$AAa?$AAt?$AAi?$AAo?$AAn?$AA?$AA@ 10001d84     riched60:w32sys.obj
 0001:00000dac       ??_C@_1CE@NPDEEDIH@?$AAM?$AAS?$AAI?$AAM?$AAE?$AAD?$AAo?$AAc?$AAu?$AAm?$AAe?$AAn?$AAt?$AAF?$AAe?$AAe?$AAd?$AA?$AA@ 10001dac     riched60:w32sys.obj
 0001:00000dd0       ??_C@_1BK@CDMOHHLD@?$AAM?$AAS?$AAI?$AAM?$AAE?$AAS?$AAe?$AAr?$AAv?$AAi?$AAc?$AAe?$AA?$AA@ 10001dd0     riched60:w32sys.obj
 0001:00000df8       ??_C@_1BA@PICGEGJB@?$AAD?$AAI?$AAS?$AAP?$AAL?$AAA?$AAY?$AA?$AA@ 10001df8     riched60:w32sys.obj
 0001:00000e08       ??_C@_1BE@BMAICGKH@?$AAG?$AAD?$AAI?$AA3?$AA2?$AA?4?$AAD?$AAL?$AAL?$AA?$AA@ 10001e08     riched60:w32sys.obj
 0001:00000e1c       ??_C@_1BE@EIGOMFJJ@?$AAG?$AAe?$AAt?$AAL?$AAa?$AAy?$AAo?$AAu?$AAt?$AA?$AA@ 10001e1c     riched60:w32sys.obj
 0001:00000e30       ??_C@_1BE@OGEFIFOF@?$AAS?$AAe?$AAt?$AAL?$AAa?$AAy?$AAo?$AAu?$AAt?$AA?$AA@ 10001e30     riched60:w32sys.obj
 0001:00000e44       ??_C@_1BA@NPJPKIM@?$AAE?$AAn?$AAa?$AAb?$AAl?$AAe?$AAd?$AA?$AA@ 10001e44     riched60:w32sys.obj
 0001:00000e54       ??_C@_1DK@DDOELFMJ@?$AAS?$AAy?$AAs?$AAt?$AAe?$AAm?$AA?2?$AAG?$AAD?$AAI?$AA?2?$AAC?$AAl?$AAe?$AAa?$AAr?$AAT?$AAy?$AAp?$AAe?$AAS?$AAe?$AAt?$AAt?$AAi?$AAn?$AAg?$AAs?$AA?$AA@ 10001e54     riched60:w32sys.obj
 0001:00000e90       ??_C@_1CA@MBPOLHGL@?$AAT?$AAi?$AAm?$AAe?$AAs?$AA?5?$AAN?$AAe?$AAw?$AA?5?$AAR?$AAo?$AAm?$AAa?$AAn?$AA?$AA@ 10001e90     riched60:font.obj
 0001:00000eb0       ??_C@_1O@FPBPJIKI@?$AAT?$AAa?$AAh?$AAo?$AAm?$AAa?$AA?$AA@ 10001eb0     riched60:font.obj
 0001:00000ec0       ??_C@_1O@GINMMDNN@?$AAS?$AAy?$AAs?$AAt?$AAe?$AAm?$AA?$AA@ 10001ec0     riched60:font.obj
 0001:00000ed0       ??_C@_1O@PCEIAOCJ@?$AAS?$AAy?$AAm?$AAb?$AAo?$AAl?$AA?$AA@ 10001ed0     riched60:font.obj
 0001:00000ee0       ??_C@_1BI@GNONBDFP@?$AAC?$AAo?$AAu?$AAr?$AAi?$AAe?$AAr?$AA?5?$AAN?$AAe?$AAw?$AA?$AA@ 10001ee0     riched60:font.obj
 0001:00000ef8       ??_C@_1CC@EPNHONBG@?$AAA?$AAr?$AAi?$AAa?$AAl?$AA?5?$AAU?$AAn?$AAi?$AAc?$AAo?$AAd?$AAe?$AA?5?$AAM?$AAS?$AA?$AA@ 10001ef8     riched60:font.obj
 0001:00000f1c       ??_C@_1M@KAKMLIHO@?$AAA?$AAr?$AAi?$AAa?$AAl?$AA?$AA@ 10001f1c     riched60:font.obj
 0001:00000f28       ??_C@_13COJANIEC@?$AA0?$AA?$AA@ 10001f28     riched60:font.obj
 0001:00000f2c       ??_C@_13FNCBLAIF@?$AAa?$AA?$AA@ 10001f2c     riched60:font.obj
 0001:00000fc8       ?rgwchThaiAlpha@ListNumberGenerator@@0QBGB 10001fc8     riched60:cfpf.obj
 0001:0000101c       ?nMaxThaiAlpha@ListNumberGenerator@@0HB 1000201c     riched60:cfpf.obj
 0001:00001020       ?rgwchHindiVowels@ListNumberGenerator@@0QBGB 10002020     riched60:cfpf.obj
 0001:00001040       ?nMaxHindiVowels@ListNumberGenerator@@0HB 10002040     riched60:cfpf.obj
 0001:00001044       ?nMaxHindiConsonants@ListNumberGenerator@@0HB 10002044     riched60:cfpf.obj
 0001:00001048       ?rgwchHindiConsonants@ListNumberGenerator@@0QBGB 10002048     riched60:cfpf.obj
 0001:0000108c       ?rgwchChineseCasualDigit@ListNumberGenerator@@0QBGB 1000208c     riched60:cfpf.obj
 0001:000010a0       ?rgwchHebAlpha@ListNumberGenerator@@0QBGB 100020a0     riched60:cfpf.obj
 0001:000010cc       ?nMaxHebAlpha@ListNumberGenerator@@0HB 100020cc     riched60:cfpf.obj
 0001:000010d0       ?rgwchAra1Alpha@ListNumberGenerator@@0QBGB 100020d0     riched60:cfpf.obj
 0001:00001108       ?nMaxAra1Alpha@ListNumberGenerator@@0HB 10002108     riched60:cfpf.obj
 0001:0000110c       ?rgwchAra2Alpha@ListNumberGenerator@@0QBGB 1000210c     riched60:cfpf.obj
 0001:00001144       ?nMaxAra2Alpha@ListNumberGenerator@@0HB 10002144     riched60:cfpf.obj
 0001:00001158       ??_C@_0L@HHFNBKFL@ivxlcdmnop?$AA@ 10002158     riched60:cfpf.obj
 0001:00001164       ??_C@_1BC@KBOBMHPK@?$AAL?$AAs?$AAS?$AAe?$AAt?$AAD?$AAo?$AAc?$AA?$AA@ 10002164     riched60:CEDllLoad.obj
 0001:00001178       ??_C@_1BE@MIMMKE@?$AAm?$AAs?$AAl?$AAs?$AA4?$AA?4?$AAD?$AAL?$AAL?$AA?$AA@ 10002178     riched60:CEDllLoad.obj
 0001:0000118c       ??_C@_1CG@JNIKJKGI@?$AAL?$AAs?$AAS?$AAe?$AAt?$AAM?$AAo?$AAd?$AAW?$AAi?$AAd?$AAt?$AAh?$AAP?$AAa?$AAi?$AAr?$AAs?$AA?$AA@ 1000218c     riched60:CEDllLoad.obj
 0001:000011b4       ??_C@_1CC@CGBDCCBB@?$AAL?$AAs?$AAS?$AAe?$AAt?$AAC?$AAo?$AAm?$AAp?$AAr?$AAe?$AAs?$AAs?$AAi?$AAo?$AAn?$AA?$AA@ 100021b4     riched60:CEDllLoad.obj
 0001:000011d8       ??_C@_1BO@EIOCEBMN@?$AAL?$AAs?$AAS?$AAe?$AAt?$AAE?$AAx?$AAp?$AAa?$AAn?$AAs?$AAi?$AAo?$AAn?$AA?$AA@ 100021d8     riched60:CEDllLoad.obj
 0001:000011f8       ??_C@_1BM@KNOGMBOA@?$AAL?$AAs?$AAS?$AAe?$AAt?$AAB?$AAr?$AAe?$AAa?$AAk?$AAi?$AAn?$AAg?$AA?$AA@ 100021f8     riched60:CEDllLoad.obj
 0001:00001214       ??_C@_1BK@EADPELCH@?$AAL?$AAs?$AAC?$AAr?$AAe?$AAa?$AAt?$AAe?$AAL?$AAi?$AAn?$AAe?$AA?$AA@ 10002214     riched60:CEDllLoad.obj
 0001:00001230       ??_C@_1CG@PLFJFCAG@?$AAL?$AAs?$AAM?$AAo?$AAd?$AAi?$AAf?$AAy?$AAL?$AAi?$AAn?$AAe?$AAH?$AAe?$AAi?$AAg?$AAh?$AAt?$AA?$AA@ 10002230     riched60:CEDllLoad.obj
 0001:00001258       ??_C@_1BM@KAODOGCP@?$AAL?$AAs?$AAD?$AAe?$AAs?$AAt?$AAr?$AAo?$AAy?$AAL?$AAi?$AAn?$AAe?$AA?$AA@ 10002258     riched60:CEDllLoad.obj
 0001:00001274       ??_C@_1CO@OGJOHIFL@?$AAL?$AAs?$AAC?$AAr?$AAe?$AAa?$AAt?$AAe?$AAL?$AAi?$AAn?$AAe?$AAG?$AAi?$AAv?$AAe?$AAn?$AAB?$AAr?$AAe?$AAa?$AAk?$AA?$AA@ 10002274     riched60:CEDllLoad.obj
 0001:000012a4       ??_C@_1CK@PNGHBHJD@?$AAL?$AAs?$AAD?$AAe?$AAs?$AAt?$AAr?$AAo?$AAy?$AAB?$AAr?$AAe?$AAa?$AAk?$AAR?$AAe?$AAc?$AAo?$AAr?$AAd?$AA?$AA@ 100022a4     riched60:CEDllLoad.obj
 0001:000012d0       ??_C@_1BG@PCLACBOK@?$AAL?$AAs?$AAE?$AAn?$AAu?$AAm?$AAL?$AAi?$AAn?$AAe?$AA?$AA@ 100022d0     riched60:CEDllLoad.obj
 0001:000012e8       ??_C@_1BM@MMHLJHFB@?$AAL?$AAs?$AAE?$AAn?$AAu?$AAm?$AAS?$AAu?$AAb?$AAl?$AAi?$AAn?$AAe?$AA?$AA@ 100022e8     riched60:CEDllLoad.obj
 0001:00001304       ??_C@_1CK@OMNJOMPG@?$AAL?$AAs?$AAP?$AAo?$AAi?$AAn?$AAt?$AAX?$AAY?$AAF?$AAr?$AAo?$AAm?$AAP?$AAo?$AAi?$AAn?$AAt?$AAU?$AAV?$AA?$AA@ 10002304     riched60:CEDllLoad.obj
 0001:00001330       ??_C@_1CO@JDDPIBCG@?$AAL?$AAs?$AAP?$AAo?$AAi?$AAn?$AAt?$AAU?$AAV?$AA2?$AAF?$AAr?$AAo?$AAm?$AAP?$AAo?$AAi?$AAn?$AAt?$AAU?$AAV?$AA1?$AA?$AA@ 10002330     riched60:CEDllLoad.obj
 0001:00001360       ??_C@_1CA@MIDLOJAD@?$AAL?$AAs?$AAC?$AAr?$AAe?$AAa?$AAt?$AAe?$AAC?$AAo?$AAn?$AAt?$AAe?$AAx?$AAt?$AA?$AA@ 10002360     riched60:CEDllLoad.obj
 0001:00001380       ??_C@_1CC@GJLPOGMI@?$AAL?$AAs?$AAD?$AAe?$AAs?$AAt?$AAr?$AAo?$AAy?$AAC?$AAo?$AAn?$AAt?$AAe?$AAx?$AAt?$AA?$AA@ 10002380     riched60:CEDllLoad.obj
 0001:000013a4       ??_C@_1CO@PPBODLEG@?$AAL?$AAs?$AAG?$AAe?$AAt?$AAR?$AAe?$AAv?$AAe?$AAr?$AAs?$AAe?$AAL?$AAs?$AAi?$AAm?$AAe?$AAt?$AAh?$AAo?$AAd?$AAs?$AA?$AA@ 100023a4     riched60:CEDllLoad.obj
 0001:000013d4       ??_C@_1CI@FJIPBFEN@?$AAL?$AAs?$AAQ?$AAu?$AAe?$AAr?$AAy?$AAL?$AAi?$AAn?$AAe?$AAC?$AAp?$AAP?$AAp?$AAo?$AAi?$AAn?$AAt?$AA?$AA@ 100023d4     riched60:CEDllLoad.obj
 0001:000013fc       ??_C@_1CI@GDPOPOEF@?$AAL?$AAs?$AAQ?$AAu?$AAe?$AAr?$AAy?$AAL?$AAi?$AAn?$AAe?$AAP?$AAo?$AAi?$AAn?$AAt?$AAP?$AAc?$AAp?$AA?$AA@ 100023fc     riched60:CEDllLoad.obj
 0001:00001424       ??_C@_1BM@GHOKPHN@?$AAL?$AAs?$AAQ?$AAu?$AAe?$AAr?$AAy?$AAL?$AAi?$AAn?$AAe?$AAU?$AAp?$AA?$AA@ 10002424     riched60:CEDllLoad.obj
 0001:00001440       ??_C@_1CA@LDIHOHEJ@?$AAL?$AAs?$AAQ?$AAu?$AAe?$AAr?$AAy?$AAL?$AAi?$AAn?$AAe?$AAD?$AAo?$AAw?$AAn?$AA?$AA@ 10002440     riched60:CEDllLoad.obj
 0001:00001460       ??_C@_1BO@FHBLLPCG@?$AAL?$AAs?$AAQ?$AAu?$AAe?$AAr?$AAy?$AAL?$AAi?$AAn?$AAe?$AAD?$AAu?$AAp?$AA?$AA@ 10002460     riched60:CEDllLoad.obj
 0001:00001480       ??_C@_1CI@CNKLLAEN@?$AAL?$AAs?$AAQ?$AAu?$AAe?$AAr?$AAy?$AAL?$AAi?$AAn?$AAe?$AAM?$AAa?$AAx?$AAD?$AAe?$AAp?$AAt?$AAh?$AA?$AA@ 10002480     riched60:CEDllLoad.obj
 0001:000014a8       ??_C@_1BM@EDJHBJJM@?$AAL?$AAs?$AAD?$AAi?$AAs?$AAp?$AAl?$AAa?$AAy?$AAL?$AAi?$AAn?$AAe?$AA?$AA@ 100024a8     riched60:CEDllLoad.obj
 0001:000014c4       ??_C@_1CA@FFELKGPA@?$AAL?$AAs?$AAd?$AAn?$AAS?$AAe?$AAt?$AAR?$AAi?$AAg?$AAi?$AAd?$AAD?$AAu?$AAp?$AA?$AA@ 100024c4     riched60:CEDllLoad.obj
 0001:000014e4       ??_C@_1CE@NENEACIK@?$AAL?$AAs?$AAd?$AAn?$AAF?$AAi?$AAn?$AAi?$AAs?$AAh?$AAR?$AAe?$AAg?$AAu?$AAl?$AAa?$AAr?$AA?$AA@ 100024e4     riched60:CEDllLoad.obj
 0001:00001508       ??_C@_1CK@BBIMAGAG@?$AAL?$AAs?$AAd?$AAn?$AAQ?$AAu?$AAe?$AAr?$AAy?$AAO?$AAb?$AAj?$AAD?$AAi?$AAm?$AAR?$AAa?$AAn?$AAg?$AAe?$AA?$AA@ 10002508     riched60:CEDllLoad.obj
 0001:00001534       ??_C@_1BI@IJDPAJJN@?$AAS?$AAc?$AAr?$AAi?$AAp?$AAt?$AAB?$AAr?$AAe?$AAa?$AAk?$AA?$AA@ 10002534     riched60:CEDllLoad.obj
 0001:0000154c       ??_C@_1BE@PNLMHGGK@?$AAu?$AAs?$AAp?$AAc?$AAe?$AA?4?$AAD?$AAL?$AAL?$AA?$AA@ 1000254c     riched60:CEDllLoad.obj
 0001:00001560       ??_C@_1CA@KJKFAIDM@?$AAS?$AAc?$AAr?$AAi?$AAp?$AAt?$AAF?$AAr?$AAe?$AAe?$AAC?$AAa?$AAc?$AAh?$AAe?$AA?$AA@ 10002560     riched60:CEDllLoad.obj
 0001:00001580       ??_C@_1BM@LOPMDNDI@?$AAS?$AAc?$AAr?$AAi?$AAp?$AAt?$AAG?$AAe?$AAt?$AAC?$AAM?$AAa?$AAp?$AA?$AA@ 10002580     riched60:CEDllLoad.obj
 0001:0000159c       ??_C@_1CO@KMNLCPPH@?$AAS?$AAc?$AAr?$AAi?$AAp?$AAt?$AAG?$AAe?$AAt?$AAL?$AAo?$AAg?$AAi?$AAc?$AAa?$AAl?$AAW?$AAi?$AAd?$AAt?$AAh?$AAs?$AA?$AA@ 1000259c     riched60:CEDllLoad.obj
 0001:000015cc       ??_C@_1CI@KFLALOLI@?$AAS?$AAc?$AAr?$AAi?$AAp?$AAt?$AAG?$AAe?$AAt?$AAP?$AAr?$AAo?$AAp?$AAe?$AAr?$AAt?$AAi?$AAe?$AAs?$AA?$AA@ 100025cc     riched60:CEDllLoad.obj
 0001:000015f4       ??_C@_1BM@NAAALNCA@?$AAS?$AAc?$AAr?$AAi?$AAp?$AAt?$AAI?$AAt?$AAe?$AAm?$AAi?$AAz?$AAe?$AA?$AA@ 100025f4     riched60:CEDllLoad.obj
 0001:00001610       ??_C@_1BI@HJCGBDGH@?$AAS?$AAc?$AAr?$AAi?$AAp?$AAt?$AAP?$AAl?$AAa?$AAc?$AAe?$AA?$AA@ 10002610     riched60:CEDllLoad.obj
 0001:00001628       ??_C@_1BI@ICBBBBNI@?$AAS?$AAc?$AAr?$AAi?$AAp?$AAt?$AAS?$AAh?$AAa?$AAp?$AAe?$AA?$AA@ 10002628     riched60:CEDllLoad.obj
 0001:00001640       ??_C@_1CM@DKOBIFHI@?$AAS?$AAc?$AAr?$AAi?$AAp?$AAt?$AAS?$AAt?$AAr?$AAi?$AAn?$AAg?$AA_?$AAp?$AAL?$AAo?$AAg?$AAA?$AAt?$AAt?$AAr?$AA?$AA@ 10002640     riched60:CEDllLoad.obj
 0001:0000166c       ??_C@_1CI@GNBJFPEC@?$AAS?$AAc?$AAr?$AAi?$AAp?$AAt?$AAS?$AAt?$AAr?$AAi?$AAn?$AAg?$AAA?$AAn?$AAa?$AAl?$AAy?$AAs?$AAe?$AA?$AA@ 1000266c     riched60:CEDllLoad.obj
 0001:00001694       ??_C@_1CC@KOIOLCKN@?$AAS?$AAc?$AAr?$AAi?$AAp?$AAt?$AAS?$AAt?$AAr?$AAi?$AAn?$AAg?$AAF?$AAr?$AAe?$AAe?$AA?$AA@ 10002694     riched60:CEDllLoad.obj
 0001:000016b8       ??_C@_1CK@HPBJNAPH@?$AAS?$AAc?$AAr?$AAi?$AAp?$AAt?$AAS?$AAt?$AAr?$AAi?$AAn?$AAg?$AAV?$AAa?$AAl?$AAi?$AAd?$AAa?$AAt?$AAe?$AA?$AA@ 100026b8     riched60:CEDllLoad.obj
 0001:000016e4       ??_C@_1BM@KLDGLDDD@?$AAS?$AAc?$AAr?$AAi?$AAp?$AAt?$AAT?$AAe?$AAx?$AAt?$AAO?$AAu?$AAt?$AA?$AA@ 100026e4     riched60:CEDllLoad.obj
 0001:00001700       ??_7CMeasurer@@6B@         10002700     riched60:render.obj
 0001:00001718       ??_7CRenderer@@6B@         10002718     riched60:render.obj
 0001:00001730       __real@3feccccccccccccd    10002730     riched60:render.obj
 0001:00001738       __real@3fe0000000000000    10002738     riched60:render.obj
 0001:00001740       __real@3ff0000000000000    10002740     riched60:render.obj
 0001:00001748       __real@3f800000            10002748     riched60:render.obj
 0001:00001bd4       __real@3d4ccccd            10002bd4     riched60:tomdoc.obj
 0001:00001bd8       ??_C@_0BI@LMEBABGP@Riched20?512?40?46203?43000?$AA@ 10002bd8     riched60:tomdoc.obj
 0001:00001bf0       ??_7CTextMarkContainer@@6B@ 10002bf0     riched60:tomdoc.obj
 0001:00001c68       __real@416fffffe0000000    10002c68     riched60:tomdoc.obj
 0001:00001c70       __real@4034000000000000    10002c70     riched60:tomdoc.obj
 0001:00001c78       __real@00000000            10002c78     riched60:tomdoc.obj
 0001:00001c7c       ??_7CTabsArray@@6B@        10002c7c     riched60:format.obj
 0001:00001c94       ??_7CParaFormatArray@@6B@  10002c94     riched60:format.obj
 0001:00001ca8       ??_7CCharFormatArray@@6B@  10002ca8     riched60:format.obj
 0001:00001cbc       ??_C@_1M@GEJKJIG@?$AAg?$AAr?$AAe?$AAe?$AAk?$AA?$AA@ 10002cbc     riched60:rtfwrit2.obj
 0001:00001cc8       ??_C@_15MMKFCEJJ@?$AAc?$AAe?$AA?$AA@ 10002cc8     riched60:rtfwrit2.obj
 0001:00001cd0       ??_C@_17CJKCLDNA@?$AAc?$AAy?$AAr?$AA?$AA@ 10002cd0     riched60:rtfwrit2.obj
 0001:00001d90       ??_7CDisplay@@6B@          10002d90     riched60:disp.obj
 0001:00001ec4       ??_7CRchTxtPtr@@6B@        10002ec4     riched60:rtext.obj
 0001:00001ed4       ??_7CTextMsgFilter@@6B@    10002ed4     riched60:cmsgflt.obj
 0001:00001eec       ??_C@_19KDFJKJBI@?$AAf?$AAt?$AAp?$AA?4?$AA?$AA@ 10002eec     riched60:urlsup.obj
 0001:00001ef8       ??_C@_19PILPHEJF@?$AAw?$AAw?$AAw?$AA?4?$AA?$AA@ 10002ef8     riched60:urlsup.obj
 0001:00001f04       ??_C@_19LOILIKBP@?$AAw?$AAs?$AAp?$AA?3?$AA?$AA@ 10002f04     riched60:urlsup.obj
 0001:00001f10       ??_C@_19IABFLMEJ@?$AAw?$AAa?$AAp?$AA?3?$AA?$AA@ 10002f10     riched60:urlsup.obj
 0001:00001f1c       ??_C@_19JLHMMLFA@?$AAt?$AAe?$AAl?$AA?3?$AA?$AA@ 10002f1c     riched60:urlsup.obj
 0001:00001f28       ??_C@_19FIMFHLNC@?$AAs?$AAm?$AAs?$AA?3?$AA?$AA@ 10002f28     riched60:urlsup.obj
 0001:00001f34       ??_C@_1BC@CGHGCFOE@?$AAo?$AAu?$AAt?$AAl?$AAo?$AAo?$AAk?$AA?3?$AA?$AA@ 10002f34     riched60:urlsup.obj
 0001:00001f48       ??_C@_1M@PAGIMJHC@?$AAm?$AAm?$AAs?$AAu?$AA?3?$AA?$AA@ 10002f48     riched60:urlsup.obj
 0001:00001f54       ??_C@_1M@DLDEBKNH@?$AAm?$AAm?$AAs?$AAt?$AA?3?$AA?$AA@ 10002f54     riched60:urlsup.obj
 0001:00001f60       ??_C@_19GBKCMKIJ@?$AAm?$AAm?$AAs?$AA?3?$AA?$AA@ 10002f60     riched60:urlsup.obj
 0001:00001f6c       ??_C@_1BA@CJDJNGM@?$AAm?$AAa?$AAi?$AAl?$AAt?$AAo?$AA?3?$AA?$AA@ 10002f6c     riched60:urlsup.obj
 0001:00001f7c       ??_C@_1O@PHFOHOHE@?$AAh?$AAt?$AAt?$AAp?$AAs?$AA?3?$AA?$AA@ 10002f7c     riched60:urlsup.obj
 0001:00001f8c       ??_C@_1M@OJHIIMOK@?$AAh?$AAt?$AAt?$AAp?$AA?3?$AA?$AA@ 10002f8c     riched60:urlsup.obj
 0001:00001f98       ??_C@_19HMCCGJNA@?$AAf?$AAt?$AAp?$AA?3?$AA?$AA@ 10002f98     riched60:urlsup.obj
 0001:00001fa4       ??_C@_1M@COFMOMBK@?$AAf?$AAi?$AAl?$AAe?$AA?3?$AA?$AA@ 10002fa4     riched60:urlsup.obj
 0001:00001fb0       ??_C@_1BA@LKLCBMNH@?$AAc?$AAa?$AAl?$AAl?$AAt?$AAo?$AA?3?$AA?$AA@ 10002fb0     riched60:urlsup.obj
 0001:00002018       ??_C@_1EM@JKECJDBP@?$AAS?$AAo?$AAf?$AAt?$AAw?$AAa?$AAr?$AAe?$AA?2?$AAM?$AAi?$AAc?$AAr?$AAo?$AAs?$AAo?$AAf?$AAt?$AA?2?$AAS?$AAh?$AAe?$AAl?$AAl?$AA?2?$AAU?$AAR?$AAL?$AAP?$AAr?$AAo?$AAt@ 10003018     riched60:urlsup.obj
 0001:00002064       ??_7CDetectURL@@6B@        10003064     riched60:urlsup.obj
 0001:00002070       ??_C@_13HOIJIPNN@?$AA?5?$AA?$AA@ 10003070     riched60:text.obj
 0001:00002078       ??_7CTxtSelection@@6BITextSelection2@@@ 10003078     riched60:select.obj
 0001:00002238       ??_7CTxtSelection@@6BCRchTxtPtr@@@ 10003238     riched60:select.obj
 0001:00002248       ??_7IReEntrantComponent@@6B@ 10003248     riched60:select.obj
 0001:0000224c       ??_7CSelPhaseAdjuster@@6B@ 1000324c     riched60:select.obj
 0001:00002250       ??_C@_13JLKKHOC@?$AA?$AL?$AA?$AA@ 10003250     riched60:select.obj
 0001:00002254       ?szEmbedding@@3QBGB        10003254     riched60:range.obj
 0001:00002258       ??_7CTxtRange@@6BITextSelection2@@@ 10003258     riched60:range.obj
 0001:00002418       ??_7CTxtRange@@6BCRchTxtPtr@@@ 10003418     riched60:range.obj
 0001:00002428       ??_C@_13JCKOPPNP@?$AAK?$AA?$AA@ 10003428     riched60:range.obj
 0001:0000242c       ??_C@_06DFMJJHIO@tdfrmt?$AA@ 1000342c     riched60:rtflex.obj
 0001:00002434       ??_C@_03GJLPFLNF@obj?$AA@  10003434     riched60:rtflex.obj
 0001:00002438       ??_C@_08BFFPIJBL@linkself?$AA@ 10003438     riched60:rtflex.obj
 0001:00002444       ??_C@_09EBGJHEKO@formfield?$AA@ 10003444     riched60:rtflex.obj
 0001:00002450       ??_C@_07NEDHMLOE@fontemb?$AA@ 10003450     riched60:rtflex.obj
 0001:00002458       ??_C@_04DAMGJPCA@file?$AA@ 10003458     riched60:rtflex.obj
 0001:00002460       ??_C@_07PKECJCJJ@dropcap?$AA@ 10003460     riched60:rtflex.obj
 0001:00002468       ??_C@_02KNAFDCHJ@do?$AA@   10003468     riched60:rtflex.obj
 0001:0000246c       ??_C@_07IEKFLNLB@chshdng?$AA@ 1000346c     riched60:rtflex.obj
 0001:00002474       ??_C@_07INILMHCM@chcfpat?$AA@ 10003474     riched60:rtflex.obj
 0001:0000247c       ??_C@_04HIDCDILN@chbg?$AA@ 1000347c     riched60:rtflex.obj
 0001:00002484       ??_C@_04CCKBHOLG@cltx?$AA@ 10003484     riched60:rtflex.obj
 0001:0000248c       ??_C@_04PDNNNDFI@cldg?$AA@ 1000348c     riched60:rtflex.obj
 0001:00002494       ??_C@_0L@HOGAMHHM@annotation?$AA@ 10003494     riched60:rtflex.obj
 0001:000024a0       ??_C@_04CLEEHIGF@aftn?$AA@ 100034a0     riched60:rtflex.obj
 0001:000024a8       ??_C@_03BCGAIFPO@abs?$AA@  100034a8     riched60:rtflex.obj
 0001:000024ac       ??_C@_08FNNEDAPA@fillType?$AA@ 100034ac     riched60:rtflex.obj
 0001:000024b8       ??_C@_09EGMGJGKK@fillFocus?$AA@ 100034b8     riched60:rtflex.obj
 0001:000024c4       ??_C@_09EGMCAAKI@fillColor?$AA@ 100034c4     riched60:rtflex.obj
 0001:000024d0       ??_C@_0O@BPPFANNG@fillBackColor?$AA@ 100034d0     riched60:rtflex.obj
 0001:000024e0       ??_C@_09OGKODFNN@fillAngle?$AA@ 100034e0     riched60:rtflex.obj
 0001:000024ec       ??_C@_04KBAMANKO@zwnj?$AA@ 100034ec     riched60:rtflex.obj
 0001:000024f4       ??_C@_03BEJFJNOD@zwj?$AA@  100034f4     riched60:rtflex.obj
 0001:000024f8       ??_C@_02ECNGIAOH@xe?$AA@   100034f8     riched60:rtflex.obj
 0001:000024fc       ??_C@_09OPFDHOEB@wmetafile?$AA@ 100034fc     riched60:rtflex.obj
 0001:00002508       ??_C@_09OFINAJMK@widctlpar?$AA@ 10003508     riched60:rtflex.obj
 0001:00002514       ??_C@_0O@NDOIABO@wbmwidthbytes?$AA@ 10003514     riched60:rtflex.obj
 0001:00002524       ??_C@_09JHGAPHBJ@wbmplanes?$AA@ 10003524     riched60:rtflex.obj
 0001:00002530       ??_C@_0N@OLCOBIJ@wbmbitspixel?$AA@ 10003530     riched60:rtflex.obj
 0001:00002540       ??_C@_07KMKOAKHB@wbitmap?$AA@ 10003540     riched60:rtflex.obj
 0001:00002548       ??_C@_09CPNPFKOB@viewscale?$AA@ 10003548     riched60:rtflex.obj
 0001:00002554       ??_C@_08HBFGACPJ@viewkind?$AA@ 10003554     riched60:rtflex.obj
 0001:00002560       ??_C@_07NKMLOFCL@vertdoc?$AA@ 10003560     riched60:rtflex.obj
 0001:00002568       ??_C@_01MHEDDDHA@v?$AA@    10003568     riched60:rtflex.obj
 0001:0000256c       ??_C@_04KJIGADOH@urtf?$AA@ 1000356c     riched60:rtflex.obj
 0001:00002574       ??_C@_03MLKCADGJ@upr?$AA@  10003574     riched60:rtflex.obj
 0001:00002578       ??_C@_02HNLLPFKA@up?$AA@   10003578     riched60:rtflex.obj
 0001:0000257c       ??_C@_06CDGLDHJF@ulwave?$AA@ 1000357c     riched60:rtflex.obj
 0001:00002584       ??_C@_03KDOJKNDI@ulw?$AA@  10003584     riched60:rtflex.obj
 0001:00002588       ??_C@_0L@FHPNIGCM@ululdbwave?$AA@ 10003588     riched60:rtflex.obj
 0001:00002594       ??_C@_09ENIMIPGB@ulthldash?$AA@ 10003594     riched60:rtflex.obj
 0001:000025a0       ??_C@_0L@MMGJEBCO@ulthdashdd?$AA@ 100035a0     riched60:rtflex.obj
 0001:000025ac       ??_C@_09CPOJBOPF@ulthdashd?$AA@ 100035ac     riched60:rtflex.obj
 0001:000025b8       ??_C@_08MMLNNHHN@ulthdash?$AA@ 100035b8     riched60:rtflex.obj
 0001:000025c4       ??_C@_05OKBIFLJC@ulthd?$AA@ 100035c4     riched60:rtflex.obj
 0001:000025cc       ??_C@_04IHMDAOMF@ulth?$AA@ 100035cc     riched60:rtflex.obj
 0001:000025d4       ??_C@_03OMKIDLPP@ulp?$AA@  100035d4     riched60:rtflex.obj
 0001:000025d8       ??_C@_06LMHBEHJN@ulnone?$AA@ 100035d8     riched60:rtflex.obj
 0001:000025e0       ??_C@_07FJPGCAJP@ulldash?$AA@ 100035e0     riched60:rtflex.obj
 0001:000025e8       ??_C@_07FGECDDHN@ulhwave?$AA@ 100035e8     riched60:rtflex.obj
 0001:000025f0       ??_C@_06NDCCFHBN@ulhair?$AA@ 100035f0     riched60:rtflex.obj
 0001:000025f8       ??_C@_04GBAKEFDP@uldb?$AA@ 100035f8     riched60:rtflex.obj
 0001:00002600       ??_C@_08JGHIOEJK@uldashdd?$AA@ 10003600     riched60:rtflex.obj
 0001:0000260c       ??_C@_07DLJDLBAL@uldashd?$AA@ 1000360c     riched60:rtflex.obj
 0001:00002614       ??_C@_06LHEOGGGB@uldash?$AA@ 10003614     riched60:rtflex.obj
 0001:0000261c       ??_C@_03MCAGOMKK@uld?$AA@  1000361c     riched60:rtflex.obj
 0001:00002620       ??_C@_03INEHHKGN@ulc?$AA@  10003620     riched60:rtflex.obj
 0001:00002624       ??_C@_02JLMMKIPN@ul?$AA@   10003624     riched60:rtflex.obj
 0001:00002628       ??_C@_02BMFELEDC@uc?$AA@   10003628     riched60:rtflex.obj
 0001:0000262c       ??_C@_01OMGOGALD@u?$AA@    1000362c     riched60:rtflex.obj
 0001:00002630       ??_C@_02LEKABFJP@tx?$AA@   10003630     riched60:rtflex.obj
 0001:00002634       ??_C@_08FPKNNECO@twoinone?$AA@ 10003634     riched60:rtflex.obj
 0001:00002640       ??_C@_04OOIHLGL@trrh?$AA@  10003640     riched60:rtflex.obj
 0001:00002648       ??_C@_04LMIDDPOJ@trqr?$AA@ 10003648     riched60:rtflex.obj
 0001:00002650       ??_C@_04OPFKBMPJ@trqc?$AA@ 10003650     riched60:rtflex.obj
 0001:00002658       ??_C@_05GOPGJFAH@trowd?$AA@ 10003658     riched60:rtflex.obj
 0001:00002660       ??_C@_06GLGNOOGO@trleft?$AA@ 10003660     riched60:rtflex.obj
 0001:00002668       ??_C@_06GNADMKLH@trgaph?$AA@ 10003668     riched60:rtflex.obj
 0001:00002670       ??_C@_07KHHMADJI@trbrdrt?$AA@ 10003670     riched60:rtflex.obj
 0001:00002678       ??_C@_07PBCGKEBO@trbrdrr?$AA@ 10003678     riched60:rtflex.obj
 0001:00002680       ??_C@_07CFGHJLMB@trbrdrl?$AA@ 10003680     riched60:rtflex.obj
 0001:00002688       ??_C@_07LLOELGEP@trbrdrb?$AA@ 10003688     riched60:rtflex.obj
 0001:00002690       ??_C@_03HCNMAODL@tqr?$AA@  10003690     riched60:rtflex.obj
 0001:00002694       ??_C@_05KOLEIJAP@tqdec?$AA@ 10003694     riched60:rtflex.obj
 0001:0000269c       ??_C@_03CBAFCNCL@tqc?$AA@  1000369c     riched60:rtflex.obj
 0001:000026a0       ??_C@_0N@OJPNCHOK@toplinepunct?$AA@ 100036a0     riched60:rtflex.obj
 0001:000026b0       ??_C@_04NPANIIEG@tlul?$AA@ 100036b0     riched60:rtflex.obj
 0001:000026b8       ??_C@_04LKKDCHHF@tlth?$AA@ 100036b8     riched60:rtflex.obj
 0001:000026c0       ??_C@_06EDCCEBPN@tlhyph?$AA@ 100036c0     riched60:rtflex.obj
 0001:000026c8       ??_C@_04DMEHEHCK@tleq?$AA@ 100036c8     riched60:rtflex.obj
 0001:000026d0       ??_C@_05DONANLHM@tldot?$AA@ 100036d0     riched60:rtflex.obj
 0001:000026d8       ??_C@_02BNJGNOAF@tc?$AA@   100036d8     riched60:rtflex.obj
 0001:000026dc       ??_C@_02EINOPEE@tb?$AA@    100036dc     riched60:rtflex.obj
 0001:000026e0       ??_C@_03CEDILPBK@tab?$AA@  100036e0     riched60:rtflex.obj
 0001:000026e4       ??_C@_02CPGMCOJE@sv?$AA@   100036e4     riched60:rtflex.obj
 0001:000026e8       ??_C@_05MKJDPMKP@super?$AA@ 100036e8     riched60:rtflex.obj
 0001:000026f0       ??_C@_03KCMAIMAP@sub?$AA@  100036f0     riched60:rtflex.obj
 0001:000026f4       ??_C@_0L@CDJDANNA@stylesheet?$AA@ 100036f4     riched60:rtflex.obj
 0001:00002700       ??_C@_07NBEHCMEB@striked?$AA@ 10003700     riched60:rtflex.obj
 0001:00002708       ??_C@_06LGJEBFOF@strike?$AA@ 10003708     riched60:rtflex.obj
 0001:00002710       ??_C@_09DPAMONPF@stextflow?$AA@ 10003710     riched60:rtflex.obj
 0001:0000271c       ??_C@_02KNHHLGMN@sn?$AA@   1000371c     riched60:rtflex.obj
 0001:00002720       ??_C@_06PHPIEIPC@slmult?$AA@ 10003720     riched60:rtflex.obj
 0001:00002728       ??_C@_02JPEBNEEP@sl?$AA@   10003728     riched60:rtflex.obj
 0001:0000272c       ??_C@_05ENEBNIIC@shpwr?$AA@ 1000372c     riched60:rtflex.obj
 0001:00002734       ??_C@_06FHIKDFBO@shptxt?$AA@ 10003734     riched60:rtflex.obj
 0001:0000273c       ??_C@_07LFEHCIGL@shppict?$AA@ 1000373c     riched60:rtflex.obj
 0001:00002744       ??_C@_07FJEGEGFB@shpinst?$AA@ 10003744     riched60:rtflex.obj
 0001:0000274c       ??_C@_06HMNNINLN@shpgrp?$AA@ 1000374c     riched60:rtflex.obj
 0001:00002754       ??_C@_03MOMKMMPP@shp?$AA@  10003754     riched60:rtflex.obj
 0001:00002758       ??_C@_07IBJKBKNG@shading?$AA@ 10003758     riched60:rtflex.obj
 0001:00002760       ??_C@_04DBLJECKF@shad?$AA@ 10003760     riched60:rtflex.obj
 0001:00002768       ??_C@_05OJKDOPMM@sectd?$AA@ 10003768     riched60:rtflex.obj
 0001:00002770       ??_C@_04IKJFFMEH@sect?$AA@ 10003770     riched60:rtflex.obj
 0001:00002778       ??_C@_05MOGAPOKN@scaps?$AA@ 10003778     riched60:rtflex.obj
 0001:00002780       ??_C@_04EJLCNEJP@sbys?$AA@ 10003780     riched60:rtflex.obj
 0001:00002788       ??_C@_02BMCPJMB@sb?$AA@    10003788     riched60:rtflex.obj
 0001:0000278c       ??_C@_02CKOPKKAC@sa?$AA@   1000378c     riched60:rtflex.obj
 0001:00002790       ??_C@_01LKDEMHDF@s?$AA@    10003790     riched60:rtflex.obj
 0001:00002794       ??_C@_06DHNGDPCD@rtlrow?$AA@ 10003794     riched60:rtflex.obj
 0001:0000279c       ??_C@_06OKDGCOOH@rtlpar?$AA@ 1000379c     riched60:rtflex.obj
 0001:000027a4       ??_C@_07CAPNKAKK@rtlmark?$AA@ 100037a4     riched60:rtflex.obj
 0001:000027ac       ??_C@_06GMAKOADF@rtldoc?$AA@ 100037ac     riched60:rtflex.obj
 0001:000027b4       ??_C@_05JCMAGIPE@rtlch?$AA@ 100037b4     riched60:rtflex.obj
 0001:000027bc       ??_C@_03HPNCEEFJ@rtf?$AA@  100037bc     riched60:rtflex.obj
 0001:000027c0       ??_C@_06MABPOIGD@rquote?$AA@ 100037c0     riched60:rtflex.obj
 0001:000027c8       ??_C@_03DMHICLNI@row?$AA@  100037c8     riched60:rtflex.obj
 0001:000027cc       ??_C@_02ODPEEKDN@ri?$AA@   100037cc     riched60:rtflex.obj
 0001:000027d0       ??_C@_07NCHIIGMD@revised?$AA@ 100037d0     riched60:rtflex.obj
 0001:000027d8       ??_C@_07HGDCBEJF@revauth?$AA@ 100037d8     riched60:rtflex.obj
 0001:000027e0       ??_C@_06KJFADLGN@result?$AA@ 100037e0     riched60:rtflex.obj
 0001:000027e8       ??_C@_03FAAAOPJM@red?$AA@  100037e8     riched60:rtflex.obj
 0001:000027ec       ??_C@_09OIOFJKDD@rdblquote?$AA@ 100037ec     riched60:rtflex.obj
 0001:000027f8       ??_C@_02FBJPAOLP@qs?$AA@   100037f8     riched60:rtflex.obj
 0001:000027fc       ??_C@_02EIIEDPPO@qr?$AA@   100037fc     riched60:rtflex.obj
 0001:00002800       ??_C@_02JMMFAACB@ql?$AA@   10003800     riched60:rtflex.obj
 0001:00002804       ??_C@_02MKJPKHKH@qj?$AA@   10003804     riched60:rtflex.obj
 0001:00002808       ??_C@_02FEBMIKCJ@qd?$AA@   10003808     riched60:rtflex.obj
 0001:0000280c       ??_C@_02BLFNBMOO@qc?$AA@   1000380c     riched60:rtflex.obj
 0001:00002810       ??_C@_03OFKLFAAJ@pwd?$AA@  10003810     riched60:rtflex.obj
 0001:00002814       ??_C@_07LFLAEFDO@protect?$AA@ 10003814     riched60:rtflex.obj
 0001:0000281c       ??_C@_05GABMJOOP@posxr?$AA@ 1000381c     riched60:rtflex.obj
 0001:00002824       ??_C@_06CDICAAAG@pnucrm?$AA@ 10003824     riched60:rtflex.obj
 0001:0000282c       ??_C@_07FHHIIEBC@pnucltr?$AA@ 1000382c     riched60:rtflex.obj
 0001:00002834       ??_C@_06BKOPJJFF@pntxtb?$AA@ 10003834     riched60:rtflex.obj
 0001:0000283c       ??_C@_06DBMCMKJG@pntxta?$AA@ 1000383c     riched60:rtflex.obj
 0001:00002844       ??_C@_06KNBOFKKE@pntext?$AA@ 10003844     riched60:rtflex.obj
 0001:0000284c       ??_C@_07PDFMCPHE@pnstart?$AA@ 1000384c     riched60:rtflex.obj
 0001:00002854       ??_C@_04FDMMHBAO@pnqr?$AA@ 10003854     riched60:rtflex.obj
 0001:0000285c       ??_C@_04BFFCBO@pnqc?$AA@   1000385c     riched60:rtflex.obj
 0001:00002864       ??_C@_09LNJKGHPD@pnlvlcont?$AA@ 10003864     riched60:rtflex.obj
 0001:00002870       ??_C@_09DIMDLFNI@pnlvlbody?$AA@ 10003870     riched60:rtflex.obj
 0001:0000287c       ??_C@_08HKCKHJDC@pnlvlblt?$AA@ 1000387c     riched60:rtflex.obj
 0001:00002888       ??_C@_05ILNJOCED@pnlvl?$AA@ 10003888     riched60:rtflex.obj
 0001:00002890       ??_C@_06EOHCPFPF@pnlcrm?$AA@ 10003890     riched60:rtflex.obj
 0001:00002898       ??_C@_07HDKBNHEB@pnlcltr?$AA@ 10003898     riched60:rtflex.obj
 0001:000028a0       ??_C@_08GJLEHBHF@pnindent?$AA@ 100038a0     riched60:rtflex.obj
 0001:000028ac       ??_C@_07CMOFMJD@pngblip?$AA@ 100038ac     riched60:rtflex.obj
 0001:000028b4       ??_C@_05NHJFMLEK@pndec?$AA@ 100038b4     riched60:rtflex.obj
 0001:000028bc       ??_C@_02KPDBAIJE@pn?$AA@   100038bc     riched60:rtflex.obj
 0001:000028c0       ??_C@_0L@KJPAOEAJ@pmmetafile?$AA@ 100038c0     riched60:rtflex.obj
 0001:000028cc       ??_C@_05CGDPOPDB@plain?$AA@ 100038cc     riched60:rtflex.obj
 0001:000028d4       ??_C@_08ECICDBKB@picwgoal?$AA@ 100038d4     riched60:rtflex.obj
 0001:000028e0       ??_C@_04KMMOMKOM@picw?$AA@ 100038e0     riched60:rtflex.obj
 0001:000028e8       ??_C@_04IHODJJCP@pict?$AA@ 100038e8     riched60:rtflex.obj
 0001:000028f0       ??_C@_09HCDLOIMG@picscaley?$AA@ 100038f0     riched60:rtflex.obj
 0001:000028fc       ??_C@_09GLCANJIH@picscalex?$AA@ 100038fc     riched60:rtflex.obj
 0001:00002908       ??_C@_08LAACIBOP@pichgoal?$AA@ 10003908     riched60:rtflex.obj
 0001:00002914       ??_C@_04GBJEMEHC@pich?$AA@ 10003914     riched60:rtflex.obj
 0001:0000291c       ??_C@_08ONDKDIMA@piccropt?$AA@ 1000391c     riched60:rtflex.obj
 0001:00002928       ??_C@_08LLGAJPEG@piccropr?$AA@ 10003928     riched60:rtflex.obj
 0001:00002934       ??_C@_08GPCBKAJJ@piccropl?$AA@ 10003934     riched60:rtflex.obj
 0001:00002940       ??_C@_08PBKCINBH@piccropb?$AA@ 10003940     riched60:rtflex.obj
 0001:0000294c       ??_C@_04BFHBGKNG@pard?$AA@ 1000394c     riched60:rtflex.obj
 0001:00002954       ??_C@_03OBJIDKBM@par?$AA@  10003954     riched60:rtflex.obj
 0001:00002958       ??_C@_06HGCBJGFC@pagebb?$AA@ 10003958     riched60:rtflex.obj
 0001:00002960       ??_C@_04BGIHDKAM@page?$AA@ 10003960     riched60:rtflex.obj
 0001:00002968       ??_C@_04OEOOFMPH@outl?$AA@ 10003968     riched60:rtflex.obj
 0001:00002970       ??_C@_04JGKOHGDB@objw?$AA@ 10003970     riched60:rtflex.obj
 0001:00002978       ??_C@_06PFKIHBNM@objsub?$AA@ 10003978     riched60:rtflex.obj
 0001:00002980       ??_C@_0L@JJFJBJIO@objsetsize?$AA@ 10003980     riched60:rtflex.obj
 0001:0000298c       ??_C@_09DJIELHFF@objscaley?$AA@ 1000398c     riched60:rtflex.obj
 0001:00002998       ??_C@_09CAJPIGBE@objscalex?$AA@ 10003998     riched60:rtflex.obj
 0001:000029a4       ??_C@_06OHBNNODC@objpub?$AA@ 100039a4     riched60:rtflex.obj
 0001:000029ac       ??_C@_07NLENHNKK@objname?$AA@ 100039ac     riched60:rtflex.obj
 0001:000029b4       ??_C@_07PIPMJFPC@objlink?$AA@ 100039b4     riched60:rtflex.obj
 0001:000029bc       ??_C@_08MNHBBECB@objicemb?$AA@ 100039bc     riched60:rtflex.obj
 0001:000029c8       ??_C@_04FLPEHIKP@objh?$AA@ 100039c8     riched60:rtflex.obj
 0001:000029d0       ??_C@_06JCOPILFH@objemb?$AA@ 100039d0     riched60:rtflex.obj
 0001:000029d8       ??_C@_06IEOJBDIK@object?$AA@ 100039d8     riched60:rtflex.obj
 0001:000029e0       ??_C@_0O@DHCHGDJO@objebookimage?$AA@ 100039e0     riched60:rtflex.obj
 0001:000029f0       ??_C@_07OGGGDIPA@objdata?$AA@ 100039f0     riched60:rtflex.obj
 0001:000029f8       ??_C@_08FGLBOMOF@objcropt?$AA@ 100039f8     riched60:rtflex.obj
 0001:00002a04       ??_C@_08OLELGD@objcropr?$AA@ 10003a04     riched60:rtflex.obj
 0001:00002a10       ??_C@_08NEKKHELM@objcropl?$AA@ 10003a10     riched60:rtflex.obj
 0001:00002a1c       ??_C@_08EKCJFJDC@objcropb?$AA@ 10003a1c     riched60:rtflex.obj
 0001:00002a28       ??_C@_08CELJJKKL@objclass?$AA@ 10003a28     riched60:rtflex.obj
 0001:00002a34       ??_C@_07KABCAKNP@objblob?$AA@ 10003a34     riched60:rtflex.obj
 0001:00002a3c       ??_C@_0L@KHAFJFGH@objautlink?$AA@ 10003a3c     riched60:rtflex.obj
 0001:00002a48       ??_C@_08PFFGDFIN@objattph?$AA@ 10003a48     riched60:rtflex.obj
 0001:00002a54       ??_C@_0M@HPJNHKDL@nowidctlpar?$AA@ 10003a54     riched60:rtflex.obj
 0001:00002a60       ??_C@_0L@NAJAJNLF@nosupersub?$AA@ 10003a60     riched60:rtflex.obj
 0001:00002a6c       ??_C@_0L@IEMABMEA@nooverflow?$AA@ 10003a6c     riched60:rtflex.obj
 0001:00002a78       ??_C@_0L@NANPOBL@nonshppict?$AA@ 10003a78     riched60:rtflex.obj
 0001:00002a84       ??_C@_0N@IJIDOJDF@nonesttables?$AA@ 10003a84     riched60:rtflex.obj
 0001:00002a94       ??_C@_06JHPBLL@noline?$AA@ 10003a94     riched60:rtflex.obj
 0001:00002a9c       ??_C@_0M@JBNMMFAK@newspaperea?$AA@ 10003a9c     riched60:rtflex.obj
 0001:00002aa8       ??_C@_09CJOANEIB@newspaper?$AA@ 10003aa8     riched60:rtflex.obj
 0001:00002ab4       ??_C@_0P@EIHKMAPO@nesttableprops?$AA@ 10003ab4     riched60:rtflex.obj
 0001:00002ac4       ??_C@_07OFBFMDAG@nestrow?$AA@ 10003ac4     riched60:rtflex.obj
 0001:00002acc       ??_C@_08CIAIGJK@nestcell?$AA@ 10003acc     riched60:rtflex.obj
 0001:00002ad8       ??_C@_07MMKMDOJE@macpict?$AA@ 10003ad8     riched60:rtflex.obj
 0001:00002ae0       ??_C@_03BADCJGEO@mac?$AA@  10003ae0     riched60:rtflex.obj
 0001:00002ae4       ??_C@_06CAHOAJH@ltrpar?$AA@ 10003ae4     riched60:rtflex.obj
 0001:00002aec       ??_C@_07HABAOAFI@ltrmark?$AA@ 10003aec     riched60:rtflex.obj
 0001:00002af4       ??_C@_06IEDLCOEF@ltrdoc?$AA@ 10003af4     riched60:rtflex.obj
 0001:00002afc       ??_C@_05BLNKCLLD@ltrch?$AA@ 10003afc     riched60:rtflex.obj
 0001:00002b04       ??_C@_02EFGBDOJM@ls?$AA@   10003b04     riched60:rtflex.obj
 0001:00002b08       ??_C@_06PHPOAPPA@lquote?$AA@ 10003b08     riched60:rtflex.obj
 0001:00002b10       ??_C@_04OBOPOBCN@loch?$AA@ 10003b10     riched60:rtflex.obj
 0001:00002b18       ??_C@_04PLPFJIPM@lnkd?$AA@ 10003b18     riched60:rtflex.obj
 0001:00002b20       ??_C@_08DACNGDDE@listtext?$AA@ 10003b20     riched60:rtflex.obj
 0001:00002b2c       ??_C@_09OBBPKFMH@listtable?$AA@ 10003b2c     riched60:rtflex.obj
 0001:00002b38       ??_C@_0L@KDNBCPMO@listsimple?$AA@ 10003b38     riched60:rtflex.obj
 0001:00002b44       ??_C@_0BC@KODGKOOO@listoverridetable?$AA@ 10003b44     riched60:rtflex.obj
 0001:00002b58       ??_C@_09PKHCMDPP@listlevel?$AA@ 10003b58     riched60:rtflex.obj
 0001:00002b64       ??_C@_06BNMGKLFK@listid?$AA@ 10003b64     riched60:rtflex.obj
 0001:00002b6c       ??_C@_04DONFEANM@list?$AA@ 10003b6c     riched60:rtflex.obj
 0001:00002b74       ??_C@_04HJPCFDOP@line?$AA@ 10003b74     riched60:rtflex.obj
 0001:00002b7c       ??_C@_02PFEMMEEH@li?$AA@   10003b7c     riched60:rtflex.obj
 0001:00002b80       ??_C@_09BMMGEHMM@leveltext?$AA@ 10003b80     riched60:rtflex.obj
 0001:00002b8c       ??_C@_0N@NDGEMDMB@levelstartat?$AA@ 10003b8c     riched60:rtflex.obj
 0001:00002b9c       ??_C@_0N@GMGPDENL@levelpicture?$AA@ 10003b9c     riched60:rtflex.obj
 0001:00002bac       ??_C@_08GJJKNJEM@levelnfc?$AA@ 10003bac     riched60:rtflex.obj
 0001:00002bb8       ??_C@_07DCNONOOI@leveljc?$AA@ 10003bb8     riched60:rtflex.obj
 0001:00002bc0       ??_C@_09NBICCLGI@ldblquote?$AA@ 10003bc0     riched60:rtflex.obj
 0001:00002bcc       ??_C@_06NJFKEBAF@lchars?$AA@ 10003bcc     riched60:rtflex.obj
 0001:00002bd4       ??_C@_04IOHABJIC@lang?$AA@ 10003bd4     riched60:rtflex.obj
 0001:00002bdc       ??_C@_07IAOBDJBM@kerning?$AA@ 10003bdc     riched60:rtflex.obj
 0001:00002be4       ??_C@_05NOKLHALA@keepn?$AA@ 10003be4     riched60:rtflex.obj
 0001:00002bec       ??_C@_04LKOEDJLC@keep?$AA@ 10003bec     riched60:rtflex.obj
 0001:00002bf4       ??_C@_0M@LLPFKAIF@justsoftend?$AA@ 10003bf4     riched60:rtflex.obj
 0001:00002c00       ??_C@_0N@ELKGOOAI@justlastline?$AA@ 10003c00     riched60:rtflex.obj
 0001:00002c10       ??_C@_06OILANGHH@jspace?$AA@ 10003c10     riched60:rtflex.obj
 0001:00002c18       ??_C@_08EKKPMIJE@jpegblip?$AA@ 10003c18     riched60:rtflex.obj
 0001:00002c24       ??_C@_05KJEDMJBK@jkern?$AA@ 10003c24     riched60:rtflex.obj
 0001:00002c2c       ??_C@_07NMJJEICL@jexpand?$AA@ 10003c2c     riched60:rtflex.obj
 0001:00002c34       ??_C@_09IKJJGEAA@jcompress?$AA@ 10003c34     riched60:rtflex.obj
 0001:00002c40       ??_C@_0L@NIKEDPCN@jcomppunct?$AA@ 10003c40     riched60:rtflex.obj
 0001:00002c4c       ??_C@_09FNFDKEAK@jclisttab?$AA@ 10003c4c     riched60:rtflex.obj
 0001:00002c58       ??_C@_04CPIIPCPE@itap?$AA@ 10003c58     riched60:rtflex.obj
 0001:00002c60       ??_C@_05CBICMFMM@intbl?$AA@ 10003c60     riched60:rtflex.obj
 0001:00002c68       ??_C@_04NIDJFNBE@info?$AA@ 10003c68     riched60:rtflex.obj
 0001:00002c70       ??_C@_04CNELEBCE@impr?$AA@ 10003c70     riched60:rtflex.obj
 0001:00002c78       ??_C@_04EFDLGFCM@ilvl?$AA@ 10003c78     riched60:rtflex.obj
 0001:00002c80       ??_C@_01KBJDNOO@i?$AA@     10003c80     riched60:rtflex.obj
 0001:00002c84       ??_C@_07HNGACFNC@hyphpar?$AA@ 10003c84     riched60:rtflex.obj
 0001:00002c8c       ??_C@_08EAIEIHMN@horzvert?$AA@ 10003c8c     riched60:rtflex.obj
 0001:00002c98       ??_C@_09MIAHMBP@highlight?$AA@ 10003c98     riched60:rtflex.obj
 0001:00002ca4       ??_C@_04DBAEBIDB@hich?$AA@ 10003ca4     riched60:rtflex.obj
 0001:00002cac       ??_C@_07KJMDFFND@headerr?$AA@ 10003cac     riched60:rtflex.obj
 0001:00002cb4       ??_C@_07HNICGKAM@headerl?$AA@ 10003cb4     riched60:rtflex.obj
 0001:00002cbc       ??_C@_07IHGNICIG@headerf?$AA@ 10003cbc     riched60:rtflex.obj
 0001:00002cc4       ??_C@_06MBPAJAPM@header?$AA@ 10003cc4     riched60:rtflex.obj
 0001:00002ccc       ??_C@_05GBEEJKMC@green?$AA@ 10003ccc     riched60:rtflex.obj
 0001:00002cd4       ??_C@_07OCLNOKC@ftnsepc?$AA@ 10003cd4     riched60:rtflex.obj
 0001:00002cdc       ??_C@_06CEONKAOK@ftnsep?$AA@ 10003cdc     riched60:rtflex.obj
 0001:00002ce4       ??_C@_05PGNEEHHE@ftncn?$AA@ 10003ce4     riched60:rtflex.obj
 0001:00002cec       ??_C@_05HHIPGHPD@ftech?$AA@ 10003cec     riched60:rtflex.obj
 0001:00002cf4       ??_C@_06FIDKFOFL@fswiss?$AA@ 10003cf4     riched60:rtflex.obj
 0001:00002cfc       ??_C@_07FCHOBGM@fscript?$AA@ 10003cfc     riched60:rtflex.obj
 0001:00002d04       ??_C@_02EIPGLLEK@fs?$AA@   10003d04     riched60:rtflex.obj
 0001:00002d08       ??_C@_06KMFKNNOI@froman?$AA@ 10003d08     riched60:rtflex.obj
 0001:00002d10       ??_C@_04CFMBNOBK@fprq?$AA@ 10003d10     riched60:rtflex.obj
 0001:00002d18       ??_C@_08NMDMKDKE@footnote?$AA@ 10003d18     riched60:rtflex.obj
 0001:00002d24       ??_C@_07ECNDOOFN@footerr?$AA@ 10003d24     riched60:rtflex.obj
 0001:00002d2c       ??_C@_07JGJCNBIC@footerl?$AA@ 10003d2c     riched60:rtflex.obj
 0001:00002d34       ??_C@_07GMHNDJAI@footerf?$AA@ 10003d34     riched60:rtflex.obj
 0001:00002d3c       ??_C@_06NPHNCBDJ@footer?$AA@ 10003d3c     riched60:rtflex.obj
 0001:00002d44       ??_C@_07KJENJBKN@fonttbl?$AA@ 10003d44     riched60:rtflex.obj
 0001:00002d4c       ??_C@_04HKBINODL@fnil?$AA@ 10003d4c     riched60:rtflex.obj
 0001:00002d54       ??_C@_05GNINCMMA@fname?$AA@ 10003d54     riched60:rtflex.obj
 0001:00002d5c       ??_C@_07FDNLDFKL@fmodern?$AA@ 10003d5c     riched60:rtflex.obj
 0001:00002d64       ??_C@_07KDCMNABM@fldrslt?$AA@ 10003d64     riched60:rtflex.obj
 0001:00002d6c       ??_C@_07BBFBNIA@fldinst?$AA@ 10003d6c     riched60:rtflex.obj
 0001:00002d74       ??_C@_05EIBGDMPB@field?$AA@ 10003d74     riched60:rtflex.obj
 0001:00002d7c       ??_C@_02PINLEBJB@fi?$AA@   10003d7c     riched60:rtflex.obj
 0001:00002d80       ??_C@_06DPFDCDKL@fdecor?$AA@ 10003d80     riched60:rtflex.obj
 0001:00002d88       ??_C@_08OMMNGDLO@fcharset?$AA@ 10003d88     riched60:rtflex.obj
 0001:00002d94       ??_C@_06HNCKBOEL@fchars?$AA@ 10003d94     riched60:rtflex.obj
 0001:00002d9c       ??_C@_05MOKNJNKN@fbidi?$AA@ 10003d9c     riched60:rtflex.obj
 0001:00002da4       ??_C@_01INIBCBCB@f?$AA@    10003da4     riched60:rtflex.obj
 0001:00002da8       ??_C@_07HHLDJLAB@expndtw?$AA@ 10003da8     riched60:rtflex.obj
 0001:00002db0       ??_C@_07HMLKFMKM@enspace?$AA@ 10003db0     riched60:rtflex.obj
 0001:00002db8       ??_C@_06JNFIFLKE@endash?$AA@ 10003db8     riched60:rtflex.obj
 0001:00002dc0       ??_C@_07ENFCEGDB@emspace?$AA@ 10003dc0     riched60:rtflex.obj
 0001:00002dc8       ??_C@_07MMCBKKOE@emfblip?$AA@ 10003dc8     riched60:rtflex.obj
 0001:00002dd0       ??_C@_06BLMMCJAK@emdash?$AA@ 10003dd0     riched60:rtflex.obj
 0001:00002dd8       ??_C@_04IHFLHCH@embo?$AA@  10003dd8     riched60:rtflex.obj
 0001:00002de0       ??_C@_08MCHKNFIA@dropcapt?$AA@ 10003de0     riched60:rtflex.obj
 0001:00002dec       ??_C@_09ELHANLND@dropcapli?$AA@ 10003dec     riched60:rtflex.obj
 0001:00002df8       ??_C@_07GLPMJBIE@doctype?$AA@ 10003df8     riched60:rtflex.obj
 0001:00002e00       ??_C@_02LEBOADDI@dn?$AA@   10003e00     riched60:rtflex.obj
 0001:00002e04       ??_C@_08BEHKFNNO@disabled?$AA@ 10003e04     riched60:rtflex.obj
 0001:00002e10       ??_C@_08EHDLDCAH@dibitmap?$AA@ 10003e10     riched60:rtflex.obj
 0001:00002e1c       ??_C@_07JCMGEKCK@deleted?$AA@ 10003e1c     riched60:rtflex.obj
 0001:00002e24       ??_C@_06KJKCMLIK@deftab?$AA@ 10003e24     riched60:rtflex.obj
 0001:00002e2c       ??_C@_09JPJEIKNM@deflangfe?$AA@ 10003e2c     riched60:rtflex.obj
 0001:00002e38       ??_C@_07HOPCBALC@deflang?$AA@ 10003e38     riched60:rtflex.obj
 0001:00002e40       ??_C@_04CGGKKFON@deff?$AA@ 10003e40     riched60:rtflex.obj
 0001:00002e48       ??_C@_04CDPFHCDB@dbch?$AA@ 10003e48     riched60:rtflex.obj
 0001:00002e50       ??_C@_02EODNHJKB@cs?$AA@   10003e50     riched60:rtflex.obj
 0001:00002e54       ??_C@_03IJGFONDO@cpg?$AA@  10003e54     riched60:rtflex.obj
 0001:00002e58       ??_C@_07GJGNEJFD@comment?$AA@ 10003e58     riched60:rtflex.obj
 0001:00002e60       ??_C@_08CFDDMALI@colortbl?$AA@ 10003e60     riched60:rtflex.obj
 0001:00002e6c       ??_C@_09GCFAGBMA@collapsed?$AA@ 10003e6c     riched60:rtflex.obj
 0001:00002e78       ??_C@_06GFOMMCDH@clvmrg?$AA@ 10003e78     riched60:rtflex.obj
 0001:00002e80       ??_C@_06GGBKJCON@clvmgf?$AA@ 10003e80     riched60:rtflex.obj
 0001:00002e88       ??_C@_09OJHMNBJM@clvertalc?$AA@ 10003e88     riched60:rtflex.obj
 0001:00002e94       ??_C@_09PAGHOANN@clvertalb?$AA@ 10003e94     riched60:rtflex.obj
 0001:00002ea0       ??_C@_09OBLALELF@cltxtbrlv?$AA@ 10003ea0     riched60:rtflex.obj
 0001:00002eac       ??_C@_08JNMNKDKC@cltxlrtb?$AA@ 10003eac     riched60:rtflex.obj
 0001:00002eb8       ??_C@_07HAOKJJKC@clshdng?$AA@ 10003eb8     riched60:rtflex.obj
 0001:00002ec0       ??_C@_05CIBKNHGE@clmrg?$AA@ 10003ec0     riched60:rtflex.obj
 0001:00002ec8       ??_C@_05CLOMIHLO@clmgf?$AA@ 10003ec8     riched60:rtflex.obj
 0001:00002ed0       ??_C@_07HJMEODDP@clcfpat?$AA@ 10003ed0     riched60:rtflex.obj
 0001:00002ed8       ??_C@_07IMEEEFPP@clcbpat?$AA@ 10003ed8     riched60:rtflex.obj
 0001:00002ee0       ??_C@_07OGODNMDJ@clbrdrt?$AA@ 10003ee0     riched60:rtflex.obj
 0001:00002ee8       ??_C@_07LALJHLLP@clbrdrr?$AA@ 10003ee8     riched60:rtflex.obj
 0001:00002ef0       ??_C@_07GEPIEEGA@clbrdrl?$AA@ 10003ef0     riched60:rtflex.obj
 0001:00002ef8       ??_C@_07PKHLGJOO@clbrdrb?$AA@ 10003ef8     riched60:rtflex.obj
 0001:00002f00       ??_C@_07HIALGBOM@chcbpat?$AA@ 10003f00     riched60:rtflex.obj
 0001:00002f08       ??_C@_0L@BFKLKCJF@charscalex?$AA@ 10003f08     riched60:rtflex.obj
 0001:00002f14       ??_C@_05LPFGBMDM@cfpat?$AA@ 10003f14     riched60:rtflex.obj
 0001:00002f1c       ??_C@_02HJIIJPLF@cf?$AA@   10003f1c     riched60:rtflex.obj
 0001:00002f20       ??_C@_05EGFEFCJE@cellx?$AA@ 10003f20     riched60:rtflex.obj
 0001:00002f28       ??_C@_04GDDCBEKB@cell?$AA@ 10003f28     riched60:rtflex.obj
 0001:00002f30       ??_C@_05EKNGLKPM@cbpat?$AA@ 10003f30     riched60:rtflex.obj
 0001:00002f38       ??_C@_04DEDGNHHM@caps?$AA@ 10003f38     riched60:rtflex.obj
 0001:00002f40       ??_C@_06NCIIGPB@bullet?$AA@ 10003f40     riched60:rtflex.obj
 0001:00002f48       ??_C@_04GCJBOLCH@brsp?$AA@ 10003f48     riched60:rtflex.obj
 0001:00002f50       ??_C@_05LFMHAPJ@brdrw?$AA@ 10003f50     riched60:rtflex.obj
 0001:00002f58       ??_C@_0L@HJBBDCPO@brdrtriple?$AA@ 10003f58     riched60:rtflex.obj
 0001:00002f64       ??_C@_06GLAIEJDO@brdrth?$AA@ 10003f64     riched60:rtflex.obj
 0001:00002f6c       ??_C@_05CAHBCDDK@brdrt?$AA@ 10003f6c     riched60:rtflex.obj
 0001:00002f74       ??_C@_06GOEHFPLL@brdrsh?$AA@ 10003f74     riched60:rtflex.obj
 0001:00002f7c       ??_C@_05GPDALFPN@brdrs?$AA@ 10003f7c     riched60:rtflex.obj
 0001:00002f84       ??_C@_05HGCLIELM@brdrr?$AA@ 10003f84     riched60:rtflex.obj
 0001:00002f8c       ??_C@_05KCGKLLGD@brdrl?$AA@ 10003f8c     riched60:rtflex.obj
 0001:00002f94       ??_C@_08MMNCFHJD@brdrhair?$AA@ 10003f94     riched60:rtflex.obj
 0001:00002fa0       ??_C@_07NPAPOIAK@brdrdot?$AA@ 10003fa0     riched60:rtflex.obj
 0001:00002fa8       ??_C@_06INMBACME@brdrdb?$AA@ 10003fa8     riched60:rtflex.obj
 0001:00002fb0       ??_C@_0L@PLNDEABD@brdrdashsm?$AA@ 10003fb0     riched60:rtflex.obj
 0001:00002fbc       ??_C@_08KILOGGOP@brdrdash?$AA@ 10003fbc     riched60:rtflex.obj
 0001:00002fc8       ??_C@_06OMOCNBEF@brdrcf?$AA@ 10003fc8     riched60:rtflex.obj
 0001:00002fd0       ??_C@_07MBDKKIIE@brdrbtw?$AA@ 10003fd0     riched60:rtflex.obj
 0001:00002fd8       ??_C@_07KGKADNFK@brdrbar?$AA@ 10003fd8     riched60:rtflex.obj
 0001:00002fe0       ??_C@_05DMOJJGON@brdrb?$AA@ 10003fe0     riched60:rtflex.obj
 0001:00002fe8       ??_C@_03OLPJGAII@box?$AA@  10003fe8     riched60:rtflex.obj
 0001:00002fec       ??_C@_04OBGPFBCN@blue?$AA@ 10003fec     riched60:rtflex.obj
 0001:00002ff4       ??_C@_03PDOMKJON@bin?$AA@  10003ff4     riched60:rtflex.obj
 0001:00002ff8       ??_C@_06NAHFADN@bgvert?$AA@ 10003ff8     riched60:rtflex.obj
 0001:00003000       ??_C@_07OKCHJBFE@bghoriz?$AA@ 10004000     riched60:rtflex.obj
 0001:00003008       ??_C@_07NBJKCMAP@bgfdiag?$AA@ 10004008     riched60:rtflex.obj
 0001:00003010       ??_C@_08MKMLGOCM@bgdkvert?$AA@ 10004010     riched60:rtflex.obj
 0001:0000301c       ??_C@_09IAFAHNJI@bgdkhoriz?$AA@ 1000401c     riched60:rtflex.obj
 0001:00003028       ??_C@_09LLONMAMD@bgdkfdiag?$AA@ 10004028     riched60:rtflex.obj
 0001:00003034       ??_C@_0L@GAJOKPGC@bgdkdcross?$AA@ 10004034     riched60:rtflex.obj
 0001:00003040       ??_C@_09BAOHMMMF@bgdkcross?$AA@ 10004040     riched60:rtflex.obj
 0001:0000304c       ??_C@_09CAHMICNF@bgdkbdiag?$AA@ 1000404c     riched60:rtflex.obj
 0001:00003058       ??_C@_08PCCGFGBF@bgdcross?$AA@ 10004058     riched60:rtflex.obj
 0001:00003064       ??_C@_07HKJACAAJ@bgcross?$AA@ 10004064     riched60:rtflex.obj
 0001:0000306c       ??_C@_07EKALGOBJ@bgbdiag?$AA@ 1000406c     riched60:rtflex.obj
 0001:00003074       ??_C@_0L@EGCKCJDC@background?$AA@ 10004074     riched60:rtflex.obj
 0001:00003080       ??_C@_01OJONOECF@b?$AA@    10004080     riched60:rtflex.obj
 0001:00003084       ??_C@_08EHHNEMCH@aspparen?$AA@ 10004084     riched60:rtflex.obj
 0001:00003090       ??_C@_06GCKGMHBB@aspnum?$AA@ 10004090     riched60:rtflex.obj
 0001:00003098       ??_C@_08FCCOBOLP@aspalpha?$AA@ 10004098     riched60:rtflex.obj
 0001:000030a4       ??_C@_07BDFPBAIF@ansicpg?$AA@ 100040a4     riched60:rtflex.obj
 0001:000030ac       ??_C@_04KEPONAMI@ansi?$AA@ 100040ac     riched60:rtflex.obj
 0001:000030b4       ??_C@_08CMNABNKJ@animtext?$AA@ 100040b4     riched60:rtflex.obj
 0001:000030c0       ??_C@_03BFGJCNCC@afs?$AA@  100040c0     riched60:rtflex.obj
 0001:000030c4       ??_C@_02HKAMELNL@af?$AA@   100040c4     riched60:rtflex.obj
 0001:000030c8       ??_C@_05JCCCCPKM@adeff?$AA@ 100040c8     riched60:rtflex.obj
 0001:000030d0       ??_C@_04NBLCACHN@accp?$AA@ 100040d0     riched60:rtflex.obj
 0001:000030d8       ??_C@_07KNCGPMIO@accnone?$AA@ 100040d8     riched60:rtflex.obj
 0001:000030e0       ??_C@_06KDDMEHAC@accdot?$AA@ 100040e0     riched60:rtflex.obj
 0001:000030e8       ??_C@_08NGHDDPLF@acccomma?$AA@ 100040e8     riched60:rtflex.obj
 0001:000030f4       ??_C@_03FJGAPNJI@acc?$AA@  100040f4     riched60:rtflex.obj
 0001:000030f8       ?rgKeyword@@3QBU_keyword@@B 100040f8     riched60:rtflex.obj
 0001:00003c28       ?rgShapeKeyword@@3QBU_keyword@@B 10004c28     riched60:rtflex.obj
 0001:00003c50       ?szSymbolKeywords@@3QBEB   10004c50     riched60:rtflex.obj
 0001:00003c5c       ?tokenSymbol@@3QBGB        10004c5c     riched60:rtflex.obj
 0001:00003c78       ?rgbCharClass@@3QBEB       10004c78     riched60:rtflex.obj
 0001:00003d78       ??_7IUndoMgr@@6B@          10004d78     riched60:m_undo.obj
 0001:00003db4       ??_7CUndoStackGuard@@6B@   10004db4     riched60:m_undo.obj
 0001:00003db8       ??_7CGenUndoBuilder@@6BIUndoBuilder@@@ 10004db8     riched60:m_undo.obj
 0001:00003dd4       ??_7CGenUndoBuilder@@6BIReEntrantComponent@@@ 10004dd4     riched60:m_undo.obj
 0001:00003dd8       ??_7CUndoStack@@6B@        10004dd8     riched60:m_undo.obj
 0001:00003ea8       ??_7IOleClientSite@@6B@    10004ea8     riched60:coleobj.obj
 0001:00003ecc       ??_7IOleInPlaceSite@@6B@   10004ecc     riched60:coleobj.obj
 0001:00003f08       ??_7COleObject@@6BIOleClientSite@@@ 10004f08     riched60:coleobj.obj
 0001:00003f30       ??_7COleObject@@6BIOleInPlaceSite@@@ 10004f30     riched60:coleobj.obj
 0001:00003f6c       ??_7COleObject@@6BIAdviseSink@@@ 10004f6c     riched60:coleobj.obj
 0001:00003f8c       ??_7COleObject@@6BCSafeRefCount@@@ 10004f8c     riched60:coleobj.obj
 0001:00003fd8       ?g_rgDOI@@3QBKB            10004fd8     riched60:dxfrobj.obj
 0001:0000401c       ??_C@_1CC@LOOKKCJN@?$AAR?$AAi?$AAc?$AAh?$AA?5?$AAT?$AAe?$AAx?$AAt?$AA?5?$AAF?$AAo?$AAr?$AAm?$AAa?$AAt?$AA?$AA@ 1000501c     riched60:dxfrobj.obj
 0001:00004040       ??_C@_1BI@NGLFAICK@?$AAR?$AAT?$AAF?$AA?5?$AAi?$AAn?$AA?5?$AAU?$AAT?$AAF?$AA8?$AA?$AA@ 10005040     riched60:dxfrobj.obj
 0001:00004058       ??_C@_1DG@NKAEBKAG@?$AAR?$AAT?$AAF?$AA?5?$AAw?$AAi?$AAt?$AAh?$AA?5?$AAN?$AAC?$AAR?$AAs?$AA?5?$AAf?$AAo?$AAr?$AA?5?$AAn?$AAo?$AAn?$AAA?$AAS?$AAC?$AAI?$AAI?$AA?$AA@ 10005058     riched60:dxfrobj.obj
 0001:00004090       ??_C@_1BI@CKMGBJKK@?$AAR?$AAT?$AAF?$AA?5?$AAA?$AAs?$AA?5?$AAT?$AAe?$AAx?$AAt?$AA?$AA@ 10005090     riched60:dxfrobj.obj
 0001:000040a8       ??_C@_1CE@CLMIBKGD@?$AAO?$AAb?$AAj?$AAe?$AAc?$AAt?$AA?5?$AAD?$AAe?$AAs?$AAc?$AAr?$AAi?$AAp?$AAt?$AAo?$AAr?$AA?$AA@ 100050a8     riched60:dxfrobj.obj
 0001:000040cc       ??_C@_1CA@HGHIDFGH@?$AAE?$AAm?$AAb?$AAe?$AAd?$AAd?$AAe?$AAd?$AA?5?$AAO?$AAb?$AAj?$AAe?$AAc?$AAt?$AA?$AA@ 100050cc     riched60:dxfrobj.obj
 0001:000040ec       ??_C@_1BK@FFBGFGMI@?$AAE?$AAm?$AAb?$AAe?$AAd?$AA?5?$AAS?$AAo?$AAu?$AAr?$AAc?$AAe?$AA?$AA@ 100050ec     riched60:dxfrobj.obj
 0001:00004108       ??_C@_1BI@GLKNFKLN@?$AAL?$AAi?$AAn?$AAk?$AA?5?$AAS?$AAo?$AAu?$AAr?$AAc?$AAe?$AA?$AA@ 10005108     riched60:dxfrobj.obj
 0001:00004120       ??_C@_1EC@GMNDAMKB@?$AAR?$AAi?$AAc?$AAh?$AA?5?$AAT?$AAe?$AAx?$AAt?$AA?5?$AAF?$AAo?$AAr?$AAm?$AAa?$AAt?$AA?5?$AAW?$AAi?$AAt?$AAh?$AAo?$AAu?$AAt?$AA?5?$AAO?$AAb?$AAj?$AAe?$AAc?$AAt?$AAs@ 10005120     riched60:dxfrobj.obj
 0001:00004164       ??_C@_1DE@JBOPPLNN@?$AAR?$AAi?$AAc?$AAh?$AAE?$AAd?$AAi?$AAt?$AA?5?$AAT?$AAe?$AAx?$AAt?$AA?5?$AAa?$AAn?$AAd?$AA?5?$AAO?$AAb?$AAj?$AAe?$AAc?$AAt?$AAs?$AA?$AA@ 10005164     riched60:dxfrobj.obj
 0001:00004198       ??_C@_1BC@PKFGPGJB@?$AAF?$AAi?$AAl?$AAe?$AAN?$AAa?$AAm?$AAe?$AA?$AA@ 10005198     riched60:dxfrobj.obj
 0001:000041ac       ??_7CEnumFormatEtc@@6B@    100051ac     riched60:dxfrobj.obj
 0001:000041c8       ??_7CDataTransferObj@@6BIDataObject@@@ 100051c8     riched60:dxfrobj.obj
 0001:000041f8       ??_7CDataTransferObj@@6BITxNotify@@@ 100051f8     riched60:dxfrobj.obj
 0001:00004204       ??_C@_01LOCGONAA@?$AA?$AA@ 10005204     riched60:textex.obj
 0001:00004240       ?lscbk@@3U0@B              10005240     riched60:ols.obj
 0001:00004390       ??_C@_13NEHOJCOL@?p?$KN?$AA?$AA@ 10005390     riched60:ols.obj
 0001:00004394       ??_7ITextBlobSurrogate@@6B@ 10005394     riched60:blobs.obj
 0001:000043a4       ??_7CEnumBlob@@6B@         100053a4     riched60:blobs.obj
 0001:000043c8       ??_7CTextBlobSurrogate@@6BIOleObject@@@ 100053c8     riched60:blobs.obj
 0001:00004428       ??_7CTextBlobSurrogate@@6BIPersistStorage@@@ 10005428     riched60:blobs.obj
 0001:00004450       ??_7CTextBlobSurrogate@@6BITextBlobSurrogate@@@ 10005450     riched60:blobs.obj
 0001:00004460       ??_C@_19GJPDHHOH@?$AAB?$AAl?$AAo?$AAb?$AA?$AA@ 10005460     riched60:blobs.obj
 0001:0000446c       ??_C@_1BK@FAJLEEGJ@?$AAR?$AAe?$AAm?$AAo?$AAv?$AAe?$AAO?$AAn?$AAL?$AAo?$AAa?$AAd?$AA?$AA@ 1000546c     riched60:blobs.obj
 0001:00004488       ??_7CObjectMgr@@6B@        10005488     riched60:objmgr.obj
 0001:00004494       ?rgcrRevisions@@3QBKB      10005494     riched60:util.obj
 0001:000044b4       ??_7CSafeRefCount@@6B@     100054b4     riched60:util.obj
 0001:000044b8       ??_C@_1BM@JCODEOF@?$AAR?$AAi?$AAc?$AAh?$AAE?$AAd?$AAi?$AAt?$AAF?$AAl?$AAa?$AAg?$AAs?$AA?$AA@ 100054b8     riched60:util.obj
 0001:000044d4       ??_C@_1BA@PLKLONMN@?$AAL?$AAi?$AAn?$AAk?$AAe?$AAd?$AA?5?$AA?$AA@ 100054d4     riched60:util.obj
 0001:000044e4       ??_7CTxtBreaker@@6B@       100054e4     riched60:txtbrk.obj
 0001:000044f0       ??_7CDisplayPrinter@@6B@   100054f0     riched60:dispprt.obj
 0001:0000462c       __real@41a00000            1000562c     riched60:tomrange.obj
 0001:00004630       __real@bfe0000000000000    10005630     riched60:tomrange.obj
 0001:00004638       ??_C@_1BG@KBEJPGOO@?$AAH?$AAY?$AAP?$AAE?$AAR?$AAL?$AAI?$AAN?$AAK?$AA?5?$AA?$AA@ 10005638     riched60:tomrange.obj
 0001:00004650       ??_C@_06LPEMMGOP@?2?$CFs?$CFhd?$AA@ 10005650     riched60:rtfwrit.obj
 0001:00004658       ??_C@_06LIAMOJHC@?$HL?2?$CFs?$CFd?$AA@ 10005658     riched60:rtfwrit.obj
 0001:00004660       ??_C@_06MHIOEFFN@?$HL?2?$CK?2?$CFs?$AA@ 10005660     riched60:rtfwrit.obj
 0001:00004668       ??_C@_04MJAMHBI@?$HL?2?$CFs?$AA@ 10005668     riched60:rtfwrit.obj
 0001:00004670       ??_C@_05HKMNBDHO@?2?$CFs?$CFd?$AA@ 10005670     riched60:rtfwrit.obj
 0001:00004678       ??_C@_03GFPEDOMH@?2?$CFs?$AA@ 10005678     riched60:rtfwrit.obj
 0001:00004680       ?g_Colors@@3QBKB           10005680     riched60:rtfwrit.obj
 0001:00004788       ?szEndGroupCRLF@@3QBDB     10005788     riched60:rtfwrit.obj
 0001:00004a04       ??_C@_02HLMONDIO@3?$CI?$AA@ 10005a04     riched60:rtfwrit.obj
 0001:00004a08       ??_C@_02PCIJFNDE@?$AN?6?$AA@ 10005a08     riched60:rtfwrit.obj
 0001:00004a0c       ??_C@_0L@KJKMHHG@?$HL?2horzdoc?$HN?$AA@ 10005a0c     riched60:rtfwrit.obj
 0001:00004a18       ??_C@_0CI@CDCFMOEB@?$HL?2?$CK?2generator?5Riched20?512?40?46203@ 10005a18     riched60:rtfwrit.obj
 0001:00004a40       ??_C@_00CNPNBAHC@?$AA@     10005a40     riched60:rtfwrit.obj
 0001:00004a44       ??_C@_0BP@OJOBAKMC@?2nestrow?$HN?$HL?2nonesttables?2par?$HN?$AN?6?$AA@ 10005a44     riched60:rtfwrit.obj
 0001:00004a64       ??_C@_0BD@GMLLJDBB@?$HL?2?$CK?2nesttableprops?$AA@ 10005a64     riched60:rtfwrit.obj
 0001:00004a78       ??_C@_07PIJMGOJJ@?2pvpara?$AA@ 10005a78     riched60:rtfwrit.obj
 0001:00004a80       ??_C@_0L@BBHFJOMO@?$HL?2pntxtb?$CI?$HN?$AA@ 10005a80     riched60:rtfwrit.obj
 0001:00004a8c       ??_C@_04IEJGKNJ@body?$AA@  10005a8c     riched60:rtfwrit.obj
 0001:00004a94       ??_C@_03EFAKJBNN@blt?$AA@  10005a94     riched60:rtfwrit.obj
 0001:00004a98       ??_C@_04INBALIPC@cont?$AA@ 10005a98     riched60:rtfwrit.obj
 0001:00004aa0       ??_C@_0M@BEHBFCPJ@HYPERLINK?5?$CC?$AA@ 10005aa0     riched60:rtfwrit.obj
 0001:00004aac       ??_C@_19HMOGJADO@?$AAf?$AAi?$AAl?$AAe?$AA?$AA@ 10005aac     riched60:rtfwrit.obj
 0001:00004ab8       ??_C@_1BE@CCDEDJOA@?$AAH?$AAY?$AAP?$AAE?$AAR?$AAL?$AAI?$AAN?$AAK?$AA?$AA@ 10005ab8     riched60:rtfwrit.obj
 0001:00004acc       ??_C@_08GGCABMLN@?2ul0?2cf0?$AA@ 10005acc     riched60:rtfwrit.obj
 0001:00004ad8       ??_C@_0O@PHDLGCGJ@?2objattph?2?820?$AA@ 10005ad8     riched60:rtfwrit.obj
 0001:00004ae8       ??_C@_0L@LBCNDEPM@?$HL?5Normal?$DL?$HN?$AA@ 10005ae8     riched60:rtfwrit.obj
 0001:00004af4       ??_C@_06MJAADPIN@?2deff0?$AA@ 10005af4     riched60:rtfwrit.obj
 0001:00004afc       ??_C@_07FGHMLOGD@?2fbidis?$AA@ 10005afc     riched60:rtfwrit.obj
 0001:00004b08       ??_7CDisplaySL@@6B@        10005b08     riched60:dispsl.obj
 0001:00004c40       ??_7CDisplayML@@6B@        10005c40     riched60:dispml.obj
 0001:00004d7c       ??_7CMeasurerNoFC@@6B@     10005d7c     riched60:measure.obj
 0001:00004d94       ??_7CTxtStoryRanges@@6B@   10005d94     riched60:tomstry.obj
 0001:00004dbc       ?g_rgREtoTOMAlign@@3QBEB   10005dbc     riched60:tomfmt.obj
 0001:00004dcc       __real@cb18967f            10005dcc     riched60:tomfmt.obj
 0001:00004dd0       ??_7CTxtPara@@6B@          10005dd0     riched60:tomfmt.obj
 0001:00004ef0       ??_7CTxtFont@@6B@          10005ef0     riched60:tomfmt.obj
 0001:000050a0       ??_7CTxtStrings@@6B@       100060a0     riched60:tomstrs.obj
 0001:00005100       ??_7IAntiEvent@@6B@        10006100     riched60:antievt.obj
 0001:00005118       ??_7CReplaceRangeAE@@6B@   10006118     riched60:antievt.obj
 0001:00005130       ??_7CReplaceFormattingAE@@6B@ 10006130     riched60:antievt.obj
 0001:00005148       ??_7CReplaceObjectAE@@6B@  10006148     riched60:antievt.obj
 0001:00005160       ??_7CResizeObjectAE@@6B@   10006160     riched60:antievt.obj
 0001:00005178       ??_7CSelectionAE@@6B@      10006178     riched60:antievt.obj
 0001:00005190       ??_7CIme@@6B@              10006190     riched60:ime.obj
 0001:000051ac       ??_7CIme_Lev2@@6B@         100061ac     riched60:ime.obj
 0001:000051c8       ??_7CIme_Lev3@@6B@         100061c8     riched60:ime.obj
 0001:000051e8       ??_7CIme_Protected@@6B@    100061e8     riched60:ime.obj
 0001:00005204       ??_7CIme_HangeulToHanja@@6B@ 10006204     riched60:ime.obj
 0001:00005224       ??_7CEnumTracker@@6B@      10006224     riched60:ctracker.obj
 0001:00005244       ??_7CTxtTrackerMgr@@6B@    10006244     riched60:ctracker.obj
 0001:00005250       ??_7CLayout@@6B@           10006250     riched60:layout.obj
 0001:00005280       ??_7CLayoutLineArray@@6B@  10006280     riched60:layout.obj
 0001:000052b4       ??_7?$CLayoutCachingCountOfLeafLines@VCLayoutLineArray@@@@6B@ 100062b4     riched60:layout.obj
 0001:000052e8       ??_7CLayoutRow@@6B@        100062e8     riched60:layout.obj
 0001:0000531c       ??_C@_1O@PLMMBOFP@?$AAS?$AAY?$AAM?$AAB?$AAO?$AAL?$AA?$AA@ 1000631c     riched60:rtfread.obj
 0001:0000532c       ??_C@_13GMDMCADD@?$AA?$CD?$AA?$AA@ 1000632c     riched60:rtfread.obj
 0001:00005330       ??_C@_1O@DDIEFAAE@?$AA?$CC?$AA?5?$AA?2?$AAl?$AA?5?$AA?$CC?$AA?$AA@ 10006330     riched60:rtfread.obj
 0001:00005340       ??_C@_07MBJMFGGL@heading?$AA@ 10006340     riched60:rtfread.obj
 0001:00005348       ??_C@_1BC@GHAGCGAM@?$AA?$AD?$AAO?$AAb?$AAj?$AAI?$AAn?$AAf?$AAo?$AA?$AA@ 10006348     riched60:rtfread2.obj
 0001:00005360       ?c_rgcc00@@3QBEB           10006360     riched60:fetypogr.obj
 0001:00008960       ?vlsimethodsOle@@3ULSIMETHODS@@B 10009960     riched60:olsole.obj
 0001:00008a14       ??_7CTxtColumns@@6B@       10009a14     riched60:tomtbl.obj
 0001:00008a40       ??_7CTxtCells@@6B@         10009a40     riched60:tomtbl.obj
 0001:00008a74       ??_7CTxtColumn@@6B@        10009a74     riched60:tomtbl.obj
 0001:00008aa0       ??_7CTxtRow@@6B@           10009aa0     riched60:tomtbl.obj
 0001:00008af8       ??_7CTxtTable@@6B@         10009af8     riched60:tomtbl.obj
 0001:00008b28       ??_7CDisplayEngine@@6B@    10009b28     riched60:dispengml.obj
 0001:00008bf0       ??_7CDisplayEngineML@@6BCDisplayEngine@@@ 10009bf0     riched60:dispengml.obj
 0001:00008cb4       ??_7CDisplayEngineML@@6B?$CLayoutCachingCountOfLeafLines@VCLayoutLineArray@@@@@ 10009cb4     riched60:dispengml.obj
 0001:00008ce8       ??_7CTxtBorders@@6B@       10009ce8     riched60:tombdrs.obj
 0001:00008d34       ??1CLSLock@@QAA@XZ         10009d34 f i riched60:reinit.obj
 0001:00008d74       ??0CLSFontCacheLock@@QAA@H@Z 10009d74 f i riched60:reinit.obj
 0001:00008f08       DllMain                    10009f08 f   riched60:reinit.obj
 0001:00009108       ?IsBiDiKbdInstalled@CW32System@@SA_NXZ 1000a108 f i riched60:textserv.obj
 0001:0000915c       ?IsPlaceHolderStorySelected@CTxtEdit@@QAAHXZ 1000a15c f i riched60:textserv.obj
 0001:000091b0       ?SHSipPreference@@YAHPAUHWND__@@W4tagSIPSTATE@@@Z 1000a1b0 f i riched60:textserv.obj
 0001:00009200       ?SetOTxDC@CHDC@@QAAXPAVCOTxDC@@PAUILineLayout@OTx@@@Z 1000a200 f i riched60:textserv.obj
 0001:00009248       ?InterchangeScrollCode@@YAGG@Z 1000a248 f   riched60:textserv.obj
 0001:000092a8       ?LoadMsgFilter@CTxtEdit@@QAAHIIJ@Z 1000a2a8 f   riched60:textserv.obj
 0001:0000943c       ?FormatAndPrint@CTxtEdit@@QAAJPAUHDC__@@0PAUtagDVTARGETDEVICE@@PAUtagRECT@@2@Z 1000a43c f   riched60:textserv.obj
 0001:00009598       ?OnTxInPlaceDeactivate@CTxtEdit@@UAAJXZ 1000a598 f   riched60:textserv.obj
 0001:0000960c       ?OnTxUIActivate@CTxtEdit@@UAAJXZ 1000a60c f   riched60:textserv.obj
 0001:00009614       ?OnTxUIDeactivate@CTxtEdit@@UAAJXZ 1000a614 f   riched60:textserv.obj
 0001:0000961c       ?TxGetText@CTxtEdit@@UAAJPAPAG@Z 1000a61c f   riched60:textserv.obj
 0001:000096dc       ?TxGetCurTargetX@CTxtEdit@@UAAJPAJ@Z 1000a6dc f   riched60:textserv.obj
 0001:00009740       ?TxGetBaseLinePos@CTxtEdit@@UAAJPAJ@Z 1000a740 f   riched60:textserv.obj
 0001:0000974c       ?TxGetDropTarget@CTxtEdit@@UAAJPAPAUIDropTarget@@@Z 1000a74c f   riched60:textserv.obj
 0001:00009754       ?OnTxPropertyBitsChange@CTxtEdit@@UAAJKK@Z 1000a754 f   riched60:textserv.obj
 0001:000097e4       ?TxGetCachedSize@CTxtEdit@@UAAJPAK0@Z 1000a7e4 f   riched60:textserv.obj
 0001:0000980c       ?GetILineLayout@CTxtEdit@@QBAPAUILineLayout@OTx@@PA_N@Z 1000a80c f i riched60:textserv.obj
 0001:0000984c       ?ResetDC@CDevDesc@@QAAXXZ  1000a84c f i riched60:textserv.obj
 0001:0000988c       ?SetText@CTxtEdit@@AAAJPBGKJPAVIUndoBuilder@@PAJ@Z 1000a88c f   riched60:textserv.obj
 0001:0000a208       ?TxDraw@CTxtEdit@@UAAJKJPAXPAUtagDVTARGETDEVICE@@PAUHDC__@@2PBU_RECTL@@3PAUtagRECT@@P6AHK@ZKJ@Z 1000b208 f   riched60:textserv.obj
 0001:0000a840       ?TxGetHScroll@CTxtEdit@@UAAJPAJ000PAH@Z 1000b840 f   riched60:textserv.obj
 0001:0000a9c8       ?TxGetVScroll@CTxtEdit@@UAAJPAJ000PAH@Z 1000b9c8 f   riched60:textserv.obj
 0001:0000ab0c       ?OnTxSetCursor@CTxtEdit@@UAAJKJPAXPAUtagDVTARGETDEVICE@@PAUHDC__@@2PBUtagRECT@@HH@Z 1000bb0c f   riched60:textserv.obj
 0001:0000af00       ?TxQueryHitPoint@CTxtEdit@@UAAJKJPAXPAUtagDVTARGETDEVICE@@PAUHDC__@@2PBUtagRECT@@HHPAK@Z 1000bf00 f   riched60:textserv.obj
 0001:0000b078       ?OnTxInPlaceActivate@CTxtEdit@@UAAJPBUtagRECT@@@Z 1000c078 f   riched60:textserv.obj
 0001:0000b200       ?TxSetText@CTxtEdit@@UAAJPBG@Z 1000c200 f   riched60:textserv.obj
 0001:0000b228       ?TxGetNaturalSize@CTxtEdit@@UAAJKPAUHDC__@@0PAUtagDVTARGETDEVICE@@KPBUtagSIZE@@PAJ3@Z 1000c228 f   riched60:textserv.obj
 0001:0000b694       CreateTextServices         1000c694 f   riched60:textserv.obj
 0001:0000b6f4       ?DeleteNmpRuns@CTxtStory@@QAAXXZ 1000c6f4 f i riched60:textserv.obj
 0001:0000b738       ?TxSendMessage@CTxtEdit@@UAAJIIJPAJ@Z 1000c738 f   riched60:textserv.obj
 0001:0000f3d0       ?OnWinNTFE@CW32System@@SA_NXZ 100103d0 f i riched60:edit.obj
 0001:0000f414       ?IsComplexScript@CTxtEdit@@QBAHXZ 10010414 f i riched60:edit.obj
 0001:0000f450       ?FAdjustFELineHt@CDisplay@@QBAHXZ 10010450 f i riched60:edit.obj
 0001:0000f4ac       ?GetKbdFlags@@YAKGK@Z      100104ac f   riched60:edit.obj
 0001:0000f4f4       ?TwipsToQuarterPoints@@YAJJ@Z 100104f4 f   riched60:edit.obj
 0001:0000f518       ?CheckTwips@@YAJJ@Z        10010518 f   riched60:edit.obj
 0001:0000f538       ?CheckCharRange@@YAJPAU_charrange@@J@Z 10010538 f   riched60:edit.obj
 0001:0000f56c       ?TxInvalidateRect@CTxtEdit@@QAAXPBUtagRECT@@@Z 1001056c f   riched60:edit.obj
 0001:0000f588       ?TxInvalidateRect@CTxtEdit@@QAAXPBURECTUV@@@Z 10010588 f   riched60:edit.obj
 0001:0000f5d0       ?TransformPoint@CTxtEdit@@QAAXPAUtagPOINT@@@Z 100105d0 f   riched60:edit.obj
 0001:0000f674       ?CheckAcetateSelection@CTxtEdit@@QAAXXZ 10010674 f   riched60:edit.obj
 0001:0000f6e4       ?QueryInterface@CTxtEdit@@UAAJABU_GUID@@PAPAX@Z 100106e4 f   riched60:edit.obj
 0001:0000f6fc       ?AddRef@CTxtEdit@@UAAKXZ   100106fc f   riched60:edit.obj
 0001:0000f714       ?Release@CTxtEdit@@UAAKXZ  10010714 f   riched60:edit.obj
 0001:0000f72c       ?CreateUndoMgr@CTxtEdit@@QAAPAVIUndoMgr@@JW4USFlags@@@Z 1001072c f   riched60:edit.obj
 0001:0000f800       ?HandleSetUndoLimit@CTxtEdit@@QAAJJ@Z 10010800 f   riched60:edit.obj
 0001:0000f984       ?GetUniscribe@@YAPAVCUniscribe@@XZ 10010984 f   riched60:edit.obj
 0001:0000fa24       ?GetNotifyMgr@CTxtEdit@@QAAPAVCNotifyMgr@@XZ 10010a24 f   riched60:edit.obj
 0001:0000fa2c       ?GetObjectMgr@CTxtEdit@@QAAPAVCObjectMgr@@XZ 10010a2c f   riched60:edit.obj
 0001:0000fa9c       ?IsBlobObject@CTxtEdit@@QBAHJPAVCTxtStory@@@Z 10010a9c f   riched60:edit.obj
 0001:0000fb14       ?GetSelMin@CTxtEdit@@QBAJXZ 10010b14 f   riched60:edit.obj
 0001:0000fb54       ?GetSelMost@CTxtEdit@@QBAJXZ 10010b54 f   riched60:edit.obj
 0001:0000fb94       ?OnTxCaptureChanged@CTxtEdit@@AAAJIJ@Z 10010b94 f   riched60:edit.obj
 0001:0000fbbc       ?StopMagellanScroll@CTxtEdit@@AAAHXZ 10010bbc f   riched60:edit.obj
 0001:0000fc30       ?CheckInstallContinuousScroll@CTxtEdit@@AAAXXZ 10010c30 f   riched60:edit.obj
 0001:0000fc70       ?CheckRemoveContinuousScroll@CTxtEdit@@AAAXXZ 10010c70 f   riched60:edit.obj
 0001:0000fca8       ?OnDisplayBand@CTxtEdit@@AAAHPBUtagRECT@@H@Z 10010ca8 f   riched60:edit.obj
 0001:0000ff30       ?QueryInterface@CUnknown@CTxtEdit@@UAAJABU_GUID@@PAPAX@Z 10010f30 f   riched60:edit.obj
 0001:00010104       ?AddRef@CUnknown@CTxtEdit@@UAAKXZ 10011104 f   riched60:edit.obj
 0001:00010118       ?ValidateTextRange@@YAJPAU_textrangew@@@Z 10011118 f   riched60:edit.obj
 0001:00010174       ?GetSel@CTxtEdit@@QAAPAVCTxtSelection@@XZ 10011174 f   riched60:edit.obj
 0001:000101c0       ?DiscardSelection@CTxtEdit@@QAAXXZ 100111c0 f   riched60:edit.obj
 0001:00010200       ?GetSelRangeForRender@CTxtEdit@@QAAHPAJ0JPAH@Z 10011200 f   riched60:edit.obj
 0001:00010264       ?IsMultiSelect@CTxtEdit@@QBAHPAH@Z 10011264 f   riched60:edit.obj
 0001:000102c4       ?OnDropFiles@CTxtEdit@@AAAJPAX@Z 100112c4 f   riched60:edit.obj
 0001:000102cc       ?FMidLetter@@YAHJPBGJ0@Z   100112cc f   riched60:edit.obj
 0001:0001034c       ?TxGetLineCount@CTxtEdit@@AAAJPAJ@Z 1001134c f   riched60:edit.obj
 0001:000103ec       ?OnGetParaFormat@CTxtEdit@@AAAJPAUPARAFORMAT2@@KPAU_charrange@@@Z 100113ec f   riched60:edit.obj
 0001:00010510       ?OnGetTextFlow@CTxtEdit@@AAAJPAU_charrange@@@Z 10011510 f   riched60:edit.obj
 0001:000105bc       ?TxLineScroll@CTxtEdit@@AAAJJJ@Z 100115bc f   riched60:edit.obj
 0001:000105d8       ?OnScrollCaret@CTxtEdit@@AAAXXZ 100115d8 f   riched60:edit.obj
 0001:0001061c       ?Beep@CTxtEdit@@QAAXXZ     1001161c f   riched60:edit.obj
 0001:00010634       ?GetBreakUnit@CTxtEdit@@QBAIXZ 10011634 f   riched60:edit.obj
 0001:00010678       ?TxGetViewInset@CTxtEdit@@QBAXAAURECTUV@@PBVCDisplay@@PAU2@@Z 10011678 f   riched60:edit.obj
 0001:000108dc       ?IsLeftScrollbar@CTxtEdit@@QBAHXZ 100118dc f   riched60:edit.obj
 0001:00010930       ?TxGetBackStyle@CTxtEdit@@QBA?AW4TXTBACKSTYLE@@XZ 10011930 f   riched60:edit.obj
 0001:00010960       ?TxGetAutoSize@CTxtEdit@@QBAHXZ 10011960 f   riched60:edit.obj
 0001:0001096c       ?TxGetAutoWordSel@CTxtEdit@@QBAHXZ 1001196c f   riched60:edit.obj
 0001:000109b0       ?TxGetMaxLength@CTxtEdit@@QBAKXZ 100119b0 f   riched60:edit.obj
 0001:000109b8       ?TxGetPasswordChar@CTxtEdit@@QBAGXZ 100119b8 f   riched60:edit.obj
 0001:00010a18       ?TxGetClientRect@CTxtEdit@@QBAXAAUtagRECT@@PAU2@@Z 10011a18 f   riched60:edit.obj
 0001:00010b44       ?TxShowScrollBar@CTxtEdit@@QAAHHH@Z 10011b44 f   riched60:edit.obj
 0001:00010b94       ?TxEnableScrollBar@CTxtEdit@@QAAHHH@Z 10011b94 f   riched60:edit.obj
 0001:00010be4       ?TxSetScrollRange@CTxtEdit@@QAAHHJHH@Z 10011be4 f   riched60:edit.obj
 0001:00010c4c       ?TxSetScrollPos@CTxtEdit@@QAAHHHH@Z 10011c4c f   riched60:edit.obj
 0001:00010ca4       ?TxSetCaretPos@CTxtEdit@@QAAHHH@Z 10011ca4 f   riched60:edit.obj
 0001:00010cf4       ?TxGetScrollBars@CTxtEdit@@QBAKXZ 10011cf4 f   riched60:edit.obj
 0001:00010d68       ?TxGetSelectionBarWidth@CTxtEdit@@QBAJXZ 10011d68 f   riched60:edit.obj
 0001:00010d98       ?TxGetWordWrap@CTxtEdit@@QBAHXZ 10011d98 f   riched60:edit.obj
 0001:00010ddc       ?ClearUndo@CTxtEdit@@AAAXPAVIUndoBuilder@@@Z 10011ddc f   riched60:edit.obj
 0001:00010e30       ?TxIsDoubleClickPending@CTxtEdit@@QAAHXZ 10011e30 f   riched60:edit.obj
 0001:00010e5c       ?TxGetWindow@CTxtEdit@@QAAJPAPAUHWND__@@@Z 10011e5c f   riched60:edit.obj
 0001:00010e8c       ?TxSetForegroundWindow@CTxtEdit@@QAAJXZ 10011e8c f   riched60:edit.obj
 0001:00010ebc       ?TxGetPalette@CTxtEdit@@QAAPAUHPALETTE__@@XZ 10011ebc f   riched60:edit.obj
 0001:00010ee8       ?TxGetFEFlags@CTxtEdit@@QAAJPAJ@Z 10011ee8 f   riched60:edit.obj
 0001:00010f88       ?TxSetCursor@CTxtEdit@@QAAPAUHICON__@@PAU2@H@Z 10011f88 f   riched60:edit.obj
 0001:00010fd0       ?TxNotify@CTxtEdit@@QAAJKPAX@Z 10011fd0 f   riched60:edit.obj
 0001:00011094       ?SendScrollEvent@CTxtEdit@@QAAXK@Z 10012094 f   riched60:edit.obj
 0001:000110b8       ?HandleLowFiRTF@CTxtEdit@@QAAHPAD@Z 100120b8 f   riched60:edit.obj
 0001:00011120       ?CheckLink@CTxtEdit@@QAAHPAVCTxtRange@@H@Z 10012120 f   riched60:edit.obj
 0001:000111d8       ?NotifyTracker@CTxtEdit@@QAAHPAVCTxtRange@@IIJ@Z 100121d8 f   riched60:edit.obj
 0001:00011290       ?GetDefaultCharFormat@CTxtEdit@@QAAJPAVCCharFormat@@AAK@Z 10012290 f   riched60:edit.obj
 0001:0001136c       ?GetDefaultParaFormat@CTxtEdit@@QAAJPAVCParaFormat@@@Z 1001236c f   riched60:edit.obj
 0001:0001143c       ?GetAdjustedTextLength@CTxtEdit@@AAAJPAVCTxtStory@@@Z 1001243c f   riched60:edit.obj
 0001:00011474       ?GetCharFormat@CTxtEdit@@QBAPBVCCharFormat@@J@Z 10012474 f   riched60:edit.obj
 0001:000114b8       ?GetParaFormat@CTxtEdit@@QBAPBVCParaFormat@@J@Z 100124b8 f   riched60:edit.obj
 0001:000114fc       ?SetRichDocEndEOP@CTxtEdit@@AAAXJ@Z 100124fc f   riched60:edit.obj
 0001:00011588       ?PopAndExecuteAntiEvent@CTxtEdit@@QAAJPAVIUndoMgr@@PAX@Z 10012588 f   riched60:edit.obj
 0001:000116a0       ?PasteDataObjectToRange@CTxtEdit@@QAAJPAUIDataObject@@PAVCTxtRange@@GPAU_repastespecial@@PAVIUndoBuilder@@K@Z 100126a0 f   riched60:edit.obj
 0001:000116f8       ?TxScrollWindowEx@CTxtEdit@@QAAXHHPBUtagRECT@@0@Z 100126f8 f   riched60:edit.obj
 0001:000117b0       ?GetAcpFromCp@CTxtEdit@@QAAJJH@Z 100127b0 f   riched60:edit.obj
 0001:00011818       ?GetCpFromAcp@CTxtEdit@@QAAJJH@Z 10012818 f   riched60:edit.obj
 0001:00011888       ?GetViewKind@CTxtEdit@@QAAJPAJ@Z 10012888 f   riched60:edit.obj
 0001:000118c0       ?GetViewScale@CTxtEdit@@QAAJPAJ@Z 100128c0 f   riched60:edit.obj
 0001:00011918       ?SetViewScale@CTxtEdit@@QAAJJ@Z 10012918 f   riched60:edit.obj
 0001:00011938       ?MoveSelection@CTxtEdit@@QAAJJPAVIUndoBuilder@@@Z 10012938 f   riched60:edit.obj
 0001:00011d18       ?FillDIB@@YAHPAUHBITMAP__@@PAPAX@Z 10012d18 f   riched60:edit.obj
 0001:00011e2c       ?OnInsertObject@CTxtEdit@@AAAJIJPAVIUndoBuilder@@@Z 10012e2c f   riched60:edit.obj
 0001:00011f20       ?GetStoryID@CTxtEdit@@AAAJPAVCTxtStory@@@Z 10012f20 f   riched60:edit.obj
 0001:00011f5c       ?CleanupHostData@CTxtEdit@@QAAXXZ 10012f5c f   riched60:edit.obj
 0001:00012008       ?OnSetAssociateFont@CTxtEdit@@AAAJPAUCHARFORMAT2W@@K@Z 10013008 f   riched60:edit.obj
 0001:0001223c       ?OnGetAssociateFont@CTxtEdit@@AAAJPAUCHARFORMAT2W@@K@Z 1001323c f   riched60:edit.obj
 0001:000123c4       ?GetCaretWidth@CTxtEdit@@QAAJXZ 100133c4 f   riched60:edit.obj
 0001:00012438       ?CheckFont@CTxtEdit@@UAAJPAUITextFont@@JPAJ@Z 10013438 f   riched60:edit.obj
 0001:000124d8       ?CheckProtect@CTxtEdit@@UAAJPAUITextRange@@PAJ@Z 100134d8 f   riched60:edit.obj
 0001:00012520       ?CheckRange@CTxtEdit@@UAAJPAJ0@Z 10013520 f   riched60:edit.obj
 0001:00012600       ?GetDocFlags@CTxtEdit@@UAAJJPAJ@Z 10013600 f   riched60:edit.obj
 0001:00012700       ?GetParaTxtFlow@CTxtEdit@@UAAJPAUITextPara@@PAJ@Z 10013700 f   riched60:edit.obj
 0001:00012740       ?InsertObj@CTxtEdit@@UAAJJJPAUIDataObject@@@Z 10013740 f   riched60:edit.obj
 0001:00012868       ?IsDisplayFrozen@CTxtEdit@@UAAJPAJ@Z 10013868 f   riched60:edit.obj
 0001:000128c4       ?ModifyPic@CTxtEdit@@UAAJPAUIUnknown@@@Z 100138c4 f   riched60:edit.obj
 0001:000128f8       ?SetCallBack@CTxtEdit@@UAAJPAUIUnknown@@@Z 100138f8 f   riched60:edit.obj
 0001:00012900       ?SetMsgFltOptions@CTxtEdit@@UAAJJJ@Z 10013900 f   riched60:edit.obj
 0001:00012968       ?SendNotification@CTxtEdit@@UAAJJJ@Z 10013968 f   riched60:edit.obj
 0001:00012a74       ?RequestLock@CTxtEdit@@UAAJJPAJ@Z 10013a74 f   riched60:edit.obj
 0001:00012a88       ?EndSelectionMode@CTxtEdit@@AAAXW4SELECTION_STATE@@@Z 10013a88 f   riched60:edit.obj
 0001:00012adc       ?GetColorIndex@CCellColor@@QAAJK@Z 10013adc f   riched60:edit.obj
 0001:00012b68       ?Zombie@CTextNotify@@UAAXXZ 10013b68 f i riched60:edit.obj
 0001:00012b74       ?GetTechnology@CHDC@@QBAJXZ 10013b74 f i riched60:edit.obj
 0001:00012bbc       ?AdjustFEHeight@CCcs@@QBAJH@Z 10013bbc f i riched60:edit.obj
 0001:00012c18       ??1CTxtEdit@@QAA@XZ        10013c18 f   riched60:edit.obj
 0001:00012ec4       ?Release@CTxtEdit@@W3AAKXZ 10013ec4 f i riched60:edit.obj
 0001:00012ecc       ?Release@CTxtEdit@@W7AAKXZ 10013ecc f i riched60:edit.obj
 0001:00012ed4       ?Release@CTxtEdit@@WM@AAKXZ 10013ed4 f i riched60:edit.obj
 0001:00012edc       ?AddRef@CTxtEdit@@W3AAKXZ  10013edc f i riched60:edit.obj
 0001:00012ee4       ?AddRef@CTxtEdit@@W7AAKXZ  10013ee4 f i riched60:edit.obj
 0001:00012eec       ?AddRef@CTxtEdit@@WM@AAKXZ 10013eec f i riched60:edit.obj
 0001:00012ef4       ?QueryInterface@CTxtEdit@@W3AAJABU_GUID@@PAPAX@Z 10013ef4 f i riched60:edit.obj
 0001:00012efc       ?QueryInterface@CTxtEdit@@W7AAJABU_GUID@@PAPAX@Z 10013efc f i riched60:edit.obj
 0001:00012f04       ?QueryInterface@CTxtEdit@@WM@AAJABU_GUID@@PAPAX@Z 10013f04 f i riched60:edit.obj
 0001:00012f0c       ?HandleSetTextMode@CTxtEdit@@QAAJK@Z 10013f0c f   riched60:edit.obj
 0001:00013110       ?HandleSetTextFlow@CTxtEdit@@QAAJK@Z 10014110 f   riched60:edit.obj
 0001:000131cc       ?GetCcs@CTxtEdit@@QAAPAVCCcs@@QBVCCharFormat@@W4FONTALIGNMENT@@JKPAVCHDC@@@Z 100141cc f   riched60:edit.obj
 0001:00013404       ?GetTextRange@CTxtEdit@@AAAJJJPAG@Z 10014404 f   riched60:edit.obj
 0001:000134d4       ?GetDefaultCodePage@CTxtEdit@@AAAJI@Z 100144d4 f   riched60:edit.obj
 0001:00013568       ?HandleStyle@CTxtEdit@@QAAJPAVCParaFormat@@PBV2@KK@Z 10014568 f   riched60:edit.obj
 0001:00013604       ?OnTxRButtonUp@CTxtEdit@@AAAJHHKH@Z 10014604 f   riched60:edit.obj
 0001:000138e8       ?OnTxMButtonDown@CTxtEdit@@AAAJHHK@Z 100148e8 f   riched60:edit.obj
 0001:0001397c       ?OnTxMButtonUp@CTxtEdit@@AAAJHHK@Z 1001497c f   riched60:edit.obj
 0001:000139ac       ?OnTxSysChar@CTxtEdit@@AAAJGKPAVIUndoBuilder@@@Z 100149ac f   riched60:edit.obj
 0001:000139e0       ?HandleKbdContextMenu@CTxtEdit@@QAAXXZ 100149e0 f   riched60:edit.obj
 0001:00013afc       ?OnFormatRange@CTxtEdit@@AAAJPAU_formatrange@@USPrintControl@@H@Z 10014afc f   riched60:edit.obj
 0001:00013f18       ?Release@CUnknown@CTxtEdit@@UAAKXZ 10014f18 f   riched60:edit.obj
 0001:00013f68       ?OnGetSelText@CTxtEdit@@AAAJPAG@Z 10014f68 f   riched60:edit.obj
 0001:00013f9c       ?OnExGetSel@CTxtEdit@@AAAJJPAU_charrange@@@Z 10014f9c f   riched60:edit.obj
 0001:00014020       ?OnGetSel@CTxtEdit@@AAAJPAJ0@Z 10015020 f   riched60:edit.obj
 0001:00014074       ?OnSetSel@CTxtEdit@@AAAJJJ@Z 10015074 f   riched60:edit.obj
 0001:000141d0       ?TxCharFromPos@CTxtEdit@@QAAJPAUtagPOINT@@PAJ@Z 100151d0 f   riched60:edit.obj
 0001:000142d4       ?TxPosFromChar@CTxtEdit@@AAAJJPAUtagPOINT@@@Z 100152d4 f   riched60:edit.obj
 0001:000143e0       ?TxFindWordBreak@CTxtEdit@@AAAJHJPAJ@Z 100153e0 f   riched60:edit.obj
 0001:0001446c       ?TxWordBreakProc@CTxtEdit@@QAAHPAGHHHJJPAVCTxtStory@@@Z 1001546c f   riched60:edit.obj
 0001:00014c10       ?TxFindText@CTxtEdit@@AAAJKJJPBGPAJ1@Z 10015c10 f   riched60:edit.obj
 0001:00014d30       ?TxLineFromCp@CTxtEdit@@AAAJJPAJ@Z 10015d30 f   riched60:edit.obj
 0001:00014e28       ?TxLineLength@CTxtEdit@@AAAJJPAJ@Z 10015e28 f   riched60:edit.obj
 0001:00014f3c       ?TxLineIndex@CTxtEdit@@AAAJJPAJ@Z 10015f3c f   riched60:edit.obj
 0001:00015038       ?OnFindText@CTxtEdit@@AAAJIKPAU_findtextexw@@@Z 10016038 f   riched60:edit.obj
 0001:000150d8       ?OnGetCharFormat@CTxtEdit@@AAAJPAUCHARFORMAT2W@@KPAU_charrange@@PAU__tmpdisplayattrib@@@Z 100160d8 f   riched60:edit.obj
 0001:000152a4       ?OnGetCharEffects@CTxtEdit@@AAAJPAU_chareffects@@K@Z 100162a4 f   riched60:edit.obj
 0001:00015334       ?OnSetTypographyOptions@CTxtEdit@@QAAJIJ@Z 10016334 f   riched60:edit.obj
 0001:000153fc       ?TxGetForeColor@CTxtEdit@@QBAKXZ 100163fc f   riched60:edit.obj
 0001:00015440       ?TxSetMaxToMaxText@CTxtEdit@@QAAXJPAVCTxtStory@@@Z 10016440 f   riched60:edit.obj
 0001:00015484       ?TxGetClientRect@CTxtEdit@@QBAXAAURECTUV@@PAU2@@Z 10016484 f   riched60:edit.obj
 0001:00015508       ?TxWaitCursor@CTxtEdit@@QAAPAUHICON__@@XZ 10016508 f   riched60:edit.obj
 0001:00015544       ?HandleLinkNotification@CTxtEdit@@QAAHIIJPAH@Z 10016544 f   riched60:edit.obj
 0001:00015a90       ?QueryUseProtection@CTxtEdit@@QAAHPAVCTxtRange@@IIJ@Z 10016a90 f   riched60:edit.obj
 0001:00015b70       ?Set10Mode@CTxtEdit@@QAAXXZ 10016b70 f   riched60:edit.obj
 0001:00015c14       ?GetECDefaultHeightAndWidth@@YAJPAVITextServices@@PAUHDC__@@JJJPAJ22H@Z 10016c14 f   riched60:edit.obj
 0001:00015dac       ?SetViewKind@CTxtEdit@@QAAJJ@Z 10016dac f   riched60:edit.obj
 0001:00015fa0       ?UpdateOutline@CTxtEdit@@QAAJXZ 10016fa0 f   riched60:edit.obj
 0001:00015fe0       ?OnInsertTable@CTxtEdit@@AAAJPAU_tableRowParms@@PAU_tableCellParms@@PAVIUndoBuilder@@@Z 10016fe0 f   riched60:edit.obj
 0001:000165f4       ?OnInsertDIB@CTxtEdit@@AAAJJPAVIUndoBuilder@@@Z 100175f4 f   riched60:edit.obj
 0001:00016708       ?SetReleaseHost@CTxtEdit@@QAAXXZ 10017708 f   riched60:edit.obj
 0001:00016738       ?HandleMouseWheel@CTxtEdit@@QAAJIJ@Z 10017738 f   riched60:edit.obj
 0001:00016958       ?AdjustText@CTxtEdit@@QAAJPAVCTxtRange@@GPAVIUndoBuilder@@PAU_charrange@@J@Z 10017958 f   riched60:edit.obj
 0001:000170d8       ?EnsureNmpRuns@CTxtEdit@@QAAHPAVCTxtStory@@@Z 100180d8 f   riched60:edit.obj
 0001:0001719c       ?CheckAdjustText@CTxtEdit@@UAAJPAJ00@Z 1001819c f   riched60:edit.obj
 0001:000172c4       ?SetupNotify@CTxtEdit@@UAAJJPAUIUnknown@@@Z 100182c4 f   riched60:edit.obj
 0001:00017344       ?OnSelectionMode@CTxtEdit@@AAAJIJ@Z 10018344 f   riched60:edit.obj
 0001:000174f0       ?GetStories@CDocInfo@@QAAPAVCTxtStories@@XZ 100184f0 f i riched60:edit.obj
 0001:00017534       ?GetHyphCache@CTxtEdit@@SAPAVCHyphCache@@XZ 10018534 f   riched60:edit.obj
 0001:00017584       ?GetTextEx@CTxtEdit@@AAAJPAU_gettextex@@PAG@Z 10018584 f   riched60:edit.obj
 0001:00017ae8       ?GetTextLengthEx@CTxtEdit@@AAAJPAU_gettextlengthex@@@Z 10018ae8 f   riched60:edit.obj
 0001:00017cc4       ?OnTxLButtonDblClk@CTxtEdit@@AAAJHHK@Z 10018cc4 f   riched60:edit.obj
 0001:00017f24       ?OnTxLButtonDown@CTxtEdit@@AAAJHHK@Z 10018f24 f   riched60:edit.obj
 0001:00018594       ?OnTxLButtonUp@CTxtEdit@@AAAJHHKHPAVIUndoBuilder@@@Z 10019594 f   riched60:edit.obj
 0001:000188f8       ?OnTxSysKeyDown@CTxtEdit@@AAAJGKPAVIUndoBuilder@@@Z 100198f8 f   riched60:edit.obj
 0001:000189c8       ?OnContextMenu@CTxtEdit@@AAAJJ@Z 100199c8 f   riched60:edit.obj
 0001:00018a3c       ?IsProtected@CTxtEdit@@QAAHIIJ@Z 10019a3c f   riched60:edit.obj
 0001:00018b48       ?IsntProtectedOrReadOnly@CTxtEdit@@QAAHIIJH@Z 10019b48 f   riched60:edit.obj
 0001:00018ba0       ?IsProtectedRange@CTxtEdit@@QAAHIIJPAVCTxtRange@@@Z 10019ba0 f   riched60:edit.obj
 0001:00018c34       ?OnClear@CTxtEdit@@AAAXPAVIUndoBuilder@@@Z 10019c34 f   riched60:edit.obj
 0001:00018ce4       ??0CTxtEdit@@QAA@PAVITextHost2@@PAUIUnknown@@@Z 10019ce4 f   riched60:edit.obj
 0001:00018d9c       ?OnTxMouseMove@CTxtEdit@@AAAJHHKPAVIUndoBuilder@@@Z 10019d9c f   riched60:edit.obj
 0001:00019178       ?OnTxTimer@CTxtEdit@@AAAJI@Z 1001a178 f   riched60:edit.obj
 0001:0001934c       ?InsertEOP@CTxtEdit@@QAAHKHPAVIUndoBuilder@@@Z 1001a34c f   riched60:edit.obj
 0001:00019440       ?CutOrCopySelection@CTxtEdit@@QAAJIIJPAVIUndoBuilder@@@Z 1001a440 f   riched60:edit.obj
 0001:00019570       ?OnTxChar@CTxtEdit@@AAAJKKPAVIUndoBuilder@@@Z 1001a570 f   riched60:edit.obj
 0001:00019864       ?ItemizeStory@CTxtEdit@@QAAXPAVIUndoBuilder@@PAVCTxtStory@@@Z 1001a864 f   riched60:edit.obj
 0001:00019964       ?OrCharFlags@CTxtEdit@@QAAX_KPAVIUndoBuilder@@@Z 1001a964 f   riched60:edit.obj
 0001:00019b84       ?SetContextDirection@CTxtEdit@@QAAXH@Z 1001ab84 f   riched60:edit.obj
 0001:00019eac       ?GetStory@CTxtEdit@@QAAPAVCTxtStory@@J@Z 1001aeac f   riched60:edit.obj
 0001:00019f80       ?Init@CTxtEdit@@QAAHH@Z    1001af80 f   riched60:edit.obj
 0001:0001a794       ?OnTxKeyDown@CTxtEdit@@AAAJGKPAVIUndoBuilder@@@Z 1001b794 f   riched60:edit.obj
 0001:0001ae50       ?OnSetParaFormat@CTxtEdit@@AAAJIPAVCParaFormat@@PAVIUndoBuilder@@KKPAU_charrange@@@Z 1001be50 f   riched60:edit.obj
 0001:0001b26c       ?OnGetTableParms@CTxtEdit@@AAAJPAU_tableRowParms@@PAU_tableCellParms@@@Z 1001c26c f   riched60:edit.obj
 0001:0001b5ac       ?OnSelectStory@CTxtEdit@@AAAJIJ@Z 1001c5ac f   riched60:edit.obj
 0001:0001b70c       ?OnSetCharFormat@CTxtEdit@@AAAJIPAVCCharFormat@@PAVIUndoBuilder@@KKK@Z 1001c70c f   riched60:edit.obj
 0001:0001be7c       ?SetParaFormatHelper@CTxtEdit@@QAAJIJPAVIUndoBuilder@@PAU_charrange@@@Z 1001ce7c f   riched60:edit.obj
 0001:0001c038       ?OnSetFocus@CTxtEdit@@AAAJXZ 1001d038 f   riched60:edit.obj
 0001:0001c230       ?OnKillFocus@CTxtEdit@@AAAJXZ 1001d230 f   riched60:edit.obj
 0001:0001c3cc       ?OnSetFontSize@CTxtEdit@@AAAJJKPAVIUndoBuilder@@@Z 1001d3cc f   riched60:edit.obj
 0001:0001c414       ?OnSetFont@CTxtEdit@@AAAJPAUHFONT__@@@Z 1001d414 f   riched60:edit.obj
 0001:0001c51c       ?SetCharFormatHelper@CTxtEdit@@QAAJIJPAVIUndoBuilder@@PAU_charrange@@@Z 1001d51c f   riched60:edit.obj
 0001:0001c8fc       RichEdit10ANSIWndProc      1001d8fc f   riched60:host.obj
 0001:0001c904       RichEditANSIWndProc        1001d904 f   riched60:host.obj
 0001:0001c90c       ?CreateTextServices@CTxtWinHost@@QAAJXZ 1001d90c f   riched60:host.obj
 0001:0001c9b8       ?QueryInterface@CTxtWinHost@@UAAJABU_GUID@@PAPAX@Z 1001d9b8 f   riched60:host.obj
 0001:0001ca90       ?AddRef@CTxtWinHost@@UAAKXZ 1001da90 f   riched60:host.obj
 0001:0001caa4       ?Release@CTxtWinHost@@UAAKXZ 1001daa4 f   riched60:host.obj
 0001:0001cad8       ?TxGetEffects@CTxtWinHost@@UBA?AW4TXTEFFECT@@XZ 1001dad8 f   riched60:host.obj
 0001:0001caf4       ?OnKeyDown@CTxtWinHost@@UAAJGK@Z 1001daf4 f   riched60:host.obj
 0001:0001cbf8       ?OnChar@CTxtWinHost@@UAAJGK@Z 1001dbf8 f   riched60:host.obj
 0001:0001cc4c       ?OnGetRect@CTxtWinHost@@QAAXPAUtagRECT@@@Z 1001dc4c f   riched60:host.obj
 0001:0001cd40       ?OnSysColorChange@CTxtWinHost@@UAAXXZ 1001dd40 f   riched60:host.obj
 0001:0001cd7c       ?OnGetDlgCode@CTxtWinHost@@UAAJIJ@Z 1001dd7c f   riched60:host.obj
 0001:0001cde4       ?OnSetBkgnColor@CTxtWinHost@@QAAJHK@Z 1001dde4 f   riched60:host.obj
 0001:0001ce90       ?SetDefaultInset@CTxtWinHost@@QAAXXZ 1001de90 f   riched60:host.obj
 0001:0001cf3c       ?TxImmGetContext@CTxtWinHost@@UAAKXZ 1001df3c f   riched60:host.obj
 0001:0001cf48       ?TxImmReleaseContext@CTxtWinHost@@UAAXK@Z 1001df48 f   riched60:host.obj
 0001:0001cf54       ?HostRegisterDragDrop@CTxtWinHost@@QAAXXZ 1001df54 f   riched60:host.obj
 0001:0001cfc8       ?OnSunkenWindowPosChanging@CTxtWinHost@@QAAXPAUHWND__@@PAUtagWINDOWPOS@@@Z 1001dfc8 f   riched60:host.obj
 0001:0001d048       ?OnSize@CTxtWinHost@@QAAJPAUHWND__@@GHH@Z 1001e048 f   riched60:host.obj
 0001:0001d0f4       ?OnTxVisibleChange@CTxtWinHost@@QAAJH@Z 1001e0f4 f   riched60:host.obj
 0001:0001d168       ?TxGetDC@CTxtWinHost@@UAAPAUHDC__@@XZ 1001e168 f   riched60:host.obj
 0001:0001d170       ?TxReleaseDC@CTxtWinHost@@UAAHPAUHDC__@@@Z 1001e170 f   riched60:host.obj
 0001:0001d178       ?TxShowScrollBar@CTxtWinHost@@UAAHHH@Z 1001e178 f   riched60:host.obj
 0001:0001d1e8       ?TxEnableScrollBar@CTxtWinHost@@UAAHHH@Z 1001e1e8 f   riched60:host.obj
 0001:0001d22c       ?TxSetScrollRange@CTxtWinHost@@UAAHHJHH@Z 1001e22c f   riched60:host.obj
 0001:0001d274       ?TxSetScrollPos@CTxtWinHost@@UAAHHHH@Z 1001e274 f   riched60:host.obj
 0001:0001d2a8       ?TxViewChange@CTxtWinHost@@UAAXH@Z 1001e2a8 f   riched60:host.obj
 0001:0001d2e8       ?TxCreateCaret@CTxtWinHost@@UAAHPAUHBITMAP__@@HH@Z 1001e2e8 f   riched60:host.obj
 0001:0001d2f4       ?TxShowCaret@CTxtWinHost@@UAAHH@Z 1001e2f4 f   riched60:host.obj
 0001:0001d304       ?TxSetCaretPos@CTxtWinHost@@UAAHHH@Z 1001e304 f   riched60:host.obj
 0001:0001d310       ?TxSetTimer@CTxtWinHost@@UAAHII@Z 1001e310 f   riched60:host.obj
 0001:0001d31c       ?TxKillTimer@CTxtWinHost@@UAAXI@Z 1001e31c f   riched60:host.obj
 0001:0001d324       ?TxScrollWindowEx@CTxtWinHost@@UAAXHHPBUtagRECT@@0PAUHRGN__@@PAU2@I@Z 1001e324 f   riched60:host.obj
 0001:0001d35c       ?TxSetCapture@CTxtWinHost@@UAAXH@Z 1001e35c f   riched60:host.obj
 0001:0001d36c       ?TxSetFocus@CTxtWinHost@@UAAXXZ 1001e36c f   riched60:host.obj
 0001:0001d374       ?TxSetCursor@CTxtWinHost@@UAAXPAUHICON__@@H@Z 1001e374 f   riched60:host.obj
 0001:0001d37c       ?TxScreenToClient@CTxtWinHost@@UAAHPAUtagPOINT@@@Z 1001e37c f   riched60:host.obj
 0001:0001d384       ?TxClientToScreen@CTxtWinHost@@UAAHPAUtagPOINT@@@Z 1001e384 f   riched60:host.obj
 0001:0001d38c       ?TxActivate@CTxtWinHost@@UAAJPAJ@Z 1001e38c f   riched60:host.obj
 0001:0001d394       ?TxDeactivate@CTxtWinHost@@UAAJJ@Z 1001e394 f   riched60:host.obj
 0001:0001d39c       ?TxGetClientRect@CTxtWinHost@@UAAJPAUtagRECT@@@Z 1001e39c f   riched60:host.obj
 0001:0001d3c8       ?TxGetViewInset@CTxtWinHost@@UAAJPAUtagRECT@@@Z 1001e3c8 f   riched60:host.obj
 0001:0001d404       ?TxGetCharFormat@CTxtWinHost@@UAAJPAPBU_charformatw@@@Z 1001e404 f   riched60:host.obj
 0001:0001d410       ?TxGetParaFormat@CTxtWinHost@@UAAJPAPBU_paraformat@@@Z 1001e410 f   riched60:host.obj
 0001:0001d41c       ?TxGetSysColor@CTxtWinHost@@UAAKH@Z 1001e41c f   riched60:host.obj
 0001:0001d49c       ?TxGetBackStyle@CTxtWinHost@@UAAJPAW4TXTBACKSTYLE@@@Z 1001e49c f   riched60:host.obj
 0001:0001d4b8       ?TxGetMaxLength@CTxtWinHost@@UAAJPAK@Z 1001e4b8 f   riched60:host.obj
 0001:0001d4c0       ?TxGetScrollBars@CTxtWinHost@@UAAJPAK@Z 1001e4c0 f   riched60:host.obj
 0001:0001d4dc       ?TxGetPasswordChar@CTxtWinHost@@UAAJPAG@Z 1001e4dc f   riched60:host.obj
 0001:0001d4ec       ?TxGetAcceleratorPos@CTxtWinHost@@UAAJPAJ@Z 1001e4ec f   riched60:host.obj
 0001:0001d4fc       ?OnTxCharFormatChange@CTxtWinHost@@UAAJPBU_charformatw@@@Z 1001e4fc f   riched60:host.obj
 0001:0001d504       ?OnTxParaFormatChange@CTxtWinHost@@UAAJPBU_paraformat@@@Z 1001e504 f   riched60:host.obj
 0001:0001d50c       ?TxGetPropertyBits@CTxtWinHost@@UAAJKPAK@Z 1001e50c f   riched60:host.obj
 0001:0001d578       ?TxNotify@CTxtWinHost@@UAAJKPAX@Z 1001e578 f   riched60:host.obj
 0001:0001d6d8       ?TxGetExtent@CTxtWinHost@@UAAJPAUtagSIZE@@@Z 1001e6d8 f   riched60:host.obj
 0001:0001d6e4       ?TxEBookLoadImage@CTxtWinHost@@UAAJPAGPAJPAUtagSIZE@@PAK@Z 1001e6e4 f   riched60:host.obj
 0001:0001d6f0       ?TxEBookImageDraw@CTxtWinHost@@UAAJJPAUHDC__@@PAUtagPOINT@@PAUtagRECT@@H@Z 1001e6f0 f   riched60:host.obj
 0001:0001d6fc       ?TxGetHorzExtent@CTxtWinHost@@UAAJPAJ@Z 1001e6fc f   riched60:host.obj
 0001:0001d708       ?TxGetSelectionBarWidth@CTxtWinHost@@UAAJPAJ@Z 1001e708 f   riched60:host.obj
 0001:0001d72c       ?TxIsDoubleClickPending@CTxtWinHost@@UAAHXZ 1001e72c f   riched60:host.obj
 0001:0001d768       ?TxGetWindow@CTxtWinHost@@UAAJPAPAUHWND__@@@Z 1001e768 f   riched60:host.obj
 0001:0001d778       ?TxSetForegroundWindow@CTxtWinHost@@UAAJXZ 1001e778 f   riched60:host.obj
 0001:0001d79c       ?TxGetPalette@CTxtWinHost@@UAAPAUHPALETTE__@@XZ 1001e79c f   riched60:host.obj
 0001:0001d7a4       ?TxGetFEFlags@CTxtWinHost@@UAAJPAJ@Z 1001e7a4 f   riched60:host.obj
 0001:0001d7f0       ?OnSetMargins@CTxtWinHost@@QAAXKKK@Z 1001e7f0 f   riched60:host.obj
 0001:0001d94c       ?OnGetMargins@CTxtWinHost@@QAAJXZ 1001e94c f   riched60:host.obj
 0001:0001d9a0       ?SetScrollInfo@CTxtWinHost@@UAAXHH@Z 1001e9a0 f   riched60:host.obj
 0001:0001da2c       ?SetScrollBarsForWmEnable@CTxtWinHost@@QAAXH@Z 1001ea2c f   riched60:host.obj
 0001:0001db14       ?TxFreeTextServicesNotification@CTxtWinHost@@UAAXXZ 1001eb14 f   riched60:host.obj
 0001:0001db24       ?TxGetEditStyle@CTxtWinHost@@UAAJKPAK@Z 1001eb24 f   riched60:host.obj
 0001:0001db58       ?TxGetWindowStyles@CTxtWinHost@@UAAJPAK0@Z 1001eb58 f   riched60:host.obj
 0001:0001db88       ?Shutdown@CTxtWinHost@@QAAXXZ 1001eb88 f   riched60:host.obj
 0001:0001dc10       ?Init@CTxtWinHost@@UAAHPAUHWND__@@PBUtagCREATESTRUCTW@@HH@Z 1001ec10 f   riched60:host.obj
 0001:0001dfc8       ?OnCreate@CTxtWinHost@@UAAJPBUtagCREATESTRUCTW@@@Z 1001efc8 f   riched60:host.obj
 0001:0001e114       ?OnSetRect@CTxtWinHost@@QAAXPAUtagRECT@@HH@Z 1001f114 f   riched60:host.obj
 0001:0001e2c8       ?OnSetOptions@CTxtWinHost@@QAAXGK@Z 1001f2c8 f   riched60:host.obj
 0001:0001e544       ?OnSetReadOnly@CTxtWinHost@@QAAXH@Z 1001f544 f   riched60:host.obj
 0001:0001e664       ?ValidateInvalidateRect@CTxtWinHost@@QAAXPBUtagRECT@@H@Z 1001f664 f   riched60:host.obj
 0001:0001e778       ?TxInvalidateRect@CTxtWinHost@@UAAXPBUtagRECT@@H@Z 1001f778 f   riched60:host.obj
 0001:0001e780       ?TxValidateRect@CTxtWinHost@@UAAXPBUtagRECT@@@Z 1001f780 f   riched60:host.obj
 0001:0001e78c       ??0CTxtWinHost@@QAA@XZ     1001f78c f   riched60:host.obj
 0001:0001e7ec       ?TxSetCursor2@CTxtWinHost@@UAAPAUHICON__@@PAU2@H@Z 1001f7ec f i riched60:host.obj
 0001:0001e7f4       ?TxOnSelectionBackgroundRendering@CTxtWinHost@@UAAXPBUtagRECT@@K@Z 1001f7f4 f i riched60:host.obj
 0001:0001e7f8       ?TxOnDrawDone@CTxtWinHost@@UAAXK@Z 1001f7f8 f i riched60:host.obj
 0001:0001e7fc       ?TxGetXForm@CTxtWinHost@@UAAJPAUtagXFORM@@@Z 1001f7fc f i riched60:host.obj
 0001:0001e808       ?TxCTFPIC@CTxtWinHost@@UAAJPAUIUnknown@@@Z 1001f808 f i riched60:host.obj
 0001:0001e814       ?TxGetClientRectInEMUs@CTxtWinHost@@UAAJPAUtagRECT@@@Z 1001f814 f i riched60:host.obj
 0001:0001e820       ?TxGetCaretVisibility@CTxtWinHost@@UAAJPAH@Z 1001f820 f i riched60:host.obj
 0001:0001e82c       ?DeleteDanglingHosts@@YAXXZ 1001f82c f   riched60:host.obj
 0001:0001e88c       ?OnNCCreate@CTxtWinHost@@SAPAV1@PAUHWND__@@PBUtagCREATESTRUCTW@@HH@Z 1001f88c f   riched60:host.obj
 0001:0001e934       ??_GCTxtWinHost@@UAAPAXI@Z 1001f934 f i riched60:host.obj
 0001:0001e934       ??_ECTxtWinHost@@UAAPAXI@Z 1001f934 f i riched60:host.obj
 0001:0001e980       RichEditWndProc            1001f980 f   riched60:host.obj
 0001:0001f548       ?RegisterREClass@CW32System@@SAGPBUtagWNDCLASSW@@HPAK@Z 10020548 f   riched60:w32sys.obj
 0001:0001f558       ?GetKerningPairs@CW32System@@SAKPAUHDC__@@KPAUtagKERNINGPAIR@@@Z 10020558 f   riched60:w32sys.obj
 0001:0001f560       ?FUnderhang@CW32System@@QAAHABVCHDC@@G@Z 10020560 f   riched60:w32sys.obj
 0001:0001f568       ?DetermineConvertMode@CW32System@@SA?AW4CONVERTMODE@@ABVCHDC@@E@Z 10020568 f   riched60:w32sys.obj
 0001:0001f570       ?CalcUnderlineInfo@CW32System@@SAXABVCHDC@@PAVCCcs@@PAUtagTEXTMETRICW@@@Z 10020570 f   riched60:w32sys.obj
 0001:0001f604       ?ShowScrollBar@CW32System@@SAHPAUHWND__@@HHJ@Z 10020604 f   riched60:w32sys.obj
 0001:0001f664       ?EnableScrollBar@CW32System@@SAHPAUHWND__@@II@Z 10020664 f   riched60:w32sys.obj
 0001:0001f700       ?IsEnhancedMetafileDC@CW32System@@SAHPAUHDC__@@@Z 10020700 f   riched60:w32sys.obj
 0001:0001f708       ?SetTextAlign@CW32System@@SAIPAUHDC__@@I@Z 10020708 f   riched60:w32sys.obj
 0001:0001f710       ?InvertRect@CW32System@@SAHPAUHDC__@@PBUtagRECT@@@Z 10020710 f   riched60:w32sys.obj
 0001:0001f80c       ?ManagePalette@CW32System@@SAPAUHPALETTE__@@PAUHDC__@@PBUtagLOGPALETTE@@AAPAU2@2@Z 1002080c f   riched60:w32sys.obj
 0001:0001f814       ?WinLPtoDP@CW32System@@SAHPAUHDC__@@PAUtagPOINT@@H@Z 10020814 f   riched60:w32sys.obj
 0001:0001f824       ?WvsprintfA@CW32System@@SAJJPADPBD0@Z 10020824 f   riched60:w32sys.obj
 0001:0001f920       ?MulDivFunc@CW32System@@SAHHHH@Z 10020920 f   riched60:w32sys.obj
 0001:0001f9e4       ?GetFacePriCharSet@CW32System@@SAXPAUHDC__@@PAUtagLOGFONTW@@@Z 100209e4 f   riched60:w32sys.obj
 0001:0001f9f0       ?CheckChangeKeyboardLayout@CW32System@@SAPAUHKL__@@E@Z 100209f0 f   riched60:w32sys.obj
 0001:0001f9f8       ?LoadTypeLib@CW32System@@SAJPBGPAPAUITypeLib@@@Z 100209f8 f   riched60:w32sys.obj
 0001:0001fa04       ?SysAllocString@CW32System@@SAPAGPBG@Z 10020a04 f   riched60:w32sys.obj
 0001:0001fa08       ?SysAllocStringLen@CW32System@@SAPAGPBGI@Z 10020a08 f   riched60:w32sys.obj
 0001:0001fa0c       ?SysFreeString@CW32System@@SAXPAG@Z 10020a0c f   riched60:w32sys.obj
 0001:0001fa10       ?SysStringLen@CW32System@@SAIPAG@Z 10020a10 f   riched60:w32sys.obj
 0001:0001fa14       ?VariantInit@CW32System@@SAXPAUtagVARIANT@@@Z 10020a14 f   riched60:w32sys.obj
 0001:0001fa18       ?OleCreateFromData@CW32System@@SAJPAUIDataObject@@ABU_GUID@@KPAUtagFORMATETC@@PAUIOleClientSite@@PAUIStorage@@PAPAX@Z 10020a18 f   riched60:w32sys.obj
 0001:0001fa20       ?CoTaskMemFree@CW32System@@SAXPAX@Z 10020a20 f   riched60:w32sys.obj
 0001:0001fa24       ?CreateBindCtx@CW32System@@SAJKPAPAUIBindCtx@@@Z 10020a24 f   riched60:w32sys.obj
 0001:0001fa2c       ?CoTreatAsClass@CW32System@@SAJABU_GUID@@0@Z 10020a2c f   riched60:w32sys.obj
 0001:0001fa34       ?ProgIDFromCLSID@CW32System@@SAJABU_GUID@@PAPAG@Z 10020a34 f   riched60:w32sys.obj
 0001:0001fa3c       ?OleConvertIStorageToOLESTREAM@CW32System@@SAJPAUIStorage@@PAU_OLESTREAM@@@Z 10020a3c f   riched60:w32sys.obj
 0001:0001fa44       ?OleConvertIStorageToOLESTREAMEx@CW32System@@SAJPAUIStorage@@GJJKPAUtagSTGMEDIUM@@PAU_OLESTREAM@@@Z 10020a44 f   riched60:w32sys.obj
 0001:0001fa4c       ?OleSave@CW32System@@SAJPAUIPersistStorage@@PAUIStorage@@H@Z 10020a4c f   riched60:w32sys.obj
 0001:0001fa54       ?StgCreateDocfileOnILockBytes@CW32System@@SAJPAUILockBytes@@KKPAPAUIStorage@@@Z 10020a54 f   riched60:w32sys.obj
 0001:0001fa5c       ?StgOpenStorageOnILockBytes@CW32System@@SAJPAUILockBytes@@PAUIStorage@@KPAPAGKPAPAU3@@Z 10020a5c f   riched60:w32sys.obj
 0001:0001fa64       ?CreateILockBytesOnHGlobal@CW32System@@SAJPAXHPAPAUILockBytes@@@Z 10020a64 f   riched60:w32sys.obj
 0001:0001fa6c       ?GetHGlobalFromILockBytes@CW32System@@SAJPAUILockBytes@@PAPAX@Z 10020a6c f   riched60:w32sys.obj
 0001:0001fa74       ?OleSetClipboard@CW32System@@SAJPAUIDataObject@@@Z 10020a74 f   riched60:w32sys.obj
 0001:0001fa80       ?OleFlushClipboard@CW32System@@SAJXZ 10020a80 f   riched60:w32sys.obj
 0001:0001fa88       ?OleIsCurrentClipboard@CW32System@@SAJPAUIDataObject@@@Z 10020a88 f   riched60:w32sys.obj
 0001:0001fa94       ?OleGetClipboard@CW32System@@SAJPAPAUIDataObject@@@Z 10020a94 f   riched60:w32sys.obj
 0001:0001faa0       ?RegisterDragDrop@CW32System@@SAJPAUHWND__@@PAUIDropTarget@@@Z 10020aa0 f   riched60:w32sys.obj
 0001:0001faa8       ?OleCreateLinkFromData@CW32System@@SAJPAUIDataObject@@ABU_GUID@@KPAUtagFORMATETC@@PAUIOleClientSite@@PAUIStorage@@PAPAX@Z 10020aa8 f   riched60:w32sys.obj
 0001:0001fab0       ?OleCreateStaticFromData@CW32System@@SAJPAUIDataObject@@ABU_GUID@@KPAUtagFORMATETC@@PAUIOleClientSite@@PAUIStorage@@PAPAX@Z 10020ab0 f   riched60:w32sys.obj
 0001:0001fab8       ?OleDraw@CW32System@@SAJPAUIUnknown@@KPAUHDC__@@PBUtagRECT@@@Z 10020ab8 f   riched60:w32sys.obj
 0001:0001fac0       ?OleSetContainedObject@CW32System@@SAJPAUIUnknown@@H@Z 10020ac0 f   riched60:w32sys.obj
 0001:0001fac8       ?CoDisconnectObject@CW32System@@SAJPAUIUnknown@@K@Z 10020ac8 f   riched60:w32sys.obj
 0001:0001fad0       ?WriteFmtUserTypeStg@CW32System@@SAJPAUIStorage@@GPAG@Z 10020ad0 f   riched60:w32sys.obj
 0001:0001fad8       ?WriteClassStg@CW32System@@SAJPAUIStorage@@ABU_GUID@@@Z 10020ad8 f   riched60:w32sys.obj
 0001:0001fae0       ?SetConvertStg@CW32System@@SAJPAUIStorage@@H@Z 10020ae0 f   riched60:w32sys.obj
 0001:0001fae8       ?ReadFmtUserTypeStg@CW32System@@SAJPAUIStorage@@PAGPAPAG@Z 10020ae8 f   riched60:w32sys.obj
 0001:0001faf0       ?ReadClassStg@CW32System@@SAJPAUIStorage@@PAU_GUID@@@Z 10020af0 f   riched60:w32sys.obj
 0001:0001faf8       ?OleRun@CW32System@@SAJPAUIUnknown@@@Z 10020af8 f   riched60:w32sys.obj
 0001:0001fb00       ?RevokeDragDrop@CW32System@@SAJPAUHWND__@@@Z 10020b00 f   riched60:w32sys.obj
 0001:0001fb08       ?CreateStreamOnHGlobal@CW32System@@SAJPAXHPAPAUIStream@@@Z 10020b08 f   riched60:w32sys.obj
 0001:0001fb10       ?GetHGlobalFromStream@CW32System@@SAJPAUIStream@@PAPAX@Z 10020b10 f   riched60:w32sys.obj
 0001:0001fb18       ?OleCreateDefaultHandler@CW32System@@SAJABU_GUID@@PAUIUnknown@@0PAPAX@Z 10020b18 f   riched60:w32sys.obj
 0001:0001fb20       ?CLSIDFromProgID@CW32System@@SAJPBGPAU_GUID@@@Z 10020b20 f   riched60:w32sys.obj
 0001:0001fb28       ?OleConvertOLESTREAMToIStorage@CW32System@@SAJPAU_OLESTREAM@@PAUIStorage@@PBUtagDVTARGETDEVICE@@@Z 10020b28 f   riched60:w32sys.obj
 0001:0001fb30       ?OleLoad@CW32System@@SAJPAUIStorage@@ABU_GUID@@PAUIOleClientSite@@PAPAX@Z 10020b30 f   riched60:w32sys.obj
 0001:0001fb38       ?ReleaseStgMedium@CW32System@@SAJPAUtagSTGMEDIUM@@@Z 10020b38 f   riched60:w32sys.obj
 0001:0001fb5c       ?HaveIMEShare@CW32System@@SAHXZ 10020b5c f   riched60:w32sys.obj
 0001:0001fb64       ?getIMEShareObject@CW32System@@SAHPAPAVCIMEShare@@@Z 10020b64 f   riched60:w32sys.obj
 0001:0001fb6c       ?ImmGetCompositionStringA@CW32System@@SAJKKPAXKH@Z 10020b6c f   riched60:w32sys.obj
 0001:0001fb74       ?ImmGetCompositionStringW@CW32System@@SAJKKPAXKH@Z 10020b74 f   riched60:w32sys.obj
 0001:0001fb78       ?ImmGetContext@CW32System@@SAKPAUHWND__@@H@Z 10020b78 f   riched60:w32sys.obj
 0001:0001fb7c       ?ImmSetCompositionFontW@CW32System@@SAHKPAUtagLOGFONTW@@H@Z 10020b7c f   riched60:w32sys.obj
 0001:0001fb80       ?ImmSetCompositionWindow@CW32System@@SAHKPAUtagCOMPOSITIONFORM@@H@Z 10020b80 f   riched60:w32sys.obj
 0001:0001fb84       ?ImmReleaseContext@CW32System@@SAHPAUHWND__@@KH@Z 10020b84 f   riched60:w32sys.obj
 0001:0001fb88       ?ImmGetProperty@CW32System@@SAKPAUHKL__@@KH@Z 10020b88 f   riched60:w32sys.obj
 0001:0001fb98       ?ImmGetCandidateWindow@CW32System@@SAHKKPAUtagCANDIDATEFORM@@H@Z 10020b98 f   riched60:w32sys.obj
 0001:0001fb9c       ?ImmSetCandidateWindow@CW32System@@SAHKPAUtagCANDIDATEFORM@@H@Z 10020b9c f   riched60:w32sys.obj
 0001:0001fba0       ?ImmNotifyIME@CW32System@@SAHKKKKH@Z 10020ba0 f   riched60:w32sys.obj
 0001:0001fba4       ?ImmAssociateContext@CW32System@@SAKPAUHWND__@@KH@Z 10020ba4 f   riched60:w32sys.obj
 0001:0001fba8       ?ImmEscape@CW32System@@SAKPAUHKL__@@KIPAXH@Z 10020ba8 f   riched60:w32sys.obj
 0001:0001fbac       ?ImmGetOpenStatus@CW32System@@SAHKH@Z 10020bac f   riched60:w32sys.obj
 0001:0001fbb0       ?ImmSetOpenStatus@CW32System@@SAHKHH@Z 10020bb0 f   riched60:w32sys.obj
 0001:0001fbb4       ?ImmGetConversionStatus@CW32System@@SAHKPAK0H@Z 10020bb4 f   riched60:w32sys.obj
 0001:0001fbb8       ?ImmSetConversionStatus@CW32System@@SAHKKKH@Z 10020bb8 f   riched60:w32sys.obj
 0001:0001fbbc       ?ImmGetDefaultIMEWnd@CW32System@@SAPAUHWND__@@PAU2@H@Z 10020bbc f   riched60:w32sys.obj
 0001:0001fbc0       ?ImmSetCompositionStringW@CW32System@@SAHKKPAXK0KH@Z 10020bc0 f   riched60:w32sys.obj
 0001:0001fbe4       ?ImmIsIME@CW32System@@SAHPAUHKL__@@H@Z 10020be4 f   riched60:w32sys.obj
 0001:0001fbe8       ?PIMEStyleFromAttr@CW32System@@SAPBUIMESTYLE@@I@Z 10020be8 f   riched60:w32sys.obj
 0001:0001fbf0       ?PColorStyleTextFromIMEStyle@CW32System@@SAPBUIMECOLORSTY@@PBUIMESTYLE@@@Z 10020bf0 f   riched60:w32sys.obj
 0001:0001fbf8       ?PColorStyleBackFromIMEStyle@CW32System@@SAPBUIMECOLORSTY@@PBUIMESTYLE@@@Z 10020bf8 f   riched60:w32sys.obj
 0001:0001fc00       ?FBoldIMEStyle@CW32System@@SAHPBUIMESTYLE@@@Z 10020c00 f   riched60:w32sys.obj
 0001:0001fc08       ?FItalicIMEStyle@CW32System@@SAHPBUIMESTYLE@@@Z 10020c08 f   riched60:w32sys.obj
 0001:0001fc10       ?FUlIMEStyle@CW32System@@SAHPBUIMESTYLE@@@Z 10020c10 f   riched60:w32sys.obj
 0001:0001fc18       ?IdUlIMEStyle@CW32System@@SAIPBUIMESTYLE@@@Z 10020c18 f   riched60:w32sys.obj
 0001:0001fc20       ?RGBFromIMEColorStyle@CW32System@@SAKPBUIMECOLORSTY@@@Z 10020c20 f   riched60:w32sys.obj
 0001:0001fc30       ?GetVersion@CW32System@@SAHPAK00@Z 10020c30 f   riched60:w32sys.obj
 0001:0001fcac       ?GetStringTypeEx@CW32System@@SAHKKPBGHPAG@Z 10020cac f   riched60:w32sys.obj
 0001:0001fcc8       ?CharLowerBuff@CW32System@@SAKPAGK@Z 10020cc8 f   riched60:w32sys.obj
 0001:0001fccc       ?CharUpperBuff@CW32System@@SAKPAGK@Z 10020ccc f   riched60:w32sys.obj
 0001:0001fcd0       ?CreateIC@CW32System@@SAPAUHDC__@@PBG00PBU_devicemodeW@@@Z 10020cd0 f   riched60:w32sys.obj
 0001:0001fcd4       ?CreateFile@CW32System@@SAPAXPBGKKPAU_SECURITY_ATTRIBUTES@@KKPAX@Z 10020cd4 f   riched60:w32sys.obj
 0001:0001fd00       ?CreateFontIndirect@CW32System@@SAPAUHFONT__@@PBUtagLOGFONTW@@@Z 10020d00 f   riched60:w32sys.obj
 0001:0001fd04       ?CompareString@CW32System@@SAHKKPBGH0H@Z 10020d04 f   riched60:w32sys.obj
 0001:0001fd28       ?DefWindowProc@CW32System@@SAJPAUHWND__@@IIJ@Z 10020d28 f   riched60:w32sys.obj
 0001:0001fd2c       ?GetObject@CW32System@@SAHPAXH0@Z 10020d2c f   riched60:w32sys.obj
 0001:0001fd30       ?GetTextFace@CW32System@@SAHPAUHDC__@@HPAG@Z 10020d30 f   riched60:w32sys.obj
 0001:0001fd34       ?GetTextMetrics@CW32System@@SAHABVCHDC@@PAUtagTEXTMETRICW@@@Z 10020d34 f   riched60:w32sys.obj
 0001:0001fd3c       ?GetWindowLong@CW32System@@SAJPAUHWND__@@H@Z 10020d3c f   riched60:w32sys.obj
 0001:0001fd40       ?LoadBitmap@CW32System@@SAPAUHBITMAP__@@PAUHINSTANCE__@@PBG@Z 10020d40 f   riched60:w32sys.obj
 0001:0001fd44       ?LoadCursor@CW32System@@SAPAUHICON__@@PAUHINSTANCE__@@PBG@Z 10020d44 f   riched60:w32sys.obj
 0001:0001fd4c       ?SendMessage@CW32System@@SAJPAUHWND__@@IIJ@Z 10020d4c f   riched60:w32sys.obj
 0001:0001fd50       ?SetWindowLong@CW32System@@SAJPAUHWND__@@HJ@Z 10020d50 f   riched60:w32sys.obj
 0001:0001fd54       ?PostMessage@CW32System@@SAHPAUHWND__@@IIJ@Z 10020d54 f   riched60:w32sys.obj
 0001:0001fd58       ?UnregisterClassW@CW32System@@SAHPBGPAUHINSTANCE__@@@Z 10020d58 f   riched60:w32sys.obj
 0001:0001fd5c       ?lstrcmpi@CW32System@@SAHPBG0@Z 10020d5c f   riched60:w32sys.obj
 0001:0001fd60       ?PeekMessage@CW32System@@SAHPAUtagMSG@@PAUHWND__@@III@Z 10020d60 f   riched60:w32sys.obj
 0001:0001fd7c       ?GetModuleFileName@CW32System@@SAKPAUHINSTANCE__@@PAGK@Z 10020d7c f   riched60:w32sys.obj
 0001:0001fd9c       ?InitPreferredFontInfo@CW32System@@SAXXZ 10020d9c f   riched60:w32sys.obj
 0001:0001fda0       ?IsDefaultFontDefined@CW32System@@SA_NJ_NAAFH@Z 10020da0 f   riched60:w32sys.obj
 0001:0001fda8       ?SetPreferredFontInfo@CW32System@@SA_NH_NFEE@Z 10020da8 f   riched60:w32sys.obj
 0001:0001fdb0       ?GetPreferredFontInfo@CW32System@@SA_NH_NAAFAAE2@Z 10020db0 f   riched60:w32sys.obj
 0001:0001fdd0       ?GetStringTypes@CW32System@@SAHKPBGHPAG1@Z 10020dd0 f   riched60:w32sys.obj
 0001:0001fea8       ?AddRef@CW32System@@SAKXZ  10020ea8 f   riched60:w32sys.obj
 0001:0001fec0       ?Release@CW32System@@SAKXZ 10020ec0 f   riched60:w32sys.obj
 0001:0001fed8       ?SetWindowLongPtr@CW32System@@SAJPAUHWND__@@HJ@Z 10020ed8 f   riched60:w32sys.obj
 0001:0001fedc       ?GetWindowLongPtr@CW32System@@SAJPAUHWND__@@H@Z 10020edc f   riched60:w32sys.obj
 0001:0001fee0       ?EraseTextOut@CW32System@@SAHPAUHDC__@@PBUtagRECT@@@Z 10020ee0 f   riched60:w32sys.obj
 0001:0001ff18       ?GetPreferredFontHeight@CW32System@@SAF_NEEF@Z 10020f18 f   riched60:w32sys.obj
 0001:0001ff20       ?GlobalAlloc@CW32System@@SAPAXIJ@Z 10020f20 f   riched60:w32sys.obj
 0001:0001ff28       ?GlobalFree@CW32System@@SAPAXPAX@Z 10020f28 f   riched60:w32sys.obj
 0001:0001ff2c       ?GlobalFlags@CW32System@@SAIPAX@Z 10020f2c f   riched60:w32sys.obj
 0001:0001ff34       ?GlobalReAlloc@CW32System@@SAPAXPAXJI@Z 10020f34 f   riched60:w32sys.obj
 0001:0001ff38       ?GlobalSize@CW32System@@SAKPAX@Z 10020f38 f   riched60:w32sys.obj
 0001:0001ff3c       ?GlobalLock@CW32System@@SAPAXPAX@Z 10020f3c f   riched60:w32sys.obj
 0001:0001ff40       ?GlobalHandle@CW32System@@SAPAXPBX@Z 10020f40 f   riched60:w32sys.obj
 0001:0001ff44       ?GlobalUnlock@CW32System@@SAHPAX@Z 10020f44 f   riched60:w32sys.obj
 0001:0001ff4c       ?TurnOffTT@CW32System@@SAXXZ 10020f4c f   riched60:w32sys.obj
 0001:0001ff50       ?TurnOnTT@CW32System@@SAPAUHWND__@@PAU2@JPAG@Z 10020f50 f   riched60:w32sys.obj
 0001:0001ff58       ?ActivateKeyboard@CW32System@@SAPAUHKL__@@J@Z 10020f58 f   riched60:w32sys.obj
 0001:0001ff60       ?FindDirectionalKeyboard@CW32System@@SAPAUHKL__@@H@Z 10020f60 f   riched60:w32sys.obj
 0001:0001ff68       ?SkipObjectData@CW32System@@SAHXZ 10020f68 f   riched60:w32sys.obj
 0001:0001ff70       ?GetRollerLineScrollCount@CW32System@@SAJXZ 10020f70 f   riched60:w32sys.obj
 0001:0001ffb0       ??0CW32System@@QAA@XZ      10020fb0 f   riched60:w32sys.obj
 0001:0002007c       _purecall                  1002107c f   riched60:w32sys.obj
 0001:00020084       ?wcslen@CW32System@@SAHPBG@Z 10021084 f   riched60:w32sys.obj
 0001:000200a4       ?wcscpy_s@CW32System@@SAPAGPAGHPBG@Z 100210a4 f   riched60:w32sys.obj
 0001:000200dc       ?wcscmp@CW32System@@SAHPBG0@Z 100210dc f   riched60:w32sys.obj
 0001:0002011c       ?wcsicmp@CW32System@@SAHPBG0@Z 1002111c f   riched60:w32sys.obj
 0001:00020184       ?wcsncpy@CW32System@@SAPAGPAGPBGH@Z 10021184 f   riched60:w32sys.obj
 0001:000201c0       ?_wcsnicmp@CW32System@@SAHPBG0H@Z 100211c0 f   riched60:w32sys.obj
 0001:0002023c       ?CharRepFromLID@CW32System@@SAIGH@Z 1002123c f   riched60:w32sys.obj
 0001:000202e4       ?DefaultLIDFromCharRep@CW32System@@SAKJ@Z 100212e4 f   riched60:w32sys.obj
 0001:00020344       ?GetLocaleCharRep@CW32System@@SAIXZ 10021344 f   riched60:w32sys.obj
 0001:0002035c       ?InitKeyboardFlags@CW32System@@SAXXZ 1002135c f   riched60:w32sys.obj
 0001:000203a4       ?GetKeyboardFlag@CW32System@@SAHGG@Z 100213a4 f   riched60:w32sys.obj
 0001:00020408       ?IsEOP@@YAHI@Z             10021408 f   riched60:w32sys.obj
 0001:0002043c       ?IsAlef@CW32System@@SAHG@Z 1002143c f   riched60:w32sys.obj
 0001:0002046c       ?IsBiDiLcid@CW32System@@SAHK@Z 1002146c f   riched60:w32sys.obj
 0001:000204e4       ?IsIndicLcid@CW32System@@SAHK@Z 100214e4 f   riched60:w32sys.obj
 0001:0002054c       ?IsBiDiDiacritic@CW32System@@SAHG@Z 1002154c f   riched60:w32sys.obj
 0001:000205e8       ?IsVietCdmSequenceValid@CW32System@@SAHGG@Z 100215e8 f   riched60:w32sys.obj
 0001:00020684       ?IsFELCID@CW32System@@SA_NK@Z 10021684 f   riched60:w32sys.obj
 0001:000206c0       ?IsFECharSet@CW32System@@SAHE@Z 100216c0 f   riched60:w32sys.obj
 0001:000206f4       ?IsFECodePageFont@CW32System@@SAHK@Z 100216f4 f   riched60:w32sys.obj
 0001:00020718       ?IsRTLCharSet@CW32System@@SAHE@Z 10021718 f   riched60:w32sys.obj
 0001:0002072c       ?IsUTF8BOM@CW32System@@SAHPBE@Z 1002172c f   riched60:w32sys.obj
 0001:00020768       ?GetTrailBytesCount@CW32System@@SAHEI@Z 10021768 f   riched60:w32sys.obj
 0001:000208cc       ?CharSetFromCharRep@CW32System@@SAEJ@Z 100218cc f   riched60:w32sys.obj
 0001:000208ec       ?GetCharSet@CW32System@@SAEHPAH@Z 100218ec f   riched60:w32sys.obj
 0001:00020970       ?CodePageFromCharRep@CW32System@@SAHJ@Z 10021970 f   riched60:w32sys.obj
 0001:0002098c       ?FontSigFromCharRep@CW32System@@SA_KJ@Z 1002198c f   riched60:w32sys.obj
 0001:00020a18       ?VerifyFont@CW32System@@SAHJJ@Z 10021a18 f   riched60:w32sys.obj
 0001:00020ae4       ?CheckFontSig@CW32System@@SAHF_K@Z 10021ae4 f   riched60:w32sys.obj
 0001:00020b60       ?CharRepFontSig@CW32System@@SAJ_KH@Z 10021b60 f   riched60:w32sys.obj
 0001:00020c10       ?CharRepFromCharSet@CW32System@@SAJE@Z 10021c10 f   riched60:w32sys.obj
 0001:00020c40       ?CharRepFromCodePage@CW32System@@SAHJ@Z 10021c40 f   riched60:w32sys.obj
 0001:00020c84       ?GetScreenDC@CW32System@@SAPAUHDC__@@XZ 10021c84 f   riched60:w32sys.obj
 0001:00020cbc       ?GetScreenDCClearTypeNaturalQuality@CW32System@@SAPAUHDC__@@XZ 10021cbc f   riched60:w32sys.obj
 0001:00020cf4       ?ValidateStreamWparam@CW32System@@SAII@Z 10021cf4 f   riched60:w32sys.obj
 0001:00020d38       ?MECharClass@CW32System@@SA?AW4CC@@G@Z 10021d38 f   riched60:w32sys.obj
 0001:00020e90       ?MBTWC@CW32System@@SAHHKPBDHPAGHPAH@Z 10021e90 f   riched60:w32sys.obj
 0001:0002110c       ?WCTMB@CW32System@@SAHHKPBGHPADHPBDPAH3H@Z 1002210c f   riched60:w32sys.obj
 0001:0002155c       ?GetSizeCursor@CW32System@@SAPAUHICON__@@QBG@Z 1002255c f   riched60:w32sys.obj
 0001:00021620       ?GetLayoutStub@@YAKPAUHDC__@@@Z 10022620 f   riched60:w32sys.obj
 0001:00021628       ?SetLayoutStub@@YAKPAUHDC__@@K@Z 10022628 f   riched60:w32sys.obj
 0001:00021630       ?GetLayoutInit@@YAKPAUHDC__@@@Z 10022630 f   riched60:w32sys.obj
 0001:00021698       ?SetLayoutInit@@YAKPAUHDC__@@K@Z 10022698 f   riched60:w32sys.obj
 0001:00021708       SetCustomTextOutHandlerEx  10022708 f   riched60:w32sys.obj
 0001:00021730       ?RefreshKeyboardLayout@CW32System@@SAXXZ 10022730 f   riched60:w32sys.obj
 0001:0002174c       ?GetDisplayGUID@CW32System@@SAIKI@Z 1002274c f   riched60:w32sys.obj
 0001:0002175c       ?GetTextFace_@COTxDC@@QBAHHPAG@Z 1002275c f i riched60:w32sys.obj
 0001:000217cc       ?SubpixelsEnabled@CHDC@@QBAHXZ 100227cc f i riched60:w32sys.obj
 0001:00021840       ?REGetCharWidth@CW32System@@SA_NABVCHDC@@GGGPAHIH@Z 10022840 f   riched60:w32sys.obj
 0001:00021974       ?REExtTextOut@CW32System@@SAHJW4CONVERTMODE@@IABVCHDC@@HHIPBUtagRECT@@PBGIPBHK@Z 10022974 f   riched60:w32sys.obj
 0001:00021bcc       ?InitSysParams@CW32System@@SAXH@Z 10022bcc f   riched60:w32sys.obj
 0001:00021ef4       ?GetTextCharsetInfo@CW32System@@SAHPAUHDC__@@PAUtagFONTSIGNATURE@@@Z 10022ef4 f   riched60:w32sys.obj
 0001:00021f80       ?IsDiacritic@CW32System@@SAHG@Z 10022f80 f   riched60:w32sys.obj
 0001:000220b8       ?MbcsFromUnicode@CW32System@@SAHPADHPBGHIW4UN_FLAGS@@@Z 100230b8 f   riched60:w32sys.obj
 0001:000221e8       ?UnicodeFromMbcs@CW32System@@SAHPAGHPBDHI@Z 100231e8 f   riched60:w32sys.obj
 0001:00022268       ?TextHGlobalAtoW@CW32System@@SAPAXPAX@Z 10023268 f   riched60:w32sys.obj
 0001:000222c4       ?TextHGlobalWtoA@CW32System@@SAPAXPAX@Z 100232c4 f   riched60:w32sys.obj
 0001:00022328       ?MatchFECharRep@CW32System@@SAE_K0@Z 10023328 f   riched60:w32sys.obj
 0001:00022384       ?GetTextMetrics@CW32System@@SAHABVCHDC@@AAUtagLOGFONTW@@AAUtagTEXTMETRICW@@@Z 10023384 f   riched60:w32sys.obj
 0001:000224a0       ?GetKeyboardLayout@CW32System@@SAPAUHKL__@@K@Z 100234a0 f   riched60:w32sys.obj
 0001:000224d4       ?IsFontAvail@CW32System@@SA_NPAUHDC__@@H_NPAFPBG@Z 100234d4 f   riched60:w32sys.obj
 0001:0002277c       ?GetTmpDisplayAttrIdx@CW32System@@SAFAAU_tmpDispAttrib@@@Z 1002377c f   riched60:w32sys.obj
 0001:000228a8       ?GetTmpColor@CW32System@@SA_NFAAKH@Z 100238a8 f   riched60:w32sys.obj
 0001:0002296c       ?GetTmpUnderline@CW32System@@SAFF@Z 1002396c f   riched60:w32sys.obj
 0001:000229c4       ?GetTmpData@CW32System@@SA_NFAAU_tmpDispAttrib@@@Z 100239c4 f   riched60:w32sys.obj
 0001:00022a44       ?IsDiacriticOrKashida@CW32System@@SAHGG@Z 10023a44 f   riched60:w32sys.obj
 0001:00022aa8       ??1CW32System@@QAA@XZ      10023aa8 f   riched60:w32sys.obj
 0001:00022b28       ?GetKeyboardLCID@CW32System@@SAKK@Z 10023b28 f   riched60:w32sys.obj
 0001:00022b5c       ?GetKeyboardCharRep@CW32System@@SAIK@Z 10023b5c f   riched60:w32sys.obj
 0001:00022b94       ?CheckInstalledFEFonts@CW32System@@SAXXZ 10023b94 f   riched60:w32sys.obj
 0001:00022d74       ?IsFEFontInSystem@CW32System@@SA_NH@Z 10023d74 f   riched60:w32sys.obj
 0001:00022dfc       ?GetFEFontInfo@CW32System@@SAIXZ 10023dfc f   riched60:w32sys.obj
 0001:00022ea8       ?VerifyFEString@CW32System@@SAHHPBGHH@Z 10023ea8 f   riched60:w32sys.obj
 0001:000230bc       ?Clear@COTxOlsData@@QAAXXZ 100240bc f i riched60:lshelpers.obj
 0001:00023108       ?FNoLS@CLSLock@@SA_NABVCTxtEdit@@@Z 10024108 f i riched60:lshelpers.obj
 0001:00023148       ?OnOutermostLSOperationCompletion@CLSLock@@SAXXZ 10024148 f   riched60:lshelpers.obj
 0001:0002316c       ??0CLSReentrancyGuard@@AAA@XZ 1002416c f   riched60:lshelpers.obj
 0001:000231a0       ??1CLSReentrancyGuard@@AAA@XZ 100241a0 f   riched60:lshelpers.obj
 0001:000231e0       ??0COls@@QAA@XZ            100241e0 f i riched60:lshelpers.obj
 0001:0002323c       ?DeletePols@CLSLock@@SAXXZ 1002423c f   riched60:lshelpers.obj
 0001:000232b8       ?GetPols@CMeasurerLS@@QAAPAUCOls@@XZ 100242b8 f   riched60:lshelpers.obj
 0001:0002338c       ?OnWin9xFE@CW32System@@SA_NXZ 1002438c f i riched60:font.obj
 0001:000233d0       ?SearchPredefineFonts@@YAHPBGAAJ@Z 100243d0 f   riched60:font.obj
 0001:00023434       ?GetFontNameIndex@@YAFPBG@Z 10024434 f   riched60:font.obj
 0001:00023600       ?GetFontName@@YAPBGJ@Z     10024600 f   riched60:font.obj
 0001:00023638       ?SetFontLegitimateSize@@YAHJHEH@Z 10024638 f   riched60:font.obj
 0001:000239e8       ?CopyLFFontName@@YAXAAUtagLOGFONTW@@PBG_N@Z 100249e8 f   riched60:font.obj
 0001:00023a40       ?CheckFontCMap@@YAJHJJPBGPAUMSOFONTRUNINFO@@@Z 10024a40 f   riched60:font.obj
 0001:00023bf4       ?Get_pFC@@YAPAVCFontCache@@XZ 10024bf4 f   riched60:font.obj
 0001:00023c10       ?BestCharRep@CCcs@@QAAEEEH@Z 10024c10 f   riched60:font.obj
 0001:00023c70       ?GetOffset@CCcs@@QBAXQBVCCharFormat@@JPAJ1@Z 10024c70 f   riched60:font.obj
 0001:00023d88       ?GetFontOverhang@CCcs@@QBAXPAJ0@Z 10024d88 f   riched60:font.obj
 0001:00023e18       ?GrowCache@CWidthCache@@AAAHPAPAUCacheEntry@1@PAH1@Z 10024e18 f   riched60:font.obj
 0001:00023edc       ?Free@CWidthCache@@QAAXXZ  10024edc f   riched60:font.obj
 0001:00023f2c       ?GetTextMetrics_@CHDC@@QBAHAAUtagTEXTMETRICW@@@Z 10024f2c f i riched60:font.obj
 0001:00023f7c       ?GetOutlineTextMetricsW@CHDC@@QBAHAAU_OUTLINETEXTMETRICW@@@Z 10024f7c f i riched60:font.obj
 0001:00023fdc       ?GetFontSignatureFromFace@@YA_KHPA_K@Z 10024fdc f   riched60:font.obj
 0001:00024374       ?GetInfoFlags@CFontCache@@QAA?ATFONTINFO_FLAGS@@H@Z 10025374 f   riched60:font.obj
 0001:000243e8       ?GetFontInfo@CFontCache@@QAAPAUFONTINFO@@H@Z 100253e8 f   riched60:font.obj
 0001:0002443c       ?GetMetrics@CFontCache@@QAAHFFJAAJ00@Z 1002543c f   riched60:font.obj
 0001:000244c0       ??1CFontFamilyMgr@@QAA@XZ  100254c0 f   riched60:font.obj
 0001:00024528       ?GetFontFamilyMember@CFontFamilyMgr@@QAAPAVCFontFamilyMember@@JH@Z 10025528 f   riched60:font.obj
 0001:00024608       ?Free@CCcs@@QAAXXZ         10025608 f   riched60:font.obj
 0001:000246a0       ?FillWidth@CCcs@@AAAHABVCHDC@@GAAJPAURunContext@1@@Z 100256a0 f   riched60:font.obj
 0001:00024a50       ?GetMetrics@CCcs@@AAAHABVCHDC@@JPAG@Z 10025a50 f   riched60:font.obj
 0001:00024dbc       ?Compare@CCcs@@AAAHQBVCCharFormat@@W4FONTALIGNMENT@@ABVCHDC@@K@Z 10025dbc f   riched60:font.obj
 0001:00024f20       ?CheckPerformance@CWidthCache@@AAAXXZ 10025f20 f   riched60:font.obj
 0001:00024fb4       ?GetFontLegitimateSize@@YAEJHH@Z 10025fb4 f   riched60:font.obj
 0001:000251dc       ??1CFontCache@@QAA@XZ      100261dc f i riched60:font.obj
 0001:0002521c       ?GetFontFamilyMgr@CFontCache@@AAAPAVCFontFamilyMgr@@J@Z 1002621c f   riched60:font.obj
 0001:000252a0       ?GetFontWithMetrics@CCcs@@AAAPAUHFONT__@@ABVCHDC@@PAUtagLOGFONTW@@JPAG@Z 100262a0 f   riched60:font.obj
 0001:000252f4       ?CheckWidth@CWidthCache@@QAAHGAAJ@Z 100262f4 f   riched60:font.obj
 0001:000253cc       ?InitFontCache@@YAHXZ      100263cc f   riched60:font.obj
 0001:00025430       ?ResetFontCache@@YAXXZ     10026430 f   riched60:font.obj
 0001:00025494       ?GetKernCache@CFontCache@@QAAPAVCKernCache@@JJH@Z 10026494 f   riched60:font.obj
 0001:00025524       ?MakeFont@CCcs@@AAAHABVCHDC@@QBVCCharFormat@@_N@Z 10026524 f   riched60:font.obj
 0001:00025e60       ?FreeFontCache@@YAXXZ      10026e60 f   riched60:font.obj
 0001:00025f30       ?Init@CCcs@@AAAHABVCHDC@@QBVCCharFormat@@_N@Z 10026f30 f   riched60:font.obj
 0001:00025fac       ?GrabInitNewCcs@CFontCache@@AAAPAVCCcs@@QBVCCharFormat@@W4FONTALIGNMENT@@ABVCHDC@@K_N@Z 10026fac f   riched60:font.obj
 0001:00026100       ?GetCcs@CFontCache@@QAAPAVCCcs@@PAVCCharFormat@@W4FONTALIGNMENT@@JKAAVCHDC@@@Z 10027100 f   riched60:font.obj
 0001:0002644c       ?PvAlloc@CW32System@@SAPAXJI@Z 1002744c f   riched60:utilmem.obj
 0001:000264b4       ?PvReAlloc@CW32System@@SAPAXPAXJ@Z 100274b4 f   riched60:utilmem.obj
 0001:000264e8       ?FreePv@CW32System@@SAXPAX@Z 100274e8 f   riched60:utilmem.obj
 0001:0002650c       ??2@YAPAXI@Z               1002750c f   riched60:utilmem.obj
 0001:00026514       ??3@YAXPAX@Z               10027514 f   riched60:utilmem.obj
 0001:00026538       ?OnWin9xThai@CW32System@@SA_NXZ 10027538 f i riched60:uspi.obj
 0001:00026574       ?ScriptShape@COTxDC@@QAAJPAPAXPBGHHPAUtag_SCRIPT_ANALYSIS@@PAG3PAUtag_SCRIPT_VISATTR@@PAH@Z 10027574 f i riched60:uspi.obj
 0001:000265dc       ?ScriptPlace@COTxDC@@QAAJPAPAXPBGHPBUtag_SCRIPT_VISATTR@@PAUtag_SCRIPT_ANALYSIS@@PAHPAUtagGOFFSET@@PAU_ABC@@@Z 100275dc f i riched60:uspi.obj
 0001:0002663c       ?IsSupportedOS@@YAHXZ      1002763c f   riched60:uspi.obj
 0001:00026644       ?ApplyDigitSubstitution@CUniscribe@@QAAGE@Z 10027644 f   riched60:uspi.obj
 0001:00026758       ?ItemizeString@CUniscribe@@QAAHPAUtagUSP_CLIENT@@GPAHPBGHHGH@Z 10027758 f   riched60:uspi.obj
 0001:0002685c       ?GeteProp@CUniscribe@@QAAPBUSCRIPT_PROPERTIES@@G@Z 1002785c f   riched60:uspi.obj
 0001:000268cc       ?GetCDMCharRep@CUniscribe@@AAAEE@Z 100278cc f   riched60:uspi.obj
 0001:00026930       ?CreateClientStruc@CUniscribe@@QAAHPAEJPAPAUtagUSP_CLIENT@@JK@Z 10027930 f   riched60:uspi.obj
 0001:00026cd0       ?InputClass@CBiDiFSM@@QBA?AW4INPUT_CLASS@@PBVCCharFormat@@GJ@Z 10027cd0 f   riched60:uspi.obj
 0001:00026dfc       ?GetPtr@CBufferBase@@QAAPAXH@Z 10027dfc f   riched60:uspi.obj
 0001:00026e64       ?ScriptShape@CHDC@@QAAJPAPAXPBGHHPAUtag_SCRIPT_ANALYSIS@@PAG3PAUtag_SCRIPT_VISATTR@@PAH@Z 10027e64 f i riched60:uspi.obj
 0001:00026f18       ?ScriptPlace@CHDC@@QAAJPAPAXPBGHPBUtag_SCRIPT_VISATTR@@PAUtag_SCRIPT_ANALYSIS@@PAHPAUtagGOFFSET@@PAU_ABC@@@Z 10027f18 f i riched60:uspi.obj
 0001:00026fbc       ??0CUniscribe@@QAA@XZ      10027fbc f   riched60:uspi.obj
 0001:00027154       ?GetFSM@CUniscribe@@QAAPBVCBiDiFSM@@XZ 10028154 f   riched60:uspi.obj
 0001:00027198       ?PrepareShapeDC@CUniscribe@@AAAXAAVCHDC@@PAUCLsrun@@PAVCMeasurer@@JAAPAUHFONT__@@@Z 10028198 f   riched60:uspi.obj
 0001:000272d0       ?GetComplexCharRep@CUniscribe@@QAAHPBUSCRIPT_PROPERTIES@@EAAE@Z 100282d0 f   riched60:uspi.obj
 0001:000273cc       ?GetRtlCharRep@CUniscribe@@QAAEPAVCTxtEdit@@PAVCRchTxtPtr@@@Z 100283cc f   riched60:uspi.obj
 0001:000274f4       ?SubstituteDigitShaper@CUniscribe@@QAAXPAUCLsrun@@PAVCMeasurer@@@Z 100284f4 f   riched60:uspi.obj
 0001:000276ac       ?CacheAllocGlyphBuffers@CUniscribe@@QAAHHAAHAAPAGAAPAUtag_SCRIPT_VISATTR@@@Z 100286ac f i riched60:uspi.obj
 0001:0002770c       ??1CUniscribe@@QAA@XZ      1002870c f   riched60:uspi.obj
 0001:00027788       ?ShapeString@CUniscribe@@QAAHPAUCLsrun@@PAUtag_SCRIPT_ANALYSIS@@PAVCMeasurer@@PBGHAAPAGPAGAAPAUtag_SCRIPT_VISATTR@@@Z 10028788 f   riched60:uspi.obj
 0001:00027a9c       ?PlaceString@CUniscribe@@QAAHPAUCLsrun@@PAUtag_SCRIPT_ANALYSIS@@PAVCMeasurer@@PBGHPBUtag_SCRIPT_VISATTR@@PAHPAUtagGOFFSET@@PAU_ABC@@@Z 10028a9c f   riched60:uspi.obj
 0001:00027d4c       ?PlaceMetafileString@CUniscribe@@QAAHPAUCLsrun@@PAVCMeasurer@@PBGHPAPAH@Z 10028d4c f   riched60:uspi.obj
 0001:00027fd0       ?RunFSM@CBiDiFSM@@QBAJAAVCRchTxtPtr@@JJEAAJ1H@Z 10028fd0 f   riched60:uspi.obj
 0001:0002844c       ?FAdjacentLinks@@YAHKK@Z   1002944c f   riched60:cfpf.obj
 0001:00028480       ?FStartOfLink@@YAHKKJ@Z    10029480 f   riched60:cfpf.obj
 0001:000284b4       ?FEndOfLink@@YAHKK@Z       100294b4 f   riched60:cfpf.obj
 0001:000284e0       ?ApplyDefaultStyle@CCharFormat@@QAAXJ@Z 100294e0 f   riched60:cfpf.obj
 0001:000285c4       ?CanKernWith@CCharFormat@@QBAHPBV1@@Z 100295c4 f   riched60:cfpf.obj
 0001:00028620       ?Delta@CCharFormat@@QBAKPBV1@H@Z 10029620 f   riched60:cfpf.obj
 0001:00028740       ?DeltaCharEffects@CCharFormat@@QBAKPBV1@@Z 10029740 f   riched60:cfpf.obj
 0001:000287c8       ?fSetStyle@CCharFormat@@QBAHKK@Z 100297c8 f   riched60:cfpf.obj
 0001:0002880c       ?Get@CCharFormat@@QBAXPAUCHARFORMAT2W@@I@Z 1002980c f   riched60:cfpf.obj
 0001:0002896c       ?GetCharEffects@CCharFormat@@QBAXPAU_chareffects@@@Z 1002996c f   riched60:cfpf.obj
 0001:000289c8       ?GetLevel@CCharFormat@@QBAJPAH@Z 100299c8 f   riched60:cfpf.obj
 0001:000289f8       ?IsDefaultAutoLink@CCharFormat@@QBAHHH@Z 100299f8 f   riched60:cfpf.obj
 0001:00028a98       ?IsHighFont@CCharFormat@@QBAHXZ 10029a98 f   riched60:cfpf.obj
 0001:00028b08       ?IsMathFont@CCharFormat@@QBAHXZ 10029b08 f   riched60:cfpf.obj
 0001:00028b78       ?IndexedAlphaSequence@ListNumberGenerator@@AAAHJPAGHHQBG@Z 10029b78 f i riched60:cfpf.obj
 0001:00028c50       ?IndexedHindiAlphaSequence@ListNumberGenerator@@AAAHJPAGHHQBG@Z 10029c50 f i riched60:cfpf.obj
 0001:00028d20       ?ZeroBasedNum@ListNumberGenerator@@AAAHJPAGIHG@Z 10029d20 f i riched60:cfpf.obj
 0001:00028de0       ?FETypeA@ListNumberGenerator@@AAAHJPAGI@Z 10029de0 f i riched60:cfpf.obj
 0001:00028e78       ?FENum@ListNumberGenerator@@AAAHJPAGHH_N@Z 10029e78 f i riched60:cfpf.obj
 0001:00028f5c       ?BiDiAlpha@ListNumberGenerator@@AAAHJPAGHHQBG@Z 10029f5c f i riched60:cfpf.obj
 0001:00029080       ?AddTab@CParaFormat@@QAAJJJJPAJJ@Z 1002a080 f   riched60:cfpf.obj
 0001:00029170       ?ApplyDefaultStyle@CParaFormat@@QAAXJ@Z 1002a170 f   riched60:cfpf.obj
 0001:00029194       ?DeleteTab@CParaFormat@@QAAJJPAJJ@Z 1002a194 f   riched60:cfpf.obj
 0001:00029230       ?fSetStyle@CParaFormat@@QBAHKK@Z 1002a230 f   riched60:cfpf.obj
 0001:00029284       ?Get@CParaFormat@@QBAXPAUPARAFORMAT2@@@Z 1002a284 f   riched60:cfpf.obj
 0001:00029360       ?GetTab@CParaFormat@@QBAJJPAJ00PBJ@Z 1002a360 f   riched60:cfpf.obj
 0001:00029458       ?GetTabs@CParaFormat@@QBAPBJXZ 1002a458 f   riched60:cfpf.obj
 0001:00029478       ?HandleStyle@CParaFormat@@QAAHJ@Z 1002a478 f   riched60:cfpf.obj
 0001:00029548       ?InitDefault@CParaFormat@@QAAJK@Z 1002a548 f   riched60:cfpf.obj
 0001:00029584       ?Set@CParaFormat@@QAAXPBUPARAFORMAT2@@@Z 1002a584 f   riched60:cfpf.obj
 0001:00029684       ?SetDropCapInsetRect@CParaFormat@@QAAXABURECTUV@@@Z 1002a684 f   riched60:cfpf.obj
 0001:000296a8       ?GetDropCapInsetRect@CParaFormat@@QBAXAAURECTUV@@@Z 1002a6a8 f   riched60:cfpf.obj
 0001:000296cc       ?GetColorFromIndex@CParaFormat@@QBAKJ@Z 1002a6cc f   riched60:cfpf.obj
 0001:00029708       ?ICellFromUCell@_cellparms@@QBAJJJ@Z 1002a708 f   riched60:cfpf.obj
 0001:0002974c       ?GetDulCell@_cellparms@@QBAJAAJJJ@Z 1002a74c f   riched60:cfpf.obj
 0001:000297a4       ?GetUsableFontHeight@@YAJJJ@Z 1002a7a4 f   riched60:cfpf.obj
 0001:00029874       ?IsValidCharFormatW@@YAHPBU_charformatw@@@Z 1002a874 f   riched60:cfpf.obj
 0001:000298a0       ?IsValidCharFormatA@@YAHPBU_charformat@@@Z 1002a8a0 f   riched60:cfpf.obj
 0001:000298cc       ?IsValidParaFormat@@YAHPBU_paraformat@@@Z 1002a8cc f   riched60:cfpf.obj
 0001:000298f8       ?IsListChanged@CParaFormat@@QBAHPBV1@@Z 1002a8f8 f i riched60:cfpf.obj
 0001:00029968       ?Apply@CCharFormat@@QAAJPBV1@KKK@Z 1002a968 f   riched60:cfpf.obj
 0001:0002a338       ?InitDefault@CCharFormat@@QAAJPAUHFONT__@@@Z 1002b338 f   riched60:cfpf.obj
 0001:0002a604       ?Set@CCharFormat@@QAAXPBUCHARFORMAT2W@@I@Z 1002b604 f   riched60:cfpf.obj
 0001:0002a7b4       ?SetCharEffects@CCharFormat@@QAAHPAU_chareffects@@@Z 1002b7b4 f   riched60:cfpf.obj
 0001:0002a8e8       ?SimpleSequence@ListNumberGenerator@@AAAHJPAGHHG@Z 1002b8e8 f i riched60:cfpf.obj
 0001:0002a9ec       ?NumToStr@ListNumberGenerator@@QAAHJPAGHK@Z 1002b9ec f i riched60:cfpf.obj
 0001:0002ac34       ?Delta@CParaFormat@@QBAKPBV1@H@Z 1002bc34 f   riched60:cfpf.obj
 0001:0002ae38       ?GetRTLRowLength@CParaFormat@@QBAJXZ 1002be38 f   riched60:cfpf.obj
 0001:0002aea0       ?FContainsVMergedCells@CParaFormat@@QBAHXZ 1002bea0 f   riched60:cfpf.obj
 0001:0002af18       ?NumToStr@CParaFormat@@QBAJJPAGJK@Z 1002bf18 f   riched60:cfpf.obj
 0001:0002b4d0       ?IsSameTable@CParaFormat@@QBAHPBV1@@Z 1002c4d0 f   riched60:cfpf.obj
 0001:0002b5b4       ?GetCellWidthsOnly@CParaFormat@@QBAFPBV1@AAH@Z 1002c5b4 f   riched60:cfpf.obj
 0001:0002b6f8       ?Apply@CParaFormat@@QAAJPBV1@KKPAH@Z 1002c6f8 f   riched60:cfpf.obj
 0001:0002bb44       ?_GetProcFromDLL@@YAXPAPAUHINSTANCE__@@PBGPAP6AHXZ1@Z 1002cb44 f   riched60:CEDllLoad.obj
 0001:0002bb98       LsSetDoc                   1002cb98 f   riched60:CEDllLoad.obj
 0001:0002bc04       LsSetModWidthPairs         1002cc04 f   riched60:CEDllLoad.obj
 0001:0002bc84       LsSetCompression           1002cc84 f   riched60:CEDllLoad.obj
 0001:0002bd0c       LsSetExpansion             1002cd0c f   riched60:CEDllLoad.obj
 0001:0002bd8c       LsSetBreaking              1002cd8c f   riched60:CEDllLoad.obj
 0001:0002be0c       LsCreateLine               1002ce0c f   riched60:CEDllLoad.obj
 0001:0002be9c       LsModifyLineHeight         1002ce9c f   riched60:CEDllLoad.obj
 0001:0002bf24       LsDestroyLine              1002cf24 f   riched60:CEDllLoad.obj
 0001:0002bf7c       LsCreateLineGivenBreak     1002cf7c f   riched60:CEDllLoad.obj
 0001:0002c014       LsDestroyBreakRecord       1002d014 f   riched60:CEDllLoad.obj
 0001:0002c06c       LsEnumLine                 1002d06c f   riched60:CEDllLoad.obj
 0001:0002c0d8       LsEnumSubline              1002d0d8 f   riched60:CEDllLoad.obj
 0001:0002c144       LsPointXYFromPointUV       1002d144 f   riched60:CEDllLoad.obj
 0001:0002c1b0       LsPointUV2FromPointUV1     1002d1b0 f   riched60:CEDllLoad.obj
 0001:0002c230       LsCreateContext            1002d230 f   riched60:CEDllLoad.obj
 0001:0002c288       LsDestroyContext           1002d288 f   riched60:CEDllLoad.obj
 0001:0002c2d8       LsGetReverseLsimethods     1002d2d8 f   riched60:CEDllLoad.obj
 0001:0002c328       LsQueryLineCpPpoint        1002d328 f   riched60:CEDllLoad.obj
 0001:0002c3b0       LsQueryLinePointPcp        1002d3b0 f   riched60:CEDllLoad.obj
 0001:0002c438       LsQueryLineUp              1002d438 f   riched60:CEDllLoad.obj
 0001:0002c4d8       LsQueryLineDown            1002d4d8 f   riched60:CEDllLoad.obj
 0001:0002c578       LsQueryLineDup             1002d578 f   riched60:CEDllLoad.obj
 0001:0002c608       LsQueryLineMaxDepth        1002d608 f   riched60:CEDllLoad.obj
 0001:0002c660       LsDisplayLine              1002d660 f   riched60:CEDllLoad.obj
 0001:0002c6cc       LsdnSetRigidDup            1002d6cc f   riched60:CEDllLoad.obj
 0001:0002c724       LsdnFinishRegular          1002d724 f   riched60:CEDllLoad.obj
 0001:0002c7b4       LsdnQueryObjDimRange       1002d7b4 f   riched60:CEDllLoad.obj
 0001:0002c814       ScriptBreak                1002d814 f   riched60:CEDllLoad.obj
 0001:0002c884       ScriptFreeCache            1002d884 f   riched60:CEDllLoad.obj
 0001:0002c8d8       ScriptGetCMap              1002d8d8 f   riched60:CEDllLoad.obj
 0001:0002c964       ScriptGetLogicalWidths     1002d964 f   riched60:CEDllLoad.obj
 0001:0002c9f8       ScriptGetProperties        1002d9f8 f   riched60:CEDllLoad.obj
 0001:0002ca54       ScriptItemize              1002da54 f   riched60:CEDllLoad.obj
 0001:0002cae8       ScriptPlace                1002dae8 f   riched60:CEDllLoad.obj
 0001:0002cb8c       ScriptShape                1002db8c f   riched60:CEDllLoad.obj
 0001:0002cc38       ScriptString_pLogAttr      1002dc38 f   riched60:CEDllLoad.obj
 0001:0002cc88       ScriptStringAnalyse        1002dc88 f   riched60:CEDllLoad.obj
 0001:0002cd58       ScriptStringFree           1002dd58 f   riched60:CEDllLoad.obj
 0001:0002cdac       ScriptStringValidate       1002ddac f   riched60:CEDllLoad.obj
 0001:0002ce00       ScriptTextOut              1002de00 f   riched60:CEDllLoad.obj
 0001:0002ced8       ?FreeDelayLoadedModules@@YAXXZ 1002ded8 f   riched60:CEDllLoad.obj
 0001:0002cf10       ?ExtTextOutW@COTxDC@@QAAJJHHIPBUtagRECT@@PBGIPBH@Z 1002df10 f i riched60:render.obj
 0001:0002cfa0       ?FillBitmap@COffscreenDC@@QAAXJJ@Z 1002dfa0 f i riched60:render.obj
 0001:0002cffc       ?RenderBitMap@COffscreenDC@@QAAXPAUHDC__@@JJJJ@Z 1002dffc f i riched60:render.obj
 0001:0002d054       ?Include@CCcs@@QAAHABVCHDC@@GAAJPAURunContext@1@@Z 1002e054 f i riched60:render.obj
 0001:0002d0b4       ?OnPreReplaceRange@CRchTxtPtr@@UAAXJJJJJPAUNOTIFY_DATA@@@Z 1002e0b4 f i riched60:render.obj
 0001:0002d0b8       ?OnPostReplaceRange@CRchTxtPtr@@UAAXJJJJJPAUNOTIFY_DATA@@@Z 1002e0b8 f i riched60:render.obj
 0001:0002d0bc       ??_ECMeasurer@@UAAPAXI@Z   1002e0bc f i riched60:render.obj
 0001:0002d0bc       ??_GCMeasurer@@UAAPAXI@Z   1002e0bc f i riched60:render.obj
 0001:0002d0f4       ?ResetCachediFormat@CMeasurerNoFC@@IAAXXZ 1002e0f4 f i riched60:render.obj
 0001:0002d15c       ?FormatIsChanged@CMeasurer@@IBAHXZ 1002e15c f i riched60:render.obj
 0001:0002d1cc       ?InitializeOutlineBitmaps@@YAJXZ 1002e1cc f   riched60:render.obj
 0001:0002d264       ?ReleaseOutlineBitmaps@@YAXXZ 1002e264 f   riched60:render.obj
 0001:0002d2a4       ??1CBrush@@QAA@XZ          1002e2a4 f   riched60:render.obj
 0001:0002d2d4       ?IsTooSimilar@@YAHKK@Z     1002e2d4 f   riched60:render.obj
 0001:0002d358       ?GetShadedColor@@YAKKKJ@Z  1002e358 f   riched60:render.obj
 0001:0002d404       ?GetLuminosity@@YAJK@Z     1002e404 f   riched60:render.obj
 0001:0002d468       ??1CRenderer@@UAA@XZ       1002e468 f   riched60:render.obj
 0001:0002d4c4       ?IsSimpleBackground@CRenderer@@QBAHXZ 1002e4c4 f   riched60:render.obj
 0001:0002d4fc       ?GetShadedColor@CRenderer@@QBAKJ@Z 1002e4fc f   riched60:render.obj
 0001:0002d50c       ?NewLine@CRenderer@@QAAXABUCLine@@@Z 1002e50c f   riched60:render.obj
 0001:0002d588       ?GetShadedColorFromIndices@CRenderer@@QBAKJJJPBVCParaFormat@@@Z 1002e588 f   riched60:render.obj
 0001:0002d600       ?SetClipRect@CRenderer@@QAAXXZ 1002e600 f   riched60:render.obj
 0001:0002d66c       ?SetClipLeftRight@CRenderer@@QAAXJ@Z 1002e66c f   riched60:render.obj
 0001:0002d6bc       ?SetupUnderline@CRenderer@@QAAXEEK@Z 1002e6bc f   riched60:render.obj
 0001:0002d6ec       ?UseXOR@CRenderer@@QBAHK@Z 1002e6ec f   riched60:render.obj
 0001:0002d748       ?GetAcetateBackColor@CRenderer@@QAAKKK@Z 1002e748 f   riched60:render.obj
 0001:0002d7a8       ?SetSelected@CRenderer@@QAAXH@Z 1002e7a8 f   riched60:render.obj
 0001:0002d7d8       ?RenderOutlineSymbol@CRenderer@@QAAHXZ 1002e7d8 f   riched60:render.obj
 0001:0002da08       ?EndEmphasisRendering@CRenderer@@QAAXXZ 1002ea08 f   riched60:render.obj
 0001:0002da34       ?InitBlobDrawInfo@CRenderer@@QBAXAAUBLOB_DRAW_INFO@ITextBlob@@@Z 1002ea34 f   riched60:render.obj
 0001:0002da68       ?OnSelectionBackgroundRendering@CRenderer@@QAAXABURECTUV@@K@Z 1002ea68 f   riched60:render.obj
 0001:0002db18       ?CorrectLineWidth@CRenderer@@QBAXAAJ0@Z 1002eb18 f   riched60:render.obj
 0001:0002dc80       ?IsBlackAndWhite@CHDC@@QBAHXZ 1002ec80 f i riched60:render.obj
 0001:0002dcc8       ?IsEnhancedMetafile@CHDC@@QBAHXZ 1002ecc8 f i riched60:render.obj
 0001:0002dd0c       ?DrawLine@CHDC@@QBAHPBUtagPOINT@@HK@Z 1002ed0c f i riched60:render.obj
 0001:0002dd74       ?PatBltCopy@CHDC@@QBAHABUtagRECT@@K@Z 1002ed74 f i riched60:render.obj
 0001:0002ddf4       ?FillRect@CHDC@@QBAHABUtagRECT@@K@Z 1002edf4 f i riched60:render.obj
 0001:0002de68       ?EraseTextOut@CHDC@@QBAHABUtagRECT@@@Z 1002ee68 f i riched60:render.obj
 0001:0002dee4       ?InvertRect_@CHDC@@QBAHABUtagRECT@@@Z 1002eee4 f i riched60:render.obj
 0001:0002df28       ??4CRchTxtPtr@@UAAAAV0@ABV0@@Z 1002ef28 f i riched60:render.obj
 0001:0002df48       ?Draw@CBrush@@QAAXJJJJJKHH@Z 1002ef48 f   riched60:render.obj
 0001:0002e080       ??_ECRenderer@@UAAPAXI@Z   1002f080 f i riched60:render.obj
 0001:0002e080       ??_GCRenderer@@UAAPAXI@Z   1002f080 f i riched60:render.obj
 0001:0002e0a4       ?Init@CRenderer@@AAAXXZ    1002f0a4 f   riched60:render.obj
 0001:0002e328       ?EraseTextOut@CRenderer@@AAAXABVCHDC@@PBURECTUV@@H@Z 1002f328 f   riched60:render.obj
 0001:0002e804       ?DrawWrappedObjects@CRenderer@@QAAXPAUCLine@@0JABUtagLSPOINTUV@@@Z 1002f804 f   riched60:render.obj
 0001:0002eac8       ?EndRender@CRenderer@@QAAXPAUCLine@@0JABUtagLSPOINTUV@@@Z 1002fac8 f   riched60:render.obj
 0001:0002eb64       ?DrawTableBorders@CRenderer@@QAAJPBVCParaFormat@@JJJJ0HJJJ@Z 1002fb64 f   riched60:render.obj
 0001:0002f54c       ?GetConvertMode@CRenderer@@QAA?AW4CONVERTMODE@@XZ 1003054c f   riched60:render.obj
 0001:0002f610       ?SetDefaultBackColor@CRenderer@@QAAXK@Z 10030610 f   riched60:render.obj
 0001:0002f698       ?SetDefaultTextColor@CRenderer@@QAAXK@Z 10030698 f   riched60:render.obj
 0001:0002f708       ?SetTextColor@CRenderer@@QAAXK@Z 10030708 f   riched60:render.obj
 0001:0002f740       ?GetTextColor@CRenderer@@QBAKPBVCCharFormat@@@Z 10030740 f   riched60:render.obj
 0001:0002fae8       ?EraseToBottom@CRenderer@@QAAXXZ 10030ae8 f   riched60:render.obj
 0001:0002fb3c       ?DrawLine@CRenderer@@QAAXPBUtagPOINT@@HKH@Z 10030b3c f   riched60:render.obj
 0001:0002fbcc       ?StartEmphasisRendering@CRenderer@@QAAPAVCCcs@@PBVCCharFormat@@@Z 10030bcc f   riched60:render.obj
 0001:0002fc64       ?FillRectWithColor@CRenderer@@QAAXPBURECTUV@@K@Z 10030c64 f   riched60:render.obj
 0001:0002fd0c       ?PrepareBlobRendering@CRenderer@@QAAXABVCOleObject@@JJH@Z 10030d0c f   riched60:render.obj
 0001:0002fff8       ??0CRenderer@@QAA@QBVCDisplay@@@Z 10030ff8 f   riched60:render.obj
 0001:00030068       ??0CRenderer@@QAA@QBVCDisplay@@ABVCRchTxtPtr@@@Z 10031068 f   riched60:render.obj
 0001:000300d8       ?StartRender@CRenderer@@QAAHABURECTUV@@0@Z 100310d8 f   riched60:render.obj
 0001:000301a8       ?EraseOnFirstDraw@CRenderer@@QAAXXZ 100311a8 f   riched60:render.obj
 0001:0003022c       ?EraseRect@CRenderer@@QAAHPBURECTUV@@K@Z 1003122c f   riched60:render.obj
 0001:0003028c       ?RenderExtTextOut@CRenderer@@QAAXUtagLSPOINTUV@@IPAUtagRECT@@PBGIPBHHH@Z 1003128c f   riched60:render.obj
 0001:000305b4       ?SetFontAndColor@CRenderer@@QAAXPBVCCharFormat@@@Z 100315b4 f   riched60:render.obj
 0001:00030894       ?DrawLine@CRenderer@@QAAXABUtagLSPOINTUV@@0HKH@Z 10031894 f   riched60:render.obj
 0001:000308f4       ?RenderUnderline@CRenderer@@QAAXJJJJ@Z 100318f4 f   riched60:render.obj
 0001:00030c74       ?RenderStrikeOut@CRenderer@@QAAXJJJJH@Z 10031c74 f   riched60:render.obj
 0001:00030d20       ?CheckUnderOverStrike@CRenderer@@QAAXJJJJ@Z 10031d20 f   riched60:render.obj
 0001:00030ea4       ?SetupOffscreenDC@CRenderer@@QAAPAUHDC__@@H@Z 10031ea4 f   riched60:render.obj
 0001:00031290       ?SetupDrawRun@CRenderer@@QAAHPAUCLsrun@@KPBUtagPOINT@@HPBUheights@@JHHAAUtagLSPOINTUV@@AAUtagRECT@@AAPAVCCcs@@AAI@Z 10032290 f   riched60:render.obj
 0001:000317c0       ?RenderText@CRenderer@@AAAXPBGJHH@Z 100327c0 f   riched60:render.obj
 0001:00031bcc       ?RenderTabs@CRenderer@@AAAJJ@Z 10032bcc f   riched60:render.obj
 0001:00031ef0       ?SetNewFont@CRenderer@@AAAHXZ 10032ef0 f   riched60:render.obj
 0001:00032084       ?RenderBullet@CRenderer@@AAAHXZ 10033084 f   riched60:render.obj
 0001:00032350       ?RenderOffscreenBitmap@CRenderer@@QAAXPAUHDC__@@@Z 10033350 f   riched60:render.obj
 0001:00032544       ?EndLine@CRenderer@@QAAXPAUHDC__@@@Z 10033544 f   riched60:render.obj
 0001:00032590       ?RenderChunk@CRenderer@@AAAHAAJPBGJ@Z 10033590 f   riched60:render.obj
 0001:00032940       ?StartLine@CRenderer@@QAAPAUHDC__@@AAUCLine@@HAAJ1@Z 10033940 f   riched60:render.obj
 0001:00032f20       ?RenderLine@CRenderer@@QAAHAAUCLine@@H@Z 10033f20 f   riched60:render.obj
 0001:00033438       ?Add@CHyphCache@@AAAHIG@Z  10034438 f   riched60:hyph.obj
 0001:00033484       ?Find@CHyphCache@@QAAHIG@Z 10034484 f   riched60:hyph.obj
 0001:00033514       ?GetAt@CHyphCache@@QAAXHAAIAAG@Z 10034514 f   riched60:hyph.obj
 0001:00033590       ?FreeHyphCache@@YAXXZ      10034590 f   riched60:hyph.obj
 0001:000335d0       ?InitKinsokuClassify@@YAHXZ 100345d0 f   riched60:clasifyc.obj
 0001:00033758       ?UninitKinsokuClassify@@YAXXZ 10034758 f   riched60:clasifyc.obj
 0001:00033778       ?IsSameClass@@YAHGGGG@Z    10034778 f   riched60:clasifyc.obj
 0001:000337f0       ?GetKinsokuClass@@YAHGGK@Z 100347f0 f   riched60:clasifyc.obj
 0001:000338dc       ?CanBreak@@YAHHH@Z         100348dc f   riched60:clasifyc.obj
 0001:000338f4       ?IsURLDelimiter@@YAHGHHHHJ@Z 100348f4 f   riched60:clasifyc.obj
 0001:00033a3c       ?BatchClassify@@YAXPBGHKPAGPAH1@Z 10034a3c f   riched60:clasifyc.obj
 0001:00033b7c       ?ClassifyChar@@YAGGK@Z     10034b7c f   riched60:clasifyc.obj
 0001:00033bc4       ?GetTypeInfoPtrs@@YAJXZ    10034bc4 f   riched60:tomdoc.obj
 0001:00033e44       ?ReleaseTypeInfoPtrs@@YAXXZ 10034e44 f   riched60:tomdoc.obj
 0001:00033f60       ?GetTypeInfo@@YAJIAAPAUITypeInfo@@PAPAU1@@Z 10034f60 f   riched60:tomdoc.obj
 0001:00033fc0       ?MyRead@@YAKKPAEJPAJ@Z     10034fc0 f   riched60:tomdoc.obj
 0001:0003403c       ?MyWrite@@YAKKPAEJPAJ@Z    1003503c f   riched60:tomdoc.obj
 0001:000340c0       ?GetTypeInfoCount@CTxtEdit@@UAAJPAI@Z 100350c0 f   riched60:tomdoc.obj
 0001:000340dc       ?GetTypeInfo@CTxtEdit@@UAAJIKPAPAUITypeInfo@@@Z 100350dc f   riched60:tomdoc.obj
 0001:000340f0       ?GetIDsOfNames@CTxtEdit@@UAAJABU_GUID@@PAPAGIKPAJ@Z 100350f0 f   riched60:tomdoc.obj
 0001:0003418c       ?Invoke@CTxtEdit@@UAAJJABU_GUID@@KGPAUtagDISPPARAMS@@PAUtagVARIANT@@PAUtagEXCEPINFO@@PAI@Z 1003518c f   riched60:tomdoc.obj
 0001:00034280       ?BeginEditCollection@CTxtEdit@@UAAJXZ 10035280 f   riched60:tomdoc.obj
 0001:000342e8       ?EndEditCollection@CTxtEdit@@UAAJXZ 100352e8 f   riched60:tomdoc.obj
 0001:00034334       ?Freeze@CTxtEdit@@UAAJPAJ@Z 10035334 f   riched60:tomdoc.obj
 0001:000343b0       ?GetDefaultTabStop@CTxtEdit@@UAAJPAM@Z 100353b0 f   riched60:tomdoc.obj
 0001:000343f4       ?GetName@CTxtEdit@@UAAJPAPAG@Z 100353f4 f   riched60:tomdoc.obj
 0001:00034450       ?GetSaved@CTxtEdit@@UAAJPAJ@Z 10035450 f   riched60:tomdoc.obj
 0001:0003447c       ?GetSelection@CTxtEdit@@UAAJPAPAUITextSelection@@@Z 1003547c f   riched60:tomdoc.obj
 0001:000344c0       ?GetStoryCount@CTxtEdit@@UAAJPAJ@Z 100354c0 f   riched60:tomdoc.obj
 0001:000344f8       ?GetStoryRanges@CTxtEdit@@UAAJPAPAUITextStoryRanges@@@Z 100354f8 f   riched60:tomdoc.obj
 0001:00034548       ?Range@CTxtEdit@@UAAJJJPAPAUITextRange@@@Z 10035548 f   riched60:tomdoc.obj
 0001:000345d8       ?RangeFromPoint@CTxtEdit@@UAAJJJPAPAUITextRange@@@Z 100355d8 f   riched60:tomdoc.obj
 0001:00034674       ?Redo@CTxtEdit@@UAAJJPAJ@Z 10035674 f   riched60:tomdoc.obj
 0001:00034708       ?SetSaved@CTxtEdit@@UAAJJ@Z 10035708 f   riched60:tomdoc.obj
 0001:0003473c       ?Undo@CTxtEdit@@UAAJJPAJ@Z 1003573c f   riched60:tomdoc.obj
 0001:000347e8       ?Unfreeze@CTxtEdit@@UAAJPAJ@Z 100357e8 f   riched60:tomdoc.obj
 0001:00034854       ?AttachMsgFilter@CTxtEdit@@UAAJPAUIUnknown@@@Z 10035854 f   riched60:tomdoc.obj
 0001:000348c4       ?CheckTextLimit@CTxtEdit@@UAAJJPAJ@Z 100358c4 f   riched60:tomdoc.obj
 0001:0003492c       ?GetCallManager@CTxtEdit@@UAAJPAPAUIUnknown@@@Z 1003592c f   riched60:tomdoc.obj
 0001:0003497c       ?GetCaretType@CTxtEdit@@UAAJPAJ@Z 1003597c f   riched60:tomdoc.obj
 0001:000349b8       ?GetClientRect@CTxtEdit@@UAAJJPAJ000@Z 100359b8 f   riched60:tomdoc.obj
 0001:00034b7c       ?GetDisplays@CTxtEdit@@UAAJPAPAUITextDisplays@@@Z 10035b7c f   riched60:tomdoc.obj
 0001:00034b94       ?GetDocumentFont@CTxtEdit@@UAAJPAPAUITextFont2@@@Z 10035b94 f   riched60:tomdoc.obj
 0001:00034c1c       ?GetDocumentPara@CTxtEdit@@UAAJPAPAUITextPara2@@@Z 10035c1c f   riched60:tomdoc.obj
 0001:00034cb8       ?GetFEFlags@CTxtEdit@@UAAJPAJ@Z 10035cb8 f   riched60:tomdoc.obj
 0001:00034cc0       ?GetGenerator@CTxtEdit@@UAAJPAPAG@Z 10035cc0 f   riched60:tomdoc.obj
 0001:00034d18       ?GetImmContext@CTxtEdit@@UAAJPA_J@Z 10035d18 f   riched60:tomdoc.obj
 0001:00034d78       ?GetMathProperties@CTxtEdit@@UAAJPAJ@Z 10035d78 f   riched60:tomdoc.obj
 0001:00034da4       ?GetNotificationMode@CTxtEdit@@UAAJPAJ@Z 10035da4 f   riched60:tomdoc.obj
 0001:00034dd0       ?GetPreferredFont@CTxtEdit@@UAAJJJJJJPAPAGPAJ1@Z 10035dd0 f   riched60:tomdoc.obj
 0001:00034df8       ?GetProperty@CTxtEdit@@UAAJJPAJ@Z 10035df8 f   riched60:tomdoc.obj
 0001:00034e10       ?GetSelection2@CTxtEdit@@UAAJPAPAUITextSelection2@@@Z 10035e10 f   riched60:tomdoc.obj
 0001:00034e6c       ?GetStoryRanges2@CTxtEdit@@UAAJPAPAUITextStoryRanges2@@@Z 10035e6c f   riched60:tomdoc.obj
 0001:00034e80       ?GetStrings@CTxtEdit@@UAAJPAPAUITextStrings@@@Z 10035e80 f   riched60:tomdoc.obj
 0001:00034ef4       ?GetTypographyOptions@CTxtEdit@@UAAJPAJ@Z 10035ef4 f   riched60:tomdoc.obj
 0001:00034f10       ?GetVersion@CTxtEdit@@UAAJPAJ@Z 10035f10 f   riched60:tomdoc.obj
 0001:00034f30       ?GetWindow@CTxtEdit@@UAAJPA_J@Z 10035f30 f   riched60:tomdoc.obj
 0001:00034f84       ?Notify@CTxtEdit@@UAAJJ@Z  10035f84 f   riched60:tomdoc.obj
 0001:00034f9c       ?Range2@CTxtEdit@@UAAJJJPAPAUITextRange2@@@Z 10035f9c f   riched60:tomdoc.obj
 0001:00034fc8       ?RangeFromPoint2@CTxtEdit@@UAAJJJJPAPAUITextRange2@@@Z 10035fc8 f   riched60:tomdoc.obj
 0001:00035080       ?ReleaseCallManager@CTxtEdit@@UAAJPAUIUnknown@@@Z 10036080 f   riched60:tomdoc.obj
 0001:000350ac       ?ReleaseImmContext@CTxtEdit@@UAAJ_J@Z 100360ac f   riched60:tomdoc.obj
 0001:000350dc       ?SetCaretType@CTxtEdit@@UAAJJ@Z 100360dc f   riched60:tomdoc.obj
 0001:000351a4       ?SetDocumentFont@CTxtEdit@@UAAJPAUITextFont2@@@Z 100361a4 f   riched60:tomdoc.obj
 0001:000351bc       ?SetDocumentPara@CTxtEdit@@UAAJPAUITextPara2@@@Z 100361bc f   riched60:tomdoc.obj
 0001:000351d4       ?SetIMEInProgress@CTxtEdit@@UAAJJ@Z 100361d4 f   riched60:tomdoc.obj
 0001:0003522c       ?SetNotificationMode@CTxtEdit@@UAAJJ@Z 1003622c f   riched60:tomdoc.obj
 0001:00035268       ?SetProperty@CTxtEdit@@UAAJJJ@Z 10036268 f   riched60:tomdoc.obj
 0001:00035274       ?SetTypographyOptions@CTxtEdit@@UAAJJJ@Z 10036274 f   riched60:tomdoc.obj
 0001:0003527c       ?SysBeep@CTxtEdit@@UAAJXZ  1003627c f   riched60:tomdoc.obj
 0001:00035290       ?Update@CTxtEdit@@UAAJJ@Z  10036290 f   riched60:tomdoc.obj
 0001:000352c8       ?UpdateWindow@CTxtEdit@@UAAJXZ 100362c8 f   riched60:tomdoc.obj
 0001:000352f4       ?CloseFile@CTxtEdit@@QAAJH@Z 100362f4 f   riched60:tomdoc.obj
 0001:000353a0       ?GetLeadingPunct@CTxtEdit@@QAAJPAPAD@Z 100363a0 f   riched60:tomdoc.obj
 0001:000353d8       ?GetFollowingPunct@CTxtEdit@@QAAJPAPAD@Z 100363d8 f   riched60:tomdoc.obj
 0001:00035410       ?GetBackgroundType@CTxtEdit@@QAAJXZ 10036410 f   riched60:tomdoc.obj
 0001:00035424       ?TxGetBackColor@CTxtEdit@@QBAKXZ 10036424 f   riched60:tomdoc.obj
 0001:00035494       ?InitBackground@CDocInfo@@QAAXXZ 10036494 f   riched60:tomdoc.obj
 0001:000354d0       ?GetMathDispAlign@CTxtEdit@@QBAKXZ 100364d0 f   riched60:tomdoc.obj
 0001:0003550c       ?New@CTxtEdit@@UAAJXZ      1003650c f   riched60:tomdoc.obj
 0001:0003554c       ?Init@CDocInfo@@QAAXXZ     1003654c f   riched60:tomdoc.obj
 0001:000355a4       ??_GCTextMarkContainer@@UAAPAXI@Z 100365a4 f i riched60:tomdoc.obj
 0001:000355a4       ??_ECTextMarkContainer@@UAAPAXI@Z 100365a4 f i riched60:tomdoc.obj
 0001:000355c8       ??1CDocInfo@@QAA@XZ        100365c8 f   riched60:tomdoc.obj
 0001:00035678       ?GetDocInfo@CTxtEdit@@QAAPAVCDocInfo@@XZ 10036678 f   riched60:tomdoc.obj
 0001:000356c0       ?GetTextMarkContainer@CTxtEdit@@QAAPAVCTextMarkContainer@@XZ 100366c0 f   riched60:tomdoc.obj
 0001:00035740       ?Open@CTxtEdit@@UAAJPAUtagVARIANT@@JJ@Z 10036740 f   riched60:tomdoc.obj
 0001:00035ab0       ?Save@CTxtEdit@@UAAJPAUtagVARIANT@@JJ@Z 10036ab0 f   riched60:tomdoc.obj
 0001:00035e24       ?SetDefaultTabStop@CTxtEdit@@UAAJM@Z 10036e24 f   riched60:tomdoc.obj
 0001:00035f1c       ?GetEffectColor@CTxtEdit@@UAAJJPAK@Z 10036f1c f   riched60:tomdoc.obj
 0001:00035fb4       ?SetEffectColor@CTxtEdit@@UAAJJK@Z 10036fb4 f   riched60:tomdoc.obj
 0001:00036064       ?SetMathProperties@CTxtEdit@@UAAJJJ@Z 10037064 f   riched60:tomdoc.obj
 0001:000360a0       ?SetDefaultLCID@CTxtEdit@@QAAJK@Z 100370a0 f   riched60:tomdoc.obj
 0001:000360c4       ?GetDefaultLCID@CTxtEdit@@QAAJPAK@Z 100370c4 f   riched60:tomdoc.obj
 0001:00036104       ?SetDefaultLCIDFE@CTxtEdit@@QAAJK@Z 10037104 f   riched60:tomdoc.obj
 0001:00036128       ?GetDefaultLCIDFE@CTxtEdit@@QAAJPAK@Z 10037128 f   riched60:tomdoc.obj
 0001:00036168       ?SetDocumentType@CTxtEdit@@QAAJJ@Z 10037168 f   riched60:tomdoc.obj
 0001:0003618c       ?GetDocumentType@CTxtEdit@@QAAJPAJ@Z 1003718c f   riched60:tomdoc.obj
 0001:000361cc       ?SetLeadingPunct@CTxtEdit@@QAAJPAD@Z 100371cc f   riched60:tomdoc.obj
 0001:00036220       ?SetFollowingPunct@CTxtEdit@@QAAJPAD@Z 10037220 f   riched60:tomdoc.obj
 0001:00036274       ?InitDocInfo@CTxtEdit@@QAAJXZ 10037274 f   riched60:tomdoc.obj
 0001:00036318       ?Free@CFixArrayBase@@QAAXJ@Z 10037318 f   riched60:format.obj
 0001:00036360       ?Free@CFixArrayBase@@QAAXXZ 10037360 f   riched60:format.obj
 0001:000363c8       ?Deref@CFixArrayBase@@QBAJJPAPBX@Z 100373c8 f   riched60:format.obj
 0001:00036430       ?Release@CFixArrayBase@@QAAJJ@Z 10037430 f   riched60:format.obj
 0001:000364ac       ?AddRef@CFixArrayBase@@QAAJJ@Z 100374ac f   riched60:format.obj
 0001:0003651c       ?Release@CTabsArray@@UAAJJ@Z 1003751c f i riched60:format.obj
 0001:00036570       ?Find@CTabsArray@@IAAJPBJJ@Z 10037570 f   riched60:format.obj
 0001:00036608       ?GetCharFormatCache@@YAPAUICharFormatCache@@XZ 10037608 f   riched60:format.obj
 0001:00036618       ?GetParaFormatCache@@YAPAUIParaFormatCache@@XZ 10037618 f   riched60:format.obj
 0001:00036628       ?GetTabsCache@@YAPAUITabsCache@@XZ 10037628 f   riched60:format.obj
 0001:00036638       ?ReleaseFormats@@YAXJJ@Z   10037638 f   riched60:format.obj
 0001:00036684       ?GetRefCount@CFixArrayBase@@QBAJJ@Z 10037684 f i riched60:format.obj
 0001:000366c8       ?Add@CFixArrayBase@@QAAJXZ 100376c8 f   riched60:format.obj
 0001:000367f4       ?Find@CFixArrayBase@@AAAJPBX@Z 100377f4 f   riched60:format.obj
 0001:00036880       ?Cache@CFixArrayBase@@QAAJPBXPAJ@Z 10037880 f   riched60:format.obj
 0001:00036988       ?Find@CCharFormatArray@@IAAJPBVCCharFormat@@@Z 10037988 f   riched60:format.obj
 0001:00036ad4       ?Cache@CCharFormatArray@@UAAJPBVCCharFormat@@PAJ@Z 10037ad4 f   riched60:format.obj
 0001:00036bd8       ?GetRefCount@CTabsArray@@UAAJJ@Z 10037bd8 f i riched60:format.obj
 0001:00036be0       ?Cache@CTabsArray@@UAAJPBJJ@Z 10037be0 f   riched60:format.obj
 0001:00036d08       ??1CTabsArray@@QAA@XZ      10037d08 f   riched60:format.obj
 0001:00036d6c       ?Deref@CTabsArray@@UBAPBJJ@Z 10037d6c f i riched60:format.obj
 0001:00036d98       ?AddRef@CTabsArray@@UAAJJ@Z 10037d98 f i riched60:format.obj
 0001:00036da0       ?Elem@CTabsArray@@UBAPAVCTabs@@J@Z 10037da0 f i riched60:format.obj
 0001:00036ddc       ?Deref@CParaFormatArray@@UBAJJPAPBVCParaFormat@@@Z 10037ddc f i riched60:format.obj
 0001:00036de4       ?AddRef@CParaFormatArray@@UAAJJ@Z 10037de4 f i riched60:format.obj
 0001:00036dec       ?Cache@CParaFormatArray@@UAAJPBVCParaFormat@@PAJ@Z 10037dec f i riched60:format.obj
 0001:00036e48       ?Release@CParaFormatArray@@UAAJJ@Z 10037e48 f i riched60:format.obj
 0001:00036ef0       ?GetRefCount@CParaFormatArray@@UAAJJ@Z 10037ef0 f i riched60:format.obj
 0001:00036ef8       ?DestroyFormatCaches@@YAJXZ 10037ef8 f   riched60:format.obj
 0001:00036f78       ?Deref@CCharFormatArray@@UBAJJPAPBVCCharFormat@@@Z 10037f78 f i riched60:format.obj
 0001:00036f80       ?AddRef@CCharFormatArray@@UAAJJ@Z 10037f80 f i riched60:format.obj
 0001:00036f88       ?Release@CCharFormatArray@@UAAJJ@Z 10037f88 f i riched60:format.obj
 0001:00036f90       ?GetRefCount@CCharFormatArray@@UAAJJ@Z 10037f90 f i riched60:format.obj
 0001:00036f98       ?CreateFormatCaches@@YAJXZ 10037f98 f   riched60:format.obj
 0001:00037138       ?FreeFontSubInfo@CRTFConverter@@SAXXZ 10038138 f   riched60:rtfwrit2.obj
 0001:00037168       ?ReadFontSubInfo@CRTFConverter@@IAAXXZ 10038168 f   riched60:rtfwrit2.obj
 0001:0003716c       ?FindTaggedFont@CRTFConverter@@IAAHPBGEPAPAG@Z 1003816c f   riched60:rtfwrit2.obj
 0001:00037204       ?IsTaggedFont@CRTFConverter@@IAAHPBGPAEPAPAG@Z 10038204 f   riched60:rtfwrit2.obj
 0001:000372b8       ?WriteData@CRTFWrite@@QAAJPBEJ@Z 100382b8 f   riched60:rtfwrit2.obj
 0001:0003736c       ?WriteBinData@CRTFWrite@@QAAJPBEJ@Z 1003836c f   riched60:rtfwrit2.obj
 0001:000373bc       ?WriteRtfObject@CRTFWrite@@AAAHAAVCRTFObject@@H@Z 100383bc f   riched60:rtfwrit2.obj
 0001:000374e0       ?WritePicture@CRTFWrite@@AAAHAAVCRTFObject@@@Z 100384e0 f   riched60:rtfwrit2.obj
 0001:000375d4       ?WriteDib@CRTFWrite@@AAAHAAVCRTFObject@@@Z 100385d4 f   riched60:rtfwrit2.obj
 0001:00037788       ?InitWrite@CRTFObject@@AAAHAAU_reobject@@PAVCOleObject@@@Z 10038788 f   riched60:rtfwrit2.obj
 0001:000378f8       ?ObjectWriteToEditStream@CRTFObject@@AAAJAAU_reobject@@PAU_OLESTREAM@@@Z 100388f8 f   riched60:rtfwrit2.obj
 0001:00037988       ?QueryRtfObj@@YAJPAVCTxtEdit@@PAUIStorage@@@Z 10038988 f   riched60:rtfwrit2.obj
 0001:00037a48       ?ObjectReadFromEditStream@CRTFObject@@AAAJAAU_reobject@@PAU_OLESTREAM@@PAVCTxtEdit@@@Z 10038a48 f   riched60:rtfwrit2.obj
 0001:00037d4c       ?ObHBuildMetafilePict@@YAPAXPAVCRTFObject@@AAPAX@Z 10038d4c f   riched60:rtfwrit2.obj
 0001:00037d54       ?ObHBuildEnhMetafilePict@@YAPAXPAVCRTFObject@@AAPAX@Z 10038d54 f   riched60:rtfwrit2.obj
 0001:00037d5c       ?ObHBuildBitmap@@YAPAXPAVCRTFObject@@AAPAX@Z 10038d5c f   riched60:rtfwrit2.obj
 0001:00037dc0       ?ObHBuildDib@@YAPAXPAVCRTFObject@@AAPAX@Z 10038dc0 f   riched60:rtfwrit2.obj
 0001:00037dc8       ?InitReadStaticObject@CRTFObject@@AAAJAAU_reobject@@AAPAXHHHPAVCTxtRange@@@Z 10038dc8 f   riched60:rtfwrit2.obj
 0001:000382d4       ?Release@CRTFObject@@AAAJAAU_reobject@@@Z 100392d4 f   riched60:rtfwrit2.obj
 0001:0003836c       ?WriteObject@CRTFWrite@@AAAHJPAVCOleObject@@@Z 1003936c f   riched60:rtfwrit2.obj
 0001:00038794       ?WriteBackgroundInfo@CRTFWrite@@AAAHPAVCDocInfo@@@Z 10039794 f   riched60:rtfwrit2.obj
 0001:00038a08       ?TransferTo@CArrayBase@@QAAXAAV1@@Z 10039a08 f   riched60:array.obj
 0001:00038a34       ??0CArrayBase@@QAA@J@Z     10039a34 f   riched60:array.obj
 0001:00038a4c       ?ArAdd@CArrayBase@@IAAPAXJPAJ@Z 10039a4c f   riched60:array.obj
 0001:00038b44       ?ArInsert@CArrayBase@@IAAPAXJJ@Z 10039b44 f   riched60:array.obj
 0001:00038c38       ?Remove@CArrayBase@@QAAXJJ@Z 10039c38 f   riched60:array.obj
 0001:00038cd4       ?Clear@CArrayBase@@QAAXW4tagArrayFlag@@@Z 10039cd4 f   riched60:array.obj
 0001:00038d44       ?Replace@CArrayBase@@QAAHJJPAV1@@Z 10039d44 f   riched60:array.obj
 0001:00038e50       ?DXtoIX@CDevDesc@@QBAJJ@Z  10039e50 f   riched60:devdsc.obj
 0001:00038e88       ?DYtoIY@CDevDesc@@QBAJJ@Z  10039e88 f   riched60:devdsc.obj
 0001:00038ec0       ?SetMetafileDC@CDevDesc@@QAAXPAUHDC__@@JJ@Z 10039ec0 f   riched60:devdsc.obj
 0001:00038ee4       ?GetScreenDC@CDevDesc@@IBAPAUHDC__@@XZ 10039ee4 f   riched60:devdsc.obj
 0001:00038f00       ?ReleaseScreenDC@CDevDesc@@IBAXPAUHDC__@@@Z 10039f00 f   riched60:devdsc.obj
 0001:00038f1c       ?LRtoDR@CDevDesc@@QBAXAAUtagRECT@@ABU2@E@Z 10039f1c f   riched60:devdsc.obj
 0001:00038fc4       ?GetResolutionX@CHDC@@QBAJXZ 10039fc4 f i riched60:devdsc.obj
 0001:00039024       ?GetResolutionY@CHDC@@QBAJXZ 1003a024 f i riched60:devdsc.obj
 0001:00039084       ?SetDC@CDevDesc@@QAAHABVCHDC@@JJ@Z 1003a084 f   riched60:devdsc.obj
 0001:00039220       ?SetMax@CLed@@QAAXQBVCDisplay@@@Z 1003a220 f   riched60:disp.obj
 0001:00039280       ?ConvertScrollToUPos@CDisplay@@IAAJJ@Z 1003a280 f   riched60:disp.obj
 0001:000392b8       ?ConvertUPosToScrollPos@CDisplay@@IAAJJ@Z 1003a2b8 f   riched60:disp.obj
 0001:000392f0       ?RequestStrongRecalc@CDisplay@@IAAXXZ 1003a2f0 f   riched60:disp.obj
 0001:00039334       ?InitFromDisplay@CDisplay@@QAAXPBV1@@Z 1003a334 f   riched60:disp.obj
 0001:000393b4       ?Init@CDisplay@@UAAHXZ     1003a3b4 f   riched60:disp.obj
 0001:000393d8       ?SetDispResolution@CDisplay@@QAAXXZ 1003a3d8 f   riched60:disp.obj
 0001:00039414       ?SetMainTargetDC@CDisplay@@UAAHABVCHDC@@JJ@Z 1003a414 f   riched60:disp.obj
 0001:0003941c       ?SetTargetDC@CDisplay@@UAAHABVCHDC@@JJ@Z 1003a41c f   riched60:disp.obj
 0001:00039424       ?SetIdealDC@CDisplay@@UAAHJJ@Z 1003a424 f   riched60:disp.obj
 0001:0003942c       ?ReleaseDrawInfo@CDisplay@@QAAXXZ 1003a42c f   riched60:disp.obj
 0001:00039450       ?GetTargetDev@CDisplay@@QBAPBVCDevDesc@@XZ 1003a450 f   riched60:disp.obj
 0001:000394a0       ?StepBackgroundRecalc@CDisplay@@UAAXXZ 1003a4a0 f   riched60:disp.obj
 0001:000394a4       ?WaitForRecalc@CDisplay@@UBAHJJ@Z 1003a4a4 f   riched60:disp.obj
 0001:000394ac       ?WaitForRecalcIli@CDisplay@@UBAHJ@Z 1003a4ac f   riched60:disp.obj
 0001:000394b4       ?WaitForRecalcView@CDisplay@@UBAHXZ 1003a4b4 f   riched60:disp.obj
 0001:000394bc       ?UpdateViewRectState@CDisplay@@AAAXABUCViewRect@@@Z 1003a4bc f   riched60:disp.obj
 0001:0003951c       ?RecalcView@CDisplay@@QAAHABUCViewRect@@PAURECTUV@@@Z 1003a51c f   riched60:disp.obj
 0001:0003959c       ?VScroll@CDisplay@@UAAJGJ@Z 1003a59c f   riched60:disp.obj
 0001:000395a4       ?FinishSmoothVScroll@CDisplay@@QAAXXZ 1003a5a4 f   riched60:disp.obj
 0001:000395d8       ?CheckInstallSmoothVScroll@CDisplay@@QAAHXZ 1003a5d8 f   riched60:disp.obj
 0001:00039628       ?CheckRemoveSmoothVScroll@CDisplay@@QAAXXZ 1003a628 f   riched60:disp.obj
 0001:00039674       ?LineScroll@CDisplay@@UAAXJJ@Z 1003a674 f   riched60:disp.obj
 0001:00039678       ?FractionalScrollView@CDisplay@@UAAXJ@Z 1003a678 f   riched60:disp.obj
 0001:0003967c       ?ScrollToLineStart@CDisplay@@UAAXJ@Z 1003a67c f   riched60:disp.obj
 0001:00039680       ?CalcVLineScrollDelta@CDisplay@@UAAJJH@Z 1003a680 f   riched60:disp.obj
 0001:00039688       ?AdjustToDisplayLastLine@CDisplay@@UAAJJJ@Z 1003a688 f   riched60:disp.obj
 0001:00039690       ?GetScrollRange@CDisplay@@UBAJH@Z 1003a690 f   riched60:disp.obj
 0001:00039698       ?FinalizeIdealLine@CDisplay@@QBAXAAUCLine@@J@Z 1003a698 f   riched60:disp.obj
 0001:00039744       ?SetDviClient@CDisplay@@IAAJJ@Z 1003a744 f   riched60:disp.obj
 0001:00039754       ?OnPreReplaceRange@CDisplay@@UAAXJJJJJPAUNOTIFY_DATA@@@Z 1003a754 f   riched60:disp.obj
 0001:00039758       ?GetWordWrap@CDisplay@@UBAHXZ 1003a758 f   riched60:disp.obj
 0001:00039764       ?SaveUpdateCaret@CDisplay@@QAAXH@Z 1003a764 f   riched60:disp.obj
 0001:00039794       ?SetNeedRedisplayOnThaw@CDisplay@@QAAXH@Z 1003a794 f   riched60:disp.obj
 0001:000397b4       ?Freeze@CDisplay@@QAAXXZ   1003a7b4 f   riched60:disp.obj
 0001:0003980c       ?IsPrinter@CDisplay@@UBAHXZ 1003a80c f   riched60:disp.obj
 0001:00039814       ?Zombie@CDisplay@@UAAXXZ   1003a814 f   riched60:disp.obj
 0001:00039818       ?GetRenderingRectOfObject@CDisplay@@UBAXABVCOleObject@@AAURECTUV@@@Z 1003a818 f   riched60:disp.obj
 0001:0003983c       ?IsUScrollEnabled@CDisplay@@QAAHXZ 1003a83c f   riched60:disp.obj
 0001:00039868       ?GetPage@CDisplay@@UAAJPAJKPAU_charrange@@@Z 1003a868 f   riched60:disp.obj
 0001:00039874       ?SetPage@CDisplay@@UAAJJ@Z 1003a874 f   riched60:disp.obj
 0001:00039880       ?Paginate@CDisplay@@UAAHJH@Z 1003a880 f   riched60:disp.obj
 0001:00039888       ?RoundToPixel@@YAJJ@Z      1003a888 f   riched60:disp.obj
 0001:00039894       ?SubPixelToPixel@@YAJJ@Z   1003a894 f   riched60:disp.obj
 0001:000398ac       ?GetDupDvpFromRect@CDisplay@@QAAXABUtagRECT@@AAJ1@Z 1003a8ac f   riched60:disp.obj
 0001:000398f8       ?GetDxpDypFromDupDvp@CDisplay@@QAAXJJAAJ0@Z 1003a8f8 f   riched60:disp.obj
 0001:00039a00       ?Init@CDrawInfo@@QAAXKJPAXPAUtagDVTARGETDEVICE@@ABVCHDC@@@Z 1003aa00 f i riched60:disp.obj
 0001:00039a70       ??0CDisplay@@QAA@PAVCTxtEdit@@@Z 1003aa70 f   riched60:disp.obj
 0001:00039ad8       ?ClearLayoutCaches@CDisplay@@MAAXXZ 1003aad8 f i riched60:disp.obj
 0001:00039adc       ?SetDisplayEngine@CDisplay@@UAAHW4DisplayEngineType@@@Z 1003aadc f i riched60:disp.obj
 0001:00039ae4       ?GetDdTarget@CDisplay@@UBAPBVCDevDesc@@XZ 1003aae4 f i riched60:disp.obj
 0001:00039aec       ?GetCurrentPageHeight@CDisplay@@UBAJ_N@Z 1003aaec f i riched60:disp.obj
 0001:00039af4       ?GetTflow@CDisplay@@UBAEXZ 1003aaf4 f i riched60:disp.obj
 0001:00039afc       ?SetTflow@CDisplay@@UAAXE@Z 1003aafc f i riched60:disp.obj
 0001:00039b00       ?GetDulForTargetWrap@CDisplay@@UBAJXZ 1003ab00 f i riched60:disp.obj
 0001:00039b08       ?GetViewRenderRect@CDisplay@@UAAXAAURECTUV@@ABU2@@Z 1003ab08 f i riched60:disp.obj
 0001:00039b2c       ?RecalcLine@CDisplay@@UAAXJ@Z 1003ab2c f i riched60:disp.obj
 0001:00039b30       ?GetVpScroll@CDisplay@@UBAJXZ 1003ab30 f i riched60:disp.obj
 0001:00039b38       ?ClearContexts@CDisplay@@UAAXXZ 1003ab38 f i riched60:disp.obj
 0001:00039b3c       ?ShutdownDisplayEngine@CDisplay@@UAAXXZ 1003ab3c f i riched60:disp.obj
 0001:00039b40       ?GetCpStartOfLastColumn@CDisplay@@UBAJXZ 1003ab40 f i riched60:disp.obj
 0001:00039b48       ?GetDisplayEngineType@CDisplay@@UBA?AW4DisplayEngineType@@XZ 1003ab48 f i riched60:disp.obj
 0001:00039b50       ?OnObjectChange@CDisplay@@UBAXABVCOleObject@@ABURECTUV@@@Z 1003ab50 f i riched60:disp.obj
 0001:00039b54       ?OnObjectDeletion@CDisplay@@UBAXABVCOleObject@@@Z 1003ab54 f i riched60:disp.obj
 0001:00039b58       ?ClientRectFromPageRect@CDisplay@@UBAXAAURECTUV@@ABU2@@Z 1003ab58 f i riched60:disp.obj
 0001:00039b7c       ?OnOverlappingTextDetection@CDisplay@@UBAXXZ 1003ab7c f i riched60:disp.obj
 0001:00039b80       ?FCurrentPageHasOverlappingText@CDisplay@@UBAHXZ 1003ab80 f i riched60:disp.obj
 0001:00039b88       ?CalcDisplayDui@CDisplay@@UBAJAAVCMeasurer@@@Z 1003ab88 f i riched60:disp.obj
 0001:00039b90       ?StartParaRunsUpdate@CDisplay@@UAAXABVCTxtStory@@JJ@Z 1003ab90 f i riched60:disp.obj
 0001:00039b94       ?SetCchLostByParaBeforeRange@CDisplay@@UAAXABVCTxtStory@@J@Z 1003ab94 f i riched60:disp.obj
 0001:00039b98       ?SetCchLostByParaAfterRange@CDisplay@@UAAXABVCTxtStory@@J@Z 1003ab98 f i riched60:disp.obj
 0001:00039b9c       ?SetFLastRunIsNew@CDisplay@@UAAXABVCTxtStory@@@Z 1003ab9c f i riched60:disp.obj
 0001:00039ba0       ??1CDisplay@@UAA@XZ        1003aba0 f   riched60:disp.obj
 0001:00039c0c       ?SetDC@CDisplay@@QAAHABVCHDC@@JJ@Z 1003ac0c f   riched60:disp.obj
 0001:00039c30       ?SetDrawInfo@CDisplay@@QAAXPAVCDrawInfo@@KJPAXPAUtagDVTARGETDEVICE@@ABVCHDC@@@Z 1003ac30 f   riched60:disp.obj
 0001:00039cf8       ?UScroll@CDisplay@@QAAXGJ@Z 1003acf8 f   riched60:disp.obj
 0001:00039ef4       ?SmoothVScroll@CDisplay@@QAAXHGHHH@Z 1003aef4 f   riched60:disp.obj
 0001:0003a030       ?SmoothVScrollUpdate@CDisplay@@QAAXXZ 1003b030 f   riched60:disp.obj
 0001:0003a1c4       ?AutoScroll@CDisplay@@QAAHUtagLSPOINTUV@@GG@Z 1003b1c4 f   riched60:disp.obj
 0001:0003a570       ?GetZoomDenominator@CDisplay@@QBAJXZ 1003b570 f   riched60:disp.obj
 0001:0003a62c       ?GetZoomNumerator@CDisplay@@QBAJXZ 1003b62c f   riched60:disp.obj
 0001:0003a66c       ?Zoom@CDisplay@@QBAJJ@Z    1003b66c f   riched60:disp.obj
 0001:0003a69c       ?HimetricUtoDU@CDisplay@@QBAJJ@Z 1003b69c f   riched60:disp.obj
 0001:0003a700       ?HimetricVtoDV@CDisplay@@QBAJJ@Z 1003b700 f   riched60:disp.obj
 0001:0003a764       ?DUtoHimetricU@CDisplay@@QBAJJ@Z 1003b764 f   riched60:disp.obj
 0001:0003a7c0       ?DVtoHimetricV@CDisplay@@QBAJJ@Z 1003b7c0 f   riched60:disp.obj
 0001:0003a81c       ?OnPostReplaceRange@CDisplay@@UAAXJJJJJPAUNOTIFY_DATA@@@Z 1003b81c f   riched60:disp.obj
 0001:0003a948       ?SetWordWrap@CDisplay@@QAAXH@Z 1003b948 f   riched60:disp.obj
 0001:0003a988       ?Thaw@CDisplay@@QAAXXZ     1003b988 f   riched60:disp.obj
 0001:0003ab10       ??_GCDisplay@@UAAPAXI@Z    1003bb10 f i riched60:disp.obj
 0001:0003ab10       ??_ECDisplay@@UAAPAXI@Z    1003bb10 f i riched60:disp.obj
 0001:0003ab34       ?RequestResize@CDisplay@@QAAJXZ 1003bb34 f   riched60:disp.obj
 0001:0003acc4       ?GetCachedSize@CDisplay@@QBAJAAJ0_N@Z 1003bcc4 f   riched60:disp.obj
 0001:0003ae34       ?ViewRectFromClientRect@CDisplay@@IBAXAAURECTUV@@ABU2@_N@Z 1003be34 f   riched60:disp.obj
 0001:0003af3c       ?PointFromPointuv@CDisplay@@QBAXAAUtagPOINT@@ABUtagLSPOINTUV@@H@Z 1003bf3c f   riched60:disp.obj
 0001:0003b0c0       ?PointuvFromPoint@CDisplay@@QBAXAAUtagLSPOINTUV@@ABUtagPOINT@@@Z 1003c0c0 f   riched60:disp.obj
 0001:0003b230       ?RectFromRectuv@CDisplay@@QBAXAAUtagRECT@@ABURECTUV@@_N2@Z 1003c230 f   riched60:disp.obj
 0001:0003b490       ?RectuvFromRect@CDisplay@@QBAXAAURECTUV@@ABUtagRECT@@_N@Z 1003c490 f   riched60:disp.obj
 0001:0003b68c       ?GetViewRect@CDisplay@@QAAXAAUCViewRect@@PBURECTUV@@1@Z 1003c68c f   riched60:disp.obj
 0001:0003b780       ?DragScroll@CDisplay@@QAAHPBUtagPOINT@@@Z 1003c780 f   riched60:disp.obj
 0001:0003b9a8       ?TransparentHitTest@CDisplay@@QAAJABVCHDC@@PBUtagRECT@@1UtagLSPOINTUV@@PAK@Z 1003c9a8 f   riched60:disp.obj
 0001:0003bc90       ?GetViewDim@CDisplay@@IBAXAAJ0_N@Z 1003cc90 f   riched60:disp.obj
 0001:0003bcf4       ?Draw@CDisplay@@QAAJABVCHDC@@PBUtagRECT@@11@Z 1003ccf4 f   riched60:disp.obj
 0001:0003c060       ?UpdateView@CDisplay@@QAAHH@Z 1003d060 f   riched60:disp.obj
 0001:0003c264       ?RoundToLine@CDisplay@@QAAJABVCHDC@@JPAJ@Z 1003d264 f   riched60:disp.obj
 0001:0003c44c       ?Move@CRchTxtPtr@@QAAJJ@Z  1003d44c f   riched60:rtext.obj
 0001:0003c48c       ?AdvanceCRLF@CRchTxtPtr@@QAAJW4CSCONTROL@@@Z 1003d48c f   riched60:rtext.obj
 0001:0003c4c0       ?BackupCRLF@CRchTxtPtr@@QAAJW4CSCONTROL@@@Z 1003d4c0 f   riched60:rtext.obj
 0001:0003c4f4       ?ValidateCp@CRchTxtPtr@@QBAXAAJ@Z 1003d4f4 f   riched60:rtext.obj
 0001:0003c524       ?GetIchRunCF@CRchTxtPtr@@QAAJXZ 1003d524 f   riched60:rtext.obj
 0001:0003c544       ?GetIchRunPF@CRchTxtPtr@@QAAJXZ 1003d544 f   riched60:rtext.obj
 0001:0003c564       ?GetCchLeftRunCF@CRchTxtPtr@@QAAJXZ 1003d564 f   riched60:rtext.obj
 0001:0003c59c       ?GetCchLeftRunPF@CRchTxtPtr@@QAAJXZ 1003d59c f   riched60:rtext.obj
 0001:0003c5d4       ?GetCF@CRchTxtPtr@@QBAPBVCCharFormat@@XZ 1003d5d4 f   riched60:rtext.obj
 0001:0003c5f4       ?GetPF@CRchTxtPtr@@QBAPBVCParaFormat@@XZ 1003d5f4 f   riched60:rtext.obj
 0001:0003c614       ?Get_iCF@CRchTxtPtr@@QAAJXZ 1003d614 f   riched60:rtext.obj
 0001:0003c640       ?Get_iPF@CRchTxtPtr@@QAAJXZ 1003d640 f   riched60:rtext.obj
 0001:0003c66c       ?InitRunPtrs@CRchTxtPtr@@IAAXXZ 1003d66c f   riched60:rtext.obj
 0001:0003c6f0       ?SetRunPtrs@CRchTxtPtr@@IAAXJJ@Z 1003d6f0 f   riched60:rtext.obj
 0001:0003c758       ?ItemizeReplaceRange@CRchTxtPtr@@QAAHJJPAVIUndoBuilder@@HK@Z 1003d758 f   riched60:rtext.obj
 0001:0003c93c       ?Check_rpCF@CRchTxtPtr@@QAAHXZ 1003d93c f   riched60:rtext.obj
 0001:0003c9f4       ?CheckFormatRuns@CRchTxtPtr@@QAAXXZ 1003d9f4 f   riched60:rtext.obj
 0001:0003ca24       ?CheckCp@CRchTxtPtr@@QAAXPAJ0@Z 1003da24 f   riched60:rtext.obj
 0001:0003cab8       ?ChangeCase@CRchTxtPtr@@QAAHJJPAVIUndoBuilder@@@Z 1003dab8 f   riched60:rtext.obj
 0001:0003ce24       ?GetCachFromCch@CRchTxtPtr@@QAAJJ@Z 1003de24 f   riched60:rtext.obj
 0001:0003cf60       ?GetCchFromCach@CRchTxtPtr@@QAAJJ@Z 1003df60 f   riched60:rtext.obj
 0001:0003d09c       ?Zombie@CRchTxtPtr@@UAAXXZ 1003e09c f   riched60:rtext.obj
 0001:0003d0c0       ??0CRchTxtPtr@@QAA@PAVCTxtEdit@@JPAVCTxtStory@@@Z 1003e0c0 f   riched60:rtext.obj
 0001:0003d100       ??0CRchTxtPtr@@QAA@ABV0@@Z 1003e100 f   riched60:rtext.obj
 0001:0003d150       ??0CRchTxtPtr@@QAA@PBVCDisplay@@@Z 1003e150 f   riched60:rtext.obj
 0001:0003d19c       ?BindToCp@CRchTxtPtr@@QAAXJ@Z 1003e19c f   riched60:rtext.obj
 0001:0003d1b8       ?FindText@CRchTxtPtr@@QAAJJKPBGJ@Z 1003e1b8 f   riched60:rtext.obj
 0001:0003d1f8       ?SetStory@CRchTxtPtr@@QAAHPAVCTxtStory@@@Z 1003e1f8 f   riched60:rtext.obj
 0001:0003d228       ?ExpandRangeFormatting@CRchTxtPtr@@QAAJJJAAJ@Z 1003e228 f   riched60:rtext.obj
 0001:0003d3a8       ?ExtendFormattingCRLF@CRchTxtPtr@@QAAXXZ 1003e3a8 f   riched60:rtext.obj
 0001:0003d518       ?FindWordBreak@CRchTxtPtr@@QAAJHJH@Z 1003e518 f   riched60:rtext.obj
 0001:0003d638       ?GetPrevUnhiddenChar@CRchTxtPtr@@QAAGXZ 1003e638 f   riched60:rtext.obj
 0001:0003d710       ?UnitCounter@CRchTxtPtr@@QAAJJAAJJH@Z 1003e710 f   riched60:rtext.obj
 0001:0003dc50       ?SetCp@CRchTxtPtr@@QAAJJ@Z 1003ec50 f   riched60:rtext.obj
 0001:0003dc94       ?FindRowStartOrEnd@CRchTxtPtr@@QAAJHE@Z 1003ec94 f   riched60:rtext.obj
 0001:0003dd5c       ?GetCchRunCF@CRchTxtPtr@@QAAJXZ 1003ed5c f   riched60:rtext.obj
 0001:0003ddbc       ?ReplaceRangeFormatting@CRchTxtPtr@@AAAJJJJPAVIUndoBuilder@@PAPAVIAntiEvent@@1JJJJJ@Z 1003edbc f   riched60:rtext.obj
 0001:0003e104       ?Check_rpPF@CRchTxtPtr@@QAAHXZ 1003f104 f   riched60:rtext.obj
 0001:0003e224       ?GetNumberOffset@CRchTxtPtr@@QBAJPBVCParaFormat@@@Z 1003f224 f   riched60:rtext.obj
 0001:0003e308       ?GetPlainTextWithNumbering@CRchTxtPtr@@QAAJAAVCTxtPtrEx@@JPAGJK@Z 1003f308 f   riched60:rtext.obj
 0001:0003e560       ?ReplaceRange@CRchTxtPtr@@QAAJJJPBGPAVIUndoBuilder@@JPAJK@Z 1003f560 f   riched60:rtext.obj
 0001:0003ee54       ?GetPlainText@CRchTxtPtr@@QAAJJPAGJK@Z 1003fe54 f   riched60:rtext.obj
 0001:0003f164       ?QueryInterface@CTextMsgFilter@@UAAJABU_GUID@@PAPAX@Z 10040164 f   riched60:cmsgflt.obj
 0001:0003f1e8       ?AddRef@CTextMsgFilter@@UAAKXZ 100401e8 f   riched60:cmsgflt.obj
 0001:0003f1fc       ?AttachMsgFilter@CTextMsgFilter@@UAAJPAUITextMsgFilter@@@Z 100401fc f   riched60:cmsgflt.obj
 0001:0003f244       ?GetTxSelection@CTextMsgFilter@@QAAHXZ 10040244 f   riched60:cmsgflt.obj
 0001:0003f284       ?CheckIMEType@CTextMsgFilter@@AAAHPAUHKL__@@K@Z 10040284 f   riched60:cmsgflt.obj
 0001:0003f338       ?InputFEChar@CTextMsgFilter@@AAAJG@Z 10040338 f   riched60:cmsgflt.obj
 0001:0003f588       ?SetupIMEOptions@CTextMsgFilter@@AAAXXZ 10040588 f   riched60:cmsgflt.obj
 0001:0003f690       ?SetIMESentenceMode@CTextMsgFilter@@AAAXHPAUHKL__@@@Z 10040690 f   riched60:cmsgflt.obj
 0001:0003f78c       ?fAlwaysNotify@CTextMsgFilter@@QAAHXZ 1004078c f   riched60:cmsgflt.obj
 0001:0003f818       ?OnGetIMECompText@CTextMsgFilter@@AAAHIJ@Z 10040818 f   riched60:cmsgflt.obj
 0001:0003f89c       ?NoIMEProcess@CTextMsgFilter@@QAAHXZ 1004089c f   riched60:cmsgflt.obj
 0001:0003f8e8       ?MouseOperation@CTextMsgFilter@@QAAHIJJIJPAIPAHPAUHWND__@@PAJPAUITfMouseSink@@@Z 100408e8 f   riched60:cmsgflt.obj
 0001:00040008       ?GetIMECompAttributes@CTextMsgFilter@@QAAPAU_compcolor@@XZ 10041008 f   riched60:cmsgflt.obj
 0001:00040078       ??1CTextMsgFilter@@QAA@XZ  10041078 f   riched60:cmsgflt.obj
 0001:00040138       ?AttachDocument@CTextMsgFilter@@UAAJPAUHWND__@@PAUITextDocument2@@PAUITextInputSupport@@@Z 10041138 f   riched60:cmsgflt.obj
 0001:000401cc       ?OnWMChar@CTextMsgFilter@@AAAJPAI0PAJ1@Z 100411cc f   riched60:cmsgflt.obj
 0001:00040268       ?OnWMIMEChar@CTextMsgFilter@@AAAJPAI0PAJ1@Z 10041268 f   riched60:cmsgflt.obj
 0001:00040358       ?CheckIMEChange@CTextMsgFilter@@AAAHPAUtagRECONVERTSTRING@@JJJJH@Z 10041358 f   riched60:cmsgflt.obj
 0001:000405a8       ?OnSetFocus@CTextMsgFilter@@AAAXXZ 100415a8 f   riched60:cmsgflt.obj
 0001:0004065c       ?OnKillFocus@CTextMsgFilter@@AAAXXZ 1004165c f   riched60:cmsgflt.obj
 0001:00040708       ?OnSetIMEOptions@CTextMsgFilter@@AAAJIJ@Z 10041708 f   riched60:cmsgflt.obj
 0001:000407c4       ?OnSetIMEMode@CTextMsgFilter@@AAAXIJ@Z 100417c4 f   riched60:cmsgflt.obj
 0001:00040874       ?Release@CTextMsgFilter@@UAAKXZ 10041874 f   riched60:cmsgflt.obj
 0001:000408b0       ?OnIMEReconvert@CTextMsgFilter@@AAAJPBI0PAJ1H@Z 100418b0 f   riched60:cmsgflt.obj
 0001:00040fbc       ?CreateIMEMessageFilter@@YAXPAPAUITextMsgFilter@@@Z 10041fbc f   riched60:cmsgflt.obj
 0001:00040fec       ?HandleMessage@CTextMsgFilter@@UAAJPAI0PAJ1@Z 10041fec f   riched60:cmsgflt.obj
 0001:00042080       ?IsDomainSeparator@@YAHG@Z 10043080 f   riched60:urlsup.obj
 0001:000420b4       ?IsURLWhiteSpace@@YAHGH@Z  100430b4 f i riched60:urlsup.obj
 0001:00042260       ?GetHWChar@@YAGG@Z         10043260 f   riched60:urlsup.obj
 0001:000422b0       ?IsURLSupportedInit@@YAXXZ 100432b0 f   riched60:urlsup.obj
 0001:00042398       ??1CDetectURL@@QAA@XZ      10043398 f   riched60:urlsup.obj
 0001:000423c4       ?OnPreReplaceRange@CDetectURL@@UAAXJJJJJPAUNOTIFY_DATA@@@Z 100433c4 f   riched60:urlsup.obj
 0001:000423c8       ?OnPostReplaceRange@CDetectURL@@UAAXJJJJJPAUNOTIFY_DATA@@@Z 100433c8 f   riched60:urlsup.obj
 0001:00042424       ?Zombie@CDetectURL@@UAAXXZ 10043424 f   riched60:urlsup.obj
 0001:00042428       ?FindUrlSup@@YAHPBGAAJ@Z   10043428 f   riched60:urlsup.obj
 0001:000424a4       ?IsURL@CDetectURL@@QAAHAAVCTxtPtr@@JJKPAJPAH@Z 100434a4 f   riched60:urlsup.obj
 0001:000428f0       ?SetURLEffects@CDetectURL@@CAXAAVCTxtRange@@PAVIUndoBuilder@@@Z 100438f0 f   riched60:urlsup.obj
 0001:000429c4       ?CheckAndCleanBogusURL@CDetectURL@@AAAXAAVCTxtRange@@AAHPAVIUndoBuilder@@@Z 100439c4 f   riched60:urlsup.obj
 0001:00042ac4       ?FKeepMoving@@YAHJGGJKHHKJPBGG@Z 10043ac4 f i riched60:urlsup.obj
 0001:00042c30       ?MoveByDelimiters@CDetectURL@@AAAJABVCTxtPtr@@JKPAGAAJ22AAKHJ@Z 10043c30 f   riched60:urlsup.obj
 0001:000433fc       ?BraceMatch@CDetectURL@@CAGG@Z 100443fc f   riched60:urlsup.obj
 0001:0004348c       ?GetAngleBracket@CDetectURL@@CAJAAVCTxtPtr@@J@Z 1004448c f   riched60:urlsup.obj
 0001:00043548       ??0CDetectURL@@QAA@PAVCTxtEdit@@K@Z 10044548 f   riched60:urlsup.obj
 0001:0004360c       ?GetScanRegion@CDetectURL@@AAAHAAJ0@Z 1004460c f   riched60:urlsup.obj
 0001:000439bc       ?ExpandToURL@CDetectURL@@AAAXAAVCTxtRange@@AAJJH1AAK@Z 100449bc f   riched60:urlsup.obj
 0001:00043fb0       ?ScanAndUpdate@CDetectURL@@QAAXPAVIUndoBuilder@@@Z 10044fb0 f   riched60:urlsup.obj
 0001:00044324       ?SetChangeEvent@CCallMgr@@QAAXW4CHANGETYPE@@@Z 10045324 f   riched60:callmgr.obj
 0001:0004439c       ?ClearChangeEvent@CCallMgr@@QAAXXZ 1004539c f   riched60:callmgr.obj
 0001:000443c0       ?SetNewUndo@CCallMgr@@QAAXXZ 100453c0 f   riched60:callmgr.obj
 0001:000443e4       ?SetNewRedo@CCallMgr@@QAAXXZ 100453e4 f   riched60:callmgr.obj
 0001:00044408       ?SetMaxText@CCallMgr@@QAAXXZ 10045408 f   riched60:callmgr.obj
 0001:0004442c       ?SetSelectionChanged@CCallMgr@@QAAXXZ 1004542c f   riched60:callmgr.obj
 0001:00044464       ?SetOutOfMemory@CCallMgr@@QAAXXZ 10045464 f   riched60:callmgr.obj
 0001:00044494       ?SetInProtected@CCallMgr@@QAAXH@Z 10045494 f   riched60:callmgr.obj
 0001:000444c4       ?GetInProtected@CCallMgr@@QAAHXZ 100454c4 f   riched60:callmgr.obj
 0001:000444e8       ?SetTrackerNotify@CCallMgr@@QAAXXZ 100454e8 f   riched60:callmgr.obj
 0001:0004450c       ?SetBlobNotify@CCallMgr@@QAAXXZ 1004550c f   riched60:callmgr.obj
 0001:00044530       ?RegisterComponent@CCallMgr@@QAAXPAVIReEntrantComponent@@W4CompName@@@Z 10045530 f   riched60:callmgr.obj
 0001:00044544       ?RevokeComponent@CCallMgr@@QAAXPAVIReEntrantComponent@@@Z 10045544 f   riched60:callmgr.obj
 0001:00044570       ?GetComponent@CCallMgr@@QAAPAVIReEntrantComponent@@W4CompName@@@Z 10045570 f   riched60:callmgr.obj
 0001:000445a8       ?SendAllNotifications@CCallMgr@@AAAXXZ 100455a8 f   riched60:callmgr.obj
 0001:00044878       ?NotifyEnterContext@CCallMgr@@AAAXXZ 10045878 f   riched60:callmgr.obj
 0001:000448e0       ??0CCallMgr@@QAA@PAVCTxtEdit@@@Z 100458e0 f   riched60:callmgr.obj
 0001:0004491c       ??1CCallMgr@@QAA@XZ        1004591c f   riched60:callmgr.obj
 0001:00044a7c       ?IsWhiteSpace@@YAHI@Z      10045a7c f   riched60:text.obj
 0001:00044aac       ?GetTextLength@CTxtPtr@@QBAJXZ 10045aac f   riched60:text.obj
 0001:00044ac4       ?GetAdjustedTextLength@CTxtPtr@@QBAJXZ 10045ac4 f   riched60:text.obj
 0001:00044aec       ?BindToCp@CTxtPtr@@QAAJJ@Z 10045aec f   riched60:text.obj
 0001:00044b18       ?Move@CTxtPtr@@QAAJJ@Z     10045b18 f   riched60:text.obj
 0001:00044bb4       ?OverRideNeutralChar@@YAGG@Z 10045bb4 f   riched60:text.obj
 0001:00044c4c       ?Zombie@CTxtPtr@@QAAXXZ    10045c4c f   riched60:text.obj
 0001:00044c60       ?CharComp@CTxtFinder@CTxtPtr@@ABAHGG@Z 10045c60 f i riched60:text.obj
 0001:00044cd8       ?FindChar@CTxtFinder@CTxtPtr@@AAAJGAAVCTxtIStream@@@Z 10045cd8 f   riched60:text.obj
 0001:00044d74       ?MatchString@CTxtFinder@CTxtPtr@@AAAJPBGJAAVCTxtIStream@@@Z 10045d74 f   riched60:text.obj
 0001:00044dec       ?MatchStringBiDi@CTxtFinder@CTxtPtr@@AAAJPBGJAAVCTxtIStream@@@Z 10045dec f   riched60:text.obj
 0001:00044ec4       ??0CTxtPtr@@QAA@PAVCTxtEdit@@JPAVCTxtStory@@@Z 10045ec4 f   riched60:text.obj
 0001:00044f28       ??0CTxtPtr@@QAA@ABV0@@Z    10045f28 f   riched60:text.obj
 0001:00044f54       ?SetCp@CTxtPtr@@QAAJJ@Z    10045f54 f   riched60:text.obj
 0001:00044f70       ??0CTxtIStream@@QAA@ABV0@@Z 10045f70 f i riched60:text.obj
 0001:00044fb4       ?SetStory@CTxtPtr@@QAAHPAVCTxtStory@@@Z 10045fb4 f   riched60:text.obj
 0001:00044fe4       ?GetPch@CTxtPtr@@QBAPBGAAJ@Z 10045fe4 f   riched60:text.obj
 0001:000450dc       ?GetPchReverse@CTxtPtr@@QBAPBGAAJPAJ@Z 100460dc f   riched60:text.obj
 0001:000451e4       ?GetText@CTxtPtr@@QBAJJPAG@Z 100461e4 f   riched60:text.obj
 0001:00045278       ?GetTextForUsp@CTxtPtr@@QBAJJPAGHH@Z 10046278 f   riched60:text.obj
 0001:000453bc       ?MoveWhile@CTxtPtr@@QAAJJGGH@Z 100463bc f   riched60:text.obj
 0001:00045468       ?FindOrSkipWhiteSpaces@CTxtPtr@@QAAJJKPAK@Z 10046468 f   riched60:text.obj
 0001:000455d0       ?FillPchRev@CTxtIStream@@AAAXXZ 100465d0 f   riched60:text.obj
 0001:00045600       ?GetChar@CTxtPtr@@QBAGXZ   10046600 f   riched60:text.obj
 0001:00045628       ?GetChar@CTxtPtr@@QBAGJ@Z  10046628 f   riched60:text.obj
 0001:00045708       ?GetUTF32Char@CTxtPtr@@QBAKXZ 10046708 f   riched60:text.obj
 0001:0004576c       ?GetPrevChar@CTxtPtr@@QBAGXZ 1004676c f   riched60:text.obj
 0001:00045798       ?GetNonBlankChar@CTxtPtr@@QAAGJ@Z 10046798 f   riched60:text.obj
 0001:000457f4       ?NextNonBlankChar@CTxtPtr@@QAAGJ@Z 100467f4 f   riched60:text.obj
 0001:00045850       ?GetUNC@CTxtPtr@@QAAGPAGK@Z 10046850 f   riched60:text.obj
 0001:000458ac       ?NextChar@CTxtPtr@@QAAGXZ  100468ac f   riched60:text.obj
 0001:000458e4       ?PrevChar@CTxtPtr@@QAAGXZ  100468e4 f   riched60:text.obj
 0001:00045938       ?IsAtTRD@CTxtPtr@@QBAHG@Z  10046938 f   riched60:text.obj
 0001:00045a0c       ?IsAfterTRD@CTxtPtr@@QBAHG@Z 10046a0c f   riched60:text.obj
 0001:00045ad8       ?IsAtStartOfCell@CTxtPtr@@QBAHXZ 10046ad8 f   riched60:text.obj
 0001:00045b84       ?IsInsideSurrogatePair@CTxtPtr@@QBAHXZ 10046b84 f   riched60:text.obj
 0001:00045bf8       ?IsInvisible@CTxtPtr@@QBAHJH@Z 10046bf8 f   riched60:text.obj
 0001:00045c8c       ?FindWhiteSpaceBound@CTxtPtr@@QAAJJAAJ0K@Z 10046c8c f   riched60:text.obj
 0001:00045e8c       ?FindBOSentence@CTxtPtr@@QAAJJ@Z 10046e8c f   riched60:text.obj
 0001:0004606c       ?IsAtBOSentence@CTxtPtr@@QBAHXZ 1004706c f   riched60:text.obj
 0001:00046150       ?FindExact@CTxtPtr@@QAAJJPBG@Z 10047150 f   riched60:text.obj
 0001:000462f8       ?NextCharCount@CTxtPtr@@QAAKAAJ@Z 100472f8 f   riched60:text.obj
 0001:0004638c       ?GetNextChar@CTxtIStream@@AAAGXZ 1004738c f   riched60:text.obj
 0001:000463e4       ?GetPrevChar@CTxtIStream@@AAAGXZ 100473e4 f   riched60:text.obj
 0001:00046428       ?BackupCRLF@CTxtPtr@@QAAJW4CSCONTROL@@@Z 10047428 f   riched60:text.obj
 0001:00046570       ?AdjustCRLF@CTxtPtr@@QAAJJ@Z 10047570 f   riched60:text.obj
 0001:000466e8       ?SnapToCluster@CTxtPtr@@QAAJH@Z 100476e8 f   riched60:text.obj
 0001:000467fc       ?IsAtEOP@CTxtPtr@@QBAHXZ   100477fc f   riched60:text.obj
 0001:00046888       ?IsAfterEOP@CTxtPtr@@QBAHXZ 10047888 f   riched60:text.obj
 0001:0004691c       ?IsAtHardEOP@CTxtPtr@@QBAHXZ 1004791c f   riched60:text.obj
 0001:00046980       ?IsAfterHardEOP@CTxtPtr@@QBAHXZ 10047980 f   riched60:text.obj
 0001:000469e8       ??0CTxtIStream@@QAA@ABVCTxtPtr@@H@Z 100479e8 f   riched60:text.obj
 0001:00046a3c       ?FindText@CTxtFinder@CTxtPtr@@QAAHABV2@JKPBGJAAJ2@Z 10047a3c f   riched60:text.obj
 0001:00046e54       ?AdvanceCRLF@CTxtPtr@@QAAJW4CSCONTROL@@@Z 10047e54 f   riched60:text.obj
 0001:00046fb0       ?FindWordBreak@CTxtPtr@@QAAJHJ@Z 10047fb0 f   riched60:text.obj
 0001:000473ac       ?FindText@CTxtPtr@@QAAJJKPBGJ@Z 100483ac f   riched60:text.obj
 0001:00047424       ?FindEOP@CTxtPtr@@AAAJJPAJH@Z 10048424 f   riched60:text.obj
 0001:000475ec       ?IsAtBOWord@CTxtPtr@@QBAHXZ 100485ec f   riched60:text.obj
 0001:0004766c       ?GetPlainText@CTxtPtr@@QAAJJPAGJK@Z 1004866c f   riched60:text.obj
 0001:00047868       ??0CTxtSelection@@QAA@QAVCDisplay@@@Z 10048868 f   riched60:select.obj
 0001:000478f0       ?BuildUpMath@CTxtSelection@@UAAJJ@Z 100488f0 f i riched60:select.obj
 0001:000478fc       ?Linearize@CTxtSelection@@UAAJJ@Z 100488fc f i riched60:select.obj
 0001:00047908       ??4CTxtSelection@@UAAAAVCRchTxtPtr@@ABV1@@Z 10048908 f   riched60:select.obj
 0001:0004790c       ??4CTxtSelection@@UAAAAVCTxtRange@@ABV1@@Z 1004890c f   riched60:select.obj
 0001:00047910       ?GetCaretPoint@CTxtSelection@@QAAHAAURECTUV@@AAUtagLSPOINTUV@@PAVCLinePtr@@HAAJ3@Z 10048910 f   riched60:select.obj
 0001:00047c70       ?GetILSObjShadeRange@CTxtSelection@@QAAXJAAJ00@Z 10048c70 f   riched60:select.obj
 0001:00047ee4       ?IsCaretInView@CTxtSelection@@QBAHXZ 10048ee4 f   riched60:select.obj
 0001:00047f78       ?IsCaretHorizontal@CTxtSelection@@QBAHXZ 10048f78 f   riched60:select.obj
 0001:00047fb0       ?CaretNotAtBOL@CTxtSelection@@QBAHXZ 10048fb0 f   riched60:select.obj
 0001:00047fd8       ?CheckTableIP@CTxtSelection@@QAAXH@Z 10048fd8 f   riched60:select.obj
 0001:00048080       ?LineLength@CTxtSelection@@QBAJPAJ@Z 10049080 f   riched60:select.obj
 0001:00048150       ?PushSelection@CTxtSelection@@QAAHXZ 10049150 f   riched60:select.obj
 0001:000481a0       ?SaveSelection@CTxtSelection@@QAAXJ@Z 100491a0 f   riched60:select.obj
 0001:000481ec       ?ExtendSelectionOverObject@CTxtSelection@@IAAXUtagLSPOINTUV@@AAVCRchTxtPtr@@H@Z 100491ec f   riched60:select.obj
 0001:000483e4       ?CancelModes@CTxtSelection@@QAAXH@Z 100493e4 f   riched60:select.obj
 0001:00048410       ?GetUpCaretReally@CTxtSelection@@QAAJXZ 10049410 f   riched60:select.obj
 0001:00048460       ?CheckUpdateWindow@CTxtSelection@@QAAXXZ 10049460 f   riched60:select.obj
 0001:000484b0       ?DeleteWithTRDCheck@CTxtSelection@@UAAJPAVIUndoBuilder@@W4SELRR@@PAJK@Z 100494b0 f   riched60:select.obj
 0001:00048510       ?Delete@CTxtSelection@@QAAHKPAVIUndoBuilder@@@Z 10049510 f   riched60:select.obj
 0001:0004882c       ?GetPF@CTxtSelection@@QAAPBVCParaFormat@@XZ 1004982c f   riched60:select.obj
 0001:00048874       ?UpdateForAutoWord@CTxtSelection@@IAAXXZ 10049874 f   riched60:select.obj
 0001:000488f0       ?AutoSelGoBackWord@CTxtSelection@@IAAXPAJHH@Z 100498f0 f   riched60:select.obj
 0001:000489a0       ?InitClickForAutWordSel@CTxtSelection@@QAAXUtagLSPOINTUV@@@Z 100499a0 f   riched60:select.obj
 0001:00048a9c       ?DeleteCaretBitmap@CTxtSelection@@QAAHH@Z 10049a9c f   riched60:select.obj
 0001:00048ae0       ?CheckPlainTextFinalEOP@CTxtSelection@@IAAHXZ 10049ae0 f   riched60:select.obj
 0001:00048b44       ?StopGroupTyping@CTxtSelection@@QAAXXZ 10049b44 f   riched60:select.obj
 0001:00048b8c       ??1CTxtSelection@@UAA@XZ   10049b8c f   riched60:select.obj
 0001:00048be0       ?GetCaretHeight@CTxtSelection@@IBAHPAJ@Z 10049be0 f   riched60:select.obj
 0001:00048df4       ?PointInSel@CTxtSelection@@QBAHUtagLSPOINTUV@@PAURECTUV@@W4HITTEST@@J@Z 10049df4 f   riched60:select.obj
 0001:00048f3c       ?GetSelRangeForRender@CTxtSelection@@QAAHPAJ0J@Z 10049f3c f   riched60:select.obj
 0001:0004902c       ?GetTotalSelection@CTxtSelection@@QAAXAAJ00@Z 1004a02c f   riched60:select.obj
 0001:00049114       ?SetCaret@CTxtSelection@@QAAXUtagLSPOINTUV@@HH@Z 1004a114 f   riched60:select.obj
 0001:00049380       ?SelectWord@CTxtSelection@@QAAXUtagLSPOINTUV@@H@Z 1004a380 f   riched60:select.obj
 0001:0004958c       ?SelectUnit@CTxtSelection@@QAAXUtagLSPOINTUV@@JH@Z 1004a58c f   riched60:select.obj
 0001:00049764       ?SelectAll@CTxtSelection@@QAAXXZ 1004a764 f   riched60:select.obj
 0001:000497a0       ?ExtendSelection@CTxtSelection@@QAAXUtagLSPOINTUV@@HH@Z 1004a7a0 f   riched60:select.obj
 0001:00049e30       ?SetUpPosition@CTxtSelection@@QAAHJAAVCLinePtr@@HH@Z 1004ae30 f   riched60:select.obj
 0001:0004a138       ?ScrollWindowful@CTxtSelection@@QAAHIH@Z 1004b138 f   riched60:select.obj
 0001:0004a2cc       ?InsertTableRow@CTxtSelection@@QAAJPBVCParaFormat@@PAVIUndoBuilder@@H@Z 1004b2cc f   riched60:select.obj
 0001:0004a614       ?SetSelectionInfo@CTxtSelection@@QAAXPAU_selchange@@@Z 1004b614 f   riched60:select.obj
 0001:0004a6d4       ?CreateCaret@CTxtSelection@@QAAXPAURECTUV@@@Z 1004b6d4 f   riched60:select.obj
 0001:0004ad44       ?SetDelayedSelectionRange@CTxtSelection@@QAAXJJ@Z 1004bd44 f   riched60:select.obj
 0001:0004ad70       ??0CSelPhaseAdjuster@@QAA@PAVCTxtEdit@@@Z 1004bd70 f   riched60:select.obj
 0001:0004adac       ?OnEnterContext@CSelPhaseAdjuster@@UAAXXZ 1004bdac f i riched60:select.obj
 0001:0004adb0       ??_ECTxtSelection@@UAAPAXI@Z 1004bdb0 f i riched60:select.obj
 0001:0004adb0       ??_GCTxtSelection@@UAAPAXI@Z 1004bdb0 f i riched60:select.obj
 0001:0004add4       ?MatchKeyboardToPara@CTxtSelection@@QAAHXZ 1004bdd4 f   riched60:select.obj
 0001:0004b044       ?UpdateCaret@CTxtSelection@@QAAHHH@Z 1004c044 f   riched60:select.obj
 0001:0004bbc8       ?ShowCaret@CTxtSelection@@QAAHH@Z 1004cbc8 f   riched60:select.obj
 0001:0004bc5c       ?ShowSelection@CTxtSelection@@QAAHH@Z 1004cc5c f   riched60:select.obj
 0001:0004bd64       ?UpdateSelection@CTxtSelection@@IAAXXZ 1004cd64 f   riched60:select.obj
 0001:0004c318       ?SetSelection@CTxtSelection@@QAAXJJ@Z 1004d318 f   riched60:select.obj
 0001:0004c43c       ?CheckSavedSelection@CTxtSelection@@QAAXXZ 1004d43c f   riched60:select.obj
 0001:0004c470       ?Home@CTxtSelection@@QAAHHH@Z 1004d470 f   riched60:select.obj
 0001:0004c5b8       ?End@CTxtSelection@@QAAHHH@Z 1004d5b8 f   riched60:select.obj
 0001:0004c760       ?PageUp@CTxtSelection@@QAAHHH@Z 1004d760 f   riched60:select.obj
 0001:0004c8a8       ?PageDown@CTxtSelection@@QAAHHH@Z 1004d8a8 f   riched60:select.obj
 0001:0004cb58       ?SetCharFormat@CTxtSelection@@QAAJPBVCCharFormat@@KPAVIUndoBuilder@@KKK@Z 1004db58 f   riched60:select.obj
 0001:0004d134       ?SetParaFormat@CTxtSelection@@QAAJPBVCParaFormat@@PAVIUndoBuilder@@KK@Z 1004e134 f   riched60:select.obj
 0001:0004d344       ??1CSelPhaseAdjuster@@QAA@XZ 1004e344 f   riched60:select.obj
 0001:0004d3b0       ?Update@CTxtSelection@@UAAHH@Z 1004e3b0 f   riched60:select.obj
 0001:0004dcd8       ?Up@CTxtSelection@@QAAHHH@Z 1004ecd8 f   riched60:select.obj
 0001:0004e478       ?Down@CTxtSelection@@QAAHHH@Z 1004f478 f   riched60:select.obj
 0001:0004eb18       ?CheckChangeFont@CTxtSelection@@QAA_NQAUHKL__@@IJ_K@Z 1004fb18 f   riched60:select.obj
 0001:0004eb58       ?InsertEOP@CTxtSelection@@QAAHPAVIUndoBuilder@@GK@Z 1004fb58 f   riched60:select.obj
 0001:0004f500       ?Backspace@CTxtSelection@@QAAHHPAVIUndoBuilder@@@Z 10050500 f   riched60:select.obj
 0001:0004f89c       ?CheckSynchCharSet@CTxtSelection@@QAAI_K@Z 1005089c f   riched60:select.obj
 0001:0004f9dc       ?Left@CTxtSelection@@QAAHHH@Z 100509dc f   riched60:select.obj
 0001:0004fe38       ?Right@CTxtSelection@@QAAHHH@Z 10050e38 f   riched60:select.obj
 0001:000501e0       ?PutChar@CTxtSelection@@QAAHKKPAVIUndoBuilder@@KJ@Z 100511e0 f   riched60:select.obj
 0001:00051210       ?ReplaceRange@CTxtSelection@@UAAJJPBGPAVIUndoBuilder@@W4SELRR@@PAJK@Z 10052210 f   riched60:select.obj
 0001:0005170c       ?LeftKey@CTxtSelection@@QAAHHH@Z 1005270c f   riched60:select.obj
 0001:0005178c       ?RightKey@CTxtSelection@@QAAHHH@Z 1005278c f   riched60:select.obj
 0001:0005180c       ?UpKey@CTxtSelection@@QAAHHH@Z 1005280c f   riched60:select.obj
 0001:0005185c       ?DownKey@CTxtSelection@@QAAHHH@Z 1005285c f   riched60:select.obj
 0001:000518ac       ?UpdateAccelerator@CTxtEdit@@QAAJXZ 100528ac f   riched60:propchg.obj
 0001:000518e0       ?HandleRichToPlainConversion@CTxtEdit@@AAAXPAVCTxtStory@@@Z 100528e0 f   riched60:propchg.obj
 0001:000519a8       ?OnRichEditChange@CTxtEdit@@QAAJH@Z 100529a8 f   riched60:propchg.obj
 0001:00051ac0       ?OnTxMultiLineChange@CTxtEdit@@QAAJH@Z 10052ac0 f   riched60:propchg.obj
 0001:00051ce4       ?OnTxReadOnlyChange@CTxtEdit@@QAAJH@Z 10052ce4 f   riched60:propchg.obj
 0001:00051d78       ?OnUsePassword@CTxtEdit@@QAAJH@Z 10052d78 f   riched60:propchg.obj
 0001:00051dac       ?OnHideSelectionChange@CTxtEdit@@QAAJH@Z 10052dac f   riched60:propchg.obj
 0001:00051e58       ?OnSaveSelection@CTxtEdit@@QAAJH@Z 10052e58 f   riched60:propchg.obj
 0001:00051e60       ?OnAutoWordSel@CTxtEdit@@QAAJH@Z 10052e60 f   riched60:propchg.obj
 0001:00051e68       ?OnTxVerticalChange@CTxtEdit@@QAAJH@Z 10052e68 f   riched60:propchg.obj
 0001:00051e9c       ?OnClientRectChange@CTxtEdit@@QAAJH@Z 10052e9c f   riched60:propchg.obj
 0001:00051edc       ?OnCharFormatChange@CTxtEdit@@QAAJH@Z 10052edc f   riched60:propchg.obj
 0001:00051f64       ?OnParaFormatChange@CTxtEdit@@QAAJH@Z 10052f64 f   riched60:propchg.obj
 0001:00052000       ?NeedViewUpdate@CTxtEdit@@QAAJH@Z 10053000 f   riched60:propchg.obj
 0001:00052018       ?OnTxBackStyleChange@CTxtEdit@@QAAJH@Z 10053018 f   riched60:propchg.obj
 0001:0005205c       ?OnAllowBeep@CTxtEdit@@QAAJH@Z 1005305c f   riched60:propchg.obj
 0001:00052084       ?OnMaxLengthChange@CTxtEdit@@QAAJH@Z 10053084 f   riched60:propchg.obj
 0001:000520c0       ?OnWordWrapChange@CTxtEdit@@QAAJH@Z 100530c0 f   riched60:propchg.obj
 0001:000520e4       ?OnDisableDrag@CTxtEdit@@QAAJH@Z 100530e4 f   riched60:propchg.obj
 0001:0005210c       ?OnScrollChange@CTxtEdit@@QAAJH@Z 1005310c f   riched60:propchg.obj
 0001:00052134       ?OnShowAccelerator@CTxtEdit@@QAAJH@Z 10053134 f   riched60:propchg.obj
 0001:00052158       ?OnTxHideSelectionChange@CTxtEdit@@QAAJH@Z 10053158 f   riched60:propchg.obj
 0001:00052184       ??0CRunPtrBase@@QAA@PAV?$CArray@VCTxtRun@@@@@Z 10053184 f   riched60:runptr.obj
 0001:00052194       ??0CRunPtrBase@@QAA@ABV0@@Z 10053194 f   riched60:runptr.obj
 0001:000521b4       ?NextRun@CRunPtrBase@@QAAHXZ 100531b4 f   riched60:runptr.obj
 0001:000521f0       ?PrevRun@CRunPtrBase@@QAAHXZ 100531f0 f   riched60:runptr.obj
 0001:00052224       ?SetToNull@CRunPtrBase@@QAAXXZ 10053224 f   riched60:runptr.obj
 0001:00052238       ?SetRun@CRunPtrBase@@QAAHJJ@Z 10053238 f   riched60:runptr.obj
 0001:000522bc       ?GetRun@CRunPtrBase@@QBAPAVCTxtRun@@J@Z 100532bc f   riched60:runptr.obj
 0001:000522f4       ?CalculateCp@CRunPtrBase@@QBAJXZ 100532f4 f   riched60:runptr.obj
 0001:00052330       ?Move@CRunPtrBase@@QAAJJ@Z 10053330 f   riched60:runptr.obj
 0001:00052464       ?CountRuns@CRunPtrBase@@QBAJAAJJJJ@Z 10053464 f   riched60:runptr.obj
 0001:000525b0       ?AdjustBackward@CRunPtrBase@@QAAXXZ 100535b0 f   riched60:runptr.obj
 0001:00052608       ?AdjustForward@CRunPtrBase@@QAAXXZ 10053608 f   riched60:runptr.obj
 0001:0005265c       ?GetCchLeft@CRunPtrBase@@QBAJXZ 1005365c f   riched60:runptr.obj
 0001:000526a0       ?BindToCp@CRunPtrBase@@QAAJJJ@Z 100536a0 f   riched60:runptr.obj
 0001:0005272c       ?FindRun@CRunPtrBase@@QBAXPAJ0JJJ@Z 1005372c f   riched60:runptr.obj
 0001:00052818       ?InitBlock@CTxtBlk@@IAAHJ@Z 10053818 f   riched60:doc.obj
 0001:00052860       ?MoveGap@CTxtBlk@@IAAXJ@Z  10053860 f   riched60:doc.obj
 0001:000528bc       ?ResizeBlock@CTxtBlk@@IAAHJ@Z 100538bc f   riched60:doc.obj
 0001:000529a8       ?SaveSelection@CTxtStory@@QAAXPAVCTxtSelection@@@Z 100539a8 f   riched60:doc.obj
 0001:000529cc       ?RestoreSelection@CTxtStory@@QAAXPAVCTxtSelection@@@Z 100539cc f   riched60:doc.obj
 0001:00052a08       ?SetType@CTxtStory@@QAAHK@Z 10053a08 f   riched60:doc.obj
 0001:00052a28       ?OnPostReplaceRange@CTxtStory@@QAAXJJJH@Z 10053a28 f   riched60:doc.obj
 0001:00052b48       ?DestroyNmpTable@CNmpRuns@@QAAXXZ 10053b48 f   riched60:doc.obj
 0001:00052b4c       ?OnNmpUpdate@CNmpRuns@@QAAXJJJPAVCOleObject@@@Z 10053b4c f   riched60:doc.obj
 0001:00052b50       ?OnNmpDeletion@CNmpRuns@@QAAXJ@Z 10053b50 f   riched60:doc.obj
 0001:00052b54       ??1CTxtArray@@QAA@XZ       10053b54 f   riched60:doc.obj
 0001:00052bcc       ?AddBlock@CTxtArray@@AAAHJJ@Z 10053bcc f   riched60:doc.obj
 0001:00052c08       ?SplitBlock@CTxtArray@@AAAHJJJJH@Z 10053c08 f   riched60:doc.obj
 0001:00052dac       ?RemoveBlocks@CTxtArray@@AAAXJJ@Z 10053dac f   riched60:doc.obj
 0001:00052e34       ?CombineBlocks@CTxtArray@@AAAXJ@Z 10053e34 f   riched60:doc.obj
 0001:00052f64       ??0CTxtStory@@QAA@PAVCTxtEdit@@@Z 10053f64 f   riched60:doc.obj
 0001:00052f9c       ?DeleteObjects@CTxtStory@@QAAXXZ 10053f9c f   riched60:doc.obj
 0001:0005307c       ?GetNewNmp@CTxtStory@@QAAJPAVCTxtEdit@@@Z 1005407c f   riched60:doc.obj
 0001:000530b4       ?GetStoryID@CTxtStories@@QAAJPAVCTxtStory@@@Z 100540b4 f   riched60:doc.obj
 0001:0005310c       ?Remove@CRangeRuns@@QAAXJ@Z 1005410c f   riched60:doc.obj
 0001:000531c4       ?Insert@CRangeRuns@@QAAPAVCRangeRun@@J@Z 100541c4 f   riched60:doc.obj
 0001:00053268       ?CopyRanges@CRangeRuns@@QAAHPAV1@@Z 10054268 f   riched60:doc.obj
 0001:000532f0       ?GetRanges@CRangeRuns@@QAAJJPAU_charrange@@@Z 100542f0 f   riched60:doc.obj
 0001:00053404       ?GetSubrange@CRangeRuns@@QAAJJPAJ0@Z 10054404 f   riched60:doc.obj
 0001:000534f4       ?InsertFinalCR@CTxtArray@@QAAJXZ 100544f4 f   riched60:doc.obj
 0001:00053564       ?DeleteRuns@CTxtStory@@QAAXXZ 10054564 f   riched60:doc.obj
 0001:0005366c       ?InitObjects@CTxtStory@@QAAJXZ 1005466c f   riched60:doc.obj
 0001:000536d0       ??1CTxtStory@@QAA@XZ       100546d0 f   riched60:doc.obj
 0001:00053758       ?GetStory@CTxtStories@@QAAPAVCTxtStory@@JPAHPAVCTxtEdit@@@Z 10054758 f   riched60:doc.obj
 0001:00053818       ??1CTxtStories@@QAA@XZ     10054818 f   riched60:doc.obj
 0001:00053888       ?GetChangeEvent@CCallMgr@@QAAHXZ 10054888 f i riched60:range.obj
 0001:000538ac       ?Zombie@CTxtRange@@UAAXXZ  100548ac f   riched60:range.obj
 0001:000538c4       ?CheckRange@CTxtRange@@QAAXXZ 100548c4 f   riched60:range.obj
 0001:00053970       ?GetRange@CTxtRange@@QBAJAAJ0@Z 10054970 f   riched60:range.obj
 0001:000539b0       ?GetCpMin@CTxtRange@@QBAJXZ 100549b0 f   riched60:range.obj
 0001:000539c4       ?GetCpMost@CTxtRange@@QBAJXZ 100549c4 f   riched60:range.obj
 0001:000539d8       ?Update@CTxtRange@@UAAHH@Z 100549d8 f   riched60:range.obj
 0001:000539e0       ?GetRanges@CTxtRange@@QAAJJPAU_charrange@@@Z 100549e0 f   riched60:range.obj
 0001:00053a40       ?FlipRange@CTxtRange@@QAAXXZ 10054a40 f   riched60:range.obj
 0001:00053a70       ?IsInputSequenceValid@CTxtRange@@QAAHPAGJHPAHPAEPAUtagISC_TYPEREPL_OP@@H@Z 10054a70 f   riched60:range.obj
 0001:00053f70       ?Delete@CTxtRange@@QAAXPAVIUndoBuilder@@W4SELRR@@@Z 10054f70 f   riched60:range.obj
 0001:0005402c       ?CheckCells@CTxtRange@@SAHPAU_cellparms@@PBVCParaFormat@@1KK@Z 1005502c f   riched60:range.obj
 0001:00054140       ?CheckCellParms@CTxtRange@@QAAHPAU_cellparms@@PAVCParaFormat@@@Z 10055140 f   riched60:range.obj
 0001:000541f4       ?Get_iCF@CTxtRange@@QAAJXZ 100551f4 f   riched60:range.obj
 0001:00054218       ?Set_iCF@CTxtRange@@QAAHJ@Z 10055218 f   riched60:range.obj
 0001:0005426c       ?IsHidden@CTxtRange@@QAAHXZ 1005526c f   riched60:range.obj
 0001:000542b4       ?HandleEq@CTxtRange@@QAAJPAV1@EPAVIUndoBuilder@@@Z 100552b4 f   riched60:range.obj
 0001:000542bc       ?FindCell@CTxtRange@@QBAXPAJ0@Z 100552bc f   riched60:range.obj
 0001:00054548       ?FindRow@CTxtRange@@QBAXPAJ0J@Z 10055548 f   riched60:range.obj
 0001:0005482c       ?FindILSObject@CTxtRange@@QBAHPAJ0J@Z 1005582c f   riched60:range.obj
 0001:00054ab0       ?FindILSObjectArg@CTxtRange@@QBAHPAJ0PAK@Z 10055ab0 f   riched60:range.obj
 0001:00054c9c       ?FindParagraph@CTxtRange@@QBAXPAJ0H@Z 10055c9c f   riched60:range.obj
 0001:00054dbc       ?FindSentence@CTxtRange@@QBAXPAJ0@Z 10055dbc f   riched60:range.obj
 0001:00054ea0       ?FindVisibleRange@CTxtRange@@QBAHPAJ0@Z 10055ea0 f   riched60:range.obj
 0001:00054ee8       ?FindWord@CTxtRange@@QBAXPAJ0W4FINDWORD_TYPE@@@Z 10055ee8 f   riched60:range.obj
 0001:00054fe4       ?FindAttributes@CTxtRange@@QBAXPAJ0J@Z 10055fe4 f   riched60:range.obj
 0001:000553d4       ?FindLeafLine@CTxtRange@@QBAXPAJ0@Z 100563d4 f   riched60:range.obj
 0001:00055474       ?FindLayoutColumn@CTxtRange@@QBAXPAJ0@Z 10056474 f   riched60:range.obj
 0001:000554ac       ?GetLeafLineIndex@CTxtRange@@QBAXAAJ@Z 100564ac f   riched60:range.obj
 0001:00055538       ?GetLayoutColumnIndex@CTxtRange@@QBAXAAJ@Z 10056538 f   riched60:range.obj
 0001:00055544       ?CalcTextLenNotInRange@CTxtRange@@AAAJXZ 10056544 f   riched60:range.obj
 0001:00055584       ?UpdateChangedRegion@CTxtRange@@ABAXAAJ0@Z 10056584 f   riched60:range.obj
 0001:000555d4       ?OnPostReplaceMultiRange@CTxtRange@@QAAHJJJ@Z 100565d4 f   riched60:range.obj
 0001:00055734       ?CalcTableExpandParms@CTxtRange@@QAAXXZ 10056734 f   riched60:range.obj
 0001:00055904       ?CheckMultiSelection@CTxtRange@@QAAXJJ@Z 10056904 f   riched60:range.obj
 0001:00055ae0       ?GetTmpDispAttr@@YAHFPAU__tmpdisplayattrib@@@Z 10056ae0 f   riched60:range.obj
 0001:00055bd4       ?GetParaFormatOptions@CTxtRange@@QBAKPAK@Z 10056bd4 f   riched60:range.obj
 0001:00055ccc       ?GetDropCapOptions@CTxtRange@@QBAKPAU_dropcapoptions@@@Z 10056ccc f   riched60:range.obj
 0001:00055e44       ?GetParaFormat@CTxtRange@@QBAKPAVCParaFormat@@K@Z 10056e44 f   riched60:range.obj
 0001:00055f64       ?GetiFormat@CTxtRange@@QBAJXZ 10056f64 f   riched60:range.obj
 0001:00055fd0       ?SpanSubstring@CTxtRange@@AAAJPAVCUniscribe@@PAVCFormatRunPtr@@PBGJAAGKPAVCCharFlags@@3AAF@Z 10056fd0 f   riched60:range.obj
 0001:000562d4       ?CheckTextLength@CTxtRange@@QAAHJ@Z 100572d4 f   riched60:range.obj
 0001:00056318       ?FindObject@CTxtRange@@QBAHPAJ0@Z 10057318 f   riched60:range.obj
 0001:00056408       ?CheckIfSelHasEOP@CTxtRange@@QAAHJJH@Z 10057408 f   riched60:range.obj
 0001:00056568       ?Set@CTxtRange@@QAAHJJ@Z   10057568 f   riched60:range.obj
 0001:000567c8       ?CopySubranges@CTxtRange@@QAAHPAVCRangeRuns@@@Z 100577c8 f   riched60:range.obj
 0001:00056854       ?AdjustCRLF@CTxtRange@@QAAHJ@Z 10057854 f   riched60:range.obj
 0001:00056918       ?InsertObject@CTxtRange@@QAAJPAU_reobject@@PAVCObjectMgr@@AAH@Z 10057918 f   riched60:range.obj
 0001:00056994       ?GetCharRepMask@CTxtRange@@QAA_KH@Z 10057994 f   riched60:range.obj
 0001:00056a18       ?SetLeafLineIndex@CTxtRange@@QAAJJAAJ@Z 10057a18 f   riched60:range.obj
 0001:00056b00       ?SetLayoutColumnIndex@CTxtRange@@QAAJJAAJ@Z 10057b00 f   riched60:range.obj
 0001:00056b68       ?SameLevel@CFormatRunPtr@@QAAHPAV1@@Z 10057b68 f i riched60:range.obj
 0001:00056bf0       ??1CTxtRange@@UAA@XZ       10057bf0 f   riched60:range.obj
 0001:00056c60       ?CheckILSObject@CTxtRange@@QAAHAAVCCFRunPtr@@@Z 10057c60 f   riched60:range.obj
 0001:00056ee0       ?CopyObject@CTxtRange@@QAAJJJPAVCOleObject@@@Z 10057ee0 f   riched60:range.obj
 0001:00057404       ?GetCharFormat@CTxtRange@@QBAKPAVCCharFormat@@KPAKPAU__tmpdisplayattrib@@@Z 10058404 f   riched60:range.obj
 0001:00057754       ?GetRunsPF@CTxtRange@@QAAJPAVCRchTxtPtr@@PAVCFormatRunPtr@@AAJ@Z 10058754 f   riched60:range.obj
 0001:0005786c       ?IsProtected@CTxtRange@@QAA?AW4PROTECT@@W4CHECKPROTECT@@@Z 1005886c f   riched60:range.obj
 0001:000579e4       ??_ECTxtRange@@UAAPAXI@Z   100589e4 f i riched60:range.obj
 0001:000579e4       ??_GCTxtRange@@UAAPAXI@Z   100589e4 f i riched60:range.obj
 0001:00057a08       ??0CTxtRange@@QAA@ABV0@@Z  10058a08 f   riched60:range.obj
 0001:00057a88       ?SetCharFormat@CTxtRange@@QAAJPBVCCharFormat@@KPAVIUndoBuilder@@KKK@Z 10058a88 f   riched60:range.obj
 0001:00058c8c       ?Update_iFormat@CTxtRange@@QAAXJ@Z 10059c8c f   riched60:range.obj
 0001:00059194       ?BiDiLevelFromFSM@CTxtRange@@QAAJPBVCBiDiFSM@@AAJ1H@Z 1005a194 f   riched60:range.obj
 0001:00059330       ?AdjustEndEOP@CTxtRange@@QAAHW4EOPADJUST@@@Z 1005a330 f   riched60:range.obj
 0001:00059474       ?RangeValidateCp@CTxtRange@@AAAXJJ@Z 1005a474 f   riched60:range.obj
 0001:00059524       ??0CTxtRange@@QAA@PAVCTxtEdit@@JJPAVCTxtStory@@@Z 1005a524 f   riched60:range.obj
 0001:00059574       ??0CTxtRange@@QAA@AAVCRchTxtPtr@@J@Z 1005a574 f   riched60:range.obj
 0001:000595bc       ??4CTxtRange@@UAAAAV0@ABV0@@Z 1005a5bc f   riched60:range.obj
 0001:00059638       ?OnPreReplaceRange@CTxtRange@@UAAXJJJJJPAUNOTIFY_DATA@@@Z 1005a638 f   riched60:range.obj
 0001:00059680       ?CheckSelInCell@CTxtRange@@QAAHJJ@Z 1005a680 f   riched60:range.obj
 0001:00059780       ?SetUpCharFormat@CTxtRange@@AAAHIPAVIUndoBuilder@@JH@Z 1005a780 f   riched60:range.obj
 0001:0005986c       ?CheckLimitReplaceRange@CTxtRange@@QAAJJPBGHPAVIUndoBuilder@@_KPAJJHAAKIW4CharLevel@@@Z 1005a86c f   riched60:range.obj
 0001:00059ea8       ?CheckChange@CTxtRange@@QAAJJH@Z 1005aea8 f   riched60:range.obj
 0001:0005a108       ?SetCp@CTxtRange@@QAAJJH@Z 1005b108 f   riched60:range.obj
 0001:0005a138       ?SetStory@CTxtRange@@QAAHPAVCTxtStory@@@Z 1005b138 f   riched60:range.obj
 0001:0005a184       ?Move@CTxtRange@@QAAJJH@Z  1005b184 f   riched60:range.obj
 0001:0005a1b0       ?AdvanceCRLF@CTxtRange@@QAAJW4CSCONTROL@@H@Z 1005b1b0 f   riched60:range.obj
 0001:0005a1dc       ?BackupCRLF@CTxtRange@@QAAJW4CSCONTROL@@H@Z 1005b1dc f   riched60:range.obj
 0001:0005a208       ?FindWordBreak@CTxtRange@@QAAJHH@Z 1005b208 f   riched60:range.obj
 0001:0005a244       ?CleanseAndReplaceRange@CTxtRange@@QAAJJPBGHPAVIUndoBuilder@@PAGPAJKI@Z 1005b244 f   riched60:range.obj
 0001:0005aaa4       ?DeletePartialRow@CTxtRange@@QAAJJE@Z 1005baa4 f   riched60:range.obj
 0001:0005ab90       ?CheckComplexScript@CTxtRange@@QAAXJ@Z 1005bb90 f   riched60:range.obj
 0001:0005ac74       ?BypassHiddenText@CTxtRange@@QAAHJH@Z 1005bc74 f   riched60:range.obj
 0001:0005ad60       ?ItemizeRuns@CTxtRange@@QAAHPAVIUndoBuilder@@HHK@Z 1005bd60 f   riched60:range.obj
 0001:0005b7d4       ?DeleteTerminatingEOP@CTxtRange@@QAAXPAVIUndoBuilder@@@Z 1005c7d4 f   riched60:range.obj
 0001:0005b89c       ?InsertILSObject@CTxtRange@@QAAJW4__MIDL___MIDL_itf_tom_0000_0002@@JPAVIUndoBuilder@@@Z 1005c89c f   riched60:range.obj
 0001:0005bb88       ?CountCells@CTxtRange@@QAAJAAJJ@Z 1005cb88 f   riched60:range.obj
 0001:0005bd24       ?GetURLInstruction@CTxtRange@@QAAHAAJ0@Z 1005cd24 f   riched60:range.obj
 0001:0005be40       ??4CTxtRange@@UAAAAVCRchTxtPtr@@ABV1@@Z 1005ce40 f   riched60:range.obj
 0001:0005be7c       ?OnPostReplaceRange@CTxtRange@@UAAXJJJJJPAUNOTIFY_DATA@@@Z 1005ce7c f   riched60:range.obj
 0001:0005c164       ?ExpandToVMergedRow@CTxtRange@@QAAXXZ 1005d164 f   riched60:range.obj
 0001:0005c214       ?CleanupPaste@CTxtRange@@QAAXJJJHPAVIUndoBuilder@@@Z 1005d214 f   riched60:range.obj
 0001:0005c610       ?CheckLinkProtection@CTxtRange@@QAAHAAKAAJ@Z 1005d610 f   riched60:range.obj
 0001:0005c894       ?UnicodeToHex@CTxtRange@@QAAJPAVIUndoBuilder@@@Z 1005d894 f   riched60:range.obj
 0001:0005cb00       ?SetParaFormat@CTxtRange@@QAAJPBVCParaFormat@@PAVIUndoBuilder@@KK@Z 1005db00 f   riched60:range.obj
 0001:0005d348       ?SetParaStyle@CTxtRange@@QAAJPBVCParaFormat@@PAVIUndoBuilder@@K@Z 1005e348 f   riched60:range.obj
 0001:0005d464       ?InsertTableRow@CTxtRange@@QAAJPBVCParaFormat@@PAVIUndoBuilder@@@Z 1005e464 f   riched60:range.obj
 0001:0005d9e4       ?ResizeTable@CTxtRange@@QAAJJJJJAAJPAVIUndoBuilder@@@Z 1005e9e4 f   riched60:range.obj
 0001:0005e074       ?Promote@CTxtRange@@QAAJJPAVIUndoBuilder@@@Z 1005f074 f   riched60:range.obj
 0001:0005e3d8       ?OutlineExpander@CTxtRange@@QAAJJH@Z 1005f3d8 f   riched60:range.obj
 0001:0005e7cc       ?CheckOutlineLevel@CTxtRange@@QAAXPAVIUndoBuilder@@@Z 1005f7cc f   riched60:range.obj
 0001:0005e8ac       ?CheckTableSelection@CTxtRange@@QAAHHHPAHK0@Z 1005f8ac f   riched60:range.obj
 0001:0005ed20       ?SetRanges@CTxtRange@@QAAHJPAU_charrange@@H@Z 1005fd20 f   riched60:range.obj
 0001:0005f1dc       ?HexToUnicode@CTxtRange@@QAAJPAVIUndoBuilder@@@Z 100601dc f   riched60:range.obj
 0001:0005f524       ?DeleteWithTRDCheck@CTxtRange@@UAAJPAVIUndoBuilder@@W4SELRR@@PAJK@Z 10060524 f   riched60:range.obj
 0001:0005f76c       ?SetCellParms@CTxtRange@@QAAXPAU_cellparms@@JHPAVIUndoBuilder@@@Z 1006076c f   riched60:range.obj
 0001:0005f92c       ?RestoreDefaultFormatting@CTxtRange@@QAAJPAVIUndoBuilder@@@Z 1006092c f   riched60:range.obj
 0001:0005fa3c       ?ExpandOutline@CTxtRange@@QAAJJH@Z 10060a3c f   riched60:range.obj
 0001:0005fa84       ?PrepareForCopy@CTxtRange@@QAAHPAH@Z 10060a84 f   riched60:range.obj
 0001:0005facc       ?PrepareForPaste@CTxtRange@@QAAJPAVIUndoBuilder@@J@Z 10060acc f   riched60:range.obj
 0001:0005fd68       ?CheckTopCells@CTxtRange@@QAAXPAVIUndoBuilder@@J@Z 10060d68 f   riched60:range.obj
 0001:0005fe88       ?CheckMergedCells@CTxtRange@@QAAXPAVIUndoBuilder@@@Z 10060e88 f   riched60:range.obj
 0001:00060004       ?ReplaceRange@CTxtRange@@UAAJJPBGPAVIUndoBuilder@@W4SELRR@@PAJK@Z 10061004 f   riched60:range.obj
 0001:00060454       ?Insert@CTxtRange@@QAAJPAV1@PAVIUndoBuilder@@HH@Z 10061454 f   riched60:range.obj
 0001:000615cc       ?ChangeMatrix@CTxtRange@@QAAHPAVIUndoBuilder@@G@Z 100625cc f   riched60:range.obj
 0001:00061c48       ?DeleteSubranges@CTxtRange@@QAAHJJPAVIUndoBuilder@@@Z 10062c48 f   riched60:range.obj
 0001:00061d50       ?GetMaxText@CCallMgr@@QAAHXZ 10062d50 f i riched60:ldte.obj
 0001:00061d74       ?GetOutOfMemory@CCallMgr@@QAAHXZ 10062d74 f i riched60:ldte.obj
 0001:00061d98       ?ReadHGlobal@@YAKKPAEJPAJ@Z 10062d98 f   riched60:ldte.obj
 0001:00061dec       ?WriteHGlobal@@YAKKPAEJPAJ@Z 10062dec f   riched60:ldte.obj
 0001:00061eb0       ??1COLEStream@@QAA@XZ      10062eb0 f   riched60:ldte.obj
 0001:00061eb8       ?ReadData@COLEStream@@QAAJPAEJPAJ@Z 10062eb8 f   riched60:ldte.obj
 0001:00061f14       ?WriteData@COLEStream@@QAAJPBEJPAJ@Z 10062f14 f   riched60:ldte.obj
 0001:00061fa4       ?ClassifyChinese@@YA_KEH@Z 10062fa4 f   riched60:ldte.obj
 0001:00062034       ?GetCharFlags@@YA_KPBGJEPAW4CharLevel@@H@Z 10063034 f   riched60:ldte.obj
 0001:00062900       ??0CLightDTEngine@@QAA@XZ  10063900 f   riched60:ldte.obj
 0001:00062920       ??1CLightDTEngine@@QAA@XZ  10063920 f   riched60:ldte.obj
 0001:00062958       ?FlushClipboard@CLightDTEngine@@QAAXPAVCOleObject@@@Z 10063958 f   riched60:ldte.obj
 0001:00062a84       ?CanPaste@CLightDTEngine@@QAAKPAUIDataObject@@GK@Z 10063a84 f   riched60:ldte.obj
 0001:00062c80       ?RangeToDataObject@CLightDTEngine@@QAAJPAVCTxtRange@@JPAPAUIDataObject@@@Z 10063c80 f   riched60:ldte.obj
 0001:00062cb8       ?RenderClipboardFormat@CLightDTEngine@@QAAJI@Z 10063cb8 f   riched60:ldte.obj
 0001:00062d94       ?RenderAllClipboardFormats@CLightDTEngine@@QAAJXZ 10063d94 f   riched60:ldte.obj
 0001:00062f24       ?DestroyClipboard@CLightDTEngine@@QAAJXZ 10063f24 f   riched60:ldte.obj
 0001:00062f34       ?DIBToRange@CLightDTEngine@@QAAJPAXPAVCTxtRange@@PAVIUndoBuilder@@@Z 10063f34 f   riched60:ldte.obj
 0001:000630f0       ?StartDrag@CLightDTEngine@@QAAJPAVCTxtSelection@@PAVIUndoBuilder@@@Z 100640f0 f   riched60:ldte.obj
 0001:00063100       ?UnicodePlainTextFromRange@CLightDTEngine@@QAAPAXPAVCTxtRange@@@Z 10064100 f   riched60:ldte.obj
 0001:0006343c       ?GetStreamCodePage@CLightDTEngine@@IAAJJ@Z 1006443c f   riched60:ldte.obj
 0001:00063488       ?CreateOleObjFromDataObj@CLightDTEngine@@QAAJPAUIDataObject@@PAVCTxtRange@@PAU_repastespecial@@HPAVIUndoBuilder@@@Z 10064488 f   riched60:ldte.obj
 0001:000639dc       ?PutToStream@@YAKPAVCOLEStream@@PBXK@Z 100649dc f   riched60:ldte.obj
 0001:00063a00       ?GetFromStream@@YAKPAVCOLEStream@@PAXK@Z 10064a00 f   riched60:ldte.obj
 0001:00063a24       ??0COLEStream@@QAA@XZ      10064a24 f   riched60:ldte.obj
 0001:00063a64       ?CopyRangeToClipboard@CLightDTEngine@@QAAJPAVCTxtRange@@JH@Z 10064a64 f   riched60:ldte.obj
 0001:00063c80       ?CutRangeToClipboard@CLightDTEngine@@QAAJPAVCTxtRange@@JPAVIUndoBuilder@@@Z 10064c80 f   riched60:ldte.obj
 0001:00063d08       ?ReadPlainText@CLightDTEngine@@QAAJPAVCTxtRange@@PAU_editstream@@HPAVIUndoBuilder@@J@Z 10064d08 f   riched60:ldte.obj
 0001:00064288       ?WritePlainText@CLightDTEngine@@IAAJPAVCTxtRange@@PAU_editstream@@JJPAU_charrange@@@Z 10065288 f   riched60:ldte.obj
 0001:00064684       ?LoadFromEs@CLightDTEngine@@QAAJPAVCTxtRange@@JPAU_editstream@@HPAVIUndoBuilder@@@Z 10065684 f   riched60:ldte.obj
 0001:00064910       ?SaveToEs@CLightDTEngine@@QAAJPAVCTxtRange@@JPAU_editstream@@@Z 10065910 f   riched60:ldte.obj
 0001:00064a5c       ?RtfFromRange@CLightDTEngine@@QAAPAXPAVCTxtRange@@J@Z 10065a5c f   riched60:ldte.obj
 0001:00064b2c       ?HGlobalToRange@CLightDTEngine@@IAAJKPAXPAGPAVCTxtRange@@PAVIUndoBuilder@@K@Z 10065b2c f   riched60:ldte.obj
 0001:00064d34       ?PasteFromClipboard@CLightDTEngine@@AAAJPAVCTxtRange@@GPAVIUndoBuilder@@KH@Z 10065d34 f   riched60:ldte.obj
 0001:00064fe0       ?PasteDataObjectToRange@CLightDTEngine@@QAAJPAUIDataObject@@PAVCTxtRange@@GPAU_repastespecial@@PAVIUndoBuilder@@K@Z 10065fe0 f   riched60:ldte.obj
 0001:00065674       ?IsRTF@@YAHPBDJ@Z          10066674 f   riched60:rtflex.obj
 0001:000656ec       ?InitLex@CRTFRead@@AAAHXZ  100666ec f   riched60:rtflex.obj
 0001:00065744       ?DeinitLex@CRTFRead@@AAAXXZ 10066744 f   riched60:rtflex.obj
 0001:00065760       ?UngetChar@CRTFRead@@AAAHXZ 10066760 f   riched60:rtflex.obj
 0001:0006578c       ?UngetChar@CRTFRead@@AAAHI@Z 1006678c f   riched60:rtflex.obj
 0001:000657d8       ?CheckNotifyLowFiRTF@CRTFRead@@AAAXH@Z 100667d8 f   riched60:rtflex.obj
 0001:0006588c       ?FillBuffer@CRTFRead@@AAAJXZ 1006688c f   riched60:rtflex.obj
 0001:00065980       ?TokenFindKeyword@CRTFRead@@AAAGPBEPBU_keyword@@J@Z 10066980 f   riched60:rtflex.obj
 0001:00065b8c       ?GetChar@CRTFRead@@AAAEXZ  10066b8c f   riched60:rtflex.obj
 0001:00065bcc       ?GetHex@CRTFRead@@AAAEXZ   10066bcc f   riched60:rtflex.obj
 0001:00065c40       ?GetHexSkipCRLF@CRTFRead@@AAAEXZ 10066c40 f   riched60:rtflex.obj
 0001:00065cd8       ?TokenGetHex@CRTFRead@@AAAGXZ 10066cd8 f   riched60:rtflex.obj
 0001:00065d44       ?GetParam@CRTFRead@@AAAXD@Z 10066d44 f   riched60:rtflex.obj
 0001:00065e1c       ?TokenGetText@CRTFRead@@AAAGE@Z 10066e1c f   riched60:rtflex.obj
 0001:00066098       ?GetCharEx@CRTFRead@@AAAEXZ 10067098 f   riched60:rtflex.obj
 0001:00066134       ?TokenGetKeyword@CRTFRead@@AAAGXZ 10067134 f   riched60:rtflex.obj
 0001:00066308       ?TokenGetToken@CRTFRead@@AAAGXZ 10067308 f   riched60:rtflex.obj
 0001:0006640c       ?SkipToEndOfGroup@CRTFRead@@AAAHXZ 1006740c f   riched60:rtflex.obj
 0001:00066524       ?MatchFormatSignature@CCFRunPtr@@QAAHPBVCCharFormat@@HHPA_K@Z 10067524 f i riched60:frunptr.obj
 0001:00066610       ??0CCFRunPtr@@QAA@ABVCRchTxtPtr@@@Z 10067610 f   riched60:frunptr.obj
 0001:00066634       ??0CCFRunPtr@@QAA@ABVCFormatRunPtr@@PAVCTxtEdit@@@Z 10067634 f   riched60:frunptr.obj
 0001:00066650       ??0CPFRunPtr@@QAA@ABVCRchTxtPtr@@@Z 10067650 f   riched60:frunptr.obj
 0001:00066674       ?InitRuns@CFormatRunPtr@@AAAHJJPAPAV?$CArray@VCFormatRun@@@@@Z 10067674 f   riched60:frunptr.obj
 0001:00066758       ?InsertFormat@CFormatRunPtr@@AAAJJJPAUIFormatCache@@@Z 10067758 f   riched60:frunptr.obj
 0001:000669c4       ?Remove@CFormatRunPtr@@AAAXJPAUIFormatCache@@@Z 100679c4 f   riched60:frunptr.obj
 0001:00066a58       ?SetFormat@CFormatRunPtr@@AAAJJJPAUIFormatCache@@PAVCBiDiLevel@@PAH@Z 10067a58 f   riched60:frunptr.obj
 0001:00066cbc       ?GetFormat@CFormatRunPtr@@QBAFXZ 10067cbc f   riched60:frunptr.obj
 0001:00066d18       ?SplitFormat@CFormatRunPtr@@AAAXPAUIFormatCache@@@Z 10067d18 f   riched60:frunptr.obj
 0001:00066e04       ?SetLevel@CFormatRunPtr@@QAAXVCBiDiLevel@@@Z 10067e04 f   riched60:frunptr.obj
 0001:00066e68       ?GetLevel@CFormatRunPtr@@QAAEPAVCBiDiLevel@@@Z 10067e68 f   riched60:frunptr.obj
 0001:00066ef4       ?IsMask@CCFRunPtr@@QAAHKW4MASKOP@@@Z 10067ef4 f   riched60:frunptr.obj
 0001:00066f54       ?CountAttributes@CCFRunPtr@@QAAJAAJJJ@Z 10067f54 f   riched60:frunptr.obj
 0001:00067070       ?GetPreferredFontInfo@CCFRunPtr@@QAA_NEAAEAAF10AA_NHHPAH@Z 10068070 f   riched60:frunptr.obj
 0001:00067680       ?IsCollapsed@CPFRunPtr@@QAAHXZ 10068680 f   riched60:frunptr.obj
 0001:000676ac       ?IsTableRowDelimiter@CPFRunPtr@@QAAHXZ 100686ac f   riched60:frunptr.obj
 0001:000676d8       ?InTable@CPFRunPtr@@QAAHXZ 100686d8 f   riched60:frunptr.obj
 0001:00067704       ?FindExpandedForward@CPFRunPtr@@QAAJXZ 10068704 f   riched60:frunptr.obj
 0001:00067764       ?FindExpandedBackward@CPFRunPtr@@QAAJXZ 10068764 f   riched60:frunptr.obj
 0001:000677c0       ?GetOutlineLevel@CPFRunPtr@@QAAJXZ 100687c0 f   riched60:frunptr.obj
 0001:000677e0       ?GetStyle@CPFRunPtr@@QAAJXZ 100687e0 f   riched60:frunptr.obj
 0001:00067800       ?GetTableLevel@CPFRunPtr@@QAAJXZ 10068800 f   riched60:frunptr.obj
 0001:00067820       ?Delete@CFormatRunPtr@@AAAXJPAUIFormatCache@@J@Z 10068820 f   riched60:frunptr.obj
 0001:00067de8       ?MergeRuns@CFormatRunPtr@@AAAHJPAUIFormatCache@@@Z 10068de8 f   riched60:frunptr.obj
 0001:00068004       ?AdjustFormatting@CFormatRunPtr@@AAAXJPAUIFormatCache@@@Z 10069004 f   riched60:frunptr.obj
 0001:000680ac       ?IsInHidden@CCFRunPtr@@QAAHXZ 100690ac f   riched60:frunptr.obj
 0001:00068144       ?FindUnhiddenForward@CCFRunPtr@@QAAJXZ 10069144 f   riched60:frunptr.obj
 0001:000681c0       ?FindUnhiddenBackward@CCFRunPtr@@QAAJXZ 100691c0 f   riched60:frunptr.obj
 0001:0006823c       ?FindHeading@CPFRunPtr@@QAAJJAAJ@Z 1006923c f   riched60:frunptr.obj
 0001:00068328       ?FindExpanded@CPFRunPtr@@QAAJXZ 10069328 f   riched60:frunptr.obj
 0001:00068394       ?ResolveRowStartPF@CPFRunPtr@@QAAHXZ 10069394 f   riched60:frunptr.obj
 0001:000684fc       ?GetMinTableLevel@CPFRunPtr@@QAAJJ@Z 100694fc f   riched60:frunptr.obj
 0001:00068574       ?GetUndoLimit@CUndoStack@@UAAJXZ 10069574 f   riched60:m_undo.obj
 0001:0006857c       ?StartGroupTyping@CUndoStack@@UAAXXZ 1006957c f   riched60:m_undo.obj
 0001:000685b8       ?StopGroupTyping@CUndoStack@@UAAXXZ 100695b8 f   riched60:m_undo.obj
 0001:000685f8       ?StartEditCollection@CUndoStack@@UAAXXZ 100695f8 f   riched60:m_undo.obj
 0001:00068610       ?StopEditCollection@CUndoStack@@UAAXXZ 10069610 f   riched60:m_undo.obj
 0001:00068624       ?EnableSingleLevelMode@CUndoStack@@QAAJXZ 10069624 f   riched60:m_undo.obj
 0001:00068688       ?DisableSingleLevelMode@CUndoStack@@QAAXXZ 10069688 f   riched60:m_undo.obj
 0001:000686cc       ?IsCookieInList@CUndoStack@@AAAHPAVIAntiEvent@@0@Z 100696cc f   riched60:m_undo.obj
 0001:0006870c       ?SetNameID@CGenUndoBuilder@@UAAXW4_undonameid@@@Z 1006970c f   riched60:m_undo.obj
 0001:00068714       ?AddAntiEvent@CGenUndoBuilder@@UAAJPAVIAntiEvent@@@Z 10069714 f   riched60:m_undo.obj
 0001:0006875c       ?GetTopAntiEvent@CGenUndoBuilder@@UAAPAVIAntiEvent@@XZ 1006975c f   riched60:m_undo.obj
 0001:000687b4       ?StartGroupTyping@CGenUndoBuilder@@UAAXXZ 100697b4 f   riched60:m_undo.obj
 0001:000687c4       ?StopGroupTyping@CGenUndoBuilder@@UAAXXZ 100697c4 f   riched60:m_undo.obj
 0001:000687e4       ??0CUndoStackGuard@@QAA@PAVCTxtEdit@@@Z 100697e4 f   riched60:m_undo.obj
 0001:00068820       ?SafeUndo@CUndoStackGuard@@QAAJPAVIAntiEvent@@PAVIUndoBuilder@@@Z 10069820 f   riched60:m_undo.obj
 0001:0006888c       ?OnEnterContext@CUndoStackGuard@@UAAXXZ 1006988c f   riched60:m_undo.obj
 0001:000688ac       ?DestroyAEList@@YAXPAVIAntiEvent@@@Z 100698ac f   riched60:m_undo.obj
 0001:000688e8       ?CommitAEList@@YAXPAVCTxtEdit@@PAVIAntiEvent@@@Z 100698e8 f   riched60:m_undo.obj
 0001:00068934       ?HandleSelectionAEInfo@@YAJPAVCTxtEdit@@PAVIUndoBuilder@@JJJJW4SELAE@@PAVCRangeRuns@@@Z 10069934 f   riched60:m_undo.obj
 0001:00068b4c       ?PushAntiEvent@CUndoStack@@UAAJW4_undonameid@@PAVIAntiEvent@@@Z 10069b4c f   riched60:m_undo.obj
 0001:00068c78       ?GetNameIDFromAE@CUndoStack@@UAA?AW4_undonameid@@PAX@Z 10069c78 f   riched60:m_undo.obj
 0001:00068d20       ?GetMergeAntiEvent@CUndoStack@@UAAPAVIAntiEvent@@XZ 10069d20 f   riched60:m_undo.obj
 0001:00068d50       ?GetTopAECookie@CUndoStack@@UAAPAXXZ 10069d50 f   riched60:m_undo.obj
 0001:00068d6c       ?ClearAll@CUndoStack@@UAAXXZ 10069d6c f   riched60:m_undo.obj
 0001:00068dcc       ?CanUndo@CUndoStack@@UAAHXZ 10069dcc f   riched60:m_undo.obj
 0001:00068e44       ?TransferToNewBuffer@CUndoStack@@AAAXPAUUndoAction@1@J@Z 10069e44 f   riched60:m_undo.obj
 0001:00068f4c       ??0CGenUndoBuilder@@QAA@PAVCTxtEdit@@KPAPAVIUndoBuilder@@@Z 10069f4c f   riched60:m_undo.obj
 0001:00069084       ?OnEnterContext@CGenUndoBuilder@@UAAXXZ 1006a084 f i riched60:m_undo.obj
 0001:00069088       ?Done@CGenUndoBuilder@@UAAJXZ 1006a088 f   riched60:m_undo.obj
 0001:0006923c       ?Discard@CGenUndoBuilder@@UAAXXZ 1006a23c f   riched60:m_undo.obj
 0001:0006927c       ??1CUndoStack@@AAA@XZ      1006a27c f   riched60:m_undo.obj
 0001:000692ac       ?fEditCollection@CUndoStack@@UAAHXZ 1006a2ac f i riched60:m_undo.obj
 0001:000692b8       ?SetUndoLimit@CUndoStack@@UAAJJ@Z 1006a2b8 f   riched60:m_undo.obj
 0001:0006932c       ??1CGenUndoBuilder@@QAA@XZ 1006a32c f   riched60:m_undo.obj
 0001:0006938c       ??0CUndoStack@@QAA@PAVCTxtEdit@@AAJW4USFlags@@@Z 1006a38c f   riched60:m_undo.obj
 0001:000693d8       ?Destroy@CUndoStack@@UAAXXZ 1006a3d8 f   riched60:m_undo.obj
 0001:000693f8       ?PopAndExecuteAntiEvent@CUndoStack@@UAAJPAX@Z 1006a3f8 f   riched60:m_undo.obj
 0001:00069648       ?InvalidateLineCache@LS@@YAXPBVCDisplay@@_N@Z 1006a648 f   riched60:lsmain.obj
 0001:000696b0       ??0CMeasurerLS@@QAA@AAVCMeasurer@@@Z 1006a6b0 f i riched60:lsmain.obj
 0001:00069708       ?MeasureLine@LS@@YAHAAVCMeasurer@@IPAJJ_NAAH11@Z 1006a708 f   riched60:lsmain.obj
 0001:000697c0       ?RenderLine@LS@@YAHAAVCRenderer@@AAUCLine@@HAAH@Z 1006a7c0 f   riched60:lsmain.obj
 0001:00069870       ?CchFromUp@LS@@YAHAAVCMeasurer@@UtagLSPOINTUV@@PAVCDispDim@@PAJ@Z 1006a870 f   riched60:lsmain.obj
 0001:000698f0       ?MeasureText@LS@@YAHAAVCMeasurer@@JJIPAVCDispDim@@AAJ@Z 1006a8f0 f   riched60:lsmain.obj
 0001:00069988       ?GetRectsOfRange@LS@@YAHAAVCMeasurer@@JJABUtagLSPOINTUV@@JJJAAH@Z 1006a988 f   riched60:lsmain.obj
 0001:00069a70       ??0CNotifyMgr@@QAA@XZ      1006aa70 f   riched60:notmgr.obj
 0001:00069a7c       ??1CNotifyMgr@@QAA@XZ      1006aa7c f   riched60:notmgr.obj
 0001:00069aa8       ?Add@CNotifyMgr@@QAAXPAVITxNotify@@@Z 1006aaa8 f   riched60:notmgr.obj
 0001:00069abc       ?Remove@CNotifyMgr@@QAAXPAVITxNotify@@@Z 1006aabc f   riched60:notmgr.obj
 0001:00069ae8       ?SetTxLayoutChangeBit@CNotifyMgr@@CAXPAUNOTIFY_DATA@@@Z 1006aae8 f   riched60:notmgr.obj
 0001:00069b58       ?NotifyPreReplaceRange@CNotifyMgr@@QAAXPAVITxNotify@@JJJJJPAUNOTIFY_DATA@@@Z 1006ab58 f   riched60:notmgr.obj
 0001:00069bd4       ?NotifyPostReplaceRange@CNotifyMgr@@QAAXPAVITxNotify@@JJJJJPAUNOTIFY_DATA@@@Z 1006abd4 f   riched60:notmgr.obj
 0001:00069c50       ?IsExcelCLSID@@YAHABU_GUID@@@Z 1006ac50 f   riched60:coleobj.obj
 0001:00069c9c       ?QueryInterface@COleObject@@UAAJABU_GUID@@PAPAX@Z 1006ac9c f   riched60:coleobj.obj
 0001:00069e18       ?AddRef@COleObject@@UAAKXZ 1006ae18 f   riched60:coleobj.obj
 0001:00069e20       ?Release@COleObject@@UAAKXZ 1006ae20 f   riched60:coleobj.obj
 0001:00069e28       ?SaveObject@COleObject@@UAAJXZ 1006ae28 f   riched60:coleobj.obj
 0001:00069e68       ?GetMoniker@COleObject@@UAAJKKPAPAUIMoniker@@@Z 1006ae68 f   riched60:coleobj.obj
 0001:00069e80       ?GetContainer@COleObject@@UAAJPAPAUIOleContainer@@@Z 1006ae80 f   riched60:coleobj.obj
 0001:00069e98       ?ShowObject@COleObject@@UAAJXZ 1006ae98 f   riched60:coleobj.obj
 0001:00069ea4       ?RequestNewObjectLayout@COleObject@@UAAJXZ 1006aea4 f   riched60:coleobj.obj
 0001:00069eb0       ?GetWindow@COleObject@@UAAJPAPAUHWND__@@@Z 1006aeb0 f   riched60:coleobj.obj
 0001:00069f0c       ?ContextSensitiveHelp@COleObject@@UAAJH@Z 1006af0c f   riched60:coleobj.obj
 0001:00069ff4       ?CanInPlaceActivate@COleObject@@UAAJXZ 1006aff4 f   riched60:coleobj.obj
 0001:0006a058       ?OnInPlaceActivate@COleObject@@UAAJXZ 1006b058 f   riched60:coleobj.obj
 0001:0006a07c       ?OnUIActivate@COleObject@@UAAJXZ 1006b07c f   riched60:coleobj.obj
 0001:0006a1a4       ?Scroll@COleObject@@UAAJUtagSIZE@@@Z 1006b1a4 f   riched60:coleobj.obj
 0001:0006a1bc       ?DiscardUndoState@COleObject@@UAAJXZ 1006b1bc f   riched60:coleobj.obj
 0001:0006a1c4       ?DeactivateAndUndo@COleObject@@UAAJXZ 1006b1c4 f   riched60:coleobj.obj
 0001:0006a234       ?OnPosRectChange@COleObject@@UAAJPBUtagRECT@@@Z 1006b234 f   riched60:coleobj.obj
 0001:0006a3a4       ?OnDataChange@COleObject@@UAAXPAUtagFORMATETC@@PAUtagSTGMEDIUM@@@Z 1006b3a4 f   riched60:coleobj.obj
 0001:0006a404       ?OnRename@COleObject@@UAAXPAUIMoniker@@@Z 1006b404 f   riched60:coleobj.obj
 0001:0006a408       ?OnSave@COleObject@@UAAXXZ 1006b408 f   riched60:coleobj.obj
 0001:0006a418       ?OnClose@COleObject@@UAAXXZ 1006b418 f   riched60:coleobj.obj
 0001:0006a4cc       ?OnPostReplaceRange@COleObject@@QAAXJJJJJPAUNOTIFY_DATA@@@Z 1006b4cc f   riched60:coleobj.obj
 0001:0006a5a0       ?GetObjectData@COleObject@@QAAJPAU_reobject@@K@Z 1006b5a0 f   riched60:coleobj.obj
 0001:0006a76c       ?IsLink@COleObject@@QAAHXZ 1006b76c f   riched60:coleobj.obj
 0001:0006a780       ?EnsureNmp@COleObject@@QAAHPAVCTxtStory@@H@Z 1006b780 f   riched60:coleobj.obj
 0001:0006a7f0       ?MeasureObj@COleObject@@QAAXJJAAJ00FEJ@Z 1006b7f0 f   riched60:coleobj.obj
 0001:0006a914       ?InHandle@COleObject@@AAAHHHABUtagLSPOINTUV@@@Z 1006b914 f   riched60:coleobj.obj
 0001:0006a97c       ?DrawFrame@COleObject@@AAAXPBVCDisplay@@PAUHDC__@@PAUtagRECT@@@Z 1006b97c f   riched60:coleobj.obj
 0001:0006ac10       ?CreateDib@COleObject@@AAAXPAUHDC__@@@Z 1006bc10 f   riched60:coleobj.obj
 0001:0006ad78       ?DrawDib@COleObject@@AAAXPAUHDC__@@PAUtagRECT@@@Z 1006bd78 f   riched60:coleobj.obj
 0001:0006ae70       ?DrawObj@COleObject@@QAAXPBVCDisplay@@JJPAUHDC__@@PBURECTUV@@HPAUtagLSPOINTUV@@JJE@Z 1006be70 f   riched60:coleobj.obj
 0001:0006b464       ?Restore@COleObject@@QAAXXZ 1006c464 f   riched60:coleobj.obj
 0001:0006b4fc       ?SetREOSELECTED@COleObject@@QAAXH@Z 1006c4fc f   riched60:coleobj.obj
 0001:0006b518       ?Close@COleObject@@QAAXK@Z 1006c518 f   riched60:coleobj.obj
 0001:0006b580       ?SavePrivateState@COleObject@@AAAXXZ 1006c580 f   riched60:coleobj.obj
 0001:0006b60c       ?FetchObjectExtents@COleObject@@QAAXXZ 1006c60c f   riched60:coleobj.obj
 0001:0006b7e8       ?ConnectObject@COleObject@@AAAJXZ 1006c7e8 f   riched60:coleobj.obj
 0001:0006b958       ?DisconnectObject@COleObject@@AAAXXZ 1006c958 f   riched60:coleobj.obj
 0001:0006ba84       ?CleanupState@COleObject@@AAAXXZ 1006ca84 f   riched60:coleobj.obj
 0001:0006bb58       ?Convert@COleObject@@QAAJABU_GUID@@PBD@Z 1006cb58 f   riched60:coleobj.obj
 0001:0006bda0       ?ActivateAs@COleObject@@QAAJABU_GUID@@0@Z 1006cda0 f   riched60:coleobj.obj
 0001:0006bf4c       ?SetLinkAvailable@COleObject@@QAAJH@Z 1006cf4c f   riched60:coleobj.obj
 0001:0006bf7c       ?WriteTextInfoToEditStream@COleObject@@QAAJPAU_editstream@@I@Z 1006cf7c f   riched60:coleobj.obj
 0001:0006c208       ?SetDvaspect@COleObject@@QAAXK@Z 1006d208 f   riched60:coleobj.obj
 0001:0006c23c       ?HandsOffStorage@COleObject@@QAAXXZ 1006d23c f   riched60:coleobj.obj
 0001:0006c274       ?SaveCompleted@COleObject@@QAAXPAUIStorage@@@Z 1006d274 f   riched60:coleobj.obj
 0001:0006c3b0       ?GetRectuv@COleObject@@QBAXAAURECTUV@@PAVCDisplay@@_N@Z 1006d3b0 f   riched60:coleobj.obj
 0001:0006c600       ?SetExtent@COleObject@@AAAJH@Z 1006d600 f   riched60:coleobj.obj
 0001:0006c7a4       ?SafeSaveObject@COleObject@@UAAJXZ 1006d7a4 f   riched60:coleobj.obj
 0001:0006c910       ?OnShowWindow@COleObject@@UAAJH@Z 1006d910 f   riched60:coleobj.obj
 0001:0006c9f0       ?GetWindowContext@COleObject@@UAAJPAPAUIOleInPlaceFrame@@PAPAUIOleInPlaceUIWindow@@PAUtagRECT@@2PAUtagOIFI@@@Z 1006d9f0 f   riched60:coleobj.obj
 0001:0006cb38       ?OnInPlaceDeactivate@COleObject@@UAAJXZ 1006db38 f   riched60:coleobj.obj
 0001:0006cc08       ?OnViewChange@COleObject@@UAAXKJ@Z 1006dc08 f   riched60:coleobj.obj
 0001:0006cd2c       ?InitFromREOBJECT@COleObject@@QAAJPAVCTxtStory@@JPAU_reobject@@@Z 1006dd2c f   riched60:coleobj.obj
 0001:0006d030       ?CheckForHandleHit@COleObject@@QAAPAGABUtagLSPOINTUV@@H@Z 1006e030 f   riched60:coleobj.obj
 0001:0006d330       ??1COleObject@@EAA@XZ      1006e330 f   riched60:coleobj.obj
 0001:0006d378       ?QueryInterface@COleObject@@W3AAJABU_GUID@@PAPAX@Z 1006e378 f i riched60:coleobj.obj
 0001:0006d380       ?QueryInterface@COleObject@@W7AAJABU_GUID@@PAPAX@Z 1006e380 f i riched60:coleobj.obj
 0001:0006d388       ?Release@COleObject@@W3AAKXZ 1006e388 f i riched60:coleobj.obj
 0001:0006d390       ?Release@COleObject@@W7AAKXZ 1006e390 f i riched60:coleobj.obj
 0001:0006d398       ?AddRef@COleObject@@W3AAKXZ 1006e398 f i riched60:coleobj.obj
 0001:0006d3a0       ??_ECOleObject@@GM@AAPAXI@Z 1006e3a0 f i riched60:coleobj.obj
 0001:0006d3a8       ?AddRef@COleObject@@W7AAKXZ 1006e3a8 f i riched60:coleobj.obj
 0001:0006d3b0       ?MakeZombie@COleObject@@QAAXXZ 1006e3b0 f   riched60:coleobj.obj
 0001:0006d418       ?ActivateObj@COleObject@@QAAHIIJ@Z 1006e418 f   riched60:coleobj.obj
 0001:0006d628       ?DeActivateObj@COleObject@@QAAJXZ 1006e628 f   riched60:coleobj.obj
 0001:0006d794       ?Resize@COleObject@@QAAXABUSIZEUV@@HH@Z 1006e794 f   riched60:coleobj.obj
 0001:0006d930       ?OnReposition@COleObject@@QAAXXZ 1006e930 f   riched60:coleobj.obj
 0001:0006da28       ?OnUIDeactivate@COleObject@@UAAJH@Z 1006ea28 f   riched60:coleobj.obj
 0001:0006db70       ??0COleObject@@QAA@PAVCTxtEdit@@PAVCTxtStory@@@Z 1006eb70 f   riched60:coleobj.obj
 0001:0006dbf4       ??_GCOleObject@@EAAPAXI@Z  1006ebf4 f i riched60:coleobj.obj
 0001:0006dbf4       ??_ECOleObject@@EAAPAXI@Z  1006ebf4 f i riched60:coleobj.obj
 0001:0006dc18       ?Delete@COleObject@@QAAXPAVIUndoBuilder@@@Z 1006ec18 f   riched60:coleobj.obj
 0001:0006dd10       ?HandleResize@COleObject@@QAAHABUtagPOINT@@@Z 1006ed10 f   riched60:coleobj.obj
 0001:0006e10c       ?ContinueMButtonScroll@CMagellan@@QAAHPAVCTxtEdit@@HH@Z 1006f10c f   riched60:magellan.obj
 0001:0006e174       ?MagellanRollScroll@CMagellan@@QAAXPAVCDisplay@@HGHHH@Z 1006f174 f   riched60:magellan.obj
 0001:0006e298       ?MagellanStartMButtonScroll@CMagellan@@QAAHAAVCTxtEdit@@UtagPOINT@@@Z 1006f298 f   riched60:magellan.obj
 0001:0006e370       ?InvertMagellanDownBMP@CMagellan@@AAAHPAVCDisplay@@HPAUHDC__@@@Z 1006f370 f   riched60:magellan.obj
 0001:0006e4d8       ??0CMagellanBMPStateWrap@@QAA@AAVCTxtEdit@@PAUHDC__@@@Z 1006f4d8 f   riched60:magellan.obj
 0001:0006e544       ??1CMagellanBMPStateWrap@@QAA@XZ 1006f544 f   riched60:magellan.obj
 0001:0006e564       ?MagellanEndMButtonScroll@CMagellan@@QAAXAAVCTxtEdit@@@Z 1006f564 f   riched60:magellan.obj
 0001:0006e5dc       ?TrackUpdateMagellanMButtonDown@CMagellan@@QAAXAAVCTxtEdit@@UtagPOINT@@@Z 1006f5dc f   riched60:magellan.obj
 0001:0006ea08       ?RegisterFETCs@@YAXXZ      1006fa08 f   riched60:dxfrobj.obj
 0001:0006eaf8       ?QueryInterface@CDataTransferObj@@UAAJABU_GUID@@PAPAX@Z 1006faf8 f   riched60:dxfrobj.obj
 0001:0006ec2c       ?AddRef@CDataTransferObj@@UAAKXZ 1006fc2c f   riched60:dxfrobj.obj
 0001:0006ec40       ?DAdvise@CDataTransferObj@@UAAJPAUtagFORMATETC@@KPAUIAdviseSink@@PAK@Z 1006fc40 f   riched60:dxfrobj.obj
 0001:0006ec4c       ?DUnadvise@CDataTransferObj@@UAAJK@Z 1006fc4c f   riched60:dxfrobj.obj
 0001:0006ec58       ?EnumDAdvise@CDataTransferObj@@UAAJPAPAUIEnumSTATDATA@@@Z 1006fc58 f   riched60:dxfrobj.obj
 0001:0006ec64       ?GetCanonicalFormatEtc@CDataTransferObj@@UAAJPAUtagFORMATETC@@0@Z 1006fc64 f   riched60:dxfrobj.obj
 0001:0006ec70       ?GetStorage@CDataTransferObj@@AAAPAUIStorage@@XZ 1006fc70 f   riched60:dxfrobj.obj
 0001:0006edc4       ?GetObjectDescriptor@CDataTransferObj@@AAAPAXXZ 1006fdc4 f   riched60:dxfrobj.obj
 0001:0006ee78       ?GetMetaFile@CDataTransferObj@@AAAPAUHMETAFILE__@@XZ 1006fe78 f   riched60:dxfrobj.obj
 0001:0006ef54       ?GetDataHere@CDataTransferObj@@UAAJPAUtagFORMATETC@@PAUtagSTGMEDIUM@@@Z 1006ff54 f   riched60:dxfrobj.obj
 0001:0006f170       ?QueryGetData@CDataTransferObj@@UAAJPAUtagFORMATETC@@@Z 10070170 f   riched60:dxfrobj.obj
 0001:0006f1e4       ?SetData@CDataTransferObj@@UAAJPAUtagFORMATETC@@PAUtagSTGMEDIUM@@H@Z 100701e4 f   riched60:dxfrobj.obj
 0001:0006f1f0       ?InsertIntoRange@CDataTransferObj@@QAAJPAVCTxtRange@@PAVIUndoBuilder@@@Z 100701f0 f   riched60:dxfrobj.obj
 0001:0006f29c       ?OnPostReplaceRange@CDataTransferObj@@UAAXJJJJJPAUNOTIFY_DATA@@@Z 1007029c f   riched60:dxfrobj.obj
 0001:0006f2a0       ?Zombie@CDataTransferObj@@UAAXXZ 100702a0 f   riched60:dxfrobj.obj
 0001:0006f2d8       ?TextToHglobal@CDataTransferObj@@AAAPAXAAPAXW4TEXTKIND@1@@Z 100702d8 f   riched60:dxfrobj.obj
 0001:0006f39c       ?QueryInterface@CEnumFormatEtc@@UAAJABU_GUID@@PAPAX@Z 1007039c f   riched60:dxfrobj.obj
 0001:0006f410       ?AddRef@CEnumFormatEtc@@UAAKXZ 10070410 f   riched60:dxfrobj.obj
 0001:0006f424       ?Next@CEnumFormatEtc@@UAAJKPAUtagFORMATETC@@PAK@Z 10070424 f   riched60:dxfrobj.obj
 0001:0006f4b4       ?Skip@CEnumFormatEtc@@UAAJK@Z 100704b4 f   riched60:dxfrobj.obj
 0001:0006f4ec       ?Reset@CEnumFormatEtc@@UAAJXZ 100704ec f   riched60:dxfrobj.obj
 0001:0006f4fc       ?GetData@CDataTransferObj@@UAAJPAUtagFORMATETC@@PAUtagSTGMEDIUM@@@Z 100704fc f   riched60:dxfrobj.obj
 0001:0006f854       ?OnPreReplaceRange@CDataTransferObj@@UAAXJJJJJPAUNOTIFY_DATA@@@Z 10070854 f   riched60:dxfrobj.obj
 0001:0006fa9c       ?Persist@CDataTransferObj@@QAAXXZ 10070a9c f   riched60:dxfrobj.obj
 0001:0006fba0       ?Create@CDataTransferObj@@SAPAV1@PAVCTxtEdit@@PAVCTxtRange@@J@Z 10070ba0 f   riched60:dxfrobj.obj
 0001:00070174       ??1CDataTransferObj@@AAA@XZ 10071174 f   riched60:dxfrobj.obj
 0001:00070250       ?Release@CEnumFormatEtc@@UAAKXZ 10071250 f   riched60:dxfrobj.obj
 0001:00070294       ?Create@CEnumFormatEtc@@SAJPAUtagFORMATETC@@JPAPAUIEnumFORMATETC@@@Z 10071294 f   riched60:dxfrobj.obj
 0001:00070350       ?EnumFormatEtc@CDataTransferObj@@UAAJKPAPAUIEnumFORMATETC@@@Z 10071350 f   riched60:dxfrobj.obj
 0001:0007039c       ?Clone@CEnumFormatEtc@@UAAJPAPAUIEnumFORMATETC@@@Z 1007139c f   riched60:dxfrobj.obj
 0001:000703ac       ?Release@CDataTransferObj@@UAAKXZ 100713ac f   riched60:dxfrobj.obj
 0001:00070408       ?IsItemNonEmpty@CNumberUpdater@@AAA_NABVCNmpRun@@J@Z 10071408 f i riched60:textex.obj
 0001:0007050c       ?CalcParaChunks@@YAJAAVCTxtPtr@@JAAPAJJ@Z 1007150c f i riched60:textex.obj
 0001:000705d4       ?GetPlainText@CTxtPtrEx@@QAAJJPAGJK@Z 100715d4 f   riched60:textex.obj
 0001:00070610       ?BindToCp@CTxtPtrEx@@QAAJJ@Z 10071610 f   riched60:textex.obj
 0001:00070640       ?SetCp@CTxtPtrEx@@QAAJJ@Z  10071640 f   riched60:textex.obj
 0001:0007066c       ?Move@CTxtPtrEx@@QAAJJ@Z   1007166c f   riched60:textex.obj
 0001:00070738       ?Zombie@CTxtPtrEx@@QAAXXZ  10071738 f   riched60:textex.obj
 0001:00070750       ?AdjustCRLF@CTxtPtrEx@@QAAJJ@Z 10071750 f   riched60:textex.obj
 0001:0007077c       ?AdvanceCRLF@CTxtPtrEx@@QAAJW4CSCONTROL@@@Z 1007177c f   riched60:textex.obj
 0001:000707a8       ?BackupCRLF@CTxtPtrEx@@QAAJW4CSCONTROL@@@Z 100717a8 f   riched60:textex.obj
 0001:000707d4       ?MoveWhile@CTxtPtrEx@@QAAJJGGH@Z 100717d4 f   riched60:textex.obj
 0001:00070810       ?FindText@CTxtPtrEx@@QAAJJKPBGJ@Z 10071810 f   riched60:textex.obj
 0001:0007084c       ?FindBOSentence@CTxtPtrEx@@QAAJJ@Z 1007184c f   riched60:textex.obj
 0001:00070878       ?FindWordBreak@CTxtPtrEx@@QAAJHJ@Z 10071878 f   riched60:textex.obj
 0001:000708a4       ?CheckNmpRuns@CTxtPtrEx@@QAAXXZ 100718a4 f   riched60:textex.obj
 0001:000708d4       ?HandleReplaceRangeUndo@CTxtPtrEx@@AAAXJJPAVIUndoBuilder@@PAVIAntiEvent@@1@Z 100718d4 f   riched60:textex.obj
 0001:000709f4       ?FillOutNumberData@CNumberUpdater@@AAAXABVCFormatRunPtr@@ABVCNmpRun@@JF@Z 100719f4 f   riched60:textex.obj
 0001:00070aa4       ??0CTxtPtrEx@@QAA@PAVCTxtEdit@@JPAVCTxtStory@@@Z 10071aa4 f   riched60:textex.obj
 0001:00070aec       ??0CTxtPtrEx@@QAA@ABV0@@Z  10071aec f   riched60:textex.obj
 0001:00070b10       ?FindEOP@CTxtPtrEx@@QAAJJPAJH@Z 10071b10 f   riched60:textex.obj
 0001:00070e14       ?InsertRange@CTxtPtrEx@@AAAJJPBG@Z 10071e14 f   riched60:textex.obj
 0001:00071274       ?DeleteRange@CTxtPtrEx@@AAAXJ@Z 10072274 f   riched60:textex.obj
 0001:00071458       ?GetFirstInPara@CTxtPtrEx@@QBAJXZ 10072458 f   riched60:textex.obj
 0001:000714b4       ??0CNumberUpdater@@QAA@PAVCTxtEdit@@ABVCTxtPtr@@ABVCNmpPtr@@PAVCFormatRunPtr@@E@Z 100724b4 f   riched60:textex.obj
 0001:000715cc       ?FindPreviousItem@CNumberUpdater@@AAA_NEJ@Z 100725cc f   riched60:textex.obj
 0001:000716e4       ?IsListChanged@CNumberUpdater@@QAA_NABVCParaFormat@@J@Z 100726e4 f   riched60:textex.obj
 0001:000717d8       ?UpdateNumbering@CNumberUpdater@@QAA_NJ@Z 100727d8 f   riched60:textex.obj
 0001:00071a6c       ?OnReplaceRange@CNmpPtr@@QAAHJJAAVCTxtPtr@@PAVCTxtEdit@@PAVCFormatRunPtr@@PAJ@Z 10072a6c f   riched60:textex.obj
 0001:00072400       ?BuildNmpRuns@CTxtPtrEx@@QAAHPAVCFormatRunPtr@@@Z 10073400 f   riched60:textex.obj
 0001:00072500       ?UpdateNumbering@CTxtPtrEx@@QAAXAAJPAVCFormatRunPtr@@@Z 10073500 f   riched60:textex.obj
 0001:000725a8       ?ReplaceRange@CTxtPtrEx@@AAAJJJPBGPAVCFormatRunPtr@@PAJPAVIUndoBuilder@@PAVIAntiEvent@@4@Z 100735a8 f   riched60:textex.obj
 0001:0007284c       ?TranslateRange@CTxtPtrEx@@AAAJJIHPAVIUndoBuilder@@@Z 1007384c f   riched60:textex.obj
 0001:00072a70       ?FShadeRun@CMeasurerNoFC@@QBAHXZ 10073a70 f i riched60:ols.obj
 0001:00072ab8       ?SetSpecialBulletRun@CLsrun@@QAAXW4SpecialBulletRun@@@Z 10073ab8 f i riched60:ols.obj
 0001:00072b00       ?ReleaseLastRun@COls@@QAAXXZ 10073b00 f i riched60:ols.obj
 0001:00072d70       ?GetTeXStyleFromLSStyle@@YAEPBUlsmathstyle@@@Z 10073d70 f   riched60:ols.obj
 0001:00072dc8       ?Init@CHyphenationHelper@@QAAHPAVCMeasurerNoFC@@PAVCHyphCache@@JJ@Z 10073dc8 f   riched60:ols.obj
 0001:0007305c       ?Hyphenate@CHyphenationHelper@@QAAHPAJPAGPAW4lskysr@@@Z 1007405c f   riched60:ols.obj
 0001:0007313c       ?SetRun@COls@@QAAHPAUCLsrun@@@Z 1007413c f   riched60:ols.obj
 0001:00073178       ?GetCSCO@COls@@QBAJPBVCCharFormat@@_N@Z 10074178 f   riched60:ols.obj
 0001:000731b4       ?FOTxHostLineReusable@@YA_NPAUCOls@@@Z 100741b4 f i riched60:ols.obj
 0001:00073274       ?CheckSetTables@COls@@QAAJXZ 10074274 f   riched60:ols.obj
 0001:00073320       ?ReleaseRun@COls@@QAAJPAUCLsrun@@@Z 10074320 f   riched60:ols.obj
 0001:0007336c       ?ClearEmphasisFont@COls@@QAAXXZ 1007436c f   riched60:ols.obj
 0001:0007339c       ?GetRunCharFormat@COls@@QBAPBVCCharFormat@@PAUCLsrun@@@Z 1007439c f   riched60:ols.obj
 0001:000733ac       ?FUnderline@COls@@QBAHPBVCCharFormat@@@Z 100743ac f   riched60:ols.obj
 0001:000733f4       ?GetOpticalAlignment@COls@@QAAJPAUCLsrun@@GK@Z 100743f4 f   riched60:ols.obj
 0001:0007347c       ?CallGetRectsOfRangeCbk@COls@@QBAJPBUtagLSPOINT@@KABUtagLSPOINTUV@@1@Z 1007447c f   riched60:ols.obj
 0001:0007355c       ?OlsGetNumericSeparators@@YAJPAUCOls@@PAUCLsrun@@PAG2@Z 1007455c f   riched60:ols.obj
 0001:00073600       ?OlsFetchPap@@YAJPAUCOls@@JPAUlspap@@@Z 10074600 f   riched60:ols.obj
 0001:00073a94       ?OlsReleaseTabsBuffer@@YAJPAUCOls@@PAULSTBD@@@Z 10074a94 f   riched60:ols.obj
 0001:00073a9c       ?OlsGetBreakThroughTab@@YAJPAUCOls@@JJPAJ@Z 10074a9c f   riched60:ols.obj
 0001:00073af8       ?OlsGetRunSecondaryUnderlineInfo@@YAJPAUCOls@@PAUCLsrun@@PBUheights@@KPAUlsulinfo@@@Z 10074af8 f   riched60:ols.obj
 0001:00073b04       ?OlsInterruptShade@@YAJPAUCOls@@PAUCLsrun@@1PAH@Z 10074b04 f   riched60:ols.obj
 0001:00073b14       ?OlsShadeRectangle@@YAJPAUCOls@@PAUCLsrun@@PBUtagLSPOINT@@PBUheights@@3333JJKIPBUtagLSRECT@@@Z 10074b14 f   riched60:ols.obj
 0001:00073c64       ?OlsFTruncateBefore@@YAJPAUCOls@@PAUCLsrun@@JGJ1JGJJPAH@Z 10074c64 f   riched60:ols.obj
 0001:00073c78       ?OlsCanBreakBeforeChar@@YAJPAUCOls@@JPAW4BRKCOND@@@Z 10074c78 f   riched60:ols.obj
 0001:00073c94       ?OlsCanBreakAfterChar@@YAJPAUCOls@@JPAW4BRKCOND@@@Z 10074c94 f   riched60:ols.obj
 0001:00073cb0       ?OlsFCancelHangingPunct@@YAJPAUCOls@@JJGEPAH@Z 10074cb0 f   riched60:ols.obj
 0001:00073cc4       ?OlsModifyCompAtLastChar@@YAJPAUCOls@@JJGEJJPAJ@Z 10074cc4 f   riched60:ols.obj
 0001:00073cd8       ?OlsGetCharExpansionInfoFullMixed@@YAJPAUCOls@@W4lsdevice@@KPBUlscharruninfo@@PBUlsneighborinfo@@3JPAPAJ4@Z 10074cd8 f   riched60:ols.obj
 0001:00073dfc       ?OlsGetGlyphExpansionInfoFullMixed@@YAJPAUCOls@@W4lsdevice@@KPBUlsglyphruninfo@@PBUlsneighborinfo@@3JPAPAJ4PAEPAJ@Z 10074dfc f   riched60:ols.obj
 0001:00074020       ?OlsGetCharCompressionInfoFullMixed@@YAJPAUCOls@@W4lsdevice@@KPBUlscharruninfo@@PBUlsneighborinfo@@3JPAPAJ4@Z 10075020 f   riched60:ols.obj
 0001:00074128       ?OlsGetGlyphCompressionInfoFullMixed@@YAJPAUCOls@@W4lsdevice@@KPBUlsglyphruninfo@@PBUlsneighborinfo@@3JPAPAJ4@Z 10075128 f   riched60:ols.obj
 0001:000742c8       ?OlsReleaseGlyphBuffers@@YAJPAUCOls@@PAGPAK@Z 100752c8 f   riched60:ols.obj
 0001:000742d0       ?OlsGetGlyphExpansionInkInfo@@YAJPAUCOls@@PAUCLsrun@@W4lsdevice@@GKKJPAJ@Z 100752d0 f   riched60:ols.obj
 0001:000742fc       ?OlsCheckForDigit@@YAJPAUCOls@@PAUCLsrun@@GPAH@Z 100752fc f   riched60:ols.obj
 0001:0007434c       ?OlsFGetLastLineJustification@@YAJPAUCOls@@W4_lskjust@@HW4lskalign@@W4endres@@PAHPAW43@@Z 1007534c f   riched60:ols.obj
 0001:0007439c       ?OlsGetHyphenInfo@@YAJPAUCOls@@PAUCLsrun@@PAUlshyph@@@Z 1007539c f   riched60:ols.obj
 0001:000743bc       ?OlsGetCharAlignmentStartLine@@YAJPAUCOls@@W4lsdevice@@KPAUCLsrun@@GPAJ@Z 100753bc f   riched60:ols.obj
 0001:000743e4       ?OlsGetCharAlignmentEndLine@@YAJPAUCOls@@W4lsdevice@@KPAUCLsrun@@GPAJ@Z 100753e4 f   riched60:ols.obj
 0001:0007440c       ?OlsGetGlyphAlignmentStartLine@@YAJPAUCOls@@W4lsdevice@@KPAUCLsrun@@GKPAJ@Z 1007540c f   riched60:ols.obj
 0001:00074434       ?OlsGetGlyphAlignmentEndLine@@YAJPAUCOls@@W4lsdevice@@KPAUCLsrun@@GKPAJ@Z 10075434 f   riched60:ols.obj
 0001:0007445c       ?OlsGetPriorityForGoodTypography@@YAJPAUCOls@@PAJ@Z 1007545c f   riched60:ols.obj
 0001:0007446c       ?OlsCreateGroupEffectClient@@YAJPAUCOls@@PAPAUlsgeclient@@@Z 1007546c f   riched60:ols.obj
 0001:00074478       ?OlsDrawTextRunGroupEffect@@YAJPAUCOls@@PAUlsgeclient@@PAUCLsrun@@PBUtagLSPOINT@@PBGPBJJKI3PBUheights@@JPBUtagLSRECT@@@Z 10075478 f   riched60:ols.obj
 0001:00074484       ?OlsDrawGlyphsGroupEffect@@YAJPAUCOls@@PAUlsgeclient@@PAUCLsrun@@PAGPBG4J4PBJ5PBUtagLSGOFFSET@@PBKPBEJKIPBUtagLSPOINT@@PBUheights@@JPBUtagLSRECT@@@Z 10075484 f   riched60:ols.obj
 0001:00074490       ?OlsDrawGroupEffect@@YAJPAUCOls@@PAUlsgeclient@@@Z 10075490 f   riched60:ols.obj
 0001:0007449c       ?OlsDestroyGroupEffectClient@@YAJPAUCOls@@PAUlsgeclient@@@Z 1007549c f   riched60:ols.obj
 0001:000744a8       ?OlsEnumText@@YAJPAUCOls@@PAUCLsrun@@JJPBGJKHHPBUtagLSPOINT@@PBUheights@@JHPAJ222PBJPAUtagLSGOFFSET@@PAKJ@Z 100754a8 f   riched60:ols.obj
 0001:00074768       ?OlsEnumTab@@YAJPAUCOls@@PAUCLsrun@@JPBGGKHHPBUtagLSPOINT@@PBUheights@@J@Z 10075768 f   riched60:ols.obj
 0001:000747e0       ?OlsReleaseRun@@YAJPAUCOls@@PAUCLsrun@@@Z 100757e0 f   riched60:ols.obj
 0001:000747fc       ?OlsReleaseRunBuffer@@YAJPAUCOls@@PAUCLsrun@@PAG@Z 100757fc f   riched60:ols.obj
 0001:00074804       ?OlsNewPtr@@YAPAXPAUCOls@@J@Z 10075804 f   riched60:ols.obj
 0001:00074810       ?OlsDisposePtr@@YAXPAUCOls@@PAX@Z 10075810 f   riched60:ols.obj
 0001:00074818       ?OlsReallocPtr@@YAPAXPAUCOls@@PAXJ@Z 10075818 f   riched60:ols.obj
 0001:00074824       ?OlsReverseGetInfo@@YAJPAUCOls@@JPAUCLsrun@@PAH2@Z 10075824 f   riched60:ols.obj
 0001:0007483c       ?OlsReverseEnum@@YAJPAUCOls@@PAUCLsrun@@PBUlschp@@JJKHHPBUtagLSPOINT@@3PBUheights@@JKPAUlssubl@@@Z 1007583c f   riched60:ols.obj
 0001:00074868       ?OlsGetObjectHandlerInfo@@YAJPAUCOls@@JPAX@Z 10075868 f   riched60:ols.obj
 0001:00074894       ?GetPlsrun@CLsrunCache@@QAAPAUCLsrun@@J@Z 10075894 f i riched60:ols.obj
 0001:000748e4       ?SaveLastRunForCloning@COls@@QAAXJPBGJABUlschp@@PAUCLsrun@@@Z 100758e4 f i riched60:ols.obj
 0001:0007493c       ?FindLsrun@CLsrunCache@@QAAPAUCLsrun@@JAAJ0@Z 1007593c f   riched60:ols.obj
 0001:00074a58       ?GetCpLsFromCpRe@COls@@QAAJJ@Z 10075a58 f   riched60:ols.obj
 0001:00074a9c       ?AddBraceCp@COls@@QAAHJ@Z  10075a9c f   riched60:ols.obj
 0001:00074b40       ?BracesBeforeCp@COls@@QAAJJJ@Z 10075b40 f   riched60:ols.obj
 0001:00074c30       ?Init@COls@@QAAJABVCMeasurerLS@@@Z 10075c30 f   riched60:ols.obj
 0001:00074ef4       ?DestroyLine@COls@@QAAXPBVCDisplay@@@Z 10075ef4 f   riched60:ols.obj
 0001:00074ff0       ?CheckEmphasisFont@COls@@QAAHXZ 10075ff0 f   riched60:ols.obj
 0001:000750cc       ?GetdupLine@COls@@QBAJPBVCDisplay@@@Z 100760cc f   riched60:ols.obj
 0001:000751a0       ?OlsFetchLineProps@@YAJPAUCOls@@JHPAUlslineprops@@@Z 100761a0 f   riched60:ols.obj
 0001:0007570c       ?OlsFetchTabs@@YAJPAUCOls@@JPAUlstabs@@PAHPAJPAG@Z 1007670c f   riched60:ols.obj
 0001:00075920       ?OlsGetRunCharWidths@@YAJPAUCOls@@PAUCLsrun@@W4lsdevice@@PBGJJKPAJ44@Z 10076920 f   riched60:ols.obj
 0001:00075a6c       ?OlsGetRunTextMetrics@@YAJPAUCOls@@PAUCLsrun@@W4lsdevice@@KPAUlstxm@@@Z 10076a6c f   riched60:ols.obj
 0001:00075d48       ?OlsGetRunUnderlineInfo@@YAJPAUCOls@@PAUCLsrun@@PBUheights@@KPAUlsulinfo@@@Z 10076d48 f   riched60:ols.obj
 0001:00075dc4       ?OlsGetRunStrikethroughInfo@@YAJPAUCOls@@PAUCLsrun@@PBUheights@@KPAUlsstinfo@@@Z 10076dc4 f   riched60:ols.obj
 0001:00075e40       ?OlsDrawUnderline@@YAJPAUCOls@@PAUCLsrun@@IPBUtagLSPOINT@@JJKIPBUtagLSRECT@@@Z 10076e40 f   riched60:ols.obj
 0001:00075ed0       ?OlsDrawStrikethrough@@YAJPAUCOls@@PAUCLsrun@@IPBUtagLSPOINT@@JJKIPBUtagLSRECT@@@Z 10076ed0 f   riched60:ols.obj
 0001:00075f60       ?OlsFInterruptUnderline@@YAJPAUCOls@@PAUCLsrun@@J1JPAH@Z 10076f60 f   riched60:ols.obj
 0001:00076000       ?OlsDrawTextRun@@YAJPAUCOls@@PAUCLsrun@@PBUtagLSPOINT@@PBGPBJJKI2PBUheights@@JPBUtagLSRECT@@@Z 10077000 f   riched60:ols.obj
 0001:0007610c       ?OlsDrawEffects@@YAJPAUCOls@@PAUCLsrun@@IPBUtagLSPOINT@@PBGPBJ4JKIPBUheights@@JPBUtagLSRECT@@@Z 1007710c f   riched60:ols.obj
 0001:000761e0       ?OlsFHangingPunct@@YAJPAUCOls@@PAUCLsrun@@EGPAH@Z 100771e0 f   riched60:ols.obj
 0001:0007625c       ?OlsGetEmWidth@@YAJPAUCOls@@PAUCLsrun@@KPAJ@Z 1007725c f   riched60:ols.obj
 0001:000762cc       ?OlsFInterruptShaping@@YAJPAUCOls@@KPAUCLsrun@@1PAH@Z 100772cc f   riched60:ols.obj
 0001:0007637c       ?OlsGetGlyphs@@YAJPAUCOls@@PBQAUCLsrun@@PBJJPBGJKPAG4PAHPAPAGPAPAKPAJ@Z 1007737c f   riched60:ols.obj
 0001:00076438       ?OlsGetGlyphPositions@@YAJPAUCOls@@PBQAUCLsrun@@PBJJW4lsdevice@@PAGPBG5J5PBKJKPAJPAUtagLSGOFFSET@@@Z 10077438 f   riched60:ols.obj
 0001:00076510       ?OlsDrawGlyphs@@YAJPAUCOls@@PAUCLsrun@@PAGPBG3J3PBJ4PBUtagLSGOFFSET@@PBKPBEJKIPBUtagLSPOINT@@PBUheights@@JPBUtagLSRECT@@@Z 10077510 f   riched60:ols.obj
 0001:00076624       ?OlsGetGlyphExpansionInfo@@YAJPAUCOls@@PBQAUCLsrun@@PBJJW4lsdevice@@PBG44J4PBKJKHPAEPAUlsexpinfo@@@Z 10077624 f   riched60:ols.obj
 0001:00076714       ?OlsGetEms@@YAJPAUCOls@@PAUCLsrun@@KPAUlsems@@@Z 10077714 f   riched60:ols.obj
 0001:00076784       ?OlsPunctStartLine@@YAJPAUCOls@@PAUCLsrun@@EGPAU_lsact@@@Z 10077784 f   riched60:ols.obj
 0001:000767f8       ?OlsModWidthOnRun@@YAJPAUCOls@@KPAUCLsrun@@G1GPAHPAU_lsact@@PAJ@Z 100777f8 f   riched60:ols.obj
 0001:000768c0       ?OlsModWidthSpace@@YAJPAUCOls@@PAUCLsrun@@1G1GPAU_lsact@@@Z 100778c0 f   riched60:ols.obj
 0001:000769a4       ?OlsCompOnRun@@YAJPAUCOls@@PAUCLsrun@@G1GPAUlspract@@@Z 100779a4 f   riched60:ols.obj
 0001:00076a4c       ?OlsCompWidthSpace@@YAJPAUCOls@@PAUCLsrun@@1G1GPAUlspract@@@Z 10077a4c f   riched60:ols.obj
 0001:00076b30       ?OlsExpOnRun@@YAJPAUCOls@@PAUCLsrun@@G1GPAU_lsact@@@Z 10077b30 f   riched60:ols.obj
 0001:00076bd8       ?OlsExpWidthSpace@@YAJPAUCOls@@PAUCLsrun@@1G1GPAU_lsact@@@Z 10077bd8 f   riched60:ols.obj
 0001:00076cbc       ?OlsGetModWidthClasses@@YAJPAUCOls@@PAUCLsrun@@PBGJPAE@Z 10077cbc f   riched60:ols.obj
 0001:00076d30       ?OlsCheckRunKernability@@YAJPAUCOls@@PAUCLsrun@@1PAH@Z 10077d30 f   riched60:ols.obj
 0001:00076dd8       ?OlsGetRunCharKerning@@YAJPAUCOls@@PAUCLsrun@@W4lsdevice@@PBGJKPAJ@Z 10077dd8 f   riched60:ols.obj
 0001:00076e6c       ?GetCpReFromCpLs@COls@@QAAJJ@Z 10077e6c f   riched60:ols.obj
 0001:00076f20       ?FBraceAtCp@COls@@QAAHJ@Z  10077f20 f   riched60:ols.obj
 0001:00076fa8       ?CreatePlsrun@COls@@QAAPAUCLsrun@@JHG@Z 10077fa8 f   riched60:ols.obj
 0001:00077180       ?ClonePlsrun@COls@@QAAPAUCLsrun@@PBU2@J@Z 10078180 f   riched60:ols.obj
 0001:00077200       ?GetPlsrun@COls@@QAAPAUCLsrun@@JHJHPBGAAHPAUlschp@@GPAHJJEW4SpecialBulletRun@@@Z 10078200 f   riched60:ols.obj
 0001:000773a8       ??1COls@@QAA@XZ            100783a8 f   riched60:ols.obj
 0001:0007745c       ?QueryLineInfo@COls@@QAAXAAUlslinfo@@PAJ11111H@Z 1007845c f   riched60:ols.obj
 0001:00077614       ?PreMeasureLine@COls@@QAAHJ_NAAJ@Z 10078614 f   riched60:ols.obj
 0001:00077934       ?PostMeasureLine@COls@@QAAXJAAUlslinfo@@@Z 10078934 f   riched60:ols.obj
 0001:00077b4c       ?MeasureLine@COls@@QAAJIPAJJ_N1100@Z 10078b4c f   riched60:ols.obj
 0001:000781a4       ?CreateOrGetLine@COls@@QAAXJ_N@Z 100791a4 f   riched60:ols.obj
 0001:0007822c       ?MeasureText@COls@@QAAJJJIPAVCDispDim@@@Z 1007922c f   riched60:ols.obj
 0001:00078844       ?CchFromUp@COls@@QAAXUtagLSPOINTUV@@PAVCDispDim@@PAJ@Z 10079844 f   riched60:ols.obj
 0001:00078db8       ?SetLsChp@COls@@QAAXKPAUCLsrun@@PAUlschp@@PAH@Z 10079db8 f   riched60:ols.obj
 0001:00079418       ?FetchAnmRun@COls@@QAAJJPAPBGPAJPAHPAUlschp@@PAPAUCLsrun@@@Z 1007a418 f   riched60:ols.obj
 0001:00079614       ?OlsGetAutoNumberInfo@@YAJPAUCOls@@PAW4lskalign@@PAUlschp@@PAPAUCLsrun@@PAG23PAHPAJ6@Z 1007a614 f   riched60:ols.obj
 0001:00079864       ?OlsCheckParaBoundaries@@YAJPAUCOls@@JJPAH@Z 1007a864 f   riched60:ols.obj
 0001:000798bc       ?OlsGetBreakingClasses@@YAJPAUCOls@@PAUCLsrun@@JGPAJ2@Z 1007a8bc f   riched60:ols.obj
 0001:0007994c       ?OlsHyphenate@@YAJPAUCOls@@HJPBUlshyph@@JJPAHPAJPAU2@@Z 1007a94c f   riched60:ols.obj
 0001:00079ac4       ?OlsGetPrevHyphenOpp@@YAJPAUCOls@@JJPAHPAJPAUlshyph@@@Z 1007aac4 f   riched60:ols.obj
 0001:00079e3c       ?OlsGetNextHyphenOpp@@YAJPAUCOls@@JJPAHPAJPAUlshyph@@@Z 1007ae3c f   riched60:ols.obj
 0001:0007a1d0       ?SameLevel@CFormatRunPtr@@QAAHE@Z 1007b1d0 f i riched60:ols.obj
 0001:0007a228       ?CloneRunFromLastSaved@COls@@QAA_NJPAPBGPAJPAUlschp@@PAPAUCLsrun@@@Z 1007b228 f i riched60:ols.obj
 0001:0007a2c4       ?EmitBrace@COls@@QAAHJPAUlschp@@PAHPAJPAPAUCLsrun@@PAPBGHPBG@Z 1007b2c4 f   riched60:ols.obj
 0001:0007a3e8       ?RenderLine@COls@@QAAHAAVCRenderer@@AAUCLine@@H@Z 1007b3e8 f   riched60:ols.obj
 0001:0007a6cc       ?GetRectsOfRange@COls@@QAAHJJABUtagLSPOINTUV@@JJ@Z 1007b6cc f   riched60:ols.obj
 0001:0007a884       ?FetchRun@COls@@QAAJJHPAUlsstyle@@PAPBGPAJPAHPAUlschp@@PAPAUCLsrun@@@Z 1007b884 f   riched60:ols.obj
 0001:0007bc08       ?OlsFetchRun@@YAJPAUCOls@@JHPAUlsstyle@@PAPBGPAJPAHPAUlschp@@PAPAUCLsrun@@@Z 1007cc08 f   riched60:ols.obj
 0001:0007bcc4       ??0BLOB_CREATE_DATA@@QAA@KPBUMLBLOB_CREATE_DATA@ITextMarkContainer@@@Z 1007ccc4 f i riched60:blobs.obj
 0001:0007bd08       ?IsSimplePersistBlob@CTextBlobSurrogate@@QBAHXZ 1007cd08 f i riched60:blobs.obj
 0001:0007bd88       ?SaveUsingStorage@CTextBlobSurrogate@@QAAPAXXZ 1007cd88 f i riched60:blobs.obj
 0001:0007be90       ?InsertObject@CTextBlobSurrogate@@QAAJJHPAVCTxtRange@@H@Z 1007ce90 f i riched60:blobs.obj
 0001:0007c260       ?Save@CTextBlobSurrogate@@QAAPAXXZ 1007d260 f i riched60:blobs.obj
 0001:0007c4e4       ?GetPosRect@CTextBlobSurrogate@@QBAX_NAAUtagRECT@@0@Z 1007d4e4 f i riched60:blobs.obj
 0001:0007c688       ?RetrieveProperties@CTextBlobSurrogate@@QAAJXZ 1007d688 f i riched60:blobs.obj
 0001:0007c77c       ?OnBlobPropertiesChange@CTextBlobSurrogate@@QAAJXZ 1007d77c f i riched60:blobs.obj
 0001:0007ca78       ?GetITextBlob@CTextBlobSurrogate@@QBAJPAPAUITextBlob@@@Z 1007da78 f i riched60:blobs.obj
 0001:0007cac0       ?SetEvent@CTextBlobSurrogate@@QAAHHHPAUNOTIFY_DATA@@@Z 1007dac0 f i riched60:blobs.obj
 0001:0007cb40       ?Init@CTextBoundary@@QAAHHPBUtagPOINT@@HPBHABUtagRECT@@_N@Z 1007db40 f   riched60:blobs.obj
 0001:0007cd58       ?Release@CTextBoundary@@QAAXXZ 1007dd58 f   riched60:blobs.obj
 0001:0007cd8c       ?QueryInterface@CTextMarkContainer@@EAAJABU_GUID@@PAPAX@Z 1007dd8c f   riched60:blobs.obj
 0001:0007cda4       ?AddRef@CTextMarkContainer@@EAAKXZ 1007dda4 f   riched60:blobs.obj
 0001:0007cdbc       ?Release@CTextMarkContainer@@EAAKXZ 1007ddbc f   riched60:blobs.obj
 0001:0007cdd4       ?SetBlobFactory@CTextMarkContainer@@EAAJP6AJPAPAUITextBlob@@ABU_GUID@@HPAX@Z2@Z 1007ddd4 f   riched60:blobs.obj
 0001:0007cde4       ?SetBlobFromDataObjectFactory@CTextMarkContainer@@EAAJP6AJPAUIDataObject@@PAU_charrange@@PAX@Z@Z 1007dde4 f   riched60:blobs.obj
 0001:0007cdf0       ?InsertSingleLineBlob@CTextMarkContainer@@EAAJJPAUITextBlob@@KEAAH@Z 1007ddf0 f   riched60:blobs.obj
 0001:0007ce1c       ?PinBlob@CTextMarkContainer@@EAAJPAUtagPOINT@@H@Z 1007de1c f   riched60:blobs.obj
 0001:0007ce28       ?BlobFromCp@CTextMarkContainer@@EAAJJHAAJAAH@Z 1007de28 f   riched60:blobs.obj
 0001:0007d01c       ?RemoveBlob@CTextMarkContainer@@EAAJH@Z 1007e01c f   riched60:blobs.obj
 0001:0007d028       ?InsertTracker@CTextMarkContainer@@EAAJJJPAUITextTracker@@AAH@Z 1007e028 f   riched60:blobs.obj
 0001:0007d0c0       ?GetTrackerRange@CTextMarkContainer@@EAAJHAAJ0@Z 1007e0c0 f   riched60:blobs.obj
 0001:0007d124       ?SetTrackerRange@CTextMarkContainer@@EAAJHJJ@Z 1007e124 f   riched60:blobs.obj
 0001:0007d188       ?TrackersFromCp@CTextMarkContainer@@EAAJJPAPAUIEnumTextTrackers@@@Z 1007e188 f   riched60:blobs.obj
 0001:0007d1e8       ?EnumTrackers@CTextMarkContainer@@EAAJPAPAUIEnumTextTrackers@@@Z 1007e1e8 f   riched60:blobs.obj
 0001:0007d244       ?TrackerFromHTracker@CTextMarkContainer@@EAAJHPAPAUITextTracker@@@Z 1007e244 f   riched60:blobs.obj
 0001:0007d2a4       ?RemoveTracker@CTextMarkContainer@@EAAJH@Z 1007e2a4 f   riched60:blobs.obj
 0001:0007d2fc       ?GetTextPosFromPoint@CTextMarkContainer@@EAAJUtagPOINT@@KKAAJPAUTEXTPOSFROMPOINTDETAILS@ITextMarkContainer@@@Z 1007e2fc f   riched60:blobs.obj
 0001:0007d4cc       ?GetHglobalFromBlob@CTextMarkContainer@@QAAPAXABVCOleObject@@@Z 1007e4cc f   riched60:blobs.obj
 0001:0007d56c       ?InsertBlobFromDataObject@CTextMarkContainer@@QAAJPAUIDataObject@@PAU_charrange@@@Z 1007e56c f   riched60:blobs.obj
 0001:0007d59c       ?GetBlobDvInfo@CTextMarkContainer@@QAAXABVCOleObject@@AAJ1@Z 1007e59c f   riched60:blobs.obj
 0001:0007d63c       ?GetBlobProperties@CTextMarkContainer@@QAAPAUBLOB_PROPERTIES@ITextBlob@@ABVCOleObject@@@Z 1007e63c f   riched60:blobs.obj
 0001:0007d6b0       ?DeleteAllBoundaries@CTextMarkContainer@@QAAXXZ 1007e6b0 f   riched60:blobs.obj
 0001:0007d6ec       ?BlobEvent@CTextMarkContainer@@QAAXABVCOleObject@@HHPAUNOTIFY_DATA@@@Z 1007e6ec f   riched60:blobs.obj
 0001:0007d794       ?NotifyTracker@CTextMarkContainer@@QAAHJJIIJ@Z 1007e794 f   riched60:blobs.obj
 0001:0007d7dc       ?SetBlobDrawInfo@CTextMarkContainer@@QAAXABVCOleObject@@ABUBLOB_DRAW_INFO@ITextBlob@@@Z 1007e7dc f   riched60:blobs.obj
 0001:0007d850       ?GetBlobText@CTextMarkContainer@@QAAHABVCOleObject@@HPAPAG@Z 1007e850 f   riched60:blobs.obj
 0001:0007d908       ?IsBlobSimplePersist@CTextMarkContainer@@QAAHABVCOleObject@@@Z 1007e908 f   riched60:blobs.obj
 0001:0007d970       ??1CEnumBlob@@UAA@XZ       1007e970 f   riched60:blobs.obj
 0001:0007d9a0       ?QueryInterface@CEnumBlob@@UAAJABU_GUID@@PAPAX@Z 1007e9a0 f   riched60:blobs.obj
 0001:0007da2c       ?AddRef@CEnumBlob@@UAAKXZ  1007ea2c f   riched60:blobs.obj
 0001:0007da40       ?Release@CEnumBlob@@UAAKXZ 1007ea40 f   riched60:blobs.obj
 0001:0007da74       ?Reset@CEnumBlob@@UAAJXZ   1007ea74 f   riched60:blobs.obj
 0001:0007da84       ?Skip@CEnumBlob@@UAAJK@Z   1007ea84 f   riched60:blobs.obj
 0001:0007dabc       ?DrawBlob@CTextBlobSurrogate@@QBAJPAUHDC__@@PBUtagRECT@@@Z 1007eabc f i riched60:blobs.obj
 0001:0007db74       ?BlobFromHBlob@CTextMarkContainer@@EAAJHPAPAUITextBlob@@@Z 1007eb74 f   riched60:blobs.obj
 0001:0007dc08       ?CpFromBlob@CTextMarkContainer@@EAAJHAAJ@Z 1007ec08 f   riched60:blobs.obj
 0001:0007dcec       ?GetBlobPosRect@CTextMarkContainer@@EAAJHHAAUtagRECT@@@Z 1007ecec f   riched60:blobs.obj
 0001:0007de4c       ?OnBlobPropertiesChange@CTextMarkContainer@@EAAJH@Z 1007ee4c f   riched60:blobs.obj
 0001:0007df2c       ?DeleteBoundary@CTextMarkContainer@@EAAJH@Z 1007ef2c f   riched60:blobs.obj
 0001:0007dff4       ?GetRectFromTextPos@CTextMarkContainer@@EAAJJKKAAUtagRECT@@@Z 1007eff4 f   riched60:blobs.obj
 0001:0007e800       ??1CTextMarkContainer@@UAA@XZ 1007f800 f   riched60:blobs.obj
 0001:0007e884       ?InsertInBlobArray@CTextMarkContainer@@QAAJPAVCTextBlobSurrogate@@AAHPAVCTxtStory@@@Z 1007f884 f   riched60:blobs.obj
 0001:0007e97c       ?RemoveBlob@CTextMarkContainer@@QAAXABVCOleObject@@@Z 1007f97c f   riched60:blobs.obj
 0001:0007ea80       ?DrawBlob@CTextMarkContainer@@QAAJABVCOleObject@@PAUHDC__@@PBUtagRECT@@@Z 1007fa80 f   riched60:blobs.obj
 0001:0007eb1c       ?InsertBoundaryEx@CTextMarkContainer@@QAAJHPBUtagPOINT@@HPBHABUtagRECT@@_NAAH@Z 1007fb1c f   riched60:blobs.obj
 0001:0007ec5c       ?SendBlobEvent@CTextMarkContainer@@QAAXXZ 1007fc5c f   riched60:blobs.obj
 0001:0007eddc       ??1CObjContainer@@QAA@XZ   1007fddc f   riched60:blobs.obj
 0001:0007ee54       ??0CEnumBlob@@QAA@XZ       1007fe54 f   riched60:blobs.obj
 0001:0007ee84       ??_ECEnumBlob@@UAAPAXI@Z   1007fe84 f i riched60:blobs.obj
 0001:0007ee84       ??_GCEnumBlob@@UAAPAXI@Z   1007fe84 f i riched60:blobs.obj
 0001:0007eea8       ?Clone@CEnumBlob@@UAAJPAPAUIEnumTextBlobs@@@Z 1007fea8 f   riched60:blobs.obj
 0001:0007ef94       ?Next@CEnumBlob@@UAAJKPAHPAK@Z 1007ff94 f   riched60:blobs.obj
 0001:0007f044       ??0CTextBlobSurrogate@@QAA@PAVCTxtEdit@@PAUITextBlob@@ABVCOleObject@@@Z 10080044 f i riched60:blobs.obj
 0001:0007f0b0       ?QueryInterface@CTextBlobSurrogate@@UAAJABU_GUID@@PAPAX@Z 100800b0 f i riched60:blobs.obj
 0001:0007f188       ?AddRef@CTextBlobSurrogate@@UAAKXZ 10080188 f i riched60:blobs.obj
 0001:0007f19c       ?Release@CTextBlobSurrogate@@UAAKXZ 1008019c f i riched60:blobs.obj
 0001:0007f1f4       ?SetClientSite@CTextBlobSurrogate@@UAAJPAUIOleClientSite@@@Z 100801f4 f i riched60:blobs.obj
 0001:0007f1fc       ?GetClientSite@CTextBlobSurrogate@@UAAJPAPAUIOleClientSite@@@Z 100801fc f i riched60:blobs.obj
 0001:0007f218       ?SetHostNames@CTextBlobSurrogate@@UAAJPBG0@Z 10080218 f i riched60:blobs.obj
 0001:0007f224       ?Close@CTextBlobSurrogate@@UAAJK@Z 10080224 f i riched60:blobs.obj
 0001:0007f230       ?SetMoniker@CTextBlobSurrogate@@UAAJKPAUIMoniker@@@Z 10080230 f i riched60:blobs.obj
 0001:0007f23c       ?GetMoniker@CTextBlobSurrogate@@UAAJKKPAPAUIMoniker@@@Z 1008023c f i riched60:blobs.obj
 0001:0007f248       ?InitFromData@CTextBlobSurrogate@@UAAJPAUIDataObject@@HK@Z 10080248 f i riched60:blobs.obj
 0001:0007f254       ?GetClipboardData@CTextBlobSurrogate@@UAAJKPAPAUIDataObject@@@Z 10080254 f i riched60:blobs.obj
 0001:0007f260       ?DoVerb@CTextBlobSurrogate@@UAAJJPAUtagMSG@@PAUIOleClientSite@@JPAUHWND__@@PBUtagRECT@@@Z 10080260 f i riched60:blobs.obj
 0001:0007f26c       ?EnumVerbs@CTextBlobSurrogate@@UAAJPAPAUIEnumOLEVERB@@@Z 1008026c f i riched60:blobs.obj
 0001:0007f278       ?Update@CTextBlobSurrogate@@UAAJXZ 10080278 f i riched60:blobs.obj
 0001:0007f284       ?IsUpToDate@CTextBlobSurrogate@@UAAJXZ 10080284 f i riched60:blobs.obj
 0001:0007f290       ?GetUserClassID@CTextBlobSurrogate@@UAAJPAU_GUID@@@Z 10080290 f i riched60:blobs.obj
 0001:0007f29c       ?GetUserType@CTextBlobSurrogate@@UAAJKPAPAG@Z 1008029c f i riched60:blobs.obj
 0001:0007f2a8       ?SetExtent@CTextBlobSurrogate@@UAAJKPAUtagSIZE@@@Z 100802a8 f i riched60:blobs.obj
 0001:0007f2b4       ?GetExtent@CTextBlobSurrogate@@UAAJKPAUtagSIZE@@@Z 100802b4 f i riched60:blobs.obj
 0001:0007f2c0       ?Advise@CTextBlobSurrogate@@UAAJPAUIAdviseSink@@PAK@Z 100802c0 f i riched60:blobs.obj
 0001:0007f2cc       ?Unadvise@CTextBlobSurrogate@@UAAJK@Z 100802cc f i riched60:blobs.obj
 0001:0007f2d8       ?EnumAdvise@CTextBlobSurrogate@@UAAJPAPAUIEnumSTATDATA@@@Z 100802d8 f i riched60:blobs.obj
 0001:0007f2e4       ?GetMiscStatus@CTextBlobSurrogate@@UAAJKPAK@Z 100802e4 f i riched60:blobs.obj
 0001:0007f2f0       ?SetColorScheme@CTextBlobSurrogate@@UAAJPAUtagLOGPALETTE@@@Z 100802f0 f i riched60:blobs.obj
 0001:0007f2fc       ?GetClassID@CTextBlobSurrogate@@UAAJPAU_GUID@@@Z 100802fc f i riched60:blobs.obj
 0001:0007f32c       ?IsDirty@CTextBlobSurrogate@@UAAJXZ 1008032c f i riched60:blobs.obj
 0001:0007f334       ?InitNew@CTextBlobSurrogate@@UAAJPAUIStorage@@@Z 10080334 f i riched60:blobs.obj
 0001:0007f344       ?Save@CTextBlobSurrogate@@UAAJPAUIStorage@@H@Z 10080344 f i riched60:blobs.obj
 0001:0007f5f4       ?SaveCompleted@CTextBlobSurrogate@@UAAJPAUIStorage@@@Z 100805f4 f i riched60:blobs.obj
 0001:0007f5fc       ?HandsOffStorage@CTextBlobSurrogate@@UAAJXZ 100805fc f i riched60:blobs.obj
 0001:0007f604       ?GetBlobDataObject@CTextBlobSurrogate@@UAAJPAPAUIUnknown@@@Z 10080604 f i riched60:blobs.obj
 0001:0007f648       ?AddRef@CTextBlobSurrogate@@W3AAKXZ 10080648 f i riched60:blobs.obj
 0001:0007f650       ?AddRef@CTextBlobSurrogate@@W7AAKXZ 10080650 f i riched60:blobs.obj
 0001:0007f658       ?QueryInterface@CTextBlobSurrogate@@W3AAJABU_GUID@@PAPAX@Z 10080658 f i riched60:blobs.obj
 0001:0007f660       ?QueryInterface@CTextBlobSurrogate@@W7AAJABU_GUID@@PAPAX@Z 10080660 f i riched60:blobs.obj
 0001:0007f668       ?Release@CTextBlobSurrogate@@W3AAKXZ 10080668 f i riched60:blobs.obj
 0001:0007f670       ?Release@CTextBlobSurrogate@@W7AAKXZ 10080670 f i riched60:blobs.obj
 0001:0007f680       ?LoadToStory@CTextBlobSurrogate@@QAAJPAUIStorage@@PAVCTxtStory@@@Z 10080680 f i riched60:blobs.obj
 0001:0007f9bc       ?LoadToStory@CTextBlobSurrogate@@QAAJPAXPAVCTxtStory@@@Z 100809bc f i riched60:blobs.obj
 0001:0007fce4       ?InsertBoundary@CTextMarkContainer@@EAAJFPAUtagPOINT@@AAH@Z 10080ce4 f   riched60:blobs.obj
 0001:0007fd80       ?GetBlobFromHglobal@CTextMarkContainer@@QAAJJPAXPAVCTxtRange@@HHAAH@Z 10080d80 f   riched60:blobs.obj
 0001:0007ffb4       ?InsertBlob@CTextMarkContainer@@QAAJJPAUITextBlob@@ABUBLOB_CREATE_DATA@@AAH@Z 10080fb4 f   riched60:blobs.obj
 0001:00080254       ?AddSurrogateToEnumBlob@CTextMarkContainer@@QAAHPAVCTextBlobSurrogate@@AAPAVCEnumBlob@@@Z 10081254 f   riched60:blobs.obj
 0001:000802e8       ?Load@CTextBlobSurrogate@@UAAJPAUIStorage@@@Z 100812e8 f i riched60:blobs.obj
 0001:00080314       ?InsertSingleLineBlobEx@CTextMarkContainer@@EAAJJPAUITextBlob@@KEAAH@Z 10081314 f   riched60:blobs.obj
 0001:0008036c       ?InsertMultiLineBlob@CTextMarkContainer@@EAAJJPAUITextBlob@@KPBUMLBLOB_CREATE_DATA@ITextMarkContainer@@AAH@Z 1008136c f   riched60:blobs.obj
 0001:000803b4       ?EnumBlobs@CTextMarkContainer@@EAAJPAPAUIEnumTextBlobs@@@Z 100813b4 f   riched60:blobs.obj
 0001:000804b8       ?HittestAndAddObjectToEnumBlob@CTextMarkContainer@@QAAHABVCOleObject@@AAPAVCEnumBlob@@PAUtagPOINT@@@Z 100814b8 f   riched60:blobs.obj
 0001:00080588       ?BlobsFromRectHelper@CTextMarkContainer@@QAAJUtagRECT@@PAPAUIEnumTextBlobs@@H@Z 10081588 f   riched60:blobs.obj
 0001:0008089c       ?BlobsFromPoint@CTextMarkContainer@@EAAJUtagPOINT@@PAPAUIEnumTextBlobs@@@Z 1008189c f   riched60:blobs.obj
 0001:000808dc       ?BlobsFromRect@CTextMarkContainer@@EAAJUtagRECT@@PAPAUIEnumTextBlobs@@@Z 100818dc f   riched60:blobs.obj
 0001:0008091c       ?SetRECallback@CObjectMgr@@QAAXPAUIRichEditOleCallback@@@Z 1008191c f   riched60:objmgr.obj
 0001:00080984       ?SetHostNames@CObjectMgr@@QAAJPBG0@Z 10081984 f   riched60:objmgr.obj
 0001:00080a68       ??0CObjectMgr@@QAA@PAVCNotifyMgr@@@Z 10081a68 f   riched60:objmgr.obj
 0001:00080aa0       ??1CObjectMgr@@QAA@XZ      10081aa0 f   riched60:objmgr.obj
 0001:00080b08       ?OnPreReplaceRange@CObjectMgr@@UAAXJJJJJPAUNOTIFY_DATA@@@Z 10081b08 f   riched60:objmgr.obj
 0001:00080b0c       ?Zombie@CObjectMgr@@UAAXXZ 10081b0c f   riched60:objmgr.obj
 0001:00080b10       ?GetLinkCount@CObjectMgr@@QAAJPAVCTxtStory@@@Z 10081b10 f   riched60:objmgr.obj
 0001:00080b84       ?GetObjectFromIndex@CObjectMgr@@QAAPAVCOleObject@@JPAVCTxtStory@@@Z 10081b84 f   riched60:objmgr.obj
 0001:00080bdc       ?FindIndexForCp@CObjectMgr@@QAAJJPAVCTxtStory@@@Z 10081bdc f   riched60:objmgr.obj
 0001:00080cc8       ?ActivateObjectsAs@CObjectMgr@@QAAJABU_GUID@@0PAVCTxtStory@@@Z 10081cc8 f   riched60:objmgr.obj
 0001:00080d44       ?OnPostReplaceRange@CObjectMgr@@UAAXJJJJJPAUNOTIFY_DATA@@@Z 10081d44 f   riched60:objmgr.obj
 0001:00080df0       ?GetObjectFromCp@CObjectMgr@@QAAPAVCOleObject@@JPAVCTxtStory@@@Z 10081df0 f   riched60:objmgr.obj
 0001:00080ed0       ?CountObjects@CObjectMgr@@QAAJAAJJJPAVCTxtStory@@@Z 10081ed0 f   riched60:objmgr.obj
 0001:0008100c       ?CountObjectsInRange@CObjectMgr@@QAAJJJPAVCTxtStory@@@Z 1008200c f   riched60:objmgr.obj
 0001:00081048       ?GetFirstObjectInRange@CObjectMgr@@QAAPAVCOleObject@@JJPAJPAVCTxtStory@@@Z 10082048 f   riched60:objmgr.obj
 0001:000810e4       ?RestoreObject@CObjectMgr@@QAAJPAVCOleObject@@@Z 100820e4 f   riched60:objmgr.obj
 0001:00081178       ?ReplaceRange@CObjectMgr@@QAAXJJPAVIUndoBuilder@@PAVCTxtStory@@@Z 10082178 f   riched60:objmgr.obj
 0001:0008131c       ?HandleDoubleClick@CObjectMgr@@QAAHPAVCTxtEdit@@ABUtagLSPOINTUV@@K@Z 1008231c f   riched60:objmgr.obj
 0001:00081440       ?HandleClick@CObjectMgr@@QAA?AW4ClickStatus@@PAVCTxtEdit@@ABUtagLSPOINTUV@@H@Z 10082440 f   riched60:objmgr.obj
 0001:000815b4       ?HandleSingleSelect@CObjectMgr@@QAAXPAVCTxtEdit@@JH@Z 100825b4 f   riched60:objmgr.obj
 0001:000816b0       ?InsertObject@CObjectMgr@@QAAJPAVCTxtRange@@PAU_reobject@@PAVIUndoBuilder@@H@Z 100826b0 f   riched60:objmgr.obj
 0001:00081b00       ?DuplicateHGlobal@@YAPAXPAX@Z 10082b00 f   riched60:util.obj
 0001:00081ba8       ?CountMatchingBits@@YAHPBK0H@Z 10082ba8 f   riched60:util.obj
 0001:00081bf8       ?FindPrimeLessThan@@YAHH@Z 10082bf8 f   riched60:util.obj
 0001:00081cb4       ??0CSafeRefCount@@QAA@XZ   10082cb4 f   riched60:util.obj
 0001:00081cdc       ??1CSafeRefCount@@UAA@XZ   10082cdc f   riched60:util.obj
 0001:00081cec       ?SafeAddRef@CSafeRefCount@@QAAJXZ 10082cec f   riched60:util.obj
 0001:00081d00       ?SafeRelease@CSafeRefCount@@QAAJXZ 10082d00 f   riched60:util.obj
 0001:00081d60       ?IncrementNestCount@CSafeRefCount@@QAAJXZ 10082d60 f   riched60:util.obj
 0001:00081d74       ?DecrementNestCount@CSafeRefCount@@QAAJXZ 10082d74 f   riched60:util.obj
 0001:00081dd8       ?IsZombie@CSafeRefCount@@QAAHXZ 10082dd8 f   riched60:util.obj
 0001:00081e14       ?OleStdSwitchDisplayAspect@@YAJPAUIOleObject@@PAKKPAXHHPAUIAdviseSink@@PAH@Z 10082e14 f   riched60:util.obj
 0001:0008207c       ?ObjectReadSiteFlags@@YAJPAU_reobject@@@Z 1008307c f   riched60:util.obj
 0001:00082198       ?FIsIconMetafilePict@@YAHPAX@Z 10083198 f   riched60:util.obj
 0001:0008234c       ?OleGetObjectDescriptorDataFromOleObject@@YAPAXPAUIOleObject@@KU_POINTL@@PAUtagSIZE@@@Z 1008334c f   riched60:util.obj
 0001:00082598       ?OleStdGetMetafilePictFromOleObject@@YAPAXPAUIOleObject@@HKPAUtagSIZE@@PAUtagDVTARGETDEVICE@@PAUHDC__@@@Z 10083598 f   riched60:util.obj
 0001:000825a8       ?OleUIDrawShading@@YAXPAUtagRECT@@PAUHDC__@@@Z 100835a8 f   riched60:util.obj
 0001:000826e0       ?OleSaveSiteFlags@@YAXPAUIStorage@@KKK@Z 100836e0 f   riched60:util.obj
 0001:000826e4       ?Init@CTempBuf@@AAAXXZ     100836e4 f   riched60:util.obj
 0001:000826f4       ?FreeBuf@CTempBuf@@AAAXXZ  100836f4 f   riched60:util.obj
 0001:0008270c       ?GetBuf@CTempBuf@@QAAPAXJ@Z 1008370c f   riched60:util.obj
 0001:00082770       ??_GCSafeRefCount@@UAAPAXI@Z 10083770 f i riched60:util.obj
 0001:00082770       ??_ECSafeRefCount@@UAAPAXI@Z 10083770 f i riched60:util.obj
 0001:00082794       ?OnPreReplaceRange@CTxtBreaker@@UAAXJJJJJPAUNOTIFY_DATA@@@Z 10083794 f   riched60:txtbrk.obj
 0001:00082798       ?AddBreak@CBreakArray@@IAAJJJ@Z 10083798 f   riched60:txtbrk.obj
 0001:00082810       ?GetBreak@CBreakArray@@QAAHJ@Z 10083810 f   riched60:txtbrk.obj
 0001:00082894       ?SetBreak@CBreakArray@@QAAXJH@Z 10083894 f   riched60:txtbrk.obj
 0001:00082930       ?ClearBreak@CBreakArray@@QAAXJJ@Z 10083930 f   riched60:txtbrk.obj
 0001:00082a88       ?ShDn@CBreakArray@@AAAXJJJ@Z 10083a88 f   riched60:txtbrk.obj
 0001:00082b0c       ?RemoveStory@CTxtBreaker@@QAAJPBVCTxtStory@@@Z 10083b0c f   riched60:txtbrk.obj
 0001:00082bec       ?CollapseGap@CBreakArray@@QAAJXZ 10083bec f   riched60:txtbrk.obj
 0001:00082dc8       ??0CTxtBreaker@@QAA@PAVCTxtEdit@@@Z 10083dc8 f   riched60:txtbrk.obj
 0001:00082e08       ?Zombie@CTxtBreaker@@UAAXXZ 10083e08 f i riched60:txtbrk.obj
 0001:00082e0c       ??1CTxtBreaker@@QAA@XZ     10083e0c f   riched60:txtbrk.obj
 0001:00082eec       ?InsertBreak@CBreakArray@@QAAJJJ@Z 10083eec f   riched60:txtbrk.obj
 0001:00083100       ?RemoveBreak@CBreakArray@@QAAJJJ@Z 10084100 f   riched60:txtbrk.obj
 0001:00083328       ?CheckBreaker@CTxtBreaker@@QAAJIPBVCTxtStory@@@Z 10084328 f   riched60:txtbrk.obj
 0001:00083554       ?SetStory@CTxtBreaker@@QAAJPBVCTxtStory@@@Z 10084554 f   riched60:txtbrk.obj
 0001:00083590       ?CanBreakCp@CTxtBreaker@@QAAHW4BREAK_UNIT@@JPBVCTxtStory@@AAH@Z 10084590 f   riched60:txtbrk.obj
 0001:00083630       ?ReplaceBreak@CBreakArray@@QAAJJJJ@Z 10084630 f   riched60:txtbrk.obj
 0001:00083718       ?OnPostReplaceRange@CTxtBreaker@@UAAXJJJJJPAUNOTIFY_DATA@@@Z 10084718 f   riched60:txtbrk.obj
 0001:00083b38       ??1CTextNotify@@QAA@XZ     10084b38 f   riched60:textnot.obj
 0001:00083b88       ?OnPreReplaceRange@CTextNotify@@UAAXJJJJJPAUNOTIFY_DATA@@@Z 10084b88 f   riched60:textnot.obj
 0001:00083c1c       ?OnPostReplaceRange@CTextNotify@@UAAXJJJJJPAUNOTIFY_DATA@@@Z 10084c1c f   riched60:textnot.obj
 0001:00083cb0       ?Add@CTextNotify@@QAAHPAVITxNotify@@@Z 10084cb0 f   riched60:textnot.obj
 0001:00083cfc       ?Remove@CTextNotify@@QAAHPAVITxNotify@@@Z 10084cfc f   riched60:textnot.obj
 0001:00083d40       ??0CDisplayPrinter@@QAA@PAVCTxtEdit@@PAUHDC__@@PAUtagRECT@@USPrintControl@@@Z 10084d40 f   riched60:dispprt.obj
 0001:00083dd8       ?GetDdTarget@CDisplayML@@UBAPBVCDevDesc@@XZ 10084dd8 f i riched60:dispprt.obj
 0001:00083de0       ?GetDulForTargetWrap@CDisplayML@@UBAJXZ 10084de0 f i riched60:dispprt.obj
 0001:00083de8       ?GetFirstVisibleLine@CDisplayML@@UBAJXZ 10084de8 f i riched60:dispprt.obj
 0001:00083df0       ?GetFirstVisibleLineDvp@CDisplayML@@UBAJXZ 10084df0 f i riched60:dispprt.obj
 0001:00083df8       ?GetVpScroll@CDisplayML@@UBAJXZ 10084df8 f i riched60:dispprt.obj
 0001:00083e00       ?IsMain@CDisplayPrinter@@UBAHXZ 10084e00 f i riched60:dispprt.obj
 0001:00083e08       ?SetPrintDimensions@CDisplayPrinter@@QAAXPAUtagRECT@@@Z 10084e08 f   riched60:dispprt.obj
 0001:00083e14       ?FormatRange@CDisplayPrinter@@QAAJJJH@Z 10084e14 f   riched60:dispprt.obj
 0001:00083e44       ?GetNaturalSize@CDisplayPrinter@@UAAJKPAJ0@Z 10084e44 f   riched60:dispprt.obj
 0001:00083ef8       ?ClearLayout@CDisplayPrinter@@QAAXXZ 10084ef8 f   riched60:dispprt.obj
 0001:00083f10       ?IsEmptyLayout@CDisplayPrinter@@QBAHXZ 10084f10 f   riched60:dispprt.obj
 0001:00083f34       ??_GCDisplayPrinter@@UAAPAXI@Z 10084f34 f i riched60:dispprt.obj
 0001:00083f34       ??_ECDisplayPrinter@@UAAPAXI@Z 10084f34 f i riched60:dispprt.obj
 0001:00083f58       ?IsPrinter@CDisplayPrinter@@UBAHXZ 10084f58 f   riched60:dispprt.obj
 0001:00083f74       ?IsInsideChar@@YAHK@Z      10084f74 f   riched60:tomrange.obj
 0001:00083fa8       ?QueryInterface@CTxtRange@@UAAJABU_GUID@@PAPAX@Z 10084fa8 f   riched60:tomrange.obj
 0001:00084038       ?AddRef@CTxtRange@@UAAKXZ  10085038 f   riched60:tomrange.obj
 0001:0008404c       ?Release@CTxtRange@@UAAKXZ 1008504c f   riched60:tomrange.obj
 0001:00084080       ?GetTypeInfoCount@CTxtRange@@UAAJPAI@Z 10085080 f   riched60:tomrange.obj
 0001:0008409c       ?GetTypeInfo@CTxtRange@@UAAJIKPAPAUITypeInfo@@@Z 1008509c f   riched60:tomrange.obj
 0001:000840b0       ?GetIDsOfNames@CTxtRange@@UAAJABU_GUID@@PAPAGIKPAJ@Z 100850b0 f   riched60:tomrange.obj
 0001:00084150       ?Invoke@CTxtRange@@UAAJJABU_GUID@@KGPAUtagDISPPARAMS@@PAUtagVARIANT@@PAUtagEXCEPINFO@@PAI@Z 10085150 f   riched60:tomrange.obj
 0001:00084284       ?AddSubrange@CTxtRange@@UAAJJJJ@Z 10085284 f   riched60:tomrange.obj
 0001:00084358       ?BuildUpMath@CTxtRange@@UAAJJ@Z 10085358 f   riched60:tomrange.obj
 0001:00084364       ?Copy@CTxtRange@@UAAJPAUtagVARIANT@@@Z 10085364 f   riched60:tomrange.obj
 0001:00084420       ?DeleteSubrange@CTxtRange@@UAAJJJ@Z 10085420 f   riched60:tomrange.obj
 0001:0008442c       ?Find@CTxtRange@@UAAJPAUITextRange2@@JJPAJ@Z 1008542c f   riched60:tomrange.obj
 0001:00084714       ?GetCount@CTxtRange@@UAAJPAJ@Z 10085714 f   riched60:tomrange.obj
 0001:00084744       ?GetDropCap@CTxtRange@@UAAJPAJ0@Z 10085744 f   riched60:tomrange.obj
 0001:00084760       ?GetDuplicate2@CTxtRange@@UAAJPAPAUITextRange2@@@Z 10085760 f   riched60:tomrange.obj
 0001:0008478c       ?GetFont2@CTxtRange@@UAAJPAPAUITextFont2@@@Z 1008578c f   riched60:tomrange.obj
 0001:000847b8       ?GetFormattedText@CTxtRange@@UAAJPAPAUITextRange@@@Z 100857b8 f   riched60:tomrange.obj
 0001:000847cc       ?GetFormattedText2@CTxtRange@@UAAJPAPAUITextRange2@@@Z 100857cc f   riched60:tomrange.obj
 0001:000847e0       ?GetGravity@CTxtRange@@UAAJPAJ@Z 100857e0 f   riched60:tomrange.obj
 0001:00084800       ?GetInlineObject@CTxtRange@@UAAJPAJ00000000@Z 10085800 f   riched60:tomrange.obj
 0001:00084998       ?GetMathFunctionType@CTxtRange@@UAAJPAGPAJ@Z 10085998 f   riched60:tomrange.obj
 0001:000849b4       ?GetPara2@CTxtRange@@UAAJPAPAUITextPara2@@@Z 100859b4 f   riched60:tomrange.obj
 0001:000849e0       ?GetPointEx@CTxtRange@@QAAJJPAJ0PAK@Z 100859e0 f   riched60:tomrange.obj
 0001:00084d0c       ?GetProperty@CTxtRange@@UAAJJPAJ@Z 10085d0c f   riched60:tomrange.obj
 0001:00084d18       ?GetRect@CTxtRange@@UAAJJPAJ0000@Z 10085d18 f   riched60:tomrange.obj
 0001:00084e28       ?GetSubrange@CTxtRange@@UAAJJPAJ0@Z 10085e28 f   riched60:tomrange.obj
 0001:00084eb4       ?GetURL@CTxtRange@@UAAJPAPAG@Z 10085eb4 f   riched60:tomrange.obj
 0001:00085100       ?InsertTable@CTxtRange@@UAAJJJJ@Z 10086100 f   riched60:tomrange.obj
 0001:0008510c       ?Linearize@CTxtRange@@UAAJJ@Z 1008610c f   riched60:tomrange.obj
 0001:00085118       ?PasteHelper@CTxtRange@@AAAJPAUtagVARIANT@@JH@Z 10086118 f   riched60:tomrange.obj
 0001:00085254       ?Select@CTxtRange@@UAAJXZ  10086254 f   riched60:tomrange.obj
 0001:000852f0       ?SetActiveSubrange@CTxtRange@@UAAJJJ@Z 100862f0 f   riched60:tomrange.obj
 0001:000852fc       ?SetEnd@CTxtRange@@UAAJJ@Z 100862fc f   riched60:tomrange.obj
 0001:0008535c       ?SetDropCap@CTxtRange@@UAAJJJ@Z 1008635c f   riched60:tomrange.obj
 0001:00085368       ?SetFont2@CTxtRange@@UAAJPAUITextFont2@@@Z 10086368 f   riched60:tomrange.obj
 0001:00085380       ?SetFormattedText2@CTxtRange@@UAAJPAUITextRange2@@@Z 10086380 f   riched60:tomrange.obj
 0001:00085394       ?SetGravity@CTxtRange@@UAAJJ@Z 10086394 f   riched60:tomrange.obj
 0001:000853d4       ?SetInlineObject@CTxtRange@@UAAJJJJJJJJJ@Z 100863d4 f   riched60:tomrange.obj
 0001:000853e0       ?SetPara2@CTxtRange@@UAAJPAUITextPara2@@@Z 100863e0 f   riched60:tomrange.obj
 0001:000853f8       ?SetPoint@CTxtRange@@UAAJJJJJ@Z 100863f8 f   riched60:tomrange.obj
 0001:00085588       ?SetProperty@CTxtRange@@UAAJJJ@Z 10086588 f   riched60:tomrange.obj
 0001:00085594       ?SetRange@CTxtRange@@UAAJJJ@Z 10086594 f   riched60:tomrange.obj
 0001:00085678       ?SetStart@CTxtRange@@UAAJJ@Z 10086678 f   riched60:tomrange.obj
 0001:000856d8       ?SetText@CTxtRange@@UAAJPAG@Z 100866d8 f   riched60:tomrange.obj
 0001:00085718       ?GetFlags@CTxtRange@@UAAJPAJ@Z 10086718 f   riched60:tomrange.obj
 0001:00085724       ?SetFlags@CTxtRange@@UAAJJ@Z 10086724 f   riched60:tomrange.obj
 0001:00085730       ?GetType@CTxtRange@@UAAJPAJ@Z 10086730 f   riched60:tomrange.obj
 0001:0008573c       ?MoveLeft@CTxtRange@@UAAJJJJPAJ@Z 1008673c f   riched60:tomrange.obj
 0001:00085748       ?MoveRight@CTxtRange@@UAAJJJJPAJ@Z 10086748 f   riched60:tomrange.obj
 0001:00085754       ?MoveUp@CTxtRange@@UAAJJJJPAJ@Z 10086754 f   riched60:tomrange.obj
 0001:00085760       ?MoveDown@CTxtRange@@UAAJJJJPAJ@Z 10086760 f   riched60:tomrange.obj
 0001:0008576c       ?HomeKey@CTxtRange@@UAAJJJPAJ@Z 1008676c f   riched60:tomrange.obj
 0001:00085778       ?EndKey@CTxtRange@@UAAJJJPAJ@Z 10086778 f   riched60:tomrange.obj
 0001:00085784       ?TypeText@CTxtRange@@UAAJPAG@Z 10086784 f   riched60:tomrange.obj
 0001:00085790       ?Collapser@CTxtRange@@QAAXJ@Z 10086790 f   riched60:tomrange.obj
 0001:0008583c       ?Comparer@CTxtRange@@AAAJPAUITextRange@@@Z 1008683c f   riched60:tomrange.obj
 0001:000858ec       ?Expander@CTxtRange@@QAAJJHPAJ00@Z 100868ec f   riched60:tomrange.obj
 0001:00085fb0       ?Finder@CTxtRange@@AAAJPAGJJPAJW4MOVES@@@Z 10086fb0 f   riched60:tomrange.obj
 0001:000861d4       ?Matcher@CTxtRange@@AAAJPAUtagVARIANT@@JPAJW4MOVES@@W4MATCHES@@@Z 100871d4 f   riched60:tomrange.obj
 0001:000865f8       ?Mover@CTxtRange@@AAAJJJPAJW4MOVES@@@Z 100875f8 f   riched60:tomrange.obj
 0001:000868b4       ?Replacer@CTxtRange@@AAAJJPBGK@Z 100878b4 f   riched60:tomrange.obj
 0001:00086ad8       ?WriteAccessDenied@CTxtRange@@QAAHI@Z 10087ad8 f   riched60:tomrange.obj
 0001:00086bb8       ?IsTrue@CTxtRange@@AAAJHPAJ@Z 10087bb8 f   riched60:tomrange.obj
 0001:00086bfc       ?IsSameVtables@@YAHPAUIUnknown@@0@Z 10087bfc f   riched60:tomrange.obj
 0001:00086c28       ?FPPTS_TO_TWIPS@@YAJM@Z    10087c28 f   riched60:tomrange.obj
 0001:00086c78       ?CanEdit@CTxtRange@@UAAJPAJ@Z 10087c78 f   riched60:tomrange.obj
 0001:00086ce4       ?CanPaste@CTxtRange@@UAAJPAUtagVARIANT@@JPAJ@Z 10087ce4 f   riched60:tomrange.obj
 0001:00086de0       ?ChangeCase@CTxtRange@@UAAJJ@Z 10087de0 f   riched60:tomrange.obj
 0001:00086ed4       ?Collapse@CTxtRange@@UAAJJ@Z 10087ed4 f   riched60:tomrange.obj
 0001:00086f4c       ?Cut@CTxtRange@@UAAJPAUtagVARIANT@@@Z 10087f4c f   riched60:tomrange.obj
 0001:00086fd8       ?Delete@CTxtRange@@UAAJJJPAJ@Z 10087fd8 f   riched60:tomrange.obj
 0001:00087298       ?EndOf@CTxtRange@@UAAJJJPAJ@Z 10088298 f   riched60:tomrange.obj
 0001:0008730c       ?Expand@CTxtRange@@UAAJJPAJ@Z 1008830c f   riched60:tomrange.obj
 0001:0008737c       ?FindText@CTxtRange@@UAAJPAGJJPAJ@Z 1008837c f   riched60:tomrange.obj
 0001:000873a0       ?FindTextEnd@CTxtRange@@UAAJPAGJJPAJ@Z 100883a0 f   riched60:tomrange.obj
 0001:000873c4       ?FindTextStart@CTxtRange@@UAAJPAGJJPAJ@Z 100883c4 f   riched60:tomrange.obj
 0001:000873e8       ?GetCells@CTxtRange@@UAAJPAPAUITextCells@@@Z 100883e8 f   riched60:tomrange.obj
 0001:00087458       ?GetChar@CTxtRange@@UAAJPAJ@Z 10088458 f   riched60:tomrange.obj
 0001:000874fc       ?GetCch@CTxtRange@@UAAJPAJ@Z 100884fc f   riched60:tomrange.obj
 0001:00087534       ?GetChar2@CTxtRange@@UAAJPAJJ@Z 10088534 f   riched60:tomrange.obj
 0001:00087644       ?GetColumn@CTxtRange@@UAAJPAPAUITextColumn@@@Z 10088644 f   riched60:tomrange.obj
 0001:000876b4       ?GetDuplicate@CTxtRange@@UAAJPAPAUITextRange@@@Z 100886b4 f   riched60:tomrange.obj
 0001:00087724       ?GetEmbeddedObject@CTxtRange@@UAAJPAPAUIUnknown@@@Z 10088724 f   riched60:tomrange.obj
 0001:000877c8       ?GetEnd@CTxtRange@@UAAJPAJ@Z 100887c8 f   riched60:tomrange.obj
 0001:00087804       ?GetFont@CTxtRange@@UAAJPAPAUITextFont@@@Z 10088804 f   riched60:tomrange.obj
 0001:00087874       ?GetIndex@CTxtRange@@UAAJJPAJ@Z 10088874 f   riched60:tomrange.obj
 0001:00087a80       ?GetPara@CTxtRange@@UAAJPAPAUITextPara@@@Z 10088a80 f   riched60:tomrange.obj
 0001:00087af0       ?GetPoint@CTxtRange@@UAAJJPAJ0@Z 10088af0 f   riched60:tomrange.obj
 0001:00087b34       ?GetRow@CTxtRange@@UAAJPAPAUITextRow@@@Z 10088b34 f   riched60:tomrange.obj
 0001:00087ba4       ?GetStart@CTxtRange@@UAAJPAJ@Z 10088ba4 f   riched60:tomrange.obj
 0001:00087be0       ?GetStartPara@CTxtRange@@UAAJPAJ@Z 10088be0 f   riched60:tomrange.obj
 0001:00087d10       ?GetStoryLength@CTxtRange@@UAAJPAJ@Z 10088d10 f   riched60:tomrange.obj
 0001:00087d50       ?GetStoryType@CTxtRange@@UAAJPAJ@Z 10088d50 f   riched60:tomrange.obj
 0001:00087d94       ?GetTable@CTxtRange@@UAAJPAPAUITextTable@@@Z 10088d94 f   riched60:tomrange.obj
 0001:00087e04       ?GetText@CTxtRange@@UAAJPAPAG@Z 10088e04 f   riched60:tomrange.obj
 0001:00087ed0       ?GetText2@CTxtRange@@UAAJJPAPAG@Z 10088ed0 f   riched60:tomrange.obj
 0001:00088024       ?HexToUnicode@CTxtRange@@UAAJXZ 10089024 f   riched60:tomrange.obj
 0001:000880ac       ?InRange@CTxtRange@@UAAJPAUITextRange@@PAJ@Z 100890ac f   riched60:tomrange.obj
 0001:000880d0       ?InStory@CTxtRange@@UAAJPAUITextRange@@PAJ@Z 100890d0 f   riched60:tomrange.obj
 0001:00088114       ?IsEqual@CTxtRange@@UAAJPAUITextRange@@PAJ@Z 10089114 f   riched60:tomrange.obj
 0001:00088140       ?Move@CTxtRange@@UAAJJJPAJ@Z 10089140 f   riched60:tomrange.obj
 0001:00088198       ?MoveEnd@CTxtRange@@UAAJJJPAJ@Z 10089198 f   riched60:tomrange.obj
 0001:000881f0       ?MoveEndUntil@CTxtRange@@UAAJPAUtagVARIANT@@JPAJ@Z 100891f0 f   riched60:tomrange.obj
 0001:00088214       ?MoveEndWhile@CTxtRange@@UAAJPAUtagVARIANT@@JPAJ@Z 10089214 f   riched60:tomrange.obj
 0001:00088234       ?MoveStart@CTxtRange@@UAAJJJPAJ@Z 10089234 f   riched60:tomrange.obj
 0001:0008828c       ?MoveStartUntil@CTxtRange@@UAAJPAUtagVARIANT@@JPAJ@Z 1008928c f   riched60:tomrange.obj
 0001:000882b0       ?MoveStartWhile@CTxtRange@@UAAJPAUtagVARIANT@@JPAJ@Z 100892b0 f   riched60:tomrange.obj
 0001:000882d4       ?MoveUntil@CTxtRange@@UAAJPAUtagVARIANT@@JPAJ@Z 100892d4 f   riched60:tomrange.obj
 0001:000882f4       ?MoveWhile@CTxtRange@@UAAJPAUtagVARIANT@@JPAJ@Z 100892f4 f   riched60:tomrange.obj
 0001:00088318       ?Paste@CTxtRange@@UAAJPAUtagVARIANT@@J@Z 10089318 f   riched60:tomrange.obj
 0001:00088394       ?ScrollIntoView@CTxtRange@@UAAJJ@Z 10089394 f   riched60:tomrange.obj
 0001:000887e4       ?SetChar@CTxtRange@@UAAJJ@Z 100897e4 f   riched60:tomrange.obj
 0001:00088a90       ?SetFormattedText@CTxtRange@@UAAJPAUITextRange@@@Z 10089a90 f   riched60:tomrange.obj
 0001:00088c3c       ?SetIndex@CTxtRange@@UAAJJJJ@Z 10089c3c f   riched60:tomrange.obj
 0001:00088de0       ?SetText2@CTxtRange@@UAAJJPAG@Z 10089de0 f   riched60:tomrange.obj
 0001:00088eb8       ?SetURLHelper@CTxtRange@@AAAJPAG@Z 10089eb8 f   riched60:tomrange.obj
 0001:000897b8       ?StartOf@CTxtRange@@UAAJJJPAJ@Z 1008a7b8 f   riched60:tomrange.obj
 0001:0008982c       ?UnicodeToHex@CTxtRange@@UAAJXZ 1008a82c f   riched60:tomrange.obj
 0001:000898b4       ?CharFormatSetter@CTxtRange@@QAAJPBVCCharFormat@@KKK@Z 1008a8b4 f   riched60:tomrange.obj
 0001:00089ab8       ?ParaFormatSetter@CTxtRange@@QAAJPBVCParaFormat@@KK@Z 1008aab8 f   riched60:tomrange.obj
 0001:00089ba4       ?SetFont@CTxtRange@@UAAJPAUITextFont@@@Z 1008aba4 f   riched60:tomrange.obj
 0001:00089c68       ?SetPara@CTxtRange@@UAAJPAUITextPara@@@Z 1008ac68 f   riched60:tomrange.obj
 0001:00089d7c       ?SetURL@CTxtRange@@UAAJPAG@Z 1008ad7c f   riched60:tomrange.obj
 0001:00089dcc       ?MapsToRTFKeywordW@CRTFWrite@@AAAHG@Z 1008adcc f i riched60:rtfwrit.obj
 0001:00089e68       ?MapsToRTFKeywordA@CRTFWrite@@AAAHD@Z 1008ae68 f i riched60:rtfwrit.obj
 0001:00089eac       ?RTFPutToStream@@YAKPAVRTFWRITEOLESTREAM@@PBXK@Z 1008aeac f   riched60:rtfwrit.obj
 0001:00089eb4       ?FlushBuffer@CRTFWrite@@AAAHXZ 1008aeb4 f   riched60:rtfwrit.obj
 0001:00089f34       ?PutCtrlWord@CRTFWrite@@AAAHJJJ@Z 1008af34 f   riched60:rtfwrit.obj
 0001:00089fa8       ?InitList@CRTFWrite@@AAAXPAU_list@@JPAVCFormatRunPtr@@PBVCParaFormat@@@Z 1008afa8 f   riched60:rtfwrit.obj
 0001:0008a01c       ?IsSameList@CRTFWrite@@AAAHPAU_level@@PBVCParaFormat@@@Z 1008b01c f   riched60:rtfwrit.obj
 0001:0008a064       ??0CRTFConverter@@QAA@PAVCTxtRange@@PAU_editstream@@KH@Z 1008b064 f   riched60:rtfwrit.obj
 0001:0008a0dc       ??0CRTFWrite@@QAA@PAVCTxtRange@@PAU_editstream@@KJPAU_charrange@@@Z 1008b0dc f   riched60:rtfwrit.obj
 0001:0008a1c4       ??1CRTFWrite@@QAA@XZ       1008b1c4 f   riched60:rtfwrit.obj
 0001:0008a214       ?PutChar@CRTFWrite@@AAAHK@Z 1008b214 f   riched60:rtfwrit.obj
 0001:0008a2d0       ?CheckDelimiter@CRTFWrite@@AAAHXZ 1008b2d0 f   riched60:rtfwrit.obj
 0001:0008a2fc       ?Puts@CRTFWrite@@AAAHPBDJ@Z 1008b2fc f   riched60:rtfwrit.obj
 0001:0008a42c       ?printF@CRTFWrite@@AAAHPBDZZ 1008b42c f   riched60:rtfwrit.obj
 0001:0008a490       ?WritePcData@CRTFWrite@@AAAHPBGHH@Z 1008b490 f   riched60:rtfwrit.obj
 0001:0008a6fc       ?LookupColor@CRTFWrite@@AAAJK@Z 1008b6fc f   riched60:rtfwrit.obj
 0001:0008a77c       ?LookupFont@CRTFWrite@@AAAJPBVCCharFormat@@@Z 1008b77c f   riched60:rtfwrit.obj
 0001:0008a870       ?RemoveSingleLevelListFromTables@CRTFWrite@@AAAXXZ 1008b870 f   riched60:rtfwrit.obj
 0001:0008a8e8       ?WriteFontTable@CRTFWrite@@AAAHXZ 1008b8e8 f   riched60:rtfwrit.obj
 0001:0008abc8       ?WriteColorTable@CRTFWrite@@AAAHXZ 1008bbc8 f   riched60:rtfwrit.obj
 0001:0008ac9c       ?WriteListTable@CRTFWrite@@AAAHXZ 1008bc9c f   riched60:rtfwrit.obj
 0001:0008afa8       ?WriteListText@CRTFWrite@@AAAHXZ 1008bfa8 f   riched60:rtfwrit.obj
 0001:0008b094       ?WriteInfo@CRTFWrite@@AAAHXZ 1008c094 f   riched60:rtfwrit.obj
 0001:0008b230       ?PushICF@CRTFWrite@@AAAHPBVCRchTxtPtr@@@Z 1008c230 f   riched60:rtfwrit.obj
 0001:0008b304       ?PopICF@CRTFWrite@@AAAHXZ  1008c304 f   riched60:rtfwrit.obj
 0001:0008b384       ?PutBorders@CRTFWrite@@AAAHH@Z 1008c384 f   riched60:rtfwrit.obj
 0001:0008b5d4       ?TranslateColorIndex@CRTFWrite@@AAAJJPBVCParaFormat@@@Z 1008c5d4 f   riched60:rtfwrit.obj
 0001:0008b61c       ?BuildTables@CRTFWrite@@AAAHAAVCRchTxtPtr@@JAAH@Z 1008c61c f   riched60:rtfwrit.obj
 0001:0008bbd8       ?CheckBulletPending@CRTFWrite@@AAAHXZ 1008cbd8 f   riched60:rtfwrit.obj
 0001:0008bc80       ?MapToRTFKeywordA@CRTFWrite@@AAAHPBEHH@Z 1008cc80 f   riched60:rtfwrit.obj
 0001:0008be78       ?MapToRTFKeywordW@CRTFWrite@@AAAXG@Z 1008ce78 f   riched60:rtfwrit.obj
 0001:0008bfa0       ?CheckInTable@CRTFWrite@@AAAHPAVCRchTxtPtr@@PAJ@Z 1008cfa0 f   riched60:rtfwrit.obj
 0001:0008c640       ?WriteParaFormat@CRTFWrite@@AAAHPAVCRchTxtPtr@@PAJ@Z 1008d640 f   riched60:rtfwrit.obj
 0001:0008d04c       ?WriteTextChunk@CRTFWrite@@AAAHJPBGHHH@Z 1008e04c f   riched60:rtfwrit.obj
 0001:0008d3ec       ?WriteText@CRTFWrite@@AAAHJPBGHHH@Z 1008e3ec f   riched60:rtfwrit.obj
 0001:0008d540       ?WriteCharFormat@CRTFWrite@@AAAJPAVCRchTxtPtr@@JJ@Z 1008e540 f   riched60:rtfwrit.obj
 0001:0008e2c8       ?WriteRtf@CRTFWrite@@QAAJXZ 1008f2c8 f   riched60:rtfwrit.obj
 0001:0008eedc       ?ConvertToWideChar@CW32System@@SAPAGPBD@Z 1008fedc f i riched60:object.obj
 0001:0008ef7c       ?GetClientSite@CTxtEdit@@UAAJPAPAUIOleClientSite@@@Z 1008ff7c f   riched60:object.obj
 0001:0008efd8       ?GetObjectCount@CTxtEdit@@UAAJXZ 1008ffd8 f   riched60:object.obj
 0001:0008f00c       ?GetLinkCount@CTxtEdit@@UAAJXZ 1009000c f   riched60:object.obj
 0001:0008f054       ?GetObject@CTxtEdit@@UAAJJPAU_reobject@@K@Z 10090054 f   riched60:object.obj
 0001:0008f19c       ?InsertObject@CTxtEdit@@UAAJPAU_reobject@@@Z 1009019c f   riched60:object.obj
 0001:0008f4ec       ?ActivateAs@CTxtEdit@@UAAJABU_GUID@@0@Z 100904ec f   riched60:object.obj
 0001:0008f564       ?SetHostNames@CTxtEdit@@UAAJPBD0@Z 10090564 f   riched60:object.obj
 0001:0008f614       ?InPlaceDeactivate@CTxtEdit@@UAAJXZ 10090614 f   riched60:object.obj
 0001:0008f66c       ?ContextSensitiveHelp@CTxtEdit@@UAAJH@Z 1009066c f   riched60:object.obj
 0001:0008f734       ?GetClipboardData@CTxtEdit@@UAAJPAU_charrange@@KPAPAUIDataObject@@@Z 10090734 f   riched60:object.obj
 0001:0008f858       ?ImportDataObject@CTxtEdit@@UAAJPAUIDataObject@@GPAX@Z 10090858 f   riched60:object.obj
 0001:0008f914       ?ObjectFromIOB@CTxtEdit@@AAAPAVCOleObject@@J@Z 10090914 f   riched60:object.obj
 0001:0008f9dc       ?ConvertObject@CTxtEdit@@UAAJJABU_GUID@@PBD@Z 100909dc f   riched60:object.obj
 0001:0008fa40       ?SetLinkAvailable@CTxtEdit@@UAAJJH@Z 10090a40 f   riched60:object.obj
 0001:0008fa6c       ?SetDvaspect@CTxtEdit@@UAAJJK@Z 10090a6c f   riched60:object.obj
 0001:0008fac8       ?HandsOffStorage@CTxtEdit@@UAAJJ@Z 10090ac8 f   riched60:object.obj
 0001:0008fb1c       ?SaveCompleted@CTxtEdit@@UAAJJPAUIStorage@@@Z 10090b1c f   riched60:object.obj
 0001:0008fb78       ?FSkipLine@CRenderer@@QBA_NXZ 10090b78 f i riched60:line.obj
 0001:0008fbc8       ?PreMeasure@CLine@@AAAXAAVCMeasurer@@I@Z 10090bc8 f   riched60:line.obj
 0001:0008fc38       ?Measure@CLine@@QAAHAAVCMeasurer@@IPAJJ_N@Z 10090c38 f   riched60:line.obj
 0001:0008fdb8       ?GetRectsOfRange@CLine@@QAAHAAVCMeasurer@@JJ@Z 10090db8 f   riched60:line.obj
 0001:0008ffb4       ?GetHeight@CLine@@QBAJ_NPBVCDisplay@@@Z 10090fb4 f   riched60:line.obj
 0001:00090030       ?IsEqual@CLine@@QBAHABU1@@Z 10091030 f   riched60:line.obj
 0001:000900f4       ??4CLinePtr@@QAAAAV0@ABV0@@Z 100910f4 f   riched60:line.obj
 0001:0009010c       ?Init@CLinePtr@@QAAXAAUCLine@@@Z 1009110c f   riched60:line.obj
 0001:00090124       ?Init@CLinePtr@@QAAXAAV?$CArray@UCLine@@@@@Z 10091124 f   riched60:line.obj
 0001:00090138       ?Set@CLinePtr@@QAAHJJPAV?$CArray@UCLine@@@@PAVCLayoutColumn@@@Z 10091138 f   riched60:line.obj
 0001:000901a8       ?MoveSL@CLinePtr@@QAAHJ@Z  100911a8 f   riched60:line.obj
 0001:000901f0       ?OperatorPostDeltaSL@CLinePtr@@QAAHJ@Z 100911f0 f   riched60:line.obj
 0001:00090238       ?IsValid@CLinePtr@@QBAHXZ  10091238 f   riched60:line.obj
 0001:00090258       ?GetLineIndex@CLinePtr@@QBAJXZ 10091258 f   riched60:line.obj
 0001:00090260       ?GetCchLeft@CLinePtr@@QBAJXZ 10091260 f   riched60:line.obj
 0001:00090290       ?CountLines@CLinePtr@@QBAJAAJJJJ@Z 10091290 f   riched60:line.obj
 0001:000902ac       ?Render@CLine@@QAAHAAVCRenderer@@H@Z 100912ac f   riched60:line.obj
 0001:00090364       ?CchFromUp@CLine@@QBAJAAVCMeasurer@@UtagLSPOINTUV@@PAVCDispDim@@PAW4HITTEST@@PAJ@Z 10091364 f   riched60:line.obj
 0001:0009068c       ?GetDescent@CLine@@QBAJ_N@Z 1009168c f   riched60:line.obj
 0001:00090704       ??0CLinePtr@@QAA@PAVCDisplay@@PAVCLayout@@@Z 10091704 f   riched60:line.obj
 0001:00090784       ??0CLinePtr@@QAA@ABV0@@Z   10091784 f   riched60:line.obj
 0001:000907ac       ?Move@CLinePtr@@QAAHJ@Z    100917ac f   riched60:line.obj
 0001:000907dc       ??FCLinePtr@@QAAHH@Z       100917dc f   riched60:line.obj
 0001:00090808       ??ECLinePtr@@QAAHH@Z       10091808 f   riched60:line.obj
 0001:00090834       ?GetLine@CLinePtr@@QBAPAUCLine@@XZ 10091834 f   riched60:line.obj
 0001:00090880       ?FindParagraphInLayout@CLinePtr@@IAAJH@Z 10091880 f   riched60:line.obj
 0001:00090a00       ?GetAdjustedLineLength@CLinePtr@@QAAJXZ 10091a00 f   riched60:line.obj
 0001:00090a1c       ?UpFromCch@CLine@@QBAJAAVCMeasurer@@JIPAVCDispDim@@PAJ@Z 10091a1c f   riched60:line.obj
 0001:00090d20       ?AdjustBackward@CLinePtr@@QAAXXZ 10091d20 f   riched60:line.obj
 0001:00090dc0       ?AdjustForward@CLinePtr@@QAAXXZ 10091dc0 f   riched60:line.obj
 0001:00090e40       ??ACLinePtr@@IAAAAUCLine@@J@Z 10091e40 f   riched60:line.obj
 0001:00090ec4       ?SetCp@CLinePtr@@QAAHJHJ@Z 10091ec4 f   riched60:line.obj
 0001:00091020       ?CountPages@CLinePtr@@QBAJAAJJJJ@Z 10092020 f   riched60:line.obj
 0001:000911c0       ?FindPage@CLinePtr@@QAAXPAJ0JJJ@Z 100921c0 f   riched60:line.obj
 0001:000913a0       ?Init@CDisplaySL@@MAAHXZ   100923a0 f   riched60:dispsl.obj
 0001:000913cc       ?Render@CDisplaySL@@MAAXABURECTUV@@0@Z 100923cc f   riched60:dispsl.obj
 0001:000914a0       ?WaitForRecalcIli@CDisplaySL@@MBAHJ@Z 100924a0 f   riched60:dispsl.obj
 0001:000914b0       ?GetScrollRange@CDisplaySL@@MBAJH@Z 100924b0 f   riched60:dispsl.obj
 0001:00091510       ?IsMain@CDisplaySL@@MBAHXZ 10092510 f   riched60:dispsl.obj
 0001:00091518       ?GetDuiLineMax@CDisplaySL@@MBAJXZ 10092518 f   riched60:dispsl.obj
 0001:00091520       ?GetHeight@CDisplaySL@@MBAJ_N@Z 10092520 f   riched60:dispsl.obj
 0001:00091528       ?GetResizeHeight@CDisplaySL@@MBAJXZ 10092528 f   riched60:dispsl.obj
 0001:00091530       ?LineCount@CDisplaySL@@MBAJH@Z 10092530 f   riched60:dispsl.obj
 0001:00091538       ?GetCliVisible@CDisplaySL@@MBAJPAJH@Z 10092538 f   riched60:dispsl.obj
 0001:0009154c       ?GetFirstVisibleLine@CDisplaySL@@MBAJXZ 1009254c f   riched60:dispsl.obj
 0001:00091554       ?GetLineText@CDisplaySL@@MAAJJPAGJ@Z 10092554 f   riched60:dispsl.obj
 0001:000915b8       ?CpFromLine@CDisplaySL@@MAAJJPAJ@Z 100925b8 f   riched60:dispsl.obj
 0001:000915cc       ?LineFromCp@CDisplaySL@@MAAJJH@Z 100925cc f   riched60:dispsl.obj
 0001:000915d4       ?GetLeafLineAndItsCp@CDisplaySL@@MAAJJAAVCLinePtr@@AAJ@Z 100925d4 f   riched60:dispsl.obj
 0001:00091628       ?GetRectOfRange@CDisplaySL@@MAAXABVCTxtRange@@AAURECTUV@@@Z 10092628 f   riched60:dispsl.obj
 0001:0009175c       ?InvertRange@CDisplaySL@@MAAHPAVCTxtSelection@@JJW4SELDISPLAYACTION@@@Z 1009275c f   riched60:dispsl.obj
 0001:0009188c       ?InitLinePtr@CDisplaySL@@MAAXAAVCLinePtr@@@Z 1009288c f   riched60:dispsl.obj
 0001:000918a4       ?GetWordWrap@CDisplaySL@@MBAHXZ 100928a4 f   riched60:dispsl.obj
 0001:000918ac       ?GetMaxUScroll@CDisplaySL@@MBAJXZ 100928ac f   riched60:dispsl.obj
 0001:000918d8       ?GetCountOfLeafLines@CDisplaySL@@MBAJXZ 100928d8 f   riched60:dispsl.obj
 0001:000918e0       ?LookForLeafLine@CDisplaySL@@MAAHAAJ0PAVCLinePtr@@PAVCRchTxtPtr@@@Z 100928e0 f   riched60:dispsl.obj
 0001:00091944       ??0CDisplaySL@@QAA@PAVCTxtEdit@@@Z 10092944 f   riched60:dispsl.obj
 0001:0009196c       ?GetFirstLine@CDisplaySL@@MAAPAUCLine@@XZ 1009296c f i riched60:dispsl.obj
 0001:0009197c       ??_ECDisplaySL@@UAAPAXI@Z  1009297c f i riched60:dispsl.obj
 0001:0009197c       ??_GCDisplaySL@@UAAPAXI@Z  1009297c f i riched60:dispsl.obj
 0001:000919a0       ?RecalcLine@CDisplaySL@@IAAHXZ 100929a0 f   riched60:dispsl.obj
 0001:00091a68       ?UpdateScrollBar@CDisplaySL@@MAAHHH@Z 10092a68 f   riched60:dispsl.obj
 0001:00091cd0       ?CpFromPoint@CDisplaySL@@MAAJUtagLSPOINTUV@@PBURECTUV@@QAVCRchTxtPtr@@QAVCLinePtr@@HPAW4HITTEST@@PAVCDispDim@@PAJ@Z 10092cd0 f   riched60:dispsl.obj
 0001:00091edc       ?PointFromTp@CDisplaySL@@MAAJABVCRchTxtPtr@@PBURECTUV@@HAAUtagLSPOINTUV@@QAVCLinePtr@@IPAVCDispDim@@@Z 10092edc f   riched60:dispsl.obj
 0001:000920ec       ?UpdateView@CDisplaySL@@MAAHAAVCRchTxtPtr@@JJH@Z 100930ec f   riched60:dispsl.obj
 0001:000922e0       ?ScrollView@CDisplaySL@@MAAHJJHH@Z 100932e0 f   riched60:dispsl.obj
 0001:00092558       ?GetNaturalSize@CDisplaySL@@MAAJKPAJ0@Z 10093558 f   riched60:dispsl.obj
 0001:00092714       ?GetRectsOfRange@CDisplaySL@@MAAHAAVCTxtRange@@PAXP6AH1PBUtagRECT@@@Z@Z 10093714 f   riched60:dispsl.obj
 0001:000927f4       ?Clone@CDisplaySL@@MBAPAVCDisplay@@XZ 100937f4 f   riched60:dispsl.obj
 0001:000928b4       ?RecalcView@CDisplaySL@@MAAHHABUCViewRect@@PAURECTUV@@@Z 100938b4 f   riched60:dispsl.obj
 0001:00092aa0       ?CalcScrollHeight@CDisplayML@@ABAJJ_N@Z 10093aa0 f   riched60:dispml.obj
 0001:00092b14       ?GetMaxVpScroll@CDisplayML@@ABAJXZ 10093b14 f i riched60:dispml.obj
 0001:00092b64       ??0CDisplayML@@QAA@PAVCTxtEdit@@@Z 10093b64 f   riched60:dispml.obj
 0001:00092b90       ?IsMain@CDisplayML@@UBAHXZ 10093b90 f i riched60:dispml.obj
 0001:00092b98       ?Init@CDisplayML@@UAAHXZ   10093b98 f   riched60:dispml.obj
 0001:00092cd0       ?SetDisplayEngine@CDisplayML@@UAAHW4DisplayEngineType@@@Z 10093cd0 f   riched60:dispml.obj
 0001:00092e20       ?GetFirstLine@CDisplayML@@UAAPAUCLine@@XZ 10093e20 f   riched60:dispml.obj
 0001:00092e3c       ?GetTflow@CDisplayML@@UBAEXZ 10093e3c f   riched60:dispml.obj
 0001:00092e74       ?SetTflow@CDisplayML@@UAAXE@Z 10093e74 f   riched60:dispml.obj
 0001:00092f90       ?GetDuiLineMax@CDisplayML@@UBAJXZ 10093f90 f   riched60:dispml.obj
 0001:00092fa8       ?GetHeight@CDisplayML@@UBAJ_N@Z 10093fa8 f   riched60:dispml.obj
 0001:00092fec       ?RecalcScrollBars@CDisplayML@@AAAXXZ 10093fec f   riched60:dispml.obj
 0001:0009305c       ?StepBackgroundRecalc@CDisplayML@@UAAXXZ 1009405c f   riched60:dispml.obj
 0001:00093104       ?WaitForRecalc@CDisplayML@@UBAHJJ@Z 10094104 f   riched60:dispml.obj
 0001:00093164       ?WaitForRecalcIli@CDisplayML@@UBAHJ@Z 10094164 f   riched60:dispml.obj
 0001:000931f8       ?WaitForRecalcView@CDisplayML@@UBAHXZ 100941f8 f   riched60:dispml.obj
 0001:0009321c       ?ClearLayoutCaches@CDisplayML@@UAAXXZ 1009421c f   riched60:dispml.obj
 0001:00093234       ?InitLinePtr@CDisplayML@@UAAXAAVCLinePtr@@@Z 10094234 f   riched60:dispml.obj
 0001:0009324c       ?GetLineText@CDisplayML@@UAAJJPAGJ@Z 1009424c f   riched60:dispml.obj
 0001:0009333c       ?LineCount@CDisplayML@@UBAJH@Z 1009433c f   riched60:dispml.obj
 0001:000933a8       ?GetViewRenderRect@CDisplayML@@UAAXAAURECTUV@@ABU2@@Z 100943a8 f   riched60:dispml.obj
 0001:000933c0       ?CpFromLine@CDisplayML@@UAAJJPAJ@Z 100943c0 f   riched60:dispml.obj
 0001:00093544       ?LineFromCp@CDisplayML@@UAAJJH@Z 10094544 f   riched60:dispml.obj
 0001:000935c0       ?CpFromPoint@CDisplayML@@UAAJUtagLSPOINTUV@@PBURECTUV@@QAVCRchTxtPtr@@QAVCLinePtr@@HPAW4HITTEST@@PAVCDispDim@@PAJ@Z 100945c0 f   riched60:dispml.obj
 0001:00093684       ?PointFromTp@CDisplayML@@UAAJABVCRchTxtPtr@@PBURECTUV@@HAAUtagLSPOINTUV@@QAVCLinePtr@@IPAVCDispDim@@@Z 10094684 f   riched60:dispml.obj
 0001:000936c4       ?GetRectOfRange@CDisplayML@@UAAXABVCTxtRange@@AAURECTUV@@@Z 100946c4 f   riched60:dispml.obj
 0001:00093748       ?Render@CDisplayML@@EAAXABURECTUV@@0@Z 10094748 f   riched60:dispml.obj
 0001:00093760       ?PrepareDisplayOnlyUpdate@CDisplayML@@QAAXJJAAVCLed@@@Z 10094760 f   riched60:dispml.obj
 0001:0009386c       ?RecalcLine@CDisplayML@@UAAXJ@Z 1009486c f   riched60:dispml.obj
 0001:000938e0       ?DeletePddTarget@CDisplayML@@AAAXXZ 100948e0 f   riched60:dispml.obj
 0001:00093960       ?InitVars@CDisplayML@@AAAXXZ 10094960 f   riched60:dispml.obj
 0001:00093980       ?GetCliVisible@CDisplayML@@UBAJPAJH@Z 10094980 f   riched60:dispml.obj
 0001:00093ad0       ?InvertRange@CDisplayML@@UAAHPAVCTxtSelection@@JJW4SELDISPLAYACTION@@@Z 10094ad0 f   riched60:dispml.obj
 0001:00093dcc       ?VScroll@CDisplayML@@UAAJGJ@Z 10094dcc f   riched60:dispml.obj
 0001:000944a8       ?LineScroll@CDisplayML@@UAAXJJ@Z 100954a8 f   riched60:dispml.obj
 0001:00094578       ?FractionalScrollView@CDisplayML@@UAAXJ@Z 10095578 f   riched60:dispml.obj
 0001:0009460c       ?ScrollToLineStart@CDisplayML@@UAAXJ@Z 1009560c f   riched60:dispml.obj
 0001:00094610       ?CalcVLineScrollDelta@CDisplayML@@UAAJJH@Z 10095610 f   riched60:dispml.obj
 0001:000947dc       ?GetScrollRange@CDisplayML@@UBAJH@Z 100957dc f   riched60:dispml.obj
 0001:00094890       ?UpdateScrollBar@CDisplayML@@EAAHHH@Z 10095890 f   riched60:dispml.obj
 0001:00094bb0       ?GetNaturalSize@CDisplayML@@UAAJKPAJ0@Z 10095bb0 f   riched60:dispml.obj
 0001:00094d40       ?Clone@CDisplayML@@UBAPAVCDisplay@@XZ 10095d40 f   riched60:dispml.obj
 0001:00094edc       ?ClearContexts@CDisplayML@@UAAXXZ 10095edc f   riched60:dispml.obj
 0001:00094ef4       ?ShutdownDisplayEngine@CDisplayML@@UAAXXZ 10095ef4 f   riched60:dispml.obj
 0001:00094f0c       ?GetCpStartOfLastColumn@CDisplayML@@UBAJXZ 10095f0c f   riched60:dispml.obj
 0001:00094f24       ?DoDeferredUpdateScrollBar@CDisplayML@@AAAHXZ 10095f24 f   riched60:dispml.obj
 0001:00094fc8       ?GetMaxUScroll@CDisplayML@@EBAJXZ 10095fc8 f   riched60:dispml.obj
 0001:00095020       ?GetCountOfLeafLines@CDisplayML@@EBAJXZ 10096020 f   riched60:dispml.obj
 0001:00095038       ?LookForLeafLine@CDisplayML@@EAAHAAJ0PAVCLinePtr@@PAVCRchTxtPtr@@@Z 10096038 f   riched60:dispml.obj
 0001:00095060       ?AdjustToDisplayLastLine@CDisplayML@@UAAJJJ@Z 10096060 f   riched60:dispml.obj
 0001:00095120       ?GetResizeHeight@CDisplayML@@UBAJXZ 10096120 f   riched60:dispml.obj
 0001:00095170       ?Paginate@CDisplayML@@UAAHJH@Z 10096170 f   riched60:dispml.obj
 0001:00095188       ?CalculatePage@CDisplayML@@AAAJJ@Z 10096188 f   riched60:dispml.obj
 0001:00095284       ?GetPage@CDisplayML@@UAAJPAJKPAU_charrange@@@Z 10096284 f   riched60:dispml.obj
 0001:000952f8       ?SetPage@CDisplayML@@UAAJJ@Z 100962f8 f   riched60:dispml.obj
 0001:00095380       ?OnPreReplaceRange@CDisplayML@@UAAXJJJJJPAUNOTIFY_DATA@@@Z 10096380 f   riched60:dispml.obj
 0001:000953fc       ?OnPostReplaceRange@CDisplayML@@UAAXJJJJJPAUNOTIFY_DATA@@@Z 100963fc f   riched60:dispml.obj
 0001:00095478       ?GetDisplayEngineType@CDisplayML@@UBA?AW4DisplayEngineType@@XZ 10096478 f   riched60:dispml.obj
 0001:00095490       ?OnObjectChange@CDisplayML@@UBAXABVCOleObject@@URECTUV@@@Z 10096490 f   riched60:dispml.obj
 0001:000954b4       ?OnObjectDeletion@CDisplayML@@UBAXABVCOleObject@@@Z 100964b4 f   riched60:dispml.obj
 0001:000954cc       ?GetRenderingRectOfObject@CDisplayML@@UBAXABVCOleObject@@AAURECTUV@@@Z 100964cc f   riched60:dispml.obj
 0001:000954e4       ?ClientRectFromPageRect@CDisplayML@@UBAXAAURECTUV@@ABU2@@Z 100964e4 f   riched60:dispml.obj
 0001:000954fc       ?OnOverlappingTextDetection@CDisplayML@@UBAXXZ 100964fc f   riched60:dispml.obj
 0001:00095514       ?FCurrentPageHasOverlappingText@CDisplayML@@UBAHXZ 10096514 f   riched60:dispml.obj
 0001:0009552c       ?CalcDisplayDui@CDisplayML@@UBAJAAVCMeasurer@@@Z 1009652c f   riched60:dispml.obj
 0001:00095544       ?StartParaRunsUpdate@CDisplayML@@UAAXABVCTxtStory@@JJ@Z 10096544 f   riched60:dispml.obj
 0001:0009557c       ?SetCchLostByParaBeforeRange@CDisplayML@@UAAXABVCTxtStory@@J@Z 1009657c f   riched60:dispml.obj
 0001:000955a0       ?SetCchLostByParaAfterRange@CDisplayML@@UAAXABVCTxtStory@@J@Z 100965a0 f   riched60:dispml.obj
 0001:000955c4       ?SetFLastRunIsNew@CDisplayML@@UAAXABVCTxtStory@@@Z 100965c4 f   riched60:dispml.obj
 0001:000955e4       ?GetCurrentPageHeight@CDisplayML@@UBAJ_N@Z 100965e4 f   riched60:dispml.obj
 0001:000956b4       ?EnsureValidLeafLineCache@CDisplayML@@AAAHXZ 100966b4 f   riched60:dispml.obj
 0001:00095788       ?GetLeafLineIndexFromCp@CDisplayML@@AAAJJAAJ@Z 10096788 f   riched60:dispml.obj
 0001:000958cc       ?AlterLastLineDescent@CDisplayML@@AAAXJ@Z 100968cc f   riched60:dispml.obj
 0001:00095940       ??1CDisplayML@@UAA@XZ      10096940 f   riched60:dispml.obj
 0001:00095994       ?SetMainTargetDC@CDisplayML@@UAAHABVCHDC@@JJ@Z 10096994 f   riched60:dispml.obj
 0001:00095a70       ?SetTargetDC@CDisplayML@@UAAHABVCHDC@@JJ@Z 10096a70 f   riched60:dispml.obj
 0001:00095b8c       ?SetIdealDC@CDisplayML@@UAAHJJ@Z 10096b8c f   riched60:dispml.obj
 0001:00095c84       ?GetLeafLineAndItsCp@CDisplayML@@UAAJJAAVCLinePtr@@AAJ@Z 10096c84 f   riched60:dispml.obj
 0001:00095e20       ?UpdateView@CDisplayML@@UAAHAAVCRchTxtPtr@@JJH@Z 10096e20 f   riched60:dispml.obj
 0001:0009606c       ?ScrollView@CDisplayML@@UAAHJJHH@Z 1009706c f   riched60:dispml.obj
 0001:00096814       ?GetRectsOfRange@CDisplayML@@UAAHAAVCTxtRange@@PAXP6AH1PBUtagRECT@@@Z@Z 10097814 f   riched60:dispml.obj
 0001:00096b24       ?FormatEmptyLine@CDisplayML@@QAAHPAUCLine@@@Z 10097b24 f   riched60:dispml.obj
 0001:00096c18       ?Sync_yScroll@CDisplayML@@AAAXXZ 10097c18 f   riched60:dispml.obj
 0001:00096d28       ??_ECDisplayML@@UAAPAXI@Z  10097d28 f i riched60:dispml.obj
 0001:00096d28       ??_GCDisplayML@@UAAPAXI@Z  10097d28 f i riched60:dispml.obj
 0001:00096d4c       ?Set_yScroll@CDisplayML@@AAAXJ@Z 10097d4c f   riched60:dispml.obj
 0001:00096e00       ?InvalidateOnUpdate@CDisplayML@@QAAHABVCLed@@JPAVCRchTxtPtr@@H@Z 10097e00 f   riched60:dispml.obj
 0001:000973ac       ?RebindFirstVisible@CDisplayML@@AAAXH@Z 100983ac f   riched60:dispml.obj
 0001:0009742c       ?RecalcView@CDisplayML@@UAAHHABUCViewRect@@PAURECTUV@@@Z 1009842c f   riched60:dispml.obj
 0001:00097668       ?SetLsDevRes@CRectAccumulator@@QAAXABULSDEVRES@@@Z 10098668 f i riched60:measure.obj
 0001:000976b0       ?GetScalePrCnt@CMeasurerNoFC@@QBAHXZ 100986b0 f   riched60:measure.obj
 0001:000976e0       ?SetUseTargetDevice@CMeasurerNoFC@@QAAXH@Z 100986e0 f   riched60:measure.obj
 0001:00097748       ?NewLine@CMeasurerNoFC@@QAAXH@Z 10098748 f   riched60:measure.obj
 0001:000977a0       ?NewLine@CMeasurerNoFC@@QAAXABUCLine@@@Z 100987a0 f   riched60:measure.obj
 0001:000977e4       ?SetLsDevRes@CMeasurerNoFC@@QBAXABULSDEVRES@@@Z 100987e4 f   riched60:measure.obj
 0001:000977fc       ?GetPBorderWidth@CMeasurerNoFC@@QAAJJ@Z 100987fc f   riched60:measure.obj
 0001:00097864       ?SetILSShadeRange@CMeasurerNoFC@@QAAXXZ 10098864 f   riched60:measure.obj
 0001:000978ac       ?UpdatePF@CMeasurerNoFC@@QAAXXZ 100988ac f   riched60:measure.obj
 0001:00097948       ?SetTeXStyle@CMeasurerNoFC@@QAAXE@Z 10098948 f   riched60:measure.obj
 0001:00097960       ?SetPccs@CMeasurer@@QAAXPAVCCcs@@ABVCHDC@@@Z 10098960 f   riched60:measure.obj
 0001:000979a4       ?GetBullet@CMeasurer@@IAAJPAGJPAVCCcs@@ABVCHDC@@PAJ@Z 100989a4 f   riched60:measure.obj
 0001:00097a68       ?GetLocalTflow@CMeasurerNoFC@@QBAEXZ 10098a68 f i riched60:measure.obj
 0001:00097aa4       ?AddRect@CRectAccumulator@@QAA_NABURECTUV@@@Z 10098aa4 f i riched60:measure.obj
 0001:00097c14       ?Init@CMeasurerNoFC@@IAAXPBVCDisplay@@@Z 10098c14 f   riched60:measure.obj
 0001:00097f00       ??0CMeasurerNoFC@@QAA@QBVCDisplay@@@Z 10098f00 f   riched60:measure.obj
 0001:00097f50       ??0CMeasurerNoFC@@QAA@QBVCDisplay@@ABVCRchTxtPtr@@@Z 10098f50 f   riched60:measure.obj
 0001:00097f98       ??1CMeasurerNoFC@@UAA@XZ   10098f98 f   riched60:measure.obj
 0001:00098004       ?SetGlyphing@CMeasurerNoFC@@QAAXH@Z 10099004 f   riched60:measure.obj
 0001:00098088       ?GetRectsOfRangeWithinLine@CMeasurerNoFC@@QAAHJJPAXP6AH0PBUtagRECT@@@ZJJ@Z 10099088 f   riched60:measure.obj
 0001:000981e0       ?AddRectOnEnumeration@CMeasurerNoFC@@QBA_NABURECTUV@@@Z 100991e0 f   riched60:measure.obj
 0001:00098200       ?GetObjectFromCp@CMeasurerNoFC@@QBAPAVCOleObject@@J@Z 10099200 f   riched60:measure.obj
 0001:0009823c       ?AdjustLineHeight@CMeasurerNoFC@@QAAXXZ 1009923c f   riched60:measure.obj
 0001:0009855c       ?GetCFBullet@CMeasurerNoFC@@QAAXAAVCCharFormat@@@Z 1009955c f   riched60:measure.obj
 0001:000986b8       ?MeasureRightIndent@CMeasurerNoFC@@QAAJ_N@Z 100996b8 f   riched60:measure.obj
 0001:00098730       ?MeasureLineShift@CMeasurerNoFC@@QAAJXZ 10099730 f   riched60:measure.obj
 0001:0009881c       ?FindCpDraw@CMeasurerNoFC@@QAAJJHH@Z 1009981c f   riched60:measure.obj
 0001:000988f8       ?AddObjectToQueue@CMeasurerNoFC@@QAAXPAVCOleObject@@@Z 100998f8 f   riched60:measure.obj
 0001:00098970       ?CountQueueEntries@CMeasurerNoFC@@QAAHH@Z 10099970 f   riched60:measure.obj
 0001:000989dc       ?RemoveFirstWrap@CMeasurerNoFC@@QAAXH@Z 100999dc f   riched60:measure.obj
 0001:00098a54       ?FindFirstWrapObj@CMeasurerNoFC@@QAAPAVCOleObject@@H@Z 10099a54 f   riched60:measure.obj
 0001:00098ac0       ?XFromU@CMeasurerNoFC@@QAAJJ@Z 10099ac0 f   riched60:measure.obj
 0001:00098c20       ?UFromX@CMeasurerNoFC@@QAAJJ@Z 10099c20 f   riched60:measure.obj
 0001:00098c68       ?Release_pccs@CMeasurer@@UAAXXZ 10099c68 f   riched60:measure.obj
 0001:00098ca0       ?GetCcs@CMeasurer@@QBAPAVCCcs@@PBVCCharFormat@@W4FONTALIGNMENT@@AAVCHDC@@@Z 10099ca0 f   riched60:measure.obj
 0001:00098e24       ?CheckLineHeight@CMeasurer@@QAAXXZ 10099e24 f   riched60:measure.obj
 0001:00098fd4       ?CalcLineHeightAndDescent@CMeasurer@@QAAXPAVCCcs@@AAJ1@Z 10099fd4 f   riched60:measure.obj
 0001:00099134       ?GetCcsFontFallback@CMeasurer@@QAAPAVCCcs@@GEAAVCHDC@@@Z 1009a134 f   riched60:measure.obj
 0001:0009924c       ?GetCcsBullet@CMeasurer@@QAAPAVCCcs@@PAVCCharFormat@@AAVCHDC@@@Z 1009a24c f   riched60:measure.obj
 0001:000992b8       ??_GCMeasurerNoFC@@UAAPAXI@Z 1009a2b8 f i riched60:measure.obj
 0001:000992b8       ??_ECMeasurerNoFC@@UAAPAXI@Z 1009a2b8 f i riched60:measure.obj
 0001:000992dc       ?UpdateWrapState@CMeasurerNoFC@@QAAXAAJ0H@Z 1009a2dc f   riched60:measure.obj
 0001:00099454       ?UpdateWrapState@CMeasurerNoFC@@QAAXAAJ0@Z 1009a454 f   riched60:measure.obj
 0001:0009949c       ?HitTest@CMeasurerNoFC@@QAA?AW4HITTEST@@J@Z 1009a49c f   riched60:measure.obj
 0001:00099640       ?ApplyFontCache@CMeasurer@@QAAPAVCCcs@@HGE@Z 1009a640 f   riched60:measure.obj
 0001:00099714       ?Check_pccs@CMeasurer@@QAAPAVCCcs@@HEE@Z 1009a714 f   riched60:measure.obj
 0001:00099930       ?RecalcLineHeight@CMeasurer@@AAAXPAVCCcs@@QBVCCharFormat@@@Z 1009a930 f   riched60:measure.obj
 0001:00099a0c       ?MeasureBullet@CMeasurer@@IAAJXZ 1009aa0c f   riched60:measure.obj
 0001:00099b00       ?MeasureLeftIndent@CMeasurer@@QAAJ_N@Z 1009ab00 f   riched60:measure.obj
 0001:00099c30       ?MeasureTab@CMeasurer@@IAAJXZ 1009ac30 f   riched60:measure.obj
 0001:00099dc8       ?Measure@CMeasurer@@IAAJJJI@Z 1009adc8 f   riched60:measure.obj
 0001:0009a948       ?MeasureLine@CMeasurer@@QAAHIPAJ@Z 1009b948 f   riched60:measure.obj
 0001:0009aa48       ?MeasureText@CMeasurer@@QAAJJ@Z 1009ba48 f   riched60:measure.obj
 0001:0009aaac       ?GetDimensions@COffscreenDC@@QAAXPAJ0@Z 1009baac f   riched60:osdc.obj
 0001:0009aae4       ?SelectPalette@COffscreenDC@@QAAXPAUHPALETTE__@@@Z 1009bae4 f   riched60:osdc.obj
 0001:0009aae8       ?FreeData@COffscreenDC@@AAAXXZ 1009bae8 f   riched60:osdc.obj
 0001:0009ab38       ?Realloc@COffscreenDC@@QAAHJJ@Z 1009bb38 f   riched60:osdc.obj
 0001:0009ab74       ?Init@COffscreenDC@@QAAPAUHDC__@@PAU2@JJK@Z 1009bb74 f   riched60:osdc.obj
 0001:0009ac1c       ?QueryInterface@CTxtStoryRanges@@UAAJABU_GUID@@PAPAX@Z 1009bc1c f   riched60:tomstry.obj
 0001:0009ac68       ?AddRef@CTxtStoryRanges@@UAAKXZ 1009bc68 f   riched60:tomstry.obj
 0001:0009ac7c       ?Release@CTxtStoryRanges@@UAAKXZ 1009bc7c f   riched60:tomstry.obj
 0001:0009aca4       ?GetTypeInfoCount@CTxtStoryRanges@@UAAJPAI@Z 1009bca4 f   riched60:tomstry.obj
 0001:0009acc0       ?GetTypeInfo@CTxtStoryRanges@@UAAJIKPAPAUITypeInfo@@@Z 1009bcc0 f   riched60:tomstry.obj
 0001:0009acd4       ?GetIDsOfNames@CTxtStoryRanges@@UAAJABU_GUID@@PAPAGIKPAJ@Z 1009bcd4 f   riched60:tomstry.obj
 0001:0009ad10       ?Invoke@CTxtStoryRanges@@UAAJJABU_GUID@@KGPAUtagDISPPARAMS@@PAUtagVARIANT@@PAUtagEXCEPINFO@@PAI@Z 1009bd10 f   riched60:tomstry.obj
 0001:0009ad78       ?GetCount@CTxtStoryRanges@@UAAJPAJ@Z 1009bd78 f   riched60:tomstry.obj
 0001:0009adb4       ?_NewEnum@CTxtStoryRanges@@UAAJPAPAUIUnknown@@@Z 1009bdb4 f   riched60:tomstry.obj
 0001:0009adc0       ?Item@CTxtStoryRanges@@UAAJJPAPAUITextRange@@@Z 1009bdc0 f   riched60:tomstry.obj
 0001:0009ae5c       ??0CTxtStoryRanges@@QAA@PAVCTxtEdit@@@Z 1009be5c f   riched60:tomstry.obj
 0001:0009ae78       ?QueryInterface1@@YAJABU_GUID@@0PAUIUnknown@@PAPAXH@Z 1009be78 f   riched60:tomfmt.obj
 0001:0009af28       ?QueryInterface2@@YAJABU_GUID@@00PAUIUnknown@@PAPAXH@Z 1009bf28 f   riched60:tomfmt.obj
 0001:0009afa4       ?QueryInterface@CTxtFont@@UAAJABU_GUID@@PAPAX@Z 1009bfa4 f   riched60:tomfmt.obj
 0001:0009b000       ?AddRef@CTxtFont@@UAAKXZ   1009c000 f   riched60:tomfmt.obj
 0001:0009b014       ?GetTypeInfoCount@CTxtFont@@UAAJPAI@Z 1009c014 f   riched60:tomfmt.obj
 0001:0009b030       ?GetTypeInfo@CTxtFont@@UAAJIKPAPAUITypeInfo@@@Z 1009c030 f   riched60:tomfmt.obj
 0001:0009b044       ?GetIDsOfNames@CTxtFont@@UAAJABU_GUID@@PAPAGIKPAJ@Z 1009c044 f   riched60:tomfmt.obj
 0001:0009b080       ?Invoke@CTxtFont@@UAAJJABU_GUID@@KGPAUtagDISPPARAMS@@PAUtagVARIANT@@PAUtagEXCEPINFO@@PAI@Z 1009c080 f   riched60:tomfmt.obj
 0001:0009b10c       ?GetAutoLigatures@CTxtFont@@UAAJPAJ@Z 1009c10c f   riched60:tomfmt.obj
 0001:0009b118       ?GetCount@CTxtFont@@UAAJPAJ@Z 1009c118 f   riched60:tomfmt.obj
 0001:0009b12c       ?GetDuplicate2@CTxtFont@@UAAJPAPAUITextFont2@@@Z 1009c12c f   riched60:tomfmt.obj
 0001:0009b158       ?GetOldNumbers@CTxtFont@@UAAJPAJ@Z 1009c158 f   riched60:tomfmt.obj
 0001:0009b164       ?GetProperty@CTxtFont@@UAAJJPAJ@Z 1009c164 f   riched60:tomfmt.obj
 0001:0009b170       ?GetPropertyInfo@CTxtFont@@UAAJJPAJ0@Z 1009c170 f   riched60:tomfmt.obj
 0001:0009b17c       ?IsEqual2@CTxtFont@@UAAJPAUITextFont2@@PAJ@Z 1009c17c f   riched60:tomfmt.obj
 0001:0009b188       ?SetAutoLigatures@CTxtFont@@UAAJJ@Z 1009c188 f   riched60:tomfmt.obj
 0001:0009b194       ?SetDuplicate2@CTxtFont@@UAAJPAUITextFont2@@@Z 1009c194 f   riched60:tomfmt.obj
 0001:0009b1a0       ?SetEffects2@CTxtFont@@UAAJJJ@Z 1009c1a0 f   riched60:tomfmt.obj
 0001:0009b1ac       ?SetOldNumbers@CTxtFont@@UAAJJ@Z 1009c1ac f   riched60:tomfmt.obj
 0001:0009b1b8       ?SetProperty@CTxtFont@@UAAJJJ@Z 1009c1b8 f   riched60:tomfmt.obj
 0001:0009b1c4       ?QueryInterface@CTxtPara@@UAAJABU_GUID@@PAPAX@Z 1009c1c4 f   riched60:tomfmt.obj
 0001:0009b220       ?AddRef@CTxtPara@@UAAKXZ   1009c220 f   riched60:tomfmt.obj
 0001:0009b234       ?GetTypeInfoCount@CTxtPara@@UAAJPAI@Z 1009c234 f   riched60:tomfmt.obj
 0001:0009b250       ?GetTypeInfo@CTxtPara@@UAAJIKPAPAUITypeInfo@@@Z 1009c250 f   riched60:tomfmt.obj
 0001:0009b264       ?GetIDsOfNames@CTxtPara@@UAAJABU_GUID@@PAPAGIKPAJ@Z 1009c264 f   riched60:tomfmt.obj
 0001:0009b2a0       ?Invoke@CTxtPara@@UAAJJABU_GUID@@KGPAUtagDISPPARAMS@@PAUtagVARIANT@@PAUtagEXCEPINFO@@PAI@Z 1009c2a0 f   riched60:tomfmt.obj
 0001:0009b32c       ?GetBorders@CTxtPara@@UAAJPAPAUITextBorders@@@Z 1009c32c f   riched60:tomfmt.obj
 0001:0009b374       ?GetDuplicate2@CTxtPara@@UAAJPAPAUITextPara2@@@Z 1009c374 f   riched60:tomfmt.obj
 0001:0009b3a0       ?GetEffects@CTxtPara@@UAAJPAJ0@Z 1009c3a0 f   riched60:tomfmt.obj
 0001:0009b3ac       ?GetProperty@CTxtPara@@UAAJJPAJ@Z 1009c3ac f   riched60:tomfmt.obj
 0001:0009b3b8       ?IsEqual2@CTxtPara@@UAAJPAUITextPara2@@PAJ@Z 1009c3b8 f   riched60:tomfmt.obj
 0001:0009b3c4       ?SetDuplicate2@CTxtPara@@UAAJPAUITextPara2@@@Z 1009c3c4 f   riched60:tomfmt.obj
 0001:0009b3d0       ?SetEffects@CTxtPara@@UAAJJJ@Z 1009c3d0 f   riched60:tomfmt.obj
 0001:0009b3dc       ?SetProperty@CTxtPara@@UAAJJJ@Z 1009c3dc f   riched60:tomfmt.obj
 0001:0009b3e8       ?FormatSetter@CTxtFont@@AAAJKKK@Z 1009c3e8 f   riched60:tomfmt.obj
 0001:0009b4c4       ?UpdateFormat@CTxtFont@@AAAJH@Z 1009c4c4 f   riched60:tomfmt.obj
 0001:0009b5b0       ?CheckTabsAddRef@CTxtPara@@AAAXXZ 1009c5b0 f   riched60:tomfmt.obj
 0001:0009b5e4       ?UpdateFormat@CTxtPara@@AAAJXZ 1009c5e4 f   riched60:tomfmt.obj
 0001:0009b6a8       ?CanChange@CTxtFormat@@IAAJPAJH@Z 1009c6a8 f   riched60:tomfmt.obj
 0001:0009b718       ?GetParameter@CTxtFormat@@IAAJPAJKJ0K@Z 1009c718 f   riched60:tomfmt.obj
 0001:0009b848       ?SetParameter@CTxtFormat@@IAAJPAJJJK@Z 1009c848 f   riched60:tomfmt.obj
 0001:0009b960       ?CanChange@CTxtFont@@UAAJPAJ@Z 1009c960 f   riched60:tomfmt.obj
 0001:0009b96c       ?GetEffects@CTxtFont@@UAAJPAJ0@Z 1009c96c f   riched60:tomfmt.obj
 0001:0009b9dc       ?GetEffects2@CTxtFont@@UAAJPAJ0@Z 1009c9dc f   riched60:tomfmt.obj
 0001:0009ba38       ?GetName@CTxtFont@@UAAJPAPAG@Z 1009ca38 f   riched60:tomfmt.obj
 0001:0009bacc       ?GetUnderline@CTxtFont@@UAAJPAJ@Z 1009cacc f   riched60:tomfmt.obj
 0001:0009bb30       ?IsEqual@CTxtFont@@UAAJPAUITextFont@@PAJ@Z 1009cb30 f   riched60:tomfmt.obj
 0001:0009bbf4       ?Reset@CTxtFont@@UAAJJ@Z   1009cbf4 f   riched60:tomfmt.obj
 0001:0009bdd8       ?SetBackColor@CTxtFont@@UAAJJ@Z 1009cdd8 f   riched60:tomfmt.obj
 0001:0009be70       ?SetDuplicate@CTxtFont@@UAAJPAUITextFont@@@Z 1009ce70 f   riched60:tomfmt.obj
 0001:0009c348       ?SetEffects@CTxtFont@@UAAJJJ@Z 1009d348 f   riched60:tomfmt.obj
 0001:0009c380       ?SetForeColor@CTxtFont@@UAAJJ@Z 1009d380 f   riched60:tomfmt.obj
 0001:0009c420       ?SetName@CTxtFont@@UAAJPAG@Z 1009d420 f   riched60:tomfmt.obj
 0001:0009c54c       ??_GCTxtPara@@QAAPAXI@Z    1009d54c f i riched60:tomfmt.obj
 0001:0009c594       ?CanChange@CTxtPara@@UAAJPAJ@Z 1009d594 f   riched60:tomfmt.obj
 0001:0009c5a0       ?GetAlignment@CTxtPara@@UAAJPAJ@Z 1009d5a0 f   riched60:tomfmt.obj
 0001:0009c5fc       ?GetFontAlignment@CTxtPara@@UAAJPAJ@Z 1009d5fc f   riched60:tomfmt.obj
 0001:0009c64c       ?GetLeftIndent@CTxtPara@@UAAJPAM@Z 1009d64c f   riched60:tomfmt.obj
 0001:0009c6b8       ?GetTab@CTxtPara@@UAAJJPAMPAJ1@Z 1009d6b8 f   riched60:tomfmt.obj
 0001:0009c7a4       ?IsEqual@CTxtPara@@UAAJPAUITextPara@@PAJ@Z 1009d7a4 f   riched60:tomfmt.obj
 0001:0009c8a8       ?EffectGetter@CTxtFont@@AAAJPAJKKK@Z 1009d8a8 f   riched60:tomfmt.obj
 0001:0009c934       ?EffectSetter@CTxtFont@@AAAJJKKKK@Z 1009d934 f   riched60:tomfmt.obj
 0001:0009ca90       ?GetParameter@CTxtFont@@AAAJPAJKJ0K@Z 1009da90 f   riched60:tomfmt.obj
 0001:0009caf0       ?SetParameter@CTxtFont@@AAAJPAJKJJKKK@Z 1009daf0 f   riched60:tomfmt.obj
 0001:0009cb5c       ?EffectGetter@CTxtPara@@AAAJPAJK@Z 1009db5c f   riched60:tomfmt.obj
 0001:0009cbe0       ?FormatSetter@CTxtPara@@QAAJKK@Z 1009dbe0 f   riched60:tomfmt.obj
 0001:0009cc7c       ?GetParameter@CTxtPara@@AAAJPAJKJ0K@Z 1009dc7c f   riched60:tomfmt.obj
 0001:0009ccc8       ?SetParameter@CTxtPara@@AAAJPAJKJJK@Z 1009dcc8 f   riched60:tomfmt.obj
 0001:0009cd24       ?GetAllCaps@CTxtFont@@UAAJPAJ@Z 1009dd24 f   riched60:tomfmt.obj
 0001:0009cd48       ?GetAnimation@CTxtFont@@UAAJPAJ@Z 1009dd48 f   riched60:tomfmt.obj
 0001:0009cd78       ?GetAutospaceAlpha@CTxtFont@@UAAJPAJ@Z 1009dd78 f   riched60:tomfmt.obj
 0001:0009cd9c       ?GetAutospaceNumeric@CTxtFont@@UAAJPAJ@Z 1009dd9c f   riched60:tomfmt.obj
 0001:0009cdc0       ?GetAutospaceParens@CTxtFont@@UAAJPAJ@Z 1009ddc0 f   riched60:tomfmt.obj
 0001:0009cde4       ?GetBackColor@CTxtFont@@UAAJPAJ@Z 1009dde4 f   riched60:tomfmt.obj
 0001:0009ce44       ?GetBold@CTxtFont@@UAAJPAJ@Z 1009de44 f   riched60:tomfmt.obj
 0001:0009ce68       ?GetCharRep@CTxtFont@@UAAJPAJ@Z 1009de68 f   riched60:tomfmt.obj
 0001:0009ce98       ?GetCompressionMode@CTxtFont@@UAAJPAJ@Z 1009de98 f   riched60:tomfmt.obj
 0001:0009cec8       ?GetCookie@CTxtFont@@UAAJPAJ@Z 1009dec8 f   riched60:tomfmt.obj
 0001:0009cef8       ?GetDoubleStrike@CTxtFont@@UAAJPAJ@Z 1009def8 f   riched60:tomfmt.obj
 0001:0009cf1c       ?GetEmboss@CTxtFont@@UAAJPAJ@Z 1009df1c f   riched60:tomfmt.obj
 0001:0009cf40       ?GetForeColor@CTxtFont@@UAAJPAJ@Z 1009df40 f   riched60:tomfmt.obj
 0001:0009cfa0       ?GetHidden@CTxtFont@@UAAJPAJ@Z 1009dfa0 f   riched60:tomfmt.obj
 0001:0009cfc4       ?GetEngrave@CTxtFont@@UAAJPAJ@Z 1009dfc4 f   riched60:tomfmt.obj
 0001:0009cfe8       ?GetItalic@CTxtFont@@UAAJPAJ@Z 1009dfe8 f   riched60:tomfmt.obj
 0001:0009d00c       ?GetKerning@CTxtFont@@UAAJPAM@Z 1009e00c f   riched60:tomfmt.obj
 0001:0009d03c       ?GetLanguageID@CTxtFont@@UAAJPAJ@Z 1009e03c f   riched60:tomfmt.obj
 0001:0009d0bc       ?GetLinkType@CTxtFont@@UAAJPAJ@Z 1009e0bc f   riched60:tomfmt.obj
 0001:0009d124       ?GetMathZone@CTxtFont@@UAAJPAJ@Z 1009e124 f   riched60:tomfmt.obj
 0001:0009d148       ?GetModWidthPairs@CTxtFont@@UAAJPAJ@Z 1009e148 f   riched60:tomfmt.obj
 0001:0009d16c       ?GetModWidthSpace@CTxtFont@@UAAJPAJ@Z 1009e16c f   riched60:tomfmt.obj
 0001:0009d190       ?GetOutline@CTxtFont@@UAAJPAJ@Z 1009e190 f   riched60:tomfmt.obj
 0001:0009d1b4       ?GetOverlapping@CTxtFont@@UAAJPAJ@Z 1009e1b4 f   riched60:tomfmt.obj
 0001:0009d1d8       ?GetPosition@CTxtFont@@UAAJPAM@Z 1009e1d8 f   riched60:tomfmt.obj
 0001:0009d208       ?GetPositionSubSuper@CTxtFont@@UAAJPAJ@Z 1009e208 f   riched60:tomfmt.obj
 0001:0009d258       ?GetProtected@CTxtFont@@UAAJPAJ@Z 1009e258 f   riched60:tomfmt.obj
 0001:0009d27c       ?GetScaling@CTxtFont@@UAAJPAJ@Z 1009e27c f   riched60:tomfmt.obj
 0001:0009d2ac       ?GetShadow@CTxtFont@@UAAJPAJ@Z 1009e2ac f   riched60:tomfmt.obj
 0001:0009d2d0       ?GetSize@CTxtFont@@UAAJPAM@Z 1009e2d0 f   riched60:tomfmt.obj
 0001:0009d300       ?GetSmallCaps@CTxtFont@@UAAJPAJ@Z 1009e300 f   riched60:tomfmt.obj
 0001:0009d324       ?GetSpaceExtension@CTxtFont@@UAAJPAM@Z 1009e324 f   riched60:tomfmt.obj
 0001:0009d354       ?GetSpacing@CTxtFont@@UAAJPAM@Z 1009e354 f   riched60:tomfmt.obj
 0001:0009d384       ?GetStrikeThrough@CTxtFont@@UAAJPAJ@Z 1009e384 f   riched60:tomfmt.obj
 0001:0009d3a8       ?GetStyle@CTxtFont@@UAAJPAJ@Z 1009e3a8 f   riched60:tomfmt.obj
 0001:0009d3d8       ?GetSubscript@CTxtFont@@UAAJPAJ@Z 1009e3d8 f   riched60:tomfmt.obj
 0001:0009d3fc       ?GetSuperscript@CTxtFont@@UAAJPAJ@Z 1009e3fc f   riched60:tomfmt.obj
 0001:0009d420       ?GetUnderlinePositionMode@CTxtFont@@UAAJPAJ@Z 1009e420 f   riched60:tomfmt.obj
 0001:0009d450       ?GetWeight@CTxtFont@@UAAJPAJ@Z 1009e450 f   riched60:tomfmt.obj
 0001:0009d480       ?SetAllCaps@CTxtFont@@UAAJJ@Z 1009e480 f   riched60:tomfmt.obj
 0001:0009d4b0       ?SetAnimation@CTxtFont@@UAAJJ@Z 1009e4b0 f   riched60:tomfmt.obj
 0001:0009d514       ?SetAutospaceAlpha@CTxtFont@@UAAJJ@Z 1009e514 f   riched60:tomfmt.obj
 0001:0009d540       ?SetAutospaceNumeric@CTxtFont@@UAAJJ@Z 1009e540 f   riched60:tomfmt.obj
 0001:0009d56c       ?SetAutospaceParens@CTxtFont@@UAAJJ@Z 1009e56c f   riched60:tomfmt.obj
 0001:0009d598       ?SetBold@CTxtFont@@UAAJJ@Z 1009e598 f   riched60:tomfmt.obj
 0001:0009d5c0       ?SetCharRep@CTxtFont@@UAAJJ@Z 1009e5c0 f   riched60:tomfmt.obj
 0001:0009d624       ?SetCompressionMode@CTxtFont@@UAAJJ@Z 1009e624 f   riched60:tomfmt.obj
 0001:0009d68c       ?SetCookie@CTxtFont@@UAAJJ@Z 1009e68c f   riched60:tomfmt.obj
 0001:0009d6c4       ?SetDoubleStrike@CTxtFont@@UAAJJ@Z 1009e6c4 f   riched60:tomfmt.obj
 0001:0009d6f0       ?SetEmboss@CTxtFont@@UAAJJ@Z 1009e6f0 f   riched60:tomfmt.obj
 0001:0009d718       ?SetHidden@CTxtFont@@UAAJJ@Z 1009e718 f   riched60:tomfmt.obj
 0001:0009d740       ?SetEngrave@CTxtFont@@UAAJJ@Z 1009e740 f   riched60:tomfmt.obj
 0001:0009d768       ?SetItalic@CTxtFont@@UAAJJ@Z 1009e768 f   riched60:tomfmt.obj
 0001:0009d790       ?SetKerning@CTxtFont@@UAAJM@Z 1009e790 f   riched60:tomfmt.obj
 0001:0009d7c8       ?SetLanguageID@CTxtFont@@UAAJJ@Z 1009e7c8 f   riched60:tomfmt.obj
 0001:0009d874       ?SetMathZone@CTxtFont@@UAAJJ@Z 1009e874 f   riched60:tomfmt.obj
 0001:0009d8a0       ?SetModWidthPairs@CTxtFont@@UAAJJ@Z 1009e8a0 f   riched60:tomfmt.obj
 0001:0009d8cc       ?SetModWidthSpace@CTxtFont@@UAAJJ@Z 1009e8cc f   riched60:tomfmt.obj
 0001:0009d8f8       ?SetOutline@CTxtFont@@UAAJJ@Z 1009e8f8 f   riched60:tomfmt.obj
 0001:0009d920       ?SetOverlapping@CTxtFont@@UAAJJ@Z 1009e920 f   riched60:tomfmt.obj
 0001:0009d94c       ?SetPosition@CTxtFont@@UAAJM@Z 1009e94c f   riched60:tomfmt.obj
 0001:0009d984       ?SetPositionSubSuper@CTxtFont@@UAAJJ@Z 1009e984 f   riched60:tomfmt.obj
 0001:0009da64       ?SetProtected@CTxtFont@@UAAJJ@Z 1009ea64 f   riched60:tomfmt.obj
 0001:0009da8c       ?SetScaling@CTxtFont@@UAAJJ@Z 1009ea8c f   riched60:tomfmt.obj
 0001:0009dac8       ?SetShadow@CTxtFont@@UAAJJ@Z 1009eac8 f   riched60:tomfmt.obj
 0001:0009daf0       ?SetSize@CTxtFont@@UAAJM@Z 1009eaf0 f   riched60:tomfmt.obj
 0001:0009db2c       ?SetSmallCaps@CTxtFont@@UAAJJ@Z 1009eb2c f   riched60:tomfmt.obj
 0001:0009db5c       ?SetSpaceExtension@CTxtFont@@UAAJM@Z 1009eb5c f   riched60:tomfmt.obj
 0001:0009dbe0       ?SetSpacing@CTxtFont@@UAAJM@Z 1009ebe0 f   riched60:tomfmt.obj
 0001:0009dc1c       ?SetStrikeThrough@CTxtFont@@UAAJJ@Z 1009ec1c f   riched60:tomfmt.obj
 0001:0009dc44       ?SetStyle@CTxtFont@@UAAJJ@Z 1009ec44 f   riched60:tomfmt.obj
 0001:0009dc98       ?SetSubscript@CTxtFont@@UAAJJ@Z 1009ec98 f   riched60:tomfmt.obj
 0001:0009dcc0       ?SetSuperscript@CTxtFont@@UAAJJ@Z 1009ecc0 f   riched60:tomfmt.obj
 0001:0009dce8       ?SetUnderline@CTxtFont@@UAAJJ@Z 1009ece8 f   riched60:tomfmt.obj
 0001:0009ddec       ?SetUnderlinePositionMode@CTxtFont@@UAAJJ@Z 1009edec f   riched60:tomfmt.obj
 0001:0009de54       ?SetWeight@CTxtFont@@UAAJJ@Z 1009ee54 f   riched60:tomfmt.obj
 0001:0009deb8       ??0CTxtPara@@QAA@PAVCTxtRange@@@Z 1009eeb8 f   riched60:tomfmt.obj
 0001:0009df18       ?Release@CTxtPara@@UAAKXZ  1009ef18 f   riched60:tomfmt.obj
 0001:0009df44       ?AddTab@CTxtPara@@UAAJMJJ@Z 1009ef44 f   riched60:tomfmt.obj
 0001:0009dfb0       ?ClearAllTabs@CTxtPara@@UAAJXZ 1009efb0 f   riched60:tomfmt.obj
 0001:0009dfc4       ?DeleteTab@CTxtPara@@UAAJM@Z 1009efc4 f   riched60:tomfmt.obj
 0001:0009e010       ?GetFirstLineIndent@CTxtPara@@UAAJPAM@Z 1009f010 f   riched60:tomfmt.obj
 0001:0009e068       ?GetHangingPunctuation@CTxtPara@@UAAJPAJ@Z 1009f068 f   riched60:tomfmt.obj
 0001:0009e0a4       ?GetHyphenation@CTxtPara@@UAAJPAJ@Z 1009f0a4 f   riched60:tomfmt.obj
 0001:0009e0e8       ?GetKeepTogether@CTxtPara@@UAAJPAJ@Z 1009f0e8 f   riched60:tomfmt.obj
 0001:0009e0f0       ?GetKeepWithNext@CTxtPara@@UAAJPAJ@Z 1009f0f0 f   riched60:tomfmt.obj
 0001:0009e0f8       ?GetLineSpacing@CTxtPara@@UAAJPAM@Z 1009f0f8 f   riched60:tomfmt.obj
 0001:0009e128       ?GetLineSpacingRule@CTxtPara@@UAAJPAJ@Z 1009f128 f   riched60:tomfmt.obj
 0001:0009e158       ?GetListAlignment@CTxtPara@@UAAJPAJ@Z 1009f158 f   riched60:tomfmt.obj
 0001:0009e1a8       ?GetListLevelIndex@CTxtPara@@UAAJPAJ@Z 1009f1a8 f   riched60:tomfmt.obj
 0001:0009e1fc       ?GetListStart@CTxtPara@@UAAJPAJ@Z 1009f1fc f   riched60:tomfmt.obj
 0001:0009e22c       ?GetListTab@CTxtPara@@UAAJPAM@Z 1009f22c f   riched60:tomfmt.obj
 0001:0009e25c       ?GetListType@CTxtPara@@UAAJPAJ@Z 1009f25c f   riched60:tomfmt.obj
 0001:0009e2b8       ?GetNoLineNumber@CTxtPara@@UAAJPAJ@Z 1009f2b8 f   riched60:tomfmt.obj
 0001:0009e2c0       ?GetPageBreakBefore@CTxtPara@@UAAJPAJ@Z 1009f2c0 f   riched60:tomfmt.obj
 0001:0009e2c8       ?GetRightIndent@CTxtPara@@UAAJPAM@Z 1009f2c8 f   riched60:tomfmt.obj
 0001:0009e2f8       ?GetSpaceAfter@CTxtPara@@UAAJPAM@Z 1009f2f8 f   riched60:tomfmt.obj
 0001:0009e328       ?GetSpaceBefore@CTxtPara@@UAAJPAM@Z 1009f328 f   riched60:tomfmt.obj
 0001:0009e358       ?GetSnapToGrid@CTxtPara@@UAAJPAJ@Z 1009f358 f   riched60:tomfmt.obj
 0001:0009e360       ?GetStyle@CTxtPara@@UAAJPAJ@Z 1009f360 f   riched60:tomfmt.obj
 0001:0009e390       ?GetTabCount@CTxtPara@@UAAJPAJ@Z 1009f390 f   riched60:tomfmt.obj
 0001:0009e3c0       ?GetTrimPunctuationAtStart@CTxtPara@@UAAJPAJ@Z 1009f3c0 f   riched60:tomfmt.obj
 0001:0009e3c8       ?GetWidowControl@CTxtPara@@UAAJPAJ@Z 1009f3c8 f   riched60:tomfmt.obj
 0001:0009e3d0       ?Reset@CTxtPara@@UAAJJ@Z   1009f3d0 f   riched60:tomfmt.obj
 0001:0009e56c       ?SetAlignment@CTxtPara@@UAAJJ@Z 1009f56c f   riched60:tomfmt.obj
 0001:0009e5c0       ?SetDuplicate@CTxtPara@@UAAJPAUITextPara@@@Z 1009f5c0 f   riched60:tomfmt.obj
 0001:0009e9b0       ?SetFontAlignment@CTxtPara@@UAAJJ@Z 1009f9b0 f   riched60:tomfmt.obj
 0001:0009e9f8       ?SetIndents@CTxtPara@@UAAJMMM@Z 1009f9f8 f   riched60:tomfmt.obj
 0001:0009eb30       ?SetLineSpacing@CTxtPara@@UAAJJM@Z 1009fb30 f   riched60:tomfmt.obj
 0001:0009ebd8       ?SetListAlignment@CTxtPara@@UAAJJ@Z 1009fbd8 f   riched60:tomfmt.obj
 0001:0009ec74       ?SetListLevelIndex@CTxtPara@@UAAJJ@Z 1009fc74 f   riched60:tomfmt.obj
 0001:0009ed14       ?SetListStart@CTxtPara@@UAAJJ@Z 1009fd14 f   riched60:tomfmt.obj
 0001:0009ed5c       ?SetListTab@CTxtPara@@UAAJM@Z 1009fd5c f   riched60:tomfmt.obj
 0001:0009edbc       ?SetListType@CTxtPara@@UAAJJ@Z 1009fdbc f   riched60:tomfmt.obj
 0001:0009ee78       ?SetRightIndent@CTxtPara@@UAAJM@Z 1009fe78 f   riched60:tomfmt.obj
 0001:0009eea8       ?SetSpaceAfter@CTxtPara@@UAAJM@Z 1009fea8 f   riched60:tomfmt.obj
 0001:0009ef2c       ?SetSpaceBefore@CTxtPara@@UAAJM@Z 1009ff2c f   riched60:tomfmt.obj
 0001:0009efb0       ?SetStyle@CTxtPara@@UAAJJ@Z 1009ffb0 f   riched60:tomfmt.obj
 0001:0009eff8       ?EffectSetter@CTxtPara@@AAAJJK@Z 1009fff8 f   riched60:tomfmt.obj
 0001:0009f124       ??0CTxtFont@@QAA@PAVCTxtRange@@@Z 100a0124 f   riched60:tomfmt.obj
 0001:0009f164       ?Release@CTxtFont@@UAAKXZ  100a0164 f   riched60:tomfmt.obj
 0001:0009f1ac       ?GetDuplicate@CTxtFont@@UAAJPAPAUITextFont@@@Z 100a01ac f   riched60:tomfmt.obj
 0001:0009f270       ?SetHangingPunctuation@CTxtPara@@UAAJJ@Z 100a0270 f   riched60:tomfmt.obj
 0001:0009f28c       ?SetHyphenation@CTxtPara@@UAAJJ@Z 100a028c f   riched60:tomfmt.obj
 0001:0009f2a8       ?SetKeepTogether@CTxtPara@@UAAJJ@Z 100a02a8 f   riched60:tomfmt.obj
 0001:0009f2b0       ?SetKeepWithNext@CTxtPara@@UAAJJ@Z 100a02b0 f   riched60:tomfmt.obj
 0001:0009f2b8       ?SetNoLineNumber@CTxtPara@@UAAJJ@Z 100a02b8 f   riched60:tomfmt.obj
 0001:0009f2c0       ?SetPageBreakBefore@CTxtPara@@UAAJJ@Z 100a02c0 f   riched60:tomfmt.obj
 0001:0009f2c8       ?SetSnapToGrid@CTxtPara@@UAAJJ@Z 100a02c8 f   riched60:tomfmt.obj
 0001:0009f2d0       ?SetTrimPunctuationAtStart@CTxtPara@@UAAJJ@Z 100a02d0 f   riched60:tomfmt.obj
 0001:0009f2d8       ?SetWidowControl@CTxtPara@@UAAJJ@Z 100a02d8 f   riched60:tomfmt.obj
 0001:0009f2e0       ??4CTxtPara@@QAAAAV0@ABV0@@Z 100a02e0 f i riched60:tomfmt.obj
 0001:0009f390       ?GetDuplicate@CTxtPara@@UAAJPAPAUITextPara@@@Z 100a0390 f   riched60:tomfmt.obj
 0001:0009f430       ?QueryInterface@CTxtStrings@@UAAJABU_GUID@@PAPAX@Z 100a0430 f   riched60:tomstrs.obj
 0001:0009f470       ?AddRef@CTxtStrings@@UAAKXZ 100a0470 f   riched60:tomstrs.obj
 0001:0009f484       ?GetTypeInfoCount@CTxtStrings@@UAAJPAI@Z 100a0484 f   riched60:tomstrs.obj
 0001:0009f4a0       ?GetTypeInfo@CTxtStrings@@UAAJIKPAPAUITypeInfo@@@Z 100a04a0 f   riched60:tomstrs.obj
 0001:0009f4b4       ?GetIDsOfNames@CTxtStrings@@UAAJABU_GUID@@PAPAGIKPAJ@Z 100a04b4 f   riched60:tomstrs.obj
 0001:0009f4f0       ?Invoke@CTxtStrings@@UAAJJABU_GUID@@KGPAUtagDISPPARAMS@@PAUtagVARIANT@@PAUtagEXCEPINFO@@PAI@Z 100a04f0 f   riched60:tomstrs.obj
 0001:0009f570       ?Add@CTxtStrings@@UAAJPAG@Z 100a0570 f   riched60:tomstrs.obj
 0001:0009f598       ?Append@CTxtStrings@@UAAJPAUITextRange2@@J@Z 100a0598 f   riched60:tomstrs.obj
 0001:0009f5e4       ?Cat2@CTxtStrings@@UAAJJ@Z 100a05e4 f   riched60:tomstrs.obj
 0001:0009f618       ?CatTop2@CTxtStrings@@UAAJPAG@Z 100a0618 f   riched60:tomstrs.obj
 0001:0009f664       ?DeleteRange@CTxtStrings@@UAAJPAUITextRange2@@@Z 100a0664 f   riched60:tomstrs.obj
 0001:0009f6a0       ?EncodeFunction@CTxtStrings@@UAAJJJJJJJJJPAUITextRange2@@@Z 100a06a0 f   riched60:tomstrs.obj
 0001:0009f72c       ?GetCch@CTxtStrings@@UAAJJPAJ@Z 100a072c f   riched60:tomstrs.obj
 0001:0009f734       ?GetCount@CTxtStrings@@UAAJPAJ@Z 100a0734 f   riched60:tomstrs.obj
 0001:0009f750       ?InsertNullStr@CTxtStrings@@UAAJJ@Z 100a0750 f   riched60:tomstrs.obj
 0001:0009f758       ?Item@CTxtStrings@@UAAJJPAPAUITextRange2@@@Z 100a0758 f   riched60:tomstrs.obj
 0001:0009f760       ?MoveBoundary@CTxtStrings@@UAAJJJ@Z 100a0760 f   riched60:tomstrs.obj
 0001:0009f768       ?PrefixTop@CTxtStrings@@UAAJPAG@Z 100a0768 f   riched60:tomstrs.obj
 0001:0009f79c       ?Remove@CTxtStrings@@UAAJJJ@Z 100a079c f   riched60:tomstrs.obj
 0001:0009f7a4       ?SetFormattedText@CTxtStrings@@UAAJPAUITextRange2@@0@Z 100a07a4 f   riched60:tomstrs.obj
 0001:0009f7e0       ?SetOpCp@CTxtStrings@@UAAJJJ@Z 100a07e0 f   riched60:tomstrs.obj
 0001:0009f7e8       ?SuffixTop@CTxtStrings@@UAAJPAGPAUITextRange2@@@Z 100a07e8 f   riched60:tomstrs.obj
 0001:0009f920       ?Swap@CTxtStrings@@UAAJXZ  100a0920 f   riched60:tomstrs.obj
 0001:0009f928       ??0CTxtStrings@@QAA@PAVCRchTxtPtr@@H@Z 100a0928 f   riched60:tomstrs.obj
 0001:0009f970       ?Release@CTxtStrings@@UAAKXZ 100a0970 f   riched60:tomstrs.obj
 0001:0009f9a8       ?GetUpdateRegion@CAccumDisplayChanges@@QAAXPAJ00PAH111@Z 100a09a8 f   riched60:dfreeze.obj
 0001:0009fa40       ?UpdateRecalcRegion@CAccumDisplayChanges@@QAAXJJJH@Z 100a0a40 f   riched60:dfreeze.obj
 0001:0009fae8       ?OnCommit@CBaseAE@@UAAXPAVCTxtEdit@@@Z 100a0ae8 f   riched60:antievt.obj
 0001:0009faec       ?MergeData@CBaseAE@@UAAJKPAX@Z 100a0aec f   riched60:antievt.obj
 0001:0009faf4       ?SetNext@CBaseAE@@UAAXPAVIAntiEvent@@@Z 100a0af4 f   riched60:antievt.obj
 0001:0009fafc       ?GetNext@CBaseAE@@UAAPAVIAntiEvent@@XZ 100a0afc f   riched60:antievt.obj
 0001:0009fb04       ?Undo@CReplaceRangeAE@@UAAJPAVCTxtEdit@@PAVIUndoBuilder@@@Z 100a0b04 f   riched60:antievt.obj
 0001:0009fc68       ?MergeData@CReplaceRangeAE@@UAAJKPAX@Z 100a0c68 f   riched60:antievt.obj
 0001:0009fcdc       ??1CReplaceRangeAE@@AAA@XZ 100a0cdc f   riched60:antievt.obj
 0001:0009fd10       ??1CReplaceFormattingAE@@AAA@XZ 100a0d10 f   riched60:antievt.obj
 0001:0009fda8       ?Undo@CReplaceObjectAE@@UAAJPAVCTxtEdit@@PAVIUndoBuilder@@@Z 100a0da8 f   riched60:antievt.obj
 0001:0009fdf4       ?OnCommit@CReplaceObjectAE@@UAAXPAVCTxtEdit@@@Z 100a0df4 f   riched60:antievt.obj
 0001:0009fe10       ?Undo@CResizeObjectAE@@UAAJPAVCTxtEdit@@PAVIUndoBuilder@@@Z 100a0e10 f   riched60:antievt.obj
 0001:0009fe50       ?OnCommit@CResizeObjectAE@@UAAXPAVCTxtEdit@@@Z 100a0e50 f   riched60:antievt.obj
 0001:0009fe54       ?MergeData@CSelectionAE@@UAAJKPAX@Z 100a0e54 f   riched60:antievt.obj
 0001:0009ff24       ??0CReplaceObjectAE@@AAA@PAVCOleObject@@@Z 100a0f24 f   riched60:antievt.obj
 0001:0009ff64       ??0CSelectionAE@@AAA@JJPAU_charrange@@@Z 100a0f64 f   riched60:antievt.obj
 0001:0009ffb8       ?CreateReplaceRangeAE@CAntiEventDispenser@@QAAPAVIAntiEvent@@PAVCTxtEdit@@JJJPAGPAV2@2@Z 100a0fb8 f   riched60:antievt.obj
 0001:000a0024       ?CreateReplaceObjectAE@CAntiEventDispenser@@QAAPAVIAntiEvent@@PAVCTxtEdit@@PAVCOleObject@@@Z 100a1024 f   riched60:antievt.obj
 0001:000a0068       ?CreateResizeObjectAE@CAntiEventDispenser@@QAAPAVIAntiEvent@@PAVCTxtEdit@@PAVCOleObject@@USIZEUV@@@Z 100a1068 f   riched60:antievt.obj
 0001:000a00d4       ?CreateSelectionAE@CAntiEventDispenser@@QAAPAVIAntiEvent@@JJJPAU_charrange@@@Z 100a10d4 f   riched60:antievt.obj
 0001:000a0178       ?Destroy@CReplaceRangeAE@@UAAXXZ 100a1178 f   riched60:antievt.obj
 0001:000a01d0       ?Destroy@CReplaceFormattingAE@@UAAXXZ 100a11d0 f   riched60:antievt.obj
 0001:000a01f0       ?Destroy@CReplaceObjectAE@@UAAXXZ 100a11f0 f   riched60:antievt.obj
 0001:000a0244       ?Destroy@CResizeObjectAE@@UAAXXZ 100a1244 f   riched60:antievt.obj
 0001:000a025c       ?Destroy@CSelectionAE@@UAAXXZ 100a125c f   riched60:antievt.obj
 0001:000a027c       ?Undo@CSelectionAE@@UAAJPAVCTxtEdit@@PAVIUndoBuilder@@@Z 100a127c f   riched60:antievt.obj
 0001:000a0354       ??0CReplaceFormattingAE@@AAA@PAVCTxtEdit@@JAAVCFormatRunPtr@@JPAUIFormatCache@@H@Z 100a1354 f   riched60:antievt.obj
 0001:000a0508       ?CreateReplaceFormattingAE@CAntiEventDispenser@@QAAPAVIAntiEvent@@PAVCTxtEdit@@JAAVCFormatRunPtr@@JPAUIFormatCache@@H@Z 100a1508 f   riched60:antievt.obj
 0001:000a0578       ?Undo@CReplaceFormattingAE@@UAAJPAVCTxtEdit@@PAVIUndoBuilder@@@Z 100a1578 f   riched60:antievt.obj
 0001:000a0a00       ??_GCIme@@UAAPAXI@Z        100a1a00 f i riched60:ime.obj
 0001:000a0a00       ??_ECIme@@UAAPAXI@Z        100a1a00 f i riched60:ime.obj
 0001:000a0a24       ?OnWin95@CW32System@@SA_NXZ 100a1a24 f i riched60:ime.obj
 0001:000a0a70       ?LocalGetImmContext@@YAKAAVCTextMsgFilter@@@Z 100a1a70 f   riched60:ime.obj
 0001:000a0acc       ?LocalReleaseImmContext@@YAXAAVCTextMsgFilter@@K@Z 100a1acc f   riched60:ime.obj
 0001:000a0b08       ?IMEShareToTomUL@@YAJI@Z   100a1b08 f   riched60:ime.obj
 0001:000a0b70       ?IMEMessage@@YAHAAVCTextMsgFilter@@IIJH@Z 100a1b70 f   riched60:ime.obj
 0001:000a0c3c       ?CheckDestroyIME@@YAXAAVCTextMsgFilter@@@Z 100a1c3c f   riched60:ime.obj
 0001:000a0cd0       ?IMEMouseCheck@@YAJAAVCTextMsgFilter@@PBI1PAJ2@Z 100a1cd0 f   riched60:ime.obj
 0001:000a0d2c       ?IMECompositionFull@@YAXAAVCTextMsgFilter@@@Z 100a1d2c f   riched60:ime.obj
 0001:000a0d80       ?OnGetIMECompositionMode@@YAJAAVCTextMsgFilter@@@Z 100a1d80 f   riched60:ime.obj
 0001:000a0db0       ?TestPoint@@YAJAAUtagPOINT@@00JJ@Z 100a1db0 f   riched60:ime.obj
 0001:000a0fc8       ?CheckKeyboardFontMatching@CIme@@SAXJPAVCTextMsgFilter@@PAUITextFont@@@Z 100a1fc8 f   riched60:ime.obj
 0001:000a12c4       ?GetCompositionStringInfo@CIme@@KAHKKPAGHPAEHPAJ2IHH@Z 100a22c4 f   riched60:ime.obj
 0001:000a1550       ?SetCompositionFont@CIme@@IAAXAAVCTextMsgFilter@@PAUITextFont@@@Z 100a2550 f   riched60:ime.obj
 0001:000a1754       ?SetCompositionForm@CIme@@IAAXAAVCTextMsgFilter@@@Z 100a2754 f   riched60:ime.obj
 0001:000a1850       ??0CIme_Lev2@@QAA@AAVCTextMsgFilter@@@Z 100a2850 f   riched60:ime.obj
 0001:000a1aa0       ??1CIme_Lev2@@UAA@XZ       100a2aa0 f   riched60:ime.obj
 0001:000a1adc       ?StartComposition@CIme_Lev2@@UAAJAAVCTextMsgFilter@@@Z 100a2adc f   riched60:ime.obj
 0001:000a1b14       ?CheckInsertResultString@CIme@@SAJJAAVCTextMsgFilter@@PAFPAHPAGK@Z 100a2b14 f   riched60:ime.obj
 0001:000a1cb0       ?IMENotify@CIme_Lev2@@UAAJIJAAVCTextMsgFilter@@H@Z 100a2cb0 f   riched60:ime.obj
 0001:000a1d48       ?PostIMEChar@CIme_Lev2@@UAAXAAVCTextMsgFilter@@@Z 100a2d48 f   riched60:ime.obj
 0001:000a1d4c       ?IMEMouseOperation@CIme_Lev2@@UAAHAAVCTextMsgFilter@@IIJAAH@Z 100a2d4c f   riched60:ime.obj
 0001:000a1dac       ?GetIMECompositionMode@CIme_Lev2@@UAAJAAVCTextMsgFilter@@@Z 100a2dac f   riched60:ime.obj
 0001:000a1dfc       ?StartComposition@CIme_Lev3@@UAAJAAVCTextMsgFilter@@@Z 100a2dfc f   riched60:ime.obj
 0001:000a1f2c       ?GetIMEShareColor@CIme_Lev3@@IAAKPAVCIMEShare@@KK@Z 100a2f2c f   riched60:ime.obj
 0001:000a1f9c       ?IMENotifyHelper@@YAJIJAAVCTextMsgFilter@@H@Z 100a2f9c f   riched60:ime.obj
 0001:000a2194       ?IMEMouseOperation@CIme_Lev3@@UAAHAAVCTextMsgFilter@@IIJAAH@Z 100a3194 f   riched60:ime.obj
 0001:000a2224       ?IMESupportMouse@CIme_Lev3@@UAAHAAVCTextMsgFilter@@@Z 100a3224 f   riched60:ime.obj
 0001:000a2314       ?GetIMECompositionMode@CIme_Lev3@@UAAJAAVCTextMsgFilter@@@Z 100a3314 f   riched60:ime.obj
 0001:000a23bc       ?StartComposition@CIme_HangeulToHanja@@UAAJAAVCTextMsgFilter@@@Z 100a33bc f   riched60:ime.obj
 0001:000a2414       ??_GCIme_Lev3@@UAAPAXI@Z   100a3414 f i riched60:ime.obj
 0001:000a2414       ??_ECIme_Lev3@@UAAPAXI@Z   100a3414 f i riched60:ime.obj
 0001:000a2444       ?StartComposition@CIme_Protected@@UAAJAAVCTextMsgFilter@@@Z 100a3444 f i riched60:ime.obj
 0001:000a2454       ?PostIMEChar@CIme_Protected@@UAAXAAVCTextMsgFilter@@@Z 100a3454 f i riched60:ime.obj
 0001:000a2458       ?IMENotify@CIme_Protected@@UAAJIJAAVCTextMsgFilter@@H@Z 100a3458 f i riched60:ime.obj
 0001:000a2460       ?IMEMouseOperation@CIme_Protected@@UAAHAAVCTextMsgFilter@@IIJAAH@Z 100a3460 f i riched60:ime.obj
 0001:000a2474       ?GetIMECompositionMode@CIme_Protected@@UAAJAAVCTextMsgFilter@@@Z 100a3474 f i riched60:ime.obj
 0001:000a247c       ??_ECIme_Protected@@UAAPAXI@Z 100a347c f i riched60:ime.obj
 0001:000a247c       ??_GCIme_Protected@@UAAPAXI@Z 100a347c f i riched60:ime.obj
 0001:000a24a0       ?CompositionStringGlue@@YAJJAAVCTextMsgFilter@@@Z 100a34a0 f   riched60:ime.obj
 0001:000a2684       ?EndCompositionGlue@@YAJAAVCTextMsgFilter@@H@Z 100a3684 f   riched60:ime.obj
 0001:000a27c0       ?IMENotifyGlue@@YAJIJAAVCTextMsgFilter@@@Z 100a37c0 f   riched60:ime.obj
 0001:000a287c       ?TerminateIMEComposition@CIme@@QAAXAAVCTextMsgFilter@@W4TerminateMode@1@@Z 100a387c f   riched60:ime.obj
 0001:000a2970       ??_GCIme_Lev2@@UAAPAXI@Z   100a3970 f i riched60:ime.obj
 0001:000a2970       ??_ECIme_Lev2@@UAAPAXI@Z   100a3970 f i riched60:ime.obj
 0001:000a2994       ?CompositionString@CIme_Lev2@@UAAJJAAVCTextMsgFilter@@@Z 100a3994 f   riched60:ime.obj
 0001:000a2ac8       ?SetCompositionStyle@CIme_Lev3@@QAAXAAVCTextMsgFilter@@IPAUITextFont@@@Z 100a3ac8 f   riched60:ime.obj
 0001:000a2ed0       ?IMENotify@CIme_Lev3@@UAAJIJAAVCTextMsgFilter@@H@Z 100a3ed0 f   riched60:ime.obj
 0001:000a2f8c       ?IMEMouseOperation@CIme_HangeulToHanja@@UAAHAAVCTextMsgFilter@@IIJAAH@Z 100a3f8c f i riched60:ime.obj
 0001:000a2fa8       ?CompositionString@CIme_Protected@@UAAJJAAVCTextMsgFilter@@@Z 100a3fa8 f   riched60:ime.obj
 0001:000a3054       ?StartCompositionGlue@@YAJAAVCTextMsgFilter@@@Z 100a4054 f   riched60:ime.obj
 0001:000a338c       ?CompositionString@CIme_Lev3@@UAAJJAAVCTextMsgFilter@@@Z 100a438c f   riched60:ime.obj
 0001:000a3ca8       ?IMEHangeulToHanja@@YAJAAVCTextMsgFilter@@@Z 100a4ca8 f   riched60:ime.obj
 0001:000a3ef8       ??_GCIme_HangeulToHanja@@UAAPAXI@Z 100a4ef8 f i riched60:ime.obj
 0001:000a3ef8       ??_ECIme_HangeulToHanja@@UAAPAXI@Z 100a4ef8 f i riched60:ime.obj
 0001:000a3f28       ?CompositionString@CIme_HangeulToHanja@@UAAJJAAVCTextMsgFilter@@@Z 100a4f28 f   riched60:ime.obj
 0001:000a3f38       ?OnPreReplaceRange@CTxtTrackerMgr@@UAAXJJJJJPAUNOTIFY_DATA@@@Z 100a4f38 f   riched60:ctracker.obj
 0001:000a3f3c       ?Zombie@CTxtTrackerMgr@@UAAXXZ 100a4f3c f   riched60:ctracker.obj
 0001:000a3f48       ??1CEnumTracker@@UAA@XZ    100a4f48 f   riched60:ctracker.obj
 0001:000a3f78       ?QueryInterface@CEnumTracker@@UAAJABU_GUID@@PAPAX@Z 100a4f78 f   riched60:ctracker.obj
 0001:000a4010       ?AddRef@CEnumTracker@@UAAKXZ 100a5010 f   riched60:ctracker.obj
 0001:000a4024       ?Release@CEnumTracker@@UAAKXZ 100a5024 f   riched60:ctracker.obj
 0001:000a4058       ?Reset@CEnumTracker@@UAAJXZ 100a5058 f   riched60:ctracker.obj
 0001:000a4068       ?Skip@CEnumTracker@@UAAJK@Z 100a5068 f   riched60:ctracker.obj
 0001:000a40a0       ?HandleTextChange@CTxtTracker@@QAAHJJJ@Z 100a50a0 f   riched60:ctracker.obj
 0001:000a4274       ?HandleFormatChange@CTxtTracker@@QAAHJJPAUNOTIFY_DATA@@@Z 100a5274 f   riched60:ctracker.obj
 0001:000a435c       ??0CTxtTrackerMgr@@QAA@PAVCTxtEdit@@@Z 100a535c f   riched60:ctracker.obj
 0001:000a43a0       ??1CTxtTrackerMgr@@QAA@XZ  100a53a0 f   riched60:ctracker.obj
 0001:000a443c       ?OnPostReplaceRange@CTxtTrackerMgr@@UAAXJJJJJPAUNOTIFY_DATA@@@Z 100a543c f   riched60:ctracker.obj
 0001:000a4594       ?InsertTracker@CTxtTrackerMgr@@QAAJJJPAUITextTracker@@AAH@Z 100a5594 f   riched60:ctracker.obj
 0001:000a4758       ?Notify@CTxtTrackerMgr@@QAAXXZ 100a5758 f   riched60:ctracker.obj
 0001:000a49b0       ?NotifyTracker@CTxtTrackerMgr@@QAAHJJIIJ@Z 100a59b0 f   riched60:ctracker.obj
 0001:000a4ad8       ?GetTracker@CTxtTrackerMgr@@QAAPAVCTxtTracker@@HPAJ@Z 100a5ad8 f   riched60:ctracker.obj
 0001:000a4b58       ??0CEnumTracker@@QAA@XZ    100a5b58 f   riched60:ctracker.obj
 0001:000a4b88       ??_ECEnumTracker@@UAAPAXI@Z 100a5b88 f i riched60:ctracker.obj
 0001:000a4b88       ??_GCEnumTracker@@UAAPAXI@Z 100a5b88 f i riched60:ctracker.obj
 0001:000a4bac       ?Clone@CEnumTracker@@UAAJPAPAUIEnumTextTrackers@@@Z 100a5bac f   riched60:ctracker.obj
 0001:000a4c98       ?Next@CEnumTracker@@UAAJKPAHPAK@Z 100a5c98 f   riched60:ctracker.obj
 0001:000a4d50       ?GetTrackerRange@CTxtTrackerMgr@@QAAJHAAJ0@Z 100a5d50 f   riched60:ctracker.obj
 0001:000a4da8       ?SetTrackerRange@CTxtTrackerMgr@@QAAJHJJ@Z 100a5da8 f   riched60:ctracker.obj
 0001:000a4e1c       ?TrackersFromCp@CTxtTrackerMgr@@QAAJJPAPAUIEnumTextTrackers@@H@Z 100a5e1c f   riched60:ctracker.obj
 0001:000a4f68       ?TrackerFromHTracker@CTxtTrackerMgr@@QAAJHPAPAUITextTracker@@@Z 100a5f68 f   riched60:ctracker.obj
 0001:000a4fd0       ?RemoveTracker@CTxtTrackerMgr@@QAAJH@Z 100a5fd0 f   riched60:ctracker.obj
 0001:000a5078       ?BuildUpDown@CTxtSelection@@QAAJHJ@Z 100a6078 f   riched60:tomsel.obj
 0001:000a51c0       ?GetFlags@CTxtSelection@@UAAJPAJ@Z 100a61c0 f   riched60:tomsel.obj
 0001:000a5230       ?GetType@CTxtSelection@@UAAJPAJ@Z 100a6230 f   riched60:tomsel.obj
 0001:000a52c0       ?SetFlags@CTxtSelection@@UAAJJ@Z 100a62c0 f   riched60:tomsel.obj
 0001:000a53d4       ?TypeText@CTxtSelection@@UAAJPAG@Z 100a63d4 f   riched60:tomsel.obj
 0001:000a55d4       ?GeoMover@CTxtSelection@@IAAJJJJPAJJ@Z 100a65d4 f   riched60:tomsel.obj
 0001:000a5860       ?Homer@CTxtSelection@@IAAJJJPAJP81@AAHHH@Z@Z 100a6860 f   riched60:tomsel.obj
 0001:000a5950       ?EndKey@CTxtSelection@@UAAJJJPAJ@Z 100a6950 f   riched60:tomsel.obj
 0001:000a5978       ?HomeKey@CTxtSelection@@UAAJJJPAJ@Z 100a6978 f   riched60:tomsel.obj
 0001:000a59a0       ?MoveDown@CTxtSelection@@UAAJJJJPAJ@Z 100a69a0 f   riched60:tomsel.obj
 0001:000a59c4       ?MoveLeft@CTxtSelection@@UAAJJJJPAJ@Z 100a69c4 f   riched60:tomsel.obj
 0001:000a59e8       ?MoveRight@CTxtSelection@@UAAJJJJPAJ@Z 100a69e8 f   riched60:tomsel.obj
 0001:000a5a0c       ?MoveUp@CTxtSelection@@UAAJJJJPAJ@Z 100a6a0c f   riched60:tomsel.obj
 0001:000a5a30       ?IsNestedLayout@CLayout@@UBAHXZ 100a6a30 f i riched60:layout.obj
 0001:000a5a38       ?ThisAsTableRow@CLayout@@UBAPBVCLayoutRow@@XZ 100a6a38 f i riched60:layout.obj
 0001:000a5a40       ?ThisAsULayout@CLayout@@UBAPBVCULayout@@XZ 100a6a40 f i riched60:layout.obj
 0001:000a5a48       ??_GCLayout@@UAAPAXI@Z     100a6a48 f i riched60:layout.obj
 0001:000a5a48       ??_ECLayout@@UAAPAXI@Z     100a6a48 f i riched60:layout.obj
 0001:000a5a6c       ?GetLineRectFromLayoutRect@CLayout@@UBAXPAVCDisplay@@ABURECTUV@@JAAU3@@Z 100a6a6c f   riched60:layout.obj
 0001:000a5b18       ?CountLeafLines@CLayout@@IBAJPAVCDisplay@@@Z 100a6b18 f   riched60:layout.obj
 0001:000a5b5c       ?LookForLeafLine@CLayout@@UBAHPAVCDisplay@@AAJ1PAVCLinePtr@@PAVCRchTxtPtr@@@Z 100a6b5c f   riched60:layout.obj
 0001:000a5ce0       ?GetPFCells@CLayoutRow@@QBAPBVCParaFormat@@XZ 100a6ce0 f   riched60:layout.obj
 0001:000a5d1c       ?GetVertAlignShift@CLayoutRow@@QBAJJJ@Z 100a6d1c f   riched60:layout.obj
 0001:000a6110       ?DeleteSubLayouts@CLayoutLineArray@@QAAXJJ@Z 100a7110 f   riched60:layout.obj
 0001:000a61a0       ?VposFromLine@CLayoutLineArray@@QBAJPAVCDisplayML@@J_N@Z 100a71a0 f   riched60:layout.obj
 0001:000a62e0       ?LineFromVpos@CLayoutLineArray@@QBAJPAVCDisplayML@@JPAJ1J@Z 100a72e0 f   riched60:layout.obj
 0001:000a64a0       ?PointFromTpHelper@CLayoutLineArray@@MBAHAAVCMeasurer@@AAUtagLSPOINTUV@@AAURECTUV@@ABVCLinePtr@@IAAJ@Z 100a74a0 f   riched60:layout.obj
 0001:000a64e0       ?CpFromPoint@CLayoutLineArray@@UBAJAAVCMeasurer@@UtagLSPOINTUV@@PBURECTUV@@QAVCRchTxtPtr@@QAVCLinePtr@@HPAW4HITTEST@@PAVCDispDim@@PAJPAUCLine@@JJ@Z 100a74e0 f   riched60:layout.obj
 0001:000a70e4       ?PointFromTp@CLayoutLineArray@@UBAJAAVCMeasurer@@ABVCRchTxtPtr@@PBURECTUV@@HAAUtagLSPOINTUV@@QAVCLinePtr@@IPAVCDispDim@@J@Z 100a80e4 f   riched60:layout.obj
 0001:000a7698       ?Render@CLayoutLineArray@@SAHAAVCRenderer@@PAUCLine@@PBURECTUV@@HJJ@Z 100a8698 f   riched60:layout.obj
 0001:000a84a8       ?GetLineRectFromLayoutRect@CLayoutRow@@UBAXPAVCDisplay@@ABURECTUV@@JAAU3@@Z 100a94a8 f   riched60:layout.obj
 0001:000a85b0       ?PointFromTpHelper@CLayoutRow@@UBAHAAVCMeasurer@@AAUtagLSPOINTUV@@AAURECTUV@@ABVCLinePtr@@IAAJ@Z 100a95b0 f   riched60:layout.obj
 0001:000a8804       ?InitLinePtr@CLayoutLineArray@@UAAXAAVCLinePtr@@@Z 100a9804 f i riched60:layout.obj
 0001:000a881c       ?GetCountOfLines@CLayoutLineArray@@UBAJXZ 100a981c f i riched60:layout.obj
 0001:000a8824       ??1CLayoutLineArray@@UAA@XZ 100a9824 f i riched60:layout.obj
 0001:000a8860       ??_ECLayoutLineArray@@UAAPAXI@Z 100a9860 f i riched60:layout.obj
 0001:000a8860       ??_GCLayoutLineArray@@UAAPAXI@Z 100a9860 f i riched60:layout.obj
 0001:000a8884       ??0?$CLayoutCachingCountOfLeafLines@VCLayoutLineArray@@@@QAA@PAVCLayout@@@Z 100a9884 f i riched60:layout.obj
 0001:000a88c4       ?GetCountOfLeafLines@?$CLayoutCachingCountOfLeafLines@VCLayoutLineArray@@@@UBAJPAVCDisplay@@@Z 100a98c4 f i riched60:layout.obj
 0001:000a88e8       ?InvalidateCachedCountOfLeafLines@?$CLayoutCachingCountOfLeafLines@VCLayoutLineArray@@@@UBAXXZ 100a98e8 f i riched60:layout.obj
 0001:000a890c       ??_E?$CLayoutCachingCountOfLeafLines@VCLayoutLineArray@@@@UAAPAXI@Z 100a990c f i riched60:layout.obj
 0001:000a890c       ??_G?$CLayoutCachingCountOfLeafLines@VCLayoutLineArray@@@@UAAPAXI@Z 100a990c f i riched60:layout.obj
 0001:000a8930       ?ThisAsTableRow@CLayoutRow@@UBAPBV1@XZ 100a9930 f i riched60:layout.obj
 0001:000a8934       ??_ECLayoutRow@@UAAPAXI@Z  100a9934 f i riched60:layout.obj
 0001:000a8934       ??_GCLayoutRow@@UAAPAXI@Z  100a9934 f i riched60:layout.obj
 0001:000a8974       ?Measure@CLayoutLineArray@@QBAHAAVCMeasurer@@PAUCLine@@JIPAJJ12@Z 100a9974 f   riched60:layout.obj
 0001:000a9580       ??0CRchStrs@@QAA@PAVCRchTxtPtr@@@Z 100aa580 f   riched60:rstrs.obj
 0001:000a96b4       ??1CRchStrs@@QAA@XZ        100aa6b4 f   riched60:rstrs.obj
 0001:000a96f8       ?Append@CRchStrs@@QAAJPAVCTxtRange@@J@Z 100aa6f8 f   riched60:rstrs.obj
 0001:000a9800       ?CatTop2@CRchStrs@@QAAJJPBGPAVCCharFormat@@KJ@Z 100aa800 f   riched60:rstrs.obj
 0001:000a9ac0       ?DeleteRange@CRchStrs@@QAAJPAVCTxtRange@@@Z 100aaac0 f   riched60:rstrs.obj
 0001:000a9bf4       ?InsertNullStr@CRchStrs@@QAAJJ@Z 100aabf4 f   riched60:rstrs.obj
 0001:000a9c40       ?GetCch@CRchStrs@@QAAJJPAJ@Z 100aac40 f   riched60:rstrs.obj
 0001:000a9cb8       ?Item@CRchStrs@@QAAJJPAPAUITextRange2@@@Z 100aacb8 f   riched60:rstrs.obj
 0001:000a9db0       ?MoveBoundary@CRchStrs@@QAAJJJ@Z 100aadb0 f   riched60:rstrs.obj
 0001:000a9e7c       ?PrefixTop@CRchStrs@@QAAJJPBG@Z 100aae7c f   riched60:rstrs.obj
 0001:000a9f4c       ?Remove@CRchStrs@@QAAJJJ@Z 100aaf4c f   riched60:rstrs.obj
 0001:000aa030       ?SetFormattedText@CRchStrs@@QAAJPAVCTxtRange@@PAUITextRange2@@@Z 100ab030 f   riched60:rstrs.obj
 0001:000aa12c       ?SetOpCp@CRchStrs@@QAAJJJ@Z 100ab12c f   riched60:rstrs.obj
 0001:000aa188       ?SuffixTop@CRchStrs@@QAAJJPBGPBVCCharFormat@@KK@Z 100ab188 f   riched60:rstrs.obj
 0001:000aa298       ?Swap@CRchStrs@@QAAJXZ     100ab298 f   riched60:rstrs.obj
 0001:000aa438       ?Add@CRchStrs@@QAAJJPBG@Z  100ab438 f   riched60:rstrs.obj
 0001:000aa4c0       ?EncodeFunction@CRchStrs@@QAAJJJJJJJJJPAVCTxtRange@@@Z 100ab4c0 f   riched60:rstrs.obj
 0001:000aa8f0       ?Zombie@CDropTarget@@QAAXXZ 100ab8f0 f   riched60:dragdrp.obj
 0001:000aa924       ?ASCIICompareI@CW32System@@SAHPBE0H@Z 100ab924 f i riched60:rtfread.obj
 0001:000aa970       ?RTFGetFromStream@@YAKPAVRTFREADOLESTREAM@@PAXK@Z 100ab970 f   riched60:rtfread.obj
 0001:000aa978       ?RTFGetBinaryDataFromStream@@YAKPAVRTFREADOLESTREAM@@PAXK@Z 100ab978 f   riched60:rtfread.obj
 0001:000aa980       ?AddPF@STATE@@QAAHABVCParaFormat@@JKK@Z 100ab980 f   riched60:rtfread.obj
 0001:000aaa98       ?DeletePF@STATE@@QAAXXZ    100aba98 f   riched60:rtfread.obj
 0001:000aaad4       ?HandleEq@CRTFRead@@AAAHAAVCTxtRange@@AAVCTxtPtr@@@Z 100abad4 f   riched60:rtfread.obj
 0001:000aab58       ?HandleCellx@CRTFRead@@AAAXJ@Z 100abb58 f   riched60:rtfread.obj
 0001:000aac6c       ?HandleChar@CRTFRead@@AAAHG@Z 100abc6c f   riched60:rtfread.obj
 0001:000aacf8       ?Apply_CF@CRTFRead@@AAAXXZ 100abcf8 f   riched60:rtfread.obj
 0001:000aad94       ?Apply_PF@CRTFRead@@AAAFXZ 100abd94 f   riched60:rtfread.obj
 0001:000ab1b4       ?SetBorderParm@CRTFRead@@AAAXAAGJ@Z 100ac1b4 f   riched60:rtfread.obj
 0001:000ab204       ?ContinueList@CRTFRead@@AAAXXZ 100ac204 f   riched60:rtfread.obj
 0001:000ab27c       ?IsLowMergedCell@CRTFRead@@AAAHXZ 100ac27c f   riched60:rtfread.obj
 0001:000ab2b0       ?Pard@CRTFRead@@AAAXPAUSTATE@@@Z 100ac2b0 f   riched60:rtfread.obj
 0001:000ab358       ?InitializeTableRowParms@CRTFRead@@AAAXXZ 100ac358 f   riched60:rtfread.obj
 0001:000ab3c4       ?DelimitILSObject@CRTFRead@@AAAXGW4__MIDL___MIDL_itf_tom_0000_0002@@PAUSTATE@@@Z 100ac3c4 f   riched60:rtfread.obj
 0001:000ab4e4       ??0CRTFRead@@QAA@PAVCTxtRange@@PAU_editstream@@K@Z 100ac4e4 f   riched60:rtfread.obj
 0001:000ab678       ?HandleStartGroup@CRTFRead@@AAAHXZ 100ac678 f   riched60:rtfread.obj
 0001:000ab7a8       ?SelectCurrentFont@CRTFRead@@AAAHHPAVCCharFormat@@@Z 100ac7a8 f   riched60:rtfread.obj
 0001:000ab9f4       ?SetPlain@CRTFRead@@AAAXPAUSTATE@@@Z 100ac9f4 f   riched60:rtfread.obj
 0001:000abac4       ?GetColor@CRTFRead@@AAAKK@Z 100acac4 f   riched60:rtfread.obj
 0001:000abb4c       ?GetStandardColorIndex@CRTFRead@@AAAJXZ 100acb4c f   riched60:rtfread.obj
 0001:000abbc0       ?GetCellColorIndex@CRTFRead@@AAAJXZ 100acbc0 f   riched60:rtfread.obj
 0001:000abc54       ?CheckListText@CRTFRead@@AAAXPAUSTATE@@@Z 100acc54 f   riched60:rtfread.obj
 0001:000ac130       ?GetTextFont@CRTFRead@@AAAPAU_textfont@@H@Z 100ad130 f   riched60:rtfread.obj
 0001:000ac16c       ?CpgInfoFromFaceName@CRTFRead@@AAAHH@Z 100ad16c f   riched60:rtfread.obj
 0001:000ac308       ?HandleEndGroup@CRTFRead@@AAAHXZ 100ad308 f   riched60:rtfread.obj
 0001:000ac9d8       ?ReadFontName@CRTFRead@@AAAXPAUSTATE@@H@Z 100ad9d8 f   riched60:rtfread.obj
 0001:000accac       ?HandleText@CRTFRead@@AAAHPAEHJ@Z 100adcac f   riched60:rtfread.obj
 0001:000ad298       ?BindAndReplaceRange@CRTFRead@@AAAJJPBGPAUSTATE@@AA_KJ@Z 100ae298 f   riched60:rtfread.obj
 0001:000ad4ac       ?HandleEndOfPara@CRTFRead@@AAAHXZ 100ae4ac f   riched60:rtfread.obj
 0001:000ad5b8       ?HandleCell@CRTFRead@@AAAHXZ 100ae5b8 f   riched60:rtfread.obj
 0001:000ad728       ?DelimitRow@CRTFRead@@AAAHPAG@Z 100ae728 f   riched60:rtfread.obj
 0001:000adea0       ?AddText@CRTFRead@@AAAHPAGJHHH@Z 100aeea0 f   riched60:rtfread.obj
 0001:000ae40c       ?HandleFieldEndGroup@CRTFRead@@AAAXXZ 100af40c f   riched60:rtfread.obj
 0001:000aee5c       ?HandleUN@CRTFRead@@AAAXPAUSTATE@@@Z 100afe5c f   riched60:rtfread.obj
 0001:000af160       ?HandleTextToken@CRTFRead@@AAAHPAUSTATE@@@Z 100b0160 f   riched60:rtfread.obj
 0001:000af57c       ?HandleNumber@CRTFRead@@AAAHXZ 100b057c f   riched60:rtfread.obj
 0001:000af634       ?HandleToken@CRTFRead@@AAAHXZ 100b0634 f   riched60:rtfread.obj
 0001:000b215c       ?ReadRtf@CRTFRead@@QAAJXZ  100b315c f   riched60:rtfread.obj
 0001:000b2800       ?ReadData@CRTFRead@@QAAJPAEJ@Z 100b3800 f   riched60:rtfread2.obj
 0001:000b2878       ?ReadBinaryData@CRTFRead@@QAAJPAEJ@Z 100b3878 f   riched60:rtfread2.obj
 0001:000b28e8       ?SkipBinaryData@CRTFRead@@QAAJJ@Z 100b38e8 f   riched60:rtfread2.obj
 0001:000b2928       ?ReadRawText@CRTFRead@@QAAJPAPAD@Z 100b3928 f   riched60:rtfread2.obj
 0001:000b2a9c       ?StrAlloc@CRTFRead@@AAAHPAPAGPAE@Z 100b3a9c f   riched60:rtfread2.obj
 0001:000b2b18       ?FreeRtfObject@CRTFRead@@AAAXXZ 100b3b18 f   riched60:rtfread2.obj
 0001:000b2b5c       ?ObjectReadEBookImageInfoFromEditStream@CRTFRead@@AAAHXZ 100b3b5c f   riched60:rtfread2.obj
 0001:000b2dd0       ?ObjectReadFromEditStream@CRTFRead@@AAAJXZ 100b3dd0 f   riched60:rtfread2.obj
 0001:000b3030       ?BlobObjectReadFromEditStream@CRTFRead@@AAAHH@Z 100b4030 f   riched60:rtfread2.obj
 0001:000b3144       ?StaticObjectReadFromEditStream@CRTFRead@@AAAHH@Z 100b4144 f   riched60:rtfread2.obj
 0001:000b34a8       ?HandleSTextFlow@CRTFRead@@AAAXH@Z 100b44a8 f   riched60:rtfread2.obj
 0001:000b3500       ?HandleFieldSymbolFont@CRTFRead@@AAAHPAVCTxtPtr@@AAH@Z 100b4500 f   riched60:rtfread2.obj
 0001:000b3748       ?HandleFieldSymbolInstruction@CRTFRead@@AAAHPAVCTxtPtr@@PAGAAH@Z 100b4748 f   riched60:rtfread2.obj
 0001:000b3840       ??0NewTextRunData@OTx@@QAA@XZ 100b4840 f i riched60:measurerptr.obj
 0001:000b38cc       ?ScriptTextOut@COTxDC@@QBAJJPAPAXHHIPBUtagRECT@@PBUtag_SCRIPT_ANALYSIS@@PBGHPBH4PBUtagGOFFSET@@3@Z 100b48cc f i riched60:measurerptr.obj
 0001:000b3994       ?OTxRunBulletType@@YA?AW4RunBulletType@OTx@@ABUCLsrunPtr@@@Z 100b4994 f i riched60:measurerptr.obj
 0001:000b39d4       ??0OTxRunRef@@QAA@ABUCLsrunPtr@@@Z 100b49d4 f i riched60:measurerptr.obj
 0001:000b3a50       ?FUnderlineAbove@@YAHEPBVCCharFormat@@@Z 100b4a50 f i riched60:measurerptr.obj
 0001:000b3a9c       ?FEmphasisAbove@@YAHPBVCCharFormat@@@Z 100b4a9c f i riched60:measurerptr.obj
 0001:000b3afc       ?ChooseEmphasisSymbol@@YAGPBVCCharFormat@@_NPAU_emphasissymbol@@J@Z 100b4afc f i riched60:measurerptr.obj
 0001:000b3b7c       ?InitLine@CMeasurerPtr@@QBA_NJ@Z 100b4b7c f   riched60:measurerptr.obj
 0001:000b3bbc       ?DeinitLine@CMeasurerPtr@@QBA_NPBUtagRECT@@@Z 100b4bbc f   riched60:measurerptr.obj
 0001:000b3bfc       ?GetNewTextRunData@CMeasurerPtr@@QBA_NABUCLsrunPtr@@HHPBGAAHPAUlschp@@PAH@Z 100b4bfc f   riched60:measurerptr.obj
 0001:000b3f04       ?CloneTextRunData@CMeasurerPtr@@QBA_NKAAK@Z 100b4f04 f   riched60:measurerptr.obj
 0001:000b3f30       ?ReleaseRun@CMeasurerPtr@@QBA_NK@Z 100b4f30 f   riched60:measurerptr.obj
 0001:000b3f78       ?GetFUseAtFont@CMeasurerPtr@@QBA_N_NEAA_N@Z 100b4f78 f   riched60:measurerptr.obj
 0001:000b3fc4       ?GetFGlyphBased@CMeasurerPtr@@QBA_NABUCLsrunPtr@@AA_N@Z 100b4fc4 f   riched60:measurerptr.obj
 0001:000b408c       ?GetFApplyKern@CMeasurerPtr@@QBA_NABUCLsrunPtr@@AA_N@Z 100b508c f   riched60:measurerptr.obj
 0001:000b4130       ?GetOffsetAndAdjustment@CMeasurerPtr@@QBA_NABUCLsrunPtr@@_NAAJPAJ@Z 100b5130 f   riched60:measurerptr.obj
 0001:000b41d4       ?CheckKernability@CMeasurerPtr@@QBA_NABUCLsrunPtr@@0AAH@Z 100b51d4 f   riched60:measurerptr.obj
 0001:000b427c       ?GetCharKerning@CMeasurerPtr@@QBA_NABUCLsrunPtr@@K_NPBGJPAJ@Z 100b527c f   riched60:measurerptr.obj
 0001:000b43c4       ?GetMetrics@CMeasurerPtr@@QBA_NABUCLsrunPtr@@K_NAAJ2AA_N@Z 100b53c4 f   riched60:measurerptr.obj
 0001:000b457c       ?DrawUnderline@CMeasurerPtr@@QBA_NABUCLsrunPtr@@KIABUtagLSPOINT@@JJABUtagLSRECT@@@Z 100b557c f   riched60:measurerptr.obj
 0001:000b47e8       ?DrawStrikethrough@CMeasurerPtr@@QBA_NABUCLsrunPtr@@KIABUtagLSPOINT@@JJABUtagLSRECT@@@Z 100b57e8 f   riched60:measurerptr.obj
 0001:000b49bc       ?GetFInterruptUnderline@CMeasurerPtr@@QBA_NABUCLsrunPtr@@0AAH@Z 100b59bc f   riched60:measurerptr.obj
 0001:000b4bb0       ?ShadeRectangle@CMeasurerPtr@@QBA_NHKABUtagLSPOINT@@JJJPBUtagLSRECT@@J@Z 100b5bb0 f   riched60:measurerptr.obj
 0001:000b4d30       ?GetFInterruptShaping@CMeasurerPtr@@QBA_NABUCLsrunPtr@@0AAH@Z 100b5d30 f   riched60:measurerptr.obj
 0001:000b4e54       ?GetModWidthClasses@CMeasurerPtr@@QBA_NABUCLsrunPtr@@PBGJPAE@Z 100b5e54 f   riched60:measurerptr.obj
 0001:000b4f00       ?GetBreakingClasses@CMeasurerPtr@@QBA_NABUCLsrunPtr@@JGAAJ1@Z 100b5f00 f   riched60:measurerptr.obj
 0001:000b5024       ?MoveRendererOutOfHorzVert@CMeasurerPtr@@IBAXABUCLsrunPtr@@@Z 100b6024 f   riched60:measurerptr.obj
 0001:000b50c4       ?ScriptTextOut@CHDC@@QBAJJPAPAXHHIPBUtagRECT@@PBUtag_SCRIPT_ANALYSIS@@PBGHPBH4PBUtagGOFFSET@@3@Z 100b60c4 f i riched60:measurerptr.obj
 0001:000b51b8       ?GetResolutionAndFDisplayDC@CMeasurerPtr@@QBA_NAAJ000AA_N@Z 100b61b8 f   riched60:measurerptr.obj
 0001:000b5290       ?GetAscentAndDescent@CMeasurerPtr@@QBA_NABUCLsrunPtr@@AAJ1@Z 100b6290 f   riched60:measurerptr.obj
 0001:000b538c       ?GetCharWidths@CMeasurerPtr@@QBA_NABUCLsrunPtr@@K_NPBGJJPAJAAJ4@Z 100b638c f   riched60:measurerptr.obj
 0001:000b56b8       ?GetUnderlineInfo@CMeasurerPtr@@QBA_NABUCLsrunPtr@@KABUheights@@AAUlsulinfo@@@Z 100b66b8 f   riched60:measurerptr.obj
 0001:000b59c8       ?GetStrikethroughInfo@CMeasurerPtr@@QBA_NABUCLsrunPtr@@KABUheights@@AAUlsstinfo@@@Z 100b69c8 f   riched60:measurerptr.obj
 0001:000b5bc8       ?DrawChars@CMeasurerPtr@@QBA_NABUCLsrunPtr@@KABUtagLSPOINT@@PBGPBJJI1ABUheights@@JABUtagLSRECT@@@Z 100b6bc8 f   riched60:measurerptr.obj
 0001:000b5fcc       ?DrawEffects@CMeasurerPtr@@QBA_NABUCLsrunPtr@@KIABUtagLSPOINT@@PBGPBJ3JIABUheights@@JABUtagLSRECT@@PAU_emphasissymbol@@JABUCHARFORMAT2W@@@Z 100b6fcc f   riched60:measurerptr.obj
 0001:000b6330       ?DrawGlyphs@CMeasurerPtr@@QBA_NABUCLsrunPtr@@JKPAGPBG2J2PBJ3PBUtagLSGOFFSET@@PBKPBEJIABUtagLSPOINT@@ABUheights@@JABUtagLSRECT@@@Z 100b7330 f   riched60:measurerptr.obj
 0001:000b6950       ?GetGlyphExpansionInfo@CMeasurerPtr@@QBA_NABUCLsrunPtr@@KPBJJ_NPBG33J3PBKJ2PAEPAUlsexpinfo@@@Z 100b7950 f   riched60:measurerptr.obj
 0001:000b6a30       ?GetEms@CMeasurerPtr@@QBA_NABUCLsrunPtr@@AAJPAUlsems@@@Z 100b7a30 f   riched60:measurerptr.obj
 0001:000b6cd8       ?PunctStartLine@CMeasurerPtr@@QBA_NABUCLsrunPtr@@EGAAU_lsact@@@Z 100b7cd8 f   riched60:measurerptr.obj
 0001:000b6d78       ?ModWidthOnRun@CMeasurerPtr@@QBA_NKABUCLsrunPtr@@G0GAAHAAU_lsact@@AAJ@Z 100b7d78 f   riched60:measurerptr.obj
 0001:000b6e8c       ?ModWidthSpace@CMeasurerPtr@@QBA_NABUCLsrunPtr@@0G0GAAU_lsact@@@Z 100b7e8c f   riched60:measurerptr.obj
 0001:000b6fe0       ?CompOnRun@CMeasurerPtr@@QBA_NABUCLsrunPtr@@G0GAAUlspract@@@Z 100b7fe0 f   riched60:measurerptr.obj
 0001:000b70c8       ?CompWidthSpace@CMeasurerPtr@@QBA_NABUCLsrunPtr@@0G0GAAUlspract@@@Z 100b80c8 f   riched60:measurerptr.obj
 0001:000b7264       ?ExpOnRun@CMeasurerPtr@@QBA_NABUCLsrunPtr@@G0GAAU_lsact@@@Z 100b8264 f   riched60:measurerptr.obj
 0001:000b7340       ?ExpWidthSpace@CMeasurerPtr@@QBA_NABUCLsrunPtr@@0G0GAAU_lsact@@@Z 100b8340 f   riched60:measurerptr.obj
 0001:000b744c       ?GetBreakingConditionBeforeChar@CMeasurerPtr@@QBA_NJAAW4BRKCOND@@@Z 100b844c f   riched60:measurerptr.obj
 0001:000b74dc       ?GetBreakingConditionAfterChar@CMeasurerPtr@@QBA_NJAAW4BRKCOND@@@Z 100b84dc f   riched60:measurerptr.obj
 0001:000b755c       ?GetFHangingPunct@CMeasurerPtr@@QBA_NABUCLsrunPtr@@EGAAH@Z 100b855c f   riched60:measurerptr.obj
 0001:000b7798       ?PGPropFromPSva@CUniscribe@@QAAPAKPBUtag_SCRIPT_VISATTR@@J@Z 100b8798 f i riched60:measurerptr.obj
 0001:000b77e0       ?PSvaFromPGProp@CUniscribe@@QAAPAUtag_SCRIPT_VISATTR@@PBKJ@Z 100b87e0 f i riched60:measurerptr.obj
 0001:000b7828       ?GetGlyphs@CMeasurerPtr@@QBA_NABUCLsrunPtr@@KPBJJPBGJPAG3PAHAAPAGAAPAKAAJ@Z 100b8828 f   riched60:measurerptr.obj
 0001:000b7ab8       ?GetGlyphPositions@CMeasurerPtr@@QBA_NABUCLsrunPtr@@KPBJJ_NPAGPBG4J4PBKJPAJPAUtagLSGOFFSET@@@Z 100b8ab8 f   riched60:measurerptr.obj
 0001:000b7da0       ?CharClassFromChSlow@@YAEG@Z 100b8da0 f   riched60:fetypogr.obj
 0001:000b7dc4       ?CheckSetExpansionTable@@YAJPAUCLineServices@@HAAPBE@Z 100b8dc4 f   riched60:fetypogr.obj
 0001:000b7e18       ?SetCompressionTable@@YAJPAUCLineServices@@@Z 100b8e18 f   riched60:fetypogr.obj
 0001:000b7e4c       ?SetModWidthPairsTable@@YAJPAUCLineServices@@@Z 100b8e4c f   riched60:fetypogr.obj
 0001:000b7e78       ?CscFromCh@@YA?AW4CSC@@GJ@Z 100b8e78 f   riched60:fetypogr.obj
 0001:000b7ecc       ?FAutoSpace@@YAHGJGJ@Z     100b8ecc f   riched60:fetypogr.obj
 0001:000b7f4c       ?OlsOleCreateILSObj@@YAJPAUCOls@@PAUCLineServices@@PBUlscbk@@JPAPAUilsobj@@@Z 100b8f4c f   riched60:olsole.obj
 0001:000b7f60       ?OlsOleDestroyILSObj@@YAJPAUilsobj@@@Z 100b8f60 f   riched60:olsole.obj
 0001:000b7f68       ?OlsOleSetDoc@@YAJPAUilsobj@@PBUlsdocinf@@@Z 100b8f68 f   riched60:olsole.obj
 0001:000b7f70       ?OlsOleCreateLNObj@@YAJQAUilsobj@@PAPAUlnobj@@@Z 100b8f70 f   riched60:olsole.obj
 0001:000b7f7c       ?OlsOleDestroyLNObj@@YAJPAUlnobj@@@Z 100b8f7c f   riched60:olsole.obj
 0001:000b7f84       ?OlsOleFmt@@YAJPAUlnobj@@PBUfmtin@@PAW4fmtres@@@Z 100b8f84 f   riched60:olsole.obj
 0001:000b8364       ?OlsOleTruncate@@YAJPAUdobj@@PBUlsdnodeinfo@@PBUlsfgi@@PAHPAJ@Z 100b9364 f   riched60:olsole.obj
 0001:000b8380       ?OlsOleFindPrevBreakOppInside@@YAJPAUdobj@@PBUlsdnodeinfo@@HJPAHPAJ3PAUlsbrkres@@PAPAUlsbreakopp@@@Z 100b9380 f   riched60:olsole.obj
 0001:000b8394       ?OlsOleFindNextBreakOppInside@@YAJPAUdobj@@PBUlsdnodeinfo@@HJPAHPAJ3PAUlsbrkres@@PAPAUlsbreakopp@@@Z 100b9394 f   riched60:olsole.obj
 0001:000b83a8       ?OlsOleFindBreakOppBeforeCpTruncate@@YAJPAUdobj@@PBUlsdnodeinfo@@JPAHPAJPAUlsbrkres@@PAPAUlsbreakopp@@@Z 100b93a8 f   riched60:olsole.obj
 0001:000b83b8       ?OlsOleFindBreakOppAfterCpTruncate@@YAJPAUdobj@@PBUlsdnodeinfo@@JPAHPAJPAUlsbrkres@@PAPAUlsbreakopp@@@Z 100b93b8 f   riched60:olsole.obj
 0001:000b83c8       ?OlsOleProposeBreakAfter@@YAJPAUdobj@@PBUlsdnodeinfo@@PAW4BRKCOND@@@Z 100b93c8 f   riched60:olsole.obj
 0001:000b83d8       ?OlsOleProposeBreakBefore@@YAJPAUdobj@@PBUlsdnodeinfo@@PAW4BRKCOND@@@Z 100b93d8 f   riched60:olsole.obj
 0001:000b83e8       ?OlsOleCreateBreakOppAfter@@YAJPAUdobj@@PBUlsdnodeinfo@@PAUlsbrkres@@PAPAUlsbreakopp@@@Z 100b93e8 f   riched60:olsole.obj
 0001:000b83fc       ?OlsOleCreateStartOppBefore@@YAJPAUdobj@@PBUlsdnodeinfo@@PAPAUlsstartopp@@@Z 100b93fc f   riched60:olsole.obj
 0001:000b840c       ?OlsOleFindPrevForceBreakOppInside@@YAJPAUdobj@@PBUlsdnodeinfo@@HJPAHPAJPAUlsbrkres@@PAPAUlsbreakopp@@@Z 100b940c f   riched60:olsole.obj
 0001:000b8420       ?OlsOleFindForceBreakOppBeforeCpTruncate@@YAJPAUdobj@@PBUlsdnodeinfo@@JHPAHPAJPAUlsbrkres@@PAPAUlsbreakopp@@@Z 100b9420 f   riched60:olsole.obj
 0001:000b8474       ?OlsOleCreateDobjFragment@@YAJPAUdobj@@PBUlsdnodeinfo@@HHHHHHJPAUlsstartopp@@HJPAUlsbreakopp@@KPAHPAPAUdobjfragm@@PAUobjdim@@4@Z 100b9474 f   riched60:olsole.obj
 0001:000b84ac       ?OlsOleSetBreak@@YAJPAUdobjfragm@@PBUlsdnodeinfo@@PAUdobj@@@Z 100b94ac f   riched60:olsole.obj
 0001:000b84b4       ?OlsOleDestroyStartOpp@@YAJPAUdobj@@PAUlsstartopp@@@Z 100b94b4 f   riched60:olsole.obj
 0001:000b84bc       ?OlsOleDestroyBreakOpp@@YAJPAUdobj@@PAUlsbreakopp@@@Z 100b94bc f   riched60:olsole.obj
 0001:000b84c4       ?OlsOleGetSpecialEffectsFromDobj@@YAJPAUdobj@@PAI@Z 100b94c4 f   riched60:olsole.obj
 0001:000b84d4       ?OlsOleGetSpecialEffectsFromDobjFragment@@YAJPAUdobjfragm@@PAI@Z 100b94d4 f   riched60:olsole.obj
 0001:000b84e4       ?OlsOleGetSubmissionInfoFromDobj@@YAJPAUdobj@@PAJPAH2222@Z 100b94e4 f   riched60:olsole.obj
 0001:000b8518       ?OlsOleGetSubmissionInfoFromDobjFragment@@YAJPAUdobjfragm@@PAJPAH2222@Z 100b9518 f   riched60:olsole.obj
 0001:000b854c       ?OlsOleFExpandWithPrecedingChar@@YAJPAUdobj@@PAUCLsrun@@1GEPAH@Z 100b954c f   riched60:olsole.obj
 0001:000b8560       ?OlsOleFExpandWithFollowingChar@@YAJPAUdobj@@PAUCLsrun@@1GEPAH@Z 100b9560 f   riched60:olsole.obj
 0001:000b8574       ?OlsOleCalcPresentation@@YAJPAUdobj@@JH@Z 100b9574 f   riched60:olsole.obj
 0001:000b857c       ?OlsOleQueryPointPcp@@YAJPAUdobj@@PBUtagLSPOINTUV@@PBUlsqin@@PAUlsqout@@@Z 100b957c f   riched60:olsole.obj
 0001:000b85c0       ?OlsOleQueryCpPpoint@@YAJPAUdobj@@JPBUlsqin@@PAUlsqout@@@Z 100b95c0 f   riched60:olsole.obj
 0001:000b8604       ?OlsOleEnum@@YAJPAUdobj@@PAUCLsrun@@PBUlschp@@JJKHHPBUtagLSPOINT@@PBUheights@@J@Z 100b9604 f   riched60:olsole.obj
 0001:000b860c       ?OlsOleDestroyDObj@@YAJPAUdobj@@@Z 100b960c f   riched60:olsole.obj
 0001:000b8614       ?OlsOleDisplay@@YAJPAUdobj@@PBUdispin@@@Z 100b9614 f   riched60:olsole.obj
 0001:000b884c       ?QueryInterface@CTxtTable@@UAAJABU_GUID@@PAPAX@Z 100b984c f   riched60:tomtbl.obj
 0001:000b8880       ?AddRef@CTxtTable@@UAAKXZ  100b9880 f   riched60:tomtbl.obj
 0001:000b8894       ?Release@CTxtTable@@UAAKXZ 100b9894 f   riched60:tomtbl.obj
 0001:000b88bc       ?GetTypeInfoCount@CTxtTable@@UAAJPAI@Z 100b98bc f   riched60:tomtbl.obj
 0001:000b88d8       ?GetTypeInfo@CTxtTable@@UAAJIKPAPAUITypeInfo@@@Z 100b98d8 f   riched60:tomtbl.obj
 0001:000b88ec       ?GetIDsOfNames@CTxtTable@@UAAJABU_GUID@@PAPAGIKPAJ@Z 100b98ec f   riched60:tomtbl.obj
 0001:000b8928       ?Invoke@CTxtTable@@UAAJJABU_GUID@@KGPAUtagDISPPARAMS@@PAUtagVARIANT@@PAUtagEXCEPINFO@@PAI@Z 100b9928 f   riched60:tomtbl.obj
 0001:000b8990       ?GetAutoFitBehavior@CTxtTable@@UAAJPAJ@Z 100b9990 f   riched60:tomtbl.obj
 0001:000b89a8       ?GetNestingLevel@CTxtTable@@UAAJPAJ@Z 100b99a8 f   riched60:tomtbl.obj
 0001:000b89c0       ?GetRows@CTxtTable@@UAAJPAPAUITextRows@@@Z 100b99c0 f   riched60:tomtbl.obj
 0001:000b89d8       ?SetAutoFitBehavior@CTxtTable@@UAAJJ@Z 100b99d8 f   riched60:tomtbl.obj
 0001:000b89e4       ?QueryInterface@CTxtColumns@@UAAJABU_GUID@@PAPAX@Z 100b99e4 f   riched60:tomtbl.obj
 0001:000b8a18       ?AddRef@CTxtColumns@@UAAKXZ 100b9a18 f   riched60:tomtbl.obj
 0001:000b8a2c       ?Release@CTxtColumns@@UAAKXZ 100b9a2c f   riched60:tomtbl.obj
 0001:000b8a54       ?GetTypeInfoCount@CTxtColumns@@UAAJPAI@Z 100b9a54 f   riched60:tomtbl.obj
 0001:000b8a70       ?GetTypeInfo@CTxtColumns@@UAAJIKPAPAUITypeInfo@@@Z 100b9a70 f   riched60:tomtbl.obj
 0001:000b8a84       ?GetIDsOfNames@CTxtColumns@@UAAJABU_GUID@@PAPAGIKPAJ@Z 100b9a84 f   riched60:tomtbl.obj
 0001:000b8ac0       ?Invoke@CTxtColumns@@UAAJJABU_GUID@@KGPAUtagDISPPARAMS@@PAUtagVARIANT@@PAUtagEXCEPINFO@@PAI@Z 100b9ac0 f   riched60:tomtbl.obj
 0001:000b8b28       ?Item@CTxtColumns@@UAAJJPAPAUITextColumn@@@Z 100b9b28 f   riched60:tomtbl.obj
 0001:000b8b40       ?GetCount@CTxtColumns@@UAAJPAJ@Z 100b9b40 f   riched60:tomtbl.obj
 0001:000b8b58       ?Add@CTxtColumns@@UAAJJJ@Z 100b9b58 f   riched60:tomtbl.obj
 0001:000b8b64       ?Delete@CTxtColumns@@UAAJJJ@Z 100b9b64 f   riched60:tomtbl.obj
 0001:000b8b70       ?QueryInterface@CTxtCells@@UAAJABU_GUID@@PAPAX@Z 100b9b70 f   riched60:tomtbl.obj
 0001:000b8ba4       ?AddRef@CTxtCells@@UAAKXZ  100b9ba4 f   riched60:tomtbl.obj
 0001:000b8bb8       ?Release@CTxtCells@@UAAKXZ 100b9bb8 f   riched60:tomtbl.obj
 0001:000b8be0       ?GetTypeInfoCount@CTxtCells@@UAAJPAI@Z 100b9be0 f   riched60:tomtbl.obj
 0001:000b8bfc       ?GetTypeInfo@CTxtCells@@UAAJIKPAPAUITypeInfo@@@Z 100b9bfc f   riched60:tomtbl.obj
 0001:000b8c10       ?GetIDsOfNames@CTxtCells@@UAAJABU_GUID@@PAPAGIKPAJ@Z 100b9c10 f   riched60:tomtbl.obj
 0001:000b8c4c       ?Invoke@CTxtCells@@UAAJJABU_GUID@@KGPAUtagDISPPARAMS@@PAUtagVARIANT@@PAUtagEXCEPINFO@@PAI@Z 100b9c4c f   riched60:tomtbl.obj
 0001:000b8cb4       ?Item@CTxtCells@@UAAJJPAPAUITextCell@@@Z 100b9cb4 f   riched60:tomtbl.obj
 0001:000b8ccc       ?GetCount@CTxtCells@@UAAJPAJ@Z 100b9ccc f   riched60:tomtbl.obj
 0001:000b8ce4       ?Add@CTxtCells@@UAAJJJ@Z   100b9ce4 f   riched60:tomtbl.obj
 0001:000b8cf0       ?Delete@CTxtCells@@UAAJJJ@Z 100b9cf0 f   riched60:tomtbl.obj
 0001:000b8cfc       ?Merge@CTxtCells@@UAAJJJ@Z 100b9cfc f   riched60:tomtbl.obj
 0001:000b8d08       ?Unmerge@CTxtCells@@UAAJJJ@Z 100b9d08 f   riched60:tomtbl.obj
 0001:000b8d14       ?QueryInterface@CTxtColumn@@UAAJABU_GUID@@PAPAX@Z 100b9d14 f   riched60:tomtbl.obj
 0001:000b8d48       ?AddRef@CTxtColumn@@UAAKXZ 100b9d48 f   riched60:tomtbl.obj
 0001:000b8d5c       ?Release@CTxtColumn@@UAAKXZ 100b9d5c f   riched60:tomtbl.obj
 0001:000b8d84       ?GetTypeInfoCount@CTxtColumn@@UAAJPAI@Z 100b9d84 f   riched60:tomtbl.obj
 0001:000b8da0       ?GetTypeInfo@CTxtColumn@@UAAJIKPAPAUITypeInfo@@@Z 100b9da0 f   riched60:tomtbl.obj
 0001:000b8db4       ?GetIDsOfNames@CTxtColumn@@UAAJABU_GUID@@PAPAGIKPAJ@Z 100b9db4 f   riched60:tomtbl.obj
 0001:000b8df0       ?Invoke@CTxtColumn@@UAAJJABU_GUID@@KGPAUtagDISPPARAMS@@PAUtagVARIANT@@PAUtagEXCEPINFO@@PAI@Z 100b9df0 f   riched60:tomtbl.obj
 0001:000b8e58       ?GetCells@CTxtColumn@@UAAJPAPAUITextCells@@@Z 100b9e58 f   riched60:tomtbl.obj
 0001:000b8e70       ?GetWidth@CTxtColumn@@UAAJPAJ@Z 100b9e70 f   riched60:tomtbl.obj
 0001:000b8e88       ?SetWidth@CTxtColumn@@UAAJJ@Z 100b9e88 f   riched60:tomtbl.obj
 0001:000b8e94       ?QueryInterface@CTxtRow@@UAAJABU_GUID@@PAPAX@Z 100b9e94 f   riched60:tomtbl.obj
 0001:000b8ec8       ?AddRef@CTxtRow@@UAAKXZ    100b9ec8 f   riched60:tomtbl.obj
 0001:000b8edc       ?Release@CTxtRow@@UAAKXZ   100b9edc f   riched60:tomtbl.obj
 0001:000b8f04       ?GetTypeInfoCount@CTxtRow@@UAAJPAI@Z 100b9f04 f   riched60:tomtbl.obj
 0001:000b8f20       ?GetTypeInfo@CTxtRow@@UAAJIKPAPAUITypeInfo@@@Z 100b9f20 f   riched60:tomtbl.obj
 0001:000b8f34       ?GetIDsOfNames@CTxtRow@@UAAJABU_GUID@@PAPAGIKPAJ@Z 100b9f34 f   riched60:tomtbl.obj
 0001:000b8f70       ?Invoke@CTxtRow@@UAAJJABU_GUID@@KGPAUtagDISPPARAMS@@PAUtagVARIANT@@PAUtagEXCEPINFO@@PAI@Z 100b9f70 f   riched60:tomtbl.obj
 0001:000b8fd8       ?GetAlignment@CTxtRow@@UAAJPAJ@Z 100b9fd8 f   riched60:tomtbl.obj
 0001:000b8ff0       ?GetAllowBreak@CTxtRow@@UAAJPAJ@Z 100b9ff0 f   riched60:tomtbl.obj
 0001:000b9008       ?GetCellMargin@CTxtRow@@UAAJPAJ@Z 100ba008 f   riched60:tomtbl.obj
 0001:000b9020       ?GetCells@CTxtRow@@UAAJPAPAUITextCells@@@Z 100ba020 f   riched60:tomtbl.obj
 0001:000b9038       ?GetHeading@CTxtRow@@UAAJPAJ@Z 100ba038 f   riched60:tomtbl.obj
 0001:000b9050       ?GetHeight@CTxtRow@@UAAJPAJ@Z 100ba050 f   riched60:tomtbl.obj
 0001:000b9068       ?GetIndent@CTxtRow@@UAAJPAJ@Z 100ba068 f   riched60:tomtbl.obj
 0001:000b9080       ?GetRTL@CTxtRow@@UAAJPAJ@Z 100ba080 f   riched60:tomtbl.obj
 0001:000b9098       ?SetAlignment@CTxtRow@@UAAJJ@Z 100ba098 f   riched60:tomtbl.obj
 0001:000b90a4       ?SetAllowBreak@CTxtRow@@UAAJJ@Z 100ba0a4 f   riched60:tomtbl.obj
 0001:000b90b0       ?SetCellMargin@CTxtRow@@UAAJJ@Z 100ba0b0 f   riched60:tomtbl.obj
 0001:000b90bc       ?SetHeading@CTxtRow@@UAAJJ@Z 100ba0bc f   riched60:tomtbl.obj
 0001:000b90c8       ?SetHeight@CTxtRow@@UAAJJ@Z 100ba0c8 f   riched60:tomtbl.obj
 0001:000b90d4       ?SetIndent@CTxtRow@@UAAJJ@Z 100ba0d4 f   riched60:tomtbl.obj
 0001:000b90e0       ?SetRTL@CTxtRow@@UAAJJ@Z   100ba0e0 f   riched60:tomtbl.obj
 0001:000b90ec       ??0CTxtCells@@QAA@PAVCTxtRange@@@Z 100ba0ec f   riched60:tomtbl.obj
 0001:000b9108       ??0CTxtColumn@@QAA@PAVCTxtRange@@@Z 100ba108 f   riched60:tomtbl.obj
 0001:000b9124       ??0CTxtRow@@QAA@PAVCTxtRange@@@Z 100ba124 f   riched60:tomtbl.obj
 0001:000b9140       ??0CTxtTable@@QAA@PAVCTxtRange@@@Z 100ba140 f   riched60:tomtbl.obj
 0001:000b915c       ?GetColumns@CTxtTable@@UAAJPAPAUITextColumns@@@Z 100ba15c f   riched60:tomtbl.obj
 0001:000b91b8       ?Shutdown@CDisplayEngine@@UAAXXZ 100ba1b8 f i riched60:dispengml.obj
 0001:000b91bc       ?GetViewRenderRect@CDisplayEngine@@UAAXAAURECTUV@@ABU2@@Z 100ba1bc f i riched60:dispengml.obj
 0001:000b91e0       ?GetCpStartOfLastColumn@CDisplayEngine@@UBAJXZ 100ba1e0 f i riched60:dispengml.obj
 0001:000b91e8       ?ClearLayoutCaches@CDisplayEngine@@UAAXXZ 100ba1e8 f i riched60:dispengml.obj
 0001:000b91ec       ?OnPreReplaceRange@CDisplayEngine@@UAAXJJJJJ@Z 100ba1ec f i riched60:dispengml.obj
 0001:000b91f0       ?OnPostReplaceRange@CDisplayEngine@@UAAXJJJJJ@Z 100ba1f0 f i riched60:dispengml.obj
 0001:000b91f4       ?OnObjectChange@CDisplayEngine@@UAAXABVCOleObject@@ABURECTUV@@@Z 100ba1f4 f i riched60:dispengml.obj
 0001:000b91f8       ?OnObjectDeletion@CDisplayEngine@@UAAXABVCOleObject@@@Z 100ba1f8 f i riched60:dispengml.obj
 0001:000b91fc       ?ExtendRectWithDropCapsAndOverlappingBlobs@CDisplayEngine@@UBAXAAURECTUV@@JJ@Z 100ba1fc f i riched60:dispengml.obj
 0001:000b9200       ?ClientRectFromPageRect@CDisplayEngine@@UBAXAAURECTUV@@ABU2@@Z 100ba200 f i riched60:dispengml.obj
 0001:000b9224       ?OnOverlappingTextDetection@CDisplayEngine@@UBAXXZ 100ba224 f i riched60:dispengml.obj
 0001:000b9228       ?FCurrentPageHasOverlappingText@CDisplayEngine@@UBAHXZ 100ba228 f i riched60:dispengml.obj
 0001:000b9230       ?StartParaRunsUpdate@CDisplayEngine@@UAAXJJ@Z 100ba230 f i riched60:dispengml.obj
 0001:000b9234       ?SetCchLostByParaBeforeRange@CDisplayEngine@@UAAXJ@Z 100ba234 f i riched60:dispengml.obj
 0001:000b9238       ?SetCchLostByParaAfterRange@CDisplayEngine@@UAAXJ@Z 100ba238 f i riched60:dispengml.obj
 0001:000b923c       ?SetFLastRunIsNew@CDisplayEngine@@UAAXXZ 100ba23c f i riched60:dispengml.obj
 0001:000b9240       ?ClearContexts@CDisplayEngine@@UAAXXZ 100ba240 f i riched60:dispengml.obj
 0001:000b9244       ??_GCDisplayEngine@@UAAPAXI@Z 100ba244 f i riched60:dispengml.obj
 0001:000b9244       ??_ECDisplayEngine@@UAAPAXI@Z 100ba244 f i riched60:dispengml.obj
 0001:000b9268       ?LookForLeafLine@CDisplayEngineML@@MBAHAAJ0PAVCLinePtr@@PAVCRchTxtPtr@@@Z 100ba268 f   riched60:dispengml.obj
 0001:000b929c       ?IsViewUpdatePostponed@CDisplayEngineML@@MAAHAAVCRchTxtPtr@@@Z 100ba29c f   riched60:dispengml.obj
 0001:000b92e8       ?GetPageTop@CDisplayEngineML@@MBAJJ@Z 100ba2e8 f   riched60:dispengml.obj
 0001:000b9398       ?LineFromVpos@CDisplayEngineML@@MBAJAAVCLinePtr@@JPAJ1@Z 100ba398 f   riched60:dispengml.obj
 0001:000b93fc       ?ClearLayout@CDisplayEngineML@@MAAXXZ 100ba3fc f   riched60:dispengml.obj
 0001:000b9424       ?OnPostReplaceRange@CDisplayEngineML@@MAAXJJJJJ@Z 100ba424 f   riched60:dispengml.obj
 0001:000b9428       ?GetRenderingRectOfObject@CDisplayEngineML@@MBAXABVCOleObject@@AAURECTUV@@@Z 100ba428 f   riched60:dispengml.obj
 0001:000b944c       ?StartBackgroundRecalc@CDisplayEngineML@@IAAHXZ 100ba44c f   riched60:dispengml.obj
 0001:000b9510       ?GetNaturalWidthHeight@CDisplayEngineML@@MAAHKJAAJ0@Z 100ba510 f   riched60:dispengml.obj
 0001:000b9740       ?GetLeafLineCount@CDisplayEngineML@@MBAJXZ 100ba740 f   riched60:dispengml.obj
 0001:000b976c       ?Paginate@CDisplayEngineML@@MAAHJH@Z 100ba76c f   riched60:dispengml.obj
 0001:000b9ce4       ?CpFromPoint@CDisplayEngineML@@MBAJUtagLSPOINTUV@@PBURECTUV@@QAVCRchTxtPtr@@QAVCLinePtr@@HPAW4HITTEST@@PAVCDispDim@@PAJ@Z 100bace4 f   riched60:dispengml.obj
 0001:000b9db8       ?PointFromTp@CDisplayEngineML@@MBAJABVCRchTxtPtr@@PBURECTUV@@HAAUtagLSPOINTUV@@QAVCLinePtr@@IPAVCDispDim@@@Z 100badb8 f   riched60:dispengml.obj
 0001:000b9e78       ?FindClosestEnclosingRect@CDisplayEngineML@@MBAXAAVCRchTxtPtr@@JIAAURECTUV@@H@Z 100bae78 f   riched60:dispengml.obj
 0001:000ba02c       ?Render@CDisplayEngineML@@MBAXABURECTUV@@0@Z 100bb02c f   riched60:dispengml.obj
 0001:000ba2e0       ?FormatRange@CDisplayEngineML@@MAAJJJHH@Z 100bb2e0 f   riched60:dispengml.obj
 0001:000ba734       ?CalcDisplayDui@CDisplayEngineML@@MBAJAAVCMeasurer@@@Z 100bb734 f   riched60:dispengml.obj
 0001:000ba850       ?RecalcLines@CDisplayEngineML@@IAAHAAVCRchTxtPtr@@H@Z 100bb850 f   riched60:dispengml.obj
 0001:000bace4       ?RecalcLines@CDisplayEngineML@@IAAHAAVCRchTxtPtr@@JJHHPAVCLed@@@Z 100bbce4 f   riched60:dispengml.obj
 0001:000bbb98       ?StepBackgroundRecalc@CDisplayEngineML@@MAAXXZ 100bcb98 f   riched60:dispengml.obj
 0001:000bbbf8       ?WaitForRecalc@CDisplayEngineML@@MAAHJJ@Z 100bcbf8 f   riched60:dispengml.obj
 0001:000bbd58       ?RecalcView@CDisplayEngineML@@MAAHABUCViewRect@@@Z 100bcd58 f   riched60:dispengml.obj
 0001:000bbdb4       ?UpdateView@CDisplayEngineML@@MAAHAAVCRchTxtPtr@@JJH@Z 100bcdb4 f   riched60:dispengml.obj
 0001:000bbe8c       ??0CDisplayEngineML@@QAA@AAVCDisplayML@@E@Z 100bce8c f   riched60:dispengml.obj
 0001:000bbee4       ?Init@CDisplayEngineML@@MAAHXZ 100bcee4 f i riched60:dispengml.obj
 0001:000bbeec       ?GetType@CDisplayEngineML@@MBA?AW4DisplayEngineType@@XZ 100bceec f i riched60:dispengml.obj
 0001:000bbef4       ?GetTflow@CDisplayEngineML@@MBAEXZ 100bcef4 f i riched60:dispengml.obj
 0001:000bbefc       ?SetTflow@CDisplayEngineML@@MAAXE@Z 100bcefc f i riched60:dispengml.obj
 0001:000bbf04       ?GetDuiLineMax@CDisplayEngineML@@MBAJXZ 100bcf04 f i riched60:dispengml.obj
 0001:000bbf0c       ?GetDvi@CDisplayEngineML@@MBAJXZ 100bcf0c f i riched60:dispengml.obj
 0001:000bbf14       ?GetLineCount@CDisplayEngineML@@MBAJXZ 100bcf14 f i riched60:dispengml.obj
 0001:000bbf1c       ?InitLinePtr@CDisplayEngineML@@MAAXAAVCLinePtr@@@Z 100bcf1c f i riched60:dispengml.obj
 0001:000bbf34       ?IsBackgroundRecalcDone@CDisplayEngineML@@MBAHXZ 100bcf34 f i riched60:dispengml.obj
 0001:000bbf58       ?VposFromLinePtr@CDisplayEngineML@@MBAJABVCLinePtr@@@Z 100bcf58 f i riched60:dispengml.obj
 0001:000bbf80       ?IsNestedLayout@CDisplayEngineML@@MBAHXZ 100bcf80 f i riched60:dispengml.obj
 0001:000bbf88       ?InitLinePtr@CDisplayEngineML@@OM@AAXAAVCLinePtr@@@Z 100bcf88 f i riched60:dispengml.obj
 0001:000bbf90       ??_ECDisplayEngineML@@WM@AAPAXI@Z 100bcf90 f i riched60:dispengml.obj
 0001:000bbf98       ?GetLine@CDisplayEngineML@@MBAPAUCLine@@J@Z 100bcf98 f i riched60:dispengml.obj
 0001:000bbfc0       ??_ECDisplayEngineML@@UAAPAXI@Z 100bcfc0 f i riched60:dispengml.obj
 0001:000bbfc0       ??_GCDisplayEngineML@@UAAPAXI@Z 100bcfc0 f i riched60:dispengml.obj
 0001:000bbff4       ?Clone@CDisplayEngineML@@MBAPAVCDisplayEngine@@AAVCDisplayML@@E@Z 100bcff4 f   riched60:dispengml.obj
 0001:000bc024       ?QueryInterface@CTxtBorders@@UAAJABU_GUID@@PAPAX@Z 100bd024 f   riched60:tombdrs.obj
 0001:000bc058       ?AddRef@CTxtBorders@@UAAKXZ 100bd058 f   riched60:tombdrs.obj
 0001:000bc06c       ?Release@CTxtBorders@@UAAKXZ 100bd06c f   riched60:tombdrs.obj
 0001:000bc094       ?GetTypeInfoCount@CTxtBorders@@UAAJPAI@Z 100bd094 f   riched60:tombdrs.obj
 0001:000bc0b0       ?GetTypeInfo@CTxtBorders@@UAAJIKPAPAUITypeInfo@@@Z 100bd0b0 f   riched60:tombdrs.obj
 0001:000bc0c4       ?GetIDsOfNames@CTxtBorders@@UAAJABU_GUID@@PAPAGIKPAJ@Z 100bd0c4 f   riched60:tombdrs.obj
 0001:000bc100       ?Invoke@CTxtBorders@@UAAJJABU_GUID@@KGPAUtagDISPPARAMS@@PAUtagVARIANT@@PAUtagEXCEPINFO@@PAI@Z 100bd100 f   riched60:tombdrs.obj
 0001:000bc168       ?Item@CTxtBorders@@UAAJJPAPAUITextBorder@@@Z 100bd168 f   riched60:tombdrs.obj
 0001:000bc180       ?GetCount@CTxtBorders@@UAAJPAJ@Z 100bd180 f   riched60:tombdrs.obj
 0001:000bc19c       ??0CTxtBorders@@QAA@XZ     100bd19c f   riched60:tombdrs.obj
 0001:000bc1b4       ?FetchDup@CKernCache@@QAAJGGJ@Z 100bd1b4 f   riched60:kern.obj
 0001:000bc26c       ?Add@CKernCache@@AAAXGGJ@Z 100bd26c f   riched60:kern.obj
 0001:000bc30c       ?Init@CKernCache@@AAAXPAUHFONT__@@@Z 100bd30c f   riched60:kern.obj
 0001:000bc450       ?FInit@CKernCache@@QAAHPAUHFONT__@@@Z 100bd450 f   riched60:kern.obj
 0001:000bc478       SysAllocString             100bd478 f   oleaut32:OLEAUT32.dll
 0001:000bc488       SysAllocStringLen          100bd488 f   oleaut32:OLEAUT32.dll
 0001:000bc498       SysFreeString              100bd498 f   oleaut32:OLEAUT32.dll
 0001:000bc4a8       SysStringLen               100bd4a8 f   oleaut32:OLEAUT32.dll
 0001:000bc4b8       EnterCriticalSection       100bd4b8 f   coredll:COREDLL.dll
 0001:000bc4c8       LeaveCriticalSection       100bd4c8 f   coredll:COREDLL.dll
 0001:000bc4d8       InitializeCriticalSection  100bd4d8 f   coredll:COREDLL.dll
 0001:000bc4e8       DeleteCriticalSection      100bd4e8 f   coredll:COREDLL.dll
 0001:000bc4f8       HeapDestroy                100bd4f8 f   coredll:COREDLL.dll
 0001:000bc508       PtInRect                   100bd508 f   coredll:COREDLL.dll
 0001:000bc518       GetSystemDefaultLangID     100bd518 f   coredll:COREDLL.dll
 0001:000bc528       WaitForAPIReady            100bd528 f   coredll:COREDLL.dll
 0001:000bc538       GetDeviceCaps              100bd538 f   coredll:COREDLL.dll
 0001:000bc548       DeleteDC                   100bd548 f   coredll:COREDLL.dll
 0001:000bc558       StretchDIBits              100bd558 f   coredll:COREDLL.dll
 0001:000bc568       ReleaseDC                  100bd568 f   coredll:COREDLL.dll
 0001:000bc578       GetDC                      100bd578 f   coredll:COREDLL.dll
 0001:000bc588       IsBadWritePtr              100bd588 f   coredll:COREDLL.dll
 0001:000bc598       GetScrollInfo              100bd598 f   coredll:COREDLL.dll
 0001:000bc5a8       GetKeyState                100bd5a8 f   coredll:COREDLL.dll
 0001:000bc5b8       SystemParametersInfoW      100bd5b8 f   coredll:COREDLL.dll
 0001:000bc5c8       RestoreDC                  100bd5c8 f   coredll:COREDLL.dll
 0001:000bc5d8       IntersectClipRect          100bd5d8 f   coredll:COREDLL.dll
 0001:000bc5e8       SaveDC                     100bd5e8 f   coredll:COREDLL.dll
 0001:000bc5f8       IsBadReadPtr               100bd5f8 f   coredll:COREDLL.dll
 0001:000bc608       MessageBeep                100bd608 f   coredll:COREDLL.dll
 0001:000bc618       SetCursor                  100bd618 f   coredll:COREDLL.dll
 0001:000bc628       LocalAlloc                 100bd628 f   coredll:COREDLL.dll
 0001:000bc638       GetObjectW                 100bd638 f   coredll:COREDLL.dll
 0001:000bc648       DestroyMenu                100bd648 f   coredll:COREDLL.dll
 0001:000bc658       TrackPopupMenuEx           100bd658 f   coredll:COREDLL.dll
 0001:000bc668       GetParent                  100bd668 f   coredll:COREDLL.dll
 0001:000bc678       ClientToScreen             100bd678 f   coredll:COREDLL.dll
 0001:000bc688       GetCursorPos               100bd688 f   coredll:COREDLL.dll
 0001:000bc698       LocalFree                  100bd698 f   coredll:COREDLL.dll
 0001:000bc6a8       WideCharToMultiByte        100bd6a8 f   coredll:COREDLL.dll
 0001:000bc6b8       GetTickCount               100bd6b8 f   coredll:COREDLL.dll
 0001:000bc6c8       GetAsyncKeyState           100bd6c8 f   coredll:COREDLL.dll
 0001:000bc6d8       SetFocus                   100bd6d8 f   coredll:COREDLL.dll
 0001:000bc6e8       DestroyCaret               100bd6e8 f   coredll:COREDLL.dll
 0001:000bc6f8       IsBadCodePtr               100bd6f8 f   coredll:COREDLL.dll
 0001:000bc708       InflateRect                100bd708 f   coredll:COREDLL.dll
 0001:000bc718       IntersectRect              100bd718 f   coredll:COREDLL.dll
 0001:000bc728       GetFocus                   100bd728 f   coredll:COREDLL.dll
 0001:000bc738       GetDlgItem                 100bd738 f   coredll:COREDLL.dll
 0001:000bc748       GetSysColor                100bd748 f   coredll:COREDLL.dll
 0001:000bc758       InvalidateRect             100bd758 f   coredll:COREDLL.dll
 0001:000bc768       MapWindowPoints            100bd768 f   coredll:COREDLL.dll
 0001:000bc778       GetWindowRect              100bd778 f   coredll:COREDLL.dll
 0001:000bc788       IsWindowVisible            100bd788 f   coredll:COREDLL.dll
 0001:000bc798       SetScrollRange             100bd798 f   coredll:COREDLL.dll
 0001:000bc7a8       SetScrollPos               100bd7a8 f   coredll:COREDLL.dll
 0001:000bc7b8       UpdateWindow               100bd7b8 f   coredll:COREDLL.dll
 0001:000bc7c8       CreateCaret                100bd7c8 f   coredll:COREDLL.dll
 0001:000bc7d8       HideCaret                  100bd7d8 f   coredll:COREDLL.dll
 0001:000bc7e8       ShowCaret                  100bd7e8 f   coredll:COREDLL.dll
 0001:000bc7f8       SetCaretPos                100bd7f8 f   coredll:COREDLL.dll
 0001:000bc808       SetTimer                   100bd808 f   coredll:COREDLL.dll
 0001:000bc818       KillTimer                  100bd818 f   coredll:COREDLL.dll
 0001:000bc828       ScrollWindowEx             100bd828 f   coredll:COREDLL.dll
 0001:000bc838       ReleaseCapture             100bd838 f   coredll:COREDLL.dll
 0001:000bc848       SetCapture                 100bd848 f   coredll:COREDLL.dll
 0001:000bc858       ScreenToClient             100bd858 f   coredll:COREDLL.dll
 0001:000bc868       GetClientRect              100bd868 f   coredll:COREDLL.dll
 0001:000bc878       SetForegroundWindow        100bd878 f   coredll:COREDLL.dll
 0001:000bc888       SetScrollInfo              100bd888 f   coredll:COREDLL.dll
 0001:000bc898       GetBkMode                  100bd898 f   coredll:COREDLL.dll
 0001:000bc8a8       ValidateRect               100bd8a8 f   coredll:COREDLL.dll
 0001:000bc8b8       EndPaint                   100bd8b8 f   coredll:COREDLL.dll
 0001:000bc8c8       BeginPaint                 100bd8c8 f   coredll:COREDLL.dll
 0001:000bc8d8       RegisterClassW             100bd8d8 f   coredll:COREDLL.dll
 0001:000bc8e8       DeleteObject               100bd8e8 f   coredll:COREDLL.dll
 0001:000bc8f8       FillRect                   100bd8f8 f   coredll:COREDLL.dll
 0001:000bc908       GetStockObject             100bd908 f   coredll:COREDLL.dll
 0001:000bc918       BitBlt                     100bd918 f   coredll:COREDLL.dll
 0001:000bc928       SelectObject               100bd928 f   coredll:COREDLL.dll
 0001:000bc938       CreateCompatibleBitmap     100bd938 f   coredll:COREDLL.dll
 0001:000bc948       CreateCompatibleDC         100bd948 f   coredll:COREDLL.dll
 0001:000bc958       wvsprintfW                 100bd958 f   coredll:COREDLL.dll
 0001:000bc968       ImmGetCompositionStringW   100bd968 f   coredll:COREDLL.dll
 0001:000bc978       ImmGetContext              100bd978 f   coredll:COREDLL.dll
 0001:000bc988       ImmSetCompositionFontW     100bd988 f   coredll:COREDLL.dll
 0001:000bc998       ImmSetCompositionWindow    100bd998 f   coredll:COREDLL.dll
 0001:000bc9a8       ImmReleaseContext          100bd9a8 f   coredll:COREDLL.dll
 0001:000bc9b8       ImmGetProperty             100bd9b8 f   coredll:COREDLL.dll
 0001:000bc9c8       ImmGetCandidateWindow      100bd9c8 f   coredll:COREDLL.dll
 0001:000bc9d8       ImmSetCandidateWindow      100bd9d8 f   coredll:COREDLL.dll
 0001:000bc9e8       ImmNotifyIME               100bd9e8 f   coredll:COREDLL.dll
 0001:000bc9f8       ImmAssociateContext        100bd9f8 f   coredll:COREDLL.dll
 0001:000bca08       ImmEscapeW                 100bda08 f   coredll:COREDLL.dll
 0001:000bca18       ImmGetOpenStatus           100bda18 f   coredll:COREDLL.dll
 0001:000bca28       ImmSetOpenStatus           100bda28 f   coredll:COREDLL.dll
 0001:000bca38       ImmGetConversionStatus     100bda38 f   coredll:COREDLL.dll
 0001:000bca48       ImmSetConversionStatus     100bda48 f   coredll:COREDLL.dll
 0001:000bca58       ImmGetDefaultIMEWnd        100bda58 f   coredll:COREDLL.dll
 0001:000bca68       ImmSetCompositionStringW   100bda68 f   coredll:COREDLL.dll
 0001:000bca78       ImmIsIME                   100bda78 f   coredll:COREDLL.dll
 0001:000bca88       GetVersionExW              100bda88 f   coredll:COREDLL.dll
 0001:000bca98       GetStringTypeExW           100bda98 f   coredll:COREDLL.dll
 0001:000bcaa8       CharLowerBuffW             100bdaa8 f   coredll:COREDLL.dll
 0001:000bcab8       CharUpperBuffW             100bdab8 f   coredll:COREDLL.dll
 0001:000bcac8       CreateDCW                  100bdac8 f   coredll:COREDLL.dll
 0001:000bcad8       CreateFileW                100bdad8 f   coredll:COREDLL.dll
 0001:000bcae8       CreateFontIndirectW        100bdae8 f   coredll:COREDLL.dll
 0001:000bcaf8       CompareStringW             100bdaf8 f   coredll:COREDLL.dll
 0001:000bcb08       DefWindowProcW             100bdb08 f   coredll:COREDLL.dll
 0001:000bcb18       GetTextFaceW               100bdb18 f   coredll:COREDLL.dll
 0001:000bcb28       GetTextMetricsW            100bdb28 f   coredll:COREDLL.dll
 0001:000bcb38       GetWindowLongW             100bdb38 f   coredll:COREDLL.dll
 0001:000bcb48       LoadBitmapW                100bdb48 f   coredll:COREDLL.dll
 0001:000bcb58       LoadLibraryW               100bdb58 f   coredll:COREDLL.dll
 0001:000bcb68       SendMessageW               100bdb68 f   coredll:COREDLL.dll
 0001:000bcb78       SetWindowLongW             100bdb78 f   coredll:COREDLL.dll
 0001:000bcb88       PostMessageW               100bdb88 f   coredll:COREDLL.dll
 0001:000bcb98       UnregisterClassW           100bdb98 f   coredll:COREDLL.dll
 0001:000bcba8       lstrcmpiW                  100bdba8 f   coredll:COREDLL.dll
 0001:000bcbb8       PeekMessageW               100bdbb8 f   coredll:COREDLL.dll
 0001:000bcbc8       ExtTextOutW                100bdbc8 f   coredll:COREDLL.dll
 0001:000bcbd8       LocalReAlloc               100bdbd8 f   coredll:COREDLL.dll
 0001:000bcbe8       LocalSize                  100bdbe8 f   coredll:COREDLL.dll
 0001:000bcbf8       RegisterWindowMessageW     100bdbf8 f   coredll:COREDLL.dll
 0001:000bcc08       GetACP                     100bdc08 f   coredll:COREDLL.dll
 0001:000bcc18       GetSystemDefaultLCID       100bdc18 f   coredll:COREDLL.dll
 0001:000bcc28       IsValidCodePage            100bdc28 f   coredll:COREDLL.dll
 0001:000bcc38       MultiByteToWideChar        100bdc38 f   coredll:COREDLL.dll
 0001:000bcc48       GetProcAddressW            100bdc48 f   coredll:COREDLL.dll
 0001:000bcc58       GetModuleHandleW           100bdc58 f   coredll:COREDLL.dll
 0001:000bcc68       GetKeyboardLayout          100bdc68 f   coredll:COREDLL.dll
 0001:000bcc78       GetLocaleInfoW             100bdc78 f   coredll:COREDLL.dll
 0001:000bcc88       StringCbCopyW              100bdc88 f   coredll:COREDLL.dll
 0001:000bcc98       GetTextExtentExPointW      100bdc98 f   coredll:COREDLL.dll
 0001:000bcca8       RegCloseKey                100bdca8 f   coredll:COREDLL.dll
 0001:000bccb8       RegQueryValueExW           100bdcb8 f   coredll:COREDLL.dll
 0001:000bccc8       RegOpenKeyExW              100bdcc8 f   coredll:COREDLL.dll
 0001:000bccd8       GetDoubleClickTime         100bdcd8 f   coredll:COREDLL.dll
 0001:000bcce8       GetSystemMetrics           100bdce8 f   coredll:COREDLL.dll
 0001:000bccf8       GetUserDefaultLCID         100bdcf8 f   coredll:COREDLL.dll
 0001:000bcd08       GetOutlineTextMetricsW     100bdd08 f   coredll:COREDLL.dll
 0001:000bcd18       TranslateCharsetInfo       100bdd18 f   coredll:COREDLL.dll
 0001:000bcd28       GetFontData                100bdd28 f   coredll:COREDLL.dll
 0001:000bcd38       HeapAlloc                  100bdd38 f   coredll:COREDLL.dll
 0001:000bcd48       HeapCreate                 100bdd48 f   coredll:COREDLL.dll
 0001:000bcd58       HeapReAlloc                100bdd58 f   coredll:COREDLL.dll
 0001:000bcd68       HeapFree                   100bdd68 f   coredll:COREDLL.dll
 0001:000bcd78       StringCchCopyA             100bdd78 f   coredll:COREDLL.dll
 0001:000bcd88       FreeLibrary                100bdd88 f   coredll:COREDLL.dll
 0001:000bcd98       StretchBlt                 100bdd98 f   coredll:COREDLL.dll
 0001:000bcda8       Polyline                   100bdda8 f   coredll:COREDLL.dll
 0001:000bcdb8       PatBlt                     100bddb8 f   coredll:COREDLL.dll
 0001:000bcdc8       CreateSolidBrush           100bddc8 f   coredll:COREDLL.dll
 0001:000bcdd8       SetTextColor               100bddd8 f   coredll:COREDLL.dll
 0001:000bcde8       GetBkColor                 100bdde8 f   coredll:COREDLL.dll
 0001:000bcdf8       SetBkColor                 100bddf8 f   coredll:COREDLL.dll
 0001:000bce08       SetBkMode                  100bde08 f   coredll:COREDLL.dll
 0001:000bce18       CreatePen                  100bde18 f   coredll:COREDLL.dll
 0001:000bce28       GetCurrentObject           100bde28 f   coredll:COREDLL.dll
 0001:000bce38       GetLastError               100bde38 f   coredll:COREDLL.dll
 0001:000bce48       ReadFile                   100bde48 f   coredll:COREDLL.dll
 0001:000bce58       WriteFile                  100bde58 f   coredll:COREDLL.dll
 0001:000bce68       CloseHandle                100bde68 f   coredll:COREDLL.dll
 0001:000bce78       SetFilePointer             100bde78 f   coredll:COREDLL.dll
 0001:000bce88       CreateBitmap               100bde88 f   coredll:COREDLL.dll
 0001:000bce98       GetPixel                   100bde98 f   coredll:COREDLL.dll
 0001:000bcea8       GetCapture                 100bdea8 f   coredll:COREDLL.dll
 0001:000bceb8       ActivateKeyboardLayout     100bdeb8 f   coredll:COREDLL.dll
 0001:000bcec8       IsClipboardFormatAvailable 100bdec8 f   coredll:COREDLL.dll
 0001:000bced8       SetClipboardData           100bded8 f   coredll:COREDLL.dll
 0001:000bcee8       CloseClipboard             100bdee8 f   coredll:COREDLL.dll
 0001:000bcef8       EmptyClipboard             100bdef8 f   coredll:COREDLL.dll
 0001:000bcf08       OpenClipboard              100bdf08 f   coredll:COREDLL.dll
 0001:000bcf18       GetClipboardOwner          100bdf18 f   coredll:COREDLL.dll
 0001:000bcf28       GetClipboardData           100bdf28 f   coredll:COREDLL.dll
 0001:000bcf38       Rectangle                  100bdf38 f   coredll:COREDLL.dll
 0001:000bcf48       SetROP2                    100bdf48 f   coredll:COREDLL.dll
 0001:000bcf58       CopyRect                   100bdf58 f   coredll:COREDLL.dll
 0001:000bcf68       CreateDIBSection           100bdf68 f   coredll:COREDLL.dll
 0001:000bcf78       OffsetRect                 100bdf78 f   coredll:COREDLL.dll
 0001:000bcf88       GetMessagePos              100bdf88 f   coredll:COREDLL.dll
 0001:000bcf98       Sleep                      100bdf98 f   coredll:COREDLL.dll
 0001:000bcfa8       RegisterClipboardFormatW   100bdfa8 f   coredll:COREDLL.dll
 0001:000bcfb8       CreatePatternBrush         100bdfb8 f   coredll:COREDLL.dll
 0001:000bcfc8       __GetUserKData             100bdfc8 f   coredll:COREDLL.dll
 0001:000bcfd8       GetCaretPos                100bdfd8 f   coredll:COREDLL.dll
 0001:000bcfe8       __GSHandlerCheckCommon     100bdfe8 f   corelib0:gshandler.obj
 0001:000bd024       __GSHandlerCheck           100be024 f   corelib0:gshandler.obj
 0001:000bd044       __security_check_cookie    100be044 f   corelib0:armsecgs.obj
 0001:000bd054       __gsfailure                100be054     corelib0:armsecgs.obj
 0001:000bd098       memmove                    100be098 f   corelib1:COREDLL.dll
 0001:000bd0a8       memset                     100be0a8 f   corelib1:COREDLL.dll
 0001:000bd0b8       strlen                     100be0b8 f   corelib1:COREDLL.dll
 0001:000bd0c8       memcpy                     100be0c8 f   corelib1:COREDLL.dll
 0001:000bd0d8       memcmp                     100be0d8 f   corelib1:COREDLL.dll
 0001:000bd0e8       __report_gsfailure         100be0e8 f   corelib1:COREDLL.dll
 0001:000bd280       __IMPORT_DESCRIPTOR_OLEAUT32 100be280     oleaut32:OLEAUT32.dll
 0001:000bd294       __IMPORT_DESCRIPTOR_COREDLL 100be294     coredll:COREDLL.dll
 0001:000bd2a8       __NULL_IMPORT_DESCRIPTOR   100be2a8     oleaut32:OLEAUT32.dll
 0002:00000000       __imp_ImmIsIME             100bf000     coredll:COREDLL.dll
 0002:00000004       __imp___rt_udiv            100bf004     corelib1:COREDLL.dll
 0002:00000008       __imp___rt_sdiv64by64      100bf008     corelib1:COREDLL.dll
 0002:0000000c       __imp___rt_sdiv            100bf00c     corelib1:COREDLL.dll
 0002:00000010       __imp_EnterCriticalSection 100bf010     coredll:COREDLL.dll
 0002:00000014       __imp_LeaveCriticalSection 100bf014     coredll:COREDLL.dll
 0002:00000018       __imp_InitializeCriticalSection 100bf018     coredll:COREDLL.dll
 0002:0000001c       __imp_DeleteCriticalSection 100bf01c     coredll:COREDLL.dll
 0002:00000020       __imp_HeapDestroy          100bf020     coredll:COREDLL.dll
 0002:00000024       __imp_PtInRect             100bf024     coredll:COREDLL.dll
 0002:00000028       __imp_GetSystemDefaultLangID 100bf028     coredll:COREDLL.dll
 0002:0000002c       __imp_WaitForAPIReady      100bf02c     coredll:COREDLL.dll
 0002:00000030       __imp_GetDeviceCaps        100bf030     coredll:COREDLL.dll
 0002:00000034       __imp_DeleteDC             100bf034     coredll:COREDLL.dll
 0002:00000038       __imp_StretchDIBits        100bf038     coredll:COREDLL.dll
 0002:0000003c       __imp_ReleaseDC            100bf03c     coredll:COREDLL.dll
 0002:00000040       __imp_GetDC                100bf040     coredll:COREDLL.dll
 0002:00000044       __imp_IsBadWritePtr        100bf044     coredll:COREDLL.dll
 0002:00000048       __imp_GetScrollInfo        100bf048     coredll:COREDLL.dll
 0002:0000004c       __imp_GetKeyState          100bf04c     coredll:COREDLL.dll
 0002:00000050       __imp_SystemParametersInfoW 100bf050     coredll:COREDLL.dll
 0002:00000054       __imp_RestoreDC            100bf054     coredll:COREDLL.dll
 0002:00000058       __imp_IntersectClipRect    100bf058     coredll:COREDLL.dll
 0002:0000005c       __imp_SaveDC               100bf05c     coredll:COREDLL.dll
 0002:00000060       __imp_IsBadReadPtr         100bf060     coredll:COREDLL.dll
 0002:00000064       __imp_MessageBeep          100bf064     coredll:COREDLL.dll
 0002:00000068       __imp_SetCursor            100bf068     coredll:COREDLL.dll
 0002:0000006c       __imp_LocalAlloc           100bf06c     coredll:COREDLL.dll
 0002:00000070       __imp_GetObjectW           100bf070     coredll:COREDLL.dll
 0002:00000074       __imp_DestroyMenu          100bf074     coredll:COREDLL.dll
 0002:00000078       __imp_TrackPopupMenuEx     100bf078     coredll:COREDLL.dll
 0002:0000007c       __imp_GetParent            100bf07c     coredll:COREDLL.dll
 0002:00000080       __imp_ClientToScreen       100bf080     coredll:COREDLL.dll
 0002:00000084       __imp_GetCursorPos         100bf084     coredll:COREDLL.dll
 0002:00000088       __imp_LocalFree            100bf088     coredll:COREDLL.dll
 0002:0000008c       __imp_WideCharToMultiByte  100bf08c     coredll:COREDLL.dll
 0002:00000090       __imp_GetTickCount         100bf090     coredll:COREDLL.dll
 0002:00000094       __imp_GetAsyncKeyState     100bf094     coredll:COREDLL.dll
 0002:00000098       __imp_SetFocus             100bf098     coredll:COREDLL.dll
 0002:0000009c       __imp_DestroyCaret         100bf09c     coredll:COREDLL.dll
 0002:000000a0       __imp_IsBadCodePtr         100bf0a0     coredll:COREDLL.dll
 0002:000000a4       __imp_InflateRect          100bf0a4     coredll:COREDLL.dll
 0002:000000a8       __imp_IntersectRect        100bf0a8     coredll:COREDLL.dll
 0002:000000ac       __imp_GetFocus             100bf0ac     coredll:COREDLL.dll
 0002:000000b0       __imp_GetDlgItem           100bf0b0     coredll:COREDLL.dll
 0002:000000b4       __imp_GetSysColor          100bf0b4     coredll:COREDLL.dll
 0002:000000b8       __imp_InvalidateRect       100bf0b8     coredll:COREDLL.dll
 0002:000000bc       __imp_MapWindowPoints      100bf0bc     coredll:COREDLL.dll
 0002:000000c0       __imp_GetWindowRect        100bf0c0     coredll:COREDLL.dll
 0002:000000c4       __imp_IsWindowVisible      100bf0c4     coredll:COREDLL.dll
 0002:000000c8       __imp_SetScrollRange       100bf0c8     coredll:COREDLL.dll
 0002:000000cc       __imp_SetScrollPos         100bf0cc     coredll:COREDLL.dll
 0002:000000d0       __imp_UpdateWindow         100bf0d0     coredll:COREDLL.dll
 0002:000000d4       __imp_CreateCaret          100bf0d4     coredll:COREDLL.dll
 0002:000000d8       __imp_HideCaret            100bf0d8     coredll:COREDLL.dll
 0002:000000dc       __imp_ShowCaret            100bf0dc     coredll:COREDLL.dll
 0002:000000e0       __imp_SetCaretPos          100bf0e0     coredll:COREDLL.dll
 0002:000000e4       __imp_SetTimer             100bf0e4     coredll:COREDLL.dll
 0002:000000e8       __imp_KillTimer            100bf0e8     coredll:COREDLL.dll
 0002:000000ec       __imp_ScrollWindowEx       100bf0ec     coredll:COREDLL.dll
 0002:000000f0       __imp_ReleaseCapture       100bf0f0     coredll:COREDLL.dll
 0002:000000f4       __imp_SetCapture           100bf0f4     coredll:COREDLL.dll
 0002:000000f8       __imp_ScreenToClient       100bf0f8     coredll:COREDLL.dll
 0002:000000fc       __imp_GetClientRect        100bf0fc     coredll:COREDLL.dll
 0002:00000100       __imp_SetForegroundWindow  100bf100     coredll:COREDLL.dll
 0002:00000104       __imp_SetScrollInfo        100bf104     coredll:COREDLL.dll
 0002:00000108       __imp_GetBkMode            100bf108     coredll:COREDLL.dll
 0002:0000010c       __imp_ValidateRect         100bf10c     coredll:COREDLL.dll
 0002:00000110       __imp_EndPaint             100bf110     coredll:COREDLL.dll
 0002:00000114       __imp_BeginPaint           100bf114     coredll:COREDLL.dll
 0002:00000118       __imp_RegisterClassW       100bf118     coredll:COREDLL.dll
 0002:0000011c       __imp_DeleteObject         100bf11c     coredll:COREDLL.dll
 0002:00000120       __imp_FillRect             100bf120     coredll:COREDLL.dll
 0002:00000124       __imp_GetStockObject       100bf124     coredll:COREDLL.dll
 0002:00000128       __imp_BitBlt               100bf128     coredll:COREDLL.dll
 0002:0000012c       __imp_SelectObject         100bf12c     coredll:COREDLL.dll
 0002:00000130       __imp_CreateCompatibleBitmap 100bf130     coredll:COREDLL.dll
 0002:00000134       __imp_CreateCompatibleDC   100bf134     coredll:COREDLL.dll
 0002:00000138       __imp_wvsprintfW           100bf138     coredll:COREDLL.dll
 0002:0000013c       __imp_ImmGetCompositionStringW 100bf13c     coredll:COREDLL.dll
 0002:00000140       __imp_ImmGetContext        100bf140     coredll:COREDLL.dll
 0002:00000144       __imp_ImmSetCompositionFontW 100bf144     coredll:COREDLL.dll
 0002:00000148       __imp_ImmSetCompositionWindow 100bf148     coredll:COREDLL.dll
 0002:0000014c       __imp_ImmReleaseContext    100bf14c     coredll:COREDLL.dll
 0002:00000150       __imp_ImmGetProperty       100bf150     coredll:COREDLL.dll
 0002:00000154       __imp_ImmGetCandidateWindow 100bf154     coredll:COREDLL.dll
 0002:00000158       __imp_ImmSetCandidateWindow 100bf158     coredll:COREDLL.dll
 0002:0000015c       __imp_ImmNotifyIME         100bf15c     coredll:COREDLL.dll
 0002:00000160       __imp_ImmAssociateContext  100bf160     coredll:COREDLL.dll
 0002:00000164       __imp_ImmEscapeW           100bf164     coredll:COREDLL.dll
 0002:00000168       __imp_ImmGetOpenStatus     100bf168     coredll:COREDLL.dll
 0002:0000016c       __imp_ImmSetOpenStatus     100bf16c     coredll:COREDLL.dll
 0002:00000170       __imp_ImmGetConversionStatus 100bf170     coredll:COREDLL.dll
 0002:00000174       __imp_ImmSetConversionStatus 100bf174     coredll:COREDLL.dll
 0002:00000178       __imp_ImmGetDefaultIMEWnd  100bf178     coredll:COREDLL.dll
 0002:0000017c       __imp_ImmSetCompositionStringW 100bf17c     coredll:COREDLL.dll
 0002:00000180       __imp___report_gsfailure   100bf180     corelib1:COREDLL.dll
 0002:00000184       __imp_GetVersionExW        100bf184     coredll:COREDLL.dll
 0002:00000188       __imp_GetStringTypeExW     100bf188     coredll:COREDLL.dll
 0002:0000018c       __imp_CharLowerBuffW       100bf18c     coredll:COREDLL.dll
 0002:00000190       __imp_CharUpperBuffW       100bf190     coredll:COREDLL.dll
 0002:00000194       __imp_CreateDCW            100bf194     coredll:COREDLL.dll
 0002:00000198       __imp_CreateFileW          100bf198     coredll:COREDLL.dll
 0002:0000019c       __imp_CreateFontIndirectW  100bf19c     coredll:COREDLL.dll
 0002:000001a0       __imp_CompareStringW       100bf1a0     coredll:COREDLL.dll
 0002:000001a4       __imp_DefWindowProcW       100bf1a4     coredll:COREDLL.dll
 0002:000001a8       __imp_GetTextFaceW         100bf1a8     coredll:COREDLL.dll
 0002:000001ac       __imp_GetTextMetricsW      100bf1ac     coredll:COREDLL.dll
 0002:000001b0       __imp_GetWindowLongW       100bf1b0     coredll:COREDLL.dll
 0002:000001b4       __imp_LoadBitmapW          100bf1b4     coredll:COREDLL.dll
 0002:000001b8       __imp_LoadLibraryW         100bf1b8     coredll:COREDLL.dll
 0002:000001bc       __imp_SendMessageW         100bf1bc     coredll:COREDLL.dll
 0002:000001c0       __imp_SetWindowLongW       100bf1c0     coredll:COREDLL.dll
 0002:000001c4       __imp_PostMessageW         100bf1c4     coredll:COREDLL.dll
 0002:000001c8       __imp_UnregisterClassW     100bf1c8     coredll:COREDLL.dll
 0002:000001cc       __imp_lstrcmpiW            100bf1cc     coredll:COREDLL.dll
 0002:000001d0       __imp_PeekMessageW         100bf1d0     coredll:COREDLL.dll
 0002:000001d4       __imp_ExtTextOutW          100bf1d4     coredll:COREDLL.dll
 0002:000001d8       __imp_LocalReAlloc         100bf1d8     coredll:COREDLL.dll
 0002:000001dc       __imp_LocalSize            100bf1dc     coredll:COREDLL.dll
 0002:000001e0       __imp_RegisterWindowMessageW 100bf1e0     coredll:COREDLL.dll
 0002:000001e4       __imp_GetACP               100bf1e4     coredll:COREDLL.dll
 0002:000001e8       __imp_GetSystemDefaultLCID 100bf1e8     coredll:COREDLL.dll
 0002:000001ec       __imp_IsValidCodePage      100bf1ec     coredll:COREDLL.dll
 0002:000001f0       __imp_MultiByteToWideChar  100bf1f0     coredll:COREDLL.dll
 0002:000001f4       __imp_GetProcAddressW      100bf1f4     coredll:COREDLL.dll
 0002:000001f8       __imp_GetModuleHandleW     100bf1f8     coredll:COREDLL.dll
 0002:000001fc       __imp_GetKeyboardLayout    100bf1fc     coredll:COREDLL.dll
 0002:00000200       __imp_GetLocaleInfoW       100bf200     coredll:COREDLL.dll
 0002:00000204       __imp_StringCbCopyW        100bf204     coredll:COREDLL.dll
 0002:00000208       __imp_GetTextExtentExPointW 100bf208     coredll:COREDLL.dll
 0002:0000020c       __imp_RegCloseKey          100bf20c     coredll:COREDLL.dll
 0002:00000210       __imp_RegQueryValueExW     100bf210     coredll:COREDLL.dll
 0002:00000214       __imp_RegOpenKeyExW        100bf214     coredll:COREDLL.dll
 0002:00000218       __imp_GetDoubleClickTime   100bf218     coredll:COREDLL.dll
 0002:0000021c       __imp_GetSystemMetrics     100bf21c     coredll:COREDLL.dll
 0002:00000220       __imp_GetUserDefaultLCID   100bf220     coredll:COREDLL.dll
 0002:00000224       __imp_GetOutlineTextMetricsW 100bf224     coredll:COREDLL.dll
 0002:00000228       __imp_TranslateCharsetInfo 100bf228     coredll:COREDLL.dll
 0002:0000022c       __imp_GetFontData          100bf22c     coredll:COREDLL.dll
 0002:00000230       __imp_HeapAlloc            100bf230     coredll:COREDLL.dll
 0002:00000234       __imp_HeapCreate           100bf234     coredll:COREDLL.dll
 0002:00000238       __imp_HeapReAlloc          100bf238     coredll:COREDLL.dll
 0002:0000023c       __imp_HeapFree             100bf23c     coredll:COREDLL.dll
 0002:00000240       __imp_StringCchCopyA       100bf240     coredll:COREDLL.dll
 0002:00000244       __imp_FreeLibrary          100bf244     coredll:COREDLL.dll
 0002:00000248       __imp_StretchBlt           100bf248     coredll:COREDLL.dll
 0002:0000024c       __imp_Polyline             100bf24c     coredll:COREDLL.dll
 0002:00000250       __imp_PatBlt               100bf250     coredll:COREDLL.dll
 0002:00000254       __imp_CreateSolidBrush     100bf254     coredll:COREDLL.dll
 0002:00000258       __imp_SetTextColor         100bf258     coredll:COREDLL.dll
 0002:0000025c       __imp_GetBkColor           100bf25c     coredll:COREDLL.dll
 0002:00000260       __imp_SetBkColor           100bf260     coredll:COREDLL.dll
 0002:00000264       __imp_SetBkMode            100bf264     coredll:COREDLL.dll
 0002:00000268       __imp_CreatePen            100bf268     coredll:COREDLL.dll
 0002:0000026c       __imp_GetCurrentObject     100bf26c     coredll:COREDLL.dll
 0002:00000270       __imp_GetLastError         100bf270     coredll:COREDLL.dll
 0002:00000274       __imp_ReadFile             100bf274     coredll:COREDLL.dll
 0002:00000278       __imp_WriteFile            100bf278     coredll:COREDLL.dll
 0002:0000027c       __imp_CloseHandle          100bf27c     coredll:COREDLL.dll
 0002:00000280       __imp_SetFilePointer       100bf280     coredll:COREDLL.dll
 0002:00000284       __imp_CreateBitmap         100bf284     coredll:COREDLL.dll
 0002:00000288       __imp_GetPixel             100bf288     coredll:COREDLL.dll
 0002:0000028c       __imp_GetCapture           100bf28c     coredll:COREDLL.dll
 0002:00000290       __imp_ActivateKeyboardLayout 100bf290     coredll:COREDLL.dll
 0002:00000294       __imp_IsClipboardFormatAvailable 100bf294     coredll:COREDLL.dll
 0002:00000298       __imp_SetClipboardData     100bf298     coredll:COREDLL.dll
 0002:0000029c       __imp_CloseClipboard       100bf29c     coredll:COREDLL.dll
 0002:000002a0       __imp_EmptyClipboard       100bf2a0     coredll:COREDLL.dll
 0002:000002a4       __imp_OpenClipboard        100bf2a4     coredll:COREDLL.dll
 0002:000002a8       __imp_GetClipboardOwner    100bf2a8     coredll:COREDLL.dll
 0002:000002ac       __imp_GetClipboardData     100bf2ac     coredll:COREDLL.dll
 0002:000002b0       __imp_Rectangle            100bf2b0     coredll:COREDLL.dll
 0002:000002b4       __imp_SetROP2              100bf2b4     coredll:COREDLL.dll
 0002:000002b8       __imp_CopyRect             100bf2b8     coredll:COREDLL.dll
 0002:000002bc       __imp_CreateDIBSection     100bf2bc     coredll:COREDLL.dll
 0002:000002c0       __imp_OffsetRect           100bf2c0     coredll:COREDLL.dll
 0002:000002c4       __imp_GetMessagePos        100bf2c4     coredll:COREDLL.dll
 0002:000002c8       __imp_Sleep                100bf2c8     coredll:COREDLL.dll
 0002:000002cc       __imp_RegisterClipboardFormatW 100bf2cc     coredll:COREDLL.dll
 0002:000002d0       __imp_CreatePatternBrush   100bf2d0     coredll:COREDLL.dll
 0002:000002d4       __imp___GetUserKData       100bf2d4     coredll:COREDLL.dll
 0002:000002d8       __imp_GetCaretPos          100bf2d8     coredll:COREDLL.dll
 0002:000002dc       __imp_memmove              100bf2dc     corelib1:COREDLL.dll
 0002:000002e0       __imp_memset               100bf2e0     corelib1:COREDLL.dll
 0002:000002e4       __imp_strlen               100bf2e4     corelib1:COREDLL.dll
 0002:000002e8       __imp_memcpy               100bf2e8     corelib1:COREDLL.dll
 0002:000002ec       __imp_memcmp               100bf2ec     corelib1:COREDLL.dll
 0002:000002f0       \177COREDLL_NULL_THUNK_DATA 100bf2f0     coredll:COREDLL.dll
 0002:000002f4       __imp_SysStringLen         100bf2f4     oleaut32:OLEAUT32.dll
 0002:000002f8       __imp_SysFreeString        100bf2f8     oleaut32:OLEAUT32.dll
 0002:000002fc       __imp_SysAllocStringLen    100bf2fc     oleaut32:OLEAUT32.dll
 0002:00000300       __imp_SysAllocString       100bf300     oleaut32:OLEAUT32.dll
 0002:00000304       \177OLEAUT32_NULL_THUNK_DATA 100bf304     oleaut32:OLEAUT32.dll
 0002:00000308       _fltused                   100bf308     riched60:w32sys.obj
 0002:0000030c       ?_pfnGetLayout@CW32System@@2P6AKPAUHDC__@@@ZA 100bf30c     riched60:w32sys.obj
 0002:00000310       ?_pfnSetLayout@CW32System@@2P6AKPAUHDC__@@K@ZA 100bf310     riched60:w32sys.obj
 0002:00000324       ?szArial@@3PBGB            100bf324     riched60:font.obj
 0002:00000328       ?szArialUnicode@@3PBGB     100bf328     riched60:font.obj
 0002:0000032c       ?szCourierNew@@3PBGB       100bf32c     riched60:font.obj
 0002:00000330       ?szSymbol@@3PBGB           100bf330     riched60:font.obj
 0002:00000334       ?szSystem@@3PBGB           100bf334     riched60:font.obj
 0002:00000338       ?szTahoma@@3PBGB           100bf338     riched60:font.obj
 0002:0000033c       ?szTimesNewRoman@@3PBGB    100bf33c     riched60:font.obj
 0002:0000035c       ?g_cMaxScript@@3HA         100bf35c     riched60:uspi.obj
 0002:00000368       ?charCategories@@3PAPBGA   100bf368     riched60:clasifyc.obj
 0002:000003ac       ?szUTF8BOM@@3PAEA          100bf3ac     riched60:tomdoc.obj
 0002:000003b8       ?cKeywords@@3HA            100bf3b8     riched60:rtflex.obj
 0002:000003bc       ?cShapeKeywords@@3HA       100bf3bc     riched60:rtflex.obj
 0002:000003c0       ?rgszUnrecognizedRTF@@3PAPBDA 100bf3c0     riched60:rtflex.obj
 0002:0000040c       ?crgszUnrecognizedRTF@@3HA 100bf40c     riched60:rtflex.obj
 0002:00000410       ?g_rgFETC@@3PAUtagFORMATETC@@A 100bf410     riched60:dxfrobj.obj
 0002:000005e0       ?szRowEnd@@3PAGA           100bf5e0     riched60:rtfread.obj
 0002:000005e8       ?szRowStart@@3PAGA         100bf5e8     riched60:rtfread.obj
 0002:000005f0       ?pchSeparateField@@3PAGA   100bf5f0     riched60:rtfread.obj
 0002:000005f4       ?pchStartField@@3PAGA      100bf5f4     riched60:rtfread.obj
 0002:000005f8       ?pchStartRuby@@3PAGA       100bf5f8     riched60:rtfread.obj
 0002:000005fc       ?pchEndILOArg@@3PAGA       100bf5fc     riched60:rtfread.obj
 0002:00000600       ?pchEndILO@@3PAGA          100bf600     riched60:rtfread.obj
 0002:00000618       __security_cookie          100bf618     corelib0:seccinit.obj
 0002:0000061c       __security_cookie_complement 100bf61c     corelib0:seccinit.obj
 0002:00000620       ?g_CriticalSectionIdealHDC@@3UCRITICAL_SECTION@@A 100bf620     riched60:reinit.obj
 0002:00000634       ?g_CriticalSectionPTS@@3UCRITICAL_SECTION@@A 100bf634     riched60:reinit.obj
 0002:00000648       ?g_CriticalSection@@3UCRITICAL_SECTION@@A 100bf648     riched60:reinit.obj
 0002:00000674       ?hinstRE@@3PAUHINSTANCE__@@A 100bf674     riched60:reinit.obj
 0002:00000678       ?g_fNoUniscribe@@3HA       100bf678     riched60:reinit.obj
 0002:0000067c       ?g_fNoMSLS@@3HA            100bf67c     riched60:reinit.obj
 0002:00000688       ?_upBorder@CTxtEdit@@2FA   100bf688     riched60:edit.obj
 0002:0000068a       ?_fUndoOnce@CTxtEdit@@2EA  100bf68a     riched60:edit.obj
 0002:0000068b       ?_iBorder@CTxtEdit@@2EA    100bf68b     riched60:edit.obj
 0002:0000068c       ?_ptDblClick@CTxtEdit@@2UtagPOINT@@A 100bf68c     riched60:edit.obj
 0002:00000694       ?_dvlRow@CTxtEdit@@2JA     100bf694     riched60:edit.obj
 0002:00000698       ?g_phc@@3PAVCHyphCache@@A  100bf698     riched60:edit.obj
 0002:0000069c       ?_dwTickDblClick@CTxtEdit@@2KA 100bf69c     riched60:edit.obj
 0002:000006a0       ?_cpHit@CTxtEdit@@2JA      100bf6a0     riched60:edit.obj
 0002:000006a4       ?_hcurArrow@CTxtEdit@@2PAUHICON__@@A 100bf6a4     riched60:edit.obj
 0002:000006a8       ?_hcurHand@CTxtEdit@@2PAUHICON__@@A 100bf6a8     riched60:edit.obj
 0002:000006ac       ?_hcurIBeam@CTxtEdit@@2PAUHICON__@@A 100bf6ac     riched60:edit.obj
 0002:000006b0       ?_hcurItalic@CTxtEdit@@2PAUHICON__@@A 100bf6b0     riched60:edit.obj
 0002:000006b4       ?_hcurSelBar@CTxtEdit@@2PAUHICON__@@A 100bf6b4     riched60:edit.obj
 0002:000006b8       ?_hcurVIBeam@CTxtEdit@@2PAUHICON__@@A 100bf6b8     riched60:edit.obj
 0002:000006bc       ?_hcurVItalic@CTxtEdit@@2PAUHICON__@@A 100bf6bc     riched60:edit.obj
 0002:000006c0       ?_hcurVSplit@CTxtEdit@@2PAUHICON__@@A 100bf6c0     riched60:edit.obj
 0002:000006c4       ?_hcurHSplit@CTxtEdit@@2PAUHICON__@@A 100bf6c4     riched60:edit.obj
 0002:000006c8       ?g_wFlags@@3GA             100bf6c8     riched60:edit.obj
 0002:000006d0       ?g_defaultPF@@3VCParaFormat@@A 100bf6d0     riched60:edit.obj
 0002:00000718       ?g_defaultCF@@3VCCharFormat@@A 100bf718     riched60:edit.obj
 0002:00000758       ?g_defaultLi@@3UCLine@@A   100bf758     riched60:edit.obj
 0002:0000078c       ?g_phostdel@@3PAVCTxtWinHost@@A 100bf78c     riched60:host.obj
 0002:00000790       ?_DCT@CW32System@@0HA      100bf790     riched60:w32sys.obj
 0002:00000794       ?_hdcScreenDC@CW32System@@0PAUHDC__@@A 100bf794     riched60:w32sys.obj
 0002:00000798       ?_fUsePalette@CW32System@@0EA 100bf798     riched60:w32sys.obj
 0002:00000799       ?_fLRMorRLM@CW32System@@2EA 100bf799     riched60:w32sys.obj
 0002:0000079a       ?_fCheckExe@CW32System@@2EA 100bf79a     riched60:w32sys.obj
 0002:0000079b       ?_bCharSetSys@CW32System@@0EA 100bf79b     riched60:w32sys.obj
 0002:0000079c       ?_ACP@CW32System@@0IA      100bf79c     riched60:w32sys.obj
 0002:000007a0       ?_dwNumKeyPad@CW32System@@0KA 100bf7a0     riched60:w32sys.obj
 0002:000007a4       ?_hcurSizeNESW@CW32System@@0PAUHICON__@@A 100bf7a4     riched60:w32sys.obj
 0002:000007a8       ?_dwMinorVersion@CW32System@@2KA 100bf7a8     riched60:w32sys.obj
 0002:000007ac       ?_nScrollInset@CW32System@@0GA 100bf7ac     riched60:w32sys.obj
 0002:000007ae       ?_fHaveAIMM@CW32System@@2EA 100bf7ae     riched60:w32sys.obj
 0002:000007af       ?_bRegisteredClasses@CW32System@@2EA 100bf7af     riched60:w32sys.obj
 0002:000007b0       ?_MSIMEReconvertMsg@CW32System@@2IA 100bf7b0     riched60:w32sys.obj
 0002:000007b4       ?_hklCurrent@CW32System@@0PAUHKL__@@A 100bf7b4     riched60:w32sys.obj
 0002:000007b8       ?_nScrollVAmount@CW32System@@0GA 100bf7b8     riched60:w32sys.obj
 0002:000007ba       ?_fRightHanded@CW32System@@0EA 100bf7ba     riched60:w32sys.obj
 0002:000007bb       ?_fHaveIMMEShare@CW32System@@2EA 100bf7bb     riched60:w32sys.obj
 0002:000007bc       ?_nDragDelay@CW32System@@0GA 100bf7bc     riched60:w32sys.obj
 0002:000007be       ?_fLoadAIMM10@CW32System@@2EA 100bf7be     riched60:w32sys.obj
 0002:000007bf       ?_fClearTypeIsOn@CW32System@@2EA 100bf7bf     riched60:w32sys.obj
 0002:000007c0       ?_MSMouseRoller@CW32System@@2IA 100bf7c0     riched60:w32sys.obj
 0002:000007c4       ?_dwNationalDigitLanguage@CW32System@@0KA 100bf7c4     riched60:w32sys.obj
 0002:000007c8       ?_nScrollHAmount@CW32System@@0GA 100bf7c8     riched60:w32sys.obj
 0002:000007ca       ?_fUsingMSOStyle@CW32System@@2EA 100bf7ca     riched60:w32sys.obj
 0002:000007cb       ?_fSkipObjectData@CW32System@@2EA 100bf7cb     riched60:w32sys.obj
 0002:000007cc       ?_cpMostURL@CW32System@@2JA 100bf7cc     riched60:w32sys.obj
 0002:000007d0       ?_syslcid@CW32System@@0KA  100bf7d0     riched60:w32sys.obj
 0002:000007d4       ?_cRefs@CW32System@@0JA    100bf7d4     riched60:w32sys.obj
 0002:000007d8       ?_hwndTT@CW32System@@2PAUHWND__@@A 100bf7d8     riched60:w32sys.obj
 0002:000007dc       ?_ySysFontLeading@CW32System@@0HA 100bf7dc     riched60:w32sys.obj
 0002:000007e0       ?_wDeadKey@CW32System@@0GA 100bf7e0     riched60:w32sys.obj
 0002:000007e2       ?_dupCaret@CW32System@@2EA 100bf7e2     riched60:w32sys.obj
 0002:000007e3       ?_fSysParamsOk@CW32System@@0EA 100bf7e3     riched60:w32sys.obj
 0002:000007e4       ?_MSIMEMouseMsg@CW32System@@2IA 100bf7e4     riched60:w32sys.obj
 0002:000007e8       ?_hcurSizeNS@CW32System@@0PAUHICON__@@A 100bf7e8     riched60:w32sys.obj
 0002:000007ec       ?_arTmpDisplayAttrib@CW32System@@2PAVCTmpDisplayAttrArray@@A 100bf7ec     riched60:w32sys.obj
 0002:000007f0       ?_MSIMEDocFeedMsg@CW32System@@2IA 100bf7f0     riched60:w32sys.obj
 0002:000007f4       ?_hDefaultFont@CW32System@@0PAUHFONT__@@A 100bf7f4     riched60:w32sys.obj
 0002:000007f8       ?_cxBorder@CW32System@@0HA 100bf7f8     riched60:w32sys.obj
 0002:000007fc       ?_nDragMinDist@CW32System@@0GA 100bf7fc     riched60:w32sys.obj
 0002:000007fe       ?_fHaveIMMProcs@CW32System@@2EA 100bf7fe     riched60:w32sys.obj
 0002:000007ff       ?_bDigitSubstMode@CW32System@@0EA 100bf7ff     riched60:w32sys.obj
 0002:00000800       ?_yPerInchScreenDC@CW32System@@0JA 100bf800     riched60:w32sys.obj
 0002:00000804       ?_MSIMEReconvertRequestMsg@CW32System@@2IA 100bf804     riched60:w32sys.obj
 0002:00000808       ?_xPerInchScreenDC@CW32System@@0JA 100bf808     riched60:w32sys.obj
 0002:0000080c       ?_hdcScreenIC@CW32System@@0PAUHDC__@@A 100bf80c     riched60:w32sys.obj
 0002:00000810       ?_cyHScroll@CW32System@@0HA 100bf810     riched60:w32sys.obj
 0002:00000814       ?_dupSystemFont@CW32System@@0HA 100bf814     riched60:w32sys.obj
 0002:00000818       ?g_pcto@@3PAUICustomTextOut@@A 100bf818     riched60:w32sys.obj
 0002:0000081c       ?_dxSelBar@CW32System@@0JA 100bf81c     riched60:w32sys.obj
 0002:00000820       ?_sysiniflags@CW32System@@0HA 100bf820     riched60:w32sys.obj
 0002:00000824       ?_wFEFontInfo@CW32System@@2GA 100bf824     riched60:w32sys.obj
 0002:00000828       ?_pIMEShare@CW32System@@2PAVCIMEShare@@A 100bf828     riched60:w32sys.obj
 0002:0000082c       ?_hcurSizeNWSE@CW32System@@0PAUHICON__@@A 100bf82c     riched60:w32sys.obj
 0002:00000830       ?_dwMajorVersion@CW32System@@2KA 100bf830     riched60:w32sys.obj
 0002:00000834       ?_cyDoubleClk@CW32System@@0HA 100bf834     riched60:w32sys.obj
 0002:00000838       ?_MSIMEServiceMsg@CW32System@@2IA 100bf838     riched60:w32sys.obj
 0002:0000083c       ?_cxVScroll@CW32System@@0HA 100bf83c     riched60:w32sys.obj
 0002:00000840       ?_cxDoubleClk@CW32System@@0HA 100bf840     riched60:w32sys.obj
 0002:00000844       ?_dvpSystemFont@CW32System@@0HA 100bf844     riched60:w32sys.obj
 0002:00000848       ?W32@@3PAVCW32System@@A    100bf848     riched60:w32sys.obj
 0002:0000084c       ?_MSIMEQueryPositionMsg@CW32System@@2IA 100bf84c     riched60:w32sys.obj
 0002:00000850       ?_hSystemFont@CW32System@@0PAUHFONT__@@A 100bf850     riched60:w32sys.obj
 0002:00000854       ?_dwPlatformId@CW32System@@0KA 100bf854     riched60:w32sys.obj
 0002:00000858       ?_nScrollDelay@CW32System@@0GA 100bf858     riched60:w32sys.obj
 0002:0000085c       ?g_dwFlagsCTO@@3KA         100bf85c     riched60:w32sys.obj
 0002:00000860       ?_cyBorder@CW32System@@0HA 100bf860     riched60:w32sys.obj
 0002:00000864       ?_hcurSizeWE@CW32System@@0PAUHICON__@@A 100bf864     riched60:w32sys.obj
 0002:00000868       ?_hkl@CW32System@@0PAPAUHKL__@@A 100bf868     riched60:w32sys.obj
 0002:00000924       ?_cLineScroll@CW32System@@0JA 100bf924     riched60:w32sys.obj
 0002:00000928       ?_icr3DDarkShadow@CW32System@@2HA 100bf928     riched60:w32sys.obj
 0002:0000092c       ?_wKeyboardFlags@CW32System@@0GA 100bf92c     riched60:w32sys.obj
 0002:00000930       ?_nScrollInterval@CW32System@@0GA 100bf930     riched60:w32sys.obj
 0002:0000093c       ?_pols@CLSLock@@1PAUCOls@@A 100bf93c     riched60:lshelpers.obj
 0002:00000940       ?_polsOTx@CLSLock@@1PAUCOls@@A 100bf940     riched60:lshelpers.obj
 0002:00000944       ?_pOTxOlsData@CLSLock@@1PAVCOTxOlsData@@A 100bf944     riched60:lshelpers.obj
 0002:00000948       ?_fNoLS@CLSLock@@1_NA      100bf948     riched60:lshelpers.obj
 0002:0000094c       ?_cOLSBusy@CLSLock@@1HA    100bf94c     riched60:lshelpers.obj
 0002:00000950       ?g_iFontHangul@@3FA        100bf950     riched60:font.obj
 0002:00000954       ?g_iFontBig5@@3FA          100bf954     riched60:font.obj
 0002:0000095c       ?g_iFontJapanese@@3FA      100bf95c     riched60:font.obj
 0002:00000960       ?g_iFontGB2312@@3FA        100bf960     riched60:font.obj
 0002:00000964       ?g_cFCLock@@3JA            100bf964     riched60:font.obj
 0002:00000974       ?g_hHeap@@3PAXA            100bf974     riched60:utilmem.obj
 0002:00000978       ?g_pusp@@3PAVCUniscribe@@A 100bf978     riched60:uspi.obj
 0002:0000097c       ?g_hinstMSLS4@@3PAUHINSTANCE__@@A 100bf97c     riched60:CEDllLoad.obj
 0002:00000980       ?g_hinstUSPCE@@3PAUHINSTANCE__@@A 100bf980     riched60:CEDllLoad.obj
 0002:00000a3c       ?g_pTypeInfoStories@@3PAUITypeInfo@@A 100bfa3c     riched60:tomdoc.obj
 0002:00000a40       ?g_pTypeInfoPara@@3PAUITypeInfo@@A 100bfa40     riched60:tomdoc.obj
 0002:00000a44       ?g_pTypeInfoDoc@@3PAUITypeInfo@@A 100bfa44     riched60:tomdoc.obj
 0002:00000a48       ?g_pTypeInfoColumns@@3PAUITypeInfo@@A 100bfa48     riched60:tomdoc.obj
 0002:00000a4c       ?g_pTypeInfoStrings@@3PAUITypeInfo@@A 100bfa4c     riched60:tomdoc.obj
 0002:00000a50       ?g_pTypeInfoBorder@@3PAUITypeInfo@@A 100bfa50     riched60:tomdoc.obj
 0002:00000a54       ?g_pTypeInfoSel@@3PAUITypeInfo@@A 100bfa54     riched60:tomdoc.obj
 0002:00000a58       ?g_pTypeInfoRow@@3PAUITypeInfo@@A 100bfa58     riched60:tomdoc.obj
 0002:00000a5c       ?g_pTypeLib@@3PAUITypeLib@@A 100bfa5c     riched60:tomdoc.obj
 0002:00000a60       ?g_pTypeInfoCells@@3PAUITypeInfo@@A 100bfa60     riched60:tomdoc.obj
 0002:00000a64       ?g_pTypeInfoTable@@3PAUITypeInfo@@A 100bfa64     riched60:tomdoc.obj
 0002:00000a68       ?g_pTypeInfoCell@@3PAUITypeInfo@@A 100bfa68     riched60:tomdoc.obj
 0002:00000a6c       ?g_pTypeInfoColumn@@3PAUITypeInfo@@A 100bfa6c     riched60:tomdoc.obj
 0002:00000a70       ?g_pTypeInfoBorders@@3PAUITypeInfo@@A 100bfa70     riched60:tomdoc.obj
 0002:00000a74       ?g_pTypeInfoFont@@3PAUITypeInfo@@A 100bfa74     riched60:tomdoc.obj
 0002:00000a78       ?g_pTypeInfoRows@@3PAUITypeInfo@@A 100bfa78     riched60:tomdoc.obj
 0002:00000a7c       ?g_hrGetTypeInfo@@3JA      100bfa7c     riched60:tomdoc.obj
 0002:00000b10       ?_rgtfi@CRTFConverter@@1PAU_tfi@@A 100bfb10     riched60:rtfwrit2.obj
 0002:00000b14       ?_ctfi@CRTFConverter@@1HA  100bfb14     riched60:rtfwrit2.obj
 0002:00000b18       ?_pchFontSubInfo@CRTFConverter@@1PAGA 100bfb18     riched60:rtfwrit2.obj
 0002:00000b1c       ?_dwScrollLast@CDisplay@@0KA 100bfb1c     riched60:disp.obj
 0002:00000b20       ?_dwTimeScrollNext@CDisplay@@0KA 100bfb20     riched60:disp.obj
 0002:00000b30       ?rgbUrlSup@@3PAHA          100bfb30     riched60:urlsup.obj
 0002:00000b68       ?_fnpPropChg@CTxtEdit@@2PAP81@AAJH@ZA 100bfb68     riched60:propchg.obj
 0002:00000c3c       ?iCharRepANSI@@3EA         100bfc3c     riched60:rtfwrit.obj
 0002:00000c48       ?gAEDispenser@@3VCAntiEventDispenser@@A 100bfc48     riched60:antievt.obj

 entry point at        0001:00008f08

 Static symbols

 0001:00008dcc       ?RichFRegisterClass@@YAHXZ 10009dcc f   riched60:reinit.obj
 0001:0000b548       ?CreateTextServicesCore@@YAJPAUIUnknown@@PAVITextHost@@AAPAVCTxtEdit@@H@Z 1000c548 f   riched60:textserv.obj
 0001:00023724       ?GetFontSignatureFromDC@@YA_KPAUHDC__@@AAH@Z 10024724 f   riched60:font.obj
 0001:0006c2dc       ?SetAllowedResizeDirections@@YAXABUtagLSPOINTUV@@ABURECTUV@@PBGAAH333@Z 1006d2dc f   riched60:coleobj.obj
 0001:00070460       ?EnsureBufferSpace@@YAHJAAJAAPAJPBJ@Z 10071460 f   riched60:textex.obj
 0001:00072b40       ?LimitChunk@@YAKPBGAAJHHHJHHKAAW4lsmathbehavior@@HPAHPAVCMeasurerNoFC@@@Z 10073b40 f   riched60:ols.obj
 0001:000821a8       ?AllocObjectDescriptor@@YAPAXU_GUID@@KUtagSIZE@@U_POINTL@@KPBG3@Z 100831a8 f   riched60:util.obj
 0001:000a5d68       ?FindTopCell@@YAHAAVCLinePtr@@AAJPAUCLine@@1J1PAJ2J3AAPBU_cellparms@@@Z 100a6d68 f   riched60:layout.obj
