 Shell

 Timestamp is 5ac64a29 (Thu Apr 05 09:09:13 2018)

 Preferred load address is 00010000

 Start         Length     Name                   Class
 0001:00000000 00000004H .CRT$XCA                CODE
 0001:00000004 00000004H .CRT$XCZ                CODE
 0001:00000008 00000004H .CRT$XIA                CODE
 0001:0000000c 00000004H .CRT$XIZ                CODE
 0001:00000010 00000004H .CRT$XPA                CODE
 0001:00000014 00000004H .CRT$XPZ                CODE
 0001:00000018 00000004H .CRT$XTA                CODE
 0001:0000001c 00000004H .CRT$XTZ                CODE
 0001:00000020 000070aeH .rdata                  CODE
 0001:000070d0 00000022H .rdata$debug            CODE
 0001:000070f4 00006b58H .text                   CODE
 0001:0000dc4c 000000b0H .xdata                  CODE
 0001:0000dcfc 00000028H .idata$2                CODE
 0001:0000dd24 00000014H .idata$3                CODE
 0001:0000dd38 0000018cH .idata$4                CODE
 0001:0000dec4 000000f2H .idata$6                CODE
 0001:0000dfb6 00000000H .edata                  CODE
 0002:00000000 0000018cH .idata$5                DATA
 0002:00000190 00000100H .data                   DATA
 0002:000002a0 00001864H .bss                    DATA
 0003:00000000 00000298H .pdata                  DATA

  Address         Publics by Value              Rva+Base       Lib:Object

 0000:00000000       ___safe_se_handler_count   00000000     <absolute>
 0000:00000000       ___safe_se_handler_table   00000000     <absolute>
 0001:00000000       __xc_a                     00011000     corelib0:crt0init.obj
 0001:00000004       __xc_z                     00011004     corelib0:crt0init.obj
 0001:00000008       __xi_a                     00011008     corelib0:crt0init.obj
 0001:0000000c       __xi_z                     0001100c     corelib0:crt0init.obj
 0001:00000010       __xp_a                     00011010     corelib0:crt0init.obj
 0001:00000014       __xp_z                     00011014     corelib0:crt0init.obj
 0001:00000018       __xt_a                     00011018     corelib0:crt0init.obj
 0001:0000001c       __xt_z                     0001101c     corelib0:crt0init.obj
 0001:0000003c       ??_C@_1CE@DJNKGNHM@?$AAW?$AAC?$AAF?$AA_?$AAO?$AAV?$AAE?$AAR?$AAL?$AAA?$AAY?$AAT?$AAA?$AAR?$AAG?$AAE?$AAT?$AA?$AA@ 0001103c     shell.obj
 0001:00000060       ??_C@_1BM@KGKOAEEN@?$AAW?$AAC?$AAF?$AA_?$AAT?$AAR?$AAU?$AAE?$AAC?$AAO?$AAL?$AAO?$AAR?$AA?$AA@ 00011060     shell.obj
 0001:0000007c       ??_C@_1CM@IJFNAHHE@?$AAW?$AAC?$AAF?$AA_?$AAA?$AAL?$AAP?$AAH?$AAA?$AAT?$AAR?$AAA?$AAN?$AAS?$AAP?$AAA?$AAR?$AAE?$AAN?$AAC?$AAY?$AA?$AA@ 0001107c     shell.obj
 0001:000000a8       ??_C@_1CC@LOFMDOPL@?$AAW?$AAS?$AA_?$AAE?$AAX?$AA_?$AAN?$AAO?$AAA?$AAC?$AAT?$AAI?$AAV?$AAA?$AAT?$AAE?$AA?$AA@ 000110a8     shell.obj
 0001:000000cc       ??_C@_1CE@LHKKMBPL@?$AAW?$AAS?$AA_?$AAE?$AAX?$AA_?$AAN?$AAO?$AAA?$AAN?$AAI?$AAM?$AAA?$AAT?$AAI?$AAO?$AAN?$AA?$AA@ 000110cc     shell.obj
 0001:000000f0       ??_C@_1BE@EKMJCNL@?$AAW?$AAS?$AA_?$AAE?$AAX?$AA_?$AAI?$AAN?$AAK?$AA?$AA@ 000110f0     shell.obj
 0001:00000104       ??_C@_1CA@CPPLLKDK@?$AAW?$AAS?$AA_?$AAA?$AAB?$AAO?$AAV?$AAE?$AAS?$AAT?$AAA?$AAR?$AAT?$AAU?$AAP?$AA?$AA@ 00011104     shell.obj
 0001:00000124       ??_C@_1BK@JCMGGCJ@?$AAW?$AAS?$AA_?$AAE?$AAX?$AA_?$AAN?$AAO?$AAD?$AAR?$AAA?$AAG?$AA?$AA@ 00011124     shell.obj
 0001:00000140       ??_C@_1CA@MHLBLMMC@?$AAW?$AAS?$AA_?$AAC?$AAA?$AAP?$AAT?$AAI?$AAO?$AAN?$AAO?$AAK?$AAB?$AAT?$AAN?$AA?$AA@ 00011140     shell.obj
 0001:00000160       ??_C@_1CI@LDHAALEJ@?$AAW?$AAS?$AA_?$AAO?$AAV?$AAE?$AAR?$AAL?$AAA?$AAP?$AAP?$AAE?$AAD?$AAW?$AAI?$AAN?$AAD?$AAO?$AAW?$AA?$AA@ 00011160     shell.obj
 0001:00000188       ??_C@_1BM@GALPCLGA@?$AAW?$AAS?$AA_?$AAS?$AAT?$AAA?$AAT?$AAI?$AAC?$AAE?$AAD?$AAG?$AAE?$AA?$AA@ 00011188     shell.obj
 0001:000001a4       ??_C@_1BO@EOHHPAAG@?$AAW?$AAS?$AA_?$AAC?$AAO?$AAN?$AAT?$AAE?$AAX?$AAT?$AAH?$AAE?$AAL?$AAP?$AA?$AA@ 000111a4     shell.obj
 0001:000001c4       ??_C@_1BM@PGAGLDAG@?$AAW?$AAS?$AA_?$AAC?$AAL?$AAI?$AAE?$AAN?$AAT?$AAE?$AAD?$AAG?$AAE?$AA?$AA@ 000111c4     shell.obj
 0001:000001e0       ??_C@_1BM@INANBCCL@?$AAW?$AAS?$AA_?$AAW?$AAI?$AAN?$AAD?$AAO?$AAW?$AAE?$AAD?$AAG?$AAE?$AA?$AA@ 000111e0     shell.obj
 0001:000001fc       ??_C@_1BM@OCBKBALE@?$AAW?$AAS?$AA_?$AAE?$AAX?$AA_?$AAT?$AAO?$AAP?$AAM?$AAO?$AAS?$AAT?$AA?$AA@ 000111fc     shell.obj
 0001:00000218       ??_C@_1CI@PKBCIOPN@?$AAW?$AAS?$AA_?$AAE?$AAX?$AA_?$AAD?$AAL?$AAG?$AAM?$AAO?$AAD?$AAA?$AAL?$AAF?$AAR?$AAA?$AAM?$AAE?$AA?$AA@ 00011218     shell.obj
 0001:00000240       ??_C@_1BC@OMEIHGFC@?$AAW?$AAS?$AA_?$AAP?$AAO?$AAP?$AAU?$AAP?$AA?$AA@ 00011240     shell.obj
 0001:00000254       ??_C@_1BG@ODLKBLFH@?$AAW?$AAS?$AA_?$AAT?$AAA?$AAB?$AAS?$AAT?$AAO?$AAP?$AA?$AA@ 00011254     shell.obj
 0001:0000026c       ??_C@_1BC@ODADFLPO@?$AAW?$AAS?$AA_?$AAG?$AAR?$AAO?$AAU?$AAP?$AA?$AA@ 0001126c     shell.obj
 0001:00000280       ??_C@_1BG@KJOBMDJC@?$AAW?$AAS?$AA_?$AAS?$AAY?$AAS?$AAM?$AAE?$AAN?$AAU?$AA?$AA@ 00011280     shell.obj
 0001:00000298       ??_C@_1BG@OMIOJOGF@?$AAW?$AAS?$AA_?$AAH?$AAS?$AAC?$AAR?$AAO?$AAL?$AAL?$AA?$AA@ 00011298     shell.obj
 0001:000002b0       ??_C@_1BG@CKCLFGFA@?$AAW?$AAS?$AA_?$AAV?$AAS?$AAC?$AAR?$AAO?$AAL?$AAL?$AA?$AA@ 000112b0     shell.obj
 0001:000002c8       ??_C@_1CA@MPLGGIO@?$AAW?$AAS?$AA_?$AAC?$AAL?$AAI?$AAP?$AAC?$AAH?$AAI?$AAL?$AAD?$AAR?$AAE?$AAN?$AA?$AA@ 000112c8     shell.obj
 0001:000002e8       ??_C@_1CA@PCFJBBHH@?$AAW?$AAS?$AA_?$AAC?$AAL?$AAI?$AAP?$AAS?$AAI?$AAB?$AAL?$AAI?$AAN?$AAG?$AAS?$AA?$AA@ 000112e8     shell.obj
 0001:00000308       ??_C@_1BI@NKODCGOF@?$AAW?$AAS?$AA_?$AAD?$AAI?$AAS?$AAA?$AAB?$AAL?$AAE?$AAD?$AA?$AA@ 00011308     shell.obj
 0001:00000320       ??_C@_1BG@KLPFHNBP@?$AAW?$AAS?$AA_?$AAV?$AAI?$AAS?$AAI?$AAB?$AAL?$AAE?$AA?$AA@ 00011320     shell.obj
 0001:00000338       ??_C@_1BC@ONEEOLLM@?$AAW?$AAS?$AA_?$AAC?$AAH?$AAI?$AAL?$AAD?$AA?$AA@ 00011338     shell.obj
 0001:0000034c       ??_C@_1BI@EDHINADK@?$AAW?$AAS?$AA_?$AAD?$AAL?$AAG?$AAF?$AAR?$AAA?$AAM?$AAE?$AA?$AA@ 0001134c     shell.obj
 0001:00000364       ??_C@_1BE@DAMMEKNP@?$AAW?$AAS?$AA_?$AAB?$AAO?$AAR?$AAD?$AAE?$AAR?$AA?$AA@ 00011364     shell.obj
 0001:00000378       ??_C@_1BG@KNODLBPA@?$AAW?$AAS?$AA_?$AAC?$AAA?$AAP?$AAT?$AAI?$AAO?$AAN?$AA?$AA@ 00011378     shell.obj
 0001:00000390       ??_C@_1CM@DKJPPKPA@?$AAS?$AAY?$AAS?$AAT?$AAE?$AAM?$AA?1?$AAG?$AAw?$AAe?$AAA?$AAp?$AAi?$AAS?$AAe?$AAt?$AAR?$AAe?$AAa?$AAd?$AAy?$AA?$AA@ 00011390     shell.obj
 0001:000003c0       v_commands                 000113c0     shell.obj
 0001:00000a80       rgszStates                 00011a80     shell.obj
 0001:00000b80       ??_C@_1BE@PHABJHBC@?$AA?2?$AAR?$AAe?$AAl?$AAe?$AAa?$AAs?$AAe?$AA?2?$AA?$AA@ 00011b80     shell.obj
 0001:00000b98       ??_C@_1MC@GJFMCLO@?$AAC?$AAe?$AAL?$AAo?$AAg?$AA?5?$AAi?$AAs?$AA?5?$AAn?$AAo?$AAw?$AA?5?$AAl?$AAo?$AAa?$AAd?$AAe?$AAd?$AA?4?$AA?$AN?$AA?6?$AA?$CK?$AA?$CK?$AA?$CK?$AA?5?$AAY?$AAo?$AAu?$AA?5?$AAs?$AAh@ 00011b98     shell.obj
 0001:00000c60       ??_C@_1IA@ILJICINF@?$AAC?$AAe?$AAL?$AAo?$AAg?$AA?5?$AAc?$AAo?$AAu?$AAl?$AAd?$AA?5?$AAn?$AAo?$AAt?$AA?5?$AAb?$AAe?$AA?5?$AAl?$AAo?$AAa?$AAd?$AAe?$AAd?$AA?4?$AA?5?$AA?5?$AAM?$AAa?$AAk?$AAe@ 00011c60     shell.obj
 0001:00000ce0       ??_C@_1BE@GNGGKBML@?$AAC?$AAe?$AAL?$AAo?$AAg?$AA?4?$AAd?$AAl?$AAl?$AA?$AA@ 00011ce0     shell.obj
 0001:00000cf8       ??_C@_1FE@MCEIABCO@?$AAC?$AAe?$AAL?$AAo?$AAg?$AA?5?$AAi?$AAs?$AA?5?$AAn?$AAo?$AAt?$AA?5?$AAl?$AAo?$AAa?$AAd?$AAe?$AAd?$AA?0?$AA?5?$AAc?$AAo?$AAm?$AAm?$AAa?$AAn?$AAd?$AA?5?$AAa?$AAb?$AAo@ 00011cf8     shell.obj
 0001:00000d50       ??_C@_1KK@ONGEDCC@?$AA?$AN?$AA?6?$AAC?$AAe?$AAL?$AAo?$AAg?$AA?5?$AAh?$AAa?$AAs?$AA?5?$AAn?$AAo?$AAt?$AA?5?$AAb?$AAe?$AAe?$AAn?$AA?5?$AAl?$AAo?$AAa?$AAd?$AAe?$AAd?$AA?5?$AAy?$AAe?$AAt?$AA?0@ 00011d50     shell.obj
 0001:00000e00       ??_C@_1FI@JOPNLAP@?$AAS?$AAh?$AAe?$AAl?$AAl?$AA?3?$AA?5?$AAE?$AAr?$AAr?$AAo?$AAr?$AA?5?$AAu?$AAn?$AAa?$AAb?$AAl?$AAe?$AA?5?$AAt?$AAo?$AA?5?$AAl?$AAo?$AAa?$AAd?$AA?5?$AA?$CF?$AAs?$AA?5?$AA?3@ 00011e00     shell.obj
 0001:00000e58       ??_C@_1EO@BKFHDCNN@?$AAS?$AAh?$AAe?$AAl?$AAl?$AA?3?$AA?5?$AAE?$AAr?$AAr?$AAo?$AAr?$AA?5?$AAu?$AAn?$AAa?$AAb?$AAl?$AAe?$AA?5?$AAt?$AAo?$AA?5?$AAf?$AAi?$AAn?$AAd?$AA?5?$AA?$CF?$AAs?$AA?5?$AAi@ 00011e58     shell.obj
 0001:00000ea8       ??_C@_1EK@MPBOFEEG@?$AAU?$AAn?$AAa?$AAb?$AAl?$AAe?$AA?5?$AAt?$AAo?$AA?5?$AAa?$AAl?$AAl?$AAo?$AAc?$AAa?$AAt?$AAe?$AA?5?$AAe?$AAx?$AAt?$AAe?$AAn?$AAs?$AAi?$AAo?$AAn?$AA?5?$AAb?$AAl?$AAo@ 00011ea8     shell.obj
 0001:00000ef4       ??_C@_1BK@BEHIKEFE@?$AAP?$AAa?$AAr?$AAs?$AAe?$AAC?$AAo?$AAm?$AAm?$AAa?$AAn?$AAd?$AA?$AA@ 00011ef4     shell.obj
 0001:00000f10       ??_C@_1EO@POIJKKMB@?$AAS?$AAo?$AAf?$AAt?$AAw?$AAa?$AAr?$AAe?$AA?2?$AAM?$AAi?$AAc?$AAr?$AAo?$AAs?$AAo?$AAf?$AAt?$AA?2?$AAT?$AAx?$AAt?$AAS?$AAh?$AAe?$AAl?$AAl?$AA?2?$AAE?$AAx?$AAt?$AAe@ 00011f10     shell.obj
 0001:00000f60       ??_C@_13HOIJIPNN@?$AA?5?$AA?$AA@ 00011f60     shell.obj
 0001:00000f64       ??_C@_1CK@DGKHHMFH@?$AAU?$AAn?$AAk?$AAn?$AAo?$AAw?$AAn?$AA?5?$AAc?$AAo?$AAm?$AAm?$AAa?$AAn?$AAd?$AA?4?$AA?$AN?$AA?6?$AA?$AN?$AA?6?$AA?$AA@ 00011f64     shell.obj
 0001:00000f90       ??_C@_1DO@DOAKDKMJ@?$AAE?$AAx?$AAc?$AAe?$AAp?$AAt?$AAi?$AAo?$AAn?$AA?5?$AAc?$AAa?$AAl?$AAl?$AAi?$AAn?$AAg?$AA?5?$AAh?$AAa?$AAn?$AAd?$AAl?$AAe?$AAr?$AA?5?$AA?$CF?$AAs?$AA?$AN?$AA?6?$AA?$AA@ 00011f90     shell.obj
 0001:00000fd0       ??_C@_1EG@GECLHLNC@?$AA?$CF?$AA0?$AA2?$AAd?$AA?1?$AA?$CF?$AA0?$AA2?$AAd?$AA?1?$AA?$CF?$AA0?$AA2?$AAd?$AA?5?$AA?$CF?$AAd?$AA?3?$AA?$CF?$AA0?$AA2?$AAd?$AA?3?$AA?$CF?$AA0?$AA2?$AAd?$AA?4?$AA?$CF?$AA0?$AA3?$AAd@ 00011fd0     shell.obj
 0001:00001018       ??_C@_19DOGDICKI@?$AA?4?$AAe?$AAx?$AAe?$AA?$AA@ 00012018     shell.obj
 0001:00001028       ??_C@_1FK@GLHJLAIO@?$AAU?$AAn?$AAa?$AAb?$AAl?$AAe?$AA?5?$AAt?$AAo?$AA?5?$AAc?$AAr?$AAe?$AAa?$AAt?$AAe?$AA?5?$AAp?$AAr?$AAo?$AAc?$AAe?$AAs?$AAs?$AA?5?$AA?8?$AA?$CF?$AAs?$AA?8?$AA?5?$AA?3?$AA?5@ 00012028     shell.obj
 0001:00001084       ??_C@_1BO@JECDJGMJ@?$AAE?$AAn?$AAt?$AAe?$AAr?$AA?5?$AAY?$AA?5?$AAo?$AAr?$AA?5?$AAN?$AA?$AN?$AA?6?$AA?$AA@ 00012084     shell.obj
 0001:000010a8       ??_C@_1GM@JFKEKBH@?$AA?$AN?$AA?6?$AAG?$AAW?$AAE?$AAS?$AA?5?$AAh?$AAa?$AAs?$AA?5?$AAn?$AAo?$AAt?$AA?5?$AAb?$AAe?$AAe?$AAn?$AA?5?$AAs?$AAt?$AAa?$AAr?$AAt?$AAe?$AAd?$AA?5?$AAy?$AAe?$AAt?$AA?0@ 000120a8     shell.obj
 0001:00001114       ??_C@_1DC@CMFIIMGJ@?$AAS?$AAy?$AAn?$AAt?$AAa?$AAx?$AA?3?$AA?5?$AAs?$AA?5?$AA?$DM?$AAp?$AAr?$AAo?$AAc?$AAn?$AAa?$AAm?$AAe?$AA?$DO?$AA?$AN?$AA?6?$AA?$AN?$AA?6?$AA?$AA@ 00012114     shell.obj
 0001:00001148       ??_C@_1LO@BNGKCDCN@?$AAk?$AAp?$AA?5?$AA?$FL?$AA?9?$AAr?$AA?5?$AA?$CI?$AAa?$AAu?$AAt?$AAo?$AAm?$AAa?$AAt?$AAi?$AAc?$AAa?$AAl?$AAl?$AAy?$AA?5?$AAr?$AAe?$AAf?$AAr?$AAe?$AAs?$AAh?$AA?5?$AAp?$AAr@ 00012148     shell.obj
 0001:00001208       ??_C@_1MG@EIHBCEKI@?$AA?5?$AA?5?$AA?5?$AAr?$AA?5?$AA?5?$AA?5?$AA?5?$AA?5?$AA?5?$AA?5?$AA?3?$AA?5?$AAA?$AAu?$AAt?$AAo?$AAm?$AAa?$AAt?$AAi?$AAc?$AAa?$AAl?$AAl?$AAy?$AA?5?$AAr?$AAe?$AAf?$AAr?$AAe@ 00012208     shell.obj
 0001:000012d0       ??_C@_1LI@HODHBIIG@?$AA?5?$AA?5?$AA?5?$AA?$DM?$AAp?$AAr?$AAo?$AAc?$AA?$DO?$AA?5?$AA?5?$AA?3?$AA?5?$AAC?$AAa?$AAn?$AA?5?$AAe?$AAi?$AAt?$AAh?$AAe?$AAr?$AA?5?$AAb?$AAe?$AA?5?$AAP?$AAR?$AAO?$AAC?$AA?5@ 000122d0     shell.obj
 0001:00001388       ??_C@_1IA@FOJGKKME@?$AAN?$AAo?$AAt?$AAe?$AA?3?$AA?5?$AA?5?$AAk?$AAp?$AA?5?$AAu?$AAs?$AAe?$AAs?$AA?5?$AAT?$AAe?$AAr?$AAm?$AAi?$AAn?$AAa?$AAt?$AAe?$AAP?$AAr?$AAo?$AAc?$AAe?$AAs?$AAs?$AA?5@ 00012388     shell.obj
 0001:00001408       ??_C@_1FE@JEMIEFPM@?$AAU?$AAn?$AAa?$AAb?$AAl?$AAe?$AA?5?$AAt?$AAo?$AA?5?$AAo?$AAp?$AAe?$AAn?$AA?5?$AAp?$AAr?$AAo?$AAc?$AAe?$AAs?$AAs?$AA?5?$AA?$CF?$AAd?$AA?0?$AA?5?$AAl?$AAa?$AAs?$AAt?$AAe@ 00012408     shell.obj
 0001:00001460       ??_C@_1FE@JCPDJPNK@?$AAF?$AAa?$AAi?$AAl?$AAe?$AAd?$AA?5?$AAT?$AAe?$AAr?$AAm?$AAi?$AAn?$AAa?$AAt?$AAe?$AAP?$AAr?$AAo?$AAc?$AAe?$AAs?$AAs?$AA?$CI?$AA?$CJ?$AA?0?$AA?5?$AAl?$AAa?$AAs?$AAt?$AAe@ 00012460     shell.obj
 0001:000014b4       ??_C@_1BM@KCOAIOOF@?$AAS?$AAu?$AAc?$AAc?$AAe?$AAe?$AAd?$AAe?$AAd?$AA?$AN?$AA?6?$AA?$AN?$AA?6?$AA?$AA@ 000124b4     shell.obj
 0001:000014d0       ??_C@_1FE@MDDFBIFG@?$AAA?$AAt?$AAt?$AAe?$AAm?$AAp?$AAt?$AAi?$AAn?$AAg?$AA?5?$AAt?$AAo?$AA?5?$AAk?$AAi?$AAl?$AAl?$AA?5?$AAp?$AAr?$AAo?$AAc?$AAe?$AAs?$AAs?$AA?5?$AAo?$AAf?$AA?5?$AAi?$AAd@ 000124d0     shell.obj
 0001:00001524       ??_C@_1DI@FLOCEPJB@?$AA?$CF?$AA0?$AA8?$AAX?$AA?3?$AA?5?$AA?$CF?$AA0?$AA8?$AAX?$AA?5?$AA?$CF?$AA0?$AA8?$AAX?$AA?5?$AA?$CF?$AA0?$AA8?$AAX?$AA?5?$AA?$CF?$AA0?$AA8?$AAX?$AA?$AN?$AA?6?$AA?$AA@ 00012524     shell.obj
 0001:00001560       ??_C@_1EA@CALDCCLK@?$AAU?$AAn?$AAa?$AAb?$AAl?$AAe?$AA?5?$AAt?$AAo?$AA?5?$AAr?$AAe?$AAa?$AAd?$AA?5?$AAp?$AAr?$AAo?$AAc?$AAe?$AAs?$AAs?$AA?5?$AAm?$AAe?$AAm?$AAo?$AAr?$AAy?$AA?$AN?$AA?6?$AA?$AA@ 00012560     shell.obj
 0001:000015a0       ??_C@_1CK@OJNJMMEH@?$AAE?$AAr?$AAr?$AAo?$AAr?$AA?5?$AAW?$AAr?$AAi?$AAt?$AAi?$AAn?$AAg?$AA?5?$AAf?$AAi?$AAl?$AAe?$AA?$AN?$AA?6?$AA?$AA@ 000125a0     shell.obj
 0001:000015cc       ??_C@_1DK@CPACJEBB@?$AAE?$AAr?$AAr?$AAo?$AAr?$AA?3?$AA?5?$AAi?$AAn?$AAv?$AAa?$AAl?$AAi?$AAd?$AA?5?$AAp?$AAa?$AAr?$AAa?$AAm?$AAe?$AAt?$AAe?$AAr?$AAs?$AA?4?$AA?$AN?$AA?6?$AA?$AA@ 000125cc     shell.obj
 0001:00001608       ??_C@_1GA@MBNHFGKI@?$AAE?$AAr?$AAr?$AAo?$AAr?$AA?5?$AAr?$AAe?$AAa?$AAd?$AAi?$AAn?$AAg?$AA?5?$AAi?$AAm?$AAa?$AAg?$AAe?$AA?5?$AAp?$AAh?$AAy?$AAs?$AAi?$AAc?$AAa?$AAl?$AA?5?$AAs?$AAt?$AAa@ 00012608     shell.obj
 0001:00001668       ??_C@_1CE@KLGDHMAG@?$AAW?$AAr?$AAi?$AAt?$AAe?$AA?5?$AAc?$AAo?$AAm?$AAp?$AAl?$AAe?$AAt?$AAe?$AA?4?$AA?$AN?$AA?6?$AA?$AA@ 00012668     shell.obj
 0001:0000168c       ??_C@_1DO@NMOMBEGL@?$AAU?$AAn?$AAa?$AAb?$AAl?$AAe?$AA?5?$AAt?$AAo?$AA?5?$AAo?$AAp?$AAe?$AAn?$AA?5?$AAi?$AAn?$AAp?$AAu?$AAt?$AA?5?$AAf?$AAi?$AAl?$AAe?$AA?5?$AA?$CF?$AAs?$AA?$AN?$AA?6?$AA?$AA@ 0001268c     shell.obj
 0001:000016cc       ??_C@_15DEJJBEOA@?$AA?5?$AA?7?$AA?$AA@ 000126cc     shell.obj
 0001:000016d8       ??_C@_1GG@DMOMHFP@?$AAS?$AAy?$AAn?$AAt?$AAa?$AAx?$AA?3?$AA?5?$AAd?$AAf?$AA?5?$AA?$DM?$AAf?$AAi?$AAl?$AAe?$AAn?$AAa?$AAm?$AAe?$AA?$DO?$AA?5?$AA?$DM?$AAp?$AAr?$AAo?$AAc?$AAe?$AAs?$AAs?$AA?5?$AAi@ 000126d8     shell.obj
 0001:00001740       ??_C@_1DA@LGICFMAK@?$AA?5?$AA?5?$AA?5?$AA?5?$AAI?$AAD?$AA?3?$AA0?$AAx?$AA?$CF?$AA8?$AA?4?$AA8?$AAl?$AAx?$AA?0?$AA?5?$AA?8?$AA?$CF?$AAs?$AA?8?$AA?$AN?$AA?6?$AA?$AA@ 00012740     shell.obj
 0001:00001770       ??_C@_1BK@LNBDKJLF@?$AA?5?$AA?5?$AA?5?$AA?5?$AA?$DM?$AAN?$AAo?$AAn?$AAe?$AA?$DO?$AA?$AN?$AA?6?$AA?$AA@ 00012770     shell.obj
 0001:00001790       ??_C@_1GI@OBKJMOLO@?$AAM?$AAo?$AAd?$AAu?$AAl?$AAe?$AA?5?$AA?8?$AA?$CF?$AAs?$AA?8?$AA?5?$AAi?$AAs?$AA?5?$AAl?$AAo?$AAa?$AAd?$AAe?$AAd?$AA?5?$AAi?$AAn?$AA?5?$AAt?$AAh?$AAe?$AA?5?$AAf?$AAo?$AAl@ 00012790     shell.obj
 0001:000017f8       ??_C@_1EG@MPAOHBL@?$AAS?$AAy?$AAn?$AAt?$AAa?$AAx?$AA?3?$AA?5?$AAg?$AAi?$AA?5?$AAm?$AAo?$AAd?$AAl?$AAo?$AAa?$AAd?$AAe?$AAd?$AA?5?$AA?$DM?$AAD?$AAl?$AAl?$AAN?$AAa?$AAm?$AAe?$AA?$DO?$AA?$AN?$AA?6@ 000127f8     shell.obj
 0001:00001840       ??_C@_1BBA@EBMMHJNL@?$AAA?$AAr?$AAc?$AAh?$AAi?$AAt?$AAe?$AAc?$AAt?$AAu?$AAr?$AAe?$AA?5?$AAC?$AAp?$AAu?$AAT?$AAy?$AAp?$AAe?$AA?5?$AA?5?$AA?5?$AA?5?$AAO?$AAS?$AAM?$AAa?$AAj?$AAo?$AAr?$AA?5@ 00012840     shell.obj
 0001:00001950       ??_C@_1FK@LGLEIGHB@?$AA?5?$AAM?$AA?$CF?$AA2?$AA?4?$AA2?$AAd?$AA?3?$AA?5?$AA?$CF?$AA?9?$AA1?$AA5?$AAs?$AA?5?$AA?$CF?$AA8?$AA?4?$AA8?$AAl?$AAx?$AA?5?$AA?$CF?$AA8?$AA?4?$AA8?$AAl?$AAx?$AA?5?$AA?$CF?$AA8?$AA?4@ 00012950     shell.obj
 0001:000019b0       ??_C@_1HG@EBJBBNIG@?$AA?5?$AAM?$AAO?$AAD?$AA?3?$AA?5?$AAN?$AAa?$AAm?$AAe?$AA?5?$AA?5?$AA?5?$AA?5?$AA?5?$AA?5?$AA?5?$AA?5?$AA?5?$AA?5?$AA?5?$AA?5?$AAp?$AAM?$AAo?$AAd?$AAu?$AAl?$AAe?$AA?5?$AA?3?$AAd@ 000129b0     shell.obj
 0001:00001a28       ??_C@_1GC@MLPPOJAE@?$AAU?$AAn?$AAa?$AAb?$AAl?$AAe?$AA?5?$AAt?$AAo?$AA?5?$AAo?$AAb?$AAt?$AAa?$AAi?$AAn?$AA?5?$AAp?$AAr?$AAo?$AAc?$AAe?$AAs?$AAs?$AA?1?$AAt?$AAh?$AAr?$AAe?$AAa?$AAd?$AA?5@ 00012a28     shell.obj
 0001:00001a8c       ??_C@_15JNBOKNOG@?$AA?$AN?$AA?6?$AA?$AA@ 00012a8c     shell.obj
 0001:00001a98       ??_C@_1GE@LLGMAJH@?$AAS?$AAh?$AAe?$AAl?$AAl?$AA?3?$AA?5?$AAE?$AAr?$AAr?$AAo?$AAr?$AA?5?$AAu?$AAn?$AAa?$AAb?$AAl?$AAe?$AA?5?$AAa?$AAl?$AAl?$AAo?$AAc?$AAa?$AAt?$AAe?$AA?5?$AAP?$AAR?$AAO@ 00012a98     shell.obj
 0001:00001afc       ??_C@_1CE@IHADLOJA@?$AA?5?$AAN?$AAo?$AA?5?$AAT?$AAh?$AAr?$AAe?$AAa?$AAd?$AA?5?$AAT?$AAi?$AAm?$AAe?$AA?$AN?$AA?6?$AA?$AA@ 00012afc     shell.obj
 0001:00001b20       ??_C@_1DG@DDDEKJAC@?$AA?5?$AA?$CF?$AA2?$AA?4?$AA2?$AAd?$AA?3?$AA?$CF?$AA2?$AA?4?$AA2?$AAd?$AA?3?$AA?$CF?$AA2?$AA?4?$AA2?$AAd?$AA?4?$AA?$CF?$AA3?$AA?4?$AA3?$AAd?$AA?$AN?$AA?6?$AA?$AA@ 00012b20     shell.obj
 0001:00001b58       ??_C@_1DC@NNBAPKCM@?$AA?5?$AA?$CF?$AA2?$AA?4?$AA2?$AAd?$AA?3?$AA?$CF?$AA2?$AA?4?$AA2?$AAd?$AA?3?$AA?$CF?$AA2?$AA?4?$AA2?$AAd?$AA?4?$AA?$CF?$AA3?$AA?4?$AA3?$AAd?$AA?$AA@ 00012b58     shell.obj
 0001:00001b90       ??_C@_1FC@POLDAID@?$AA?5?$AAT?$AA?5?$AA?5?$AA?5?$AA?5?$AA?$CF?$AA6?$AA?4?$AA6?$AAs?$AA?5?$AA?$CF?$AA8?$AA?4?$AA8?$AAl?$AAx?$AA?5?$AA?$CF?$AA8?$AA?4?$AA8?$AAl?$AAx?$AA?5?$AA?$CF?$AA8?$AA?4?$AA8?$AAl?$AAx@ 00012b90     shell.obj
 0001:00001be8       ??_C@_1FK@MKKPDABB@?$AA?5?$AAP?$AA?$CF?$AA2?$AA?4?$AA2?$AAd?$AA?3?$AA?5?$AA?$CF?$AA?9?$AA1?$AA5?$AAs?$AA?5?$AA?$CF?$AA8?$AA?4?$AA8?$AAl?$AAx?$AA?5?$AA?$CF?$AA8?$AA?4?$AA8?$AAl?$AAx?$AA?5?$AA?$CF?$AA8?$AA?4@ 00012be8     shell.obj
 0001:00001c48       ??_C@_1JE@ODCNIAL@?$AAT?$AAH?$AAR?$AAD?$AA?3?$AA?5?$AAS?$AAt?$AAa?$AAt?$AAe?$AA?5?$AA?5?$AAT?$AAI?$AAD?$AA?5?$AA?5?$AA?5?$AA?5?$AA?5?$AA?5?$AAP?$AAI?$AAD?$AA?5?$AA?5?$AA?5?$AA?5?$AA?5?$AA?5?$AAC@ 00012c48     shell.obj
 0001:00001ce0       ??_C@_1HG@MNMHMLBO@?$AAP?$AAR?$AAO?$AAC?$AA?3?$AA?5?$AAN?$AAa?$AAm?$AAe?$AA?5?$AA?5?$AA?5?$AA?5?$AA?5?$AA?5?$AA?5?$AA?5?$AA?5?$AA?5?$AA?5?$AA?5?$AAP?$AAI?$AAD?$AA?5?$AA?5?$AA?5?$AA?5?$AA?5?$AA?5?$AAA@ 00012ce0     shell.obj
 0001:00001d58       ??_C@_1KC@NOMCBLDH@?$AAI?$AAn?$AAv?$AAa?$AAl?$AAi?$AAd?$AA?5?$AAa?$AAr?$AAg?$AAu?$AAm?$AAe?$AAn?$AAt?$AA?5?$AAf?$AAo?$AAr?$AA?5?$AAp?$AAr?$AAo?$AAc?$AA?5?$AA?$CD?$AA?4?$AA?5?$AA?5?$AAU?$AAs@ 00012d58     shell.obj
 0001:00001e00       ??_C@_1KK@HNEOHGNC@?$AAI?$AAn?$AAv?$AAa?$AAl?$AAi?$AAd?$AA?5?$AAa?$AAr?$AAg?$AAu?$AAm?$AAe?$AAn?$AAt?$AA?4?$AA?5?$AA?5?$AAM?$AAu?$AAs?$AAt?$AA?5?$AAb?$AAe?$AA?5?$AAo?$AAn?$AAe?$AA?5?$AAo@ 00012e00     shell.obj
 0001:00001eac       ??_C@_1O@KFLILLAF@?$AAs?$AAy?$AAs?$AAt?$AAe?$AAm?$AA?$AA@ 00012eac     shell.obj
 0001:00001ebc       ??_C@_1O@IIMCFFPP@?$AAs?$AAi?$AAl?$AAe?$AAn?$AAt?$AA?$AA@ 00012ebc     shell.obj
 0001:00001ecc       ??_C@_17IIFKAHCJ@?$AAa?$AAl?$AAl?$AA?$AA@ 00012ecc     shell.obj
 0001:00001ed4       ??_C@_1M@MNNMLJG@?$AAd?$AAe?$AAl?$AAt?$AAa?$AA?$AA@ 00012ed4     shell.obj
 0001:00001ee0       ??_C@_1O@PCFHMJJD@?$AAm?$AAo?$AAd?$AAu?$AAs?$AAe?$AA?$AA@ 00012ee0     shell.obj
 0001:00001ef0       ??_C@_1BE@OPKMONDF@?$AAm?$AAo?$AAd?$AAl?$AAo?$AAa?$AAd?$AAe?$AAd?$AA?$AA@ 00012ef0     shell.obj
 0001:00001f04       ??_C@_17JMNFEICH@?$AAm?$AAo?$AAd?$AA?$AA@ 00012f04     shell.obj
 0001:00001f0c       ??_C@_19BCHHMFPL@?$AAt?$AAh?$AAr?$AAd?$AA?$AA@ 00012f0c     shell.obj
 0001:00001f18       ??_C@_19NEHIGBJO@?$AAp?$AAr?$AAo?$AAc?$AA?$AA@ 00012f18     shell.obj
 0001:00001f24       ??_C@_1BO@HDKDJBLG@?$AA?5?$AA?5?$AA?$CF?$AA8?$AA?4?$AA8?$AAl?$AAx?$AA?3?$AA?5?$AA?$CF?$AAs?$AA?$AN?$AA?6?$AA?$AA@ 00012f24     shell.obj
 0001:00001f48       ??_C@_1II@NNFEBHDF@?$AAP?$AAa?$AAg?$AAe?$AA?5?$AAs?$AAu?$AAm?$AAm?$AAa?$AAr?$AAy?$AA?3?$AA?5?$AAc?$AAo?$AAd?$AAe?$AA?$DN?$AA?$CF?$AAd?$AA?$CI?$AA?$CF?$AAd?$AA?$CJ?$AA?5?$AAd?$AAa?$AAt?$AAa?$AA?5?$AAr@ 00012f48     shell.obj
 0001:00001fd0       ??_C@_1FC@NGEGCENI@?$AA?$AN?$AA?6?$AAM?$AAe?$AAm?$AAo?$AAr?$AAy?$AA?5?$AAu?$AAs?$AAa?$AAg?$AAe?$AA?5?$AAf?$AAo?$AAr?$AA?5?$AAP?$AAr?$AAo?$AAc?$AAe?$AAs?$AAs?$AA?5?$AA?8?$AA?$CF?$AAs?$AA?8?$AA?5@ 00012fd0     shell.obj
 0001:00002028       ??_C@_1EE@MPCILPDE@?$AA?$AN?$AA?6?$AAM?$AAe?$AAm?$AAo?$AAr?$AAy?$AA?5?$AAu?$AAs?$AAa?$AAg?$AAe?$AA?5?$AAf?$AAo?$AAr?$AA?5?$AAS?$AAh?$AAa?$AAr?$AAe?$AAd?$AA?5?$AAH?$AAe?$AAa?$AAp?$AA?3?$AA?$AN@ 00013028     shell.obj
 0001:00002070       ??_C@_1HG@MAMADBMO@?$AAU?$AAn?$AAa?$AAb?$AAl?$AAe?$AA?5?$AAt?$AAo?$AA?5?$AAg?$AAe?$AAt?$AA?5?$AAm?$AAe?$AAm?$AAo?$AAr?$AAy?$AA?5?$AAi?$AAn?$AAf?$AAo?$AA?5?$AAf?$AAo?$AAr?$AA?5?$AAp?$AAr@ 00013070     shell.obj
 0001:000020e8       ??_C@_1GE@MKCIKIPJ@?$AAT?$AAo?$AAt?$AAa?$AAl?$AA?5?$AAU?$AAs?$AAe?$AAd?$AA?5?$AA?$DN?$AA?5?$AA?$CF?$AAl?$AAd?$AA?5?$AA?5?$AAT?$AAo?$AAt?$AAa?$AAl?$AA?5?$AAE?$AAx?$AAt?$AAr?$AAa?$AA?5?$AA?$DN?$AA?5@ 000130e8     shell.obj
 0001:00002150       ??_C@_1EO@FLCLLLD@?$AA?$CF?$AA2?$AAd?$AA?3?$AA?5?$AA?$CF?$AA4?$AAd?$AA?5?$AA?$CF?$AA6?$AAl?$AAd?$AA?5?$AA?$CF?$AA6?$AAl?$AAd?$AA?5?$AA?$CF?$AA5?$AAl?$AAd?$AA?5?$AA?$CF?$AA3?$AAd?$AA?$CI?$AA?$CF?$AA3?$AAd?$AA?$CJ@ 00013150     shell.obj
 0001:000021a0       ??_C@_1FK@NAOLGEHA@?$AAI?$AAn?$AAx?$AA?5?$AAS?$AAi?$AAz?$AAe?$AA?5?$AA?5?$AA?5?$AAU?$AAs?$AAe?$AAd?$AA?5?$AA?5?$AA?5?$AA?5?$AAM?$AAa?$AAx?$AA?5?$AAE?$AAx?$AAt?$AAr?$AAa?$AA?5?$AA?5?$AAE?$AAn@ 000131a0     shell.obj
 0001:00002200       ??_C@_1EC@IOJEJCMH@?$AA?$AN?$AA?6?$AAT?$AAo?$AAt?$AAa?$AAl?$AA?5?$AAR?$AA?1?$AAW?$AA?5?$AAd?$AAa?$AAt?$AAa?$AA?5?$AA?$CL?$AA?5?$AAs?$AAt?$AAa?$AAc?$AAk?$AA?5?$AA?$DN?$AA?5?$AA?$CF?$AAl?$AAd?$AA?$AN?$AA?6@ 00013200     shell.obj
 0001:00002248       ??_C@_1FI@CMICBNLB@?$AA?$AN?$AA?6?$AAW?$AAi?$AAn?$AAd?$AAo?$AAw?$AAs?$AA?5?$AAC?$AAE?$AA?5?$AAK?$AAe?$AAr?$AAn?$AAe?$AAl?$AA?5?$AAM?$AAe?$AAm?$AAo?$AAr?$AAy?$AA?5?$AAU?$AAs?$AAa?$AAg?$AAe@ 00013248     shell.obj
 0001:000022a0       ??_C@_1MK@JCOLFINF@?$AAP?$AAa?$AAg?$AAe?$AA?5?$AAs?$AAi?$AAz?$AAe?$AA?$DN?$AA?$CF?$AAd?$AA?0?$AA?5?$AA?$CF?$AAd?$AA?5?$AAt?$AAo?$AAt?$AAa?$AAl?$AA?5?$AAp?$AAa?$AAg?$AAe?$AAs?$AA?0?$AA?5?$AA?$CF?$AAd@ 000132a0     shell.obj
 0001:00002370       ??_C@_1IO@GKCDIEGI@?$AA?$CF?$AAd?$AA?5?$AAp?$AAa?$AAg?$AAe?$AAs?$AA?5?$AAu?$AAs?$AAe?$AAd?$AA?5?$AAb?$AAy?$AA?5?$AAk?$AAe?$AAr?$AAn?$AAe?$AAl?$AA?0?$AA?5?$AA?$CF?$AAd?$AA?5?$AAp?$AAa?$AAg?$AAe@ 00013370     shell.obj
 0001:00002400       ??_C@_1O@EDEEBIJK@?$AAk?$AAe?$AAr?$AAn?$AAe?$AAl?$AA?$AA@ 00013400     shell.obj
 0001:00002410       ??_C@_19CKPKPLNA@?$AAf?$AAu?$AAl?$AAl?$AA?$AA@ 00013410     shell.obj
 0001:00002420       ??_C@_1II@FEMMALID@?$AAZ?$AAo?$AAn?$AAe?$AA?5?$AAO?$AAp?$AAe?$AAr?$AAa?$AAt?$AAi?$AAo?$AAn?$AA?5?$AAf?$AAa?$AAi?$AAl?$AAe?$AAd?$AA?$CB?$AA?5?$AAM?$AAa?$AAy?$AA?5?$AAb?$AAe?$AA?5?$AAa?$AAn@ 00013420     shell.obj
 0001:000024a8       ??_C@_1FE@NOACFPGC@?$AA1?$AA2?$AA?$CF?$AAc?$AA?$CF?$AA?9?$AA1?$AA6?$AAs?$AA?3?$AA1?$AA3?$AA?$CF?$AAc?$AA?$CF?$AA?9?$AA1?$AA6?$AAs?$AA?3?$AA1?$AA4?$AA?$CF?$AAc?$AA?$CF?$AA?9?$AA1?$AA6?$AAs?$AA?3?$AA1?$AA5@ 000134a8     shell.obj
 0001:00002500       ??_C@_1FE@DDCELECJ@?$AA?5?$AA8?$AA?$CF?$AAc?$AA?$CF?$AA?9?$AA1?$AA6?$AAs?$AA?3?$AA?5?$AA9?$AA?$CF?$AAc?$AA?$CF?$AA?9?$AA1?$AA6?$AAs?$AA?3?$AA1?$AA0?$AA?$CF?$AAc?$AA?$CF?$AA?9?$AA1?$AA6?$AAs?$AA?3?$AA1?$AA1@ 00013500     shell.obj
 0001:00002558       ??_C@_1FE@EBHPFBGL@?$AA?5?$AA4?$AA?$CF?$AAc?$AA?$CF?$AA?9?$AA1?$AA6?$AAs?$AA?3?$AA?5?$AA5?$AA?$CF?$AAc?$AA?$CF?$AA?9?$AA1?$AA6?$AAs?$AA?3?$AA?5?$AA6?$AA?$CF?$AAc?$AA?$CF?$AA?9?$AA1?$AA6?$AAs?$AA?3?$AA?5?$AA7@ 00013558     shell.obj
 0001:000025b0       ??_C@_1FE@NCDCNJIF@?$AA?5?$AA0?$AA?$CF?$AAc?$AA?$CF?$AA?9?$AA1?$AA6?$AAs?$AA?3?$AA?5?$AA1?$AA?$CF?$AAc?$AA?$CF?$AA?9?$AA1?$AA6?$AAs?$AA?3?$AA?5?$AA2?$AA?$CF?$AAc?$AA?$CF?$AA?9?$AA1?$AA6?$AAs?$AA?3?$AA?5?$AA3@ 000135b0     shell.obj
 0001:00002608       ??_C@_1EI@ONDIAGBF@?$AAR?$AAe?$AAg?$AAi?$AAs?$AAt?$AAe?$AAr?$AAe?$AAd?$AA?5?$AAN?$AAa?$AAm?$AAe?$AA?3?$AA?$CF?$AAs?$AA?5?$AA?5?$AA?5?$AAC?$AAu?$AAr?$AAZ?$AAo?$AAn?$AAe?$AA?3?$AA?$CF?$AA0?$AA8@ 00013608     shell.obj
 0001:00002650       ??_C@_1HM@HEBGOHNI@?$AAZ?$AAo?$AAn?$AAe?$AA?5?$AAN?$AAa?$AAm?$AAe?$AAs?$AA?5?$AA?9?$AA?5?$AAP?$AAr?$AAe?$AAf?$AAi?$AAx?$AAe?$AAd?$AA?5?$AAw?$AAi?$AAt?$AAh?$AA?5?$AAb?$AAi?$AAt?$AA?5?$AAn@ 00013650     shell.obj
 0001:000026cc       ??_C@_15GMGGGDOD@?$AAo?$AAn?$AA?$AA@ 000136cc     shell.obj
 0001:000026d4       ??_C@_1M@FJBJHFEC@?$AAa?$AAl?$AAl?$AAo?$AAn?$AA?$AA@ 000136d4     shell.obj
 0001:000026e0       ??_C@_1O@BADONLJP@?$AAa?$AAl?$AAl?$AAo?$AAf?$AAf?$AA?$AA@ 000136e0     shell.obj
 0001:000026f0       ??_C@_1BA@ONAPLNIJ@?$AAd?$AAo?$AAn?$AAe?$AA?4?$AA?$AN?$AA?6?$AA?$AA@ 000136f0     shell.obj
 0001:00002700       ??_C@_13JOFGPIOO@?$AA?4?$AA?$AA@ 00013700     shell.obj
 0001:00002704       ??_C@_1BC@HHFEHBBG@?$AAR?$AAu?$AAn?$AAn?$AAi?$AAn?$AAg?$AA?5?$AA?$AA@ 00013704     shell.obj
 0001:00002718       ??_C@_1FG@HODJNGII@?$AAU?$AAn?$AAa?$AAb?$AAl?$AAe?$AA?5?$AAt?$AAo?$AA?5?$AAc?$AAr?$AAe?$AAa?$AAt?$AAe?$AA?5?$AAp?$AAr?$AAo?$AAc?$AAe?$AAs?$AAs?$AA?5?$AA?8?$AA?$CF?$AAs?$AA?8?$AA?5?$AA?3?$AA?5@ 00013718     shell.obj
 0001:00002770       ??_C@_1EG@BDLAPDHI@?$AAR?$AAu?$AAn?$AA?5?$AAp?$AAr?$AAo?$AAc?$AAe?$AAs?$AAs?$AA?5?$AAr?$AAe?$AAq?$AAu?$AAi?$AAr?$AAe?$AAs?$AA?5?$AAa?$AAn?$AA?5?$AAa?$AAr?$AAg?$AAu?$AAm?$AAe?$AAn?$AAt@ 00013770     shell.obj
 0001:000027b8       ??_C@_1IO@BNMMHNKL@?$AAI?$AAg?$AAn?$AAo?$AAr?$AAi?$AAn?$AAg?$AA?5?$AAl?$AAi?$AAn?$AAe?$AA?5?$AA?$CF?$AAi?$AA?5?$AA?$CI?$AA?8?$AA?$CF?$AAS?$AA?4?$AA?4?$AA?4?$AA?8?$AA?$CJ?$AA?0?$AA?5?$AAl?$AAi?$AAn?$AAe@ 000137b8     shell.obj
 0001:00002848       ??_C@_1DC@JFDMKHPC@?$AAS?$AAy?$AAn?$AAt?$AAa?$AAx?$AA?3?$AA?5?$AAr?$AAu?$AAn?$AA?5?$AA?$DM?$AAf?$AAi?$AAl?$AAe?$AAn?$AAa?$AAm?$AAe?$AA?$DO?$AA?$AN?$AA?6?$AA?$AA@ 00013848     shell.obj
 0001:0000287c       ??_C@_19NMAFMAH@?$AA?5?$AA?5?$AA?5?$AA?5?$AA?$AA@ 0001387c     shell.obj
 0001:00002888       ??_C@_19DLOPAGLL@?$AAW?$AAC?$AAF?$AA?$DN?$AA?$AA@ 00013888     shell.obj
 0001:00002894       ??_C@_1BC@FBICDMHF@?$AAe?$AAx?$AAs?$AAt?$AAy?$AAl?$AAe?$AA?$DN?$AA?$AA@ 00013894     shell.obj
 0001:000028a8       ??_C@_1M@HNCAHPBK@?$AA?$CF?$AA0?$AA8?$AAx?$AA?5?$AA?$AA@ 000138a8     shell.obj
 0001:000028b4       ??_C@_17GMPJMPF@?$AA?$CF?$AAs?$AA?5?$AA?$AA@ 000138b4     shell.obj
 0001:000028bc       ??_C@_1O@IFACHHMG@?$AAS?$AAt?$AAy?$AAl?$AAe?$AA?$DN?$AA?$AA@ 000138bc     shell.obj
 0001:000028cc       ??_C@_1DO@KFFOIII@?$AAx?$AA?$DN?$AA?$CF?$AAd?$AA?5?$AAy?$AA?$DN?$AA?$CF?$AAd?$AA?5?$AAw?$AAi?$AAd?$AAt?$AAh?$AA?$DN?$AA?$CF?$AAd?$AA?5?$AAh?$AAe?$AAi?$AAg?$AAh?$AAt?$AA?$DN?$AA?$CF?$AAd?$AA?$AN?$AA?6?$AA?$AA@ 000138cc     shell.obj
 0001:00002910       ??_C@_1HE@HNAFOIMN@?$AAh?$AAw?$AAn?$AAd?$AA?$DN?$AA?$CF?$AA0?$AA8?$AAx?$AA?5?$AAC?$AAl?$AAa?$AAs?$AAs?$AA?$DN?$AA?$CF?$AAs?$AA?5?$AAp?$AAa?$AAr?$AAe?$AAn?$AAt?$AA?$DN?$AA?$CF?$AA0?$AA8?$AAx?$AA?5?$AAt@ 00013910     shell.obj
 0001:00002984       ??_C@_1BM@CHFPPLHH@?$AAU?$AAn?$AAk?$AAn?$AAo?$AAw?$AAn?$AA?5?$AAc?$AAl?$AAa?$AAs?$AAs?$AA?$AA@ 00013984     shell.obj
 0001:000029a0       ??_C@_1BI@KDOPHEGG@?$AA?$DM?$AAN?$AAo?$AA?5?$AAn?$AAa?$AAm?$AAe?$AA?$DO?$AA?$AN?$AA?6?$AA?$AA@ 000139a0     shell.obj
 0001:000029b8       ??_C@_1O@PHNCDOKP@?$AA?$CC?$AA?$CF?$AAs?$AA?$CC?$AA?$AN?$AA?6?$AA?$AA@ 000139b8     shell.obj
 0001:000029c8       ??_C@_1CC@EONCPPCP@?$AAI?$AAM?$AAE?$AA?5?$AAo?$AAp?$AAe?$AAn?$AA?3?$AA?5?$AA?5?$AA?5?$AA?$CF?$AAi?$AA?$AN?$AA?6?$AA?$AA@ 000139c8     shell.obj
 0001:000029ec       ??_C@_1CG@LJGJFELB@?$AAI?$AAM?$AAE?$AA?5?$AAC?$AAo?$AAn?$AAv?$AA?3?$AA?5?$AA?5?$AA?5?$AA0?$AAx?$AA?$CF?$AAX?$AA?$AN?$AA?6?$AA?$AA@ 000139ec     shell.obj
 0001:00002a14       ??_C@_1CG@BOHKLGGO@?$AAI?$AAM?$AAE?$AA?5?$AAS?$AAe?$AAn?$AAt?$AA?3?$AA?5?$AA?5?$AA?5?$AA0?$AAx?$AA?$CF?$AAX?$AA?$AN?$AA?6?$AA?$AA@ 00013a14     shell.obj
 0001:00002a3c       ??_C@_1CG@LIGFFDBF@?$AAK?$AAe?$AAy?$AAb?$AAd?$AAD?$AAe?$AAs?$AAt?$AA?3?$AA?5?$AA?5?$AAN?$AAU?$AAL?$AAL?$AA?$AN?$AA?6?$AA?$AA@ 00013a3c     shell.obj
 0001:00002a64       ??_C@_1DK@PPNMMOF@?$AAK?$AAe?$AAy?$AAb?$AAd?$AAD?$AAe?$AAs?$AAt?$AA?3?$AA?5?$AA?5?$AA0?$AAx?$AA?$CF?$AAX?$AA?0?$AA?5?$AA?5?$AA?$CF?$AAs?$AA?0?$AA?5?$AA?5?$AA?$CF?$AAs?$AA?$AN?$AA?6?$AA?$AA@ 00013a64     shell.obj
 0001:00002aa0       ??_C@_1CG@FIHPIFDP@?$AAM?$AAe?$AAn?$AAu?$AA?3?$AA?5?$AA?5?$AA?5?$AA?5?$AA?5?$AA?5?$AA?5?$AAN?$AAU?$AAL?$AAL?$AA?$AN?$AA?6?$AA?$AA@ 00013aa0     shell.obj
 0001:00002ac8       ??_C@_1DK@OONMDNMA@?$AAM?$AAe?$AAn?$AAu?$AA?3?$AA?5?$AA?5?$AA?5?$AA?5?$AA?5?$AA?5?$AA?5?$AA0?$AAx?$AA?$CF?$AAX?$AA?0?$AA?5?$AA?5?$AA?$CF?$AAs?$AA?0?$AA?5?$AA?5?$AA?$CF?$AAs?$AA?$AN?$AA?6?$AA?$AA@ 00013ac8     shell.obj
 0001:00002b04       ??_C@_1CG@GDGCDDNG@?$AAF?$AAo?$AAc?$AAu?$AAs?$AA?3?$AA?5?$AA?5?$AA?5?$AA?5?$AA?5?$AA?5?$AAN?$AAU?$AAL?$AAL?$AA?$AN?$AA?6?$AA?$AA@ 00013b04     shell.obj
 0001:00002b2c       ??_C@_1DK@DBOONCDG@?$AAF?$AAo?$AAc?$AAu?$AAs?$AA?3?$AA?5?$AA?5?$AA?5?$AA?5?$AA?5?$AA?5?$AA0?$AAx?$AA?$CF?$AAX?$AA?0?$AA?5?$AA?5?$AA?$CF?$AAs?$AA?0?$AA?5?$AA?5?$AA?$CF?$AAs?$AA?$AN?$AA?6?$AA?$AA@ 00013b2c     shell.obj
 0001:00002b68       ??_C@_1CK@LBMLKAAM@?$AAA?$AAc?$AAt?$AAi?$AAv?$AAe?$AA?3?$AA?5?$AA?5?$AA?5?$AA?5?$AA?5?$AAN?$AAU?$AAL?$AAL?$AA?$AN?$AA?6?$AA?$AN?$AA?6?$AA?$AA@ 00013b68     shell.obj
 0001:00002b94       ??_C@_1DK@GMDKDOEC@?$AAA?$AAc?$AAt?$AAi?$AAv?$AAe?$AA?3?$AA?5?$AA?5?$AA?5?$AA?5?$AA?5?$AA0?$AAx?$AA?$CF?$AAX?$AA?0?$AA?5?$AA?5?$AA?$CF?$AAs?$AA?0?$AA?5?$AA?5?$AA?$CF?$AAs?$AA?$AN?$AA?6?$AA?$AA@ 00013b94     shell.obj
 0001:00002bd0       ??_C@_1CO@EBDHJMIL@?$AA?$AN?$AA?6?$AAF?$AAO?$AAR?$AAE?$AAG?$AAR?$AAO?$AAU?$AAN?$AAD?$AA?5?$AAI?$AAN?$AAF?$AAO?$AA?3?$AA?$AN?$AA?6?$AA?$AN?$AA?6?$AA?$AA@ 00013bd0     shell.obj
 0001:00002c00       ??_C@_1FA@OHIGOJAB@?$AAU?$AAn?$AAa?$AAb?$AAl?$AAe?$AA?5?$AAt?$AAo?$AA?5?$AAG?$AAe?$AAt?$AAP?$AAr?$AAo?$AAc?$AAA?$AAd?$AAd?$AAr?$AAe?$AAs?$AAs?$AA?5?$AAo?$AAf?$AA?5?$AAs?$AAo?$AAm?$AAe@ 00013c00     shell.obj
 0001:00002c50       ??_C@_1IC@EBNIAJFM@?$AAU?$AAn?$AAa?$AAb?$AAl?$AAe?$AA?5?$AAt?$AAo?$AA?5?$AAg?$AAe?$AAt?$AA?5?$AAf?$AAu?$AAn?$AAc?$AAt?$AAi?$AAo?$AAn?$AA?5?$AAp?$AAo?$AAi?$AAn?$AAt?$AAe?$AAr?$AAs?$AA?0@ 00013c50     shell.obj
 0001:00002cd4       ??_C@_1BE@EPAILMDC@?$AAG?$AAe?$AAt?$AAW?$AAi?$AAn?$AAd?$AAo?$AAw?$AA?$AA@ 00013cd4     shell.obj
 0001:00002ce8       ??_C@_1BO@DADPGAFF@?$AAG?$AAe?$AAt?$AAW?$AAi?$AAn?$AAd?$AAo?$AAw?$AAL?$AAo?$AAn?$AAg?$AAW?$AA?$AA@ 00013ce8     shell.obj
 0001:00002d08       ??_C@_1BO@BCJPCDAH@?$AAG?$AAe?$AAt?$AAW?$AAi?$AAn?$AAd?$AAo?$AAw?$AAT?$AAe?$AAx?$AAt?$AAW?$AA?$AA@ 00013d08     shell.obj
 0001:00002d28       ??_C@_1BM@JLFPIFPO@?$AAG?$AAe?$AAt?$AAC?$AAl?$AAa?$AAs?$AAs?$AAN?$AAa?$AAm?$AAe?$AAW?$AA?$AA@ 00013d28     shell.obj
 0001:00002d44       ??_C@_1BM@FJBKIOLE@?$AAG?$AAe?$AAt?$AAW?$AAi?$AAn?$AAd?$AAo?$AAw?$AAR?$AAe?$AAc?$AAt?$AA?$AA@ 00013d44     shell.obj
 0001:00002d60       ??_C@_1DC@FHEBCNF@?$AAG?$AAe?$AAt?$AAW?$AAi?$AAn?$AAd?$AAo?$AAw?$AAT?$AAh?$AAr?$AAe?$AAa?$AAd?$AAP?$AAr?$AAo?$AAc?$AAe?$AAs?$AAs?$AAI?$AAd?$AA?$AA@ 00013d60     shell.obj
 0001:00002d94       ??_C@_1BE@EBIHNLP@?$AAG?$AAe?$AAt?$AAP?$AAa?$AAr?$AAe?$AAn?$AAt?$AA?$AA@ 00013d94     shell.obj
 0001:00002da8       ??_C@_1CE@FFEFHKNI@?$AAG?$AAe?$AAt?$AAF?$AAo?$AAr?$AAe?$AAg?$AAr?$AAo?$AAu?$AAn?$AAd?$AAI?$AAn?$AAf?$AAo?$AA?$AA@ 00013da8     shell.obj
 0001:00002dcc       ??_C@_1DE@MKLPNOGO@?$AAG?$AAe?$AAt?$AAW?$AAi?$AAn?$AAd?$AAo?$AAw?$AAC?$AAo?$AAm?$AAp?$AAo?$AAs?$AAi?$AAt?$AAi?$AAo?$AAn?$AAF?$AAl?$AAa?$AAg?$AAs?$AA?$AA@ 00013dcc     shell.obj
 0001:00002e00       ??_C@_1EK@BBFHFODM@?$AAU?$AAn?$AAa?$AAb?$AAl?$AAe?$AA?5?$AAt?$AAo?$AA?5?$AAL?$AAo?$AAa?$AAd?$AAL?$AAi?$AAb?$AAr?$AAa?$AAr?$AAy?$AA?$CI?$AAC?$AAo?$AAr?$AAe?$AAd?$AAl?$AAl?$AA?4?$AAd?$AAl@ 00013e00     shell.obj
 0001:00002e4c       ??_C@_1BI@IENOMFML@?$AAC?$AAO?$AAR?$AAE?$AAD?$AAL?$AAL?$AA?4?$AAD?$AAL?$AAL?$AA?$AA@ 00013e4c     shell.obj
 0001:00002e64       ??_C@_19KLGIPDEL@?$AA?$AN?$AA?6?$AA?$AN?$AA?6?$AA?$AA@ 00013e64     shell.obj
 0001:00002e70       ??_C@_1IA@PDOJDLMI@?$AAC?$AAe?$AAL?$AAo?$AAg?$AA?5?$AAi?$AAs?$AA?5?$AAa?$AAl?$AAr?$AAe?$AAa?$AAd?$AAy?$AA?5?$AAr?$AAu?$AAn?$AAn?$AAi?$AAn?$AAg?$AA?0?$AA?5?$AAb?$AAu?$AAf?$AAf?$AAe?$AAr@ 00013e70     shell.obj
 0001:00002ef0       ??_C@_1FO@DHKODKOG@?$AAC?$AAe?$AAL?$AAo?$AAg?$AA?5?$AAb?$AAu?$AAf?$AAf?$AAe?$AAr?$AA?5?$AAs?$AAi?$AAz?$AAe?$AA?5?$AAs?$AAe?$AAt?$AA?5?$AAt?$AAo?$AA?5?$AA?$CF?$AAu?$AAk?$AAB?$AA?5?$AAi?$AAn@ 00013ef0     shell.obj
 0001:00002f50       ??_C@_1DI@PBDFMDHL@?$AAF?$AAl?$AAu?$AAs?$AAh?$AA?5?$AAa?$AAp?$AAp?$AA?5?$AAi?$AAs?$AA?5?$AAn?$AAo?$AAt?$AA?5?$AAr?$AAu?$AAn?$AAn?$AAi?$AAn?$AAg?$AA?4?$AA?$AN?$AA?6?$AA?$AA@ 00013f50     shell.obj
 0001:00002f88       ??_C@_1DO@LJNLOIBB@?$AAS?$AAi?$AAg?$AAn?$AAa?$AAl?$AAl?$AAe?$AAd?$AA?5?$AAf?$AAl?$AAu?$AAs?$AAh?$AA?5?$AAa?$AAp?$AAp?$AA?5?$AAt?$AAo?$AA?5?$AAe?$AAx?$AAi?$AAt?$AA?4?$AA?$AN?$AA?6?$AA?$AA@ 00013f88     shell.obj
 0001:00002fc8       ??_C@_1CA@HCKJJODG@?$AAS?$AAe?$AAt?$AAC?$AAe?$AAL?$AAo?$AAg?$AAB?$AAu?$AAf?$AAS?$AAi?$AAz?$AAe?$AA?$AA@ 00013fc8     shell.obj
 0001:00002fe8       ??_C@_1BE@IPOEJOON@?$AAF?$AAl?$AAu?$AAs?$AAh?$AAO?$AAn?$AAc?$AAe?$AA?$AA@ 00013fe8     shell.obj
 0001:00002ffc       ??_C@_1BE@JGKIPBKE@?$AAS?$AAt?$AAo?$AAp?$AAF?$AAl?$AAu?$AAs?$AAh?$AA?$AA@ 00013ffc     shell.obj
 0001:00003010       ??_C@_1EA@GFCNDHEA@?$AAU?$AAn?$AAa?$AAb?$AAl?$AAe?$AA?5?$AAt?$AAo?$AA?5?$AAo?$AAp?$AAe?$AAn?$AA?5?$AAS?$AAh?$AAe?$AAl?$AAl?$AAC?$AAe?$AAL?$AAo?$AAg?$AA?4?$AAd?$AAl?$AAl?$AA?$AN?$AA?6?$AA?$AA@ 00014010     shell.obj
 0001:00003050       ??_C@_1BO@FKOAKCFJ@?$AAS?$AAh?$AAe?$AAl?$AAl?$AAC?$AAe?$AAL?$AAo?$AAg?$AA?4?$AAd?$AAl?$AAl?$AA?$AA@ 00014050     shell.obj
 0001:00003070       ??_C@_1IM@HCBFEHIH@?$AAS?$AAy?$AAn?$AAt?$AAa?$AAx?$AA?3?$AA?5?$AA?5?$AA?5?$AAl?$AAo?$AAg?$AA?5?$AA?$FL?$AAl?$AAo?$AAg?$AA_?$AAo?$AAp?$AAt?$AAi?$AAo?$AAn?$AAs?$AA?$FN?$AA?5?$AA?5?$AA?$FL?$AA?$FL?$AAC@ 00014070     shell.obj
 0001:000030fc       ??_C@_1BO@CBGDELO@?$AAl?$AAo?$AAg?$AA_?$AAo?$AAp?$AAt?$AAi?$AAo?$AAn?$AAs?$AA?3?$AA?$AN?$AA?6?$AA?$AA@ 000140fc     shell.obj
 0001:00003120       ??_C@_1JA@LBAEJLCN@?$AA?5?$AA?5?$AA?5?$AA?5?$AA?9?$AAb?$AAu?$AAf?$AA?5?$AA?$DM?$AAs?$AAi?$AAz?$AAe?$AA?$DO?$AA?5?$AA?5?$AA?5?$AA?5?$AA?5?$AA?5?$AA?5?$AA?5?$AA?5?$AA?5?$AA?5?$AA?5?$AAS?$AAe?$AAt?$AA?5?$AAs@ 00014120     shell.obj
 0001:000031b0       ??_C@_1HM@BDNPDECO@?$AA?5?$AA?5?$AA?5?$AA?5?$AA?5?$AA?5?$AA?5?$AA?5?$AA?5?$AA?5?$AA?5?$AA?5?$AA?5?$AA?5?$AA?5?$AA?5?$AA?5?$AA?5?$AA?5?$AA?5?$AA?5?$AA?5?$AA?5?$AA?5?$AA?5?$AA?5?$AA?5?$AAn?$AAo?$AAt?$AA?5?$AAy@ 000141b0     shell.obj
 0001:00003230       ??_C@_1IA@KLJBKLIO@?$AA?5?$AA?5?$AA?5?$AA?5?$AA?9?$AAc?$AAl?$AAe?$AAa?$AAr?$AA?5?$AA?5?$AA?5?$AA?5?$AA?5?$AA?5?$AA?5?$AA?5?$AA?5?$AA?5?$AA?5?$AA?5?$AA?5?$AA?5?$AA?5?$AA?5?$AA?5?$AAD?$AAi?$AAs?$AAc?$AAa@ 00014230     shell.obj
 0001:000032b0       ??_C@_1HK@EJDFKJDK@?$AA?5?$AA?5?$AA?5?$AA?5?$AA?9?$AAf?$AAl?$AAu?$AAs?$AAh?$AA?5?$AA?$FL?$AAf?$AAi?$AAl?$AAe?$AAn?$AAa?$AAm?$AAe?$AA?4?$AAc?$AAl?$AAg?$AA?$FN?$AA?5?$AA?5?$AAF?$AAl?$AAu?$AAs?$AAh@ 000142b0     shell.obj
 0001:00003330       ??_C@_1HO@KEEEFOLN@?$AA?5?$AA?5?$AA?5?$AA?5?$AA?5?$AA?5?$AA?5?$AA?5?$AA?5?$AA?5?$AA?5?$AA?5?$AA?5?$AA?5?$AA?5?$AA?5?$AA?5?$AA?5?$AA?5?$AA?5?$AA?5?$AA?5?$AA?5?$AA?5?$AA?5?$AA?5?$AA?5?$AA?$CI?$AAd?$AAe?$AAf?$AAa@ 00014330     shell.obj
 0001:000033b0       ??_C@_1HM@PJAPKIOP@?$AA?5?$AA?5?$AA?5?$AA?5?$AA?9?$AAs?$AAt?$AAo?$AAp?$AAf?$AAl?$AAu?$AAs?$AAh?$AA?5?$AA?5?$AA?5?$AA?5?$AA?5?$AA?5?$AA?5?$AA?5?$AA?5?$AA?5?$AA?5?$AA?5?$AA?5?$AAS?$AAi?$AAg?$AAn?$AAa@ 000143b0     shell.obj
 0001:00003430       ??_C@_1JM@CBKBKPKA@?$AAZ?$AAo?$AAn?$AAe?$AAs?$AA?3?$AA?5?$AA?5?$AAC?$AAe?$AAL?$AAo?$AAg?$AA?5?$AAz?$AAo?$AAn?$AAe?$AAs?$AA?5?$AA?$CI?$AAh?$AAe?$AAx?$AA?5?$AAo?$AAr?$AA?5?$AAd?$AAe?$AAc?$AAi@ 00014430     shell.obj
 0001:000034cc       ??_C@_1BM@OEFHCLLN@?$AA?$AN?$AA?6?$AAE?$AAx?$AAa?$AAm?$AAp?$AAl?$AAe?$AAs?$AA?3?$AA?$AN?$AA?6?$AA?$AA@ 000144cc     shell.obj
 0001:000034e8       ??_C@_1IA@KHFJJJGG@?$AA?5?$AA?5?$AA?5?$AA?5?$AAl?$AAo?$AAg?$AA?5?$AA0?$AAx?$AA6?$AA3?$AA?5?$AA0?$AAx?$AAF?$AAF?$AAF?$AAF?$AAF?$AAF?$AAF?$AAF?$AA?5?$AA0?$AAx?$AAF?$AAF?$AAF?$AAF?$AAF?$AAF@ 000144e8     shell.obj
 0001:00003568       ??_C@_1HG@JDAIKNNC@?$AA?5?$AA?5?$AA?5?$AA?5?$AAl?$AAo?$AAg?$AA?5?$AA0?$AAx?$AA6?$AA3?$AA?5?$AA?5?$AA?5?$AA?5?$AA?5?$AA?5?$AA?5?$AA?5?$AA?5?$AA?5?$AA?5?$AA?5?$AA?5?$AA?5?$AA?5?$AA?5?$AA?5?$AA?5?$AA?5?$AA?5@ 00014568     shell.obj
 0001:000035e0       ??_C@_1JK@COLJENBI@?$AA?5?$AA?5?$AA?5?$AA?5?$AAl?$AAo?$AAg?$AA?5?$AA?9?$AAb?$AAu?$AAf?$AA?5?$AA0?$AAx?$AA0?$AA0?$AA1?$AA0?$AA0?$AA0?$AA0?$AA0?$AA?5?$AA?5?$AA?5?$AA?5?$AA?5?$AA?5?$AA?5?$AA?5?$AA?5@ 000145e0     shell.obj
 0001:00003680       ??_C@_1GO@BDCMPONP@?$AA?5?$AA?5?$AA?5?$AA?5?$AA?5?$AA?5?$AA?5?$AA?5?$AA?5?$AA?5?$AA?5?$AA?5?$AA?5?$AA?5?$AA?5?$AA?5?$AA?5?$AA?5?$AA?5?$AA?5?$AA?5?$AA?5?$AA?5?$AA?5?$AA?5?$AA?5?$AA?5?$AA?5?$AA?5?$AA?5?$AA?5?$AA?5@ 00014680     shell.obj
 0001:000036f0       ??_C@_1HG@PALHDLAB@?$AA?5?$AA?5?$AA?5?$AA?5?$AAl?$AAo?$AAg?$AA?5?$AA?9?$AAb?$AAu?$AAf?$AA?5?$AA1?$AA0?$AA4?$AA8?$AA5?$AA7?$AA6?$AA?5?$AA?5?$AA?5?$AA?5?$AA?5?$AA?5?$AA?5?$AA?5?$AA?5?$AA?5?$AA?5?$AA?5@ 000146f0     shell.obj
 0001:00003768       ??_C@_1JK@OBNDMFJM@?$AA?5?$AA?5?$AA?5?$AA?5?$AAl?$AAo?$AAg?$AA?5?$AA?9?$AAb?$AAu?$AAf?$AA?5?$AA1?$AA0?$AA4?$AA8?$AA5?$AA7?$AA6?$AA?5?$AA0?$AAx?$AA6?$AA3?$AA?5?$AA?5?$AA?5?$AA?5?$AA?5?$AA?5?$AA?5@ 00014768     shell.obj
 0001:00003808       ??_C@_1JM@FDIOHGKD@?$AA?5?$AA?5?$AA?5?$AA?5?$AAl?$AAo?$AAg?$AA?5?$AA?9?$AAf?$AAl?$AAu?$AAs?$AAh?$AA?5?$AA?2?$AAr?$AAe?$AAl?$AAe?$AAa?$AAs?$AAe?$AA?2?$AAm?$AAy?$AAf?$AAi?$AAl?$AAe?$AA?4?$AAc@ 00014808     shell.obj
 0001:000038a4       ??_C@_1DK@HENIIOCC@?$AAA?$AAv?$AAa?$AAi?$AAl?$AAa?$AAb?$AAl?$AAe?$AA?5?$AAz?$AAo?$AAn?$AAe?$AAs?$AA?3?$AA?5?$AA?5?$AA0?$AAx?$AA?$CF?$AA0?$AA8?$AAX?$AA?$AN?$AA?6?$AA?$AN?$AA?6?$AA?$AA@ 000148a4     shell.obj
 0001:000038e0       ??_C@_1HO@OHDBGLOI@?$AA?$AN?$AA?6?$AAC?$AAu?$AAr?$AAr?$AAe?$AAn?$AAt?$AA?5?$AAC?$AAe?$AAL?$AAo?$AAg?$AA?5?$AAz?$AAo?$AAn?$AAe?$AAs?$AA?3?$AA?5?$AA?5?$AAC?$AAE?$AA?$DN?$AA0?$AAx?$AA?$CF?$AA0?$AA8@ 000148e0     shell.obj
 0001:00003960       ??_C@_1FG@PPJLHKAJ@?$AAC?$AAe?$AAL?$AAo?$AAg?$AA?5?$AAi?$AAs?$AA?5?$AAn?$AAo?$AAt?$AA?5?$AAl?$AAo?$AAa?$AAd?$AAe?$AAd?$AA?0?$AA?5?$AAn?$AAo?$AA?5?$AAd?$AAa?$AAt?$AAa?$AA?5?$AAt?$AAo?$AA?5@ 00014960     shell.obj
 0001:000039b8       ??_C@_1BG@EJMMBDDJ@?$AA?9?$AAs?$AAt?$AAo?$AAp?$AAf?$AAl?$AAu?$AAs?$AAh?$AA?$AA@ 000149b8     shell.obj
 0001:000039d0       ??_C@_1CG@IPDCAPPH@?$AA?2?$AAr?$AAe?$AAl?$AAe?$AAa?$AAs?$AAe?$AA?2?$AAc?$AAe?$AAl?$AAo?$AAg?$AA?4?$AAc?$AAl?$AAg?$AA?$AA@ 000149d0     shell.obj
 0001:000039f8       ??_C@_13NEIAEHFG@?$AA?$CC?$AA?$AA@ 000149f8     shell.obj
 0001:000039fc       ??_C@_1O@MPPKJMNK@?$AA?9?$AAf?$AAl?$AAu?$AAs?$AAh?$AA?$AA@ 000149fc     shell.obj
 0001:00003a0c       ??_C@_1O@FKFIMOIK@?$AA?9?$AAc?$AAl?$AAe?$AAa?$AAr?$AA?$AA@ 00014a0c     shell.obj
 0001:00003a1c       ??_C@_19HBLKIMIC@?$AA?9?$AAb?$AAu?$AAf?$AA?$AA@ 00014a1c     shell.obj
 0001:00003a28       ??_C@_1JO@NKCFNFGN@?$AAm?$AAe?$AAm?$AAt?$AAr?$AAa?$AAc?$AAk?$AA?5?$AAi?$AAs?$AA?5?$AAn?$AAo?$AA?5?$AAl?$AAo?$AAn?$AAg?$AAe?$AAr?$AA?5?$AAs?$AAu?$AAp?$AAp?$AAo?$AAr?$AAt?$AAe?$AAd?$AA?4@ 00014a28     shell.obj
 0001:00003ac8       ??_C@_1EK@DOGGHLH@?$AAH?$AAe?$AAa?$AAp?$AA?5?$AAs?$AAn?$AAa?$AAp?$AAs?$AAh?$AAo?$AAt?$AA?5?$AAf?$AAa?$AAi?$AAl?$AAe?$AAd?$AA?5?$AAf?$AAo?$AAr?$AA?5?$AAP?$AAr?$AAo?$AAc?$AAe?$AAs?$AAs@ 00014ac8     shell.obj
 0001:00003b14       ??_C@_1DC@LBCICBHJ@?$AAH?$AAe?$AAa?$AAp?$AA3?$AA2?$AAL?$AAi?$AAs?$AAt?$AAF?$AAi?$AAr?$AAs?$AAt?$AA?5?$AAf?$AAa?$AAi?$AAl?$AAe?$AAd?$AA?$AN?$AA?6?$AA?$AA@ 00014b14     shell.obj
 0001:00003b48       ??_C@_1FE@EAOKFDED@?$AAN?$AAo?$AA?5?$AAh?$AAe?$AAa?$AAp?$AA?5?$AAl?$AAi?$AAs?$AAt?$AA?5?$AAe?$AAx?$AAi?$AAs?$AAt?$AAs?$AA?5?$AAf?$AAo?$AAr?$AA?5?$AAt?$AAh?$AAi?$AAs?$AA?5?$AAp?$AAr?$AAo@ 00014b48     shell.obj
 0001:00003ba0       ??_C@_1GI@PLHMGCML@?$AAP?$AAr?$AAo?$AAc?$AAe?$AAs?$AAs?$AA?5?$AA0?$AAx?$AA?$CF?$AA0?$AA8?$AAx?$AA?3?$AA?5?$AAT?$AAo?$AAt?$AAa?$AAl?$AA?5?$AA?$CF?$AA5?$AAd?$AA?5?$AAb?$AAy?$AAt?$AAe?$AAs?$AA?5@ 00014ba0     shell.obj
 0001:00003c08       ??_C@_1IG@FCMILFDB@?$AAP?$AAr?$AAo?$AAc?$AAe?$AAs?$AAs?$AA?5?$AA0?$AAx?$AA?$CF?$AA0?$AA8?$AAx?$AA?5?$AAH?$AAe?$AAa?$AAp?$AA?5?$AA0?$AAx?$AA?$CF?$AA0?$AA8?$AAx?$AA?3?$AA?5?$AA?$CF?$AA5?$AAd?$AA?5@ 00014c08     shell.obj
 0001:00003c90       ??_C@_1GK@EEPBENEH@?$AAP?$AAr?$AAo?$AAc?$AAe?$AAs?$AAs?$AA?5?$AA0?$AAx?$AA?$CF?$AA0?$AA8?$AAx?$AA?5?$AAH?$AAe?$AAa?$AAp?$AA?5?$AA0?$AAx?$AA?$CF?$AA0?$AA8?$AAx?$AA?3?$AA?5?$AA?$CF?$AA5?$AAd?$AA?5@ 00014c90     shell.obj
 0001:00003cfc       ??_C@_11LOCGONAA@?$AA?$AA@ 00014cfc     shell.obj
 0001:00003d00       ??_C@_1O@PIKCKMBJ@?$AA?$CI?$AAf?$AAr?$AAe?$AAe?$AA?$CJ?$AA?$AA@ 00014d00     shell.obj
 0001:00003d10       ??_C@_1M@MFIPPFLP@?$AAf?$AAr?$AAe?$AAe?$AAd?$AA?$AA@ 00014d10     shell.obj
 0001:00003d1c       ??_C@_1CM@DHFFBCKA@?$AAP?$AAr?$AAo?$AAc?$AAe?$AAs?$AAs?$AA?5?$AAn?$AAo?$AAt?$AA?5?$AAf?$AAo?$AAu?$AAn?$AAd?$AA?$AN?$AA?6?$AA?$AN?$AA?6?$AA?$AA@ 00014d1c     shell.obj
 0001:00003d48       ??_C@_1FE@PABDGJBG@?$AAS?$AAy?$AAn?$AAt?$AAa?$AAx?$AA?3?$AA?5?$AAh?$AAd?$AA?5?$AA?$DM?$AAp?$AAr?$AAo?$AAc?$AAi?$AAd?$AA?$DO?$AA?5?$AAo?$AAr?$AA?5?$AAh?$AAd?$AA?5?$AA?$DM?$AAp?$AAr?$AAo?$AAc?$AAn@ 00014d48     shell.obj
 0001:00003d9c       ??_C@_1CM@FOCBKJIB@?$AA?5?$AA?5?$AA?5?$AA?5?$AA?5?$AAT?$AAi?$AAm?$AAe?$AAs?$AAt?$AAa?$AAm?$AAp?$AA?5?$AA?3?$AA?5?$AA?$CF?$AAs?$AA?$AN?$AA?6?$AA?$AA@ 00014d9c     shell.obj
 0001:00003dc8       ??_C@_1BG@GJEAOIOK@?$AAO?$AAp?$AAt?$AAi?$AAo?$AAn?$AAs?$AA?3?$AA?$AN?$AA?6?$AA?$AA@ 00014dc8     shell.obj
 0001:00003de0       ??_C@_1DC@ONCNBOLJ@?$AAU?$AAn?$AAe?$AAx?$AAp?$AAe?$AAc?$AAt?$AAe?$AAd?$AA?5?$AAo?$AAp?$AAt?$AAi?$AAo?$AAn?$AA?5?$AA?8?$AA?$CF?$AAs?$AA?8?$AA?$AN?$AA?6?$AA?$AA@ 00014de0     shell.obj
 0001:00003e14       ??_C@_1BI@LJIOJEGE@?$AAk?$AAe?$AAr?$AAn?$AAn?$AAo?$AAf?$AAa?$AAu?$AAl?$AAt?$AA?$AA@ 00014e14     shell.obj
 0001:00003e2c       ??_C@_1BE@HHHMCLML@?$AAk?$AAe?$AAr?$AAn?$AAf?$AAa?$AAu?$AAl?$AAt?$AA?$AA@ 00014e2c     shell.obj
 0001:00003e40       ??_C@_1CM@NIFBAKB@?$AAC?$AAu?$AAr?$AAr?$AAe?$AAn?$AAt?$AA?5?$AAp?$AAr?$AAi?$AAo?$AAr?$AAi?$AAt?$AAy?$AA?$DN?$AA?$CF?$AAd?$AA?$AN?$AA?6?$AA?$AA@ 00014e40     shell.obj
 0001:00003e6c       ??_C@_1DC@GBCHMFIN@?$AAI?$AAn?$AAv?$AAa?$AAl?$AAi?$AAd?$AA?5?$AAp?$AAr?$AAi?$AAo?$AAr?$AAi?$AAt?$AAy?$AA?5?$AAv?$AAa?$AAl?$AAu?$AAe?$AA?$AN?$AA?6?$AA?$AA@ 00014e6c     shell.obj
 0001:00003ea0       ??_C@_1CK@MPKOMMPP@?$AAP?$AAr?$AAi?$AAo?$AAr?$AAi?$AAt?$AAy?$AA?5?$AAs?$AAe?$AAt?$AA?5?$AAt?$AAo?$AA?5?$AA?$CF?$AAd?$AA?$AN?$AA?6?$AA?$AA@ 00014ea0     shell.obj
 0001:00003ecc       ??_C@_1BC@MKJLPPGE@?$AAp?$AAr?$AAi?$AAo?$AAr?$AAi?$AAt?$AAy?$AA?$AA@ 00014ecc     shell.obj
 0001:00003ee0       ??_C@_1CC@GEBAENDD@?$AAT?$AAi?$AAm?$AAe?$AAs?$AAt?$AAa?$AAm?$AAp?$AA?5?$AA?3?$AA?5?$AA?$CF?$AAs?$AA?$AN?$AA?6?$AA?$AA@ 00014ee0     shell.obj
 0001:00003f04       ??_C@_17KKIALEEP@?$AAO?$AAf?$AAf?$AA?$AA@ 00014f04     shell.obj
 0001:00003f0c       ??_C@_15GLMKGGNF@?$AAO?$AAn?$AA?$AA@ 00014f0c     shell.obj
 0001:00003f14       ??_C@_1BE@DJNKEAOP@?$AAt?$AAi?$AAm?$AAe?$AAs?$AAt?$AAa?$AAm?$AAp?$AA?$AA@ 00014f14     shell.obj
 0001:00003f28       ??_C@_1HC@CMOAAGDC@?$AAU?$AAn?$AAa?$AAb?$AAl?$AAe?$AA?5?$AAt?$AAo?$AA?5?$AAf?$AAi?$AAn?$AAd?$AA?5?$AAG?$AAw?$AAe?$AAs?$AAP?$AAo?$AAw?$AAe?$AAr?$AAO?$AAf?$AAf?$AAS?$AAy?$AAs?$AAt?$AAe@ 00014f28     shell.obj
 0001:00003f9c       ??_C@_1CG@NHFPBCOH@?$AAG?$AAw?$AAe?$AAs?$AAP?$AAo?$AAw?$AAe?$AAr?$AAO?$AAf?$AAf?$AAS?$AAy?$AAs?$AAt?$AAe?$AAm?$AA?$AA@ 00014f9c     shell.obj
 0001:00003fc8       ??_C@_1IG@CHPJJDKM@?$AAS?$AAy?$AAn?$AAt?$AAa?$AAx?$AA?3?$AA?5?$AAp?$AAr?$AAo?$AAf?$AA?5?$AA?$DM?$AAo?$AAn?$AA?$HM?$AAo?$AAf?$AAf?$AA?$DO?$AA?5?$AA?$FL?$AAd?$AAa?$AAt?$AAa?$AA_?$AAt?$AAy?$AAp?$AAe@ 00014fc8     shell.obj
 0001:00004050       ??_C@_1EI@FHCEFICF@?$AAd?$AAa?$AAt?$AAa?$AA_?$AAt?$AAy?$AAp?$AAe?$AA?0?$AA?5?$AAo?$AAn?$AAe?$AA?5?$AAo?$AAf?$AA?3?$AA?5?$AA?9?$AAm?$AA?5?$AAo?$AAr?$AA?5?$AA?9?$AAs?$AA?5?$AAo?$AAr?$AA?5?$AA?9@ 00015050     shell.obj
 0001:00004098       ??_C@_1IE@ELMODCHF@?$AA?5?$AA?5?$AA?5?$AA?5?$AA?9?$AAm?$AA?3?$AA?5?$AAG?$AAa?$AAt?$AAh?$AAe?$AAr?$AA?5?$AAM?$AAo?$AAn?$AAt?$AAe?$AA?5?$AAC?$AAa?$AAr?$AAl?$AAo?$AA?5?$AAd?$AAa?$AAt?$AAa?$AA?5@ 00015098     shell.obj
 0001:00004120       ??_C@_1HA@FGGJIJLI@?$AA?5?$AA?5?$AA?5?$AA?5?$AA?9?$AAs?$AA?3?$AA?5?$AAG?$AAa?$AAt?$AAh?$AAe?$AAr?$AA?5?$AAS?$AAy?$AAs?$AAt?$AAe?$AAm?$AA?5?$AAC?$AAa?$AAl?$AAl?$AA?5?$AAd?$AAa?$AAt?$AAa?$AA?5@ 00015120     shell.obj
 0001:00004190       ??_C@_1HA@LFEEHAEE@?$AA?5?$AA?5?$AA?5?$AA?5?$AA?9?$AAk?$AA?3?$AA?5?$AAG?$AAa?$AAt?$AAh?$AAe?$AAr?$AA?5?$AAK?$AAe?$AAr?$AAn?$AAe?$AAl?$AA?5?$AAC?$AAa?$AAl?$AAl?$AA?5?$AAd?$AAa?$AAt?$AAa?$AA?5@ 00015190     shell.obj
 0001:00004200       ??_C@_1EO@PLEDPAEO@?$AAs?$AAt?$AAo?$AAr?$AAa?$AAg?$AAe?$AA_?$AAt?$AAy?$AAp?$AAe?$AA?0?$AA?5?$AAo?$AAn?$AAe?$AA?5?$AAo?$AAf?$AA?3?$AA?5?$AA?9?$AAb?$AA?5?$AAo?$AAr?$AA?5?$AA?9?$AAu?$AA?5?$AAo@ 00015200     shell.obj
 0001:00004250       ??_C@_1DK@KEEGIENJ@?$AA?5?$AA?5?$AA?5?$AA?5?$AA?9?$AAb?$AA?3?$AA?5?$AAB?$AAu?$AAf?$AAf?$AAe?$AAr?$AAe?$AAd?$AA?5?$AA?$CI?$AAD?$AAE?$AAF?$AAA?$AAU?$AAL?$AAT?$AA?$CJ?$AA?$AN?$AA?6?$AA?$AA@ 00015250     shell.obj
 0001:0000428c       ??_C@_1CK@PDBEMODA@?$AA?5?$AA?5?$AA?5?$AA?5?$AA?9?$AAu?$AA?3?$AA?5?$AAU?$AAn?$AAb?$AAu?$AAf?$AAf?$AAe?$AAr?$AAe?$AAd?$AA?$AN?$AA?6?$AA?$AA@ 0001528c     shell.obj
 0001:000042b8       ??_C@_1HI@OJICPEPE@?$AA?5?$AA?5?$AA?5?$AA?5?$AA?9?$AAl?$AA?3?$AA?5?$AAS?$AAe?$AAn?$AAd?$AA?5?$AAd?$AAa?$AAt?$AAa?$AA?5?$AAt?$AAo?$AA?5?$AAC?$AAe?$AAL?$AAo?$AAg?$AA?0?$AA?5?$AAa?$AAd?$AAd?$AAi@ 000152b8     shell.obj
 0001:00004330       ??_C@_1CC@CFKDOMOO@?$AAo?$AAt?$AAh?$AAe?$AAr?$AA_?$AAo?$AAp?$AAt?$AAi?$AAo?$AAn?$AAs?$AA?3?$AA?$AN?$AA?6?$AA?$AA@ 00015330     shell.obj
 0001:00004358       ??_C@_1JA@GLHPFFOM@?$AA?5?$AA?5?$AA?5?$AA?5?$AA?9?$AAi?$AA?5?$AA?$DM?$AAi?$AAn?$AAt?$AAe?$AAr?$AAv?$AAa?$AAl?$AA?$DO?$AA?5?$AA?5?$AA?5?$AA?5?$AA?5?$AA?5?$AA?5?$AA?5?$AA?5?$AA?5?$AAS?$AAe?$AAt?$AA?5?$AAt@ 00015358     shell.obj
 0001:000043e8       ??_C@_1FM@EAIBBHCK@?$AA?5?$AA?5?$AA?5?$AA?5?$AA?5?$AA?5?$AA?5?$AA?5?$AA?5?$AA?5?$AA?5?$AA?5?$AA?5?$AA?5?$AA?5?$AA?5?$AA?5?$AA?5?$AA?5?$AA?5?$AA?5?$AA?5?$AA?5?$AA?5?$AA?5?$AA?5?$AA?5?$AA?$CI?$AAh?$AAe?$AAx?$AA?5@ 000153e8     shell.obj
 0001:00004448       ??_C@_1JA@MEDCKAIM@?$AA?5?$AA?5?$AA?5?$AA?5?$AA?9?$AAt?$AA?5?$AA?5?$AA?5?$AA?5?$AA?5?$AA?5?$AA?5?$AA?5?$AA?5?$AA?5?$AA?5?$AA?5?$AA?5?$AA?5?$AA?5?$AA?5?$AA?5?$AA?5?$AA?5?$AA?5?$AA?5?$AAP?$AAr?$AAo?$AAf?$AAi@ 00015448     shell.obj
 0001:000044d8       ??_C@_1JE@MCLLBIMO@?$AA?5?$AA?5?$AA?5?$AA?5?$AA?5?$AA?5?$AA?5?$AA?5?$AA?5?$AA?5?$AA?5?$AA?5?$AA?5?$AA?5?$AA?5?$AA?5?$AA?5?$AA?5?$AA?5?$AA?5?$AA?5?$AA?5?$AA?5?$AA?5?$AA?5?$AA?5?$AA?5?$AAb?$AAy?$AA?5?$AAs?$AAa@ 000154d8     shell.obj
 0001:00004570       ??_C@_1IE@EGILPJLC@?$AAT?$AAh?$AAe?$AA?5?$AAf?$AAo?$AAl?$AAl?$AAo?$AAw?$AAi?$AAn?$AAg?$AA?5?$AAo?$AAp?$AAt?$AAi?$AAo?$AAn?$AAs?$AA?5?$AAa?$AAr?$AAe?$AA?5?$AAo?$AAn?$AAl?$AAy?$AA?5?$AAa@ 00015570     shell.obj
 0001:000045f8       ??_C@_1IO@MJPAAFBK@?$AA?5?$AA?5?$AA?5?$AA?5?$AA?9?$AAc?$AAl?$AAe?$AAa?$AAr?$AA?5?$AA?5?$AA?5?$AA?5?$AA?5?$AA?5?$AA?5?$AA?5?$AA?5?$AA?5?$AA?5?$AA?5?$AA?5?$AA?5?$AA?5?$AA?5?$AA?5?$AA?$CI?$AA?$CC?$AAp?$AAr?$AAo@ 000155f8     shell.obj
 0001:00004688       ??_C@_1FI@JMFFOPDI@?$AA?5?$AA?5?$AA?5?$AA?5?$AA?5?$AA?5?$AA?5?$AA?5?$AA?5?$AA?5?$AA?5?$AA?5?$AA?5?$AA?5?$AA?5?$AA?5?$AA?5?$AA?5?$AA?5?$AA?5?$AA?5?$AA?5?$AA?5?$AA?5?$AA?5?$AA?5?$AA?5?$AAs?$AAt?$AAa?$AAr?$AAt@ 00015688     shell.obj
 0001:000046e0       ??_C@_1IG@PJHKBMGH@?$AA?5?$AA?5?$AA?5?$AA?5?$AA?9?$AAf?$AAl?$AAu?$AAs?$AAh?$AA?5?$AA?$FL?$AAf?$AAi?$AAl?$AAe?$AAn?$AAa?$AAm?$AAe?$AA?4?$AAc?$AAl?$AAg?$AA?$FN?$AA?5?$AA?5?$AA?$CI?$AA?$CC?$AAp?$AAr?$AAo@ 000156e0     shell.obj
 0001:00004768       ??_C@_1HI@HGFLIGPG@?$AA?5?$AA?5?$AA?5?$AA?5?$AA?5?$AA?5?$AA?5?$AA?5?$AA?5?$AA?5?$AA?5?$AA?5?$AA?5?$AA?5?$AA?5?$AA?5?$AA?5?$AA?5?$AA?5?$AA?5?$AA?5?$AA?5?$AA?5?$AA?5?$AA?5?$AA?5?$AA?5?$AAf?$AAl?$AAu?$AAs?$AAh@ 00015768     shell.obj
 0001:000047e0       ??_C@_1IE@PMPPHPNB@?$AA?5?$AA?5?$AA?5?$AA?5?$AAp?$AAr?$AAo?$AAf?$AA?5?$AAo?$AAn?$AA?5?$AA?5?$AA?5?$AA?5?$AA?5?$AA?5?$AA?5?$AA?5?$AA?5?$AA?5?$AA?5?$AA?5?$AA?5?$AA?5?$AA?5?$AA?5?$AA?5?$AA?5?$AA?5?$AAS?$AAt@ 000157e0     shell.obj
 0001:00004868       ??_C@_1FM@PIGICHJO@?$AA?5?$AA?5?$AA?5?$AA?5?$AA?5?$AA?5?$AA?5?$AA?5?$AA?5?$AA?5?$AA?5?$AA?5?$AA?5?$AA?5?$AA?5?$AA?5?$AA?5?$AA?5?$AA?5?$AA?5?$AA?5?$AA?5?$AA?5?$AA?5?$AA?5?$AA?5?$AA?5?$AA?5?$AA?5?$AA?5?$AAb?$AAu@ 00015868     shell.obj
 0001:000048c8       ??_C@_1HM@PPPHLECF@?$AA?5?$AA?5?$AA?5?$AA?5?$AAp?$AAr?$AAo?$AAf?$AA?5?$AAo?$AAn?$AA?5?$AA?9?$AAs?$AA?5?$AA?9?$AAu?$AA?5?$AA?5?$AA?5?$AA?5?$AA?5?$AA?5?$AA?5?$AA?5?$AA?5?$AA?5?$AA?5?$AA?5?$AA?5?$AAS?$AAt@ 000158c8     shell.obj
 0001:00004948       ??_C@_1GA@JNDKCACM@?$AA?5?$AA?5?$AA?5?$AA?5?$AA?5?$AA?5?$AA?5?$AA?5?$AA?5?$AA?5?$AA?5?$AA?5?$AA?5?$AA?5?$AA?5?$AA?5?$AA?5?$AA?5?$AA?5?$AA?5?$AA?5?$AA?5?$AA?5?$AA?5?$AA?5?$AA?5?$AA?5?$AA?5?$AA?5?$AA?5?$AAu?$AAn@ 00015948     shell.obj
 0001:000049a8       ??_C@_1GA@LKILMDLO@?$AA?5?$AA?5?$AA?5?$AA?5?$AAp?$AAr?$AAo?$AAf?$AA?5?$AAo?$AAf?$AAf?$AA?5?$AA?5?$AA?5?$AA?5?$AA?5?$AA?5?$AA?5?$AA?5?$AA?5?$AA?5?$AA?5?$AA?5?$AA?5?$AA?5?$AA?5?$AA?5?$AA?5?$AA?5?$AAS?$AAt@ 000159a8     shell.obj
 0001:00004a08       ??_C@_1JK@GLMKCKIN@?$AA?5?$AA?5?$AA?5?$AA?5?$AAp?$AAr?$AAo?$AAf?$AA?5?$AAo?$AAn?$AA?5?$AA?9?$AAl?$AA?5?$AA?5?$AA?5?$AA?5?$AA?5?$AA?5?$AA?5?$AA?5?$AA?5?$AA?5?$AA?5?$AA?5?$AA?5?$AA?5?$AA?5?$AA?5?$AAS?$AAt@ 00015a08     shell.obj
 0001:00004aa8       ??_C@_1JK@PKOBCJCJ@?$AA?5?$AA?5?$AA?5?$AA?5?$AAp?$AAr?$AAo?$AAf?$AA?5?$AAo?$AAn?$AA?5?$AA?9?$AAl?$AA?5?$AA?9?$AAb?$AAu?$AAf?$AA?5?$AA0?$AAx?$AA1?$AA0?$AA0?$AA0?$AA0?$AA0?$AA?5?$AA?5?$AAS?$AAt@ 00015aa8     shell.obj
 0001:00004b48       ??_C@_1GM@DDDPHDOK@?$AA?5?$AA?5?$AA?5?$AA?5?$AA?5?$AA?5?$AA?5?$AA?5?$AA?5?$AA?5?$AA?5?$AA?5?$AA?5?$AA?5?$AA?5?$AA?5?$AA?5?$AA?5?$AA?5?$AA?5?$AA?5?$AA?5?$AA?5?$AA?5?$AA?5?$AA?5?$AA?5?$AA?5?$AA?5?$AA?5?$AAw?$AAi@ 00015b48     shell.obj
 0001:00004bb8       ??_C@_1GG@GBKBNGHP@?$AA?5?$AA?5?$AA?5?$AA?5?$AAp?$AAr?$AAo?$AAf?$AA?5?$AAo?$AAn?$AA?5?$AA?9?$AAl?$AA?5?$AA?9?$AAb?$AAu?$AAf?$AA?5?$AA1?$AA0?$AA4?$AA8?$AA5?$AA7?$AA6?$AA?5?$AA?5?$AA?5?$AA?$CI?$AAs@ 00015bb8     shell.obj
 0001:00004c20       ??_C@_1JC@BGKOCFDC@?$AA?5?$AA?5?$AA?5?$AA?5?$AAp?$AAr?$AAo?$AAf?$AA?5?$AAo?$AAn?$AA?5?$AA?9?$AAl?$AA?5?$AA?9?$AAc?$AAl?$AAe?$AAa?$AAr?$AA?5?$AA?5?$AA?5?$AA?5?$AA?5?$AA?5?$AA?5?$AA?5?$AA?5?$AAC?$AAl@ 00015c20     shell.obj
 0001:00004cb8       ??_C@_1HO@GANDKOAP@?$AA?5?$AA?5?$AA?5?$AA?5?$AA?5?$AA?5?$AA?5?$AA?5?$AA?5?$AA?5?$AA?5?$AA?5?$AA?5?$AA?5?$AA?5?$AA?5?$AA?5?$AA?5?$AA?5?$AA?5?$AA?5?$AA?5?$AA?5?$AA?5?$AA?5?$AA?5?$AA?5?$AA?5?$AA?5?$AA?5?$AAM?$AAo@ 00015cb8     shell.obj
 0001:00004d38       ??_C@_1JK@PCJOGBFB@?$AA?5?$AA?5?$AA?5?$AA?5?$AAp?$AAr?$AAo?$AAf?$AA?5?$AAo?$AAf?$AAf?$AA?5?$AA?9?$AAf?$AAl?$AAu?$AAs?$AAh?$AA?5?$AA?5?$AA?5?$AA?5?$AA?5?$AA?5?$AA?5?$AA?5?$AA?5?$AA?5?$AA?5?$AAS?$AAt@ 00015d38     shell.obj
 0001:00004dd8       ??_C@_1GA@DDIBNMH@?$AA?$CC?$AA?9?$AAc?$AAl?$AAe?$AAa?$AAr?$AA?$CC?$AA?5?$AAo?$AAp?$AAt?$AAi?$AAo?$AAn?$AA?5?$AAi?$AAg?$AAn?$AAo?$AAr?$AAe?$AAd?$AA?0?$AA?5?$AAo?$AAn?$AAl?$AAy?$AA?5?$AAu?$AAs@ 00015dd8     shell.obj
 0001:00004e38       ??_C@_1FI@LPINEJLA@?$AAB?$AAu?$AAf?$AAf?$AAe?$AAr?$AA?5?$AAs?$AAi?$AAz?$AAe?$AA?5?$AAi?$AAg?$AAn?$AAo?$AAr?$AAe?$AAd?$AA?0?$AA?5?$AAo?$AAn?$AAl?$AAy?$AA?5?$AAu?$AAs?$AAe?$AAd?$AA?5?$AAw@ 00015e38     shell.obj
 0001:00004e90       ??_C@_1O@FKBLPFA@?$AAi?$AAn?$AAp?$AAr?$AAo?$AAc?$AA?$AA@ 00015e90     shell.obj
 0001:00004ea0       ??_C@_1O@IGKKFFIO@?$AA?9?$AAs?$AAt?$AAa?$AAc?$AAk?$AA?$AA@ 00015ea0     shell.obj
 0001:00004eb0       ??_C@_15BBFCHPHP@?$AA?9?$AAt?$AA?$AA@ 00015eb0     shell.obj
 0001:00004eb8       ??_C@_15LDCBPADN@?$AA?9?$AAi?$AA?$AA@ 00015eb8     shell.obj
 0001:00004ec0       ??_C@_15IEPPAAAP@?$AA?9?$AAl?$AA?$AA@ 00015ec0     shell.obj
 0001:00004ec8       ??_C@_15KJOOBIBK@?$AA?9?$AAu?$AA?$AA@ 00015ec8     shell.obj
 0001:00004ed0       ??_C@_15GECAHHDM@?$AA?9?$AAb?$AA?$AA@ 00015ed0     shell.obj
 0001:00004ed8       ??_C@_15BJCIDILG@?$AA?9?$AAk?$AA?$AA@ 00015ed8     shell.obj
 0001:00004ee0       ??_C@_15IMIFEHMG@?$AA?9?$AAs?$AA?$AA@ 00015ee0     shell.obj
 0001:00004ee8       ??_C@_15DMEDGHGK@?$AA?9?$AAm?$AA?$AA@ 00015ee8     shell.obj
 0001:00004ef0       ??_C@_17FDPGNGBJ@?$AAo?$AAf?$AAf?$AA?$AA@ 00015ef0     shell.obj
 0001:00004ef8       ??_C@_1HA@BKCDFIPH@?$AAl?$AAo?$AAa?$AAd?$AAe?$AAx?$AAt?$AA?5?$AA?$FL?$AA?$FL?$AA?9?$AAu?$AA?$FN?$AA?5?$AAD?$AAL?$AAL?$AAN?$AAa?$AAm?$AAe?$AA?$FN?$AA?5?$AA?3?$AA?5?$AAL?$AAo?$AAa?$AAd?$AA?5?$AAs?$AAh@ 00015ef8     shell.obj
 0001:00004f68       ??_C@_1EA@FNNHEAHK@?$AA?5?$AA?5?$AA?5?$AA?5?$AA?9?$AAu?$AA?5?$AA?3?$AA?5?$AAu?$AAn?$AAl?$AAo?$AAa?$AAd?$AA?5?$AAe?$AAx?$AAt?$AAe?$AAn?$AAs?$AAi?$AAo?$AAn?$AA?5?$AAd?$AAl?$AAl?$AA?$AN?$AA?6?$AA?$AA@ 00015f68     shell.obj
 0001:00004fa8       ??_C@_1HA@NBHBFHH@?$AA?5?$AA?5?$AA?5?$AA?5?$AAD?$AAL?$AAL?$AAN?$AAa?$AAm?$AAe?$AA?5?$AA?3?$AA?5?$AAn?$AAa?$AAm?$AAe?$AA?5?$AAo?$AAf?$AA?5?$AAD?$AAL?$AAL?$AA?5?$AAt?$AAo?$AA?5?$AAl?$AAo?$AAa@ 00015fa8     shell.obj
 0001:00005018       ??_C@_1CI@MGJANHDD@?$AA?5?$AA?5?$AAD?$AAL?$AAL?$AA?$DN?$AA?$CF?$AAs?$AA?0?$AA?5?$AAN?$AAa?$AAm?$AAe?$AA?$DN?$AA?$CF?$AAs?$AA?$AN?$AA?6?$AA?$AA@ 00016018     shell.obj
 0001:00005040       ??_C@_1GI@IELDOAEL@?$AAI?$AAn?$AAv?$AAa?$AAl?$AAi?$AAd?$AA?5?$AAp?$AAa?$AAr?$AAa?$AAm?$AAe?$AAt?$AAe?$AAr?$AA?4?$AA?5?$AAT?$AAh?$AAr?$AAe?$AAa?$AAd?$AAI?$AAd?$AA?3?$AA?5?$AA0?$AAx?$AA?$CF@ 00016040     shell.obj
 0001:000050a8       ??_C@_1FG@MHJNFJLH@?$AAI?$AAn?$AAv?$AAa?$AAl?$AAi?$AAd?$AA?5?$AAp?$AAr?$AAi?$AAo?$AAr?$AAi?$AAt?$AAy?$AA?5?$AAf?$AAo?$AAr?$AA?5?$AAT?$AAh?$AAr?$AAe?$AAa?$AAd?$AA?5?$AAi?$AAd?$AA?5?$AA0@ 000160a8     shell.obj
 0001:00005100       ??_C@_1DK@ONACMENB@?$AAI?$AAn?$AAv?$AAa?$AAl?$AAi?$AAd?$AA?5?$AAT?$AAh?$AAr?$AAe?$AAa?$AAd?$AA?5?$AAi?$AAd?$AA?5?$AA0?$AAx?$AA?$CF?$AA8?$AA?4?$AA8?$AAl?$AAx?$AA?$AN?$AA?6?$AA?$AA@ 00016100     shell.obj
 0001:00005140       ??_C@_1EK@KELKKCMK@?$AAT?$AAh?$AAr?$AAe?$AAa?$AAd?$AA?5?$AA0?$AAx?$AA?$CF?$AA0?$AA8?$AAx?$AA?5?$AAc?$AAu?$AAr?$AAr?$AAe?$AAn?$AAt?$AA?5?$AAp?$AAr?$AAi?$AAo?$AAr?$AAi?$AAt?$AAy?$AA?3?$AA?5@ 00016140     shell.obj
 0001:00005190       ??_C@_1EG@IDAOBJEL@?$AAT?$AAh?$AAr?$AAe?$AAa?$AAd?$AA?5?$AA0?$AAx?$AA?$CF?$AA0?$AA8?$AAx?$AA?5?$AAp?$AAr?$AAi?$AAo?$AAr?$AAi?$AAt?$AAy?$AA?5?$AA?9?$AA?9?$AA?$DO?$AA?5?$AA?$CF?$AAd?$AA?5?$AA?$CF?$AAs@ 00016190     shell.obj
 0001:000051d8       ??_C@_1O@GLIHGOJN@?$AAF?$AAA?$AAI?$AAL?$AAE?$AAD?$AA?$AA@ 000161d8     shell.obj
 0001:000051e8       ??_C@_15PMCGDJNJ@?$AAO?$AAK?$AA?$AA@ 000161e8     shell.obj
 0001:000051f0       ??_C@_1BE@IHLEOIJF@?$AAk?$AAi?$AAt?$AAl?$AAt?$AAi?$AAm?$AAe?$AAr?$AA?$AA@ 000161f0     shell.obj
 0001:00005204       ??_C@_1BC@BEPKPPB@?$AAk?$AAi?$AAt?$AAl?$AAi?$AAn?$AAt?$AAr?$AA?$AA@ 00016204     shell.obj
 0001:00005218       ??_C@_1BJO@JIPAMJBP@?$AAA?$AAt?$AAt?$AAr?$AAi?$AAb?$AAu?$AAt?$AAe?$AAs?$AA?5?$AA?5?$AA?5?$AA?5?$AAF?$AAi?$AAl?$AAe?$AAS?$AAi?$AAz?$AAe?$AA?$CI?$AAb?$AA?$CJ?$AA?5?$AA?5?$AA?5?$AAC?$AAr?$AAe?$AAa@ 00016218     shell.obj
 0001:000053b8       ??_C@_1DM@MPMLPEJP@?$AA0?$AAx?$AA?$CF?$AA0?$AA8?$AAX?$AA?5?$AA0?$AAx?$AA?$CF?$AA0?$AA8?$AAX?$AA?5?$AA?$CF?$AA?9?$AA5?$AAs?$AA?5?$AA?$CF?$AAs?$AA?4?$AA?$CF?$AAs?$AA?4?$AA?$CF?$AAs?$AA?$AN?$AA?6?$AA?$AA@ 000163b8     shell.obj
 0001:000053f4       ??_C@_17KACEIPNC@?$AAK?$AAe?$AAy?$AA?$AA@ 000163f4     shell.obj
 0001:000053fc       ??_C@_17NDAAHGAG@?$AAB?$AAu?$AAs?$AA?$AA@ 000163fc     shell.obj
 0001:00005404       ??_C@_19DINFBLAK@?$AAN?$AAa?$AAm?$AAe?$AA?$AA@ 00016404     shell.obj
 0001:00005410       ??_C@_1M@MEPEDHJF@?$AAL?$AAe?$AAg?$AAc?$AAy?$AA?$AA@ 00016410     shell.obj
 0001:0000541c       ??_C@_1O@GKMMPFJ@?$AAP?$AAa?$AAr?$AAe?$AAn?$AAt?$AA?$AA@ 0001641c     shell.obj
 0001:0000542c       ??_C@_1BA@DNJECCII@?$AAD?$AAe?$AAv?$AAH?$AAa?$AAn?$AAd?$AA?$AA@ 0001642c     shell.obj
 0001:0000543c       ??_C@_1DI@IJLDENFA@?$AA?$CF?$AA?9?$AA1?$AA0?$AAs?$AA?5?$AA?$CF?$AA?9?$AA1?$AA0?$AAs?$AA?5?$AA?$CF?$AA?9?$AA5?$AAs?$AA?5?$AA?$CF?$AAs?$AA?4?$AA?$CF?$AAs?$AA?4?$AA?$CF?$AAs?$AA?$AN?$AA?6?$AA?$AA@ 0001643c     shell.obj
 0001:00005474       ??_C@_13BBDEGPLJ@?$AA?$CK?$AA?$AA@ 00016474     shell.obj
 0001:00005478       ??_C@_1JG@HLCKFJNB@?$AAU?$AAn?$AAa?$AAb?$AAl?$AAe?$AA?5?$AAt?$AAo?$AA?5?$AAG?$AAe?$AAt?$AAP?$AAr?$AAo?$AAc?$AAA?$AAd?$AAd?$AAr?$AAe?$AAs?$AAs?$AA?5?$AAo?$AAf?$AA?5?$AAF?$AAi?$AAn?$AAd@ 00016478     shell.obj
 0001:00005510       ??_C@_1CA@BMPJKBNO@?$AAF?$AAi?$AAn?$AAd?$AAF?$AAi?$AAr?$AAs?$AAt?$AAD?$AAe?$AAv?$AAi?$AAc?$AAe?$AA?$AA@ 00016510     shell.obj
 0001:00005530       ??_C@_1BO@CHMFNMMO@?$AAF?$AAi?$AAn?$AAd?$AAN?$AAe?$AAx?$AAt?$AAD?$AAe?$AAv?$AAi?$AAc?$AAe?$AA?$AA@ 00016530     shell.obj
 0001:00005550       ??_C@_1BE@NGCILJKF@?$AAF?$AAi?$AAn?$AAd?$AAC?$AAl?$AAo?$AAs?$AAe?$AA?$AA@ 00016550     shell.obj
 0001:00005564       ??_C@_1BI@MOEHKCGH@?$AAW?$AAi?$AAn?$AAd?$AAo?$AAw?$AAs?$AA?5?$AAC?$AAE?$AA?$DO?$AA?$AA@ 00016564     shell.obj
 0001:0000557c       ??_C@_1BO@CIOBIKHG@?$AAM?$AAa?$AAi?$AAn?$AAT?$AAh?$AAr?$AAe?$AAa?$AAd?$AAP?$AAr?$AAi?$AAo?$AA?$AA@ 0001657c     shell.obj
 0001:000055a0       ??_C@_1HA@DDJGIFGD@?$AA?$AN?$AA?6?$AA?$AN?$AA?6?$AAW?$AAe?$AAl?$AAc?$AAo?$AAm?$AAe?$AA?5?$AAt?$AAo?$AA?5?$AAt?$AAh?$AAe?$AA?5?$AAW?$AAi?$AAn?$AAd?$AAo?$AAw?$AAs?$AA?5?$AAC?$AAE?$AA?5?$AAS?$AAh@ 000165a0     shell.obj
 0001:00005610       ??_C@_1DI@BGEBLEE@?$AAS?$AAo?$AAf?$AAt?$AAw?$AAa?$AAr?$AAe?$AA?2?$AAM?$AAi?$AAc?$AAr?$AAo?$AAs?$AAo?$AAf?$AAt?$AA?2?$AAT?$AAx?$AAt?$AAS?$AAh?$AAe?$AAl?$AAl?$AA?$AA@ 00016610     shell.obj
 0001:00005648       ??_C@_1FO@OMLDDHIE@?$AA?$AN?$AA?6?$AA?$AN?$AA?6?$AAW?$AAi?$AAn?$AAd?$AAo?$AAw?$AAs?$AA?5?$AAC?$AAE?$AA?5?$AAS?$AAh?$AAe?$AAl?$AAl?$AA?5?$AA?9?$AA?5?$AAu?$AAn?$AAa?$AAb?$AAl?$AAe?$AA?5?$AAt?$AAo@ 00016648     shell.obj
 0001:000056a8       ??_C@_1BG@KCMNKDOG@?$AAR?$AAe?$AAl?$AAe?$AAa?$AAs?$AAe?$AAF?$AAS?$AAD?$AA?$AA@ 000166a8     shell.obj
 0001:000056c0       ??_C@_15DEDJCAKD@?$AA?9?$AAr?$AA?$AA@ 000166c0     shell.obj
 0001:000056c8       ??_C@_15EBELCIOA@?$AA?9?$AAd?$AA?$AA@ 000166c8     shell.obj
 0001:000056d0       ??_C@_15NMJMBAFJ@?$AA?9?$AAc?$AA?$AA@ 000166d0     shell.obj
 0001:000056d8       ??_C@_13HGPDMIBE@?$AA?$DP?$AA?$AA@ 000166d8     shell.obj
 0001:000056dc       ??_C@_1CA@OMHOFKPE@?$AAE?$AAx?$AAt?$AAe?$AAn?$AAs?$AAi?$AAo?$AAn?$AA?3?$AA?5?$AA?$CF?$AAs?$AA?$AN?$AA?6?$AA?$AA@ 000166dc     shell.obj
 0001:00005700       ??_C@_1GO@NNKKIIGO@?$AA?$AN?$AA?6?$AAE?$AAn?$AAt?$AAe?$AAr?$AA?5?$AAa?$AAn?$AAy?$AA?5?$AAo?$AAf?$AA?5?$AAt?$AAh?$AAe?$AA?5?$AAf?$AAo?$AAl?$AAl?$AAo?$AAw?$AAi?$AAn?$AAg?$AA?5?$AAc?$AAo?$AAm@ 00016700     shell.obj
 0001:00005770       ??_C@_1EG@MPKAGCDN@?$AAb?$AAr?$AAe?$AAa?$AAk?$AA?5?$AA?3?$AA?5?$AAB?$AAr?$AAe?$AAa?$AAk?$AAs?$AA?5?$AAi?$AAn?$AAt?$AAo?$AA?5?$AAt?$AAh?$AAe?$AA?5?$AAd?$AAe?$AAb?$AAu?$AAg?$AAg?$AAe?$AAr@ 00016770     shell.obj
 0001:000057b8       ??_C@_1EI@IJOJADGP@?$AAs?$AA?5?$AA?$DM?$AAp?$AAr?$AAo?$AAc?$AAn?$AAa?$AAm?$AAe?$AA?$DO?$AA?5?$AA?3?$AA?5?$AAS?$AAt?$AAa?$AAr?$AAt?$AAs?$AA?5?$AAn?$AAe?$AAw?$AA?5?$AAp?$AAr?$AAo?$AAc?$AAe?$AAs@ 000167b8     shell.obj
 0001:00005800       ??_C@_1IE@MBBMEIII@?$AAg?$AAi?$AA?5?$AA?$FL?$AA?$CC?$AAp?$AAr?$AAo?$AAc?$AA?$CC?$AA?0?$AA?$CC?$AAt?$AAh?$AAr?$AAd?$AA?$CC?$AA?0?$AA?$CC?$AAm?$AAo?$AAd?$AA?$CC?$AA?0?$AA?$CC?$AAa?$AAl?$AAl?$AA?$CC?$AA?$FN?$AA?$CK?$AA?5@ 00016800     shell.obj
 0001:00005888       ??_C@_1GE@OEHGDAN@?$AA?5?$AA?5?$AA?5?$AA?5?$AAp?$AAr?$AAo?$AAc?$AA?5?$AA?5?$AA?5?$AA?9?$AA?$DO?$AA?5?$AAL?$AAi?$AAs?$AAt?$AAs?$AA?5?$AAa?$AAl?$AAl?$AA?5?$AAp?$AAr?$AAo?$AAc?$AAe?$AAs?$AAs?$AAe@ 00016888     shell.obj
 0001:000058f0       ??_C@_1GO@LDMICFPC@?$AA?5?$AA?5?$AA?5?$AA?5?$AAt?$AAh?$AAr?$AAd?$AA?5?$AA?5?$AA?5?$AA?9?$AA?$DO?$AA?5?$AAL?$AAi?$AAs?$AAt?$AAs?$AA?5?$AAa?$AAl?$AAl?$AA?5?$AAp?$AAr?$AAo?$AAc?$AAe?$AAs?$AAs?$AAe@ 000168f0     shell.obj
 0001:00005960       ??_C@_1IE@FKDCFICG@?$AA?5?$AA?5?$AA?5?$AA?5?$AAd?$AAe?$AAl?$AAt?$AAa?$AA?5?$AA?5?$AA?9?$AA?$DO?$AA?5?$AAL?$AAi?$AAs?$AAt?$AAs?$AA?5?$AAo?$AAn?$AAl?$AAy?$AA?5?$AAt?$AAh?$AAr?$AAe?$AAa?$AAd?$AAs@ 00016960     shell.obj
 0001:000059e8       ??_C@_1FC@MEDDFDJD@?$AA?5?$AA?5?$AA?5?$AA?5?$AAm?$AAo?$AAd?$AA?5?$AA?5?$AA?5?$AA?5?$AA?9?$AA?$DO?$AA?5?$AAL?$AAi?$AAs?$AAt?$AAs?$AA?5?$AAa?$AAl?$AAl?$AA?5?$AAm?$AAo?$AAd?$AAu?$AAl?$AAe?$AAs?$AA?5@ 000169e8     shell.obj
 0001:00005a40       ??_C@_1FA@FOAOHJOC@?$AA?5?$AA?5?$AA?5?$AA?5?$AAm?$AAo?$AAd?$AAu?$AAs?$AAe?$AA?5?$AA?9?$AA?$DO?$AA?5?$AAL?$AAi?$AAs?$AAt?$AAs?$AA?5?$AAm?$AAo?$AAd?$AAu?$AAl?$AAe?$AA?5?$AAu?$AAs?$AAa?$AAg?$AAe@ 00016a40     shell.obj
 0001:00005a90       ??_C@_1JE@IFGODOCD@?$AA?5?$AA?5?$AA?5?$AA?5?$AAm?$AAo?$AAd?$AAl?$AAo?$AAa?$AAd?$AAe?$AAd?$AA?5?$AA?9?$AA?$DO?$AA?5?$AAL?$AAi?$AAs?$AAt?$AA?5?$AAt?$AAh?$AAe?$AA?5?$AAp?$AAr?$AAo?$AAc?$AAe?$AAs@ 00016a90     shell.obj
 0001:00005b28       ??_C@_1HI@FNBHEDKL@?$AA?5?$AA?5?$AA?5?$AA?5?$AAs?$AAy?$AAs?$AAt?$AAe?$AAm?$AA?5?$AA?9?$AA?$DO?$AA?5?$AAL?$AAi?$AAs?$AAt?$AAs?$AA?5?$AAp?$AAr?$AAo?$AAc?$AAe?$AAs?$AAs?$AAo?$AAr?$AA?5?$AAa?$AAr@ 00016b28     shell.obj
 0001:00005ba0       ??_C@_1EO@CJDMPMOC@?$AA?5?$AA?5?$AA?5?$AA?5?$AAa?$AAl?$AAl?$AA?5?$AA?5?$AA?5?$AA?5?$AA?9?$AA?$DO?$AA?5?$AAL?$AAi?$AAs?$AAt?$AAs?$AA?5?$AAa?$AAl?$AAl?$AA?5?$AAo?$AAf?$AA?5?$AAt?$AAh?$AAe?$AA?5?$AAa@ 00016ba0     shell.obj
 0001:00005bf0       ??_C@_1FI@NGALPEOC@?$AAm?$AAi?$AA?5?$AA?$FL?$AA?$CC?$AAk?$AAe?$AAr?$AAn?$AAe?$AAl?$AA?$CC?$AA?0?$AA?$CC?$AAf?$AAu?$AAl?$AAl?$AA?$CC?$AA?$FN?$AA?5?$AA?3?$AA?5?$AAM?$AAe?$AAm?$AAo?$AAr?$AAy?$AA?5?$AAi?$AAn@ 00016bf0     shell.obj
 0001:00005c48       ??_C@_1FE@MFPPNJHG@?$AA?5?$AA?5?$AA?5?$AA?5?$AAk?$AAe?$AAr?$AAn?$AAe?$AAl?$AA?9?$AA?$DO?$AA?5?$AAL?$AAi?$AAs?$AAt?$AAs?$AA?5?$AAk?$AAe?$AAr?$AAn?$AAe?$AAl?$AA?5?$AAm?$AAe?$AAm?$AAo?$AAr?$AAy@ 00016c48     shell.obj
 0001:00005ca0       ??_C@_1EM@FMPJNMMM@?$AA?5?$AA?5?$AA?5?$AA?5?$AAf?$AAu?$AAl?$AAl?$AA?5?$AA?5?$AA?9?$AA?$DO?$AA?5?$AAL?$AAi?$AAs?$AAt?$AAs?$AA?5?$AAf?$AAu?$AAl?$AAl?$AA?5?$AAm?$AAe?$AAm?$AAo?$AAr?$AAy?$AA?5?$AAm@ 00016ca0     shell.obj
 0001:00005cf0       ??_C@_1KO@EILLBJOE@?$AAz?$AAo?$AA?5?$AA?$FL?$AA?$CC?$AAp?$AA?$CC?$AA?0?$AA?$CC?$AAm?$AA?$CC?$AA?0?$AA?$CC?$AAh?$AA?$CC?$AA?$FN?$AA?5?$AA?$FL?$AAi?$AAn?$AAd?$AAe?$AAx?$AA?0?$AAn?$AAa?$AAm?$AAe?$AA?0?$AAh?$AAa?$AAn@ 00016cf0     shell.obj
 0001:00005da0       ??_C@_1KA@CBJHNHCI@?$AA?5?$AA?5?$AA?5?$AA?5?$AAp?$AA?1?$AAm?$AA?1?$AAh?$AA?5?$AA?9?$AA?$DO?$AA?5?$AAS?$AAe?$AAl?$AAe?$AAc?$AAt?$AAs?$AA?5?$AAw?$AAh?$AAe?$AAt?$AAh?$AAe?$AAr?$AA?5?$AAy?$AAo?$AAu@ 00016da0     shell.obj
 0001:00005e40       ??_C@_1JM@CDBMJOOB@?$AA?5?$AA?5?$AA?5?$AA?5?$AAi?$AAn?$AAd?$AAe?$AAx?$AA?5?$AA?9?$AA?$DO?$AA?5?$AAP?$AAu?$AAt?$AA?5?$AAt?$AAh?$AAe?$AA?5?$AAi?$AAn?$AAd?$AAe?$AAx?$AA?5?$AAo?$AAf?$AA?5?$AAt?$AAh@ 00016e40     shell.obj
 0001:00005ee0       ??_C@_1JK@EAMKAMHH@?$AA?5?$AA?5?$AA?5?$AA?5?$AAn?$AAa?$AAm?$AAe?$AA?5?$AA?5?$AA?9?$AA?$DO?$AA?5?$AAP?$AAu?$AAt?$AA?5?$AAt?$AAh?$AAe?$AA?5?$AAn?$AAa?$AAm?$AAe?$AA?5?$AAo?$AAf?$AA?5?$AAt?$AAh?$AAe@ 00016ee0     shell.obj
 0001:00005f80       ??_C@_1JM@DAMBMAJG@?$AA?5?$AA?5?$AA?5?$AA?5?$AAh?$AAa?$AAn?$AAd?$AAl?$AAe?$AA?9?$AA?$DO?$AA?5?$AAP?$AAu?$AAt?$AA?5?$AAt?$AAh?$AAe?$AA?5?$AAv?$AAa?$AAl?$AAu?$AAe?$AA?5?$AAo?$AAf?$AA?5?$AAt?$AAh@ 00016f80     shell.obj
 0001:00006020       ??_C@_1KA@LCDFJJGN@?$AA?5?$AA?5?$AA?5?$AA?5?$AA?5?$AA?5?$AA?5?$AA?5?$AA?5?$AA?5?$AA?9?$AA?$DO?$AA?5?$AAI?$AAf?$AA?5?$AAn?$AAo?$AA?5?$AAa?$AAr?$AAg?$AAs?$AA?5?$AAa?$AAr?$AAe?$AA?5?$AAs?$AAp?$AAe?$AAc@ 00017020     shell.obj
 0001:000060c0       ??_C@_1JK@OOOIODPA@?$AA?5?$AA?5?$AA?5?$AA?5?$AAz?$AAo?$AAn?$AAe?$AA?5?$AA?5?$AA?9?$AA?$DO?$AA?5?$AAM?$AAu?$AAs?$AAt?$AA?5?$AAb?$AAe?$AA?5?$AAa?$AA?5?$AAn?$AAu?$AAm?$AAb?$AAe?$AAr?$AA?5?$AAt?$AAo@ 000170c0     shell.obj
 0001:00006160       ??_C@_1HA@PHMPBKKJ@?$AA?5?$AA?5?$AA?5?$AA?5?$AA?5?$AA?5?$AA?5?$AA?5?$AA?5?$AA?5?$AA?5?$AA?5?$AA?5?$AAP?$AAr?$AAe?$AAf?$AAi?$AAx?$AA?5?$AAb?$AAy?$AA?5?$AA0?$AAx?$AA?5?$AAi?$AAf?$AA?5?$AAt?$AAh?$AAi@ 00017160     shell.obj
 0001:000061d0       ??_C@_1KC@HGBNEFIF@?$AA?5?$AA?5?$AA?5?$AA?5?$AAo?$AAn?$AA?1?$AAo?$AAf?$AAf?$AA?9?$AA?$DO?$AA?5?$AAS?$AAp?$AAe?$AAc?$AAi?$AAf?$AAy?$AA?5?$AAb?$AAi?$AAt?$AAs?$AA?5?$AAt?$AAo?$AA?5?$AAb?$AAe?$AA?5@ 000171d0     shell.obj
 0001:00006278       ??_C@_1JI@IMCAGPJK@?$AA?5?$AA?5?$AAe?$AAg?$AA?4?$AA?5?$AAz?$AAo?$AA?5?$AAp?$AA?5?$AA2?$AA?3?$AA?5?$AAP?$AAr?$AAi?$AAn?$AAt?$AAs?$AA?5?$AAz?$AAo?$AAn?$AAe?$AA?5?$AAn?$AAa?$AAm?$AAe?$AAs?$AA?5@ 00017278     shell.obj
 0001:00006310       ??_C@_1LE@ODJKMNLJ@?$AA?5?$AA?5?$AAe?$AAg?$AA?4?$AA?5?$AAz?$AAo?$AA?5?$AAh?$AA?5?$AA8?$AAf?$AAe?$AA7?$AA7?$AA3?$AAa?$AA2?$AA?3?$AA?5?$AAP?$AAr?$AAi?$AAn?$AAt?$AAs?$AA?5?$AAz?$AAo?$AAn?$AAe@ 00017310     shell.obj
 0001:000063c8       ??_C@_1IA@NGKLKBGO@?$AA?5?$AA?5?$AAe?$AAg?$AA?4?$AA?5?$AAz?$AAo?$AA?5?$AAm?$AA?5?$AA0?$AA?5?$AA0?$AAx?$AA1?$AA0?$AA0?$AA?3?$AA?5?$AAS?$AAe?$AAt?$AAs?$AA?5?$AAz?$AAo?$AAn?$AAe?$AA?5?$AAf?$AAo@ 000173c8     shell.obj
 0001:00006448       ??_C@_1JK@LALIADOF@?$AA?5?$AA?5?$AAe?$AAg?$AA?4?$AA?5?$AAz?$AAo?$AA?5?$AAp?$AA?5?$AA3?$AA?5?$AAo?$AAn?$AA?5?$AA3?$AA?5?$AA5?$AA?5?$AAo?$AAf?$AAf?$AA?5?$AA2?$AA?3?$AA?5?$AAS?$AAe?$AAt?$AAs?$AA?5@ 00017448     shell.obj
 0001:000064e8       ??_C@_1EE@LFMDBABF@?$AAw?$AAi?$AAn?$AA?5?$AA?3?$AA?5?$AAD?$AAu?$AAm?$AAp?$AAs?$AA?5?$AAt?$AAh?$AAe?$AA?5?$AAl?$AAi?$AAs?$AAt?$AA?5?$AAo?$AAf?$AA?5?$AAw?$AAi?$AAn?$AAd?$AAo?$AAw?$AAs?$AA?$AN@ 000174e8     shell.obj
 0001:00006530       ??_C@_1JA@JCEMGECJ@?$AAl?$AAo?$AAg?$AA?5?$AA?$DM?$AAC?$AAE?$AA?5?$AAz?$AAo?$AAn?$AAe?$AA?$DO?$AA?5?$AA?$FL?$AAu?$AAs?$AAe?$AAr?$AA?5?$AAz?$AAo?$AAn?$AAe?$AA?$FN?$AA?5?$AA?$FL?$AAp?$AAr?$AAo?$AAc?$AAe@ 00017530     shell.obj
 0001:000065c0       ??_C@_1JG@NMCIJGOB@?$AAp?$AAr?$AAo?$AAf?$AA?5?$AA?$DM?$AAo?$AAn?$AA?$HM?$AAo?$AAf?$AAf?$AA?$DO?$AA?5?$AA?$FL?$AAd?$AAa?$AAt?$AAa?$AA_?$AAt?$AAy?$AAp?$AAe?$AA?$FN?$AA?5?$AA?$FL?$AAs?$AAt?$AAo?$AAr?$AAa@ 000175c0     shell.obj
 0001:00006658       ??_C@_1LM@BIPGPBGB@?$AAa?$AAc?$AAc?$AAt?$AA?5?$AA?$FL?$AAo?$AAp?$AAt?$AAi?$AAo?$AAn?$AAa?$AAl?$AA?3?$AA?5?$AA?$DM?$AAa?$AAc?$AAc?$AAt?$AAi?$AAd?$AA?$DO?$AA?$FN?$AA?5?$AA?3?$AA?5?$AAD?$AAi?$AAs?$AAp@ 00017658     shell.obj
 0001:00006718       ??_C@_1HE@BNEHOFBA@?$AAm?$AAe?$AAm?$AAt?$AAr?$AAa?$AAc?$AAk?$AA?5?$AA?$CI?$AAd?$AAe?$AAp?$AAr?$AAe?$AAc?$AAa?$AAt?$AAe?$AAd?$AA?$DL?$AA?5?$AAu?$AAs?$AAe?$AA?5?$AAA?$AAp?$AAp?$AAl?$AAi?$AAc@ 00017718     shell.obj
 0001:00006790       ??_C@_1JI@DAABDPOA@?$AAd?$AAd?$AA?5?$AA?$DM?$AAp?$AAr?$AAo?$AAc?$AAe?$AAs?$AAs?$AA?5?$AAi?$AAd?$AA?$DO?$AA?5?$AA?$DM?$AAa?$AAd?$AAd?$AAr?$AA?$DO?$AA?5?$AA?$FL?$AA?$DM?$AA?$CD?$AAd?$AAw?$AAo?$AAr?$AAd?$AAs@ 00017790     shell.obj
 0001:00006828       ??_C@_1JO@EJCFMLBF@?$AAd?$AAf?$AA?5?$AA?$DM?$AAf?$AAi?$AAl?$AAe?$AAn?$AAa?$AAm?$AAe?$AA?$DO?$AA?5?$AA?$DM?$AAp?$AAr?$AAo?$AAc?$AAe?$AAs?$AAs?$AA?5?$AAi?$AAd?$AA?$DO?$AA?5?$AA?$DM?$AAa?$AAd?$AAd?$AAr@ 00017828     shell.obj
 0001:000068c8       ??_C@_1EG@FHOEEEMA@?$AAh?$AAd?$AA?5?$AA?$DM?$AAe?$AAx?$AAe?$AA?$DO?$AA?3?$AA?5?$AAd?$AAu?$AAm?$AAp?$AAs?$AA?5?$AAt?$AAh?$AAe?$AA?5?$AAp?$AAr?$AAo?$AAc?$AAe?$AAs?$AAs?$AA?5?$AAh?$AAe?$AAa?$AAp@ 000178c8     shell.obj
 0001:00006910       ??_C@_1FC@DOPGEEBN@?$AAr?$AAu?$AAn?$AA?5?$AA?$DM?$AAf?$AAi?$AAl?$AAe?$AAn?$AAa?$AAm?$AAe?$AA?$DO?$AA?3?$AA?5?$AAr?$AAu?$AAn?$AA?5?$AAf?$AAi?$AAl?$AAe?$AA?5?$AAi?$AAn?$AA?5?$AAb?$AAa?$AAt?$AAc@ 00017910     shell.obj
 0001:00006968       ??_C@_1EM@IPBBDPCB@?$AAd?$AAi?$AAs?$AA?3?$AA?5?$AAD?$AAi?$AAs?$AAc?$AAa?$AAr?$AAd?$AA?5?$AAa?$AAl?$AAl?$AA?5?$AAd?$AAi?$AAs?$AAc?$AAa?$AAr?$AAd?$AAa?$AAb?$AAl?$AAe?$AA?5?$AAm?$AAe?$AAm@ 00017968     shell.obj
 0001:000069b4       ??_C@_1CO@BDAMBNI@?$AAo?$AAp?$AAt?$AAi?$AAo?$AAn?$AAs?$AA?3?$AA?5?$AAS?$AAe?$AAt?$AA?5?$AAo?$AAp?$AAt?$AAi?$AAo?$AAn?$AAs?$AA?$AN?$AA?6?$AA?$AA@ 000179b4     shell.obj
 0001:000069e8       ??_C@_1IO@IDGLJKOC@?$AA?5?$AA?5?$AA?5?$AA?5?$AA?5?$AAt?$AAi?$AAm?$AAe?$AAs?$AAt?$AAa?$AAm?$AAp?$AA?5?$AA?5?$AA?5?$AA?5?$AA?5?$AA?9?$AA?$DO?$AA?5?$AAT?$AAo?$AAg?$AAg?$AAl?$AAe?$AA?5?$AAt?$AAi?$AAm@ 000179e8     shell.obj
 0001:00006a78       ??_C@_1IA@MMFEBPND@?$AA?5?$AA?5?$AA?5?$AA?5?$AA?5?$AAp?$AAr?$AAi?$AAo?$AAr?$AAi?$AAt?$AAy?$AA?5?$AA?$FL?$AAN?$AA?$FN?$AA?5?$AA?5?$AA?9?$AA?$DO?$AA?5?$AAC?$AAh?$AAa?$AAn?$AAg?$AAe?$AA?5?$AAt?$AAh?$AAe@ 00017a78     shell.obj
 0001:00006af8       ??_C@_1HA@BIDPGPAL@?$AA?5?$AA?5?$AA?5?$AA?5?$AA?5?$AAk?$AAe?$AAr?$AAn?$AAf?$AAa?$AAu?$AAl?$AAt?$AA?5?$AA?5?$AA?5?$AA?5?$AA?5?$AA?9?$AA?$DO?$AA?5?$AAF?$AAa?$AAu?$AAl?$AAt?$AA?5?$AAe?$AAv?$AAe?$AAn@ 00017af8     shell.obj
 0001:00006b68       ??_C@_1HG@PJPHJPBC@?$AA?5?$AA?5?$AA?5?$AA?5?$AA?5?$AAk?$AAe?$AAr?$AAn?$AAn?$AAo?$AAf?$AAa?$AAu?$AAl?$AAt?$AA?5?$AA?5?$AA?5?$AA?9?$AA?$DO?$AA?5?$AAR?$AAe?$AA?9?$AAe?$AAn?$AAa?$AAb?$AAl?$AAe?$AA?5@ 00017b68     shell.obj
 0001:00006be0       ??_C@_1JC@LELKDFH@?$AAs?$AAu?$AAs?$AAp?$AAe?$AAn?$AAd?$AA?3?$AA?5?$AAS?$AAu?$AAs?$AAp?$AAe?$AAn?$AAd?$AA?5?$AAt?$AAh?$AAe?$AA?5?$AAd?$AAe?$AAv?$AAi?$AAc?$AAe?$AA?4?$AA?5?$AA?5?$AAR?$AAe@ 00017be0     shell.obj
 0001:00006c78       ??_C@_1GC@NDJPDNKO@?$AAt?$AAp?$AA?5?$AA?$DM?$AAt?$AAi?$AAd?$AA?$DO?$AA?5?$AA?$FL?$AAp?$AAr?$AAi?$AAo?$AA?$FN?$AA?5?$AA?3?$AA?5?$AAS?$AAe?$AAt?$AAs?$AA?1?$AAq?$AAu?$AAe?$AAr?$AAi?$AAe?$AAs?$AA?5?$AAt@ 00017c78     shell.obj
 0001:00006ce0       ??_C@_1IE@GBJDBIBK@?$AA?5?$AA?5?$AA?5?$AA?5?$AAt?$AAi?$AAd?$AA?5?$AA?5?$AA?3?$AA?5?$AAc?$AAa?$AAn?$AA?5?$AAb?$AAe?$AA?5?$AAe?$AAi?$AAt?$AAh?$AAe?$AAr?$AA?5?$AAa?$AA?5?$AAt?$AAh?$AAr?$AAe?$AAa@ 00017ce0     shell.obj
 0001:00006d64       ??_C@_1DK@CPCCBBGO@?$AA?5?$AA?5?$AA?5?$AA?5?$AAp?$AAr?$AAi?$AAo?$AA?5?$AA?3?$AA?5?$AAt?$AAh?$AAr?$AAe?$AAa?$AAd?$AA?5?$AAp?$AAr?$AAi?$AAo?$AAr?$AAi?$AAt?$AAy?$AA?$AN?$AA?6?$AA?$AA@ 00017d64     shell.obj
 0001:00006da0       ??_C@_1HG@IAIHCHKH@?$AA?5?$AA?5?$AA?5?$AA?5?$AA?5?$AA?5?$AA?5?$AA?5?$AA?5?$AA?5?$AA?5?$AA?9?$AA1?$AA?5?$AAo?$AAr?$AA?5?$AAo?$AAm?$AAi?$AAt?$AAt?$AAe?$AAd?$AA?5?$AA?3?$AA?5?$AAq?$AAu?$AAe?$AAr?$AAy@ 00017da0     shell.obj
 0001:00006e18       ??_C@_1GC@EOKJPLEC@?$AA?5?$AA?5?$AA?5?$AA?5?$AA?5?$AA?5?$AA?5?$AA?5?$AA?5?$AA?5?$AA?5?$AA0?$AA?5?$AA?9?$AA?5?$AA2?$AA5?$AA5?$AA?5?$AA?5?$AA?5?$AA?5?$AA?5?$AA?5?$AA?5?$AA?3?$AA?5?$AAs?$AAe?$AAt?$AA?5?$AAt@ 00017e18     shell.obj
 0001:00006e80       ??_C@_1GI@EOOEJMAG@?$AAd?$AAe?$AAv?$AA?5?$AA?3?$AA?5?$AAD?$AAi?$AAs?$AAp?$AAl?$AAa?$AAy?$AA?5?$AAi?$AAn?$AAf?$AAo?$AAr?$AAm?$AAa?$AAt?$AAi?$AAo?$AAn?$AA?5?$AAa?$AAb?$AAo?$AAu?$AAt?$AA?5@ 00017e80     shell.obj
 0001:00006ee8       ??_C@_1FI@IICBGCCC@?$AAU?$AAn?$AAa?$AAb?$AAl?$AAe?$AA?5?$AAt?$AAo?$AA?5?$AAg?$AAe?$AAt?$AA?5?$AAt?$AAo?$AA?5?$AAP?$AAI?$AAD?$AA?5?$AAb?$AAa?$AAs?$AAe?$AAd?$AA?5?$AAo?$AAn?$AA?5?$AAa?$AAr@ 00017ee8     shell.obj
 0001:00006f40       ??_C@_1JA@PDGLJEDN@?$AAC?$AAo?$AAu?$AAl?$AAd?$AA?5?$AAn?$AAo?$AAt?$AA?5?$AAf?$AAi?$AAn?$AAd?$AA?5?$AAs?$AAp?$AAe?$AAc?$AAi?$AAf?$AAi?$AAe?$AAd?$AA?5?$AAp?$AAr?$AAo?$AAc?$AAe?$AAs?$AAs@ 00017f40     shell.obj
 0001:00006fd0       ??_C@_17BOHGFEOF@?$AA?9?$AAr?$AA?5?$AA?$AA@ 00017fd0     shell.obj
 0001:00006fd8       ??_C@_1CK@OMEABKOB@?$AAd?$AAd?$AA?3?$AA?5?$AAI?$AAn?$AAv?$AAa?$AAl?$AAi?$AAd?$AA?5?$AAL?$AAe?$AAn?$AAg?$AAt?$AAh?$AA?$AN?$AA?6?$AA?$AA@ 00017fd8     shell.obj
 0001:00007008       ??_C@_1FK@OMECCEKF@?$AAS?$AAy?$AAn?$AAt?$AAa?$AAx?$AA?3?$AA?5?$AAd?$AAd?$AA?5?$AA?$DM?$AAp?$AAr?$AAo?$AAc?$AAe?$AAs?$AAs?$AA?5?$AAi?$AAd?$AA?$DO?$AA?5?$AA?$DM?$AAa?$AAd?$AAd?$AAr?$AA?$DO?$AA?5?$AA?$FL@ 00018008     shell.obj
 0001:00007064       ??_C@_17OGOCLKHB@?$AAc?$AAo?$AAn?$AA?$AA@ 00018064     shellapi.obj
 0001:0000706c       ??_C@_1O@HGOIKFHF@?$AAf?$AAg?$AAe?$AAt?$AAw?$AAs?$AA?$AA@ 0001806c     shellapi.obj
 0001:0000707c       ??_C@_1O@CJMGCAOO@?$AAf?$AAp?$AAu?$AAt?$AAw?$AAs?$AA?$AA@ 0001807c     shellapi.obj
 0001:0000708c       ??_C@_1CG@BJOEGN@?$AAO?$AAu?$AAt?$AAp?$AAu?$AAt?$AAD?$AAe?$AAb?$AAu?$AAg?$AAS?$AAt?$AAr?$AAi?$AAn?$AAg?$AAW?$AA?$AA@ 0001808c     shellapi.obj
 0001:000070b4       ??_C@_1BK@PELHBNKL@?$AA_?$AAg?$AAe?$AAt?$AAs?$AAt?$AAd?$AAf?$AAi?$AAl?$AAe?$AAx?$AA?$AA@ 000180b4     shellapi.obj
 0001:000070f4       ConvertAccessMode          000180f4 f   shell.obj
 0001:00007124       ConvertCreateMode          00018124 f   shell.obj
 0001:000071b0       UU_ropen                   000181b0 f   shell.obj
 0001:0000724c       UU_rread                   0001824c f   shell.obj
 0001:0000727c       UU_rwrite                  0001827c f   shell.obj
 0001:000072b4       FmtPuts                    000182b4 f   shell.obj
 0001:00007410       CompareFilenames           00018410 f   shell.obj
 0001:000074dc       LoadExt                    000184dc f   shell.obj
 0001:00007640       LoadExtensions             00018640 f   shell.obj
 0001:000077ac       FindCommand                000187ac f   shell.obj
 0001:000078cc       DoCommand                  000188cc f   shell.obj
 0001:00007ab8       DoExit                     00018ab8 f   shell.obj
 0001:00007ac0       LaunchProcess              00018ac0 f   shell.obj
 0001:00007c98       DoStartProcess             00018c98 f   shell.obj
 0001:00007dfc       DoKillProcByID             00018dfc f   shell.obj
 0001:00007e98       DumpLine                   00018e98 f   shell.obj
 0001:00007ef4       DumpThisAddr               00018ef4 f   shell.obj
 0001:00008038       DoDumpFile                 00019038 f   shell.obj
 0001:000081d4       IsPatMatch                 000191d4 f   shell.obj
 0001:00008258       IsNameMatch                00019258 f   shell.obj
 0001:0000837c       IsModuleLoadedInProcess    0001937c f   shell.obj
 0001:00008458       DoModLoaded                00019458 f   shell.obj
 0001:00008534       SortModuleList             00019534 f   shell.obj
 0001:000086a4       DoGetInfo                  000196a4 f   shell.obj
 0001:00009248       DisplayOneBlock            0001a248 f   shell.obj
 0001:000094e8       DisplayVMInfo              0001a4e8 f   shell.obj
 0001:00009540       DisplayProcessInfo         0001a540 f   shell.obj
 0001:00009704       DisplayKernelHeapInfo      0001a704 f   shell.obj
 0001:000097f4       DoMemtool                  0001a7f4 f   shell.obj
 0001:000099ac       GetDataFromHandle          0001a9ac f   shell.obj
 0001:00009a2c       GetDataFromName            0001aa2c f   shell.obj
 0001:00009aac       GetDataFromOrdinal         0001aaac f   shell.obj
 0001:00009b10       SetAllZones                0001ab10 f   shell.obj
 0001:00009bbc       InitProcOrModList          0001abbc f   shell.obj
 0001:00009c6c       DoZoneOps                  0001ac6c f   shell.obj
 0001:0000a120       DoDebugBreak               0001b120 f   shell.obj
 0001:0000a128       DoBreak                    0001b128 f   shell.obj
 0001:0000a140       DoRunProcess               0001b140 f   shell.obj
 0001:0000a214       DoRunBatchFile             0001b214 f   shell.obj
 0001:0000a508       DoDiscard                  0001b508 f   shell.obj
 0001:0000a518       IntArg                     0001b518 f   shell.obj
 0001:0000a648       PrintWindow                0001b648 f   shell.obj
 0001:0000aa40       WinList                    0001ba40 f   shell.obj
 0001:0000aaa0       DoWinList                  0001baa0 f   shell.obj
 0001:0000ae6c       DoLogAction                0001be6c f   shell.obj
 0001:0000afc8       DoLogHelp                  0001bfc8 f   shell.obj
 0001:0000b0a4       DoLog                      0001c0a4 f   shell.obj
 0001:0000b37c       DoMemTrack                 0001c37c f   shell.obj
 0001:0000b39c       GetProcessIdFromName       0001c39c f   shell.obj
 0001:0000b434       DoHeapDump                 0001c434 f   shell.obj
 0001:0000b690       DoOptions                  0001c690 f   shell.obj
 0001:0000b894       DoSuspend                  0001c894 f   shell.obj
 0001:0000babc       DoProfile                  0001cabc f   shell.obj
 0001:0000bec0       DoLoadExt                  0001cec0 f   shell.obj
 0001:0000bff0       DoThreadPrio               0001cff0 f   shell.obj
 0001:0000c190       DoFindFile                 0001d190 f   shell.obj
 0001:0000c298       DoDeviceInfo               0001d298 f   shell.obj
 0001:0000c46c       WinMain                    0001d46c f   shell.obj
 0001:0000c844       DoHelp                     0001d844 f   shell.obj
 0001:0000cbac       DoKillProc                 0001dbac f   shell.obj
 0001:0000cec0       DoDumpDwords               0001dec0 f   shell.obj
 0001:0000cf84       _crtinit                   0001df84 f   shellapi.obj
 0001:0000d084       ?GetChar@@YAHXZ            0001e084 f   shellapi.obj
 0001:0000d0e0       Gets                       0001e0e0 f   shellapi.obj
 0001:0000d1b0       Puts                       0001e1b0 f   shellapi.obj
 0001:0000d298       Module32Next               0001e298 f   toolhelp:toolhelp.dll
 0001:0000d2a8       Module32First              0001e2a8 f   toolhelp:toolhelp.dll
 0001:0000d2b8       CloseToolhelp32Snapshot    0001e2b8 f   toolhelp:toolhelp.dll
 0001:0000d2c8       CreateToolhelp32Snapshot   0001e2c8 f   toolhelp:toolhelp.dll
 0001:0000d2d8       Process32Next              0001e2d8 f   toolhelp:toolhelp.dll
 0001:0000d2e8       Process32First             0001e2e8 f   toolhelp:toolhelp.dll
 0001:0000d2f8       Thread32Next               0001e2f8 f   toolhelp:toolhelp.dll
 0001:0000d308       Thread32First              0001e308 f   toolhelp:toolhelp.dll
 0001:0000d318       Heap32ListNext             0001e318 f   toolhelp:toolhelp.dll
 0001:0000d328       Heap32Next                 0001e328 f   toolhelp:toolhelp.dll
 0001:0000d338       Heap32First                0001e338 f   toolhelp:toolhelp.dll
 0001:0000d348       Heap32ListFirst            0001e348 f   toolhelp:toolhelp.dll
 0001:0000d358       KernelLibIoControl         0001e358 f   coredll:COREDLL.dll
 0001:0000d368       __GetUserKData             0001e368 f   coredll:COREDLL.dll
 0001:0000d378       CreateFileW                0001e378 f   coredll:COREDLL.dll
 0001:0000d388       CloseHandle                0001e388 f   coredll:COREDLL.dll
 0001:0000d398       ReadFile                   0001e398 f   coredll:COREDLL.dll
 0001:0000d3a8       WriteFile                  0001e3a8 f   coredll:COREDLL.dll
 0001:0000d3b8       wvsprintfW                 0001e3b8 f   coredll:COREDLL.dll
 0001:0000d3c8       LoadKernelLibrary          0001e3c8 f   coredll:COREDLL.dll
 0001:0000d3d8       StringCchCopyW             0001e3d8 f   coredll:COREDLL.dll
 0001:0000d3e8       GetLastError               0001e3e8 f   coredll:COREDLL.dll
 0001:0000d3f8       FreeLibrary                0001e3f8 f   coredll:COREDLL.dll
 0001:0000d408       LocalFree                  0001e408 f   coredll:COREDLL.dll
 0001:0000d418       LocalAlloc                 0001e418 f   coredll:COREDLL.dll
 0001:0000d428       GetProcAddressW            0001e428 f   coredll:COREDLL.dll
 0001:0000d438       LoadLibraryW               0001e438 f   coredll:COREDLL.dll
 0001:0000d448       RegCloseKey                0001e448 f   coredll:COREDLL.dll
 0001:0000d458       RegEnumValueW              0001e458 f   coredll:COREDLL.dll
 0001:0000d468       RegQueryInfoKeyW           0001e468 f   coredll:COREDLL.dll
 0001:0000d478       RegOpenKeyExW              0001e478 f   coredll:COREDLL.dll
 0001:0000d488       StringCbPrintfW            0001e488 f   coredll:COREDLL.dll
 0001:0000d498       GetLocalTime               0001e498 f   coredll:COREDLL.dll
 0001:0000d4a8       CreateProcessW             0001e4a8 f   coredll:COREDLL.dll
 0001:0000d4b8       SetLastError               0001e4b8 f   coredll:COREDLL.dll
 0001:0000d4c8       StringCchCatW              0001e4c8 f   coredll:COREDLL.dll
 0001:0000d4d8       WaitForSingleObject        0001e4d8 f   coredll:COREDLL.dll
 0001:0000d4e8       TerminateProcess           0001e4e8 f   coredll:COREDLL.dll
 0001:0000d4f8       OpenProcess                0001e4f8 f   coredll:COREDLL.dll
 0001:0000d508       ReadProcessMemory          0001e508 f   coredll:COREDLL.dll
 0001:0000d518       StringCbCopyW              0001e518 f   coredll:COREDLL.dll
 0001:0000d528       QueryInstructionSet        0001e528 f   coredll:COREDLL.dll
 0001:0000d538       GetSystemInfo              0001e538 f   coredll:COREDLL.dll
 0001:0000d548       GetVersionExW              0001e548 f   coredll:COREDLL.dll
 0001:0000d558       GetThreadTimes             0001e558 f   coredll:COREDLL.dll
 0001:0000d568       OpenThread                 0001e568 f   coredll:COREDLL.dll
 0001:0000d578       SetDbgZone                 0001e578 f   coredll:COREDLL.dll
 0001:0000d588       MultiByteToWideChar        0001e588 f   coredll:COREDLL.dll
 0001:0000d598       GetFileSize                0001e598 f   coredll:COREDLL.dll
 0001:0000d5a8       ForcePageout               0001e5a8 f   coredll:COREDLL.dll
 0001:0000d5b8       CeLogGetZones              0001e5b8 f   coredll:COREDLL.dll
 0001:0000d5c8       CeLogReSync                0001e5c8 f   coredll:COREDLL.dll
 0001:0000d5d8       CeLogSetZones              0001e5d8 f   coredll:COREDLL.dll
 0001:0000d5e8       CeGetThreadPriority        0001e5e8 f   coredll:COREDLL.dll
 0001:0000d5f8       CeSetThreadPriority        0001e5f8 f   coredll:COREDLL.dll
 0001:0000d608       ProfileStop                0001e608 f   coredll:COREDLL.dll
 0001:0000d618       ProfileStart               0001e618 f   coredll:COREDLL.dll
 0001:0000d628       FindClose                  0001e628 f   coredll:COREDLL.dll
 0001:0000d638       FindFirstFileW             0001e638 f   coredll:COREDLL.dll
 0001:0000d648       Sleep                      0001e648 f   coredll:COREDLL.dll
 0001:0000d658       VirtualFree                0001e658 f   coredll:COREDLL.dll
 0001:0000d668       RegQueryValueExW           0001e668 f   coredll:COREDLL.dll
 0001:0000d678       VirtualAlloc               0001e678 f   coredll:COREDLL.dll
 0001:0000d688       PPSHRestart                0001e688 f   coredll:COREDLL.dll
 0001:0000d698       OpenEventW                 0001e698 f   coredll:COREDLL.dll
 0001:0000d6a8       SignalStarted              0001e6a8 f   coredll:COREDLL.dll
 0001:0000d6b8       CeFsIoControlW             0001e6b8 f   coredll:COREDLL.dll
 0001:0000d750       WinMainCRTStartup          0001e750 f   corelib0:pegwmain.obj
 0001:0000d780       __GSHandlerCheckCommon     0001e780 f   corelib0:gshandler.obj
 0001:0000d7bc       __GSHandlerCheck           0001e7bc f   corelib0:gshandler.obj
 0001:0000d7dc       __security_init_cookie     0001e7dc f   corelib0:seccinit.obj
 0001:0000d828       __security_check_cookie    0001e828 f   corelib0:armsecgs.obj
 0001:0000d838       __gsfailure                0001e838     corelib0:armsecgs.obj
 0001:0000d87c       __GSHandlerCheck_SEH       0001e87c f   corelib0:gshandlerseh.obj
 0001:0000d9b0       exit                       0001e9b0 f   corelib0:cexit.obj
 0001:0000d9bc       _exit                      0001e9bc f   corelib0:cexit.obj
 0001:0000d9f4       _initterm                  0001e9f4 f   corelib0:crt0dat.obj
 0001:0000da20       _cinit                     0001ea20 f   corelib0:crt0dat.obj
 0001:0000da80       __crt_ExitProcess          0001ea80 f   corelib0:exitproc_proxy.obj
 0001:0000da8c       wcslen                     0001ea8c f   corelib1:COREDLL.dll
 0001:0000da9c       wcsncat                    0001ea9c f   corelib1:COREDLL.dll
 0001:0000daac       wcscpy                     0001eaac f   corelib1:COREDLL.dll
 0001:0000dabc       _wcsicmp                   0001eabc f   corelib1:COREDLL.dll
 0001:0000dacc       wcsrchr                    0001eacc f   corelib1:COREDLL.dll
 0001:0000dadc       wcstok                     0001eadc f   corelib1:COREDLL.dll
 0001:0000daec       wcscmp                     0001eaec f   corelib1:COREDLL.dll
 0001:0000dafc       iswctype                   0001eafc f   corelib1:COREDLL.dll
 0001:0000db0c       wcstoul                    0001eb0c f   corelib1:COREDLL.dll
 0001:0000db1c       wcsstr                     0001eb1c f   corelib1:COREDLL.dll
 0001:0000db2c       _wcslwr                    0001eb2c f   corelib1:COREDLL.dll
 0001:0000db3c       wcsncpy                    0001eb3c f   corelib1:COREDLL.dll
 0001:0000db4c       memcpy                     0001eb4c f   corelib1:COREDLL.dll
 0001:0000db5c       _wtol                      0001eb5c f   corelib1:COREDLL.dll
 0001:0000db6c       memset                     0001eb6c f   corelib1:COREDLL.dll
 0001:0000db7c       wcstol                     0001eb7c f   corelib1:COREDLL.dll
 0001:0000db8c       _isctype                   0001eb8c f   corelib1:COREDLL.dll
 0001:0000db9c       _snwprintf                 0001eb9c f   corelib1:COREDLL.dll
 0001:0000dbac       _wtoi                      0001ebac f   corelib1:COREDLL.dll
 0001:0000dbbc       wcsncmp                    0001ebbc f   corelib1:COREDLL.dll
 0001:0000dbcc       __C_specific_handler       0001ebcc f   corelib1:COREDLL.dll
 0001:0000dbdc       wcstombs                   0001ebdc f   corelib1:COREDLL.dll
 0001:0000dbec       _XcptFilter                0001ebec f   corelib1:COREDLL.dll
 0001:0000dbfc       __security_gen_cookie2     0001ebfc f   corelib1:COREDLL.dll
 0001:0000dc0c       __report_gsfailure         0001ec0c f   corelib1:COREDLL.dll
 0001:0000dc1c       free                       0001ec1c f   corelib1:COREDLL.dll
 0001:0000dc2c       DeleteCriticalSection      0001ec2c f   coredll:COREDLL.dll
 0001:0000dc3c       InterlockedExchange        0001ec3c f   coredll:COREDLL.dll
 0001:0000dcfc       __IMPORT_DESCRIPTOR_toolhelp 0001ecfc     toolhelp:toolhelp.dll
 0001:0000dd10       __IMPORT_DESCRIPTOR_COREDLL 0001ed10     coredll:COREDLL.dll
 0001:0000dd24       __NULL_IMPORT_DESCRIPTOR   0001ed24     toolhelp:toolhelp.dll
 0002:00000000       __imp_FindClose            0001f000     coredll:COREDLL.dll
 0002:00000004       __imp_InterlockedExchange  0001f004     coredll:COREDLL.dll
 0002:00000008       __imp_DeleteCriticalSection 0001f008     coredll:COREDLL.dll
 0002:0000000c       __imp_free                 0001f00c     corelib1:COREDLL.dll
 0002:00000010       __imp___report_gsfailure   0001f010     corelib1:COREDLL.dll
 0002:00000014       __imp___security_gen_cookie2 0001f014     corelib1:COREDLL.dll
 0002:00000018       __imp__XcptFilter          0001f018     corelib1:COREDLL.dll
 0002:0000001c       __imp_KernelLibIoControl   0001f01c     coredll:COREDLL.dll
 0002:00000020       __imp___GetUserKData       0001f020     coredll:COREDLL.dll
 0002:00000024       __imp_CreateFileW          0001f024     coredll:COREDLL.dll
 0002:00000028       __imp_CloseHandle          0001f028     coredll:COREDLL.dll
 0002:0000002c       __imp_ReadFile             0001f02c     coredll:COREDLL.dll
 0002:00000030       __imp_WriteFile            0001f030     coredll:COREDLL.dll
 0002:00000034       __imp_wvsprintfW           0001f034     coredll:COREDLL.dll
 0002:00000038       __imp_LoadKernelLibrary    0001f038     coredll:COREDLL.dll
 0002:0000003c       __imp_StringCchCopyW       0001f03c     coredll:COREDLL.dll
 0002:00000040       __imp_GetLastError         0001f040     coredll:COREDLL.dll
 0002:00000044       __imp_FreeLibrary          0001f044     coredll:COREDLL.dll
 0002:00000048       __imp_LocalFree            0001f048     coredll:COREDLL.dll
 0002:0000004c       __imp_LocalAlloc           0001f04c     coredll:COREDLL.dll
 0002:00000050       __imp_GetProcAddressW      0001f050     coredll:COREDLL.dll
 0002:00000054       __imp_LoadLibraryW         0001f054     coredll:COREDLL.dll
 0002:00000058       __imp_RegCloseKey          0001f058     coredll:COREDLL.dll
 0002:0000005c       __imp_RegEnumValueW        0001f05c     coredll:COREDLL.dll
 0002:00000060       __imp_RegQueryInfoKeyW     0001f060     coredll:COREDLL.dll
 0002:00000064       __imp_RegOpenKeyExW        0001f064     coredll:COREDLL.dll
 0002:00000068       __imp_StringCbPrintfW      0001f068     coredll:COREDLL.dll
 0002:0000006c       __imp_GetLocalTime         0001f06c     coredll:COREDLL.dll
 0002:00000070       __imp_CreateProcessW       0001f070     coredll:COREDLL.dll
 0002:00000074       __imp_SetLastError         0001f074     coredll:COREDLL.dll
 0002:00000078       __imp_StringCchCatW        0001f078     coredll:COREDLL.dll
 0002:0000007c       __imp_WaitForSingleObject  0001f07c     coredll:COREDLL.dll
 0002:00000080       __imp_TerminateProcess     0001f080     coredll:COREDLL.dll
 0002:00000084       __imp_OpenProcess          0001f084     coredll:COREDLL.dll
 0002:00000088       __imp_ReadProcessMemory    0001f088     coredll:COREDLL.dll
 0002:0000008c       __imp_StringCbCopyW        0001f08c     coredll:COREDLL.dll
 0002:00000090       __imp_QueryInstructionSet  0001f090     coredll:COREDLL.dll
 0002:00000094       __imp_GetSystemInfo        0001f094     coredll:COREDLL.dll
 0002:00000098       __imp_GetVersionExW        0001f098     coredll:COREDLL.dll
 0002:0000009c       __imp_GetThreadTimes       0001f09c     coredll:COREDLL.dll
 0002:000000a0       __imp_OpenThread           0001f0a0     coredll:COREDLL.dll
 0002:000000a4       __imp_SetDbgZone           0001f0a4     coredll:COREDLL.dll
 0002:000000a8       __imp_MultiByteToWideChar  0001f0a8     coredll:COREDLL.dll
 0002:000000ac       __imp_GetFileSize          0001f0ac     coredll:COREDLL.dll
 0002:000000b0       __imp_ForcePageout         0001f0b0     coredll:COREDLL.dll
 0002:000000b4       __imp_CeLogGetZones        0001f0b4     coredll:COREDLL.dll
 0002:000000b8       __imp_CeLogReSync          0001f0b8     coredll:COREDLL.dll
 0002:000000bc       __imp_CeLogSetZones        0001f0bc     coredll:COREDLL.dll
 0002:000000c0       __imp_CeGetThreadPriority  0001f0c0     coredll:COREDLL.dll
 0002:000000c4       __imp_CeSetThreadPriority  0001f0c4     coredll:COREDLL.dll
 0002:000000c8       __imp_ProfileStop          0001f0c8     coredll:COREDLL.dll
 0002:000000cc       __imp_ProfileStart         0001f0cc     coredll:COREDLL.dll
 0002:000000d0       __imp_FindFirstFileW       0001f0d0     coredll:COREDLL.dll
 0002:000000d4       __imp_Sleep                0001f0d4     coredll:COREDLL.dll
 0002:000000d8       __imp_VirtualFree          0001f0d8     coredll:COREDLL.dll
 0002:000000dc       __imp_RegQueryValueExW     0001f0dc     coredll:COREDLL.dll
 0002:000000e0       __imp_VirtualAlloc         0001f0e0     coredll:COREDLL.dll
 0002:000000e4       __imp_PPSHRestart          0001f0e4     coredll:COREDLL.dll
 0002:000000e8       __imp_OpenEventW           0001f0e8     coredll:COREDLL.dll
 0002:000000ec       __imp_SignalStarted        0001f0ec     coredll:COREDLL.dll
 0002:000000f0       __imp_CeFsIoControlW       0001f0f0     coredll:COREDLL.dll
 0002:000000f4       __imp_wcslen               0001f0f4     corelib1:COREDLL.dll
 0002:000000f8       __imp_wcsncat              0001f0f8     corelib1:COREDLL.dll
 0002:000000fc       __imp_wcscpy               0001f0fc     corelib1:COREDLL.dll
 0002:00000100       __imp__wcsicmp             0001f100     corelib1:COREDLL.dll
 0002:00000104       __imp_wcsrchr              0001f104     corelib1:COREDLL.dll
 0002:00000108       __imp_wcstok               0001f108     corelib1:COREDLL.dll
 0002:0000010c       __imp_wcscmp               0001f10c     corelib1:COREDLL.dll
 0002:00000110       __imp_iswctype             0001f110     corelib1:COREDLL.dll
 0002:00000114       __imp_wcstoul              0001f114     corelib1:COREDLL.dll
 0002:00000118       __imp_wcsstr               0001f118     corelib1:COREDLL.dll
 0002:0000011c       __imp__wcslwr              0001f11c     corelib1:COREDLL.dll
 0002:00000120       __imp_wcsncpy              0001f120     corelib1:COREDLL.dll
 0002:00000124       __imp_memcpy               0001f124     corelib1:COREDLL.dll
 0002:00000128       __imp__wtol                0001f128     corelib1:COREDLL.dll
 0002:0000012c       __imp___rt_srem64by64      0001f12c     corelib1:COREDLL.dll
 0002:00000130       __imp___rt_sdiv64by64      0001f130     corelib1:COREDLL.dll
 0002:00000134       __imp_memset               0001f134     corelib1:COREDLL.dll
 0002:00000138       __imp_wcstol               0001f138     corelib1:COREDLL.dll
 0002:0000013c       __imp__isctype             0001f13c     corelib1:COREDLL.dll
 0002:00000140       __imp__snwprintf           0001f140     corelib1:COREDLL.dll
 0002:00000144       __imp__wtoi                0001f144     corelib1:COREDLL.dll
 0002:00000148       __imp_wcsncmp              0001f148     corelib1:COREDLL.dll
 0002:0000014c       __imp___C_specific_handler 0001f14c     corelib1:COREDLL.dll
 0002:00000150       __imp_wcstombs             0001f150     corelib1:COREDLL.dll
 0002:00000154       \177COREDLL_NULL_THUNK_DATA 0001f154     coredll:COREDLL.dll
 0002:00000158       __imp_Heap32ListFirst      0001f158     toolhelp:toolhelp.dll
 0002:0000015c       __imp_Heap32First          0001f15c     toolhelp:toolhelp.dll
 0002:00000160       __imp_Heap32Next           0001f160     toolhelp:toolhelp.dll
 0002:00000164       __imp_Heap32ListNext       0001f164     toolhelp:toolhelp.dll
 0002:00000168       __imp_Thread32First        0001f168     toolhelp:toolhelp.dll
 0002:0000016c       __imp_Thread32Next         0001f16c     toolhelp:toolhelp.dll
 0002:00000170       __imp_Process32First       0001f170     toolhelp:toolhelp.dll
 0002:00000174       __imp_Process32Next        0001f174     toolhelp:toolhelp.dll
 0002:00000178       __imp_CreateToolhelp32Snapshot 0001f178     toolhelp:toolhelp.dll
 0002:0000017c       __imp_CloseToolhelp32Snapshot 0001f17c     toolhelp:toolhelp.dll
 0002:00000180       __imp_Module32First        0001f180     toolhelp:toolhelp.dll
 0002:00000184       __imp_Module32Next         0001f184     toolhelp:toolhelp.dll
 0002:00000188       \177toolhelp_NULL_THUNK_DATA 0001f188     toolhelp:toolhelp.dll
 0002:00000190       ccbrgbText                 0001f190     shell.obj
 0002:00000194       g_pwszGwesEventName        0001f194     shell.obj
 0002:00000198       v_rgse                     0001f198     shell.obj
 0002:00000208       v_rgseEx                   0001f208     shell.obj
 0002:00000270       v_rgseWCF                  0001f270     shell.obj
 0002:00000288       __security_cookie          0001f288     corelib0:seccinit.obj
 0002:0000028c       __security_cookie_complement 0001f28c     corelib0:seccinit.obj
 0002:000002a0       g_hGwesEvent               0001f2a0     shell.obj
 0002:000002b8       pfnOutputDebugStringW      0001f2b8     shellapi.obj
 0002:000002bc       pgetstdfilex               0001f2bc     shellapi.obj
 0002:000002c0       pfnfgetws                  0001f2c0     shellapi.obj
 0002:000002c4       ?filedesc@@3HA             0001f2c4     shellapi.obj
 0002:000002c8       pfnfputws                  0001f2c8     shellapi.obj
 0002:000002cc       g_MapFileList              0001f2cc     mapfile.obj
 0002:000002d0       _exitflag                  0001f2d0     corelib0:cexit.obj
 0002:000002d4       v_fUseConsole              0001f2d4     <common>
 0002:000002d8       v_fBeenWarned              0001f2d8     <common>
 0002:000002dc       rgbInfo                    0001f2dc     <common>
 0002:000002e0       TotalCpgRW                 0001f2e0     <common>
 0002:000002e4       v_pfnGetWindowLong         0001f2e4     <common>
 0002:000002e8       v_pfnGetWindowRect         0001f2e8     <common>
 0002:000002f0       v_ObjstoreRange            0001f2f0     <common>
 0002:000002f8       v_pfnGetWindowThreadProcessId 0001f2f8     <common>
 0002:000002fc       cNumProc                   0001f2fc     <common>
 0002:00000300       rgbText                    0001f300     <common>
 0002:00000700       v_pfnGetClassName          0001f700     <common>
 0002:00000704       v_pModData                 0001f704     <common>
 0002:00000720       v_physInfo                 0001f720     <common>
 0002:000008a8       v_fUseDebugOut             0001f8a8     <common>
 0002:000008ac       v_pfnFindNextDevice        0001f8ac     <common>
 0002:000008b0       cNumMod                    0001f8b0     <common>
 0002:000008b4       v_pfnFindClose             0001f8b4     <common>
 0002:000008b8       v_pfnGetWindowText         0001f8b8     <common>
 0002:000008bc       v_fTimestamp               0001f8bc     <common>
 0002:000008c0       v_ShellExtensions          0001f8c0     <common>
 0002:000008e0       v_CmdLine                  0001f8e0     <common>
 0002:00001ae0       v_pProcData                00020ae0     <common>
 0002:00001ae4       v_pfnGetWindow             00020ae4     <common>
 0002:00001ae8       v_pfnGetForegroundInfo     00020ae8     <common>
 0002:00001aec       v_pfnFindFirstDevice       00020aec     <common>
 0002:00001af0       v_pfnGetWindowCompositionFlags 00020af0     <common>
 0002:00001af4       v_pfnGetParent             00020af4     <common>
 0002:00001af8       __onexitend                00020af8     <common>
 0002:00001afc       __onexitbegin              00020afc     <common>
 0002:00001b00       g_pcsExit                  00020b00     <common>

 entry point at        0001:0000d750

 Static symbols

 0001:00007314       LoadCeLog                  00018314 f   shell.obj
 0001:0000b8fc       DoProfileHelp              0001c8fc f   shell.obj
 0001:0000d6d0       WinMainCRTStartupHelper    0001e6d0 f   corelib0:pegwmain.obj
 0001:0000d8c8       doexit                     0001e8c8 f   corelib0:cexit.obj
