 syncres_small

 Timestamp is 618b15e6 (Tue Nov 09 17:44:22 2021)

 Preferred load address is 10000000

 Start         Length     Name                   Class
 0001:00000000 00000004H .CRT$XCA                CODE
 0001:00000004 00000004H .CRT$XCZ                CODE
 0001:00000008 00000004H .CRT$XIA                CODE
 0001:0000000c 00000004H .CRT$XIZ                CODE
 0001:00000010 00000004H .CRT$XPA                CODE
 0001:00000014 00000004H .CRT$XPZ                CODE
 0001:00000018 00000004H .CRT$XTA                CODE
 0001:0000001c 00000004H .CRT$XTZ                CODE
 0001:00000020 0000037cH .rdata                  CODE
 0001:0000039c 0000002aH .rdata$debug            CODE
 0001:000003c8 000054f8H .text                   CODE
 0001:000058c0 00000064H .xdata                  CODE
 0001:00005924 0000003cH .idata$2                CODE
 0001:00005960 00000014H .idata$3                CODE
 0001:00005974 00000210H .idata$4                CODE
 0001:00005b84 0000007aH .idata$6                CODE
 0001:00005c00 0000018dH .edata                  CODE
 0002:00000000 00000210H .idata$5                DATA
 0002:00000210 00000198H .data                   DATA
 0002:000003a8 000020f4H .bss                    DATA
 0003:00000000 00000220H .pdata                  DATA
 0004:00000000 00001680H .rsrc$01                DATA
 0004:00001680 00042280H .rsrc$02                DATA

  Address         Publics by Value              Rva+Base       Lib:Object

 0000:00000000       ___safe_se_handler_count   00000000     <absolute>
 0000:00000000       ___safe_se_handler_table   00000000     <absolute>
 0001:00000000       __xc_a                     10001000     corelib0:crt0init.obj
 0001:00000004       __xc_z                     10001004     corelib0:crt0init.obj
 0001:00000008       __xi_a                     10001008     corelib0:crt0init.obj
 0001:0000000c       __xi_z                     1000100c     corelib0:crt0init.obj
 0001:00000010       __xp_a                     10001010     corelib0:crt0init.obj
 0001:00000014       __xp_z                     10001014     corelib0:crt0init.obj
 0001:00000018       __xt_a                     10001018     corelib0:crt0init.obj
 0001:0000001c       __xt_z                     1000101c     corelib0:crt0init.obj
 0001:0000003c       ??_C@_1CI@KHGAMJGO@?$AAS?$AAu?$AAb?$AAc?$AAl?$AAa?$AAs?$AAs?$AAO?$AAr?$AAi?$AAg?$AAW?$AAn?$AAd?$AAp?$AAr?$AAo?$AAc?$AA?$AA@ 1000103c     syncres_small_ALL:SyncUIMain.obj
 0001:00000064       ??_C@_1BO@HEBMFOHI@?$AAS?$AAy?$AAn?$AAc?$AAU?$AAI?$AAD?$AAi?$AAa?$AAl?$AAo?$AAg?$AAI?$AAD?$AA?$AA@ 10001064     syncres_small_ALL:SyncUIMain.obj
 0001:00000084       CLSID_WICImagingFactory    10001084     syncres_small_ALL:SyncUIMain.obj
 0001:00000094       GUID_WICPixelFormat32bppPBGRA 10001094     syncres_small_ALL:SyncUIMain.obj
 0001:000000ac       ??_C@_1BA@NBACAFCN@?$AAL?$AAi?$AAs?$AAt?$AAb?$AAo?$AAx?$AA?$AA@ 100010ac     syncres_small_ALL:SyncUIMain.obj
 0001:000000bc       ??_C@_19PLOBJMHF@?$AAE?$AAd?$AAi?$AAt?$AA?$AA@ 100010bc     syncres_small_ALL:SyncUIMain.obj
 0001:000000c8       ??_C@_1O@NEOKOKBN@?$AAs?$AAb?$AAe?$AAd?$AAi?$AAt?$AA?$AA@ 100010c8     syncres_small_ALL:SyncUIMain.obj
 0001:000000d8       ??_C@_17PMGKNIMI@?$AAP?$AAN?$AAG?$AA?$AA@ 100010d8     syncres_small_ALL:SyncUIMain.obj
 0001:000000e0       _GUID_ec5ec8a9_c395_4314_9c77_54d7a935ff70 100010e0     syncres_small_ALL:SyncUIMain.obj
 0001:000000f0       ??_C@_1O@ELLBDENI@?$AAS?$AAT?$AAA?$AAT?$AAI?$AAC?$AA?$AA@ 100010f0     syncres_small_ALL:SyncUIMain.obj
 0001:00000100       ??_C@_1M@KGONCMNM@?$AA?$CF?$AAs?$AA?6?$AA?$CF?$AAs?$AA?$AA@ 10001100     syncres_small_ALL:SyncUIMain.obj
 0001:0000010c       ??_C@_11LOCGONAA@?$AA?$AA@ 1000110c     syncres_small_ALL:SyncUIMain.obj
 0001:00000110       ??_C@_1BO@FMNFJGAD@?$AAC?$AAe?$AAA?$AAy?$AAg?$AAs?$AAh?$AAe?$AAl?$AAl?$AA?4?$AAd?$AAl?$AAl?$AA?$AA@ 10001110     syncres_small_ALL:SyncUIMain.obj
 0001:00000130       ??_C@_1BM@LNHHKDDJ@?$AAC?$AAh?$AAe?$AAc?$AAk?$AAB?$AAo?$AAx?$AAS?$AAt?$AAa?$AAt?$AAe?$AA?$AA@ 10001130     syncres_small_ALL:syncres.obj
 0001:000001b8       ??_C@_1BC@GCGFGEDI@?$AAS?$AAe?$AAg?$AAo?$AAe?$AA?5?$AAU?$AAI?$AA?$AA@ 100011b8     syncres_small_ALL:syncres.obj
 0001:000001cc       ??_C@_13DEFPDAGF@?$AA?0?$AA?$AA@ 100011cc     syncres_small_ALL:syncres.obj
 0001:000001ec       ??_C@_1CE@JHEMIBLN@?$AAm?$AAs?$AAc?$AAt?$AAl?$AAs?$AA_?$AAp?$AAr?$AAo?$AAg?$AAr?$AAe?$AAs?$AAs?$AA3?$AA2?$AA?$AA@ 100011ec     syncres_small_ALL:syncres.obj
 0001:00000210       ??_C@_1O@IPFBFMHG@?$AAs?$AAt?$AAa?$AAt?$AAi?$AAc?$AA?$AA@ 10001210     syncres_small_ALL:syncres.obj
 0001:00000220       ??_C@_1O@MHJJMELH@?$AAB?$AAu?$AAt?$AAt?$AAo?$AAn?$AA?$AA@ 10001220     syncres_small_ALL:syncres.obj
 0001:00000230       ??_C@_1O@MOBNNEMB@?$AAB?$AAU?$AAT?$AAT?$AAO?$AAN?$AA?$AA@ 10001230     syncres_small_ALL:syncres.obj
 0001:00000268       ??_C@_15JNBOKNOG@?$AA?$AN?$AA?6?$AA?$AA@ 10001268     syncres_small_ALL:SyncUIShowCert.obj
 0001:00000270       ??_C@_1M@OLEMGGOE@?$AA?$CF?$AA0?$AA2?$AAX?$AA?5?$AA?$AA@ 10001270     syncres_small_ALL:SyncUIShowCert.obj
 0001:0000027c       ??_C@_1CG@EEOCOINI@?$AAC?$AAe?$AAr?$AAt?$AAG?$AAe?$AAt?$AAN?$AAa?$AAm?$AAe?$AAS?$AAt?$AAr?$AAi?$AAn?$AAg?$AAW?$AA?$AA@ 1000127c     syncres_small_ALL:SyncUIShowCert.obj
 0001:000002a8       ??_C@_1EE@FPENKFMD@?$AAC?$AAe?$AAr?$AAt?$AAG?$AAe?$AAt?$AAC?$AAe?$AAr?$AAt?$AAi?$AAf?$AAi?$AAc?$AAa?$AAt?$AAe?$AAC?$AAo?$AAn?$AAt?$AAe?$AAx?$AAt?$AAP?$AAr?$AAo?$AAp?$AAe?$AAr?$AAt@ 100012a8     syncres_small_ALL:SyncUIShowCert.obj
 0001:000002ec       ??_C@_1BO@NHMGJAID@?$AAC?$AAe?$AAr?$AAt?$AAN?$AAa?$AAm?$AAe?$AAT?$AAo?$AAS?$AAt?$AAr?$AAW?$AA?$AA@ 100012ec     syncres_small_ALL:SyncUIShowCert.obj
 0001:0000030c       ??_C@_1DA@LDOPMIEJ@?$AAC?$AAe?$AAr?$AAt?$AAG?$AAe?$AAt?$AAE?$AAn?$AAh?$AAa?$AAn?$AAc?$AAe?$AAd?$AAK?$AAe?$AAy?$AAU?$AAs?$AAa?$AAg?$AAe?$AA?$AA@ 1000130c     syncres_small_ALL:SyncUIShowCert.obj
 0001:0000033c       ??_C@_1CC@OPNCBMMJ@?$AAC?$AAr?$AAy?$AAp?$AAt?$AAF?$AAi?$AAn?$AAd?$AAO?$AAI?$AAD?$AAI?$AAn?$AAf?$AAo?$AA?$AA@ 1000133c     syncres_small_ALL:SyncUIShowCert.obj
 0001:00000360       ??_C@_1BI@MIELKEKL@?$AAc?$AAr?$AAy?$AAp?$AAt?$AA3?$AA2?$AA?4?$AAd?$AAl?$AAl?$AA?$AA@ 10001360     syncres_small_ALL:SyncUIShowCert.obj
 0001:00000378       ??_C@_1BE@NBNNOLAD@?$AAN?$AAe?$AAt?$AAU?$AAI?$AA?4?$AAd?$AAl?$AAl?$AA?$AA@ 10001378     syncres_small_ALL:SyncUIShowCert.obj
 0001:0000038c       ??_C@_19HHMHINIL@?$AA?$CF?$AA0?$AA2?$AAX?$AA?$AA@ 1000138c     syncres_small_ALL:SyncUIShowCert.obj
 0001:00000398       ??_C@_13HOIJIPNN@?$AA?5?$AA?$AA@ 10001398     syncres_small_ALL:SyncUIShowCert.obj
 0001:000003c8       DllMain                    100013c8 f   syncres_small_ALL:SyncUIMain.obj
 0001:00000404       UninitializeSyncUI         10001404 f   syncres_small_ALL:SyncUIMain.obj
 0001:00000520       ?DrawRectOutline@@YAXPAUHDC__@@PAUtagRECT@@@Z 10001520 f   syncres_small_ALL:SyncUIMain.obj
 0001:0000059c       ?DrawSyncUIText@@YAXPAUHDC__@@PBGPAUtagRECT@@KPAUHFONT__@@K@Z 1000159c f   syncres_small_ALL:SyncUIMain.obj
 0001:0000062c       ?IsCtlType@@YAHPAUHWND__@@PBG@Z 1000162c f   syncres_small_ALL:SyncUIMain.obj
 0001:00000680       ?GetTextRenderSize@@YAXPBGPAI1@Z 10001680 f   syncres_small_ALL:SyncUIMain.obj
 0001:00000720       ?GetMenuItemTextID@@YAHPAUHMENU__@@HHPAGPAH@Z 10001720 f   syncres_small_ALL:SyncUIMain.obj
 0001:000007ac       SyncUIDlgInit              100017ac f   syncres_small_ALL:SyncUIMain.obj
 0001:00000998       SyncUIPaintBackground      10001998 f   syncres_small_ALL:SyncUIMain.obj
 0001:00000a4c       ?SyncUI_StaticTextWndProc@@YAJPAUHWND__@@IIJ@Z 10001a4c f   syncres_small_ALL:SyncUIMain.obj
 0001:00000c30       ?DrawBitmapAndText@@YAXPAU_SYNCUI_DRAW_INFO@@@Z 10001c30 f   syncres_small_ALL:SyncUIMain.obj
 0001:00000e64       ?DrawControlBorder@@YAXPAUHWND__@@PAUHDC__@@@Z 10001e64 f   syncres_small_ALL:SyncUIMain.obj
 0001:00000f5c       ?HBITMAPFromSource@@YAPAUHBITMAP__@@PAUIWICBitmapSource@@K@Z 10001f5c f   syncres_small_ALL:SyncUIMain.obj
 0001:000010cc       ?ProgressBarPaintBackground@@YAXPAUHDC__@@PAUHWND__@@@Z 100020cc f   syncres_small_ALL:SyncUIMain.obj
 0001:00001134       ?CreateGDIObjects@@YAJXZ   10002134 f   syncres_small_ALL:SyncUIMain.obj
 0001:000012b8       ?CreateDisplayMenu@@YAJPAUHMENU__@@PAPAU1@@Z 100022b8 f   syncres_small_ALL:SyncUIMain.obj
 0001:000013ac       InitializeSyncUI           100023ac f   syncres_small_ALL:SyncUIMain.obj
 0001:000017e0       SyncUIDrawListBoxItem      100027e0 f   syncres_small_ALL:SyncUIMain.obj
 0001:000019d8       ?PaintSyncUIWizardBkgnd@@YAXPAUHWND__@@@Z 100029d8 f   syncres_small_ALL:SyncUIMain.obj
 0001:00001afc       ?SyncUI_ProgressbarWndProc@@YAJPAUHWND__@@IIJ@Z 10002afc f   syncres_small_ALL:SyncUIMain.obj
 0001:00001df4       SyncUIDlgProc              10002df4 f   syncres_small_ALL:SyncUIMain.obj
 0001:0000212c       ?CmdProc@@YAXPAUHWND__@@H@Z 1000312c f   syncres_small_ALL:syncres.obj
 0001:000021c8       ?DrawSyncUIMenu@@YAXPAUHWND__@@PAUtagDRAWITEMSTRUCT@@@Z 100031c8 f   syncres_small_ALL:syncres.obj
 0001:00002284       ?DrawSyncUIButtons@@YAXPAUHWND__@@PAUtagDRAWITEMSTRUCT@@@Z 10003284 f   syncres_small_ALL:syncres.obj
 0001:00002390       ?ToggleCheckbox@@YAXPAUHWND__@@@Z 10003390 f   syncres_small_ALL:syncres.obj
 0001:00002410       ?SyncUIGetFontSize@@YAHXZ  10003410 f   syncres_small_ALL:syncres.obj
 0001:00002418       ?SyncUIGetFontName@@YAPBGXZ 10003418 f   syncres_small_ALL:syncres.obj
 0001:00002424       ?SyncUI_MainWindowNavigation@@YAXPAUHWND__@@H@Z 10003424 f   syncres_small_ALL:syncres.obj
 0001:000024a8       ?HandleIcon@@YA?AUtagSIZE@@PAUHWND__@@H@Z 100034a8 f   syncres_small_ALL:syncres.obj
 0001:00002530       ?ComputeMaxTextWidth@@YAXXZ 10003530 f   syncres_small_ALL:syncres.obj
 0001:00002608       ?CreateButtonsFromMenu@@YAJPAUHWND__@@H@Z 10003608 f   syncres_small_ALL:syncres.obj
 0001:000027f4       SyncUISetPeakTime          100037f4 f   syncres_small_ALL:syncres.obj
 0001:00002978       SyncUIGetPeakTime          10003978 f   syncres_small_ALL:syncres.obj
 0001:000029bc       ?SyncUI_CheckboxWndProc@@YAJPAUHWND__@@IIJ@Z 100039bc f   syncres_small_ALL:syncres.obj
 0001:00002ec4       ?GetPositionOverride@@YAXHPAUtagRECT@@@Z 10003ec4 f   syncres_small_ALL:syncres.obj
 0001:00003078       ?SyncUI_MainLBWndProc@@YAJPAUHWND__@@IIJ@Z 10004078 f   syncres_small_ALL:syncres.obj
 0001:00003100       ?SyncUI_MainWindowBtnProc@@YAJPAUHWND__@@IIJ@Z 10004100 f   syncres_small_ALL:syncres.obj
 0001:00003178       SyncUIItemSize             10004178 f   syncres_small_ALL:syncres.obj
 0001:000031d8       ?SubClassCtls@@YAXPAUHWND__@@W4SYNCUI_SUBCLASS_MODE@@@Z 100041d8 f   syncres_small_ALL:syncres.obj
 0001:000033f0       ?InitMessageBox@@YAHPAUHWND__@@PAU_MB_INFO@@@Z 100043f0 f   syncres_small_ALL:syncres.obj
 0001:00003abc       ?PaintSyncUIMessageboxBkgnd@@YAXPAUHWND__@@HH@Z 10004abc f   syncres_small_ALL:syncres.obj
 0001:00003be0       SyncUICreateMainControls   10004be0 f   syncres_small_ALL:syncres.obj
 0001:00003e84       ?SyncUIMessageboxProc@@YAHPAUHWND__@@IIJ@Z 10004e84 f   syncres_small_ALL:syncres.obj
 0001:00003fc8       SyncUIMessageBox           10004fc8 f   syncres_small_ALL:syncres.obj
 0001:00004050       ?PopulateEKU@@YAPAGPBU_CERT_CONTEXT@@@Z 10005050 f   syncres_small_ALL:SyncUIShowCert.obj
 0001:00004248       ?ConvertToHex@@YAXPAEKPAGH@Z 10005248 f   syncres_small_ALL:SyncUIShowCert.obj
 0001:00004298       ?PlaceCertificateDataIntoListBox@@YAHPAUHWND__@@0PAUShowCertMapping@@@Z 10005298 f   syncres_small_ALL:SyncUIShowCert.obj
 0001:00004354       ?OnSelectionOfACertField@@YAKPAUHWND__@@0PAUShowCertMapping@@@Z 10005354 f   syncres_small_ALL:SyncUIShowCert.obj
 0001:000043bc       ?LoadCAPI2@@YAHXZ          100053bc f   syncres_small_ALL:SyncUIShowCert.obj
 0001:000044c8       ?FreeCAPI2@@YAXXZ          100054c8 f   syncres_small_ALL:SyncUIShowCert.obj
 0001:00004500       ?FetchLocalStrings@@YAPAULOCAL_STRINGS@@XZ 10005500 f   syncres_small_ALL:SyncUIShowCert.obj
 0001:0000458c       ?CertHashToStr@@YAHPAEKPAPAG@Z 1000558c f   syncres_small_ALL:SyncUIShowCert.obj
 0001:00004608       ?FTtoString@@YAPAGPAU_FILETIME@@@Z 10005608 f   syncres_small_ALL:SyncUIShowCert.obj
 0001:00004734       ?v_DlgProc@CShowCert@@CAHPAUHWND__@@IIJ@Z 10005734 f   syncres_small_ALL:SyncUIShowCert.obj
 0001:00004858       ?DoModal@CShowCert@@QAAHPAUHWND__@@J@Z 10005858 f   syncres_small_ALL:SyncUIShowCert.obj
 0001:000048b8       SyncUIShowCertificate      100058b8 f   syncres_small_ALL:SyncUIShowCert.obj
 0001:00004d10       CoUninitialize             10005d10 f   ole32:ole32.dll
 0001:00004d20       CoCreateInstance           10005d20 f   ole32:ole32.dll
 0001:00004d30       CoInitializeEx             10005d30 f   ole32:ole32.dll
 0001:00004d40       WICConvertBitmapSource     10005d40 f   windowscodecs:WindowsCodecs.dll
 0001:00004d50       DisableThreadLibraryCalls  10005d50 f   coredll:COREDLL.dll
 0001:00004d60       FreeLibrary                10005d60 f   coredll:COREDLL.dll
 0001:00004d70       DestroyMenu                10005d70 f   coredll:COREDLL.dll
 0001:00004d80       DeleteObject               10005d80 f   coredll:COREDLL.dll
 0001:00004d90       InterlockedDecrement       10005d90 f   coredll:COREDLL.dll
 0001:00004da0       Rectangle                  10005da0 f   coredll:COREDLL.dll
 0001:00004db0       SelectObject               10005db0 f   coredll:COREDLL.dll
 0001:00004dc0       GetStockObject             10005dc0 f   coredll:COREDLL.dll
 0001:00004dd0       DrawTextW                  10005dd0 f   coredll:COREDLL.dll
 0001:00004de0       SetBkMode                  10005de0 f   coredll:COREDLL.dll
 0001:00004df0       SetTextColor               10005df0 f   coredll:COREDLL.dll
 0001:00004e00       GetClassNameW              10005e00 f   coredll:COREDLL.dll
 0001:00004e10       DeleteDC                   10005e10 f   coredll:COREDLL.dll
 0001:00004e20       SetRect                    10005e20 f   coredll:COREDLL.dll
 0001:00004e30       CreateCompatibleDC         10005e30 f   coredll:COREDLL.dll
 0001:00004e40       GetMenuItemInfoW           10005e40 f   coredll:COREDLL.dll
 0001:00004e50       SendMessageW               10005e50 f   coredll:COREDLL.dll
 0001:00004e60       SetWindowTextW             10005e60 f   coredll:COREDLL.dll
 0001:00004e70       GetDlgItem                 10005e70 f   coredll:COREDLL.dll
 0001:00004e80       GetWindowTextW             10005e80 f   coredll:COREDLL.dll
 0001:00004e90       SetWindowPos               10005e90 f   coredll:COREDLL.dll
 0001:00004ea0       GetWindowRect              10005ea0 f   coredll:COREDLL.dll
 0001:00004eb0       SystemParametersInfoW      10005eb0 f   coredll:COREDLL.dll
 0001:00004ec0       SetProp                    10005ec0 f   coredll:COREDLL.dll
 0001:00004ed0       SetWindowLongW             10005ed0 f   coredll:COREDLL.dll
 0001:00004ee0       GetWindowLongW             10005ee0 f   coredll:COREDLL.dll
 0001:00004ef0       BitBlt                     10005ef0 f   coredll:COREDLL.dll
 0001:00004f00       EndPaint                   10005f00 f   coredll:COREDLL.dll
 0001:00004f10       LocalFree                  10005f10 f   coredll:COREDLL.dll
 0001:00004f20       InflateRect                10005f20 f   coredll:COREDLL.dll
 0001:00004f30       LocalAlloc                 10005f30 f   coredll:COREDLL.dll
 0001:00004f40       GetWindowTextLengthW       10005f40 f   coredll:COREDLL.dll
 0001:00004f50       BeginPaint                 10005f50 f   coredll:COREDLL.dll
 0001:00004f60       CallWindowProcW            10005f60 f   coredll:COREDLL.dll
 0001:00004f70       MapWindowPoints            10005f70 f   coredll:COREDLL.dll
 0001:00004f80       GetParent                  10005f80 f   coredll:COREDLL.dll
 0001:00004f90       GetClientRect              10005f90 f   coredll:COREDLL.dll
 0001:00004fa0       GetProp                    10005fa0 f   coredll:COREDLL.dll
 0001:00004fb0       OffsetRect                 10005fb0 f   coredll:COREDLL.dll
 0001:00004fc0       StretchBlt                 10005fc0 f   coredll:COREDLL.dll
 0001:00004fd0       CreateCompatibleBitmap     10005fd0 f   coredll:COREDLL.dll
 0001:00004fe0       GetObjectW                 10005fe0 f   coredll:COREDLL.dll
 0001:00004ff0       GetWindow                  10005ff0 f   coredll:COREDLL.dll
 0001:00005000       IsWindowVisible            10006000 f   coredll:COREDLL.dll
 0001:00005010       CreateDIBSection           10006010 f   coredll:COREDLL.dll
 0001:00005020       ReleaseDC                  10006020 f   coredll:COREDLL.dll
 0001:00005030       CreatePen                  10006030 f   coredll:COREDLL.dll
 0001:00005040       CreateSolidBrush           10006040 f   coredll:COREDLL.dll
 0001:00005050       CreateFontIndirectW        10006050 f   coredll:COREDLL.dll
 0001:00005060       StringCchCopyW             10006060 f   coredll:COREDLL.dll
 0001:00005070       MulDiv                     10006070 f   coredll:COREDLL.dll
 0001:00005080       GetDeviceCaps              10006080 f   coredll:COREDLL.dll
 0001:00005090       GetDC                      10006090 f   coredll:COREDLL.dll
 0001:000050a0       InsertMenuW                100060a0 f   coredll:COREDLL.dll
 0001:000050b0       CreatePopupMenu            100060b0 f   coredll:COREDLL.dll
 0001:000050c0       LoadBitmapW                100060c0 f   coredll:COREDLL.dll
 0001:000050d0       SizeofResource             100060d0 f   coredll:COREDLL.dll
 0001:000050e0       LoadResource               100060e0 f   coredll:COREDLL.dll
 0001:000050f0       FindResourceW              100060f0 f   coredll:COREDLL.dll
 0001:00005100       InterlockedIncrement       10006100 f   coredll:COREDLL.dll
 0001:00005110       ShowWindow                 10006110 f   coredll:COREDLL.dll
 0001:00005120       CreateWindowExW            10006120 f   coredll:COREDLL.dll
 0001:00005130       GetModuleHandleW           10006130 f   coredll:COREDLL.dll
 0001:00005140       StringCchPrintfW           10006140 f   coredll:COREDLL.dll
 0001:00005150       GetFocus                   10006150 f   coredll:COREDLL.dll
 0001:00005160       IntersectRect              10006160 f   coredll:COREDLL.dll
 0001:00005170       LineTo                     10006170 f   coredll:COREDLL.dll
 0001:00005180       MoveToEx                   10006180 f   coredll:COREDLL.dll
 0001:00005190       CreatePenIndirect          10006190 f   coredll:COREDLL.dll
 0001:000051a0       GetCurrentObject           100061a0 f   coredll:COREDLL.dll
 0001:000051b0       RemoveProp                 100061b0 f   coredll:COREDLL.dll
 0001:000051c0       GetProcAddressW            100061c0 f   coredll:COREDLL.dll
 0001:000051d0       LoadLibraryW               100061d0 f   coredll:COREDLL.dll
 0001:000051e0       SipStatus                  100061e0 f   coredll:COREDLL.dll
 0001:000051f0       SetCursor                  100061f0 f   coredll:COREDLL.dll
 0001:00005200       LoadCursorW                10006200 f   coredll:COREDLL.dll
 0001:00005210       TrackPopupMenuEx           10006210 f   coredll:COREDLL.dll
 0001:00005220       FillRect                   10006220 f   coredll:COREDLL.dll
 0001:00005230       GetDlgItemTextW            10006230 f   coredll:COREDLL.dll
 0001:00005240       InvalidateRect             10006240 f   coredll:COREDLL.dll
 0001:00005250       SetFocus                   10006250 f   coredll:COREDLL.dll
 0001:00005260       IsWindowEnabled            10006260 f   coredll:COREDLL.dll
 0001:00005270       DestroyWindow              10006270 f   coredll:COREDLL.dll
 0001:00005280       ChangeDisplaySettingsEx    10006280 f   coredll:COREDLL.dll
 0001:00005290       GetSystemMetrics           10006290 f   coredll:COREDLL.dll
 0001:000052a0       MoveWindow                 100062a0 f   coredll:COREDLL.dll
 0001:000052b0       EnableWindow               100062b0 f   coredll:COREDLL.dll
 0001:000052c0       LoadMenuW                  100062c0 f   coredll:COREDLL.dll
 0001:000052d0       GetLocaleInfoW             100062d0 f   coredll:COREDLL.dll
 0001:000052e0       SetCapture                 100062e0 f   coredll:COREDLL.dll
 0001:000052f0       PtInRect                   100062f0 f   coredll:COREDLL.dll
 0001:00005300       ReleaseCapture             10006300 f   coredll:COREDLL.dll
 0001:00005310       DrawFocusRect              10006310 f   coredll:COREDLL.dll
 0001:00005320       GetTextMetricsW            10006320 f   coredll:COREDLL.dll
 0001:00005330       LoadStringW                10006330 f   coredll:COREDLL.dll
 0001:00005340       GetAsyncKeyState           10006340 f   coredll:COREDLL.dll
 0001:00005350       GetTextExtentExPointW      10006350 f   coredll:COREDLL.dll
 0001:00005360       EndDialog                  10006360 f   coredll:COREDLL.dll
 0001:00005370       DialogBoxIndirectParamW    10006370 f   coredll:COREDLL.dll
 0001:00005380       StringCchCatExW            10006380 f   coredll:COREDLL.dll
 0001:00005390       GetLastError               10006390 f   coredll:COREDLL.dll
 0001:000053a0       SetDlgItemTextW            100063a0 f   coredll:COREDLL.dll
 0001:000053b0       StringCchCatW              100063b0 f   coredll:COREDLL.dll
 0001:000053c0       GetTimeFormatW             100063c0 f   coredll:COREDLL.dll
 0001:000053d0       GetDateFormatW             100063d0 f   coredll:COREDLL.dll
 0001:000053e0       FileTimeToSystemTime       100063e0 f   coredll:COREDLL.dll
 0001:000054e8       _DllMainCRTStartup         100064e8 f   corelib0:pegdmain.obj
 0001:00005514       __GSHandlerCheckCommon     10006514 f   corelib0:gshandler.obj
 0001:00005550       __GSHandlerCheck           10006550 f   corelib0:gshandler.obj
 0001:00005570       __security_init_cookie     10006570 f   corelib0:seccinit.obj
 0001:000055bc       __security_check_cookie    100065bc f   corelib0:armsecgs.obj
 0001:000055cc       __gsfailure                100065cc     corelib0:armsecgs.obj
 0001:000056f8       _cexit                     100066f8 f   corelib0:cexit.obj
 0001:00005708       _initterm                  10006708 f   corelib0:crt0dat.obj
 0001:00005734       _cinit                     10006734 f   corelib0:crt0dat.obj
 0001:00005794       __crt_ExitProcess          10006794 f   corelib0:exitproc_proxy.obj
 0001:000057a0       memset                     100067a0 f   corelib1:COREDLL.dll
 0001:000057b0       _wcsicmp                   100067b0 f   corelib1:COREDLL.dll
 0001:000057c0       wcsncmp                    100067c0 f   corelib1:COREDLL.dll
 0001:000057d0       _wtoi                      100067d0 f   corelib1:COREDLL.dll
 0001:000057e0       wcstok_s                   100067e0 f   corelib1:COREDLL.dll
 0001:000057f0       wcslen                     100067f0 f   corelib1:COREDLL.dll
 0001:00005800       mbstowcs_s                 10006800 f   corelib1:COREDLL.dll
 0001:00005810       ??2@YAPAXI@Z               10006810 f   corelib1:COREDLL.dll
 0001:00005820       strlen                     10006820 f   corelib1:COREDLL.dll
 0001:00005830       ??3@YAXPAX@Z               10006830 f   corelib1:COREDLL.dll
 0001:00005840       _XcptFilter                10006840 f   corelib1:COREDLL.dll
 0001:00005850       __C_specific_handler       10006850 f   corelib1:COREDLL.dll
 0001:00005860       __security_gen_cookie2     10006860 f   corelib1:COREDLL.dll
 0001:00005870       __report_gsfailure         10006870 f   corelib1:COREDLL.dll
 0001:00005880       free                       10006880 f   corelib1:COREDLL.dll
 0001:00005890       DeleteCriticalSection      10006890 f   coredll:COREDLL.dll
 0001:000058a0       InterlockedExchange        100068a0 f   coredll:COREDLL.dll
 0001:000058b0       TerminateProcess           100068b0 f   coredll:COREDLL.dll
 0001:00005924       __IMPORT_DESCRIPTOR_ole32  10006924     ole32:ole32.dll
 0001:00005938       __IMPORT_DESCRIPTOR_WindowsCodecs 10006938     windowscodecs:WindowsCodecs.dll
 0001:0000594c       __IMPORT_DESCRIPTOR_COREDLL 1000694c     coredll:COREDLL.dll
 0001:00005960       __NULL_IMPORT_DESCRIPTOR   10006960     ole32:ole32.dll
 0002:00000000       __imp_StringCchPrintfW     10007000     coredll:COREDLL.dll
 0002:00000004       __imp_TerminateProcess     10007004     coredll:COREDLL.dll
 0002:00000008       __imp_InterlockedExchange  10007008     coredll:COREDLL.dll
 0002:0000000c       __imp_DisableThreadLibraryCalls 1000700c     coredll:COREDLL.dll
 0002:00000010       __imp_FreeLibrary          10007010     coredll:COREDLL.dll
 0002:00000014       __imp_DestroyMenu          10007014     coredll:COREDLL.dll
 0002:00000018       __imp_DeleteObject         10007018     coredll:COREDLL.dll
 0002:0000001c       __imp_InterlockedDecrement 1000701c     coredll:COREDLL.dll
 0002:00000020       __imp_Rectangle            10007020     coredll:COREDLL.dll
 0002:00000024       __imp_SelectObject         10007024     coredll:COREDLL.dll
 0002:00000028       __imp_GetStockObject       10007028     coredll:COREDLL.dll
 0002:0000002c       __imp_DrawTextW            1000702c     coredll:COREDLL.dll
 0002:00000030       __imp_SetBkMode            10007030     coredll:COREDLL.dll
 0002:00000034       __imp_SetTextColor         10007034     coredll:COREDLL.dll
 0002:00000038       __imp_GetClassNameW        10007038     coredll:COREDLL.dll
 0002:0000003c       __imp_DeleteDC             1000703c     coredll:COREDLL.dll
 0002:00000040       __imp_SetRect              10007040     coredll:COREDLL.dll
 0002:00000044       __imp_CreateCompatibleDC   10007044     coredll:COREDLL.dll
 0002:00000048       __imp_GetMenuItemInfoW     10007048     coredll:COREDLL.dll
 0002:0000004c       __imp_SendMessageW         1000704c     coredll:COREDLL.dll
 0002:00000050       __imp_SetWindowTextW       10007050     coredll:COREDLL.dll
 0002:00000054       __imp_GetDlgItem           10007054     coredll:COREDLL.dll
 0002:00000058       __imp_GetWindowTextW       10007058     coredll:COREDLL.dll
 0002:0000005c       __imp_SetWindowPos         1000705c     coredll:COREDLL.dll
 0002:00000060       __imp_GetWindowRect        10007060     coredll:COREDLL.dll
 0002:00000064       __imp_SystemParametersInfoW 10007064     coredll:COREDLL.dll
 0002:00000068       __imp_SetProp              10007068     coredll:COREDLL.dll
 0002:0000006c       __imp_SetWindowLongW       1000706c     coredll:COREDLL.dll
 0002:00000070       __imp_GetWindowLongW       10007070     coredll:COREDLL.dll
 0002:00000074       __imp_BitBlt               10007074     coredll:COREDLL.dll
 0002:00000078       __imp_EndPaint             10007078     coredll:COREDLL.dll
 0002:0000007c       __imp_LocalFree            1000707c     coredll:COREDLL.dll
 0002:00000080       __imp_InflateRect          10007080     coredll:COREDLL.dll
 0002:00000084       __imp_LocalAlloc           10007084     coredll:COREDLL.dll
 0002:00000088       __imp_GetWindowTextLengthW 10007088     coredll:COREDLL.dll
 0002:0000008c       __imp_BeginPaint           1000708c     coredll:COREDLL.dll
 0002:00000090       __imp_CallWindowProcW      10007090     coredll:COREDLL.dll
 0002:00000094       __imp_MapWindowPoints      10007094     coredll:COREDLL.dll
 0002:00000098       __imp_GetParent            10007098     coredll:COREDLL.dll
 0002:0000009c       __imp_GetClientRect        1000709c     coredll:COREDLL.dll
 0002:000000a0       __imp_GetProp              100070a0     coredll:COREDLL.dll
 0002:000000a4       __imp_OffsetRect           100070a4     coredll:COREDLL.dll
 0002:000000a8       __imp_StretchBlt           100070a8     coredll:COREDLL.dll
 0002:000000ac       __imp_CreateCompatibleBitmap 100070ac     coredll:COREDLL.dll
 0002:000000b0       __imp_GetObjectW           100070b0     coredll:COREDLL.dll
 0002:000000b4       __imp_GetWindow            100070b4     coredll:COREDLL.dll
 0002:000000b8       __imp_IsWindowVisible      100070b8     coredll:COREDLL.dll
 0002:000000bc       __imp_CreateDIBSection     100070bc     coredll:COREDLL.dll
 0002:000000c0       __imp_ReleaseDC            100070c0     coredll:COREDLL.dll
 0002:000000c4       __imp_CreatePen            100070c4     coredll:COREDLL.dll
 0002:000000c8       __imp_CreateSolidBrush     100070c8     coredll:COREDLL.dll
 0002:000000cc       __imp_CreateFontIndirectW  100070cc     coredll:COREDLL.dll
 0002:000000d0       __imp_StringCchCopyW       100070d0     coredll:COREDLL.dll
 0002:000000d4       __imp_MulDiv               100070d4     coredll:COREDLL.dll
 0002:000000d8       __imp_GetDeviceCaps        100070d8     coredll:COREDLL.dll
 0002:000000dc       __imp_GetDC                100070dc     coredll:COREDLL.dll
 0002:000000e0       __imp_InsertMenuW          100070e0     coredll:COREDLL.dll
 0002:000000e4       __imp_CreatePopupMenu      100070e4     coredll:COREDLL.dll
 0002:000000e8       __imp_LoadBitmapW          100070e8     coredll:COREDLL.dll
 0002:000000ec       __imp_SizeofResource       100070ec     coredll:COREDLL.dll
 0002:000000f0       __imp_LoadResource         100070f0     coredll:COREDLL.dll
 0002:000000f4       __imp_FindResourceW        100070f4     coredll:COREDLL.dll
 0002:000000f8       __imp_InterlockedIncrement 100070f8     coredll:COREDLL.dll
 0002:000000fc       __imp_ShowWindow           100070fc     coredll:COREDLL.dll
 0002:00000100       __imp_CreateWindowExW      10007100     coredll:COREDLL.dll
 0002:00000104       __imp_GetModuleHandleW     10007104     coredll:COREDLL.dll
 0002:00000108       __imp_GetFocus             10007108     coredll:COREDLL.dll
 0002:0000010c       __imp_IntersectRect        1000710c     coredll:COREDLL.dll
 0002:00000110       __imp_LineTo               10007110     coredll:COREDLL.dll
 0002:00000114       __imp_MoveToEx             10007114     coredll:COREDLL.dll
 0002:00000118       __imp_CreatePenIndirect    10007118     coredll:COREDLL.dll
 0002:0000011c       __imp_GetCurrentObject     1000711c     coredll:COREDLL.dll
 0002:00000120       __imp_RemoveProp           10007120     coredll:COREDLL.dll
 0002:00000124       __imp_GetProcAddressW      10007124     coredll:COREDLL.dll
 0002:00000128       __imp_LoadLibraryW         10007128     coredll:COREDLL.dll
 0002:0000012c       __imp_SipStatus            1000712c     coredll:COREDLL.dll
 0002:00000130       __imp_SetCursor            10007130     coredll:COREDLL.dll
 0002:00000134       __imp_LoadCursorW          10007134     coredll:COREDLL.dll
 0002:00000138       __imp_TrackPopupMenuEx     10007138     coredll:COREDLL.dll
 0002:0000013c       __imp_FillRect             1000713c     coredll:COREDLL.dll
 0002:00000140       __imp_GetDlgItemTextW      10007140     coredll:COREDLL.dll
 0002:00000144       __imp_InvalidateRect       10007144     coredll:COREDLL.dll
 0002:00000148       __imp_SetFocus             10007148     coredll:COREDLL.dll
 0002:0000014c       __imp_IsWindowEnabled      1000714c     coredll:COREDLL.dll
 0002:00000150       __imp_DestroyWindow        10007150     coredll:COREDLL.dll
 0002:00000154       __imp_ChangeDisplaySettingsEx 10007154     coredll:COREDLL.dll
 0002:00000158       __imp_GetSystemMetrics     10007158     coredll:COREDLL.dll
 0002:0000015c       __imp_MoveWindow           1000715c     coredll:COREDLL.dll
 0002:00000160       __imp_EnableWindow         10007160     coredll:COREDLL.dll
 0002:00000164       __imp_LoadMenuW            10007164     coredll:COREDLL.dll
 0002:00000168       __imp_GetLocaleInfoW       10007168     coredll:COREDLL.dll
 0002:0000016c       __imp_SetCapture           1000716c     coredll:COREDLL.dll
 0002:00000170       __imp_PtInRect             10007170     coredll:COREDLL.dll
 0002:00000174       __imp_ReleaseCapture       10007174     coredll:COREDLL.dll
 0002:00000178       __imp_DrawFocusRect        10007178     coredll:COREDLL.dll
 0002:0000017c       __imp_GetTextMetricsW      1000717c     coredll:COREDLL.dll
 0002:00000180       __imp_LoadStringW          10007180     coredll:COREDLL.dll
 0002:00000184       __imp_GetAsyncKeyState     10007184     coredll:COREDLL.dll
 0002:00000188       __imp_GetTextExtentExPointW 10007188     coredll:COREDLL.dll
 0002:0000018c       __imp_EndDialog            1000718c     coredll:COREDLL.dll
 0002:00000190       __imp_DialogBoxIndirectParamW 10007190     coredll:COREDLL.dll
 0002:00000194       __imp_StringCchCatExW      10007194     coredll:COREDLL.dll
 0002:00000198       __imp_GetLastError         10007198     coredll:COREDLL.dll
 0002:0000019c       __imp_SetDlgItemTextW      1000719c     coredll:COREDLL.dll
 0002:000001a0       __imp_StringCchCatW        100071a0     coredll:COREDLL.dll
 0002:000001a4       __imp_GetTimeFormatW       100071a4     coredll:COREDLL.dll
 0002:000001a8       __imp_GetDateFormatW       100071a8     coredll:COREDLL.dll
 0002:000001ac       __imp_FileTimeToSystemTime 100071ac     coredll:COREDLL.dll
 0002:000001b0       __imp_memset               100071b0     corelib1:COREDLL.dll
 0002:000001b4       __imp__wcsicmp             100071b4     corelib1:COREDLL.dll
 0002:000001b8       __imp___rt_udiv            100071b8     corelib1:COREDLL.dll
 0002:000001bc       __imp_wcsncmp              100071bc     corelib1:COREDLL.dll
 0002:000001c0       __imp__wtoi                100071c0     corelib1:COREDLL.dll
 0002:000001c4       __imp_wcstok_s             100071c4     corelib1:COREDLL.dll
 0002:000001c8       __imp_wcslen               100071c8     corelib1:COREDLL.dll
 0002:000001cc       __imp_mbstowcs_s           100071cc     corelib1:COREDLL.dll
 0002:000001d0       __imp_??2@YAPAXI@Z         100071d0     corelib1:COREDLL.dll
 0002:000001d4       __imp_strlen               100071d4     corelib1:COREDLL.dll
 0002:000001d8       __imp_??3@YAXPAX@Z         100071d8     corelib1:COREDLL.dll
 0002:000001dc       __imp__XcptFilter          100071dc     corelib1:COREDLL.dll
 0002:000001e0       __imp___C_specific_handler 100071e0     corelib1:COREDLL.dll
 0002:000001e4       __imp___security_gen_cookie2 100071e4     corelib1:COREDLL.dll
 0002:000001e8       __imp___report_gsfailure   100071e8     corelib1:COREDLL.dll
 0002:000001ec       __imp_free                 100071ec     corelib1:COREDLL.dll
 0002:000001f0       __imp_DeleteCriticalSection 100071f0     coredll:COREDLL.dll
 0002:000001f4       \177COREDLL_NULL_THUNK_DATA 100071f4     coredll:COREDLL.dll
 0002:000001f8       __imp_WICConvertBitmapSource 100071f8     windowscodecs:WindowsCodecs.dll
 0002:000001fc       \177WindowsCodecs_NULL_THUNK_DATA 100071fc     windowscodecs:WindowsCodecs.dll
 0002:00000200       __imp_CoInitializeEx       10007200     ole32:ole32.dll
 0002:00000204       __imp_CoCreateInstance     10007204     ole32:ole32.dll
 0002:00000208       __imp_CoUninitialize       10007208     ole32:ole32.dll
 0002:0000020c       \177ole32_NULL_THUNK_DATA  1000720c     ole32:ole32.dll
 0002:00000300       ?rgcMsgBoxButtonNum@@3PAHA 10007300     syncres_small_ALL:syncres.obj
 0002:00000318       ?g_nItemSize@@3PAHA        10007318     syncres_small_ALL:syncres.obj
 0002:00000358       ?g_rcItemRect@@3PAUtagRECT@@A 10007358     syncres_small_ALL:syncres.obj
 0002:000003a0       __security_cookie          100073a0     corelib0:seccinit.obj
 0002:000003a4       __security_cookie_complement 100073a4     corelib0:seccinit.obj
 0002:000003a8       ?g_hAygShell@@3PAUHINSTANCE__@@A 100073a8     syncres_small_ALL:SyncUIMain.obj
 0002:000003ac       ?g_hInstAux@@3PAUHINSTANCE__@@A 100073ac     syncres_small_ALL:SyncUIMain.obj
 0002:000003b0       ?g_pfnSHSipPreference@@3P6AHPAUHWND__@@W4tagSIPSTATE@@@ZA 100073b0     syncres_small_ALL:SyncUIMain.obj
 0002:000003b8       ?g_UIAux@@3USyncUIAuxData@@A 100073b8     syncres_small_ALL:SyncUIMain.obj
 0002:00000438       ?g_cRefCount@@3JA          10007438     syncres_small_ALL:SyncUIMain.obj
 0002:00000440       ?pCertNameToStrW@@3P6AKKPAU_CRYPTOAPI_BLOB@@KPAGK@ZA 10007440     syncres_small_ALL:SyncUIShowCert.obj
 0002:00000444       ?pCertGetNameStringW@@3P6AKPBU_CERT_CONTEXT@@KKPAXPAGK@ZA 10007444     syncres_small_ALL:SyncUIShowCert.obj
 0002:00000448       ?pCryptFindOIDInfo@@3P6APBU_CRYPT_OID_INFO@@KPAXK@ZA 10007448     syncres_small_ALL:SyncUIShowCert.obj
 0002:0000044c       ?pCertGetEnhancedKeyUsage@@3P6AHPBU_CERT_CONTEXT@@KPAU_CTL_USAGE@@PAK@ZA 1000744c     syncres_small_ALL:SyncUIShowCert.obj
 0002:00000450       ?pCertGetCertificateContextProperty@@3P6AHPBU_CERT_CONTEXT@@KPAXPAK@ZA 10007450     syncres_small_ALL:SyncUIShowCert.obj
 0002:00002488       _exitflag                  10009488     corelib0:cexit.obj
 0002:0000248c       __onexitend                1000948c     <common>
 0002:00002490       __onexitbegin              10009490     <common>
 0002:00002494       g_pcsExit                  10009494     <common>
 0002:00002498       _pRawDllMain               10009498     <common>

 entry point at        0001:000054e8

 Static symbols

 0001:000053f8       _DllMainCRTStartupHelper   100063f8 f   corelib0:pegdmain.obj
 0001:00005610       doexit                     10006610 f   corelib0:cexit.obj
