 wininet

 Timestamp is 5e0fd25c (Fri Jan 03 15:46:36 2020)

 Preferred load address is 10000000

 Start         Length     Name                   Class
 0001:00000000 00000004H .CRT$XCA                CODE
 0001:00000004 00000070H .CRT$XCU                CODE
 0001:00000074 00000004H .CRT$XCZ                CODE
 0001:00000078 00000004H .CRT$XIA                CODE
 0001:0000007c 00000004H .CRT$XIZ                CODE
 0001:00000080 00000004H .CRT$XPA                CODE
 0001:00000084 00000004H .CRT$XPZ                CODE
 0001:00000088 00000004H .CRT$XTA                CODE
 0001:0000008c 00000004H .CRT$XTZ                CODE
 0001:00000090 00010dbaH .rdata                  CODE
 0001:00010e4c 00000024H .rdata$debug            CODE
 0001:00010e70 0007412cH .text                   CODE
 0001:00084f9c 000002dcH .text$yc                CODE
 0001:00085278 000003dcH .text$yd                CODE
 0001:00085654 00000970H .xdata                  CODE
 0001:00085fc4 00000000H ATL$__a                 CODE
 0001:00085fc4 00000000H ATL$__z                 CODE
 0001:00085fc4 0000003cH .idata$2                CODE
 0001:00086000 00000014H .idata$3                CODE
 0001:00086014 00000380H .idata$4                CODE
 0001:00086394 00000386H .idata$6                CODE
 0001:00086720 0000164eH .edata                  CODE
 0002:00000000 00000380H .idata$5                DATA
 0002:00000380 00001408H .data                   DATA
 0002:000017a0 00003630H .bss                    DATA
 0003:00000000 00004160H .pdata                  DATA
 0004:00000000 00001060H .rsrc$01                DATA
 0004:00001060 000175e0H .rsrc$02                DATA

  Address         Publics by Value              Rva+Base       Lib:Object

 0000:00000000       ___safe_se_handler_count   00000000     <absolute>
 0000:00000000       ___safe_se_handler_table   00000000     <absolute>
 0001:00000000       __xc_a                     10001000     corelib0:crt0init.obj
 0001:00000074       __xc_z                     10001074     corelib0:crt0init.obj
 0001:00000078       __xi_a                     10001078     corelib0:crt0init.obj
 0001:0000007c       __xi_z                     1000107c     corelib0:crt0init.obj
 0001:00000080       __xp_a                     10001080     corelib0:crt0init.obj
 0001:00000084       __xp_z                     10001084     corelib0:crt0init.obj
 0001:00000088       __xt_a                     10001088     corelib0:crt0init.obj
 0001:0000008c       __xt_z                     1000108c     corelib0:crt0init.obj
 0001:000000ec       ??_C@_03LEMCFJEK@?$AN?6?5?$AA@ 100010ec     wininet_common:util.obj
 0001:000000f0       ??_C@_04JHBIMMCB@?4cgi?$AA@ 100010f0     wininet_common:util.obj
 0001:000000f8       ??_C@_04HLONOPDM@?4dll?$AA@ 100010f8     wininet_common:util.obj
 0001:00000100       ??_C@_04JLMDILM@?4exe?$AA@ 10001100     wininet_common:util.obj
 0001:00000108       ??_C@_01CLKCMJKC@?5?$AA@   10001108     wininet_common:util.obj
 0001:0000010c       ??_C@_0BC@MCMDOHGA@UpgradeInProgress?$AA@ 1000110c     wininet_common:util.obj
 0001:00000120       ??_C@_0BG@KHGDOHME@SystemSetupInProgress?$AA@ 10001120     wininet_common:util.obj
 0001:00000138       ??_C@_0N@JOLFNMBH@System?2Setup?$AA@ 10001138     wininet_common:util.obj
 0001:00000148       ??_C@_01KMDKNFGN@?1?$AA@   10001148     wininet_common:util.obj
 0001:0000014c       ??_C@_01EOFPKCAF@?$EA?$AA@ 1000114c     wininet_common:util.obj
 0001:00000150       ??_C@_01JLIPDDHJ@?3?$AA@   10001150     wininet_common:util.obj
 0001:00000154       ??_C@_07HKOKENHM@Cookie?3?$AA@ 10001154     wininet_common:util.obj
 0001:0000015c       ??_C@_07FMIIELEH@visited?$AA@ 1000115c     wininet_common:util.obj
 0001:00000164       ??_C@_06IJKGDEKF@cookie?$AA@ 10001164     wininet_common:util.obj
 0001:0000016c       ??_C@_05BCHGOAMK@https?$AA@ 1000116c     wininet_common:util.obj
 0001:00000174       ??_C@_04IAFLKNP@http?$AA@  10001174     wininet_common:util.obj
 0001:0000019c       ??_C@_00CNPNBAHC@?$AA@     1000119c     wininet_common:servinfo.obj
 0001:000001a0       ??_C@_0BH@MOIIDLCH@?5?5?5?5?5?5?5connection?$DN?$CFs?4?6?$AA@ 100011a0     wininet_common:servinfo.obj
 0001:000001b8       ??_7AcquiredConnSP@@6B@    100011b8     wininet_common:servinfo.obj
 0001:0000023c       ??_7ICSocket@@6B@          1000123c     wininet_common:icsocket.obj
 0001:00000254       ??_7CFsm_SocketSend@@6B@   10001254     wininet_common:icsocket.obj
 0001:00000258       ??_7CFsm_SocketReceive@@6B@ 10001258     wininet_common:icsocket.obj
 0001:0000025c       ??_7CFsm_SocketConnect@@6B@ 1000125c     wininet_common:icsocket.obj
 0001:00000280       ??_C@_01GBGANLPD@0?$AA@    10001280     wininet_common:icasync.obj
 0001:00000284       ??_C@_1BA@FFBLBHHL@?$AAW?$AAI?$AAN?$AAI?$AAN?$AAE?$AAT?$AA?$AA@ 10001284     wininet_common:icasync.obj
 0001:000002d4       ??_7CFsm_ResolveHost@@6B@  100012d4     wininet_common:caddrlst.obj
 0001:000002d8       ??_C@_0BE@POHACPBG@WSAAddressToStringW?$AA@ 100012d8     wininet_common:iwinsock.obj
 0001:000002ec       ??_C@_0BE@JNACCIMB@WSAStringToAddressW?$AA@ 100012ec     wininet_common:iwinsock.obj
 0001:00000300       ??_C@_0M@DCNHJPFN@WSANSPIoctl?$AA@ 10001300     wininet_common:iwinsock.obj
 0001:0000030c       ??_C@_0BE@JNCKODF@WSALookupServiceEnd?$AA@ 1000130c     wininet_common:iwinsock.obj
 0001:00000320       ??_C@_0BG@DCIFGHGB@WSALookupServiceNextW?$AA@ 10001320     wininet_common:iwinsock.obj
 0001:00000338       ??_C@_0BH@GDKECEEA@WSALookupServiceBeginW?$AA@ 10001338     wininet_common:iwinsock.obj
 0001:00000350       ??_C@_0M@NNJNLPKG@getnameinfo?$AA@ 10001350     wininet_common:iwinsock.obj
 0001:0000035c       ??_C@_0N@EHOPPMLH@freeaddrinfo?$AA@ 1000135c     wininet_common:iwinsock.obj
 0001:0000036c       ??_C@_0M@MBIPAJOD@getaddrinfo?$AA@ 1000136c     wininet_common:iwinsock.obj
 0001:00000378       ??_C@_0N@EPLFDCCC@__WSAFDIsSet?$AA@ 10001378     wininet_common:iwinsock.obj
 0001:00000388       ??_C@_0L@OPKENMEN@WSACleanup?$AA@ 10001388     wininet_common:iwinsock.obj
 0001:00000394       ??_C@_0L@EEFLCHHA@WSAStartup?$AA@ 10001394     wininet_common:iwinsock.obj
 0001:000003a0       ??_C@_0BA@JJKJLKCN@WSASetLastError?$AA@ 100013a0     wininet_common:iwinsock.obj
 0001:000003b0       ??_C@_0BA@ONBHHGGB@WSAGetLastError?$AA@ 100013b0     wininet_common:iwinsock.obj
 0001:000003c0       ??_C@_08LGAGEKPE@WSAIoctl?$AA@ 100013c0     wininet_common:iwinsock.obj
 0001:000003cc       ??_C@_0M@FIJPCJJO@gethostname?$AA@ 100013cc     wininet_common:iwinsock.obj
 0001:000003d8       ??_C@_0O@BFBCKHPD@gethostbyname?$AA@ 100013d8     wininet_common:iwinsock.obj
 0001:000003e8       ??_C@_06HBELJPBO@socket?$AA@ 100013e8     wininet_common:iwinsock.obj
 0001:000003f0       ??_C@_08FIACBBDA@shutdown?$AA@ 100013f0     wininet_common:iwinsock.obj
 0001:000003fc       ??_C@_0L@CKHNIFCM@setsockopt?$AA@ 100013fc     wininet_common:iwinsock.obj
 0001:00000408       ??_C@_06MEPBGKEC@sendto?$AA@ 10001408     wininet_common:iwinsock.obj
 0001:00000410       ??_C@_04MIIPNNEF@send?$AA@ 10001410     wininet_common:iwinsock.obj
 0001:00000418       ??_C@_06LGNCCACI@select?$AA@ 10001418     wininet_common:iwinsock.obj
 0001:00000420       ??_C@_08HMBBGFHE@recvfrom?$AA@ 10001420     wininet_common:iwinsock.obj
 0001:0000042c       ??_C@_04IFMDBHHF@recv?$AA@ 1000142c     wininet_common:iwinsock.obj
 0001:00000434       ??_C@_05FBACCBIB@ntohs?$AA@ 10001434     wininet_common:iwinsock.obj
 0001:0000043c       ??_C@_06OODDLKLE@listen?$AA@ 1000143c     wininet_common:iwinsock.obj
 0001:00000444       ??_C@_0M@PBPOCKDG@ioctlsocket?$AA@ 10001444     wininet_common:iwinsock.obj
 0001:00000450       ??_C@_09CFOACKNM@inet_ntoa?$AA@ 10001450     wininet_common:iwinsock.obj
 0001:0000045c       ??_C@_09JKBDEEOB@inet_addr?$AA@ 1000145c     wininet_common:iwinsock.obj
 0001:00000468       ??_C@_05IDNGLOCO@htons?$AA@ 10001468     wininet_common:iwinsock.obj
 0001:00000470       ??_C@_05EOIMLALA@htonl?$AA@ 10001470     wininet_common:iwinsock.obj
 0001:00000478       ??_C@_05JMFICPBP@ntohl?$AA@ 10001478     wininet_common:iwinsock.obj
 0001:00000480       ??_C@_0L@DEFCDCGF@getsockopt?$AA@ 10001480     wininet_common:iwinsock.obj
 0001:0000048c       ??_C@_0M@ODFENJLC@getsockname?$AA@ 1000148c     wininet_common:iwinsock.obj
 0001:00000498       ??_C@_0M@MBAJPNG@getpeername?$AA@ 10001498     wininet_common:iwinsock.obj
 0001:000004a4       ??_C@_07KAIBNCHO@connect?$AA@ 100014a4     wininet_common:iwinsock.obj
 0001:000004ac       ??_C@_0M@ODDJDCDK@closesocket?$AA@ 100014ac     wininet_common:iwinsock.obj
 0001:000004b8       ??_C@_04NPNJNMMP@bind?$AA@ 100014b8     wininet_common:iwinsock.obj
 0001:000004c0       ??_C@_06MPKMECK@accept?$AA@ 100014c0     wininet_common:iwinsock.obj
 0001:000004e8       ??_C@_08HAEGGJGF@loopback?$AA@ 100014e8     wininet_common:iwinsock.obj
 0001:000004f4       ??_C@_09IPAEKDAI@localhost?$AA@ 100014f4     wininet_common:iwinsock.obj
 0001:00000500       ??_C@_07OKEKDDNB@ws2?4dll?$AA@ 10001500     wininet_common:iwinsock.obj
 0001:00000528       ??_C@_0BA@NKNJIELL@DnsCacheEnabled?$AA@ 10001528     wininet_common:rescache.obj
 0001:00000538       ??_C@_0BA@NLHPPELF@DnsCacheEntries?$AA@ 10001538     wininet_common:rescache.obj
 0001:00000548       ??_C@_0BA@CONMIJCE@DnsCacheTimeout?$AA@ 10001548     wininet_common:rescache.obj
 0001:00000578       ??_7CFsm@@6B@              10001578     wininet_common:fsm.obj
 0001:000005bc       ??_7CFsm_FtpFindFirstFile@@6B@ 100015bc     wininet_ftp:ftpapia.obj
 0001:000005c0       ??_7CFsm_FtpDeleteFile@@6B@ 100015c0     wininet_ftp:ftpapia.obj
 0001:000005c4       ??_7CFsm_FtpRenameFile@@6B@ 100015c4     wininet_ftp:ftpapia.obj
 0001:000005c8       ??_7CFsm_FtpCommand@@6B@   100015c8     wininet_ftp:ftpapia.obj
 0001:000005cc       ??_7CFsm_FtpOpenFile@@6B@  100015cc     wininet_ftp:ftpapia.obj
 0001:000005d0       ??_7CFsm_FtpCreateDirectory@@6B@ 100015d0     wininet_ftp:ftpapia.obj
 0001:000005d4       ??_7CFsm_FtpRemoveDirectory@@6B@ 100015d4     wininet_ftp:ftpapia.obj
 0001:000005d8       ??_7CFsm_FtpSetCurrentDirectory@@6B@ 100015d8     wininet_ftp:ftpapia.obj
 0001:000005dc       ??_7CFsm_FtpGetCurrentDirectory@@6B@ 100015dc     wininet_ftp:ftpapia.obj
 0001:000005e0       ??_C@_03KDICCKGJ@htm?$AA@  100015e0     wininet_ftp:ftpapia.obj
 0001:00000604       ??_7CFsm_FtpGetFile@@6B@   10001604     wininet_ftp:ftpapiw.obj
 0001:00000608       ??_7CFsm_FtpPutFile@@6B@   10001608     wininet_ftp:ftpapiw.obj
 0001:0000062c       ??_C@_0M@BEPHJBJB@cannot?5find?$AA@ 1000162c     wininet_ftp:ftpapir.obj
 0001:00000638       ??_C@_09GNNAFPDF@not?5found?$AA@ 10001638     wininet_ftp:ftpapir.obj
 0001:00000644       ??_C@_07OIFDNFMM@LIST?5?$CFs?$AA@ 10001644     wininet_ftp:ftpapir.obj
 0001:0000064c       ??_C@_04PCOPKCKE@LIST?$AA@ 1000164c     wininet_ftp:ftpapir.obj
 0001:00000654       ??_C@_07FDBGKKHB@DELE?5?$CFs?$AA@ 10001654     wininet_ftp:ftpapir.obj
 0001:0000065c       ??_C@_07EOPAFOHA@RNTO?5?$CFs?$AA@ 1000165c     wininet_ftp:ftpapir.obj
 0001:00000664       ??_C@_07JIJOKOND@RNFR?5?$CFs?$AA@ 10001664     wininet_ftp:ftpapir.obj
 0001:0000066c       ??_C@_07LAJFDMAF@STOR?5?$CFs?$AA@ 1000166c     wininet_ftp:ftpapir.obj
 0001:00000674       ??_C@_07NEIHFJLJ@RETR?5?$CFs?$AA@ 10001674     wininet_ftp:ftpapir.obj
 0001:0000067c       ??_C@_06BFAFDBBO@MKD?5?$CFs?$AA@ 1000167c     wininet_ftp:ftpapir.obj
 0001:00000684       ??_C@_06FCMKDOCE@RMD?5?$CFs?$AA@ 10001684     wininet_ftp:ftpapir.obj
 0001:0000068c       ??_C@_06DBCOIIKD@CWD?5?$CFs?$AA@ 1000168c     wininet_ftp:ftpapir.obj
 0001:00000694       ??_C@_04JBGJDMCA@257?5?$AA@ 10001694     wininet_ftp:ftpapir.obj
 0001:0000069c       ??_C@_03OIFAJNHF@PWD?$AA@  1000169c     wininet_ftp:ftpapir.obj
 0001:000006a0       ??_C@_04GBOBDPBG@QUIT?$AA@ 100016a0     wininet_ftp:ftpapir.obj
 0001:000006a8       ??_C@_09BMFBKPHA@anonymous?$AA@ 100016a8     wininet_ftp:ftpapir.obj
 0001:000006b4       ??_C@_07ECIIGDNP@PASS?5?$CFs?$AA@ 100016b4     wininet_ftp:ftpapir.obj
 0001:000006bc       ??_C@_07BCMGCIGK@USER?5?$CFs?$AA@ 100016bc     wininet_ftp:ftpapir.obj
 0001:00000704       ??_C@_0CF@IFCHOFKA@janfebmaraprmayjunjulaugsepoctno@ 10001704     wininet_ftp:dirlist.obj
 0001:0000072c       ??_C@_05FIBHJBBH@?$DMDIR?$DO?$AA@ 1000172c     wininet_ftp:dirlist.obj
 0001:00000734       ??_C@_04BBDFLMDN@?5?9?$DO?5?$AA@ 10001734     wininet_ftp:dirlist.obj
 0001:0000073c       ??_C@_03DNALGGBA@DIR?$AA@  1000173c     wininet_ftp:dirlist.obj
 0001:00000740       ??_C@_05KBOMEDGA@total?$AA@ 10001740     wininet_ftp:dirlist.obj
 0001:00000768       ??_C@_0L@IKJJEIOE@?$PP?t?$PP?rABOR?$AN?6?$AA@ 10001768     wininet_ftp:protocol.obj
 0001:00000774       ??_C@_02PCIJFNDE@?$AN?6?$AA@ 10001774     wininet_ftp:protocol.obj
 0001:00000778       ??_C@_07EBPEELNJ@?5bytes?$CJ?$AA@ 10001778     wininet_ftp:protocol.obj
 0001:00000780       ??_C@_04NDIGFAHF@150?5?$AA@ 10001780     wininet_ftp:protocol.obj
 0001:00000788       ??_C@_04BJACADKL@213?5?$AA@ 10001788     wininet_ftp:protocol.obj
 0001:00000790       ??_C@_07DHEHBJLB@SIZE?5?$CFs?$AA@ 10001790     wininet_ftp:protocol.obj
 0001:00000798       ??_C@_04DEPMIFPM@RETR?$AA@ 10001798     wininet_ftp:protocol.obj
 0001:000007a0       ??_C@_04HOCEDKE@228?5?$AA@ 100017a0     wininet_ftp:protocol.obj
 0001:000007a8       ??_C@_04GCACJJD@229?5?$AA@ 100017a8     wininet_ftp:protocol.obj
 0001:000007b0       ??_C@_04MLOAEJJ@227?5?$AA@ 100017b0     wininet_ftp:protocol.obj
 0001:000007b8       ??_C@_04ONMINIDD@LPSV?$AA@ 100017b8     wininet_ftp:protocol.obj
 0001:000007c0       ??_C@_04OANILKEC@EPSV?$AA@ 100017c0     wininet_ftp:protocol.obj
 0001:000007c8       ??_C@_04KAHNJCEK@PASV?$AA@ 100017c8     wininet_ftp:protocol.obj
 0001:000007d0       ??_C@_0EC@EPGGHOOG@LPRT?56?016?0?$CFu?0?$CFu?0?$CFu?0?$CFu?0?$CFu?0?$CFu?0?$CFu?0?$CF@ 100017d0     wininet_ftp:protocol.obj
 0001:00000814       ??_C@_0P@FLGMDAKH@EPRT?5?$HM2?$HM?$CFs?$HM?$CFu?$HM?$AA@ 10001814     wininet_ftp:protocol.obj
 0001:00000824       ??_C@_0BH@DIBKCLLL@PORT?5?$CFd?0?$CFd?0?$CFd?0?$CFd?0?$CFd?0?$CFd?$AA@ 10001824     wininet_ftp:protocol.obj
 0001:0000083c       ??_C@_07PLMHKPAA@TYPE?5?$CFs?$AA@ 1000183c     wininet_ftp:protocol.obj
 0001:00000844       ??_C@_01JPJNBJEM@I?$AA@    10001844     wininet_ftp:protocol.obj
 0001:00000848       ??_C@_01FHEEJDEE@A?$AA@    10001848     wininet_ftp:protocol.obj
 0001:0000086c       ??_C@_09KLKMKELF@ftp?3?1?1?$CFs?1?$AA@ 1000186c     wininet_ftp:tcputil.obj
 0001:00000898       ??_C@_02DOGDOMPH@?$CK?4?$AA@ 10001898     wininet_ftp:name.obj
 0001:0000089c       ??_C@_03EMIMMIHL@?$CK?4?$CK?$AA@ 1000189c     wininet_ftp:name.obj
 0001:000008e8       ??_C@_03GACAABJG@?3?1?1?$AA@ 100018e8     wininet_hndlobj:proxysup.obj
 0001:000008ec       ??_C@_07KAALEJHI@?$DMlocal?$DO?$AA@ 100018ec     wininet_hndlobj:proxysup.obj
 0001:000008f4       ??_C@_05HKHMHAPI@SOCKS?$AA@ 100018f4     wininet_hndlobj:proxysup.obj
 0001:000008fc       ??_C@_05MKMBBLHO@PROXY?$AA@ 100018fc     wininet_hndlobj:proxysup.obj
 0001:00000904       ??_C@_06LIJCLFCC@DIRECT?$AA@ 10001904     wininet_hndlobj:proxysup.obj
 0001:0000090c       ??_C@_01NBENCBCI@?$CK?$AA@ 1000190c     wininet_hndlobj:proxysup.obj
 0001:00000950       ??_7HANDLE_OBJECT@@6B@     10001950     wininet_hndlobj:hinet.obj
 0001:00000980       ??_7INTERNET_HANDLE_OBJECT@@6B@ 10001980     wininet_hndlobj:hinet.obj
 0001:000009b0       ??_7PROXY_INFO@@6B@        100019b0     wininet_hndlobj:hinet.obj
 0001:000009d4       ??_7PROXY_INFO_GLOBAL_WRAPPER@@6B@ 100019d4     wininet_hndlobj:hinet.obj
 0001:00000a18       ??_C@_01OHGJGJJP@?$FL?$AA@ 10001a18     wininet_hndlobj:connect.obj
 0001:00000a1c       ??_C@_01LBDDMOBJ@?$FN?$AA@ 10001a1c     wininet_hndlobj:connect.obj
 0001:00000a20       ??_C@_02DJGKEECL@?4?4?$AA@ 10001a20     wininet_hndlobj:connect.obj
 0001:00000a24       ??_C@_03LOJJKLGJ@?4?4?1?$AA@ 10001a24     wininet_hndlobj:connect.obj
 0001:00000a28       ??_7INTERNET_CONNECT_HANDLE_OBJECT@@6B@ 10001a28     wininet_hndlobj:connect.obj
 0001:00000a78       ??_7FTP_FIND_HANDLE_OBJECT@@6B@ 10001a78     wininet_hndlobj:ftp.obj
 0001:00000aa8       ??_7FTP_FILE_HANDLE_OBJECT@@6B@ 10001aa8     wininet_hndlobj:ftp.obj
 0001:00000b38       ??_7CFsmWithProxy@@6B@     10001b38     wininet_http:sendapi.obj
 0001:00000b3c       ??_7CFsm_HttpSendRequest@@6B@ 10001b3c     wininet_http:sendapi.obj
 0001:00000b60       ??_C@_01ICJEACDI@?$DL?$AA@ 10001b60     wininet_http:open.obj
 0001:00000b64       ??_C@_08IJEMDJGI@HTTP?11?41?$AA@ 10001b64     wininet_http:open.obj
 0001:00000b70       ??_C@_0L@EPEIINOP@HTTP?1?$CFd?4?$CFd?$AA@ 10001b70     wininet_http:open.obj
 0001:00000b7c       ??_C@_05FKGKDBHO@HTTP?1?$AA@ 10001b7c     wininet_http:open.obj
 0001:00000b84       ??_C@_03HAPOJHBM@GET?$AA@  10001b84     wininet_http:open.obj
 0001:00000b88       ??_C@_05NJAIBCBJ@TRACK?$AA@ 10001b88     wininet_http:open.obj
 0001:00000b90       ??_C@_05EHILDPJH@TRACE?$AA@ 10001b90     wininet_http:open.obj
 0001:00000b98       ??_7CFsm_ParseHttpUrl@@6B@ 10001b98     wininet_http:open.obj
 0001:00000bdc       ??_C@_07IDJMCPCK@cookie?3?$AA@ 10001bdc     wininet_http:cookieprompt.obj
 0001:00000be4       ??_C@_03MBGLOMJA@TNI?$AA@  10001be4     wininet_http:cookie.obj
 0001:00000be8       ??_C@_03DFOFEAGB@LIM?$AA@  10001be8     wininet_http:cookie.obj
 0001:00000bec       ??_C@_03PECDGDKC@VOG?$AA@  10001bec     wininet_http:cookie.obj
 0001:00000bf0       ??_C@_03MAKBOJHD@GRO?$AA@  10001bf0     wininet_http:cookie.obj
 0001:00000bf4       ??_C@_03ICHPJFLG@TEN?$AA@  10001bf4     wininet_http:cookie.obj
 0001:00000bf8       ??_C@_03NIPFEBCP@UDE?$AA@  10001bf8     wininet_http:cookie.obj
 0001:00000bfc       ??_C@_03BHFHHGDI@MOC?$AA@  10001bfc     wininet_http:cookie.obj
 0001:00000c80       ??_C@_0P@HODIGFBE@SpecialDomains?$AA@ 10001c80     wininet_http:cookie.obj
 0001:00000c90       ??_C@_0EA@PIPMJBOH@Software?2Microsoft?2Windows?2Curre@ 10001c90     wininet_http:cookie.obj
 0001:00000cd0       ??_C@_09ICDPMJIN@?$HO?$HOlocal?$HO?$HO?$AA@ 10001cd0     wininet_http:cookie.obj
 0001:00000ce0       ??_C@_0FA@JGBMDHKH@Software?2Microsoft?2Windows?2Curre@ 10001ce0     wininet_http:cookie.obj
 0001:00000d30       ??_C@_04JBOKBMHA@HCP?3?$AA@ 10001d30     wininet_http:cookie.obj
 0001:00000d38       ??_C@_04MIFENKKK@hcp?3?$AA@ 10001d38     wininet_http:cookie.obj
 0001:00000d40       ??_C@_0BN@EMBHEKLD@?$CFs?6?$CFs?6?$CFs?$CFs?6?$CFu?6?$CFu?6?$CFu?6?$CFu?6?$CFu?6?$CK?6?$AA@ 10001d40     wininet_http:cookie.obj
 0001:00000d60       ??_C@_03CLFHJCDC@txt?$AA@  10001d60     wininet_http:cookie.obj
 0001:00000d64       ??_C@_07PEFKGEJF@max?9age?$AA@ 10001d64     wininet_http:cookie.obj
 0001:00000d6c       ??_C@_06CKKGAKDB@secure?$AA@ 10001d6c     wininet_http:cookie.obj
 0001:00000d74       ??_C@_06LKIIGAOE@domain?$AA@ 10001d74     wininet_http:cookie.obj
 0001:00000d7c       ??_C@_04LNEJFJGI@path?$AA@ 10001d7c     wininet_http:cookie.obj
 0001:00000d84       ??_C@_07MJGJEDBB@expires?$AA@ 10001d84     wininet_http:cookie.obj
 0001:00000d8c       ??_C@_02OLOABKKD@ID?$AA@   10001d8c     wininet_http:cookie.obj
 0001:00000d90       ??_C@_05NGJKLPCM@AA002?$AA@ 10001d90     wininet_http:cookie.obj
 0001:00000d98       ??_C@_02EGCJHIOB@id?$AA@   10001d98     wininet_http:cookie.obj
 0001:00000d9c       ??_C@_0BF@GMBBIBJH@CyberGlobalAnonymous?$AA@ 10001d9c     wininet_http:cookie.obj
 0001:00000db4       ??_C@_07BDDODHPL@OPT_OUT?$AA@ 10001db4     wininet_http:cookie.obj
 0001:00000dbc       ??_C@_06GCDBKGFP@optout?$AA@ 10001dbc     wininet_http:cookie.obj
 0001:00000dd0       ??_C@_03OPJJOGOD@?$CFs?$EA?$AA@ 10001dd0     wininet_http:cookie.obj
 0001:00000e64       ??_C@_03CKPJLAKP@TST?$AA@  10001e64     wininet_http:cookiepolicy.obj
 0001:00000e68       ??_C@_03ILNLOLAC@LAW?$AA@  10001e68     wininet_http:cookiepolicy.obj
 0001:00000e6c       ??_C@_03KCPJAIHF@MON?$AA@  10001e6c     wininet_http:cookiepolicy.obj
 0001:00000e70       ??_C@_03KEFBCCBL@COR?$AA@  10001e70     wininet_http:cookiepolicy.obj
 0001:00000e74       ??_C@_03LAEMKHJL@NON?$AA@  10001e74     wininet_http:cookiepolicy.obj
 0001:00000e78       ??_C@_03FHMCBKKI@OTI?$AA@  10001e78     wininet_http:cookiepolicy.obj
 0001:00000e7c       ??_C@_03JEGAAOIO@IDC?$AA@  10001e7c     wininet_http:cookiepolicy.obj
 0001:00000e80       ??_C@_03FBKDGDAN@CAO?$AA@  10001e80     wininet_http:cookiepolicy.obj
 0001:00000e84       ??_C@_03NIFPGLBG@ALL?$AA@  10001e84     wininet_http:cookiepolicy.obj
 0001:00000e88       ??_C@_03PPANDBFM@NOI?$AA@  10001e88     wininet_http:cookiepolicy.obj
 0001:00000e8c       ??_C@_03BOIMCCDE@DSP?$AA@  10001e8c     wininet_http:cookiepolicy.obj
 0001:00000e90       ??_C@_03EOCODDKD@NID?$AA@  10001e90     wininet_http:cookiepolicy.obj
 0001:00000e94       ??_C@_03KNCNPCCC@OTC?$AA@  10001e94     wininet_http:cookiepolicy.obj
 0001:00000e98       ??_C@_03EPFPHAEI@GOV?$AA@  10001e98     wininet_http:cookiepolicy.obj
 0001:00000e9c       ??_C@_03PHIAGONP@PRE?$AA@  10001e9c     wininet_http:cookiepolicy.obj
 0001:00000ea0       ??_C@_03BPCIGBFO@HEA?$AA@  10001ea0     wininet_http:cookiepolicy.obj
 0001:00000ea4       ??_C@_03DCLMOFLF@POL?$AA@  10001ea4     wininet_http:cookiepolicy.obj
 0001:00000ea8       ??_C@_03IFNEHIIH@STA?$AA@  10001ea8     wininet_http:cookiepolicy.obj
 0001:00000eac       ??_C@_03PDMJOPKK@CNT?$AA@  10001eac     wininet_http:cookiepolicy.obj
 0001:00000eb0       ??_C@_03PJELJBOK@DEM?$AA@  10001eb0     wininet_http:cookiepolicy.obj
 0001:00000eb4       ??_C@_03JMHEAPMO@INT?$AA@  10001eb4     wininet_http:cookiepolicy.obj
 0001:00000eb8       ??_C@_03DIMJBCMI@NAV?$AA@  10001eb8     wininet_http:cookiepolicy.obj
 0001:00000ebc       ??_C@_03GJALCMIF@COM?$AA@  10001ebc     wininet_http:cookiepolicy.obj
 0001:00000ec0       ??_C@_03HBHFPDMG@FIN?$AA@  10001ec0     wininet_http:cookiepolicy.obj
 0001:00000ec4       ??_C@_03PHEMPMMM@PUR?$AA@  10001ec4     wininet_http:cookiepolicy.obj
 0001:00000ec8       ??_C@_03HJNHILPF@UNI?$AA@  10001ec8     wininet_http:cookiepolicy.obj
 0001:00000ecc       ??_C@_03DLAEMIEL@ONL?$AA@  10001ecc     wininet_http:cookiepolicy.obj
 0001:00000ed0       ??_C@_03EGBFCE@PHY?$AA@    10001ed0     wininet_http:cookiepolicy.obj
 0001:00000ed4       ??_C@_03NGLGBNJP@IND?$AA@  10001ed4     wininet_http:cookiepolicy.obj
 0001:00000ed8       ??_C@_03BEEHFCJJ@BUS?$AA@  10001ed8     wininet_http:cookiepolicy.obj
 0001:00000edc       ??_C@_03MGBAFBIP@LEG?$AA@  10001edc     wininet_http:cookiepolicy.obj
 0001:00000ee0       ??_C@_03NGANFLJH@STP?$AA@  10001ee0     wininet_http:cookiepolicy.obj
 0001:00000ee4       ??_C@_03FGDLPKMG@NOR?$AA@  10001ee4     wininet_http:cookiepolicy.obj
 0001:00000ee8       ??_C@_04GMGGBGHP@PUBo?$AA@ 10001ee8     wininet_http:cookiepolicy.obj
 0001:00000ef0       ??_C@_04DKDMLBPJ@PUBi?$AA@ 10001ef0     wininet_http:cookiepolicy.obj
 0001:00000ef8       ??_C@_04PCOFDLPB@PUBa?$AA@ 10001ef8     wininet_http:cookiepolicy.obj
 0001:00000f00       ??_C@_04DPLIOKOB@UNRo?$AA@ 10001f00     wininet_http:cookiepolicy.obj
 0001:00000f08       ??_C@_04GJOCENGH@UNRi?$AA@ 10001f08     wininet_http:cookiepolicy.obj
 0001:00000f10       ??_C@_04KBDLMHGP@UNRa?$AA@ 10001f10     wininet_http:cookiepolicy.obj
 0001:00000f18       ??_C@_04CKEMNCDJ@OTRo?$AA@ 10001f18     wininet_http:cookiepolicy.obj
 0001:00000f20       ??_C@_04HMBGHFLP@OTRi?$AA@ 10001f20     wininet_http:cookiepolicy.obj
 0001:00000f28       ??_C@_04LEMPPPLH@OTRa?$AA@ 10001f28     wininet_http:cookiepolicy.obj
 0001:00000f30       ??_C@_04PPOBOLFK@SAMo?$AA@ 10001f30     wininet_http:cookiepolicy.obj
 0001:00000f38       ??_C@_04KJLLEMNM@SAMi?$AA@ 10001f38     wininet_http:cookiepolicy.obj
 0001:00000f40       ??_C@_04GBGCMGNE@SAMa?$AA@ 10001f40     wininet_http:cookiepolicy.obj
 0001:00000f48       ??_C@_04KDIBFNKI@DELo?$AA@ 10001f48     wininet_http:cookiepolicy.obj
 0001:00000f50       ??_C@_04PFNLPKCO@DELi?$AA@ 10001f50     wininet_http:cookiepolicy.obj
 0001:00000f58       ??_C@_04DNACHACG@DELa?$AA@ 10001f58     wininet_http:cookiepolicy.obj
 0001:00000f60       ??_C@_04JCPALFFM@OURo?$AA@ 10001f60     wininet_http:cookiepolicy.obj
 0001:00000f68       ??_C@_04MEKKBCNK@OURi?$AA@ 10001f68     wininet_http:cookiepolicy.obj
 0001:00000f70       ??_C@_04MHDJINC@OURa?$AA@  10001f70     wininet_http:cookiepolicy.obj
 0001:00000f78       ??_C@_04CJMIAGFH@OTPo?$AA@ 10001f78     wininet_http:cookiepolicy.obj
 0001:00000f80       ??_C@_04HPJCKBNB@OTPi?$AA@ 10001f80     wininet_http:cookiepolicy.obj
 0001:00000f88       ??_C@_04LHELCLNJ@OTPa?$AA@ 10001f88     wininet_http:cookiepolicy.obj
 0001:00000f90       ??_C@_04MDGBMKCK@TELo?$AA@ 10001f90     wininet_http:cookiepolicy.obj
 0001:00000f98       ??_C@_04JFDLGNKM@TELi?$AA@ 10001f98     wininet_http:cookiepolicy.obj
 0001:00000fa0       ??_C@_04FNOCOHKE@TELa?$AA@ 10001fa0     wininet_http:cookiepolicy.obj
 0001:00000fa8       ??_C@_04DLNNOLFM@HISo?$AA@ 10001fa8     wininet_http:cookiepolicy.obj
 0001:00000fb0       ??_C@_04GNIHEMNK@HISi?$AA@ 10001fb0     wininet_http:cookiepolicy.obj
 0001:00000fb8       ??_C@_04KFFOMGNC@HISa?$AA@ 10001fb8     wininet_http:cookiepolicy.obj
 0001:00000fc0       ??_C@_04HNJILFLC@CONo?$AA@ 10001fc0     wininet_http:cookiepolicy.obj
 0001:00000fc8       ??_C@_04CLMCBCDE@CONi?$AA@ 10001fc8     wininet_http:cookiepolicy.obj
 0001:00000fd0       ??_C@_04ODBLJIDM@CONa?$AA@ 10001fd0     wininet_http:cookiepolicy.obj
 0001:00000fd8       ??_C@_04BHKODANA@IVDo?$AA@ 10001fd8     wininet_http:cookiepolicy.obj
 0001:00000fe0       ??_C@_04EBPEJHFG@IVDi?$AA@ 10001fe0     wininet_http:cookiepolicy.obj
 0001:00000fe8       ??_C@_04IJCNBNFO@IVDa?$AA@ 10001fe8     wininet_http:cookiepolicy.obj
 0001:00000ff0       ??_C@_04BBGFPCDL@IVAo?$AA@ 10001ff0     wininet_http:cookiepolicy.obj
 0001:00000ff8       ??_C@_04EHDPFFLN@IVAi?$AA@ 10001ff8     wininet_http:cookiepolicy.obj
 0001:00001000       ??_C@_04IPOGNPLF@IVAa?$AA@ 10002000     wininet_http:cookiepolicy.obj
 0001:00001008       ??_C@_04ENIADFBB@PSDo?$AA@ 10002008     wininet_http:cookiepolicy.obj
 0001:00001010       ??_C@_04BLNKJCJH@PSDi?$AA@ 10002010     wininet_http:cookiepolicy.obj
 0001:00001018       ??_C@_04NDADBIJP@PSDa?$AA@ 10002018     wininet_http:cookiepolicy.obj
 0001:00001020       ??_C@_04ELELPHPK@PSAo?$AA@ 10002020     wininet_http:cookiepolicy.obj
 0001:00001028       ??_C@_04BNBBFAHM@PSAi?$AA@ 10002028     wininet_http:cookiepolicy.obj
 0001:00001030       ??_C@_04NFMINKHE@PSAa?$AA@ 10002030     wininet_http:cookiepolicy.obj
 0001:00001038       ??_C@_04EKMIJPJG@TAIo?$AA@ 10002038     wininet_http:cookiepolicy.obj
 0001:00001040       ??_C@_04BMJCDIBA@TAIi?$AA@ 10002040     wininet_http:cookiepolicy.obj
 0001:00001048       ??_C@_04NEELLCBI@TAIa?$AA@ 10002048     wininet_http:cookiepolicy.obj
 0001:00001050       ??_C@_04FGMCDCGK@CUSo?$AA@ 10002050     wininet_http:cookiepolicy.obj
 0001:00001058       ??_C@_04JIJFOM@CUSi?$AA@   10002058     wininet_http:cookiepolicy.obj
 0001:00001060       ??_C@_04MIEBBPOE@CUSa?$AA@ 10002060     wininet_http:cookiepolicy.obj
 0001:00001068       ??_C@_04LCDAHLAO@DEVo?$AA@ 10002068     wininet_http:cookiepolicy.obj
 0001:00001070       ??_C@_04OEGKNMII@DEVi?$AA@ 10002070     wininet_http:cookiepolicy.obj
 0001:00001078       ??_C@_04CMLDFGIA@DEVa?$AA@ 10002078     wininet_http:cookiepolicy.obj
 0001:00001080       ??_C@_04NCBPNPIK@ADMo?$AA@ 10002080     wininet_http:cookiepolicy.obj
 0001:00001088       ??_C@_04IEEFHIAM@ADMi?$AA@ 10002088     wininet_http:cookiepolicy.obj
 0001:00001090       ??_C@_04EMJMPCAE@ADMa?$AA@ 10002090     wininet_http:cookiepolicy.obj
 0001:00001098       ??_C@_04FHAAFIFN@CURo?$AA@ 10002098     wininet_http:cookiepolicy.obj
 0001:000010a0       ??_C@_04BFKPPNL@CURi?$AA@  100020a0     wininet_http:cookiepolicy.obj
 0001:000010a8       ??_C@_04MJIDHFND@CURa?$AA@ 100020a8     wininet_http:cookiepolicy.obj
 0001:00008330       ??_C@_1EO@GBCEDEPC@?$AA?$HL?$AAA?$AAE?$AAB?$AAA?$AA2?$AA1?$AAF?$AAA?$AA?9?$AA7?$AA8?$AA2?$AAA?$AA?9?$AA4?$AAA?$AA9?$AA0?$AA?9?$AA9?$AA7?$AA8?$AAD?$AA?9?$AAB?$AA7?$AA2?$AA1?$AA6?$AA4?$AAC@ 10009330     wininet_http:cookiepolicy.obj
 0001:00008380       ??_C@_1EO@BDBHFKK@?$AA?$HL?$AAA?$AA8?$AAA?$AA8?$AA8?$AAC?$AA4?$AA9?$AA?9?$AA5?$AAE?$AAB?$AA2?$AA?9?$AA4?$AA9?$AA9?$AA0?$AA?9?$AAA?$AA1?$AAA?$AA2?$AA?9?$AA0?$AA8?$AA7?$AA6?$AA0?$AA2?$AA2@ 10009380     wininet_http:cookiepolicy.obj
 0001:000083d0       ??_C@_1IE@EIOJFGGN@?$AAS?$AAo?$AAf?$AAt?$AAw?$AAa?$AAr?$AAe?$AA?2?$AAM?$AAi?$AAc?$AAr?$AAo?$AAs?$AAo?$AAf?$AAt?$AA?2?$AAW?$AAi?$AAn?$AAd?$AAo?$AAw?$AAs?$AA?2?$AAC?$AAu?$AAr?$AAr?$AAe@ 100093d0     wininet_http:cookiepolicy.obj
 0001:00008454       ??_C@_0BA@KMIEAMIN@PrivacyAdvanced?$AA@ 10009454     wininet_http:cookiepolicy.obj
 0001:00008464       ??_C@_1O@MLIDNEDF@?$AA?$CF?$AAw?$AAs?$AA?2?$AA?$CF?$AAd?$AA?$AA@ 10009464     wininet_http:cookiepolicy.obj
 0001:00008474       ??_C@_07KDKMIPIP@OPTIONS?$AA@ 10009474     wininet_http:headers.obj
 0001:0000847c       ??_C@_06LHDEKNMJ@M?9POST?$AA@ 1000947c     wininet_http:headers.obj
 0001:00008484       ??_C@_03EAHPLIF@PIN?$AA@   10009484     wininet_http:headers.obj
 0001:00008488       ??_C@_06GBNAAIDA@SEARCH?$AA@ 10009488     wininet_http:headers.obj
 0001:00008490       ??_C@_06DLHNAFG@INVOKE?$AA@ 10009490     wininet_http:headers.obj
 0001:00008498       ??_C@_08MDJKHKOP@CHECKOUT?$AA@ 10009498     wininet_http:headers.obj
 0001:000084a4       ??_C@_07FHEJGMDI@CHECKIN?$AA@ 100094a4     wininet_http:headers.obj
 0001:000084ac       ??_C@_04OHPFPLOP@POLL?$AA@ 100094ac     wininet_http:headers.obj
 0001:000084b4       ??_C@_06LMEIPPMP@NOTIFY?$AA@ 100094b4     wininet_http:headers.obj
 0001:000084bc       ??_C@_0M@GELMDIJN@UNSUBSCRIBE?$AA@ 100094bc     wininet_http:headers.obj
 0001:000084c8       ??_C@_09NMAFIJHB@SUBSCRIBE?$AA@ 100094c8     wininet_http:headers.obj
 0001:000084d4       ??_C@_07MJMGAPNI@BDELETE?$AA@ 100094d4     wininet_http:headers.obj
 0001:000084dc       ??_C@_0L@ELIKCPBM@BPROPPATCH?$AA@ 100094dc     wininet_http:headers.obj
 0001:000084e8       ??_C@_09ICBIGICL@BPROPFIND?$AA@ 100094e8     wininet_http:headers.obj
 0001:000084f4       ??_C@_05NHEMFHGE@BCOPY?$AA@ 100094f4     wininet_http:headers.obj
 0001:000084fc       ??_C@_05IKIGMIOK@BMOVE?$AA@ 100094fc     wininet_http:headers.obj
 0001:00008504       ??_C@_06DELKBJHG@UNLINK?$AA@ 10009504     wininet_http:headers.obj
 0001:0000850c       ??_C@_04CLELJMBJ@LINK?$AA@ 1000950c     wininet_http:headers.obj
 0001:00008514       ??_C@_06FKDAMKFP@DELETE?$AA@ 10009514     wininet_http:headers.obj
 0001:0000851c       ??_C@_07FNNMGOPK@CONNECT?$AA@ 1000951c     wininet_http:headers.obj
 0001:00008524       ??_C@_05HMHDBDJB@MKCOL?$AA@ 10009524     wininet_http:headers.obj
 0001:0000852c       ??_C@_04LPPGDFDD@MOVE?$AA@ 1000952c     wininet_http:headers.obj
 0001:00008534       ??_C@_04OCDMKKLN@COPY?$AA@ 10009534     wininet_http:headers.obj
 0001:0000853c       ??_C@_06BJAJNFPJ@UNLOCK?$AA@ 1000953c     wininet_http:headers.obj
 0001:00008544       ??_C@_04GPIFAJG@LOCK?$AA@  10009544     wininet_http:headers.obj
 0001:0000854c       ??_C@_09ENKDFGKI@PROPPATCH?$AA@ 1000954c     wininet_http:headers.obj
 0001:00008558       ??_C@_08BNNEMDGO@PROPFIND?$AA@ 10009558     wininet_http:headers.obj
 0001:00008564       ??_C@_03KBBGFLEK@PUT?$AA@  10009564     wininet_http:headers.obj
 0001:00008568       ??_C@_04HCJEIHPL@POST?$AA@ 10009568     wininet_http:headers.obj
 0001:00008570       ??_C@_04BINJNOJD@HEAD?$AA@ 10009570     wininet_http:headers.obj
 0001:00008578       ??_C@_0BE@KLEOFMOI@application?1x?9spoon?$AA@ 10009578     wininet_http:headers.obj
 0001:0000858c       ??_C@_0BJ@CNIELGBF@application?1x?9compressed?$AA@ 1000958c     wininet_http:headers.obj
 0001:000085a8       ??_C@_0BH@LHJCLOGD@application?1x?9compress?$AA@ 100095a8     wininet_http:headers.obj
 0001:000085c0       ??_C@_0BN@FEIOCMMH@application?1x?9zip?9compressed?$AA@ 100095c0     wininet_http:headers.obj
 0001:000085e0       ??_C@_0BD@GGBFOHK@application?1x?9gzip?$AA@ 100095e0     wininet_http:headers.obj
 0001:000085f4       ??_C@_0BA@LMDOGBAF@application?1zip?$AA@ 100095f4     wininet_http:headers.obj
 0001:00008604       ??_C@_0P@BADMENIP@x?9world?1x?9vrml?$AA@ 10009604     wininet_http:headers.obj
 0001:00008614       ??_C@_0BC@HMAHGLAD@application?1x?9tar?$AA@ 10009614     wininet_http:headers.obj
 0001:000087bc       ??_C@_06KICEPCA@Host?3?5?$AA@ 100097bc     wininet_http:headers.obj
 0001:000087c4       ??_C@_02GMHACPFF@?$CFu?$AA@ 100097c4     wininet_http:headers.obj
 0001:000087c8       ??_C@_0N@IKMILEBF@no?9transform?$AA@ 100097c8     wininet_http:headers.obj
 0001:000087d8       ??_C@_07FNHFFEJG@deflate?$AA@ 100097d8     wininet_http:headers.obj
 0001:000087e0       ??_C@_04HOHEGKBO@gzip?$AA@ 100097e0     wininet_http:headers.obj
 0001:000087e8       ??_C@_09BCBMLHGN@Referer?3?5?$AA@ 100097e8     wininet_http:headers.obj
 0001:000087f4       ??_C@_02LMMGGCAJ@?3?5?$AA@ 100097f4     wininet_http:headers.obj
 0001:000087f8       ??_C@_02KEGNLNML@?0?5?$AA@ 100097f8     wininet_http:headers.obj
 0001:000087fc       ??_C@_02LNAEAIDO@?$DL?5?$AA@ 100097fc     wininet_http:headers.obj
 0001:00008800       ??_C@_0BE@OLFDLLBP@Netscape?9Commerce?13?$AA@ 10009800     wininet_http:headers.obj
 0001:00008814       ??_C@_0BF@PMLACP@Netscape?9FastTrack?13?$AA@ 10009814     wininet_http:headers.obj
 0001:0000882c       ??_C@_0BG@IENFMPFM@Netscape?9Enterprise?13?$AA@ 1000982c     wininet_http:headers.obj
 0001:00008844       ??_C@_07KCKHAHHI@chunked?$AA@ 10009844     wininet_http:headers.obj
 0001:0000884c       ??_C@_05LGELBCGM@Close?$AA@ 1000984c     wininet_http:headers.obj
 0001:00008854       ??_C@_0L@NEAPGCKH@Keep?9Alive?$AA@ 10009854     wininet_http:headers.obj
 0001:00008860       ??_C@_06GLLGLBKG@?$DMHEAD?$DO?$AA@ 10009860     wininet_http:headers.obj
 0001:00008868       ??_C@_06HCPDOBJE@?$DMHTML?$DO?$AA@ 10009868     wininet_http:headers.obj
 0001:00008870       ??_C@_0O@BMBOKIOE@gzip?0?5deflate?$AA@ 10009870     wininet_http:headers.obj
 0001:00008880       ??_C@_0BA@CKKNJGFG@HTTP?11?40?5200?5OK?$AA@ 10009880     wininet_http:headers.obj
 0001:00008890       ??_C@_04MEDPFIKH@HTTP?$AA@ 10009890     wininet_http:headers.obj
 0001:000088b8       ??_7CFsm_SendRequest@@6B@  100098b8     wininet_http:sendreq.obj
 0001:000088bc       ??_7CFsm_ReceiveResponse@@6B@ 100098bc     wininet_http:sendreq.obj
 0001:000088c0       ??_C@_05HKPGCKL@?$CFs?3?$CFd?$AA@ 100098c0     wininet_http:sendreq.obj
 0001:000088c8       ??_C@_03HODKBCIO@?3?$CFd?$AA@ 100098c8     wininet_http:sendreq.obj
 0001:000088cc       ??_C@_08HHBJCFLC@no?9cache?$AA@ 100098cc     wininet_http:sendreq.obj
 0001:000088d8       ??_C@_08JAFHAICJ@HTTP?11?40?$AA@ 100098d8     wininet_http:sendreq.obj
 0001:000088e4       ??_C@_02DPKJAMEF@?$CFd?$AA@ 100098e4     wininet_http:sendreq.obj
 0001:00008908       ??_C@_0P@BCLIPCFL@PassportConfig?$AA@ 10009908     wininet_http:hhead.obj
 0001:00008918       ??_C@_0N@MOABICBG@PassportURLs?$AA@ 10009918     wininet_http:hhead.obj
 0001:00008928       ??_C@_0BE@KPJFGFDH@Authentication?9Info?$AA@ 10009928     wininet_http:hhead.obj
 0001:0000893c       ??_C@_0O@FMEIAODN@Proxy?9Support?$AA@ 1000993c     wininet_http:hhead.obj
 0001:0000894c       ??_C@_0O@EAOJAJEB@Ms?9Echo?9Reply?$AA@ 1000994c     wininet_http:hhead.obj
 0001:0000895c       ??_C@_0BA@DBDJCCID@Ms?9Echo?9Request?$AA@ 1000995c     wininet_http:hhead.obj
 0001:0000896c       ??_C@_0BG@BFPKBLEP@Unless?9Modified?9Since?$AA@ 1000996c     wininet_http:hhead.obj
 0001:00008984       ??_C@_0BB@MLFPABGO@Proxy?9Connection?$AA@ 10009984     wininet_http:hhead.obj
 0001:00008998       ??_C@_06GHDJNLIG@Expect?$AA@ 10009998     wininet_http:hhead.obj
 0001:000089a0       ??_C@_07KGMMFLDN@Warning?$AA@ 100099a0     wininet_http:hhead.obj
 0001:000089a8       ??_C@_03LDNNKNE@Via?$AA@   100099a8     wininet_http:hhead.obj
 0001:000089ac       ??_C@_04KEJMNMGO@Vary?$AA@ 100099ac     wininet_http:hhead.obj
 0001:000089b4       ??_C@_07CJFOONCK@Upgrade?$AA@ 100099b4     wininet_http:hhead.obj
 0001:000089bc       ??_C@_0BC@ELHLFCNH@Transfer?9Encoding?$AA@ 100099bc     wininet_http:hhead.obj
 0001:000089d0       ??_C@_05CFMCGLCK@Range?$AA@ 100099d0     wininet_http:hhead.obj
 0001:000089d8       ??_C@_0BE@DCLKKIPG@Proxy?9Authorization?$AA@ 100099d8     wininet_http:hhead.obj
 0001:000089ec       ??_C@_0N@KAKEBINL@Max?9Forwards?$AA@ 100099ec     wininet_http:hhead.obj
 0001:000089fc       ??_C@_0BE@DDBHAKNF@If?9Unmodified?9Since?$AA@ 100099fc     wininet_http:hhead.obj
 0001:00008a10       ??_C@_08LINGJKBL@If?9Range?$AA@ 10009a10     wininet_http:hhead.obj
 0001:00008a1c       ??_C@_0O@PLENHEOP@If?9None?9Match?$AA@ 10009a1c     wininet_http:hhead.obj
 0001:00008a2c       ??_C@_08MHFFELDP@If?9Match?$AA@ 10009a2c     wininet_http:hhead.obj
 0001:00008a38       ??_C@_04CPPPJGME@Host?$AA@ 10009a38     wininet_http:hhead.obj
 0001:00008a40       ??_C@_04CODKLEGH@Etag?$AA@ 10009a40     wininet_http:hhead.obj
 0001:00008a48       ??_C@_0O@PLGHKCFM@Content?9Range?$AA@ 10009a48     wininet_http:hhead.obj
 0001:00008a58       ??_C@_0M@MGLIENL@Content?9Md5?$AA@ 10009a58     wininet_http:hhead.obj
 0001:00008a64       ??_C@_0BB@EPBMDIDM@Content?9Location?$AA@ 10009a64     wininet_http:hhead.obj
 0001:00008a78       ??_C@_0N@MIBOGJKL@Content?9Base?$AA@ 10009a78     wininet_http:hhead.obj
 0001:00008a88       ??_C@_0O@JOOHCFAK@Cache?9Control?$AA@ 10009a88     wininet_http:hhead.obj
 0001:00008a98       ??_C@_03KIABFNPM@Age?$AA@  10009a98     wininet_http:hhead.obj
 0001:00008a9c       ??_C@_0BE@LMOOGHBG@Content?9Disposition?$AA@ 10009a9c     wininet_http:hhead.obj
 0001:00008ab0       ??_C@_07POIENIBA@Refresh?$AA@ 10009ab0     wininet_http:hhead.obj
 0001:00008ab8       ??_C@_06EGBLANDJ@Cookie?$AA@ 10009ab8     wininet_http:hhead.obj
 0001:00008ac0       ??_C@_0L@KJFOPCOE@Set?9Cookie?$AA@ 10009ac0     wininet_http:hhead.obj
 0001:00008acc       ??_C@_0O@LLOOMDGC@Accept?9Ranges?$AA@ 10009acc     wininet_http:hhead.obj
 0001:00008adc       ??_C@_0BD@GKJFGNG@Proxy?9Authenticate?$AA@ 10009adc     wininet_http:hhead.obj
 0001:00008af0       ??_C@_0BB@KEDJJIFI@WWW?9Authenticate?$AA@ 10009af0     wininet_http:hhead.obj
 0001:00008b04       ??_C@_0L@DMPACEMJ@User?9Agent?$AA@ 10009b04     wininet_http:hhead.obj
 0001:00008b10       ??_C@_05PABKJLOM@Title?$AA@ 10009b10     wininet_http:hhead.obj
 0001:00008b18       ??_C@_06LGMEBDBC@Server?$AA@ 10009b18     wininet_http:hhead.obj
 0001:00008b20       ??_C@_0M@CMFFKFHP@Retry?9After?$AA@ 10009b20     wininet_http:hhead.obj
 0001:00008b2c       ??_C@_07EJAMNJLN@Referer?$AA@ 10009b2c     wininet_http:hhead.obj
 0001:00008b34       ??_C@_08NLLPPPEL@Orig?9Uri?$AA@ 10009b34     wininet_http:hhead.obj
 0001:00008b40       ??_C@_08KDOEBHGA@Location?$AA@ 10009b40     wininet_http:hhead.obj
 0001:00008b4c       ??_C@_0BC@GJLFBBBL@If?9Modified?9Since?$AA@ 10009b4c     wininet_http:hhead.obj
 0001:00008b60       ??_C@_04LMIAFEOL@From?$AA@ 10009b60     wininet_http:hhead.obj
 0001:00008b68       ??_C@_09HAMCHODP@Forwarded?$AA@ 10009b68     wininet_http:hhead.obj
 0001:00008b74       ??_C@_0BB@KFPPKJHF@Content?9Encoding?$AA@ 10009b74     wininet_http:hhead.obj
 0001:00008b88       ??_C@_0O@NAFGPKMI@Authorization?$AA@ 10009b88     wininet_http:hhead.obj
 0001:00008b98       ??_C@_0BA@POEGPCPD@Accept?9Language?$AA@ 10009b98     wininet_http:hhead.obj
 0001:00008ba8       ??_C@_0BA@KDJCHKHJ@Accept?9Encoding?$AA@ 10009ba8     wininet_http:hhead.obj
 0001:00008bb8       ??_C@_0P@PJFCFLIF@Accept?9Charset?$AA@ 10009bb8     wininet_http:hhead.obj
 0001:00008bc8       ??_C@_06MDEHPNLG@Accept?$AA@ 10009bc8     wininet_http:hhead.obj
 0001:00008bd0       ??_C@_0L@PJJKMLL@Connection?$AA@ 10009bd0     wininet_http:hhead.obj
 0001:00008bdc       ??_C@_06DJOGPGCO@Pragma?$AA@ 10009bdc     wininet_http:hhead.obj
 0001:00008be4       ??_C@_04CGLAFBGF@Link?$AA@ 10009be4     wininet_http:hhead.obj
 0001:00008bec       ??_C@_04FICPKHNF@Cost?$AA@ 10009bec     wininet_http:hhead.obj
 0001:00008bf4       ??_C@_0N@OMNGKLEH@Derived?9From?$AA@ 10009bf4     wininet_http:hhead.obj
 0001:00008c04       ??_C@_03MBCCLDKD@Uri?$AA@  10009c04     wininet_http:hhead.obj
 0001:00008c08       ??_C@_0L@CILGBFMN@Message?9id?$AA@ 10009c08     wininet_http:hhead.obj
 0001:00008c14       ??_C@_0O@FICEOEAF@Last?9Modified?$AA@ 10009c14     wininet_http:hhead.obj
 0001:00008c24       ??_C@_07DABPCBEH@Expires?$AA@ 10009c24     wininet_http:hhead.obj
 0001:00008c2c       ??_C@_04FMEGDJGD@Date?$AA@ 10009c2c     wininet_http:hhead.obj
 0001:00008c34       ??_C@_06IBHNPBBJ@Public?$AA@ 10009c34     wininet_http:hhead.obj
 0001:00008c3c       ??_C@_05IEPODGEO@Allow?$AA@ 10009c3c     wininet_http:hhead.obj
 0001:00008c44       ??_C@_0BB@PICLCBPP@Content?9Language?$AA@ 10009c44     wininet_http:hhead.obj
 0001:00008c58       ??_C@_0P@HOJGPHBA@Content?9Length?$AA@ 10009c58     wininet_http:hhead.obj
 0001:00008c68       ??_C@_0BE@CDHADPEM@Content?9Description?$AA@ 10009c68     wininet_http:hhead.obj
 0001:00008c7c       ??_C@_0L@IMCFIPDE@Content?9Id?$AA@ 10009c7c     wininet_http:hhead.obj
 0001:00008c88       ??_C@_0BK@MJFMDPAI@Content?9Transfer?9Encoding?$AA@ 10009c88     wininet_http:hhead.obj
 0001:00008ca4       ??_C@_0N@LAFFMKKA@Content?9Type?$AA@ 10009ca4     wininet_http:hhead.obj
 0001:00008cb4       ??_C@_0N@CMGFLCKF@Mime?9Version?$AA@ 10009cb4     wininet_http:hhead.obj
 0001:00008ce8       ?GlobalHeaderHashs@@3QBEB  10009ce8     wininet_http:hhead.obj
 0001:00008d88       ?GlobalKnownHeaders@@3QBUKnownHeaderType@@B 10009d88     wininet_http:hhead.obj
 0001:00009298       ??_7CPEvalRule@@6B@        1000a298     wininet_http:cpevalrule.obj
 0001:000092a0       ??_7IncludeExcludeRule@@6B@ 1000a2a0     wininet_http:cpevalrule.obj
 0001:000092c8       ??_7CFsm_MakeConnection@@6B@ 1000a2c8     wininet_http:send.obj
 0001:000092ec       ??_C@_0P@LNCMCFFD@Microsoft?9PWS?1?$AA@ 1000a2ec     wininet_http:response.obj
 0001:000092fc       ??_C@_0P@GABKPAAM@Microsoft?9IIS?1?$AA@ 1000a2fc     wininet_http:response.obj
 0001:0000930c       ??_C@_0P@IGKODAMO@Accept?9Ranges?3?$AA@ 1000a30c     wininet_http:cache.obj
 0001:0000931c       ??_C@_0P@MFOCNAEC@Cache?9Control?3?$AA@ 1000a31c     wininet_http:cache.obj
 0001:0000932c       ??_C@_04JBAKGBBD@Age?3?$AA@ 1000a32c     wininet_http:cache.obj
 0001:00009334       ??_C@_04KEBMPFGO@Via?3?$AA@ 1000a334     wininet_http:cache.obj
 0001:0000933c       ??_C@_0BC@IPGIMNCH@Proxy?9Connection?3?$AA@ 1000a33c     wininet_http:cache.obj
 0001:00009350       ??_C@_0M@HJBFCNNB@Connection?3?$AA@ 1000a350     wininet_http:cache.obj
 0001:0000935c       ??_C@_08MNCBBFGL@Expires?3?$AA@ 1000a35c     wininet_http:cache.obj
 0001:00009368       ??_C@_05PBEOKIKC@Date?3?$AA@ 1000a368     wininet_http:cache.obj
 0001:00009370       ??_C@_07NGKGGLCC@Server?3?$AA@ 1000a370     wininet_http:cache.obj
 0001:00009378       ??_C@_0P@FFJLAOBC@Last?9Modified?3?$AA@ 1000a378     wininet_http:cache.obj
 0001:00009388       ??_C@_0M@ICGHKGOK@Set?9Cookie?3?$AA@ 1000a388     wininet_http:cache.obj
 0001:00009394       ??_C@_0BK@DAADMLOA@multipart?1x?9mixed?9replace?$AA@ 1000a394     wininet_http:cache.obj
 0001:000093b0       ??_C@_0BA@LBPJGHIO@multipart?1mixed?$AA@ 1000a3b0     wininet_http:cache.obj
 0001:000093ec       ?vszUserNameHeader@@3QBDB  1000a3ec     wininet_http:cache.obj
 0001:000093f0       ??_C@_07NMPLPEPB@private?$AA@ 1000a3f0     wininet_http:cache.obj
 0001:000093f8       ??_C@_08IHKIKGMF@no?9store?$AA@ 1000a3f8     wininet_http:cache.obj
 0001:00009404       ??_C@_0L@LNMAKOCI@user?9agent?$AA@ 1000a404     wininet_http:cache.obj
 0001:00009410       ??_C@_01BIAFAFID@F?$AA@    1000a410     wininet_http:cache.obj
 0001:00009414       ??_C@_09KMILOHFO@Translate?$AA@ 1000a414     wininet_http:cache.obj
 0001:00009420       ??_C@_0O@NBGCAEGC@?$CFs?$DL?5length?$DN?$CFd?$AA@ 1000a420     wininet_http:cache.obj
 0001:00009448       ??_C@_06GBEGMGE@?$CFs?3?5?$CFd?$AA@ 1000a448     wininet_http:cache.obj
 0001:00009450       ??_C@_05FBJAGGIG@bytes?$AA@ 1000a450     wininet_http:cache.obj
 0001:00009464       ??_C@_0BA@LFIGBNDD@must?9revalidate?$AA@ 1000a464     wininet_http:cache.obj
 0001:00009474       ??_C@_01IHBHIGKO@?0?$AA@   1000a474     wininet_http:cache.obj
 0001:00009478       ??_C@_06FNFBAEBE@binary?$AA@ 1000a478     wininet_http:cache.obj
 0001:00009480       ??_C@_08BABJIOEM@filename?$AA@ 1000a480     wininet_http:cache.obj
 0001:0000948c       ??_C@_06JGHEJFNC@image?1?$AA@ 1000a48c     wininet_http:cache.obj
 0001:00009494       ??_C@_04LLEBNMDN@?$CFs?$AN?6?$AA@ 1000a494     wininet_http:cache.obj
 0001:0000949c       ??_C@_08FPAHMOOH@?$CFs?3?5?$CFu?$AN?6?$AA@ 1000a49c     wininet_http:cache.obj
 0001:000094a8       ??_C@_09EIOMKPCF@bytes?$DN?$CFd?9?$AA@ 1000a4a8     wininet_http:cache.obj
 0001:000094d4       ??_C@_09HOLCPCNH@Refresh?3?5?$AA@ 1000a4d4     wininet_http:redirect.obj
 0001:000094e0       ??_7CFsm_Redirect@@6B@     1000a4e0     wininet_http:redirect.obj
 0001:00009504       ??_7CFsm_GetConnection@@6B@ 1000a504     wininet_http:socket.obj
 0001:00009508       ??_7CFsm_OpenConnection@@6B@ 1000a508     wininet_http:socket.obj
 0001:0000950c       ??_7CFsm_OpenProxyTunnel@@6B@ 1000a50c     wininet_http:socket.obj
 0001:00009530       ??_7CFsm_ReadLoop@@6B@     1000a530     wininet_http:read.obj
 0001:00009534       ??_C@_0BC@HDIONHAN@Microsoft?9PWS?995?1?$AA@ 1000a534     wininet_http:read.obj
 0001:00009548       ??_7CFsm_DrainResponse@@6B@ 1000a548     wininet_http:read.obj
 0001:0000954c       ??_7CFsm_ReadData@@6B@     1000a54c     wininet_http:read.obj
 0001:00009550       ??_7CFsm_HttpQueryAvailable@@6B@ 1000a550     wininet_http:read.obj
 0001:00009554       ??_7CFsm_HttpReadData@@6B@ 1000a554     wininet_http:read.obj
 0001:000095b8       ??_C@_0CF@JAJOBBMA@CURRENT?5CONNECTION?5CANDIDATE?3?5?$CC?$CF@ 1000a5b8     wininet_http:socket_cm.obj
 0001:000095e0       ??_C@_0CI@JNAFFICC@Attempting?5to?5acquire?5CANDIDATE?3@ 1000a5e0     wininet_http:socket_cm.obj
 0001:00009608       ??_C@_0DI@DCAOILNB@Attempting?5to?5get?5a?5k?9a?5socket?5f@ 1000a608     wininet_http:socket_cm.obj
 0001:00009640       ??_C@_0DN@DPLLMNEL@Attempting?5to?5make?5a?5new?5connect@ 1000a640     wininet_http:socket_cm.obj
 0001:000096e0       ??_C@_0CB@JOLEIINN@CoInternetIsFeatureEnabledForUrl@ 1000a6e0     wininet_httpauth:urlzone.obj
 0001:00009704       ??_C@_0BM@BODLDHAN@CoInternetCreateZoneManager?$AA@ 1000a704     wininet_httpauth:urlzone.obj
 0001:00009720       ??_C@_0CA@OOMLPODH@CoInternetCreateSecurityManager?$AA@ 1000a720     wininet_httpauth:urlzone.obj
 0001:00009740       ??_C@_0L@BFDIJHCF@urlmon?4dll?$AA@ 1000a740     wininet_httpauth:urlzone.obj
 0001:00009750       ??_C@_1EO@CEHNOFOA@?$AAR?$AAE?$AAT?$AAR?$AAY?$AA_?$AAH?$AAE?$AAA?$AAD?$AAE?$AAR?$AAO?$AAN?$AAL?$AAY?$AAP?$AAO?$AAS?$AAT?$AA_?$AAO?$AAN?$AAC?$AAO?$AAN?$AAN?$AAE?$AAC?$AAT?$AAI?$AAO@ 1000a750     wininet_httpauth:urlzone.obj
 0001:000097a0       ??_C@_1CM@DEFOECHP@?$AAF?$AAE?$AAA?$AAT?$AAU?$AAR?$AAE?$AA_?$AAM?$AAI?$AAM?$AAE?$AA_?$AAH?$AAA?$AAN?$AAD?$AAL?$AAI?$AAN?$AAG?$AA?$AA@ 1000a7a0     wininet_httpauth:urlzone.obj
 0001:000097d0       ??_C@_1EO@FIFPKCK@?$AAF?$AAE?$AAA?$AAT?$AAU?$AAR?$AAE?$AA_?$AAH?$AAT?$AAT?$AAP?$AA_?$AAU?$AAS?$AAE?$AAR?$AAN?$AAA?$AAM?$AAE?$AA_?$AAP?$AAA?$AAS?$AAS?$AAW?$AAO?$AAR?$AAD?$AA_?$AAD@ 1000a7d0     wininet_httpauth:urlzone.obj
 0001:00009820       ??_C@_1EO@NKFDFNPP@?$AAF?$AAE?$AAA?$AAT?$AAU?$AAR?$AAE?$AA_?$AAI?$AAG?$AAN?$AAO?$AAR?$AAE?$AA_?$AAM?$AAA?$AAP?$AAP?$AAI?$AAN?$AAG?$AAS?$AA_?$AAF?$AAO?$AAR?$AA_?$AAC?$AAR?$AAE?$AAD@ 1000a820     wininet_httpauth:urlzone.obj
 0001:00009890       ??_C@_0BP@EKLDMOBJ@HttpFilterBeginningTransaction?$AA@ 1000a890     wininet_httpauth:httpfilt.obj
 0001:000098b0       ??_C@_0BF@JBNBPBCB@HttpFilterOnResponse?$AA@ 1000a8b0     wininet_httpauth:httpfilt.obj
 0001:000098c8       ??_C@_0CA@EPBPCPDP@HttpFilterOnTransactionComplete?$AA@ 1000a8c8     wininet_httpauth:httpfilt.obj
 0001:000098e8       ??_C@_0BI@NIHKKAM@HttpFilterOnBlockingOps?$AA@ 1000a8e8     wininet_httpauth:httpfilt.obj
 0001:00009900       ??_C@_03DKGBLHDO@RPA?$AA@  1000a900     wininet_httpauth:httpfilt.obj
 0001:00009904       ??_C@_0P@JKECBOPI@HttpFilterOpen?$AA@ 1000a904     wininet_httpauth:httpfilt.obj
 0001:00009914       ??_C@_0N@GJOJGFEL@RPAWINET?4DLL?$AA@ 1000a914     wininet_httpauth:httpfilt.obj
 0001:00009924       ??_C@_0BA@COHMNGN@HttpFilterClose?$AA@ 1000a924     wininet_httpauth:httpfilt.obj
 0001:00009934       ??_C@_0DM@HBHJCANL@SOFTWARE?2Microsoft?2Windows?2Curre@ 1000a934     wininet_httpauth:httpfilt.obj
 0001:00009970       ??_C@_0BE@BCADGNCP@?$CFs?2Http?5Filters?2RPA?$AA@ 1000a970     wininet_httpauth:httpfilt.obj
 0001:000099a4       ??_C@_0BH@JDIAFNAN@CleanupCredentialCache?$AA@ 1000a9a4     wininet_httpauth:splugin.obj
 0001:000099bc       ??_C@_09OBFLGEDM@Negotiate?$AA@ 1000a9bc     wininet_httpauth:splugin.obj
 0001:000099c8       ??_C@_04KGCGDDND@NTLM?$AA@ 1000a9c8     wininet_httpauth:splugin.obj
 0001:000099d0       ??_C@_05NIKDGMHP@Basic?$AA@ 1000a9d0     wininet_httpauth:splugin.obj
 0001:000099d8       ??_7AUTHCTX@@6B@           1000a9d8     wininet_httpauth:splugin.obj
 0001:000099e8       ??_C@_0BK@KCHKNPIJ@CredUIConfirmCredentialsA?$AA@ 1000a9e8     wininet_httpauth:splugin.obj
 0001:00009a04       ??_C@_0BM@GJLLDODJ@CredUIPromptForCredentialsW?$AA@ 1000aa04     wininet_httpauth:splugin.obj
 0001:00009a20       ??_C@_0BM@HFCDILOO@CredUIPromptForCredentialsA?$AA@ 1000aa20     wininet_httpauth:splugin.obj
 0001:00009a3c       ??_C@_0L@DODMMHOF@credui?4dll?$AA@ 1000aa3c     wininet_httpauth:splugin.obj
 0001:00009a48       ??_C@_0P@LAMGMCAB@Authorization?3?$AA@ 1000aa48     wininet_httpauth:splugin.obj
 0001:00009a58       ??_C@_0BF@HBEFDDPI@Proxy?9Authorization?3?$AA@ 1000aa58     wininet_httpauth:splugin.obj
 0001:00009a70       ??_C@_0M@KHCDKLGP@Passport1?44?$AA@ 1000aa70     wininet_httpauth:splugin.obj
 0001:00009a7c       ??_C@_0BC@JJPFHCOD@SecurityProviders?$AA@ 1000aa7c     wininet_httpauth:splugin.obj
 0001:00009a90       ??_C@_0DD@FEKNANNC@SYSTEM?2CurrentControlSet?2Control@ 1000aa90     wininet_httpauth:splugin.obj
 0001:00009ac4       ??_C@_0M@DOGNDBPJ@MSNSSPC?4DLL?$AA@ 1000aac4     wininet_httpauth:splugin.obj
 0001:00009ad0       ??_C@_0M@DNLLDDGC@MSNSSPS?4DLL?$AA@ 1000aad0     wininet_httpauth:splugin.obj
 0001:00009adc       ??_C@_0N@JKLJLCHC@MSAPSSPC?4DLL?$AA@ 1000aadc     wininet_httpauth:splugin.obj
 0001:00009aec       ??_C@_0N@JJGPLAOJ@MSAPSSPS?4DLL?$AA@ 1000aaec     wininet_httpauth:splugin.obj
 0001:00009afc       ??_C@_03LHMFFCGB@MSN?$AA@  1000aafc     wininet_httpauth:sspspm.obj
 0001:00009b00       ??_C@_0BH@COAKKLLC@InitSecurityInterfaceA?$AA@ 1000ab00     wininet_httpauth:sspspm.obj
 0001:00009b18       ??_C@_1BI@HLLGKMIP@?$AAs?$AAe?$AAc?$AAu?$AAr?$AA3?$AA2?$AA?4?$AAd?$AAl?$AAl?$AA?$AA@ 1000ab18     wininet_httpauth:sspspm.obj
 0001:00009b30       ??_C@_07GAIPBDCG@WDigest?$AA@ 1000ab30     wininet_httpauth:sspspm.obj
 0001:00009b38       ??_C@_06MHCCOJOO@Digest?$AA@ 1000ab38     wininet_httpauth:sspspm.obj
 0001:00009b60       ??_7BASIC_CTX@@6B@         1000ab60     wininet_httpauth:basic.obj
 0001:00009b70       ??_C@_05CCMOGDN@?$CFs?3?$CFs?$AA@ 1000ab70     wininet_httpauth:basic.obj
 0001:00009b80       ??_C@_05EMKNLIFF@Realm?$AA@ 1000ab80     wininet_httpauth:basic.obj
 0001:00009ba8       ??_C@_08DEIMIBAF@Kerberos?$AA@ 1000aba8     wininet_httpauth:plug.obj
 0001:00009bb4       ??_7PLUG_CTX@@6B@          1000abb4     wininet_httpauth:plug.obj
 0001:00009bc4       ??_C@_0BN@OGNMADDO@Session?9Based?9Authentication?$AA@ 1000abc4     wininet_httpauth:plug.obj
 0001:00009be4       ??_C@_13FPGAJAPJ@?$AA?2?$AA?$AA@ 1000abe4     wininet_httpauth:sspi.obj
 0001:00009c28       ??_C@_03IKGEINEE@?$CFs?5?$AA@ 1000ac28     wininet_httpauth:sspcalls.obj
 0001:00009c2c       ??_C@_07NKPGKABG@HTTP?1?$CFs?$AA@ 1000ac2c     wininet_httpauth:sspcalls.obj
 0001:00009c34       ??_C@_0M@OABLMANC@HTTP?1?$CFs?3?$CFhu?$AA@ 1000ac34     wininet_httpauth:sspcalls.obj
 0001:00009c40       ??_C@_06FOAKIDDH@https?3?$AA@ 1000ac40     wininet_httpauth:sspcalls.obj
 0001:00009c48       ??_C@_05DDMNBEIG@http?3?$AA@ 1000ac48     wininet_httpauth:sspcalls.obj
 0001:00009ce0       ??_C@_0L@LNKKEMJM@Persistent?$AA@ 1000ace0     wininet_urlcache:cacheapi.obj
 0001:00009cf0       ??_C@_0EL@KHGPILCO@Software?2Policies?2Microsoft?2Wind@ 1000acf0     wininet_urlcache:cacheapi.obj
 0001:00009d40       ??_C@_0EC@BGBJLKHH@Software?2Microsoft?2Windows?2Curre@ 1000ad40     wininet_urlcache:cacheapi.obj
 0001:00009d84       ??_C@_07FLFBLJDA@Cookies?$AA@ 1000ad84     wininet_urlcache:cacheapi.obj
 0001:00009dac       ??_C@_06BCFBDPOE@Local?2?$AA@ 1000adac     wininet_urlcache:contain.obj
 0001:00009dd4       ??_C@_0CB@FCKEEIOK@SessionStartTimeDefaultDeltaSecs@ 1000add4     wininet_urlcache:initglob.obj
 0001:00009df8       ??_C@_0EG@COHGFGIG@Software?2Microsoft?2Windows?2Curre@ 1000adf8     wininet_urlcache:initglob.obj
 0001:00009e90       ??_C@_0BG@JABEFFJK@Local?2_?$CBMSFTHISTORY?$CB_?$AA@ 1000ae90     wininet_urlcache:conmgr.obj
 0001:00009ea8       ??_C@_0BL@PNEEBOEP@Local?2_?$CBMSFTHISTORY?$CB_LOW?$CB_?$AA@ 1000aea8     wininet_urlcache:conmgr.obj
 0001:00009ec4       ??_C@_0N@GDJDGFOC@CacheOptions?$AA@ 1000aec4     wininet_urlcache:conmgr.obj
 0001:00009ed4       ??_C@_0L@HDDIIHDG@CacheLimit?$AA@ 1000aed4     wininet_urlcache:conmgr.obj
 0001:00009ee0       ??_C@_0M@JNKNDBLG@CachePrefix?$AA@ 1000aee0     wininet_urlcache:conmgr.obj
 0001:00009eec       ??_C@_09NJLBPLHA@CachePath?$AA@ 1000aeec     wininet_urlcache:conmgr.obj
 0001:00009ef8       ??_C@_0M@DLHBNIDC@History?4IE5?$AA@ 1000aef8     wininet_urlcache:cachecfg.obj
 0001:00009f04       ??_C@_0M@PNCGEFIL@Content?4IE5?$AA@ 1000af04     wininet_urlcache:cachecfg.obj
 0001:00009f10       ??_C@_08EPLMAAKC@Visited?3?$AA@ 1000af10     wininet_urlcache:cachecfg.obj
 0001:00009f1c       ??_C@_0BJ@NOEDJBLN@Temporary?5Internet?5Files?$AA@ 1000af1c     wininet_urlcache:cachecfg.obj
 0001:00009f38       ??_C@_07HLHPKMFI@Content?$AA@ 1000af38     wininet_urlcache:cachecfg.obj
 0001:00009f40       ??_C@_07DFKCFAEM@History?$AA@ 1000af40     wininet_urlcache:cachecfg.obj
 0001:00009f48       ??_C@_05BEHOCFPE@Cache?$AA@ 1000af48     wininet_urlcache:cachecfg.obj
 0001:00009fb8       ??_C@_0EB@JCFECKEL@Software?2Microsoft?2Windows?2Curre@ 1000afb8     wininet_urlcache:cachecfg.obj
 0001:0000a000       ??_C@_0EJ@GKLCCFL@Software?2Microsoft?2Windows?2Curre@ 1000b000     wininet_urlcache:cachecfg.obj
 0001:0000a04c       ??_C@_01KICIPPFI@?2?$AA@   1000b04c     wininet_urlcache:cachecfg.obj
 0001:0000a050       ??_C@_0M@MBOBEAFD@PerUserItem?$AA@ 1000b050     wininet_urlcache:cachecfg.obj
 0001:0000a05c       ??_C@_0BM@HMOLHPLC@Client?5UrlCache?5MMF?5Ver?55?42?$AA@ 1000b05c     wininet_urlcache:cachecfg.obj
 0001:0000a078       ??_C@_09GDNFOKKF@Signature?$AA@ 1000b078     wininet_urlcache:cachecfg.obj
 0001:0000a084       ??_C@_0BA@KFCJFPHK@Profiles?2Guest?2?$AA@ 1000b084     wininet_urlcache:cachecfg.obj
 0001:0000a094       ??_C@_0M@NCLIIJAK@SystemCache?$AA@ 1000b094     wininet_urlcache:cachecfg.obj
 0001:0000a0a0       ??_C@_0BB@FJDLJCKG@Extensible?5Cache?$AA@ 1000b0a0     wininet_urlcache:cachecfg.obj
 0001:0000a0b4       ??_C@_0M@NLNJNKHN@CacheRepair?$AA@ 1000b0b4     wininet_urlcache:cachecfg.obj
 0001:0000a100       ??_C@_09HILEMHO@index?4dat?$AA@ 1000b100     wininet_urlcache:filemap.obj
 0001:0000a12c       ??_7CFileMgr@@6B@          1000b12c     wininet_urlcache:filemgr.obj
 0001:0000a14c       ??_C@_03ECCGHPEG@CON?$AA@  1000b14c     wininet_urlcache:filemgr.obj
 0001:0000a150       ??_C@_03BEHELHBE@PRN?$AA@  1000b150     wininet_urlcache:filemgr.obj
 0001:0000a154       ??_C@_03OFAGCELM@AUX?$AA@  1000b154     wininet_urlcache:filemgr.obj
 0001:0000a158       ??_C@_03JDMLODLP@NUL?$AA@  1000b158     wininet_urlcache:filemgr.obj
 0001:0000a15c       ??_C@_03LNBCHBIG@LPT?$AA@  1000b15c     wininet_urlcache:filemgr.obj
 0001:0000a160       ??_C@_04NOHONLOB@www?4?$AA@ 1000b160     wininet_urlcache:filemgr.obj
 0001:0000a168       ??_C@_04KBDJOJNB@?$FL?$CFd?$FN?$AA@ 1000b168     wininet_urlcache:filemgr.obj
 0001:0000a170       ??_C@_01LFCBOECM@?4?$AA@   1000b170     wininet_urlcache:filemgr.obj
 0001:0000a174       ??_7CSecFileMgr@@6B@       1000b174     wininet_urlcache:filemgr.obj
 0001:0000a2f8       ??_C@_0EC@MGGPAIDK@?$FL?4ShellClassInfo?$FN?$AN?6UICLSID?$DN?$HL7BD2@ 1000b2f8     wininet_urlcache:util_urlcache.obj
 0001:0000a340       ??_C@_0EA@JFNJKEB@?$FL?4ShellClassInfo?$FN?$AN?6CLSID?$DN?$HLFF3935@ 1000b340     wininet_urlcache:util_urlcache.obj
 0001:0000a3c8       ??_C@_0N@NAGBDEPH@?$CFSystemRoot?$CF?$AA@ 1000b3c8     wininet_urlcache:util_urlcache.obj
 0001:0000a3d8       ??_C@_0O@DGKNGEJG@?$CFUSERPROFILE?$CF?$AA@ 1000b3d8     wininet_urlcache:util_urlcache.obj
 0001:0000a3e8       ??_C@_0M@NNNKMEPA@desktop?4ini?$AA@ 1000b3e8     wininet_urlcache:util_urlcache.obj
 0001:0000a3f4       ??_C@_08KEPIKGMI@?2Windows?$AA@ 1000b3f4     wininet_urlcache:util_urlcache.obj
 0001:0000a460       ??_C@_1BE@BOHEBICI@?$AAn?$AAe?$AAt?$AAu?$AAi?$AA?4?$AAd?$AAl?$AAl?$AA?$AA@ 1000b460     wininet_inetui:ierrui.obj
 0001:0000a474       ??_C@_1CI@KLDEDPEF@?$AAG?$AAe?$AAt?$AAU?$AAs?$AAe?$AAr?$AAn?$AAa?$AAm?$AAe?$AAP?$AAa?$AAs?$AAs?$AAw?$AAo?$AAr?$AAd?$AA?$AA@ 1000b474     wininet_inetui:ierrui.obj
 0001:0000a49c       ??_C@_1CA@GOGEMIHH@?$AAW?$AAa?$AAi?$AAt?$AAF?$AAo?$AAr?$AAA?$AAP?$AAI?$AAR?$AAe?$AAa?$AAd?$AAy?$AA?$AA@ 1000b49c     wininet_inetui:ierrui.obj
 0001:0000a4bc       ??_C@_1BM@LLINKHBA@?$AAk?$AA?4?$AAc?$AAo?$AAr?$AAe?$AAd?$AAl?$AAl?$AA?4?$AAd?$AAl?$AAl?$AA?$AA@ 1000b4bc     wininet_inetui:ierrui.obj
 0001:0000a4d8       ??_C@_1BO@KLPJMMP@?$AAC?$AAe?$AAC?$AAa?$AAl?$AAl?$AAU?$AAs?$AAe?$AAr?$AAP?$AAr?$AAo?$AAc?$AA?$AA@ 1000b4d8     wininet_inetui:ierrui.obj
 0001:0000a4f8       ??_C@_1DC@OCDPGIJG@?$AAG?$AAe?$AAt?$AAU?$AAs?$AAe?$AAr?$AAn?$AAa?$AAm?$AAe?$AAP?$AAa?$AAs?$AAs?$AAw?$AAo?$AAr?$AAd?$AAE?$AAx?$AAE?$AAx?$AAt?$AA?$AA@ 1000b4f8     wininet_inetui:ierrui.obj
 0001:0000a52c       ??_C@_1CA@OJPLMFAG@?$AAP?$AAi?$AAc?$AAk?$AAC?$AAe?$AAr?$AAt?$AAi?$AAf?$AAi?$AAc?$AAa?$AAt?$AAe?$AA?$AA@ 1000b52c     wininet_inetui:ierrui.obj
 0001:0000a5cc       ??_C@_0CF@EOAKADJH@SYSTEM?2CurrentControlSet?2Control@ 1000b5cc     wininet_inetui:persist.obj
 0001:0000a5f4       ??_C@_1BI@LNCEEJJG@?$AAW?$AAI?$AAN?$AAI?$AAN?$AAE?$AAT?$AAC?$AAr?$AAe?$AAd?$AA?$AA@ 1000b5f4     wininet_inetui:persist.obj
 0001:0000a60c       ??_C@_0BF@NGKBJKDI@PStoreCreateInstance?$AA@ 1000b60c     wininet_inetui:persist.obj
 0001:0000a624       ??_C@_0M@EAHDIIIE@pstorec?4dll?$AA@ 1000b624     wininet_inetui:persist.obj
 0001:0000a630       ??_C@_0BD@KHJLPANG@DisableDomainCreds?$AA@ 1000b630     wininet_inetui:persist.obj
 0001:0000a644       ??_C@_0BH@FPMJAKGD@DisablePasswordCaching?$AA@ 1000b644     wininet_inetui:persist.obj
 0001:0000a65c       ??_C@_0BL@HENKIGOI@Microsoft_WinInet_?$CFs?3?$CFd?1?$CFs?$AA@ 1000b65c     wininet_inetui:persist.obj
 0001:0000a678       ??_C@_1M@CDCAHPKB@?$AA?$CF?$AAs?$AA?3?$AA?$CF?$AAs?$AA?$AA@ 1000b678     wininet_inetui:persist.obj
 0001:0000a688       ??_C@_1EK@IELPEELF@?$AAe?$AAa?$AAc?$AAe?$AA7?$AAc?$AA3?$AAa?$AA?9?$AA8?$AAc?$AA9?$AA6?$AA?9?$AA4?$AA2?$AA4?$AA9?$AA?9?$AA9?$AA5?$AA2?$AAe?$AA?9?$AA6?$AAd?$AA2?$AA8?$AA6?$AA4?$AAd?$AA1@ 1000b688     wininet_inetui:ierrdlg.obj
 0001:0000a6d4       ??_C@_1BM@EICPNIHJ@?$AAi?$AAe?$AAg?$AAe?$AAt?$AAs?$AAr?$AAt?$AA?4?$AAh?$AAt?$AAm?$AA?5?$AA?$AA@ 1000b6d4     wininet_inetui:ierrdlg.obj
 0001:0000a6f0       ??_C@_1HE@DOJJPHK@?$AAm?$AAs?$AAh?$AAe?$AAl?$AAp?$AA?3?$AA?1?$AA?1?$AAw?$AAi?$AAn?$AAd?$AAo?$AAw?$AAs?$AA?1?$AA?$DP?$AAi?$AAd?$AA?$DN?$AAc?$AA9?$AAd?$AAa?$AAa?$AA3?$AA6?$AAb?$AA?9?$AA3?$AAb@ 1000b6f0     wininet_inetui:ierrdlg.obj
 0001:0000a764       ??_C@_1CG@MIKIHPGA@?$AAI?$AAE?$AA_?$AAc?$AAo?$AAo?$AAk?$AAi?$AAe?$AAs?$AA_?$AAf?$AAa?$AAq?$AA?4?$AAh?$AAt?$AAm?$AA?$AA@ 1000b764     wininet_inetui:ierrdlg.obj
 0001:0000a790       ??_C@_1HE@FMDHIFDH@?$AAm?$AAs?$AAh?$AAe?$AAl?$AAp?$AA?3?$AA?1?$AA?1?$AAw?$AAi?$AAn?$AAd?$AAo?$AAw?$AAs?$AA?1?$AA?$DP?$AAi?$AAd?$AA?$DN?$AA7?$AA7?$AA1?$AAb?$AA5?$AA9?$AA9?$AAb?$AA?9?$AAc?$AAa@ 1000b790     wininet_inetui:ierrdlg.obj
 0001:0000a804       ??_C@_1CC@ILLJHKHL@?$AAs?$AAe?$AAc?$AA_?$AAo?$AAv?$AAe?$AAr?$AAv?$AAi?$AAe?$AAw?$AA?4?$AAh?$AAt?$AAm?$AA?$AA@ 1000b804     wininet_inetui:ierrdlg.obj
 0001:0000a828       ??_C@_1HE@LJGOPBN@?$AAm?$AAs?$AAh?$AAe?$AAl?$AAp?$AA?3?$AA?1?$AA?1?$AAw?$AAi?$AAn?$AAd?$AAo?$AAw?$AAs?$AA?1?$AA?$DP?$AAi?$AAd?$AA?$DN?$AA1?$AA6?$AAe?$AAe?$AA1?$AAf?$AAa?$AA9?$AA?9?$AA6?$AA0@ 1000b828     wininet_inetui:ierrdlg.obj
 0001:0000a89c       ??_C@_1DM@LENGANBC@?$AAi?$AAe?$AA_?$AAt?$AAr?$AAa?$AAn?$AAs?$AAa?$AAc?$AAt?$AAi?$AAo?$AAn?$AA_?$AAs?$AAe?$AAc?$AAu?$AAr?$AAe?$AA_?$AAf?$AAa?$AAq?$AA?4?$AAh?$AAt?$AAm?$AA?$AA@ 1000b89c     wininet_inetui:ierrdlg.obj
 0001:0000a8d8       ??_C@_1HE@LIPBMHMM@?$AAm?$AAs?$AAh?$AAe?$AAl?$AAp?$AA?3?$AA?1?$AA?1?$AAw?$AAi?$AAn?$AAd?$AAo?$AAw?$AAs?$AA?1?$AA?$DP?$AAi?$AAd?$AA?$DN?$AAd?$AAd?$AAf?$AAa?$AA6?$AA3?$AAe?$AAf?$AA?9?$AA1?$AA5@ 1000b8d8     wininet_inetui:ierrdlg.obj
 0001:0000a94c       ??_C@_1DA@HLGKJIMN@?$AAI?$AAE?$AA_?$AAS?$AAS?$AAL?$AA_?$AAc?$AAe?$AAr?$AAt?$AA_?$AAi?$AAn?$AAf?$AAo?$AA_?$AAI?$AAT?$AA?4?$AAh?$AAt?$AAm?$AA?$AA@ 1000b94c     wininet_inetui:ierrdlg.obj
 0001:0000a99c       ??_7BaseCmWrapper@@6B@     1000b99c     wininet_inetui:ierrdlg.obj
 0001:0000a9ac       ??_C@_1CI@GPIHHJHF@?$AAL?$AAa?$AAu?$AAn?$AAc?$AAh?$AAW?$AAi?$AAn?$AAi?$AAn?$AAe?$AAt?$AAD?$AAi?$AAa?$AAl?$AAo?$AAg?$AA?$AA@ 1000b9ac     wininet_inetui:ierrdlg.obj
 0001:0000a9d4       ??_C@_1CA@MCBDNCDH@?$AAS?$AAh?$AAo?$AAw?$AAC?$AAe?$AAr?$AAt?$AAi?$AAf?$AAi?$AAc?$AAa?$AAt?$AAe?$AA?$AA@ 1000b9d4     wininet_inetui:ierrdlg.obj
 0001:0000a9f4       ??_C@_0BD@JIMPAKNP@WarnOnPostRedirect?$AA@ 1000b9f4     wininet_inetui:ierrdlg.obj
 0001:0000aa08       ??_C@_0L@CGODJJPP@WarnOnPost?$AA@ 1000ba08     wininet_inetui:ierrdlg.obj
 0001:0000aa14       ??_C@_0BD@HMJAFACN@WarnOnZoneCrossing?$AA@ 1000ba14     wininet_inetui:ierrdlg.obj
 0001:0000aa28       ??_7NetuiWrapper@@6B@      1000ba28     wininet_inetui:ierrdlg.obj
 0001:0000aa38       ??_C@_1CK@OLCFOCLC@?$AAw?$AAi?$AAn?$AAi?$AAn?$AAe?$AAt?$AA?4?$AAh?$AAt?$AAm?$AA?$CD?$AAs?$AAe?$AAc?$AAu?$AAr?$AAi?$AAt?$AAy?$AA?$AA@ 1000ba38     wininet_inetui:ierrdlg.obj
 0001:0000aa64       ??_C@_1BI@CPLBOCHL@?$AAp?$AAe?$AAg?$AAh?$AAe?$AAl?$AAp?$AA?4?$AAe?$AAx?$AAe?$AA?$AA@ 1000ba64     wininet_inetui:ierrdlg.obj
 0001:0000aa7c       ??_C@_1BK@HFIHCFMH@?$AAS?$AAH?$AAI?$AAn?$AAi?$AAt?$AAD?$AAi?$AAa?$AAl?$AAo?$AAg?$AA?$AA@ 1000ba7c     wininet_inetui:ierrdlg.obj
 0001:0000aa98       ??_C@_1CI@EOPHAJLC@?$AAS?$AAH?$AAI?$AAn?$AAi?$AAt?$AAE?$AAx?$AAt?$AAr?$AAa?$AAC?$AAo?$AAn?$AAt?$AAr?$AAo?$AAl?$AAs?$AA?$AA@ 1000ba98     wininet_inetui:ierrdlg.obj
 0001:0000aac0       ??_C@_1BK@HMCKJION@?$AAa?$AAy?$AAg?$AAs?$AAh?$AAe?$AAl?$AAl?$AA?4?$AAd?$AAl?$AAl?$AA?$AA@ 1000bac0     wininet_inetui:ierrdlg.obj
 0001:0000aadc       ??_C@_1CI@CIBECEJJ@?$AAI?$AAs?$AAM?$AAe?$AAs?$AAs?$AAa?$AAg?$AAe?$AAB?$AAo?$AAx?$AAH?$AAa?$AAn?$AAd?$AAl?$AAe?$AAd?$AA?$AA@ 1000badc     wininet_inetui:wininetui.obj
 0001:0000ab04       ??_C@_1CG@PNKJKPDD@?$AAI?$AAs?$AAD?$AAi?$AAa?$AAl?$AAo?$AAg?$AAB?$AAo?$AAx?$AAH?$AAa?$AAn?$AAd?$AAl?$AAe?$AAd?$AA?$AA@ 1000bb04     wininet_inetui:wininetui.obj
 0001:0000ab2c       ??_C@_1BM@HKPMPHHD@?$AAw?$AAi?$AAn?$AAi?$AAn?$AAe?$AAt?$AAu?$AAi?$AA?4?$AAd?$AAl?$AAl?$AA?$AA@ 1000bb2c     wininet_inetui:wininetui.obj
 0001:0000ab48       ??_7WininetuiWrapper@@6B@  1000bb48     wininet_inetui:wininetui.obj
 0001:0000abb8       ??_C@_05MAJJAKPI@FALSE?$AA@ 1000bbb8     wininet_dll:cookexp.obj
 0001:0000abc0       ??_C@_04HCDDPBNL@TRUE?$AA@ 1000bbc0     wininet_dll:cookexp.obj
 0001:0000abc8       ??_C@_01GPOEFGEJ@?7?$AA@   1000bbc8     wininet_dll:cookexp.obj
 0001:0000abcc       ??_C@_04FMMHFHOO@?$AN?6?$AN?6?$AA@ 1000bbcc     wininet_dll:cookexp.obj
 0001:0000abd4       ??_C@_03FKNCMABI@?$CFlu?$AA@ 1000bbd4     wininet_dll:cookexp.obj
 0001:0000abd8       ??_C@_01EEMJAFIK@?6?$AA@   1000bbd8     wininet_dll:cookexp.obj
 0001:0000abe0       ??_C@_0EC@IPBPAEBK@?$CD?5?5Internet?5Explorer?5cookie?5file@ 1000bbe0     wininet_dll:cookexp.obj
 0001:0000ac44       ??_C@_07FGAOOBMN@http?3?1?1?$AA@ 1000bc44     wininet_dll:cookimp.obj
 0001:0000ac4c       ??_C@_06MONEMCJK@file?3?1?$AA@ 1000bc4c     wininet_dll:cookimp.obj
 0001:0000ac54       ??_C@_09JFABAEBI@?$DLexpires?$DN?$AA@ 1000bc54     wininet_dll:cookimp.obj
 0001:0000ac60       ??_C@_08OCHKHDHH@?$DLdomain?$DN?$AA@ 1000bc60     wininet_dll:cookimp.obj
 0001:0000ac6c       ??_C@_07KEPEFAN@?$DLsecure?$AA@ 1000bc6c     wininet_dll:cookimp.obj
 0001:0000ac94       ??_7CFsm_FtpConnect@@6B@   1000bc94     wininet_dll:inetapia.obj
 0001:0000ac98       ??_7CFsm_InternetFindNextFile@@6B@ 1000bc98     wininet_dll:inetapia.obj
 0001:0000ac9c       ??_7CFsm_InternetQueryDataAvailable@@6B@ 1000bc9c     wininet_dll:inetapia.obj
 0001:0000aca0       ??_7CFsm_InternetWriteFile@@6B@ 1000bca0     wininet_dll:inetapia.obj
 0001:0000aca4       ??_7CFsm_InternetReadFile@@6B@ 1000bca4     wininet_dll:inetapia.obj
 0001:0000aca8       ??_7CFsm_ParseUrlForHttp@@6B@ 1000bca8     wininet_dll:inetapia.obj
 0001:0000acac       ??_C@_03LMDBDBEG@ftp?$AA@  1000bcac     wininet_dll:inetapia.obj
 0001:0000acb0       ??_7CFsm_ReadFile@@6B@     1000bcb0     wininet_dll:inetapia.obj
 0001:0000acb4       ??_7CFsm_ReadFileEx@@6B@   1000bcb4     wininet_dll:inetapia.obj
 0001:0000acb8       ??_7CFsm_QueryAvailable@@6B@ 1000bcb8     wininet_dll:inetapia.obj
 0001:0000acbc       ??_C@_08DGAODAHG@Internal?$AA@ 1000bcbc     wininet_dll:inetapia.obj
 0001:0000ad44       ??_C@_0CA@GCMGPFLN@Local?2WininetProxyRegistryMutex?$AA@ 1000bd44     wininet_dll:autodial.obj
 0001:0000ad64       ??_C@_0BE@ECIAPBGI@SavedLegacySettings?$AA@ 1000bd64     wininet_dll:autodial.obj
 0001:0000adb8       ??_C@_0BC@FBOIEFIB@GlobalUserOffline?$AA@ 1000bdb8     wininet_dll:options.obj
 0001:0000adcc       ??_C@_17FFBLCHOA@?$AAr?$AAe?$AAs?$AA?$AA@ 1000bdcc     wininet_dll:parseurl.obj
 0001:0000add4       ??_C@_03FFIDGLAK@res?$AA@  1000bdd4     wininet_dll:parseurl.obj
 0001:0000add8       ??_C@_1BC@PKLEEMMC@?$AAv?$AAb?$AAs?$AAc?$AAr?$AAi?$AAp?$AAt?$AA?$AA@ 1000bdd8     wininet_dll:parseurl.obj
 0001:0000adec       ??_C@_08IBPPJOAO@vbscript?$AA@ 1000bdec     wininet_dll:parseurl.obj
 0001:0000adf8       ??_C@_1BG@IDOPBDEC@?$AAj?$AAa?$AAv?$AAa?$AAs?$AAc?$AAr?$AAi?$AAp?$AAt?$AA?$AA@ 1000bdf8     wininet_dll:parseurl.obj
 0001:0000ae10       ??_C@_0L@OKAJNFN@javascript?$AA@ 1000be10     wininet_dll:parseurl.obj
 0001:0000ae1c       ??_C@_1M@LCMPGCNK@?$AAs?$AAo?$AAc?$AAk?$AAs?$AA?$AA@ 1000be1c     wininet_dll:parseurl.obj
 0001:0000ae28       ??_C@_05LBOKJHLG@socks?$AA@ 1000be28     wininet_dll:parseurl.obj
 0001:0000ae30       ??_C@_1O@PPNEGLOB@?$AAm?$AAa?$AAi?$AAl?$AAt?$AAo?$AA?$AA@ 1000be30     wininet_dll:parseurl.obj
 0001:0000ae40       ??_C@_06BPBFDLDI@mailto?$AA@ 1000be40     wininet_dll:parseurl.obj
 0001:0000ae48       ??_C@_19CEPNDPJO@?$AAn?$AAe?$AAw?$AAs?$AA?$AA@ 1000be48     wininet_dll:parseurl.obj
 0001:0000ae54       ??_C@_04EGILJCBP@news?$AA@ 1000be54     wininet_dll:parseurl.obj
 0001:0000ae5c       ??_C@_19HMOGJADO@?$AAf?$AAi?$AAl?$AAe?$AA?$AA@ 1000be5c     wininet_dll:parseurl.obj
 0001:0000ae68       ??_C@_04DAMGJPCA@file?$AA@ 1000be68     wininet_dll:parseurl.obj
 0001:0000ae70       ??_C@_1M@PGEJLFN@?$AAh?$AAt?$AAt?$AAp?$AAs?$AA?$AA@ 1000be70     wininet_dll:parseurl.obj
 0001:0000ae7c       ??_C@_19NNDKDCM@?$AAh?$AAt?$AAt?$AAp?$AA?$AA@ 1000be7c     wininet_dll:parseurl.obj
 0001:0000ae88       ??_C@_1O@PBNKJIMA@?$AAg?$AAo?$AAp?$AAh?$AAe?$AAr?$AA?$AA@ 1000be88     wininet_dll:parseurl.obj
 0001:0000ae98       ??_C@_06IBHFMCPJ@gopher?$AA@ 1000be98     wininet_dll:parseurl.obj
 0001:0000aea0       ??_C@_17HHNFGGOB@?$AAf?$AAt?$AAp?$AA?$AA@ 1000bea0     wininet_dll:parseurl.obj
 0001:0000af88       ??_7INTERNET_FILE_HANDLE_OBJECT@@6B@ 1000bf88     wininet_dll:parseurl.obj
 0001:0000afd8       vszSyncMode                1000bfd8     wininet_dll:globals.obj
 0001:0000afe4       vszDisableSslCaching       1000bfe4     wininet_dll:globals.obj
 0001:0000b008       vszPerUserCookies          1000c008     wininet_dll:globals.obj
 0001:0000b018       vszInvalidFilenameChars    1000c018     wininet_dll:globals.obj
 0001:0000b038       gszDefaultUserAgent        1000c038     wininet_dll:globals.obj
 0001:0000b0ec       ??_C@_1CK@OGBELEGC@?$AAC?$AAm?$AAU?$AAp?$AAd?$AAa?$AAt?$AAe?$AAP?$AAo?$AAl?$AAi?$AAc?$AAy?$AAC?$AAo?$AAn?$AAf?$AAi?$AAg?$AA?$AA@ 1000c0ec     wininet_dll:globals.obj
 0001:0000b118       ??_C@_1DE@IDCLMEOO@?$AAC?$AAm?$AAG?$AAe?$AAt?$AAT?$AAo?$AAU?$AAp?$AAd?$AAa?$AAt?$AAe?$AAP?$AAo?$AAl?$AAi?$AAc?$AAy?$AAC?$AAo?$AAn?$AAf?$AAi?$AAg?$AA?$AA@ 1000c118     wininet_dll:globals.obj
 0001:0000b14c       ??_C@_1DC@GJGGKABF@?$AAC?$AAm?$AAD?$AAe?$AAl?$AAe?$AAt?$AAe?$AAC?$AAo?$AAn?$AAn?$AAe?$AAc?$AAt?$AAi?$AAo?$AAn?$AAC?$AAo?$AAn?$AAf?$AAi?$AAg?$AA?$AA@ 1000c14c     wininet_dll:globals.obj
 0001:0000b180       ??_C@_1DC@BDHALJND@?$AAC?$AAm?$AAU?$AAp?$AAd?$AAa?$AAt?$AAe?$AAC?$AAo?$AAn?$AAn?$AAe?$AAc?$AAt?$AAi?$AAo?$AAn?$AAC?$AAo?$AAn?$AAf?$AAi?$AAg?$AA?$AA@ 1000c180     wininet_dll:globals.obj
 0001:0000b1b4       ??_C@_1DM@FPHCLECI@?$AAC?$AAm?$AAG?$AAe?$AAt?$AAT?$AAo?$AAU?$AAp?$AAd?$AAa?$AAt?$AAe?$AAC?$AAo?$AAn?$AAn?$AAe?$AAc?$AAt?$AAi?$AAo?$AAn?$AAC?$AAo?$AAn?$AAf?$AAi?$AAg?$AA?$AA@ 1000c1b4     wininet_dll:globals.obj
 0001:0000b1f0       ??_C@_1CM@IGHBGMFA@?$AAC?$AAm?$AAA?$AAd?$AAd?$AAC?$AAo?$AAn?$AAn?$AAe?$AAc?$AAt?$AAi?$AAo?$AAn?$AAC?$AAo?$AAn?$AAf?$AAi?$AAg?$AA?$AA@ 1000c1f0     wininet_dll:globals.obj
 0001:0000b21c       ??_C@_1CA@BLKHIEBG@?$AAC?$AAm?$AAG?$AAe?$AAt?$AAN?$AAe?$AAx?$AAt?$AAI?$AAp?$AAA?$AAd?$AAd?$AAr?$AA?$AA@ 1000c21c     wininet_dll:globals.obj
 0001:0000b23c       ??_C@_1CC@LIAKENIN@?$AAC?$AAm?$AAG?$AAe?$AAt?$AAF?$AAi?$AAr?$AAs?$AAt?$AAI?$AAp?$AAA?$AAd?$AAd?$AAr?$AA?$AA@ 1000c23c     wininet_dll:globals.obj
 0001:0000b260       ??_C@_1CI@OJEPNJIE@?$AAC?$AAm?$AAR?$AAe?$AAl?$AAe?$AAa?$AAs?$AAe?$AAC?$AAo?$AAn?$AAn?$AAe?$AAc?$AAt?$AAi?$AAo?$AAn?$AA?$AA@ 1000c260     wininet_dll:globals.obj
 0001:0000b288       ??_C@_1CI@FDKABBNC@?$AAC?$AAm?$AAA?$AAc?$AAq?$AAu?$AAi?$AAr?$AAe?$AAC?$AAo?$AAn?$AAn?$AAe?$AAc?$AAt?$AAi?$AAo?$AAn?$AA?$AA@ 1000c288     wininet_dll:globals.obj
 0001:0000b2b0       ??_C@_1DO@EMLEGIHO@?$AAC?$AAm?$AAG?$AAe?$AAt?$AAC?$AAo?$AAn?$AAn?$AAe?$AAc?$AAt?$AAi?$AAo?$AAn?$AAD?$AAe?$AAt?$AAa?$AAi?$AAl?$AAs?$AAB?$AAy?$AAH?$AAa?$AAn?$AAd?$AAl?$AAe?$AA?$AA@ 1000c2b0     wininet_dll:globals.obj
 0001:0000b2f0       ??_C@_1DK@PNAIDCBH@?$AAC?$AAm?$AAG?$AAe?$AAt?$AAN?$AAe?$AAx?$AAt?$AAC?$AAa?$AAn?$AAd?$AAi?$AAd?$AAa?$AAt?$AAe?$AAC?$AAo?$AAn?$AAn?$AAe?$AAc?$AAt?$AAi?$AAo?$AAn?$AA?$AA@ 1000c2f0     wininet_dll:globals.obj
 0001:0000b32c       ??_C@_1DM@MLLDADMM@?$AAC?$AAm?$AAG?$AAe?$AAt?$AAF?$AAi?$AAr?$AAs?$AAt?$AAC?$AAa?$AAn?$AAd?$AAi?$AAd?$AAa?$AAt?$AAe?$AAC?$AAo?$AAn?$AAn?$AAe?$AAc?$AAt?$AAi?$AAo?$AAn?$AA?$AA@ 1000c32c     wininet_dll:globals.obj
 0001:0000b368       ??_C@_1CC@OLENIOLE@?$AAC?$AAm?$AAS?$AAe?$AAt?$AAP?$AAr?$AAe?$AAf?$AAe?$AAr?$AAe?$AAn?$AAc?$AAe?$AAs?$AA?$AA@ 1000c368     wininet_dll:globals.obj
 0001:0000b38c       ??_C@_1CE@DEDFOKHM@?$AAC?$AAm?$AAS?$AAe?$AAt?$AAR?$AAe?$AAq?$AAu?$AAi?$AAr?$AAe?$AAm?$AAe?$AAn?$AAt?$AAs?$AA?$AA@ 1000c38c     wininet_dll:globals.obj
 0001:0000b3b0       ??_C@_1BO@BALBFLOM@?$AAC?$AAm?$AAC?$AAl?$AAo?$AAs?$AAe?$AAS?$AAe?$AAs?$AAs?$AAi?$AAo?$AAn?$AA?$AA@ 1000c3b0     wininet_dll:globals.obj
 0001:0000b3d0       ??_C@_1DC@BCAGLNHJ@?$AAC?$AAm?$AAC?$AAr?$AAe?$AAa?$AAt?$AAe?$AAS?$AAe?$AAs?$AAs?$AAi?$AAo?$AAn?$AAR?$AAe?$AAf?$AAe?$AAr?$AAe?$AAn?$AAc?$AAe?$AA?$AA@ 1000c3d0     wininet_dll:globals.obj
 0001:0000b404       ??_C@_1CA@GAMBCEAI@?$AAC?$AAm?$AAC?$AAr?$AAe?$AAa?$AAt?$AAe?$AAS?$AAe?$AAs?$AAs?$AAi?$AAo?$AAn?$AA?$AA@ 1000c404     wininet_dll:globals.obj
 0001:0000b424       ??_C@_1BI@CEPLBNFP@?$AAC?$AAm?$AAA?$AAp?$AAi?$AAD?$AAe?$AAi?$AAn?$AAi?$AAt?$AA?$AA@ 1000c424     wininet_dll:globals.obj
 0001:0000b43c       ??_C@_1BE@MNPBPLBI@?$AAC?$AAm?$AAA?$AAp?$AAi?$AAI?$AAn?$AAi?$AAt?$AA?$AA@ 1000c43c     wininet_dll:globals.obj
 0001:0000b450       ??_C@_1CK@BGFKMGAO@?$AAC?$AAm?$AAI?$AAs?$AAS?$AAe?$AAr?$AAv?$AAi?$AAc?$AAe?$AAA?$AAv?$AAa?$AAi?$AAl?$AAa?$AAb?$AAl?$AAe?$AA?$AA@ 1000c450     wininet_dll:globals.obj
 0001:0000b47c       ??_C@_1BE@FECGMPDD@?$AAC?$AAm?$AAN?$AAe?$AAt?$AA?4?$AAd?$AAl?$AAl?$AA?$AA@ 1000c47c     wininet_dll:globals.obj
 0001:0000b490       ??_C@_1O@CHBCJGPP@?$AAG?$AAl?$AAo?$AAb?$AAa?$AAl?$AA?$AA@ 1000c490     wininet_dll:globals.obj
 0001:0000b4a0       ??_C@_0EC@HFPHHMLP@Software?2Policies?2Microsoft?2Inte@ 1000c4a0     wininet_dll:globals.obj
 0001:0000b4e4       ??_C@_0DJ@BFBIGAHA@Software?2Microsoft?2Internet?5Expl@ 1000c4e4     wininet_dll:globals.obj
 0001:0000b520       ??_C@_08EEOHOBEO@Settings?$AA@ 1000c520     wininet_dll:globals.obj
 0001:0000b52c       ??_C@_0BF@KEDJHPAH@WarnOnBadCertSending?$AA@ 1000c52c     wininet_dll:globals.obj
 0001:0000b544       ??_C@_0BF@MOCNKIKF@WarnOnBadCertRecving?$AA@ 1000c544     wininet_dll:globals.obj
 0001:0000b55c       ??_C@_0BG@NHGGBHGK@AlwaysDrainOnRedirect?$AA@ 1000c55c     wininet_dll:globals.obj
 0001:0000b574       ??_C@_0BK@DMEMGFAC@WarnOnHTTPSToHTTPRedirect?$AA@ 1000c574     wininet_dll:globals.obj
 0001:0000b590       ??_C@_0BB@DOIPKILJ@WarnAlwaysOnPost?$AA@ 1000c590     wininet_dll:globals.obj
 0001:0000b5a4       ??_C@_0BK@FNMOKHDE@Local?2WininetStartupMutex?$AA@ 1000c5a4     wininet_dll:globals.obj
 0001:0000b5c0       ??_7CmProxyWrapper@@6B@    1000c5c0     wininet_dll:globals.obj
 0001:0000b5d0       ??_C@_1BG@DGFLAFJM@?$AAP?$AAs?$AAD?$AAe?$AAl?$AAP?$AAr?$AAo?$AAx?$AAy?$AA?$AA@ 1000c5d0     wininet_dll:globals.obj
 0001:0000b5e8       ??_C@_1BG@KMDNHBLK@?$AAP?$AAs?$AAS?$AAe?$AAt?$AAP?$AAr?$AAo?$AAx?$AAy?$AA?$AA@ 1000c5e8     wininet_dll:globals.obj
 0001:0000b600       ??_C@_1BO@IACNJJHA@?$AAP?$AAs?$AAF?$AAr?$AAe?$AAe?$AAG?$AAe?$AAt?$AAP?$AAr?$AAo?$AAx?$AAy?$AA?$AA@ 1000c600     wininet_dll:globals.obj
 0001:0000b620       ??_C@_1BG@IJDGPKKE@?$AAP?$AAs?$AAG?$AAe?$AAt?$AAP?$AAr?$AAo?$AAx?$AAy?$AA?$AA@ 1000c620     wininet_dll:globals.obj
 0001:0000b638       ??_C@_1BC@HOOIIPGJ@?$AAP?$AAs?$AAD?$AAe?$AAI?$AAn?$AAi?$AAt?$AA?$AA@ 1000c638     wininet_dll:globals.obj
 0001:0000b64c       ??_C@_1O@DGPDOJBL@?$AAP?$AAs?$AAI?$AAn?$AAi?$AAt?$AA?$AA@ 1000c64c     wininet_dll:globals.obj
 0001:0000b65c       ??_C@_1BK@KHHGHJGF@?$AAP?$AAr?$AAo?$AAx?$AAy?$AAD?$AAB?$AAS?$AA?4?$AAd?$AAl?$AAl?$AA?$AA@ 1000c65c     wininet_dll:globals.obj
 0001:0000b678       ??_C@_0BA@EKPOBHCC@SecureProtocols?$AA@ 1000c678     wininet_dll:globals.obj
 0001:0000b688       ??_C@_0BG@GPFPEMHF@CertificateRevocation?$AA@ 1000c688     wininet_dll:globals.obj
 0001:0000b6a0       ??_C@_0EF@OOPFPNLH@SOFTWARE?2Policies?2Microsoft?2Wind@ 1000c6a0     wininet_dll:globals.obj
 0001:0000b6e8       ??_C@_0O@BLDPJFEC@EnableHttp1_1?$AA@ 1000c6e8     wininet_dll:globals.obj
 0001:0000b6f8       ??_C@_0N@HMOFDCJP@ProxyHttp1?41?$AA@ 1000c6f8     wininet_dll:globals.obj
 0001:0000b708       ??_7PROXY_INFO_GLOBAL@@6B@ 1000c708     wininet_dll:globals.obj
 0001:0000b72c       ??_C@_0P@BDJMKMGF@CmSkipLoopback?$AA@ 1000c72c     wininet_dll:globals.obj
 0001:0000b73c       ??_C@_0BE@DMPMNNKK@BadProxyExpiresTime?$AA@ 1000c73c     wininet_dll:globals.obj
 0001:0000b750       ??_C@_0BB@BGHAENPI@TruncateFileName?$AA@ 1000c750     wininet_dll:globals.obj
 0001:0000b764       ??_C@_0M@BNJGHGDI@UrlEncoding?$AA@ 1000c764     wininet_dll:globals.obj
 0001:0000b770       ??_C@_0N@HGEOGMG@IEXPLORE?4EXE?$AA@ 1000c770     wininet_dll:globals.obj
 0001:0000b780       ??_C@_0BH@NOEAMAM@BypassHTTPNoCacheCheck?$AA@ 1000c780     wininet_dll:globals.obj
 0001:0000b798       ??_C@_0BG@GANKMCHA@BypassSSLNoCacheCheck?$AA@ 1000c798     wininet_dll:globals.obj
 0001:0000b7b0       ??_C@_0BA@LKFEMBBG@EnableHttpTrace?$AA@ 1000c7b0     wininet_dll:globals.obj
 0001:0000b7c0       ??_C@_0BI@OAIHGJAL@DontUseDNSLoadBalancing?$AA@ 1000c7c0     wininet_dll:globals.obj
 0001:0000b7d8       ??_C@_0BD@GMLCGCDO@DisableNT4RasCheck?$AA@ 1000c7d8     wininet_dll:globals.obj
 0001:0000b7ec       ??_C@_0BF@IJLLHMDA@DialupUseLanSettings?$AA@ 1000c7ec     wininet_dll:globals.obj
 0001:0000b804       ??_C@_0O@EFMFANLG@SendExtraCRLF?$AA@ 1000c804     wininet_dll:globals.obj
 0001:0000b814       ??_C@_0BD@KJCFEBED@BypassFtpTimeCheck?$AA@ 1000c814     wininet_dll:globals.obj
 0001:0000b828       ??_C@_0BI@PPIHPFLI@ReleaseSocketDuringAuth?$AA@ 1000c828     wininet_dll:globals.obj
 0001:0000b840       ??_C@_0BL@BCKAMOCB@ReleaseSocketDuring401Auth?$AA@ 1000c840     wininet_dll:globals.obj
 0001:0000b85c       ??_C@_0BF@GGMOJJLH@WpadSearchAllDomains?$AA@ 1000c85c     wininet_dll:globals.obj
 0001:0000b874       ??_C@_0BN@DBANHGE@DisableLegacyPreAuthAsServer?$AA@ 1000c874     wininet_dll:globals.obj
 0001:0000b894       ??_C@_0BN@NAHOIOEK@DisableCmConnectionIteration?$AA@ 1000c894     wininet_dll:globals.obj
 0001:0000b8b4       ??_C@_0BJ@ENLFJPNH@FtpDefaultExpiryTimeSecs?$AA@ 1000c8b4     wininet_dll:globals.obj
 0001:0000b8d0       ??_C@_0BK@OCDKCKBK@HttpDefaultExpiryTimeSecs?$AA@ 1000c8d0     wininet_dll:globals.obj
 0001:0000b8ec       ??_C@_0BD@GKDMGIFC@DisableNTLMPreAuth?$AA@ 1000c8ec     wininet_dll:globals.obj
 0001:0000b900       ??_C@_0BI@PIAAGICB@ScavengeCacheLowerBound?$AA@ 1000c900     wininet_dll:globals.obj
 0001:0000b918       ??_C@_0BE@HCNPHPMO@CertCacheNoValidate?$AA@ 1000c918     wininet_dll:globals.obj
 0001:0000b92c       ??_C@_0BK@CJMBJKD@ScavengeCacheFileLifeTime?$AA@ 1000c92c     wininet_dll:globals.obj
 0001:0000b948       ??_C@_0P@DDFLDCGP@ReceiveTimeOut?$AA@ 1000c948     wininet_dll:globals.obj
 0001:0000b958       ??_C@_0M@NAAJCBOM@SendTimeOut?$AA@ 1000c958     wininet_dll:globals.obj
 0001:0000b964       ??_C@_0P@HLIFFIBN@ConnectRetries?$AA@ 1000c964     wininet_dll:globals.obj
 0001:0000b974       ??_C@_0BC@GPCMCBDH@ServerInfoTimeout?$AA@ 1000c974     wininet_dll:globals.obj
 0001:0000b988       ??_C@_0P@FKGNOGHK@ConnectTimeOut?$AA@ 1000c988     wininet_dll:globals.obj
 0001:0000b998       ??_C@_0BL@JJFGMJCF@MaxConnectionsPer1_0Server?$AA@ 1000c998     wininet_dll:globals.obj
 0001:0000b9b4       ??_C@_0BB@DLLBAKHH@DisableReadRange?$AA@ 1000c9b4     wininet_dll:globals.obj
 0001:0000b9c8       ??_C@_0BB@NNLNHGJB@KeepAliveTimeout?$AA@ 1000c9c8     wininet_dll:globals.obj
 0001:0000b9dc       ??_C@_0BB@HOAMAGHO@MaxHttpRedirects?$AA@ 1000c9dc     wininet_dll:globals.obj
 0001:0000b9f0       ??_C@_0BI@HAANBNML@MaxConnectionsPerServer?$AA@ 1000c9f0     wininet_dll:globals.obj
 0001:0000ba08       ??_C@_0BC@PEBOHHE@UTF8ServerNameRes?$AA@ 1000ca08     wininet_dll:globals.obj
 0001:0000ba1c       ??_C@_0BP@OLNBIEJN@DisableWorkerThreadHibernation?$AA@ 1000ca1c     wininet_dll:globals.obj
 0001:0000ba3c       ??_C@_0BD@FIPNBMPJ@BufferBreakingSize?$AA@ 1000ca3c     wininet_dll:globals.obj
 0001:0000ba50       ??_C@_0BN@FOFNIOFG@DisableBasicOverClearChannel?$AA@ 1000ca50     wininet_dll:globals.obj
 0001:0000ba70       ??_C@_0BN@HMHGJNFJ@Feature_ClientAuthCertFilter?$AA@ 1000ca70     wininet_dll:globals.obj
 0001:0000ba90       ??_C@_0BL@LEMAKDEK@EnableAutoProxyResultCache?$AA@ 1000ca90     wininet_dll:globals.obj
 0001:0000baac       ??_C@_0BP@PEAJODBN@DisplayScriptDownloadFailureUI?$AA@ 1000caac     wininet_dll:globals.obj
 0001:0000bacc       ??_C@_0P@PFCNOFKK@MBCSServername?$AA@ 1000cacc     wininet_dll:globals.obj
 0001:0000badc       ??_C@_0BA@HGNLFOIE@MBCSAPIforCrack?$AA@ 1000cadc     wininet_dll:globals.obj
 0001:0000baec       ??_C@_0BB@EHKBHPDD@FromCacheTimeout?$AA@ 1000caec     wininet_dll:globals.obj
 0001:0000bb00       ??_C@_0BB@KDAFDAI@DisableKeepAlive?$AA@ 1000cb00     wininet_dll:globals.obj
 0001:0000bb14       ??_C@_0BA@IJNBKDJO@DisablePassport?$AA@ 1000cb14     wininet_dll:globals.obj
 0001:0000bb24       ??_C@_0L@NBADHLHF@IdnEnabled?$AA@ 1000cb24     wininet_dll:globals.obj
 0001:0000bb30       ??_C@_09IJGACEN@CacheMode?$AA@ 1000cb30     wininet_dll:globals.obj
 0001:0000bb3c       ??_C@_0BA@GGKGCLNM@EnableNegotiate?$AA@ 1000cb3c     wininet_dll:globals.obj
 0001:0000bb50       ??_C@_1GI@OHCIICHI@?$AAF?$AAE?$AAA?$AAT?$AAU?$AAR?$AAE?$AA_?$AAP?$AAE?$AAR?$AAM?$AAI?$AAT?$AA_?$AAC?$AAA?$AAC?$AAH?$AAE?$AA_?$AAF?$AAO?$AAR?$AA_?$AAA?$AAU?$AAT?$AAH?$AAE?$AAN?$AAT@ 1000cb50     wininet_dll:globals.obj
 0001:0000bbb8       ??_C@_1EG@HGDDAPGJ@?$AAF?$AAE?$AAA?$AAT?$AAU?$AAR?$AAE?$AA_?$AAU?$AAS?$AAE?$AA_?$AAC?$AAN?$AAA?$AAM?$AAE?$AA_?$AAF?$AAO?$AAR?$AA_?$AAS?$AAP?$AAN?$AA_?$AAK?$AAB?$AA9?$AA1?$AA1?$AA1@ 1000cbb8     wininet_dll:globals.obj
 0001:0000bc00       ??_C@_1GA@MJMGBPBB@?$AAF?$AAE?$AAA?$AAT?$AAU?$AAR?$AAE?$AA_?$AAD?$AAI?$AAS?$AAA?$AAB?$AAL?$AAE?$AA_?$AAU?$AAN?$AAI?$AAC?$AAO?$AAD?$AAE?$AA_?$AAH?$AAA?$AAN?$AAD?$AAL?$AAE?$AA_?$AAC@ 1000cc00     wininet_dll:globals.obj
 0001:0000bc60       ??_C@_1EA@HFBDKGFP@?$AAF?$AAE?$AAA?$AAT?$AAU?$AAR?$AAE?$AA_?$AAD?$AAI?$AAG?$AAE?$AAS?$AAT?$AA_?$AAN?$AAO?$AA_?$AAE?$AAX?$AAT?$AAR?$AAA?$AAS?$AA_?$AAI?$AAN?$AA_?$AAU?$AAR?$AAI?$AA?$AA@ 1000cc60     wininet_dll:globals.obj
 0001:0000bca0       ??_C@_1DM@LFAOLCFF@?$AAF?$AAE?$AAA?$AAT?$AAU?$AAR?$AAE?$AA_?$AAB?$AAU?$AAF?$AAF?$AAE?$AAR?$AAB?$AAR?$AAE?$AAA?$AAK?$AAI?$AAN?$AAG?$AA_?$AA8?$AA1?$AA8?$AA4?$AA0?$AA8?$AA?$AA@ 1000cca0     wininet_dll:globals.obj
 0001:0000bce0       ??_C@_1GM@COPFMELJ@?$AAF?$AAE?$AAA?$AAT?$AAU?$AAR?$AAE?$AA_?$AAS?$AAK?$AAI?$AAP?$AA_?$AAP?$AAO?$AAS?$AAT?$AA_?$AAR?$AAE?$AAT?$AAR?$AAY?$AA_?$AAO?$AAN?$AA_?$AAI?$AAN?$AAT?$AAE?$AAR@ 1000cce0     wininet_dll:globals.obj
 0001:0000bdf8       ??_C@_08GCMMBNHP@?$DMlocal?$DO?$DL?$AA@ 1000cdf8     wininet_dll:CmMisc.obj
 0001:0000be04       ??_7CmWrapper@@6B@         1000ce04     wininet_dll:CmMisc.obj
 0001:0000be14       ??_C@_03CNODDBJO@?3?$CFu?$AA@ 1000ce14     wininet_dll:CmMisc.obj
 0001:0000be18       ??_C@_1BE@ILFEAJIN@?$AAB?$AAy?$AAt?$AAe?$AAs?$AAR?$AAe?$AAc?$AAv?$AA?$AA@ 1000ce18     wininet_dll:wininetperf.obj
 0001:0000be2c       ??_C@_1BM@KGPKJACG@?$AAT?$AAi?$AAm?$AAe?$AAT?$AAo?$AAR?$AAe?$AAc?$AAe?$AAi?$AAv?$AAe?$AA?$AA@ 1000ce2c     wininet_dll:wininetperf.obj
 0001:0000be48       ??_C@_1BE@HCABLJOG@?$AAB?$AAy?$AAt?$AAe?$AAs?$AAS?$AAe?$AAn?$AAt?$AA?$AA@ 1000ce48     wininet_dll:wininetperf.obj
 0001:0000be5c       ??_C@_1BI@FFFHFCBJ@?$AAI?$AAn?$AAi?$AAt?$AAG?$AAl?$AAo?$AAb?$AAa?$AAl?$AAs?$AA?$AA@ 1000ce5c     wininet_dll:wininetperf.obj
 0001:0000be74       ??_C@_1CC@EOEOJHJA@?$AAC?$AAm?$AAn?$AAe?$AAt?$AAD?$AAl?$AAl?$AAL?$AAo?$AAa?$AAd?$AAT?$AAi?$AAm?$AAe?$AA?$AA@ 1000ce74     wininet_dll:wininetperf.obj
 0001:0000be98       ??_C@_1CK@HKGPGPHB@?$AAG?$AAl?$AAo?$AAb?$AAa?$AAl?$AAD?$AAa?$AAt?$AAa?$AAI?$AAn?$AAi?$AAt?$AAi?$AAa?$AAl?$AAi?$AAz?$AAe?$AA?$AA@ 1000ce98     wininet_dll:wininetperf.obj
 0001:0000bec4       ??_C@_1CE@IBGHMLAA@?$AAU?$AAp?$AAd?$AAa?$AAt?$AAe?$AAP?$AAr?$AAo?$AAx?$AAy?$AAI?$AAn?$AAf?$AAo?$AAC?$AAm?$AA?$AA@ 1000cec4     wininet_dll:wininetperf.obj
 0001:0000bee8       ??_C@_1CC@PDIFMGCG@?$AAO?$AAp?$AAe?$AAn?$AAC?$AAo?$AAn?$AAn?$AAC?$AAm?$AAH?$AAe?$AAl?$AAp?$AAe?$AAr?$AA?$AA@ 1000cee8     wininet_dll:wininetperf.obj
 0001:0000bf0c       ??_C@_1BM@IFBEEOHB@?$AAV?$AAa?$AAl?$AAi?$AAd?$AAa?$AAt?$AAe?$AAI?$AAn?$AAd?$AAe?$AAx?$AA?$AA@ 1000cf0c     wininet_dll:wininetperf.obj
 0001:0000bf28       ??_C@_1CA@KMBBDNCD@?$AAF?$AAl?$AAu?$AAs?$AAh?$AAV?$AAi?$AAe?$AAw?$AAO?$AAf?$AAF?$AAi?$AAl?$AAe?$AA?$AA@ 1000cf28     wininet_dll:wininetperf.obj
 0001:0000bf48       ??_C@_1BI@KCFIOFNI@?$AAR?$AAe?$AAt?$AAr?$AAi?$AAe?$AAv?$AAe?$AAU?$AAr?$AAl?$AA?$AA@ 1000cf48     wininet_dll:wininetperf.obj
 0001:0000bf60       ??_C@_1O@CLHGHKBB@?$AAA?$AAd?$AAd?$AAU?$AAr?$AAl?$AA?$AA@ 1000cf60     wininet_dll:wininetperf.obj
 0001:0000bf70       ??_C@_1EA@MIDGPHBI@?$AAR?$AAe?$AAc?$AAe?$AAi?$AAv?$AAe?$AAR?$AAe?$AAs?$AAp?$AAo?$AAn?$AAs?$AAe?$AA_?$AAP?$AAa?$AAr?$AAs?$AAe?$AAC?$AAh?$AAu?$AAn?$AAk?$AAI?$AAn?$AAp?$AAu?$AAt?$AA?$AA@ 1000cf70     wininet_dll:wininetperf.obj
 0001:0000bfb0       ??_C@_1EA@CEPCGKHF@?$AAR?$AAe?$AAc?$AAe?$AAi?$AAv?$AAe?$AAR?$AAe?$AAs?$AAp?$AAo?$AAn?$AAs?$AAe?$AA_?$AAU?$AAp?$AAd?$AAa?$AAt?$AAe?$AAR?$AAe?$AAs?$AAp?$AAo?$AAn?$AAs?$AAe?$AAH?$AA?$AA@ 1000cfb0     wininet_dll:wininetperf.obj
 0001:0000bff0       ??_C@_1DM@PMEPDEJC@?$AAR?$AAe?$AAc?$AAe?$AAi?$AAv?$AAe?$AAR?$AAe?$AAs?$AAp?$AAo?$AAn?$AAs?$AAe?$AA_?$AAS?$AAo?$AAc?$AAk?$AAe?$AAt?$AAR?$AAe?$AAc?$AAe?$AAi?$AAv?$AAe?$AA?$AA@ 1000cff0     wininet_dll:wininetperf.obj
 0001:0000c02c       ??_C@_1O@NAHGALKK@?$AAW?$AAo?$AAr?$AAk?$AAe?$AAr?$AA?$AA@ 1000d02c     wininet_dll:wininetperf.obj
 0001:0000c03c       ??_C@_1CM@NEGELAOA@?$AAU?$AAp?$AAd?$AAa?$AAt?$AAe?$AAR?$AAe?$AAs?$AAp?$AAo?$AAn?$AAs?$AAe?$AAH?$AAe?$AAa?$AAd?$AAe?$AAr?$AAs?$AA?$AA@ 1000d03c     wininet_dll:wininetperf.obj
 0001:0000c068       ??_C@_1CA@GFIMINIK@?$AAU?$AAp?$AAd?$AAa?$AAt?$AAe?$AAP?$AAr?$AAo?$AAx?$AAy?$AAI?$AAn?$AAf?$AAo?$AA?$AA@ 1000d068     wininet_dll:wininetperf.obj
 0001:0000c088       ??_C@_1CA@FOMKHFMH@?$AAS?$AAe?$AAn?$AAd?$AAR?$AAe?$AAq?$AAu?$AAe?$AAs?$AAt?$AA_?$AAF?$AAs?$AAm?$AA?$AA@ 1000d088     wininet_dll:wininetperf.obj
 0001:0000c0a8       ??_C@_1BI@HFEHEABF@?$AAR?$AAe?$AAs?$AAo?$AAl?$AAv?$AAe?$AAH?$AAo?$AAs?$AAt?$AA?$AA@ 1000d0a8     wininet_dll:wininetperf.obj
 0001:0000c0c0       ??_C@_1BM@LJLMDHEH@?$AAR?$AAe?$AAp?$AAl?$AAa?$AAc?$AAe?$AAH?$AAe?$AAa?$AAd?$AAe?$AAr?$AA?$AA@ 1000d0c0     wininet_dll:wininetperf.obj
 0001:0000c0dc       ??_C@_1DM@LKBNNKGJ@?$AAR?$AAe?$AAm?$AAo?$AAv?$AAe?$AAA?$AAl?$AAl?$AAR?$AAe?$AAq?$AAu?$AAe?$AAs?$AAt?$AAH?$AAe?$AAa?$AAd?$AAe?$AAr?$AAs?$AAB?$AAy?$AAN?$AAa?$AAm?$AAe?$AA?$AA@ 1000d0dc     wininet_dll:wininetperf.obj
 0001:0000c118       ??_C@_1CE@EPMCDIMB@?$AAR?$AAe?$AAl?$AAe?$AAa?$AAs?$AAe?$AAC?$AAo?$AAn?$AAn?$AAe?$AAc?$AAt?$AAi?$AAo?$AAn?$AA?$AA@ 1000d118     wininet_dll:wininetperf.obj
 0001:0000c13c       ??_C@_1CI@GACJKANN@?$AAR?$AAe?$AAc?$AAe?$AAi?$AAv?$AAe?$AAR?$AAe?$AAs?$AAp?$AAo?$AAn?$AAs?$AAe?$AA_?$AAF?$AAs?$AAm?$AA?$AA@ 1000d13c     wininet_dll:wininetperf.obj
 0001:0000c164       ??_C@_1CA@KJBJOEJL@?$AAQ?$AAu?$AAe?$AAr?$AAy?$AAS?$AAt?$AAa?$AAt?$AAu?$AAs?$AAT?$AAe?$AAx?$AAt?$AA?$AA@ 1000d164     wininet_dll:wininetperf.obj
 0001:0000c184       ??_C@_1CA@GBBKJANI@?$AAQ?$AAu?$AAe?$AAr?$AAy?$AAS?$AAt?$AAa?$AAt?$AAu?$AAs?$AAC?$AAo?$AAd?$AAe?$AA?$AA@ 1000d184     wininet_dll:wininetperf.obj
 0001:0000c1a4       ??_C@_1CK@EAIIGNFG@?$AAQ?$AAu?$AAe?$AAr?$AAy?$AAR?$AAe?$AAs?$AAp?$AAo?$AAn?$AAs?$AAe?$AAV?$AAe?$AAr?$AAs?$AAi?$AAo?$AAn?$AA?$AA@ 1000d1a4     wininet_dll:wininetperf.obj
 0001:0000c1d0       ??_C@_1CG@GGANMELA@?$AAQ?$AAu?$AAe?$AAr?$AAy?$AAR?$AAe?$AAq?$AAu?$AAe?$AAs?$AAt?$AAH?$AAe?$AAa?$AAd?$AAe?$AAr?$AA?$AA@ 1000d1d0     wininet_dll:wininetperf.obj
 0001:0000c1f8       ??_C@_1CA@NBLGFLDP@?$AAQ?$AAu?$AAe?$AAr?$AAy?$AAR?$AAa?$AAw?$AAH?$AAe?$AAa?$AAd?$AAe?$AAr?$AAs?$AA?$AA@ 1000d1f8     wininet_dll:wininetperf.obj
 0001:0000c218       ??_C@_1BM@MKEOJJ@?$AAM?$AAo?$AAd?$AAi?$AAf?$AAy?$AAR?$AAe?$AAq?$AAu?$AAe?$AAs?$AAt?$AA?$AA@ 1000d218     wininet_dll:wininetperf.obj
 0001:0000c234       ??_C@_1CG@EAEDACGK@?$AAM?$AAa?$AAk?$AAe?$AAC?$AAo?$AAn?$AAn?$AAe?$AAc?$AAt?$AAi?$AAo?$AAn?$AA_?$AAF?$AAs?$AAm?$AA?$AA@ 1000d234     wininet_dll:wininetperf.obj
 0001:0000c25c       ??_C@_1CI@GPFKEPLL@?$AAI?$AAn?$AAt?$AAe?$AAr?$AAn?$AAe?$AAt?$AAC?$AAl?$AAo?$AAs?$AAe?$AAH?$AAa?$AAn?$AAd?$AAl?$AAe?$AA?$AA@ 1000d25c     wininet_dll:wininetperf.obj
 0001:0000c284       ??_C@_1CI@LGGENJAP@?$AAH?$AAt?$AAt?$AAp?$AAW?$AAr?$AAa?$AAp?$AAS?$AAe?$AAn?$AAd?$AAR?$AAe?$AAq?$AAu?$AAe?$AAs?$AAt?$AA?$AA@ 1000d284     wininet_dll:wininetperf.obj
 0001:0000c2ac       ??_C@_1CM@DDLEIPGI@?$AAH?$AAt?$AAt?$AAp?$AAS?$AAe?$AAn?$AAd?$AAR?$AAe?$AAq?$AAu?$AAe?$AAs?$AAt?$AA_?$AAS?$AAt?$AAa?$AAr?$AAt?$AA?$AA@ 1000d2ac     wininet_dll:wininetperf.obj
 0001:0000c2d8       ??_C@_1CO@JDMIGLBN@?$AAH?$AAt?$AAt?$AAp?$AAS?$AAe?$AAn?$AAd?$AAR?$AAe?$AAq?$AAu?$AAe?$AAs?$AAt?$AA_?$AAF?$AAi?$AAn?$AAi?$AAs?$AAh?$AA?$AA@ 1000d2d8     wininet_dll:wininetperf.obj
 0001:0000c308       ??_C@_1BO@LIKGMOJE@?$AAG?$AAe?$AAt?$AAN?$AAe?$AAx?$AAt?$AAA?$AAd?$AAd?$AAr?$AAe?$AAs?$AAs?$AA?$AA@ 1000d308     wininet_dll:wininetperf.obj
 0001:0000c328       ??_C@_1BM@FMHPGNEM@?$AAG?$AAe?$AAt?$AAC?$AAo?$AAn?$AAn?$AAe?$AAc?$AAt?$AAi?$AAo?$AAn?$AA?$AA@ 1000d328     wininet_dll:wininetperf.obj
 0001:0000c344       ??_C@_1BG@BKNNPEEG@?$AAF?$AAi?$AAn?$AAd?$AAH?$AAe?$AAa?$AAd?$AAe?$AAr?$AA?$AA@ 1000d344     wininet_dll:wininetperf.obj
 0001:0000c35c       ??_C@_1BK@FEJPNCPB@?$AAF?$AAi?$AAn?$AAd?$AAF?$AAr?$AAe?$AAe?$AAS?$AAl?$AAo?$AAt?$AA?$AA@ 1000d35c     wininet_dll:wininetperf.obj
 0001:0000c378       ??_C@_1CK@KMGMDOHB@?$AAF?$AAH?$AAt?$AAt?$AAp?$AAB?$AAe?$AAg?$AAi?$AAn?$AAC?$AAa?$AAc?$AAh?$AAe?$AAW?$AAr?$AAi?$AAt?$AAe?$AA?$AA@ 1000d378     wininet_dll:wininetperf.obj
 0001:0000c3a4       ??_C@_1DE@DBPLMIEF@?$AAF?$AAA?$AAd?$AAd?$AAI?$AAf?$AAM?$AAo?$AAd?$AAi?$AAf?$AAi?$AAe?$AAd?$AAS?$AAi?$AAn?$AAc?$AAe?$AAH?$AAe?$AAa?$AAd?$AAe?$AAr?$AA?$AA@ 1000d3a4     wininet_dll:wininetperf.obj
 0001:0000c3d8       ??_C@_1CI@FIOOIFEH@?$AAC?$AAr?$AAe?$AAa?$AAt?$AAe?$AAR?$AAe?$AAq?$AAu?$AAe?$AAs?$AAt?$AAB?$AAu?$AAf?$AAf?$AAe?$AAr?$AA?$AA@ 1000d3d8     wininet_dll:wininetperf.obj
 0001:0000c400       ??_C@_1BM@JMCIMNCD@?$AAC?$AAo?$AAn?$AAn?$AAe?$AAc?$AAt?$AA_?$AAS?$AAt?$AAa?$AAr?$AAt?$AA?$AA@ 1000d400     wininet_dll:wininetperf.obj
 0001:0000c41c       ??_C@_1BO@BIJHHCPD@?$AAC?$AAo?$AAn?$AAn?$AAe?$AAc?$AAt?$AA_?$AAF?$AAi?$AAn?$AAi?$AAs?$AAh?$AA?$AA@ 1000d41c     wininet_dll:wininetperf.obj
 0001:0000c43c       ??_C@_1BM@BKAEINCJ@?$AAC?$AAo?$AAn?$AAn?$AAe?$AAc?$AAt?$AA_?$AAE?$AAr?$AAr?$AAo?$AAr?$AA?$AA@ 1000d43c     wininet_dll:wininetperf.obj
 0001:0000c458       ??_C@_1CC@GKOCOGAI@?$AAC?$AAo?$AAn?$AAn?$AAe?$AAc?$AAt?$AA_?$AAC?$AAo?$AAn?$AAt?$AAi?$AAn?$AAu?$AAe?$AA?$AA@ 1000d458     wininet_dll:wininetperf.obj
 0001:0000c47c       ??_C@_1CA@KILBBEK@?$AAA?$AAl?$AAl?$AAo?$AAc?$AAa?$AAt?$AAe?$AAH?$AAe?$AAa?$AAd?$AAe?$AAr?$AAs?$AA?$AA@ 1000d47c     wininet_dll:wininetperf.obj
 0001:0000c49c       ??_C@_1BG@BONCGEHF@?$AAA?$AAd?$AAd?$AAR?$AAe?$AAq?$AAu?$AAe?$AAs?$AAt?$AA?$AA@ 1000d49c     wininet_dll:wininetperf.obj
 0001:0000c4b4       ??_C@_1BE@JADMOEFK@?$AAA?$AAd?$AAd?$AAH?$AAe?$AAa?$AAd?$AAe?$AAr?$AA?$AA@ 1000d4b4     wininet_dll:wininetperf.obj
 0001:0000c4e8       ??_C@_1BO@GPADPFKA@?$AA?2?$AAm?$AAd?$AAd?$AAc?$AAe?$AAp?$AAe?$AAr?$AAf?$AA?4?$AAl?$AAo?$AAg?$AA?$AA@ 1000d4e8     wininet_dll:wininetperf.obj
 0001:0000c508       ??_C@_1BK@PONOKOPP@?$AAM?$AAD?$AAP?$AAG?$AA?2?$AAW?$AAi?$AAn?$AAi?$AAn?$AAe?$AAt?$AA?$AA@ 1000d508     wininet_dll:wininetperf.obj
 0001:0000c564       ??_C@_0BB@NKGKCKBI@?5?5?$CK?5?5?5?5src?5?$FL?$CFs?$FN?6?$AA@ 1000d564     wininet_dll:AddressEnumerator.obj
 0001:0000c578       ??_C@_0BB@NMBIMCGE@?5?5?$CK?5?9?$DO?5dst?5?$FL?$CFs?$FN?6?$AA@ 1000d578     wininet_dll:AddressEnumerator.obj
 0001:0000c58c       ??_C@_0CB@NEMJICPI@?$CD?5CmGet?$HLFirst?1Next?$HNIpAddr?5failed@ 1000d58c     wininet_dll:AddressEnumerator.obj
 0001:0000c5b0       ??_C@_0CC@LBCEEIGG@?$CD?5CmGetFirstIpAddr?5returned?5erro@ 1000d5b0     wininet_dll:AddressEnumerator.obj
 0001:0000c5d4       ??_C@_0CD@ODBKLCEA@Calling?5CmGetFirstIpAddr?5on?5?$FL?$CFs?$FN@ 1000d5d4     wininet_dll:AddressEnumerator.obj
 0001:0000c618       ??_C@_09KMFOEAAA@Extension?$AA@ 1000d618     wininet_dll:registry_dll.obj
 0001:0000c624       ??_C@_0BM@EKHFOFLG@MIME?2Database?2Content?5Type?2?$AA@ 1000d624     wininet_dll:registry_dll.obj
 0001:0000c640       ??_C@_0L@NPNLKGOJ@text?1plain?$AA@ 1000d640     wininet_dll:registry_dll.obj
 0001:0000c650       ??_C@_0EG@FBLGFDIB@SOFTWARE?2Microsoft?2Windows?2Curre@ 1000d650     wininet_dll:registry_dll.obj
 0001:0000c698       ??_C@_09IIEPOKHD@EmailName?$AA@ 1000d698     wininet_dll:registry_dll.obj
 0001:0000c6a4       ??_C@_0BK@FHPBECGG@MimeExclusionListForCache?$AA@ 1000d6a4     wininet_dll:registry_dll.obj
 0001:0000c6c0       ??_C@_0BM@COKJMJGD@HeaderExclusionListForCache?$AA@ 1000d6c0     wininet_dll:registry_dll.obj
 0001:0000c6dc       ??_C@_05OMDPILML@?$CG?$CD39?$DL?$AA@ 1000d6dc     wininet_dll:readhtml.obj
 0001:0000c6e4       ??_C@_06DDLNFFBN@?$CGquot?$DL?$AA@ 1000d6e4     wininet_dll:readhtml.obj
 0001:0000c6ec       ??_C@_05JKJFEODM@?$CGamp?$DL?$AA@ 1000d6ec     wininet_dll:readhtml.obj
 0001:0000c6f4       ??_C@_04LOOHDCEI@?$CGgt?$DL?$AA@ 1000d6f4     wininet_dll:readhtml.obj
 0001:0000c6fc       ??_C@_04GJOGLFEJ@?$CGlt?$DL?$AA@ 1000d6fc     wininet_dll:readhtml.obj
 0001:0000c74c       ??_C@_0BM@CIIKBMMF@?$CFs?5?$CFs?5?$DMA?5HREF?$DN?$CC?$CFs?$CC?$DO?$CFs?$DM?1A?$DO?$AN?6?$AA@ 1000d74c     wininet_dll:readhtml.obj
 0001:0000c768       ??_C@_0CD@OBGCGKEM@?$CFs?5?$CFs?5?$DMA?5HREF?$DN?$CC?$CFs?$CC?$DO?$DMB?$DO?$CFs?$DM?1B?$DO?$DM?1A?$DO@ 1000d768     wininet_dll:readhtml.obj
 0001:0000c78c       ??_C@_02DIKICOBM@?1?4?$AA@ 1000d78c     wininet_dll:readhtml.obj
 0001:0000c790       ??_C@_02CBLDBPFN@?1?1?$AA@ 1000d790     wininet_dll:readhtml.obj
 0001:0000c794       ??_C@_09GMLCLEDA@hh?8?3?8mmtt?$AA@ 1000d794     wininet_dll:readhtml.obj
 0001:0000c7a0       ??_C@_0BA@KGCKOIDJ@MM?8?1?8dd?8?1?8yyyy?5?$AA@ 1000d7a0     wininet_dll:readhtml.obj
 0001:0000c7b0       ??_C@_0BD@PEAJOCPN@?$DM?1BODY?$DO?$AN?6?$DM?1HTML?$DO?$AN?6?$AA@ 1000d7b0     wininet_dll:readhtml.obj
 0001:0000c7c4       ??_C@_0P@HODGBIJP@?$DM?1PRE?$DO?$AN?6?$DMHR?$DO?$AN?6?$AA@ 1000d7c4     wininet_dll:readhtml.obj
 0001:0000c7d4       ??_C@_0O@EAEEJBML@?$DMHR?$DO?$AN?6?$DMPRE?$DO?$AN?6?$AA@ 1000d7d4     wininet_dll:readhtml.obj
 0001:0000c7e4       ??_C@_0BA@KFINDADB@?$DMHR?$DO?$AN?6?$CFs?$DMPRE?$DO?$AN?6?$AA@ 1000d7e4     wininet_dll:readhtml.obj
 0001:0000c7f4       ??_C@_0O@HFOEJGH@?$DM?1PRE?$DO?$DM?1H4?$DO?$AN?6?$AA@ 1000d7f4     wininet_dll:readhtml.obj
 0001:0000c804       ??_C@_0BC@JHEEFKAC@?$DMHR?$DO?$AN?6?$DMH4?$DO?$DMPRE?$DO?$AN?6?$AA@ 1000d804     wininet_dll:readhtml.obj
 0001:0000c818       ??_C@_04EODALDE@230?9?$AA@ 1000d818     wininet_dll:readhtml.obj
 0001:0000c820       ??_C@_0IL@IPNKKFPB@?$DM?$CBDOCTYPE?5HTML?5PUBLIC?5?$CC?9?1?1IETF?1?1@ 1000d820     wininet_dll:readhtml.obj
 0001:0000c8ac       ??_C@_06ODENPNKJ@?$DLtype?$DN?$AA@ 1000d8ac     wininet_dll:readhtml.obj
 0001:0000c8d4       ??_C@_09EKBJGKCI@2?45?429?415?$AA@ 1000d8d4     wininet_dll:cliauth.obj
 0001:0000c8e0       ??_C@_0BC@FLKNCICB@1?43?46?41?45?45?47?43?42?$AA@ 1000d8e0     wininet_dll:cliauth.obj
 0001:0000c924       ??_C@_1BC@NMCMBANA@?$AAL?$AAo?$AAo?$AAp?$AAb?$AAa?$AAc?$AAk?$AA?$AA@ 1000d924     wininet_dll:CandidateEnumerator.obj
 0001:0000c938       ??_C@_0BL@CFPPHIHI@CmAcquireConnection?5failed?$AA@ 1000d938     wininet_dll:CandidateEnumerator.obj
 0001:0000c954       ??_C@_0CM@HIPDLDDA@CmGet?$HLFirst?1Next?$HNCandidateConnec@ 1000d954     wininet_dll:CandidateEnumerator.obj
 0001:0000ca18       ??_C@_0BA@KFFJEDA@NETWORK?5SERVICE?$AA@ 1000da18     wininet_dll:proxreg.obj
 0001:0000ca28       ??_C@_0O@KLPIMANK@LOCAL?5SERVICE?$AA@ 1000da28     wininet_dll:proxreg.obj
 0001:0000ca38       ??_C@_06FDHFNJBJ@SYSTEM?$AA@ 1000da38     wininet_dll:proxreg.obj
 0001:0000ca40       ??_C@_0BF@LDBOPDPB@ProxySettingsPerUser?$AA@ 1000da40     wininet_dll:proxreg.obj
 0001:0000ca58       ??_C@_0BK@KBOJFADN@DefaultConnectionSettings?$AA@ 1000da58     wininet_dll:proxreg.obj
 0001:0000ca74       ??_C@_0O@KBIEAGIG@ProxyOverride?$AA@ 1000da74     wininet_dll:proxreg.obj
 0001:0000ca84       ??_C@_0M@BCMAAPLG@ProxyServer?$AA@ 1000da84     wininet_dll:proxreg.obj
 0001:0000ca90       ??_C@_0DM@LNCOECGC@Software?2Microsoft?2windows?2Curre@ 1000da90     wininet_dll:proxreg.obj
 0001:0000cb10       g_CodeOrder                1000db10     gzip:api.obj
 0001:0000cb24       g_ExtraLengthBits          1000db24     gzip:api.obj
 0001:0000cb44       g_ExtraDistanceBits        1000db44     gzip:api.obj
 0001:0000cb68       g_LengthBase               1000db68     gzip:api.obj
 0001:0000cbe8       g_DistanceBasePosition     1000dbe8     gzip:api.obj
 0001:0000cc68       g_BitMask                  1000dc68     gzip:api.obj
 0001:0000cca8       g_FastEncoderLiteralTreeLength 1000dca8     gzip:api.obj
 0001:0000cdc8       g_FastEncoderLiteralTreeCode 1000ddc8     gzip:api.obj
 0001:0000d004       g_FastEncoderDistanceTreeLength 1000e004     gzip:api.obj
 0001:0000d028       g_FastEncoderDistanceTreeCode 1000e028     gzip:api.obj
 0001:0000d068       g_FastEncoderLiteralCodeInfo 1000e068     gzip:api.obj
 0001:0000d870       g_FastEncoderDistanceCodeInfo 1000e870     gzip:api.obj
 0001:0000d8f0       g_CrcTable                 1000e8f0     gzip:api.obj
 0001:0000dda0       ??_C@_1CG@LFJEDJGI@?$AAS?$AAe?$AAc?$AAu?$AAr?$AAi?$AAt?$AAy?$AA_?$AAH?$AAK?$AAL?$AAM?$AA_?$AAo?$AAn?$AAl?$AAy?$AA?$AA@ 1000eda0     ieshare:features.obj
 0001:0000ddc8       ??_C@_1IK@KNDDDCAJ@?$AAS?$AAo?$AAf?$AAt?$AAw?$AAa?$AAr?$AAe?$AA?2?$AAP?$AAo?$AAl?$AAi?$AAc?$AAi?$AAe?$AAs?$AA?2?$AAM?$AAi?$AAc?$AAr?$AAo?$AAs?$AAo?$AAf?$AAt?$AA?2?$AAW?$AAi?$AAn?$AAd@ 1000edc8     ieshare:features.obj
 0001:0000de54       ??_C@_13BBDEGPLJ@?$AA?$CK?$AA?$AA@ 1000ee54     ieshare:features.obj
 0001:0000df54       ??_C@_1BK@POPFNLAC@?$AAi?$AAe?$AAs?$AAa?$AAm?$AAp?$AAl?$AAe?$AA?4?$AAe?$AAx?$AAe?$AA?$AA@ 1000ef54     ieshare:features.obj
 0001:0000df70       ??_C@_1BK@NBNJEGII@?$AAi?$AAe?$AAx?$AAp?$AAl?$AAo?$AAr?$AAe?$AA?4?$AAe?$AAx?$AAe?$AA?$AA@ 1000ef70     ieshare:features.obj
 0001:0000df8c       ??_C@_0BD@DDNFCPAM@Security_HKLM_Only?$AA@ 1000ef8c     ieshare:registry.obj
 0001:0000dfa0       ??_C@_0DD@ILFEKOOH@Software?2Policies?2Microsoft?2Inte@ 1000efa0     ieshare:registry.obj
 0001:0000dfd8       ??_C@_1GG@KAMEKOCM@?$AAS?$AAo?$AAf?$AAt?$AAw?$AAa?$AAr?$AAe?$AA?2?$AAP?$AAo?$AAl?$AAi?$AAc?$AAi?$AAe?$AAs?$AA?2?$AAM?$AAi?$AAc?$AAr?$AAo?$AAs?$AAo?$AAf?$AAt?$AA?2?$AAI?$AAn?$AAt?$AAe@ 1000efd8     ieshare:registry.obj
 0001:0000e040       ??_C@_1JK@LIADLGPF@?$AAS?$AAo?$AAf?$AAt?$AAw?$AAa?$AAr?$AAe?$AA?2?$AAP?$AAo?$AAl?$AAi?$AAc?$AAi?$AAe?$AAs?$AA?2?$AAM?$AAi?$AAc?$AAr?$AAo?$AAs?$AAo?$AAf?$AAt?$AA?2?$AAW?$AAi?$AAn?$AAd@ 1000f040     ieshare:ierapi.obj
 0001:0000e0e0       ??_C@_1JG@GEAMAAPO@?$AAS?$AAo?$AAf?$AAt?$AAw?$AAa?$AAr?$AAe?$AA?2?$AAP?$AAo?$AAl?$AAi?$AAc?$AAi?$AAe?$AAs?$AA?2?$AAM?$AAi?$AAc?$AAr?$AAo?$AAs?$AAo?$AAf?$AAt?$AA?2?$AAW?$AAi?$AAn?$AAd@ 1000f0e0     ieshare:ierapi.obj
 0001:0000e178       ??_C@_1FM@NADGPKAP@?$AAS?$AAo?$AAf?$AAt?$AAw?$AAa?$AAr?$AAe?$AA?2?$AAP?$AAo?$AAl?$AAi?$AAc?$AAi?$AAe?$AAs?$AA?2?$AAM?$AAi?$AAc?$AAr?$AAo?$AAs?$AAo?$AAf?$AAt?$AA?2?$AAI?$AAn?$AAt?$AAe@ 1000f178     ieshare:ierapi.obj
 0001:0000e1d8       ??_C@_1FG@CJPELFHC@?$AAM?$AAi?$AAc?$AAr?$AAo?$AAs?$AAo?$AAf?$AAt?$AA?2?$AAI?$AAn?$AAt?$AAe?$AAr?$AAn?$AAe?$AAt?$AA?5?$AAE?$AAx?$AAp?$AAl?$AAo?$AAr?$AAe?$AAr?$AA?2?$AAP?$AAh?$AAi?$AAs@ 1000f1d8     ieshare:ierapi.obj
 0001:0000e230       ??_C@_1CO@MDKDFPEL@?$AAD?$AAi?$AAs?$AAa?$AAb?$AAl?$AAe?$AAT?$AAo?$AAo?$AAl?$AAb?$AAa?$AAr?$AAU?$AAp?$AAg?$AAr?$AAa?$AAd?$AAe?$AAr?$AA?$AA@ 1000f230     ieshare:ierapi.obj
 0001:0000e260       ??_C@_1DC@GKPLDAPA@?$AAD?$AAi?$AAs?$AAa?$AAb?$AAl?$AAe?$AAF?$AAi?$AAr?$AAs?$AAt?$AAR?$AAu?$AAn?$AAC?$AAu?$AAs?$AAt?$AAo?$AAm?$AAi?$AAz?$AAe?$AA?$AA@ 1000f260     ieshare:ierapi.obj
 0001:0000e294       ??_C@_11LOCGONAA@?$AA?$AA@ 1000f294     ieshare:ierapi.obj
 0001:0000e298       ??_C@_1FM@NOEMACFM@?$AAM?$AAi?$AAc?$AAr?$AAo?$AAs?$AAo?$AAf?$AAt?$AA?2?$AAI?$AAn?$AAt?$AAe?$AAr?$AAn?$AAe?$AAt?$AA?5?$AAE?$AAx?$AAp?$AAl?$AAo?$AAr?$AAe?$AAr?$AA?2?$AAN?$AAe?$AAw?$AA?5@ 1000f298     ieshare:ierapi.obj
 0001:0000e2f4       ??_C@_1CK@ELMOGNPO@?$AAP?$AAr?$AAo?$AAx?$AAy?$AAS?$AAe?$AAt?$AAt?$AAi?$AAn?$AAg?$AAs?$AAP?$AAe?$AAr?$AAU?$AAs?$AAe?$AAr?$AA?$AA@ 1000f2f4     ieshare:ierapi.obj
 0001:0000e320       ??_C@_1BG@HFBHLGCG@?$AAI?$AAE?$AAF?$AAo?$AAn?$AAt?$AAS?$AAi?$AAz?$AAe?$AA?$AA@ 1000f320     ieshare:ierapi.obj
 0001:0000e338       ??_C@_1GE@NILDPFP@?$AAM?$AAi?$AAc?$AAr?$AAo?$AAs?$AAo?$AAf?$AAt?$AA?2?$AAI?$AAn?$AAt?$AAe?$AAr?$AAn?$AAe?$AAt?$AA?5?$AAE?$AAx?$AAp?$AAl?$AAo?$AAr?$AAe?$AAr?$AA?2?$AAI?$AAn?$AAt?$AAe@ 1000f338     ieshare:ierapi.obj
 0001:0000e3a0       ??_C@_1GM@POKGHFGJ@?$AAM?$AAi?$AAc?$AAr?$AAo?$AAs?$AAo?$AAf?$AAt?$AA?2?$AAI?$AAn?$AAt?$AAe?$AAr?$AAn?$AAe?$AAt?$AA?5?$AAE?$AAx?$AAp?$AAl?$AAo?$AAr?$AAe?$AAr?$AA?2?$AAL?$AAo?$AAw?$AA?5@ 1000f3a0     ieshare:ierapi.obj
 0001:0000e410       ??_C@_1GA@DLMGGKOE@?$AAM?$AAi?$AAc?$AAr?$AAo?$AAs?$AAo?$AAf?$AAt?$AA?2?$AAI?$AAn?$AAt?$AAe?$AAr?$AAn?$AAe?$AAt?$AA?5?$AAE?$AAx?$AAp?$AAl?$AAo?$AAr?$AAe?$AAr?$AA?2?$AAL?$AAo?$AAw?$AA?5@ 1000f410     ieshare:ierapi.obj
 0001:0000e470       ??_C@_1GO@CNDLDCGB@?$AAM?$AAi?$AAc?$AAr?$AAo?$AAs?$AAo?$AAf?$AAt?$AA?2?$AAI?$AAn?$AAt?$AAe?$AAr?$AAn?$AAe?$AAt?$AA?5?$AAE?$AAx?$AAp?$AAl?$AAo?$AAr?$AAe?$AAr?$AA?2?$AAL?$AAo?$AAw?$AA?5@ 1000f470     ieshare:ierapi.obj
 0001:0000e4e0       ??_C@_1GO@GIHHCNIH@?$AAM?$AAi?$AAc?$AAr?$AAo?$AAs?$AAo?$AAf?$AAt?$AA?2?$AAI?$AAn?$AAt?$AAe?$AAr?$AAn?$AAe?$AAt?$AA?5?$AAE?$AAx?$AAp?$AAl?$AAo?$AAr?$AAe?$AAr?$AA?2?$AAL?$AAo?$AAw?$AA?5@ 1000f4e0     ieshare:ierapi.obj
 0001:0000e550       ??_C@_1BK@CAHMBLAA@?$AAN?$AAo?$AAC?$AAo?$AAm?$AAm?$AAa?$AAn?$AAd?$AAB?$AAa?$AAr?$AA?$AA@ 1000f550     ieshare:ierapi.obj
 0001:0000e56c       ??_C@_1BC@CHELLOFH@?$AAN?$AAo?$AAN?$AAa?$AAv?$AAB?$AAa?$AAr?$AA?$AA@ 1000f56c     ieshare:ierapi.obj
 0001:0000e580       ??_C@_1GE@DLDFJPFM@?$AAM?$AAi?$AAc?$AAr?$AAo?$AAs?$AAo?$AAf?$AAt?$AA?2?$AAI?$AAn?$AAt?$AAe?$AAr?$AAn?$AAe?$AAt?$AA?5?$AAE?$AAx?$AAp?$AAl?$AAo?$AAr?$AAe?$AAr?$AA?2?$AAT?$AAo?$AAo?$AAl@ 1000f580     ieshare:ierapi.obj
 0001:0000e5e4       ??_C@_19GFDACHI@?$AAI?$AAn?$AAf?$AAo?$AA?$AA@ 1000f5e4     ieshare:ierapi.obj
 0001:0000e5f0       ??_C@_1M@OAJFFPML@?$AAF?$AAl?$AAa?$AAg?$AAs?$AA?$AA@ 1000f5f0     ieshare:ierapi.obj
 0001:0000e600       ??_C@_1HE@KGKKLABG@?$AAM?$AAi?$AAc?$AAr?$AAo?$AAs?$AAo?$AAf?$AAt?$AA?2?$AAI?$AAn?$AAt?$AAe?$AAr?$AAn?$AAe?$AAt?$AA?5?$AAE?$AAx?$AAp?$AAl?$AAo?$AAr?$AAe?$AAr?$AA?2?$AAL?$AAo?$AAw?$AA?5@ 1000f600     ieshare:ierapi.obj
 0001:0000e674       ??_C@_1DA@LDHCBDBC@?$AAD?$AAi?$AAs?$AAa?$AAb?$AAl?$AAe?$AAP?$AAo?$AAp?$AAu?$AAp?$AAF?$AAi?$AAl?$AAt?$AAe?$AAr?$AAL?$AAe?$AAv?$AAe?$AAl?$AA?$AA@ 1000f674     ieshare:ierapi.obj
 0001:0000e6a4       ??_C@_1DG@DOALADBK@?$AAR?$AAe?$AAs?$AAt?$AAr?$AAi?$AAc?$AAt?$AAP?$AAo?$AAp?$AAu?$AAp?$AAE?$AAx?$AAc?$AAe?$AAp?$AAt?$AAi?$AAo?$AAn?$AAL?$AAi?$AAs?$AAt?$AA?$AA@ 1000f6a4     ieshare:ierapi.obj
 0001:0000e6e0       ??_C@_1FC@DDMODEDP@?$AAM?$AAi?$AAc?$AAr?$AAo?$AAs?$AAo?$AAf?$AAt?$AA?2?$AAI?$AAn?$AAt?$AAe?$AAr?$AAn?$AAe?$AAt?$AA?5?$AAE?$AAx?$AAp?$AAl?$AAo?$AAr?$AAe?$AAr?$AA?2?$AAR?$AAe?$AAs?$AAt@ 1000f6e0     ieshare:ierapi.obj
 0001:0000e734       ??_C@_1BI@KEKGEAJC@?$AAA?$AAd?$AAv?$AAa?$AAn?$AAc?$AAe?$AAd?$AAT?$AAa?$AAb?$AA?$AA@ 1000f734     ieshare:ierapi.obj
 0001:0000e74c       ??_C@_1BI@PEPNHFIJ@?$AAP?$AAr?$AAo?$AAg?$AAr?$AAa?$AAm?$AAs?$AAT?$AAa?$AAb?$AA?$AA@ 1000f74c     ieshare:ierapi.obj
 0001:0000e764       ??_C@_1BO@EAIPDPOD@?$AAC?$AAo?$AAn?$AAn?$AAe?$AAc?$AAt?$AAi?$AAo?$AAn?$AAs?$AAT?$AAa?$AAb?$AA?$AA@ 1000f764     ieshare:ierapi.obj
 0001:0000e784       ??_C@_1BG@LHJOAABI@?$AAC?$AAo?$AAn?$AAt?$AAe?$AAn?$AAt?$AAT?$AAa?$AAb?$AA?$AA@ 1000f784     ieshare:ierapi.obj
 0001:0000e79c       ??_C@_1BG@GFPFGAND@?$AAP?$AAr?$AAi?$AAv?$AAa?$AAc?$AAy?$AAT?$AAa?$AAb?$AA?$AA@ 1000f79c     ieshare:ierapi.obj
 0001:0000e7b4       ??_C@_1BI@CNEGPLEC@?$AAS?$AAe?$AAc?$AAu?$AAr?$AAi?$AAt?$AAy?$AAT?$AAa?$AAb?$AA?$AA@ 1000f7b4     ieshare:ierapi.obj
 0001:0000e7cc       ??_C@_1BG@LBPHFEOI@?$AAG?$AAe?$AAn?$AAe?$AAr?$AAa?$AAl?$AAT?$AAa?$AAb?$AA?$AA@ 1000f7cc     ieshare:ierapi.obj
 0001:0000e7e4       ??_C@_1BM@EEPAMGNI@?$AAU?$AAN?$AAC?$AAA?$AAs?$AAI?$AAn?$AAt?$AAr?$AAa?$AAn?$AAe?$AAt?$AA?$AA@ 1000f7e4     ieshare:ierapi.obj
 0001:0000e800       ??_C@_1BI@HBNFLGE@?$AAP?$AAr?$AAo?$AAx?$AAy?$AAB?$AAy?$AAP?$AAa?$AAs?$AAs?$AA?$AA@ 1000f800     ieshare:ierapi.obj
 0001:0000e818       ??_C@_1BK@DEIEFAME@?$AAI?$AAn?$AAt?$AAr?$AAa?$AAn?$AAe?$AAt?$AAN?$AAa?$AAm?$AAe?$AA?$AA@ 1000f818     ieshare:ierapi.obj
 0001:0000e834       ??_C@_1BG@POODIJDM@?$AAA?$AAu?$AAt?$AAo?$AAD?$AAe?$AAt?$AAe?$AAc?$AAt?$AA?$AA@ 1000f834     ieshare:ierapi.obj
 0001:0000e850       ??_C@_1HG@BEMFKIOF@?$AAM?$AAi?$AAc?$AAr?$AAo?$AAs?$AAo?$AAf?$AAt?$AA?2?$AAW?$AAi?$AAn?$AAd?$AAo?$AAw?$AAs?$AA?2?$AAC?$AAu?$AAr?$AAr?$AAe?$AAn?$AAt?$AAV?$AAe?$AAr?$AAs?$AAi?$AAo?$AAn@ 1000f850     ieshare:ierapi.obj
 0001:0000e8c8       ??_C@_1CC@KJLJLGAP@?$AAE?$AAn?$AAa?$AAb?$AAl?$AAe?$AAS?$AAe?$AAa?$AAr?$AAc?$AAh?$AAP?$AAa?$AAn?$AAe?$AA?$AA@ 1000f8c8     ieshare:ierapi.obj
 0001:0000e8ec       ??_C@_1CO@MKHACDB@?$AAD?$AAi?$AAs?$AAa?$AAb?$AAl?$AAe?$AAD?$AAe?$AAl?$AAe?$AAt?$AAe?$AAP?$AAa?$AAs?$AAs?$AAw?$AAo?$AAr?$AAd?$AAs?$AA?$AA@ 1000f8ec     ieshare:ierapi.obj
 0001:0000e91c       ??_C@_1CG@FCMKGHJG@?$AAD?$AAi?$AAs?$AAa?$AAb?$AAl?$AAe?$AAD?$AAe?$AAl?$AAe?$AAt?$AAe?$AAF?$AAo?$AAr?$AAm?$AAs?$AA?$AA@ 1000f91c     ieshare:ierapi.obj
 0001:0000e944       ??_C@_1BC@PFDDLKEP@?$AAS?$AAe?$AAt?$AAt?$AAi?$AAn?$AAg?$AAs?$AA?$AA@ 1000f944     ieshare:ierapi.obj
 0001:0000e958       ??_C@_1BA@JJMCCKFL@?$AAH?$AAi?$AAs?$AAt?$AAo?$AAr?$AAy?$AA?$AA@ 1000f958     ieshare:ierapi.obj
 0001:0000e968       ??_C@_1BI@PPEELMEM@?$AAD?$AAi?$AAs?$AAa?$AAb?$AAl?$AAe?$AAR?$AAI?$AAE?$AAD?$AA?$AA@ 1000f968     ieshare:ierapi.obj
 0001:0000e980       ??_C@_1BA@LIACFDLB@?$AAV?$AAe?$AAr?$AAs?$AAi?$AAo?$AAn?$AA?$AA@ 1000f980     ieshare:ierapi.obj
 0001:0000e990       ??_C@_1HM@PNMNDJNA@?$AAM?$AAi?$AAc?$AAr?$AAo?$AAs?$AAo?$AAf?$AAt?$AA?2?$AAW?$AAi?$AAn?$AAd?$AAo?$AAw?$AAs?$AA?2?$AAC?$AAu?$AAr?$AAr?$AAe?$AAn?$AAt?$AAV?$AAe?$AAr?$AAs?$AAi?$AAo?$AAn@ 1000f990     ieshare:ierapi.obj
 0001:0000ea0c       ??_C@_1DG@PMJLLJAN@?$AAD?$AAi?$AAs?$AAa?$AAb?$AAl?$AAe?$AAF?$AAi?$AAx?$AAS?$AAe?$AAc?$AAu?$AAr?$AAi?$AAt?$AAy?$AAS?$AAe?$AAt?$AAt?$AAi?$AAn?$AAg?$AAs?$AA?$AA@ 1000fa0c     ieshare:ierapi.obj
 0001:0000ea44       ??_C@_1DK@DICFICII@?$AAD?$AAi?$AAs?$AAa?$AAb?$AAl?$AAe?$AAS?$AAe?$AAc?$AAu?$AAr?$AAi?$AAt?$AAy?$AAS?$AAe?$AAt?$AAt?$AAi?$AAn?$AAg?$AAs?$AAC?$AAh?$AAe?$AAc?$AAk?$AA?$AA@ 1000fa44     ieshare:ierapi.obj
 0001:0000ea80       ??_C@_1EK@FNECMJKN@?$AAM?$AAi?$AAc?$AAr?$AAo?$AAs?$AAo?$AAf?$AAt?$AA?2?$AAI?$AAn?$AAt?$AAe?$AAr?$AAn?$AAe?$AAt?$AA?5?$AAE?$AAx?$AAp?$AAl?$AAo?$AAr?$AAe?$AAr?$AA?2?$AAS?$AAe?$AAc?$AAu@ 1000fa80     ieshare:ierapi.obj
 0001:0000eacc       ??_C@_1M@LCGAOEJE@?$AAP?$AAr?$AAo?$AAx?$AAy?$AA?$AA@ 1000facc     ieshare:ierapi.obj
 0001:0000ead8       ??_C@_1BG@CMCNAGEI@?$AAA?$AAu?$AAt?$AAo?$AAC?$AAo?$AAn?$AAf?$AAi?$AAg?$AA?$AA@ 1000fad8     ieshare:ierapi.obj
 0001:0000eaf0       ??_C@_1CG@EDKJHAJM@?$AAC?$AAo?$AAn?$AAn?$AAw?$AAi?$AAz?$AA?5?$AAA?$AAd?$AAm?$AAi?$AAn?$AA?5?$AAL?$AAo?$AAc?$AAk?$AA?$AA@ 1000faf0     ieshare:ierapi.obj
 0001:0000eb18       ??_C@_1CI@JBBBDLJG@?$AAC?$AAo?$AAn?$AAn?$AAe?$AAc?$AAt?$AAi?$AAo?$AAn?$AA?5?$AAS?$AAe?$AAt?$AAt?$AAi?$AAn?$AAg?$AAs?$AA?$AA@ 1000fb18     ieshare:ierapi.obj
 0001:0000eb40       ??_C@_1CM@OAJMHFBD@?$AAD?$AAi?$AAs?$AAp?$AAl?$AAa?$AAy?$AA?5?$AAI?$AAn?$AAl?$AAi?$AAn?$AAe?$AA?5?$AAI?$AAm?$AAa?$AAg?$AAe?$AAs?$AA?$AA@ 1000fb40     ieshare:ierapi.obj
 0001:0000eb6c       ??_C@_1CG@BFFIKDKI@?$AAC?$AAo?$AAd?$AAe?$AAB?$AAa?$AAs?$AAe?$AAS?$AAe?$AAa?$AAr?$AAc?$AAh?$AAP?$AAa?$AAt?$AAh?$AA?$AA@ 1000fb6c     ieshare:ierapi.obj
 0001:0000eb94       ??_C@_1CK@LHADJCHG@?$AAF?$AAo?$AAr?$AAc?$AAe?$AAC?$AAo?$AAd?$AAe?$AAD?$AAo?$AAw?$AAn?$AAl?$AAo?$AAa?$AAd?$AAL?$AAo?$AAg?$AA?$AA@ 1000fb94     ieshare:ierapi.obj
 0001:0000ebc0       ??_C@_1BG@FAKKIFCJ@?$AAA?$AAu?$AAt?$AAo?$AAS?$AAe?$AAa?$AAr?$AAc?$AAh?$AA?$AA@ 1000fbc0     ieshare:ierapi.obj
 0001:0000ebd8       ??_C@_1CE@OBJBIGG@?$AAA?$AAp?$AAp?$AAe?$AAn?$AAd?$AA?5?$AAC?$AAo?$AAm?$AAp?$AAl?$AAe?$AAt?$AAi?$AAo?$AAn?$AA?$AA@ 1000fbd8     ieshare:ierapi.obj
 0001:0000ebfc       ??_C@_1CC@JNHACJEI@?$AAU?$AAs?$AAe?$AA?5?$AAA?$AAu?$AAt?$AAo?$AAC?$AAo?$AAm?$AAp?$AAl?$AAe?$AAt?$AAe?$AA?$AA@ 1000fbfc     ieshare:ierapi.obj
 0001:0000ec20       ??_C@_1CO@BOGIBMDK@?$AAU?$AAs?$AAe?$AA?5?$AAA?$AAn?$AAc?$AAh?$AAo?$AAr?$AA?5?$AAH?$AAo?$AAv?$AAe?$AAr?$AA?5?$AAC?$AAo?$AAl?$AAo?$AAr?$AA?$AA@ 1000fc20     ieshare:ierapi.obj
 0001:0000ec50       ??_C@_1CG@BLCBKINC@?$AAA?$AAn?$AAc?$AAh?$AAo?$AAr?$AA?5?$AAC?$AAo?$AAl?$AAo?$AAr?$AA?5?$AAH?$AAo?$AAv?$AAe?$AAr?$AA?$AA@ 1000fc50     ieshare:ierapi.obj
 0001:0000ec78       ??_C@_1BK@FMEPAILI@?$AAA?$AAn?$AAc?$AAh?$AAo?$AAr?$AA?5?$AAC?$AAo?$AAl?$AAo?$AAr?$AA?$AA@ 1000fc78     ieshare:ierapi.obj
 0001:0000ec94       ??_C@_1CK@MLCGECOC@?$AAA?$AAn?$AAc?$AAh?$AAo?$AAr?$AA?5?$AAC?$AAo?$AAl?$AAo?$AAr?$AA?5?$AAV?$AAi?$AAs?$AAi?$AAt?$AAe?$AAd?$AA?$AA@ 1000fc94     ieshare:ierapi.obj
 0001:0000ecc0       ??_C@_1CC@KHPAJECJ@?$AAB?$AAa?$AAc?$AAk?$AAg?$AAr?$AAo?$AAu?$AAn?$AAd?$AA?5?$AAC?$AAo?$AAl?$AAo?$AAr?$AA?$AA@ 1000fcc0     ieshare:ierapi.obj
 0001:0000ece4       ??_C@_1BG@KMILHDAI@?$AAT?$AAe?$AAx?$AAt?$AA?5?$AAC?$AAo?$AAl?$AAo?$AAr?$AA?$AA@ 1000fce4     ieshare:ierapi.obj
 0001:0000ed00       ??_C@_1EK@PKOMPADJ@?$AAM?$AAi?$AAc?$AAr?$AAo?$AAs?$AAo?$AAf?$AAt?$AA?2?$AAI?$AAn?$AAt?$AAe?$AAr?$AAn?$AAe?$AAt?$AA?5?$AAE?$AAx?$AAp?$AAl?$AAo?$AAr?$AAe?$AAr?$AA?2?$AAS?$AAe?$AAt?$AAt@ 1000fd00     ieshare:ierapi.obj
 0001:0000ed4c       ??_C@_1CE@FGNMFKCO@?$AAU?$AAs?$AAe?$AA_?$AAD?$AAl?$AAg?$AAB?$AAo?$AAx?$AA_?$AAC?$AAo?$AAl?$AAo?$AAr?$AAs?$AA?$AA@ 1000fd4c     ieshare:ierapi.obj
 0001:0000ed70       ??_C@_1EG@EPDPDKFG@?$AAE?$AAr?$AAr?$AAo?$AAr?$AA?5?$AAD?$AAl?$AAg?$AA?5?$AAD?$AAi?$AAs?$AAp?$AAl?$AAa?$AAy?$AAe?$AAd?$AA?5?$AAO?$AAn?$AA?5?$AAE?$AAv?$AAe?$AAr?$AAy?$AA?5?$AAE?$AAr?$AAr@ 1000fd70     ieshare:ierapi.obj
 0001:0000edb8       ??_C@_1CK@GFKKNFLD@?$AAF?$AAr?$AAi?$AAe?$AAn?$AAd?$AAl?$AAy?$AA?5?$AAh?$AAt?$AAt?$AAp?$AA?5?$AAe?$AAr?$AAr?$AAo?$AAr?$AAs?$AA?$AA@ 1000fdb8     ieshare:ierapi.obj
 0001:0000ede4       ??_C@_1BG@DMKHIFCL@?$AAD?$AAi?$AAs?$AAa?$AAb?$AAl?$AAe?$AAI?$AAC?$AAW?$AA?$AA@ 1000fde4     ieshare:ierapi.obj
 0001:0000ee00       ??_C@_1EK@JLPLMFMD@?$AAM?$AAi?$AAc?$AAr?$AAo?$AAs?$AAo?$AAf?$AAt?$AA?2?$AAI?$AAn?$AAt?$AAe?$AAr?$AAn?$AAe?$AAt?$AA?5?$AAC?$AAo?$AAn?$AAn?$AAe?$AAc?$AAt?$AAi?$AAo?$AAn?$AA?5?$AAW?$AAi@ 1000fe00     ieshare:ierapi.obj
 0001:0000ee4c       ??_C@_1BI@LKIHDJDG@?$AAU?$AAr?$AAl?$AAE?$AAn?$AAc?$AAo?$AAd?$AAi?$AAn?$AAg?$AA?$AA@ 1000fe4c     ieshare:ierapi.obj
 0001:0000ee64       ??_C@_1BM@LBFDGIL@?$AAI?$AAE?$AAA?$AAK?$AAU?$AAp?$AAd?$AAa?$AAt?$AAe?$AAU?$AAr?$AAl?$AA?$AA@ 1000fe64     ieshare:ierapi.obj
 0001:0000ee80       ??_C@_1EC@JFNACHEM@?$AAM?$AAi?$AAc?$AAr?$AAo?$AAs?$AAo?$AAf?$AAt?$AA?2?$AAW?$AAi?$AAn?$AAd?$AAo?$AAw?$AAs?$AA?2?$AAC?$AAu?$AAr?$AAr?$AAe?$AAn?$AAt?$AAV?$AAe?$AAr?$AAs?$AAi?$AAo?$AAn@ 1000fe80     ieshare:ierapi.obj
 0001:0000eec4       ??_C@_1CE@PAICIEMF@?$AAU?$AAp?$AAd?$AAa?$AAt?$AAe?$AA_?$AAC?$AAh?$AAe?$AAc?$AAk?$AA_?$AAP?$AAa?$AAg?$AAe?$AA?$AA@ 1000fec4     ieshare:ierapi.obj
 0001:0000eee8       ??_C@_1CM@DNBBABLC@?$AAU?$AAp?$AAd?$AAa?$AAt?$AAe?$AA_?$AAC?$AAh?$AAe?$AAc?$AAk?$AA_?$AAI?$AAn?$AAt?$AAe?$AAr?$AAv?$AAa?$AAl?$AA?$AA@ 1000fee8     ieshare:ierapi.obj
 0001:0000ef18       ??_C@_1FM@BOBDAFEK@?$AAM?$AAi?$AAc?$AAr?$AAo?$AAs?$AAo?$AAf?$AAt?$AA?2?$AAI?$AAn?$AAt?$AAe?$AAr?$AAn?$AAe?$AAt?$AA?5?$AAE?$AAx?$AAp?$AAl?$AAo?$AAr?$AAe?$AAr?$AA?2?$AAS?$AAe?$AAc?$AAu@ 1000ff18     ieshare:ierapi.obj
 0001:0000ef74       ??_C@_1DA@JGLJOKHN@?$AAP?$AAr?$AAe?$AAv?$AAe?$AAn?$AAt?$AAI?$AAg?$AAn?$AAo?$AAr?$AAe?$AAC?$AAe?$AAr?$AAt?$AAE?$AAr?$AAr?$AAo?$AAr?$AAs?$AA?$AA@ 1000ff74     ieshare:ierapi.obj
 0001:0000efa4       ??_C@_1DC@IMPFCHPN@?$AAD?$AAi?$AAs?$AAa?$AAb?$AAl?$AAe?$AAE?$AAn?$AAc?$AAl?$AAo?$AAs?$AAu?$AAr?$AAe?$AAD?$AAo?$AAw?$AAn?$AAl?$AAo?$AAa?$AAd?$AA?$AA@ 1000ffa4     ieshare:ierapi.obj
 0001:0000efd8       ??_C@_1CC@JPDCJBKA@?$AAD?$AAi?$AAs?$AAa?$AAb?$AAl?$AAe?$AAA?$AAd?$AAd?$AAR?$AAe?$AAm?$AAo?$AAv?$AAe?$AA?$AA@ 1000ffd8     ieshare:ierapi.obj
 0001:0000effc       ??_C@_1CA@BMFKLCHN@?$AAD?$AAi?$AAs?$AAa?$AAb?$AAl?$AAe?$AAF?$AAe?$AAe?$AAd?$AAP?$AAa?$AAn?$AAe?$AA?$AA@ 1000fffc     ieshare:ierapi.obj
 0001:0000f01c       ??_C@_1BA@NPJPKIM@?$AAE?$AAn?$AAa?$AAb?$AAl?$AAe?$AAd?$AA?$AA@ 1001001c     ieshare:ierapi.obj
 0001:0000f030       ??_C@_1FG@IHENMBG@?$AAM?$AAi?$AAc?$AAr?$AAo?$AAs?$AAo?$AAf?$AAt?$AA?2?$AAI?$AAn?$AAt?$AAe?$AAr?$AAn?$AAe?$AAt?$AA?5?$AAE?$AAx?$AAp?$AAl?$AAo?$AAr?$AAe?$AAr?$AA?2?$AAF?$AAe?$AAe?$AAd@ 10010030     ieshare:ierapi.obj
 0001:0000f088       ??_C@_1CK@GOKGLOFO@?$AAB?$AAa?$AAc?$AAk?$AAg?$AAr?$AAo?$AAu?$AAn?$AAd?$AAS?$AAy?$AAn?$AAc?$AAS?$AAt?$AAa?$AAt?$AAu?$AAs?$AA?$AA@ 10010088     ieshare:ierapi.obj
 0001:0000f0b8       ??_C@_1EE@EONEIMGP@?$AAM?$AAi?$AAc?$AAr?$AAo?$AAs?$AAo?$AAf?$AAt?$AA?2?$AAI?$AAn?$AAt?$AAe?$AAr?$AAn?$AAe?$AAt?$AA?5?$AAE?$AAx?$AAp?$AAl?$AAo?$AAr?$AAe?$AAr?$AA?2?$AAF?$AAe?$AAe?$AAd@ 100100b8     ieshare:ierapi.obj
 0001:0000f0fc       ??_C@_1DK@OPJLBGAL@?$AAD?$AAi?$AAs?$AAa?$AAb?$AAl?$AAe?$AAD?$AAe?$AAl?$AAe?$AAt?$AAe?$AAB?$AAr?$AAo?$AAw?$AAs?$AAi?$AAn?$AAg?$AAH?$AAi?$AAs?$AAt?$AAo?$AAr?$AAy?$AA?$AA@ 100100fc     ieshare:ierapi.obj
 0001:0000f138       ??_C@_1FE@OLKBBFIA@?$AAM?$AAi?$AAc?$AAr?$AAo?$AAs?$AAo?$AAf?$AAt?$AA?2?$AAI?$AAn?$AAt?$AAe?$AAr?$AAn?$AAe?$AAt?$AA?5?$AAE?$AAx?$AAp?$AAl?$AAo?$AAr?$AAe?$AAr?$AA?2?$AAC?$AAo?$AAn?$AAt@ 10010138     ieshare:ierapi.obj
 0001:0000f190       ??_C@_1EE@KAMJHJGN@?$AAD?$AAi?$AAs?$AAa?$AAb?$AAl?$AAe?$AAC?$AAu?$AAs?$AAt?$AAo?$AAm?$AAe?$AAr?$AAI?$AAm?$AAp?$AAr?$AAo?$AAv?$AAe?$AAm?$AAe?$AAn?$AAt?$AAP?$AAr?$AAo?$AAg?$AAr?$AAa@ 10010190     ieshare:ierapi.obj
 0001:0000f1d8       ??_C@_1EA@HPNECKHA@?$AAM?$AAi?$AAc?$AAr?$AAo?$AAs?$AAo?$AAf?$AAt?$AA?2?$AAI?$AAn?$AAt?$AAe?$AAr?$AAn?$AAe?$AAt?$AA?5?$AAE?$AAx?$AAp?$AAl?$AAo?$AAr?$AAe?$AAr?$AA?2?$AAS?$AAQ?$AAM?$AA?$AA@ 100101d8     ieshare:ierapi.obj
 0001:0000f218       ??_C@_1BI@KIAFJAPF@?$AAa?$AAb?$AAo?$AAu?$AAt?$AA?3?$AAb?$AAl?$AAa?$AAn?$AAk?$AA?$AA@ 10010218     ieshare:ierapi.obj
 0001:0000f230       ??_C@_1BG@ILMJCLGL@?$AAS?$AAt?$AAa?$AAr?$AAt?$AA?5?$AAP?$AAa?$AAg?$AAe?$AA?$AA@ 10010230     ieshare:ierapi.obj
 0001:0000f248       ??_C@_1CG@NFGPEHMN@?$AAF?$AAo?$AAr?$AAm?$AAS?$AAu?$AAg?$AAg?$AAe?$AAs?$AAt?$AA?5?$AAP?$AAW?$AA?5?$AAA?$AAs?$AAk?$AA?$AA@ 10010248     ieshare:ierapi.obj
 0001:0000f270       ??_C@_1CM@HHGFHCEJ@?$AAF?$AAo?$AAr?$AAm?$AAS?$AAu?$AAg?$AAg?$AAe?$AAs?$AAt?$AA?5?$AAP?$AAa?$AAs?$AAs?$AAw?$AAo?$AAr?$AAd?$AAs?$AA?$AA@ 10010270     ieshare:ierapi.obj
 0001:0000f29c       ??_C@_15BPIGNHCD@?$AAn?$AAo?$AA?$AA@ 1001029c     ieshare:ierapi.obj
 0001:0000f2a4       ??_C@_1CA@BIDAFMBF@?$AAU?$AAs?$AAe?$AA?5?$AAF?$AAo?$AAr?$AAm?$AAS?$AAu?$AAg?$AAg?$AAe?$AAs?$AAt?$AA?$AA@ 100102a4     ieshare:ierapi.obj
 0001:0000f2c8       ??_C@_1EC@POKOKMC@?$AAM?$AAi?$AAc?$AAr?$AAo?$AAs?$AAo?$AAf?$AAt?$AA?2?$AAI?$AAn?$AAt?$AAe?$AAr?$AAn?$AAe?$AAt?$AA?5?$AAE?$AAx?$AAp?$AAl?$AAo?$AAr?$AAe?$AAr?$AA?2?$AAM?$AAa?$AAi?$AAn@ 100102c8     ieshare:ierapi.obj
 0001:0000f30c       ??_C@_17IHBDLLG@?$AAy?$AAe?$AAs?$AA?$AA@ 1001030c     ieshare:ierapi.obj
 0001:0000f314       ??_C@_1BI@NKLPKHNK@?$AAA?$AAu?$AAt?$AAo?$AAS?$AAu?$AAg?$AAg?$AAe?$AAs?$AAt?$AA?$AA@ 10010314     ieshare:ierapi.obj
 0001:0000f330       ??_C@_1GO@FDIJNFHE@?$AAM?$AAi?$AAc?$AAr?$AAo?$AAs?$AAo?$AAf?$AAt?$AA?2?$AAW?$AAi?$AAn?$AAd?$AAo?$AAw?$AAs?$AA?2?$AAC?$AAu?$AAr?$AAr?$AAe?$AAn?$AAt?$AAV?$AAe?$AAr?$AAs?$AAi?$AAo?$AAn@ 10010330     ieshare:ierapi.obj
 0001:0000f3a0       ??_C@_1BO@GMOCHNGG@?$AAp?$AAr?$AAo?$AAx?$AAy?$AA?4?$AAa?$AAc?$AAm?$AAe?$AA?4?$AAc?$AAo?$AAm?$AA?$AA@ 100103a0     ieshare:ierapi.obj
 0001:0000f3c0       ??_C@_1BI@KFFHELDP@?$AAP?$AAr?$AAo?$AAx?$AAy?$AAS?$AAe?$AAr?$AAv?$AAe?$AAr?$AA?$AA@ 100103c0     ieshare:ierapi.obj
 0001:0000f3d8       ??_C@_1GG@KGLKFGAI@?$AAM?$AAi?$AAc?$AAr?$AAo?$AAs?$AAo?$AAf?$AAt?$AA?2?$AAW?$AAi?$AAn?$AAd?$AAo?$AAw?$AAs?$AA?2?$AAC?$AAu?$AAr?$AAr?$AAe?$AAn?$AAt?$AAV?$AAe?$AAr?$AAs?$AAi?$AAo?$AAn@ 100103d8     ieshare:ierapi.obj
 0001:0000f440       ??_C@_1BG@OFKJGFMP@?$AAD?$AAa?$AAy?$AAs?$AAT?$AAo?$AAK?$AAe?$AAe?$AAp?$AA?$AA@ 10010440     ieshare:ierapi.obj
 0001:0000f458       ??_C@_1HO@NPIKDKPD@?$AAM?$AAi?$AAc?$AAr?$AAo?$AAs?$AAo?$AAf?$AAt?$AA?2?$AAW?$AAi?$AAn?$AAd?$AAo?$AAw?$AAs?$AA?2?$AAC?$AAu?$AAr?$AAr?$AAe?$AAn?$AAt?$AAV?$AAe?$AAr?$AAs?$AAi?$AAo?$AAn@ 10010458     ieshare:ierapi.obj
 0001:0000fc10       ??_C@_1BC@EAHCMADO@?$AAS?$AAo?$AAf?$AAt?$AAw?$AAa?$AAr?$AAe?$AA?$AA@ 10010c10     ieshare:ierapi.obj
 0001:0000fc24       ??_C@_1CE@PNKGJIEC@?$AAS?$AAo?$AAf?$AAt?$AAw?$AAa?$AAr?$AAe?$AA?2?$AAP?$AAo?$AAl?$AAi?$AAc?$AAi?$AAe?$AAs?$AA?$AA@ 10010c24     ieshare:ierapi.obj
 0001:0000fc48       ??_C@_1O@JDLOHAN@?$AAD?$AAe?$AAl?$AAe?$AAt?$AAe?$AA?$AA@ 10010c48     cecommon:windowsa.obj
 0001:0000fc58       ??_C@_1BC@GCKHIPE@?$AAN?$AAo?$AAR?$AAe?$AAm?$AAo?$AAv?$AAe?$AA?$AA@ 10010c58     cecommon:windowsa.obj
 0001:0000fc6c       ??_C@_1BI@JFAIJMHL@?$AAF?$AAo?$AAr?$AAc?$AAe?$AAR?$AAe?$AAm?$AAo?$AAv?$AAe?$AA?$AA@ 10010c6c     cecommon:windowsa.obj
 0001:0000fc84       ??_C@_17LLMMEOJD@?$AAV?$AAa?$AAl?$AA?$AA@ 10010c84     cecommon:windowsa.obj
 0001:0000fc8c       ??_C@_13OPKGLAFF@?$AAB?$AA?$AA@ 10010c8c     cecommon:windowsa.obj
 0001:0000fc90       ??_C@_13MKMNOPIJ@?$AAD?$AA?$AA@ 10010c90     cecommon:windowsa.obj
 0001:0000fc94       ??_C@_13LHMFKAAD@?$AAM?$AA?$AA@ 10010c94     cecommon:windowsa.obj
 0001:0000fc98       ??_C@_13HADIAKP@?$AAS?$AA?$AA@ 10010c98     cecommon:windowsa.obj
 0001:0000fcbc       ??_C@_08KAFEAHEM@UserName?$AA@ 10010cbc     cecommon:getusername.obj
 0001:0000fcc8       ??_C@_05PDKIJJM@Ident?$AA@ 10010cc8     cecommon:getusername.obj
 0001:0000fd20       ??_C@_0N@GKPKGDBI@?3?$CFu?4?$CFu?4?$CFu?4?$CFu?$AA@ 10010d20     commonparse:add2stra.obj
 0001:0000fd30       ??_C@_02NJNOFBBI@?$CFx?$AA@ 10010d30     commonparse:add2stra.obj
 0001:0000fd34       ??_C@_02MOLJINC@?3?3?$AA@  10010d34     commonparse:add2stra.obj
 0001:0000fd38       ??_C@_0BF@DFCHPNNC@?3?3ffff?30?3?$CFu?4?$CFu?4?$CFu?4?$CFu?$AA@ 10010d38     commonparse:add2stra.obj
 0001:0000fd50       ??_C@_0BB@JMMKNFHP@?3?3?$CFhs?$CFu?4?$CFu?4?$CFu?4?$CFu?$AA@ 10010d50     commonparse:add2stra.obj
 0001:0000fd64       ??_C@_05PBFMPBMC@ffff?3?$AA@ 10010d64     commonparse:add2stra.obj
 0001:0000fd6c       ??_C@_04KAGBCOF@?$FN?3?$CFu?$AA@ 10010d6c     commonparse:add2stra.obj
 0001:0000fd74       ??_C@_04MLNOPOCC@?$CF?$CF?$CFu?$AA@ 10010d74     commonparse:add2stra.obj
 0001:0000fd7c       GUID_NULL                  10010d7c     dcomuuid:dcomuuid.obj
 0001:0000fd8c       ??_C@_1BM@MMHGPIHM@?$AAS?$AAq?$AAm?$AAG?$AAe?$AAt?$AAS?$AAe?$AAs?$AAs?$AAi?$AAo?$AAn?$AA?$AA@ 10010d8c     sqmproxy:sqmproxy.obj
 0001:0000fda8       ??_C@_1CK@HHPGDEJO@?$AAS?$AAq?$AAm?$AAG?$AAe?$AAt?$AAM?$AAa?$AAn?$AAa?$AAg?$AAe?$AAd?$AAS?$AAe?$AAs?$AAs?$AAi?$AAo?$AAn?$AA?$AA@ 10010da8     sqmproxy:sqmproxy.obj
 0001:0000fdd4       ??_C@_1BM@POPHPGJM@?$AAS?$AAq?$AAm?$AAE?$AAn?$AAd?$AAS?$AAe?$AAs?$AAs?$AAi?$AAo?$AAn?$AA?$AA@ 10010dd4     sqmproxy:sqmproxy.obj
 0001:0000fdf0       ??_C@_1CK@JNKIJLH@?$AAS?$AAq?$AAm?$AAE?$AAn?$AAd?$AAM?$AAa?$AAn?$AAa?$AAg?$AAe?$AAd?$AAS?$AAe?$AAs?$AAs?$AAi?$AAo?$AAn?$AA?$AA@ 10010df0     sqmproxy:sqmproxy.obj
 0001:0000fe1c       ??_C@_1CA@CJHJNKNE@?$AAS?$AAq?$AAm?$AAS?$AAt?$AAa?$AAr?$AAt?$AAS?$AAe?$AAs?$AAs?$AAi?$AAo?$AAn?$AA?$AA@ 10010e1c     sqmproxy:sqmproxy.obj
 0001:0000fe3c       ??_C@_1CO@GEDNANEN@?$AAS?$AAq?$AAm?$AAG?$AAe?$AAt?$AAS?$AAe?$AAs?$AAs?$AAi?$AAo?$AAn?$AAS?$AAt?$AAa?$AAr?$AAt?$AAT?$AAi?$AAm?$AAe?$AA?$AA@ 10010e3c     sqmproxy:sqmproxy.obj
 0001:0000fe6c       ??_C@_1BM@JIHBMADI@?$AAS?$AAq?$AAm?$AAG?$AAe?$AAt?$AAE?$AAn?$AAa?$AAb?$AAl?$AAe?$AAd?$AA?$AA@ 10010e6c     sqmproxy:sqmproxy.obj
 0001:0000fe88       ??_C@_1BM@GNCHBJHJ@?$AAS?$AAq?$AAm?$AAS?$AAe?$AAt?$AAE?$AAn?$AAa?$AAb?$AAl?$AAe?$AAd?$AA?$AA@ 10010e88     sqmproxy:sqmproxy.obj
 0001:0000fea4       ??_C@_1BI@LHALAANK@?$AAS?$AAq?$AAm?$AAG?$AAe?$AAt?$AAF?$AAl?$AAa?$AAg?$AAs?$AA?$AA@ 10010ea4     sqmproxy:sqmproxy.obj
 0001:0000febc       ??_C@_1BI@JCAAILME@?$AAS?$AAq?$AAm?$AAS?$AAe?$AAt?$AAF?$AAl?$AAa?$AAg?$AAs?$AA?$AA@ 10010ebc     sqmproxy:sqmproxy.obj
 0001:0000fed4       ??_C@_1BM@BLLHBHLG@?$AAS?$AAq?$AAm?$AAC?$AAl?$AAe?$AAa?$AAr?$AAF?$AAl?$AAa?$AAg?$AAs?$AA?$AA@ 10010ed4     sqmproxy:sqmproxy.obj
 0001:0000fef0       ??_C@_1CA@GCAJCPGE@?$AAS?$AAq?$AAm?$AAG?$AAe?$AAt?$AAM?$AAa?$AAc?$AAh?$AAi?$AAn?$AAe?$AAI?$AAd?$AA?$AA@ 10010ef0     sqmproxy:sqmproxy.obj
 0001:0000ff10       ??_C@_1BK@DDJNCKAO@?$AAS?$AAq?$AAm?$AAG?$AAe?$AAt?$AAU?$AAs?$AAe?$AAr?$AAI?$AAd?$AA?$AA@ 10010f10     sqmproxy:sqmproxy.obj
 0001:0000ff2c       ??_C@_1CA@OCMPOCMC@?$AAS?$AAq?$AAm?$AAS?$AAe?$AAt?$AAM?$AAa?$AAc?$AAh?$AAi?$AAn?$AAe?$AAI?$AAd?$AA?$AA@ 10010f2c     sqmproxy:sqmproxy.obj
 0001:0000ff4c       ??_C@_1BK@JNLGGKHC@?$AAS?$AAq?$AAm?$AAS?$AAe?$AAt?$AAU?$AAs?$AAe?$AAr?$AAI?$AAd?$AA?$AA@ 10010f4c     sqmproxy:sqmproxy.obj
 0001:0000ff68       ??_C@_1BO@CBGCAFMB@?$AAS?$AAq?$AAm?$AAC?$AAr?$AAe?$AAa?$AAt?$AAe?$AAN?$AAe?$AAw?$AAI?$AAd?$AA?$AA@ 10010f68     sqmproxy:sqmproxy.obj
 0001:0000ff88       ??_C@_1CO@EHIDHFCK@?$AAS?$AAq?$AAm?$AAR?$AAe?$AAa?$AAd?$AAS?$AAh?$AAa?$AAr?$AAe?$AAd?$AAM?$AAa?$AAc?$AAh?$AAi?$AAn?$AAe?$AAI?$AAd?$AA?$AA@ 10010f88     sqmproxy:sqmproxy.obj
 0001:0000ffb8       ??_C@_1CI@FJOPBFKK@?$AAS?$AAq?$AAm?$AAR?$AAe?$AAa?$AAd?$AAS?$AAh?$AAa?$AAr?$AAe?$AAd?$AAU?$AAs?$AAe?$AAr?$AAI?$AAd?$AA?$AA@ 10010fb8     sqmproxy:sqmproxy.obj
 0001:0000ffe0       ??_C@_1DA@JEPNJJO@?$AAS?$AAq?$AAm?$AAW?$AAr?$AAi?$AAt?$AAe?$AAS?$AAh?$AAa?$AAr?$AAe?$AAd?$AAM?$AAa?$AAc?$AAh?$AAi?$AAn?$AAe?$AAI?$AAd?$AA?$AA@ 10010fe0     sqmproxy:sqmproxy.obj
 0001:00010010       ??_C@_1CK@MBFGJNGI@?$AAS?$AAq?$AAm?$AAW?$AAr?$AAi?$AAt?$AAe?$AAS?$AAh?$AAa?$AAr?$AAe?$AAd?$AAU?$AAs?$AAe?$AAr?$AAI?$AAd?$AA?$AA@ 10011010     sqmproxy:sqmproxy.obj
 0001:0001003c       ??_C@_1CC@IDCLBBFM@?$AAS?$AAq?$AAm?$AAS?$AAe?$AAt?$AAA?$AAp?$AAp?$AAV?$AAe?$AAr?$AAs?$AAi?$AAo?$AAn?$AA?$AA@ 1001103c     sqmproxy:sqmproxy.obj
 0001:00010060       ??_C@_1O@IJBFHHCC@?$AAS?$AAq?$AAm?$AAS?$AAe?$AAt?$AA?$AA@ 10011060     sqmproxy:sqmproxy.obj
 0001:00010070       ??_C@_1BM@CABJNDG@?$AAS?$AAq?$AAm?$AAS?$AAe?$AAt?$AAS?$AAt?$AAr?$AAi?$AAn?$AAg?$AAW?$AA?$AA@ 10011070     sqmproxy:sqmproxy.obj
 0001:0001008c       ??_C@_1BK@KIPJFEDP@?$AAS?$AAq?$AAm?$AAI?$AAn?$AAc?$AAr?$AAe?$AAm?$AAe?$AAn?$AAt?$AA?$AA@ 1001108c     sqmproxy:sqmproxy.obj
 0001:000100a8       ??_C@_1BG@MBKDOGON@?$AAS?$AAq?$AAm?$AAS?$AAe?$AAt?$AAB?$AAi?$AAt?$AAs?$AA?$AA@ 100110a8     sqmproxy:sqmproxy.obj
 0001:000100c0       ??_C@_1BI@FIDHJHHJ@?$AAS?$AAq?$AAm?$AAS?$AAe?$AAt?$AAI?$AAf?$AAM?$AAa?$AAx?$AA?$AA@ 100110c0     sqmproxy:sqmproxy.obj
 0001:000100d8       ??_C@_1BI@MBBGBNFH@?$AAS?$AAq?$AAm?$AAS?$AAe?$AAt?$AAI?$AAf?$AAM?$AAi?$AAn?$AA?$AA@ 100110d8     sqmproxy:sqmproxy.obj
 0001:000100f0       ??_C@_1CA@HACMJPCH@?$AAS?$AAq?$AAm?$AAA?$AAd?$AAd?$AAT?$AAo?$AAA?$AAv?$AAe?$AAr?$AAa?$AAg?$AAe?$AA?$AA@ 100110f0     sqmproxy:sqmproxy.obj
 0001:00010110       ??_C@_1BO@KNMKMHNE@?$AAS?$AAq?$AAm?$AAA?$AAd?$AAd?$AAT?$AAo?$AAS?$AAt?$AAr?$AAe?$AAa?$AAm?$AA?$AA@ 10011110     sqmproxy:sqmproxy.obj
 0001:00010130       ??_C@_1CM@CMKBBENH@?$AAS?$AAq?$AAm?$AAA?$AAd?$AAd?$AAT?$AAo?$AAS?$AAt?$AAr?$AAe?$AAa?$AAm?$AAS?$AAt?$AAr?$AAi?$AAn?$AAg?$AAW?$AA?$AA@ 10011130     sqmproxy:sqmproxy.obj
 0001:0001015c       ??_C@_1CI@IKGGAPIK@?$AAS?$AAq?$AAm?$AAA?$AAd?$AAd?$AAT?$AAo?$AAS?$AAt?$AAr?$AAe?$AAa?$AAm?$AAD?$AAW?$AAO?$AAR?$AAD?$AA?$AA@ 1001115c     sqmproxy:sqmproxy.obj
 0001:00010184       ??_C@_1O@HBOEEIPD@?$AAS?$AAq?$AAm?$AAG?$AAe?$AAt?$AA?$AA@ 10011184     sqmproxy:sqmproxy.obj
 0001:00010194       ??_C@_1BM@FBHNKBEC@?$AAS?$AAq?$AAm?$AAT?$AAi?$AAm?$AAe?$AAr?$AAS?$AAt?$AAa?$AAr?$AAt?$AA?$AA@ 10011194     sqmproxy:sqmproxy.obj
 0001:000101b0       ??_C@_1BO@OIHKNIOP@?$AAS?$AAq?$AAm?$AAT?$AAi?$AAm?$AAe?$AAr?$AAR?$AAe?$AAc?$AAo?$AAr?$AAd?$AA?$AA@ 100111b0     sqmproxy:sqmproxy.obj
 0001:000101d0       ??_C@_1CG@JKLDADAE@?$AAS?$AAq?$AAm?$AAT?$AAi?$AAm?$AAe?$AAr?$AAA?$AAc?$AAc?$AAu?$AAm?$AAu?$AAl?$AAa?$AAt?$AAe?$AA?$AA@ 100111d0     sqmproxy:sqmproxy.obj
 0001:000101f8       ??_C@_1CK@HOGPDFFE@?$AAS?$AAq?$AAm?$AAT?$AAi?$AAm?$AAe?$AAr?$AAA?$AAd?$AAd?$AAT?$AAo?$AAA?$AAv?$AAe?$AAr?$AAa?$AAg?$AAe?$AA?$AA@ 100111f8     sqmproxy:sqmproxy.obj
 0001:00010224       ??_C@_1BC@FFDOEPLG@?$AAS?$AAq?$AAm?$AAS?$AAe?$AAt?$AA6?$AA4?$AA?$AA@ 10011224     sqmproxy:sqmproxy.obj
 0001:00010238       ??_C@_1BG@GGKHFKPL@?$AAS?$AAq?$AAm?$AAS?$AAe?$AAt?$AAB?$AAo?$AAo?$AAl?$AA?$AA@ 10011238     sqmproxy:sqmproxy.obj
 0001:00010250       ??_C@_1CA@ODCKKLM@?$AAS?$AAq?$AAm?$AAA?$AAd?$AAd?$AAT?$AAo?$AAS?$AAt?$AAr?$AAe?$AAa?$AAm?$AAV?$AA?$AA@ 10011250     sqmproxy:sqmproxy.obj
 0001:00010270       ??_C@_1BC@FKCAJJDF@?$AAS?$AAq?$AAm?$AAG?$AAe?$AAt?$AA6?$AA4?$AA?$AA@ 10011270     sqmproxy:sqmproxy.obj
 0001:00010284       ??_C@_1BO@EIEKGNPO@?$AAS?$AAq?$AAm?$AAS?$AAt?$AAa?$AAr?$AAt?$AAU?$AAp?$AAl?$AAo?$AAa?$AAd?$AA?$AA@ 10011284     sqmproxy:sqmproxy.obj
 0001:000102a4       ??_C@_1BO@CMOEIFGK@?$AAS?$AAq?$AAm?$AAA?$AAb?$AAo?$AAr?$AAt?$AAU?$AAp?$AAl?$AAo?$AAa?$AAd?$AA?$AA@ 100112a4     sqmproxy:sqmproxy.obj
 0001:000102c4       ??_C@_1BO@BHMIMMAP@?$AAS?$AAq?$AAm?$AAS?$AAa?$AAv?$AAe?$AAS?$AAe?$AAs?$AAs?$AAi?$AAo?$AAn?$AA?$AA@ 100112c4     sqmproxy:sqmproxy.obj
 0001:000102e4       ??_C@_1BI@BFONAIIG@?$AAc?$AAu?$AAs?$AAt?$AAs?$AAa?$AAt?$AA?4?$AAd?$AAl?$AAl?$AA?$AA@ 100112e4     sqmproxy:sqmproxy.obj
 0001:0001035c       ??_C@_02LOEMLMCB@my?$AA@   1001135c     wininet_common:secinit.obj
 0001:00010360       ??_C@_0BL@GLKIPFFF@CryptInstallDefaultContext?$AA@ 10011360     wininet_common:secinit.obj
 0001:0001037c       ??_C@_0BN@CIMGGOJ@CryptUninstallDefaultContext?$AA@ 1001137c     wininet_common:secinit.obj
 0001:0001039c       ??_C@_0BF@JOPNPAKK@CertFindChainInStore?$AA@ 1001139c     wininet_common:secinit.obj
 0001:000103b4       ??_C@_0BJ@EPAPOMOE@CertFreeCertificateChain?$AA@ 100113b4     wininet_common:secinit.obj
 0001:000103d0       ??_C@_07EFLBMCHJ@crypt32?$AA@ 100113d0     wininet_common:secinit.obj
 0001:000103d8       ??_C@_0BD@PCKBKLAK@SslFreeCertificate?$AA@ 100113d8     wininet_common:secinit.obj
 0001:000103ec       ??_C@_0BE@DJIAILAO@SslCrackCertificate?$AA@ 100113ec     wininet_common:secinit.obj
 0001:00010400       ??_C@_08IPOCAJBI@schannel?$AA@ 10011400     wininet_common:secinit.obj
 0001:0001040c       ??_C@_0CN@NMCHMJNP@Microsoft?5Unified?5Security?5Proto@ 1001140c     wininet_common:ssocket.obj
 0001:0001045c       ??_7ICSecureSocket@@6B@    1001145c     wininet_common:ssocket.obj
 0001:00010474       ??_7CFsm_NegotiateLoop@@6B@ 10011474     wininet_common:ssocket.obj
 0001:00010478       ??_7CFsm_SecureSend@@6B@   10011478     wininet_common:ssocket.obj
 0001:0001047c       ??_7CFsm_SecureReceive@@6B@ 1001147c     wininet_common:ssocket.obj
 0001:00010480       ??_7CFsm_SecureNegotiate@@6B@ 10011480     wininet_common:ssocket.obj
 0001:00010484       ??_7CFsm_SecureHandshake@@6B@ 10011484     wininet_common:ssocket.obj
 0001:00010488       ??_7CFsm_SecureConnect@@6B@ 10011488     wininet_common:ssocket.obj
 0001:000104cc       ??_C@_0DN@KNLJHLMM@?2Windows?2Profiles?2guest?2Temporar@ 100114cc     wininet_ftp:ftpapiu.obj
 0001:0001050c       ??_C@_0CN@KOMAEHHP@FTP?3?3_DeleteFileIfItExists?3?5dele@ 1001150c     wininet_ftp:ftpapiu.obj
 0001:00010540       ??_C@_0FP@EGGEHGCD@FTP?3?3_DeleteFileIfItExists?3?5Sear@ 10011540     wininet_ftp:ftpapiu.obj
 0001:000105a0       ??_C@_02KHDDNBB@?2?$CK?$AA@ 100115a0     wininet_ftp:ftpapiu.obj
 0001:000105a4       ??_C@_0DF@GBKAEMPN@FTP?3?3_RemoveOldDirectoryAndChild@ 100115a4     wininet_ftp:ftpapiu.obj
 0001:000105e0       ??_C@_0FD@HLOBPMAM@FTP?3?3_RemoveOldDirectoryAndChild@ 100115e0     wininet_ftp:ftpapiu.obj
 0001:00010634       ??_C@_0DM@GOPFNBGI@FTP?3?3_RemoveOldDirectoryAndChild@ 10011634     wininet_ftp:ftpapiu.obj
 0001:00010670       ??_C@_05BMGBEOOC@?$CFs?2?$CFs?$AA@ 10011670     wininet_ftp:ftpapiu.obj
 0001:00010678       ??_C@_0EL@NOIHLFPO@FTP?3?3_RemoveOldDirectoryAndChild@ 10011678     wininet_ftp:ftpapiu.obj
 0001:000106c4       ??_C@_0DK@KOEHDLDN@FTP?3?3_RemoveOldDirectoryAndChild@ 100116c4     wininet_ftp:ftpapiu.obj
 0001:00010700       ??_C@_0EJ@MABOHAKG@FTP?3?3_RemoveOldDirectoryAndChild@ 10011700     wininet_ftp:ftpapiu.obj
 0001:0001074c       ??_C@_0CF@LCCDJEAP@FTP?3?3_RemoveOldDirectoryAndChild@ 1001174c     wininet_ftp:ftpapiu.obj
 0001:00010778       ??_C@_0HF@HELHLIAL@FTP?3?3_DumpCache?3?5Found?5?3?5CacheEn@ 10011778     wininet_ftp:ftpapiu.obj
 0001:000107f0       ??_C@_0DA@GDNMAIFC@FTP?3?3_RemoveFileFromCache?3?5dumpi@ 100117f0     wininet_ftp:ftpapiu.obj
 0001:00010820       ??_C@_0DJ@JHHNHGBI@FTP?3?3_RemoveFileFromCache?3?5file?5@ 10011820     wininet_ftp:ftpapiu.obj
 0001:0001085c       ??_C@_0DP@KJDDGMHK@FTP?3?3_RemoveFileFromCache?3?5faile@ 1001185c     wininet_ftp:ftpapiu.obj
 0001:0001089c       ??_C@_0DG@OIPAJHLE@FTP?3?3_RemoveFileFromCache?3?5delet@ 1001189c     wininet_ftp:ftpapiu.obj
 0001:000108d8       ??_C@_0EL@PPCEAPKE@FTP?3?3_RemoveFileFromCache?3?5found@ 100118d8     wininet_ftp:ftpapiu.obj
 0001:00010924       ??_C@_0DP@PDDHIODD@FTP?3?3_RemoveFileFromCache?3?5faile@ 10011924     wininet_ftp:ftpapiu.obj
 0001:00010964       ??_C@_0DH@MNPPBOLO@FTP?3?3_RemoveFileFromCache?3?5unloc@ 10011964     wininet_ftp:ftpapiu.obj
 0001:000109a0       ??_C@_0GF@KLCDCJHG@FTP?3?3_RemoveFileFromCache?3?5compa@ 100119a0     wininet_ftp:ftpapiu.obj
 0001:00010a08       ??_C@_05LAPONLG@false?$AA@ 10011a08     wininet_ftp:ftpapiu.obj
 0001:00010a10       ??_C@_04LOAJBDKD@true?$AA@ 10011a10     wininet_ftp:ftpapiu.obj
 0001:00010a18       ??_C@_0DO@DDAKCIAL@FTP?3?3_RemoveFileFromCache?3?5looki@ 10011a18     wininet_ftp:ftpapiu.obj
 0001:00010a58       ??_C@_0HP@IJODAIMH@FTP?3?3_RemoveFileFromCache?3?5Found@ 10011a58     wininet_ftp:ftpapiu.obj
 0001:00010ad8       ??_C@_0DG@JNCKBONB@FTP?3?3_RemoveFileFromCache?3?5dumpi@ 10011ad8     wininet_ftp:ftpapiu.obj
 0001:00010b10       ??_C@_0EK@EOPEAACN@FTP?3?3_RemoveFileFromCache?3?$CK?$CK?$CK?$CK?$CK?$CK@ 10011b10     wininet_ftp:ftpapiu.obj
 0001:00010b60       ??_C@_0EC@IKMOHFNK@FTP?3?3_RemoveFileFromCache?3?5searc@ 10011b60     wininet_ftp:ftpapiu.obj
 0001:00010ba4       ??_C@_0BM@PDJKDBO@FTP?3?3_RemoveFileFromCache?3?5?$AA@ 10011ba4     wininet_ftp:ftpapiu.obj
 0001:00010bc0       ??_C@_0EB@LKLEBLOK@FTP?3?3_DeleteDownLoadIfExists?3?5fi@ 10011bc0     wininet_ftp:ftpapiu.obj
 0001:00010c04       ??_C@_0O@HLHACGKE@?2My?5Documents?$AA@ 10011c04     wininet_ftp:ftpapiu.obj
 0001:00010c14       ??_C@_0BF@EIGEDM@?2My?5Recent?5Documents?$AA@ 10011c14     wininet_ftp:ftpapiu.obj
 0001:00010c2c       ??_C@_02DKCKIIND@?$CFs?$AA@ 10011c2c     wininet_ftp:ftpapiu.obj
 0001:00010c30       ??_C@_0GJ@EMEKMBKB@FTP?3?3_DeleteDownLoadIfExists?3?5ca@ 10011c30     wininet_ftp:ftpapiu.obj
 0001:00010c9c       ??_C@_0CO@GHFNPHA@FTP?3?3_DeleteDownLoadIfExists?3?5ch@ 10011c9c     wininet_ftp:ftpapiu.obj
 0001:00010ccc       ??_C@_07PPFHEIL@not?5set?$AA@ 10011ccc     wininet_ftp:ftpapiu.obj
 0001:00010cd4       ??_C@_05GFIHHCNM@type?$DN?$AA@ 10011cd4     wininet_ftp:ftpapiu.obj
 0001:00010d1c       ??_C@_0CH@MGPGMNK@Microsoft?9Internet?9Information?9S@ 10011d1c     wininet_hndlobj:http.obj
 0001:00010d44       ??_7HTTP_REQUEST_HANDLE_OBJECT@@6B@ 10011d44     wininet_hndlobj:http.obj
 0001:00010d78       ??_C@_1EK@GLBBOJEO@?$AAF?$AAE?$AAA?$AAT?$AAU?$AAR?$AAE?$AA_?$AAI?$AAN?$AAC?$AAL?$AAU?$AAD?$AAE?$AA_?$AAP?$AAO?$AAR?$AAT?$AA_?$AAI?$AAN?$AA_?$AAS?$AAP?$AAN?$AA_?$AAK?$AAB?$AA9?$AA0@ 10011d78     wininet_hndlobj:http.obj
 0001:00010de4       ??_7CFsm_HttpWriteData@@6B@ 10011de4     wininet_http:write.obj
 0001:00010e08       ??_C@_0BC@HAIAHLOC@1?43?46?41?45?45?47?43?41?$AA@ 10011e08     wininet_dll:portstub_wintrust.obj
 0001:00010e1c       ??_C@_0BH@EPEFCOBG@1?43?46?41?44?41?4311?410?43?43?$AA@ 10011e1c     wininet_dll:portstub_wintrust.obj
 0001:00010e34       ??_C@_0BG@OKBPPGBB@2?416?4840?41?4113730?44?41?$AA@ 10011e34     wininet_dll:portstub_wintrust.obj
 0001:00010e70       InternetTerminateThreadInfo 10011e70 f   dll_entry_point.obj
 0001:00010eb8       DllMain                    10011eb8 f   dll_entry_point.obj
 0001:00010ebc       ?get_lock@?$singleton@V?$free_list@$0GE@Vallocator@ce@@@ce@@$03V?$static_allocator@V?$free_list@$0GE@Vallocator@ce@@@ce@@$03@2@@ce@@KAAAVcritical_section@2@XZ 10011ebc f i dll_entry_point.obj
 0001:00010f10       ??2@YAPAXI@Z               10011f10 f   operator_overloads.obj
 0001:00010f1c       ??3@YAXPAX@Z               10011f1c f   operator_overloads.obj
 0001:00010f20       CharToWChar                10011f20 f   wininet_common:util.obj
 0001:000110a0       WCharToChar                100120a0 f   wininet_common:util.obj
 0001:00011210       HostCharToWChar            10012210 f   wininet_common:util.obj
 0001:00011234       HostAceToChar              10012234 f   wininet_common:util.obj
 0001:000112b4       UrlWCharToChar             100122b4 f   wininet_common:util.obj
 0001:000112d8       UrlCharToWChar             100122d8 f   wininet_common:util.obj
 0001:00011548       UrlPathUTF8ToDB            10012548 f   wininet_common:util.obj
 0001:0001178c       HeaderWCharToChar          1001278c f   wininet_common:util.obj
 0001:000117b0       HeaderCharToWChar          100127b0 f   wininet_common:util.obj
 0001:000117dc       PathWCharToChar            100127dc f   wininet_common:util.obj
 0001:00011800       CacheUrlWCharToChar        10012800 f   wininet_common:util.obj
 0001:00011824       NewString                  10012824 f   wininet_common:util.obj
 0001:0001187c       NewStringW                 1001287c f   wininet_common:util.obj
 0001:00011904       CatString                  10012904 f   wininet_common:util.obj
 0001:00011960       ?CompareStringNA@@YAHPBD0H@Z 10012960 f   wininet_common:util.obj
 0001:000119f0       ?CompareStringNW@@YAHPBG0H@Z 100129f0 f   wininet_common:util.obj
 0001:00011a80       ResizeBuffer               10012a80 f   wininet_common:util.obj
 0001:00011af4       _memrchr                   10012af4 f   wininet_common:util.obj
 0001:00011b24       strnistr                   10012b24 f   wininet_common:util.obj
 0001:00011bec       PrivateStrChr@8            10012bec f   wininet_common:util.obj
 0001:00011c1c       GetTickCountWrap           10012c1c f   wininet_common:util.obj
 0001:00011c20       GetTimeoutValue            10012c20 f   wininet_common:util.obj
 0001:00011cf0       MapInternetError           10012cf0 f   wininet_common:util.obj
 0001:00011fd4       MapHRtoWin32Error          10012fd4 f   wininet_common:util.obj
 0001:0001200c       CalculateHashValue         1001300c f   wininet_common:util.obj
 0001:00012038       GetCurrentGmtTime          10013038 f   wininet_common:util.obj
 0001:00012060       GetFileExtensionFromUrl    10013060 f   wininet_common:util.obj
 0001:000121a4       _GetFileExtensionFromUrl   100131a4 f   wininet_common:util.obj
 0001:00012248       CheckExpired               10013248 f   wininet_common:util.obj
 0001:0001230c       FTtoString                 1001330c f   wininet_common:util.obj
 0001:0001243c       InternetSettingsChanged    1001343c f   wininet_common:util.obj
 0001:00012494       RefreshSslState            10013494 f   wininet_common:util.obj
 0001:000124fc       ConvertSecurityInfoIntoCertInfoStruct 100134fc f   wininet_common:util.obj
 0001:00012690       FormatCertInfo             10013690 f   wininet_common:util.obj
 0001:00012774       ConvertMBCSToUTF8          10013774 f   wininet_common:util.obj
 0001:000128a8       FindNamedValue             100138a8 f   wininet_common:util.obj
 0001:00012a34       IsInGUIModeSetup           10013a34 f   wininet_common:util.obj
 0001:00012b2c       FreeAllAccessSA            10013b2c f   wininet_common:util.obj
 0001:00012b60       IsInteractive              10013b60 f   wininet_common:util.obj
 0001:00012b68       IsLowILProcess             10013b68 f   wininet_common:util.obj
 0001:00012b70       StartsWithScheme           10013b70 f   wininet_common:util.obj
 0001:00012c40       HostWCharToChar            10013c40 f   wininet_common:util.obj
 0001:00012c98       UrlWireToInternal          10013c98 f   wininet_common:util.obj
 0001:00013240       UrlFullInternalToWire      10014240 f   wininet_common:util.obj
 0001:000135a4       UrlPartialInternalToWire   100145a4 f   wininet_common:util.obj
 0001:00013718       CookieCrackA               10014718 f   wininet_common:util.obj
 0001:00013850       CreateAllAccessSA          10014850 f   wininet_common:util.obj
 0001:00013860       InetpOpenOrCreateMutex     10014860 f   wininet_common:util.obj
 0001:000138f8       CookieCharToWChar          100148f8 f   wininet_common:util.obj
 0001:00013a98       CacheUrlCharToWChar        10014a98 f   wininet_common:util.obj
 0001:00013c14       ?Init@CCritSec@@QAAHXZ     10014c14 f i wininet_common:servinfo.obj
 0001:00013c84       ?Lock@CCritSec@@QAAHXZ     10014c84 f i wininet_common:servinfo.obj
 0001:00013cec       ?Strcmp@ICSTRING@@QAAHPAD@Z 10014cec f i wininet_common:servinfo.obj
 0001:00013d38       ?HasExpired@ICSocket@@QAAHK@Z 10014d38 f i wininet_common:servinfo.obj
 0001:00013d80       ??0CConnectionWaiter@CServerInfo@@QAA@PAVCPriorityList@@HHKPAXJ@Z 10014d80 f i wininet_common:servinfo.obj
 0001:00013dec       ?Reference@CServerInfo@@QAAXXZ 10014dec f   wininet_common:servinfo.obj
 0001:00013df4       ?UpdateConnectTime@CServerInfo@@QAAXK@Z 10014df4 f   wininet_common:servinfo.obj
 0001:00013e0c       ?UpdateRTT@CServerInfo@@QAAXK@Z 10014e0c f   wininet_common:servinfo.obj
 0001:00013e24       ?RemoveWaiter@CServerInfo@@QAAXK@Z 10014e24 f   wininet_common:servinfo.obj
 0001:00013e88       ?KeepAliveWaiters@CServerInfo@@AAAHXZ 10014e88 f   wininet_common:servinfo.obj
 0001:00013ee4       ?PurgeKeepAlives@CServerInfo@@QAAXK@Z 10014ee4 f   wininet_common:servinfo.obj
 0001:00014014       ?CheckForBlockedItem@CServerInfo@@QAAXXZ 10015014 f   wininet_common:servinfo.obj
 0001:000140f4       ??1CPriorityList@@QAA@XZ   100150f4 f i wininet_common:servinfo.obj
 0001:00014134       ??1CAddressList@@QAA@XZ    10015134 f i wininet_common:servinfo.obj
 0001:00014178       ?FindServerInfo@@YAPAVCServerInfo@@PADPBG@Z 10015178 f   wininet_common:servinfo.obj
 0001:00014240       ?FindNearestServer@@YAPAVCServerInfo@@XZ 10015240 f   wininet_common:servinfo.obj
 0001:000142c4       ?PurgeKeepAlives@@YAXK@Z   100152c4 f   wininet_common:servinfo.obj
 0001:00014310       ??0CServerInfo@@QAA@PADPAKKKPBG@Z 10015310 f   wininet_common:servinfo.obj
 0001:000144c8       ??1CServerInfo@@QAA@XZ     100154c8 f   wininet_common:servinfo.obj
 0001:000145bc       ?ReleaseConnection@CServerInfo@@QAAKPAVICSocket@@HPAX@Z 100155bc f   wininet_common:servinfo.obj
 0001:0001481c       ?deallocate@?$free_list@$0GE@Vallocator@ce@@@ce@@QBAXPAXI@Z 1001581c f i wininet_common:servinfo.obj
 0001:0001487c       ??_G?$free_list@$0GE@Vallocator@ce@@@ce@@QAAPAXI@Z 1001587c f i wininet_common:servinfo.obj
 0001:000148c8       ?create@?$singleton@V?$free_list@$0GE@Vallocator@ce@@@ce@@$03V?$static_allocator@V?$free_list@$0GE@Vallocator@ce@@@ce@@$03@2@@ce@@KAXXZ 100158c8 f i wininet_common:servinfo.obj
 0001:00014940       ?Dereference@CServerInfo@@QAAHXZ 10015940 f   wininet_common:servinfo.obj
 0001:000149d4       ?release@?$singleton@V?$free_list@$0GE@Vallocator@ce@@@ce@@$03V?$static_allocator@V?$free_list@$0GE@Vallocator@ce@@@ce@@$03@2@@ce@@SAXXZ 100159d4 f i wininet_common:servinfo.obj
 0001:00014a40       ?ReleaseServerInfo@@YAXPAVCServerInfo@@@Z 10015a40 f   wininet_common:servinfo.obj
 0001:00014a44       ?PurgeServerInfoList@@YAHH@Z 10015a44 f   wininet_common:servinfo.obj
 0001:00014b40       ?GetServerInfo@@YAKPADKHPAPAVCServerInfo@@PBG@Z 10015b40 f   wininet_common:servinfo.obj
 0001:00014ca8       ?release@?$_ref_counting_t@V?$singleton_allocator@V?$free_list@$0GE@Vallocator@ce@@@ce@@$03@ce@@@ce@@IAA_NXZ 10015ca8 f i wininet_common:servinfo.obj
 0001:00014d08       ??0?$auto_xxx@PAUCmConnWrapper@@P6AXPAU1@@Z$1?InvokeCmReleaseConnection@@YAX0@Z$0A@V?$_ref_counting_t@V?$singleton_allocator@V?$free_list@$0GE@Vallocator@ce@@@ce@@$03@ce@@@ce@@@ce@@QAA@ABV01@@Z 10015d08 f i wininet_common:servinfo.obj
 0001:00014d50       ??_GAcquiredConnSP@@UAAPAXI@Z 10015d50 f i wininet_common:servinfo.obj
 0001:00014d50       ??_EAcquiredConnSP@@UAAPAXI@Z 10015d50 f i wininet_common:servinfo.obj
 0001:00014d74       ?FindKeepAliveConnection@CServerInfo@@AAAPAVICSocket@@KGPADPAUCM_SESSION_HANDLE__@@@Z 10015d74 f   wininet_common:servinfo.obj
 0001:00014f34       ?GetConnection_Fsm@CServerInfo@@QAAKPAVCFsm_GetConnection@@@Z 10015f34 f   wininet_common:servinfo.obj
 0001:00015508       ?RunSM@CFsm_GetConnection@@SAKPAVCFsm@@@Z 10016508 f   wininet_common:servinfo.obj
 0001:0001559c       ?CStrHresultToWin32@@YAKJ@Z 1001659c f   wininet_common:CStr.obj
 0001:000155f0       InitializeSerializedList   100165f0 f   wininet_common:serialst.obj
 0001:0001560c       SlDequeueHead              1001660c f   wininet_common:serialst.obj
 0001:000156ac       SlDequeueTail              100166ac f   wininet_common:serialst.obj
 0001:00015750       ?Insert@CPriorityList@@QAAXPAVCPriorityListEntry@@@Z 10016750 f   wininet_common:priolist.obj
 0001:000157c0       ?Remove@CPriorityList@@QAAXPAVCPriorityListEntry@@@Z 100167c0 f   wininet_common:priolist.obj
 0001:00015814       ?RoReferenceMultiple@@YIEPAT_REFERENCE_OBJECT@@K@Z 10016814 f i wininet_common:icsocket.obj
 0001:0001585c       ?Set@CUserName@@QAAXXZ     1001685c f i wininet_common:icsocket.obj
 0001:000158d4       ?Get@CUserName@@QAAPADPADPAK@Z 100168d4 f i wininet_common:icsocket.obj
 0001:00015970       ?IsTimedOut@CFsm_SocketConnect@@QAAHXZ 10016970 f i wininet_common:icsocket.obj
 0001:000159b4       ?ContainingICSocket@@YAPAVICSocket@@PAX@Z 100169b4 f   wininet_common:icsocket.obj
 0001:000159bc       ??0ICSocket@@QAA@XZ        100169bc f   wininet_common:icsocket.obj
 0001:00015a20       ?MatchTunnelSemantics@ICSocket@@UAAHKPAD@Z 10016a20 f i wininet_common:icsocket.obj
 0001:00015a38       ?Reference@ICSocket@@QAAXXZ 10016a38 f   wininet_common:icsocket.obj
 0001:00015a40       ?Dereference@ICSocket@@QAAHXZ 10016a40 f   wininet_common:icsocket.obj
 0001:00015a80       ?EnableSocks@ICSocket@@QAAKPADG@Z 10016a80 f   wininet_common:icsocket.obj
 0001:00015b58       ?_GetSocketHandle@ICSocket@@QAAIXZ 10016b58 f   wininet_common:icsocket.obj
 0001:00015b8c       ?_UnSafeCloseSocket@ICSocket@@QAAKXZ 10016b8c f   wininet_common:icsocket.obj
 0001:00015bec       ?Close@ICSocket@@QAAKXZ    10016bec f   wininet_common:icsocket.obj
 0001:00015c44       ?Abort@ICSocket@@QAAKXZ    10016c44 f   wininet_common:icsocket.obj
 0001:00015c6c       ?Shutdown@ICSocket@@QAAKK@Z 10016c6c f   wininet_common:icsocket.obj
 0001:00015cc0       ?SetSourcePort@ICSocket@@QAAXXZ 10016cc0 f   wininet_common:icsocket.obj
 0001:00015d3c       ?SelectAccept@ICSocket@@QAAKAAV1@K@Z 10016d3c f   wininet_common:icsocket.obj
 0001:00015eb0       ?MapNetAddressToName@@YAPADPAUsockaddr@@@Z 10016eb0 f   wininet_common:icsocket.obj
 0001:00015f0c       ??1ICSocket@@UAA@XZ        10016f0c f   wininet_common:icsocket.obj
 0001:00015f38       ?Destroy@ICSocket@@QAAXXZ  10016f38 f   wininet_common:icsocket.obj
 0001:00015f3c       ?Disconnect@ICSocket@@UAAKK@Z 10016f3c f   wininet_common:icsocket.obj
 0001:00015fa4       ?_ReleaseSocketHandle@ICSocket@@QAAXI@Z 10016fa4 f   wininet_common:icsocket.obj
 0001:00015fcc       ?SetTimeout@ICSocket@@QAAKKH@Z 10016fcc f   wininet_common:icsocket.obj
 0001:00016084       ?SetLinger@ICSocket@@QAAKHH@Z 10017084 f   wininet_common:icsocket.obj
 0001:00016148       ?SetNonBlockingMode@ICSocket@@QAAKH@Z 10017148 f   wininet_common:icsocket.obj
 0001:00016218       ?SetSendCoalescing@ICSocket@@QAAKH@Z 10017218 f   wininet_common:icsocket.obj
 0001:000162d0       ?Send_Start@ICSocket@@QAAKPAVCFsm_SocketSend@@@Z 100172d0 f   wininet_common:icsocket.obj
 0001:00016690       ?Receive_Continue@ICSocket@@QAAKPAVCFsm_SocketReceive@@@Z 10017690 f   wininet_common:icsocket.obj
 0001:00016b2c       ?DataAvailable@ICSocket@@QAAKPAK@Z 10017b2c f   wininet_common:icsocket.obj
 0001:00016d54       ?AllocateQueryBuffer@ICSocket@@QAAKPAPAXPAK@Z 10017d54 f   wininet_common:icsocket.obj
 0001:00016e3c       ?CreateSocket@ICSocket@@QAAKKHHH@Z 10017e3c f   wininet_common:icsocket.obj
 0001:00016fc0       ?GetSockName@ICSocket@@QAAKPAUsockaddr@@H@Z 10017fc0 f   wininet_common:icsocket.obj
 0001:0001704c       ?GetPeerName@ICSocket@@QAAKPAUsockaddr@@H@Z 1001804c f   wininet_common:icsocket.obj
 0001:000170d8       ?Listen@ICSocket@@QAAKXZ   100180d8 f   wininet_common:icsocket.obj
 0001:00017154       ??_GICSocket@@UAAPAXI@Z    10018154 f i wininet_common:icsocket.obj
 0001:00017154       ??_EICSocket@@UAAPAXI@Z    10018154 f i wininet_common:icsocket.obj
 0001:00017194       ?Connect_Finish@ICSocket@@QAAKPAVCFsm_SocketConnect@@@Z 10018194 f   wininet_common:icsocket.obj
 0001:000172a8       ?SocksConnect@ICSocket@@QAAHPAUsockaddr_in@@H@Z 100182a8 f   wininet_common:icsocket.obj
 0001:00017434       ?IsReset@ICSocket@@QAAHXZ  10018434 f   wininet_common:icsocket.obj
 0001:0001751c       ?RunSM@CFsm_SocketSend@@SAKPAVCFsm@@@Z 1001851c f   wininet_common:icsocket.obj
 0001:00017560       ?Receive_Start@ICSocket@@QAAKPAVCFsm_SocketReceive@@@Z 10018560 f   wininet_common:icsocket.obj
 0001:000176d0       ?DirectConnect@ICSocket@@QAAKPAUsockaddr@@@Z 100186d0 f   wininet_common:icsocket.obj
 0001:0001785c       ??0CFsm_SocketSend@@QAA@PAXKKPAVICSocket@@@Z 1001885c f i wininet_common:icsocket.obj
 0001:000178dc       ??_GCFsm_SocketSend@@UAAPAXI@Z 100188dc f i wininet_common:icsocket.obj
 0001:000178dc       ??_ECFsm_SocketSend@@UAAPAXI@Z 100188dc f i wininet_common:icsocket.obj
 0001:00017900       ?Send@ICSocket@@UAAKPAXKK@Z 10018900 f   wininet_common:icsocket.obj
 0001:00017950       ?RunSM@CFsm_SocketReceive@@SAKPAVCFsm@@@Z 10018950 f   wininet_common:icsocket.obj
 0001:00017994       ??0CFsm_SocketReceive@@QAA@PAPAXPAK11KKPAHPAVICSocket@@@Z 10018994 f i wininet_common:icsocket.obj
 0001:00017a5c       ??_GCFsm_SocketReceive@@UAAPAXI@Z 10018a5c f i wininet_common:icsocket.obj
 0001:00017a5c       ??_ECFsm_SocketReceive@@UAAPAXI@Z 10018a5c f i wininet_common:icsocket.obj
 0001:00017a80       ?Receive@ICSocket@@UAAKPAPAXPAK11KKPAH@Z 10018a80 f   wininet_common:icsocket.obj
 0001:00017af0       ?ResolveHostCm@CServerInfo@@QAAKPAKKGVAcquiredConnSP@@@Z 10018af0 f i wininet_common:icsocket.obj
 0001:00017b64       ?GiveupAcquiredHandle@CFsm_SocketConnect@@QAA?AVAcquiredConnSP@@XZ 10018b64 f i wininet_common:icsocket.obj
 0001:00017bbc       ?Connect_Error@ICSocket@@QAAKPAVCFsm_SocketConnect@@@Z 10018bbc f   wininet_common:icsocket.obj
 0001:00017e10       ?Connect_Continue@ICSocket@@QAAKPAVCFsm_SocketConnect@@@Z 10018e10 f   wininet_common:icsocket.obj
 0001:00017ef0       ?Connect_Start@ICSocket@@QAAKPAVCFsm_SocketConnect@@@Z 10018ef0 f   wininet_common:icsocket.obj
 0001:0001873c       ?RunSM@CFsm_SocketConnect@@SAKPAVCFsm@@@Z 1001973c f   wininet_common:icsocket.obj
 0001:0001878c       ??0CFsm_SocketConnect@@QAA@JHKPAVICSocket@@@Z 1001978c f i wininet_common:icsocket.obj
 0001:00018834       ??_ECFsm_SocketConnect@@UAAPAXI@Z 10019834 f i wininet_common:icsocket.obj
 0001:00018834       ??_GCFsm_SocketConnect@@UAAPAXI@Z 10019834 f i wininet_common:icsocket.obj
 0001:00018864       ?SocketConnect@ICSocket@@QAAKJHKPAVCServerInfo@@@Z 10019864 f   wininet_common:icsocket.obj
 0001:000188c0       ?Connect@ICSocket@@UAAKJHK@Z 100198c0 f   wininet_common:icsocket.obj
 0001:00018910       ?IsTimedOut@CFsm@@QAAHK@Z  10019910 f i wininet_common:icasync.obj
 0001:00018958       ?FlushCacheThread@@YAXPAX@Z 10019958 f   wininet_common:icasync.obj
 0001:0001897c       ?BlockWorkItem@ICAsyncThread@@QAAKPAVCFsm@@KK@Z 1001997c f   wininet_common:icasync.obj
 0001:000189e8       ?UnblockWorkItems@ICAsyncThread@@QAAKKKKJ@Z 100199e8 f   wininet_common:icasync.obj
 0001:00018a9c       ?DestroySelectSocket@ICAsyncThread@@QAAXXZ 10019a9c f   wininet_common:icasync.obj
 0001:00018acc       ?InterruptSelect@ICAsyncThread@@QAAXXZ 10019acc f   wininet_common:icasync.obj
 0001:00018b38       ?DrainSelectSocket@ICAsyncThread@@QAAHXZ 10019b38 f   wininet_common:icasync.obj
 0001:00018bbc       BlockWorkItem              10019bbc f   wininet_common:icasync.obj
 0001:00018bf0       UnblockWorkItems           10019bf0 f   wininet_common:icasync.obj
 0001:00018c34       ??1ICAsyncThread@@QAA@XZ   10019c34 f   wininet_common:icasync.obj
 0001:00018cb0       ?QueueSocketWorkItem@ICAsyncThread@@QAAKPAVCFsm@@@Z 10019cb0 f   wininet_common:icasync.obj
 0001:00018d0c       ?CreateSelectSocket@ICAsyncThread@@QAAKXZ 10019d0c f   wininet_common:icasync.obj
 0001:00018ef4       ?RecreateSelectSocket@ICAsyncThread@@QAAXXZ 10019ef4 f   wininet_common:icasync.obj
 0001:00018f40       InterruptSelect            10019f40 f   wininet_common:icasync.obj
 0001:00018f8c       QueueSocketWorkItem        10019f8c f   wininet_common:icasync.obj
 0001:00018fc8       TerminateAsyncSupport      10019fc8 f   wininet_common:icasync.obj
 0001:00018ff8       ?SelectThread@ICAsyncThread@@QAAKXZ 10019ff8 f   wininet_common:icasync.obj
 0001:00019614       ?SelectThreadWrapper@ICAsyncThread@@SAXPAV1@@Z 1001a614 f   wininet_common:icasync.obj
 0001:00019638       ??0ICAsyncThread@@QAA@XZ   1001a638 f i wininet_common:icasync.obj
 0001:00019704       InitializeAsyncSupport     1001a704 f   wininet_common:icasync.obj
 0001:000197ac       ??1ICSTRING@@QAA@XZ        1001a7ac f   wininet_common:icstring.obj
 0001:000197e8       ??YICSTRING@@QAAXD@Z       1001a7e8 f   wininet_common:icstring.obj
 0001:0001988c       ?Strncat@ICSTRING@@QAAXPAXK@Z 1001a88c f   wininet_common:icstring.obj
 0001:0001994c       ?CreateOffsetString@ICSTRING@@QAAXKK@Z 1001a94c f   wininet_common:icstring.obj
 0001:00019960       ?CopyTo@ICSTRING@@QAAXPAD0K@Z 1001a960 f   wininet_common:icstring.obj
 0001:000199a4       ?CopyTo@ICSTRING@@QAAXPADK@Z 1001a9a4 f   wininet_common:icstring.obj
 0001:000199d8       ?CopyTo@ICSTRING@@QAAXPADPAK@Z 1001a9d8 f   wininet_common:icstring.obj
 0001:00019a18       ??4ICSTRING@@QAAAAV0@PAD@Z 1001aa18 f   wininet_common:icstring.obj
 0001:00019b0c       ??4ICSTRING@@QAAAAV0@AAV0@@Z 1001ab0c f   wininet_common:icstring.obj
 0001:00019b78       ?CreateStringBuffer@ICSTRING@@QAAXPAXKK@Z 1001ab78 f   wininet_common:icstring.obj
 0001:00019c08       ?IsInitialized@BaseCmWrapper@@UBAHXZ 1001ac08 f i wininet_common:caddrlst.obj
 0001:00019c1c       ?FreeList@CAddressList@@QAAXXZ 1001ac1c f   wininet_common:caddrlst.obj
 0001:00019c50       ?GetNextAddress@CAddressList@@QAAHPAK0GPAU_CSADDR_INFO@@@Z 1001ac50 f   wininet_common:caddrlst.obj
 0001:00019e1c       ?InvalidateAddress@CAddressList@@QAAXKK@Z 1001ae1c f   wininet_common:caddrlst.obj
 0001:00019edc       ?AddrInfoToAddressList@CAddressList@@AAAKPAUaddrinfo@@0@Z 1001aedc f   wininet_common:caddrlst.obj
 0001:0001a0a4       ?SetList@CAddressList@@QAAKPAUaddrinfo@@0@Z 1001b0a4 f   wininet_common:caddrlst.obj
 0001:0001a0fc       ?ResolveHost_Fsm@CAddressList@@QAAKPAVCFsm_ResolveHost@@@Z 1001b0fc f   wininet_common:caddrlst.obj
 0001:0001a6d0       ?RunSM@CFsm_ResolveHost@@SAKPAVCFsm@@@Z 1001b6d0 f   wininet_common:caddrlst.obj
 0001:0001a730       ??0CFsm_ResolveHost@@QAA@PADPAKKPAVCAddressList@@@Z 1001b730 f i wininet_common:caddrlst.obj
 0001:0001a784       ??_ECFsm_ResolveHost@@UAAPAXI@Z 1001b784 f i wininet_common:caddrlst.obj
 0001:0001a784       ??_GCFsm_ResolveHost@@UAAPAXI@Z 1001b784 f i wininet_common:caddrlst.obj
 0001:0001a7cc       ?ResolveHost@CAddressList@@QAAKPADPAKK@Z 1001b7cc f   wininet_common:caddrlst.obj
 0001:0001a830       ?InitCmAddrEnum@CFsm_ResolveHost@@QAAKPBGGVAcquiredConnSP@@@Z 1001b830 f i wininet_common:caddrlst.obj
 0001:0001a8e0       ?ResolveHostCm@CAddressList@@QAAKPADPAKKGVAcquiredConnSP@@@Z 1001b8e0 f   wininet_common:caddrlst.obj
 0001:0001a9fc       IN6_IS_ADDR_LOOPBACK       1001b9fc f i wininet_common:iwinsock.obj
 0001:0001aa64       IwinsockInitialize         1001ba64 f   wininet_common:iwinsock.obj
 0001:0001aa84       IwinsockTerminate          1001ba84 f   wininet_common:iwinsock.obj
 0001:0001aab0       UnloadWinsock              1001bab0 f   wininet_common:iwinsock.obj
 0001:0001ab58       ParseHostName              1001bb58 f   wininet_common:iwinsock.obj
 0001:0001ad08       MyGetAddrWithTracing       1001bd08 f   wininet_common:iwinsock.obj
 0001:0001ad28       LoadWinsock                1001bd28 f   wininet_common:iwinsock.obj
 0001:0001ae20       InitializeResolverCache    1001be20 f   wininet_common:rescache.obj
 0001:0001aea4       ?RemoveCacheEntry@@YAXPAURESOLVER_CACHE_ENTRY@@@Z 1001bea4 f   wininet_common:rescache.obj
 0001:0001af2c       ?AddrInfoMatch@@YAHPAUaddrinfo@@PADPAUsockaddr@@@Z 1001bf2c f   wininet_common:rescache.obj
 0001:0001afc8       ?CreateCacheEntry@@YAPAURESOLVER_CACHE_ENTRY@@PADPAUaddrinfo@@K@Z 1001bfc8 f   wininet_common:rescache.obj
 0001:0001b0bc       FlushResolverCache         1001c0bc f   wininet_common:rescache.obj
 0001:0001b124       ReleaseResolverCacheEntry  1001c124 f   wininet_common:rescache.obj
 0001:0001b184       ThrowOutResolverCacheEntry 1001c184 f   wininet_common:rescache.obj
 0001:0001b214       ?ResolverCacheHit@@YAHPAURESOLVER_CACHE_ENTRY@@PADPAUsockaddr@@@Z 1001c214 f   wininet_common:rescache.obj
 0001:0001b27c       TerminateResolverCache     1001c27c f   wininet_common:rescache.obj
 0001:0001b2d4       QueryResolverCache         1001c2d4 f   wininet_common:rescache.obj
 0001:0001b460       AddResolverCacheEntry      1001c460 f   wininet_common:rescache.obj
 0001:0001b5bc       ?RemoveEntry@SVSLinkManager@@QAAHPAX@Z 1001c5bc f i wininet_common:fsm.obj
 0001:0001b640       ?GetNextJobFromQueue@SVSThreadPool@@IAAPAVSVSThreadBlock@@XZ 1001c640 f i wininet_common:fsm.obj
 0001:0001b684       ?InsertIntoRunList@SVSThreadPool@@IAAXPAVSVSThreadBlock@@@Z 1001c684 f i wininet_common:fsm.obj
 0001:0001b704       ?EndWorkerThread@SVSThreadPool@@IAAXPAPAXPAX0@Z 1001c704 f i wininet_common:fsm.obj
 0001:0001b7a0       ?GetDelayUntilNextEvent@SVSThreadPool@@IAAKXZ 1001c7a0 f i wininet_common:fsm.obj
 0001:0001b7ec       ?Worker@SVSThreadPool@@IAAXPAPAX@Z 1001c7ec f i wininet_common:fsm.obj
 0001:0001ba48       ?SVSThreadPoolWorkerThread@SVSThreadPool@@KAKPAX@Z 1001ca48 f i wininet_common:fsm.obj
 0001:0001ba88       ?ContainingFsm@@YAPAVCFsm@@PAX@Z 1001ca88 f   wininet_common:fsm.obj
 0001:0001ba90       ?ReleaseSocket@CFsm@@QAAXXZ 1001ca90 f   wininet_common:fsm.obj
 0001:0001bab8       ?CreateNewWorkerThread@SVSThreadPool@@IAAHXZ 1001cab8 f i wininet_common:fsm.obj
 0001:0001bbcc       ?PutOnWorkerQueue@SVSThreadPool@@IAAKP6AKPAX@Z0K@Z 1001cbcc f i wininet_common:fsm.obj
 0001:0001bc78       ??0SVSThreadPool@@QAA@KJ@Z 1001cc78 f i wininet_common:fsm.obj
 0001:0001bd54       ?ScheduleEvent@SVSThreadPool@@QAAKP6AKPAX@Z0K@Z 1001cd54 f i wininet_common:fsm.obj
 0001:0001bdb8       ??0CFsm@@QAA@P6AKPAV0@@ZPAX@Z 1001cdb8 f   wininet_common:fsm.obj
 0001:0001be84       ??1CFsm@@UAA@XZ            1001ce84 f   wininet_common:fsm.obj
 0001:0001bebc       ?Run@CFsm@@QAAKPAU_INTERNET_THREAD_INFO@@PAK1@Z 1001cebc f   wininet_common:fsm.obj
 0001:0001bf8c       ?DoFsm@@YAKPAVCFsm@@@Z     1001cf8c f   wininet_common:fsm.obj
 0001:0001c01c       ??_GCFsm@@UAAPAXI@Z        1001d01c f i wininet_common:fsm.obj
 0001:0001c01c       ??_ECFsm@@UAAPAXI@Z        1001d01c f i wininet_common:fsm.obj
 0001:0001c040       ?RunWorkItem@CFsm@@SAKPAV1@@Z 1001d040 f   wininet_common:fsm.obj
 0001:0001c1a8       ?QueueWorkItem@CFsm@@QAAKXZ 1001d1a8 f   wininet_common:fsm.obj
 0001:0001c260       HandleInitialize           1001d260 f   wininet_common:handle.obj
 0001:0001c328       HandleTerminate            1001d328 f   wininet_common:handle.obj
 0001:0001c3f4       AllocateHandle             1001d3f4 f   wininet_common:handle.obj
 0001:0001c654       MapHandleToAddress         1001d654 f   wininet_common:handle.obj
 0001:0001c760       DereferenceObject          1001d760 f   wininet_common:handle.obj
 0001:0001c794       FreeHandle                 1001d794 f   wininet_common:handle.obj
 0001:0001c8d0       ?ExpireUrl@INTERNET_CONNECT_HANDLE_OBJECT@@QAAKXZ 1001d8d0 f i wininet_ftp:ftpapia.obj
 0001:0001c91c       ?RunSM@CFsm_FtpFindFirstFile@@SAKPAVCFsm@@@Z 1001d91c f i wininet_ftp:ftpapia.obj
 0001:0001c980       ??0CFsm_FtpFindFirstFile@@QAA@PBDPAU_WIN32_FIND_DATAA@@KK@Z 1001d980 f i wininet_ftp:ftpapia.obj
 0001:0001ca18       ??_ECFsm_FtpFindFirstFile@@UAAPAXI@Z 1001da18 f i wininet_ftp:ftpapia.obj
 0001:0001ca18       ??_GCFsm_FtpFindFirstFile@@UAAPAXI@Z 1001da18 f i wininet_ftp:ftpapia.obj
 0001:0001ca64       ?RunSM@CFsm_FtpDeleteFile@@SAKPAVCFsm@@@Z 1001da64 f i wininet_ftp:ftpapia.obj
 0001:0001ca9c       ??0CFsm_FtpDeleteFile@@QAA@PAXPBD@Z 1001da9c f i wininet_ftp:ftpapia.obj
 0001:0001cb2c       ??_ECFsm_FtpDeleteFile@@UAAPAXI@Z 1001db2c f i wininet_ftp:ftpapia.obj
 0001:0001cb2c       ??_GCFsm_FtpDeleteFile@@UAAPAXI@Z 1001db2c f i wininet_ftp:ftpapia.obj
 0001:0001cb78       ?RunSM@CFsm_FtpRenameFile@@SAKPAVCFsm@@@Z 1001db78 f i wininet_ftp:ftpapia.obj
 0001:0001cbb4       ??0CFsm_FtpRenameFile@@QAA@PAXPBD1@Z 1001dbb4 f i wininet_ftp:ftpapia.obj
 0001:0001cc74       ??1CFsm_FtpRenameFile@@UAA@XZ 1001dc74 f i wininet_ftp:ftpapia.obj
 0001:0001ccc4       ??_GCFsm_FtpRenameFile@@UAAPAXI@Z 1001dcc4 f i wininet_ftp:ftpapia.obj
 0001:0001ccc4       ??_ECFsm_FtpRenameFile@@UAAPAXI@Z 1001dcc4 f i wininet_ftp:ftpapia.obj
 0001:0001cce8       ?RunSM@CFsm_FtpCommand@@SAKPAVCFsm@@@Z 1001dce8 f i wininet_ftp:ftpapia.obj
 0001:0001cd58       ??0CFsm_FtpCommand@@QAA@PAXHKPBDKPAPAX@Z 1001dd58 f i wininet_ftp:ftpapia.obj
 0001:0001ce00       ??_ECFsm_FtpCommand@@UAAPAXI@Z 1001de00 f i wininet_ftp:ftpapia.obj
 0001:0001ce00       ??_GCFsm_FtpCommand@@UAAPAXI@Z 1001de00 f i wininet_ftp:ftpapia.obj
 0001:0001ce4c       ?RunSM@CFsm_FtpOpenFile@@SAKPAVCFsm@@@Z 1001de4c f i wininet_ftp:ftpapia.obj
 0001:0001ceac       ??0CFsm_FtpOpenFile@@QAA@PAXKPBDKK@Z 1001deac f i wininet_ftp:ftpapia.obj
 0001:0001cf50       ??_ECFsm_FtpOpenFile@@UAAPAXI@Z 1001df50 f i wininet_ftp:ftpapia.obj
 0001:0001cf50       ??_GCFsm_FtpOpenFile@@UAAPAXI@Z 1001df50 f i wininet_ftp:ftpapia.obj
 0001:0001cf9c       ?RunSM@CFsm_FtpCreateDirectory@@SAKPAVCFsm@@@Z 1001df9c f i wininet_ftp:ftpapia.obj
 0001:0001cfd4       ??0CFsm_FtpCreateDirectory@@QAA@PAXPBD@Z 1001dfd4 f i wininet_ftp:ftpapia.obj
 0001:0001d064       ??_GCFsm_FtpCreateDirectory@@UAAPAXI@Z 1001e064 f i wininet_ftp:ftpapia.obj
 0001:0001d064       ??_ECFsm_FtpCreateDirectory@@UAAPAXI@Z 1001e064 f i wininet_ftp:ftpapia.obj
 0001:0001d0b0       ?RunSM@CFsm_FtpRemoveDirectory@@SAKPAVCFsm@@@Z 1001e0b0 f i wininet_ftp:ftpapia.obj
 0001:0001d0e8       ??0CFsm_FtpRemoveDirectory@@QAA@PAXPBD@Z 1001e0e8 f i wininet_ftp:ftpapia.obj
 0001:0001d178       ??_ECFsm_FtpRemoveDirectory@@UAAPAXI@Z 1001e178 f i wininet_ftp:ftpapia.obj
 0001:0001d178       ??_GCFsm_FtpRemoveDirectory@@UAAPAXI@Z 1001e178 f i wininet_ftp:ftpapia.obj
 0001:0001d1c4       ?RunSM@CFsm_FtpSetCurrentDirectory@@SAKPAVCFsm@@@Z 1001e1c4 f i wininet_ftp:ftpapia.obj
 0001:0001d1fc       ??0CFsm_FtpSetCurrentDirectory@@QAA@PAXPBD@Z 1001e1fc f i wininet_ftp:ftpapia.obj
 0001:0001d28c       ??_GCFsm_FtpSetCurrentDirectory@@UAAPAXI@Z 1001e28c f i wininet_ftp:ftpapia.obj
 0001:0001d28c       ??_ECFsm_FtpSetCurrentDirectory@@UAAPAXI@Z 1001e28c f i wininet_ftp:ftpapia.obj
 0001:0001d2d8       ?RunSM@CFsm_FtpGetCurrentDirectory@@SAKPAVCFsm@@@Z 1001e2d8 f i wininet_ftp:ftpapia.obj
 0001:0001d314       ??0CFsm_FtpGetCurrentDirectory@@QAA@PAXPADPAK@Z 1001e314 f i wininet_ftp:ftpapia.obj
 0001:0001d374       FtpGetFileA                1001e374 f   wininet_ftp:ftpapia.obj
 0001:0001d4dc       FtpPutFileA                1001e4dc f   wininet_ftp:ftpapia.obj
 0001:0001d638       InternalFtpRemoveDirectoryA 1001e638 f   wininet_ftp:ftpapia.obj
 0001:0001d83c       InternalFtpSetCurrentDirectoryA 1001e83c f   wininet_ftp:ftpapia.obj
 0001:0001da5c       InternalFtpCommandA        1001ea5c f   wininet_ftp:ftpapia.obj
 0001:0001dcfc       FtpGetFileSize             1001ecfc f   wininet_ftp:ftpapia.obj
 0001:0001de7c       FtpWriteFile               1001ee7c f   wininet_ftp:ftpapia.obj
 0001:0001df28       pFtpGetUrlString           1001ef28 f   wininet_ftp:ftpapia.obj
 0001:0001e174       ?FFtpCanReadFromCache@@YAHPAX@Z 1001f174 f   wininet_ftp:ftpapia.obj
 0001:0001e1b8       InbLocalEndCacheWrite      1001f1b8 f   wininet_ftp:ftpapia.obj
 0001:0001e258       ?FIsFtpExpired@@YAHPAXPAU_INTERNET_CACHE_ENTRY_INFOA@@@Z 1001f258 f   wininet_ftp:ftpapia.obj
 0001:0001e2a0       ?IsSearchFileDirectory@@YAHPBD@Z 1001f2a0 f   wininet_ftp:ftpapia.obj
 0001:0001e2dc       ??_GCFsm_FtpGetCurrentDirectory@@UAAPAXI@Z 1001f2dc f i wininet_ftp:ftpapia.obj
 0001:0001e2dc       ??_ECFsm_FtpGetCurrentDirectory@@UAAPAXI@Z 1001f2dc f i wininet_ftp:ftpapia.obj
 0001:0001e300       InternalFtpDeleteFileA     1001f300 f   wininet_ftp:ftpapia.obj
 0001:0001e528       InternalFtpRenameFileA     1001f528 f   wininet_ftp:ftpapia.obj
 0001:0001e770       InternalFtpCreateDirectoryA 1001f770 f   wininet_ftp:ftpapia.obj
 0001:0001e9a8       FtpRemoveDirectoryA        1001f9a8 f   wininet_ftp:ftpapia.obj
 0001:0001e9b0       FtpSetCurrentDirectoryA    1001f9b0 f   wininet_ftp:ftpapia.obj
 0001:0001e9b8       InternalFtpGetCurrentDirectoryA 1001f9b8 f   wininet_ftp:ftpapia.obj
 0001:0001eba4       FtpCommandA                1001fba4 f   wininet_ftp:ftpapia.obj
 0001:0001ebd0       FtpFindNextFileA           1001fbd0 f   wininet_ftp:ftpapia.obj
 0001:0001ed20       FtpReadFile                1001fd20 f   wininet_ftp:ftpapia.obj
 0001:0001ee2c       ?FBeginCacheReadProcessing@@YAHPAXPBDKKKH@Z 1001fe2c f   wininet_ftp:ftpapia.obj
 0001:0001ef68       ?FBeginCacheWriteProcessing@@YAHPAXPBDKKKH@Z 1001ff68 f   wininet_ftp:ftpapia.obj
 0001:0001f090       InternalFtpFindFirstFileA  10020090 f   wininet_ftp:ftpapia.obj
 0001:0001f554       FtpDeleteFileA             10020554 f   wininet_ftp:ftpapia.obj
 0001:0001f55c       FtpRenameFileA             1002055c f   wininet_ftp:ftpapia.obj
 0001:0001f564       InternalFtpOpenFileA       10020564 f   wininet_ftp:ftpapia.obj
 0001:0001f9e8       FtpCreateDirectoryA        100209e8 f   wininet_ftp:ftpapia.obj
 0001:0001f9f0       FtpGetCurrentDirectoryA    100209f0 f   wininet_ftp:ftpapia.obj
 0001:0001f9f8       FtpFindFirstFileA          100209f8 f   wininet_ftp:ftpapia.obj
 0001:0001fa24       FtpOpenFileA               10020a24 f   wininet_ftp:ftpapia.obj
 0001:0001fa4c       ?RunSM@CFsm_FtpGetFile@@SAKPAVCFsm@@@Z 10020a4c f i wininet_ftp:ftpapiw.obj
 0001:0001fab4       ??0CFsm_FtpGetFile@@QAA@PAXKPBG1HKK@Z 10020ab4 f i wininet_ftp:ftpapiw.obj
 0001:0001fb8c       ??1CFsm_FtpGetFile@@UAA@XZ 10020b8c f i wininet_ftp:ftpapiw.obj
 0001:0001fbdc       ??_GCFsm_FtpGetFile@@UAAPAXI@Z 10020bdc f i wininet_ftp:ftpapiw.obj
 0001:0001fbdc       ??_ECFsm_FtpGetFile@@UAAPAXI@Z 10020bdc f i wininet_ftp:ftpapiw.obj
 0001:0001fc00       ?RunSM@CFsm_FtpPutFile@@SAKPAVCFsm@@@Z 10020c00 f i wininet_ftp:ftpapiw.obj
 0001:0001fc58       ??0CFsm_FtpPutFile@@QAA@PAXKPBG1K@Z 10020c58 f i wininet_ftp:ftpapiw.obj
 0001:0001fd20       ??1CFsm_FtpPutFile@@UAA@XZ 10020d20 f i wininet_ftp:ftpapiw.obj
 0001:0001fd70       ??_ECFsm_FtpPutFile@@UAAPAXI@Z 10020d70 f i wininet_ftp:ftpapiw.obj
 0001:0001fd70       ??_GCFsm_FtpPutFile@@UAAPAXI@Z 10020d70 f i wininet_ftp:ftpapiw.obj
 0001:0001fd94       ?TransformFtpFindDataToW@@YAHPAU_WIN32_FIND_DATAA@@PAU_WIN32_FIND_DATAW@@@Z 10020d94 f   wininet_ftp:ftpapiw.obj
 0001:0001fe24       FtpFindFirstFileW          10020e24 f   wininet_ftp:ftpapiw.obj
 0001:0001ff4c       FtpDeleteFileW             10020f4c f   wininet_ftp:ftpapiw.obj
 0001:00020038       FtpRenameFileW             10021038 f   wininet_ftp:ftpapiw.obj
 0001:000201c4       FtpOpenFileW               100211c4 f   wininet_ftp:ftpapiw.obj
 0001:000202c4       FtpCreateDirectoryW        100212c4 f   wininet_ftp:ftpapiw.obj
 0001:000203b0       FtpRemoveDirectoryW        100213b0 f   wininet_ftp:ftpapiw.obj
 0001:00020498       FtpSetCurrentDirectoryW    10021498 f   wininet_ftp:ftpapiw.obj
 0001:00020580       FtpGetCurrentDirectoryW    10021580 f   wininet_ftp:ftpapiw.obj
 0001:000206a8       FtpCommandW                100216a8 f   wininet_ftp:ftpapiw.obj
 0001:000207b0       InternalFtpGetFileW        100217b0 f   wininet_ftp:ftpapiw.obj
 0001:00020ba4       InternalFtpPutFileW        10021ba4 f   wininet_ftp:ftpapiw.obj
 0001:00020f80       FtpGetFileW                10021f80 f   wininet_ftp:ftpapiw.obj
 0001:00020fb4       FtpPutFileW                10021fb4 f   wininet_ftp:ftpapiw.obj
 0001:00020fd8       FtpGetFileEx               10021fd8 f   wininet_ftp:ftpapiw.obj
 0001:000210d0       FtpPutFileEx               100220d0 f   wininet_ftp:ftpapiw.obj
 0001:000211bc       wFtpFindFirstFile          100221bc f   wininet_ftp:ftpapir.obj
 0001:00021630       wFtpDeleteFile             10022630 f   wininet_ftp:ftpapir.obj
 0001:000216a0       wFtpRenameFile             100226a0 f   wininet_ftp:ftpapir.obj
 0001:00021750       wFtpOpenFile               10022750 f   wininet_ftp:ftpapir.obj
 0001:000218b4       wFtpCreateDirectory        100228b4 f   wininet_ftp:ftpapir.obj
 0001:00021924       wFtpRemoveDirectory        10022924 f   wininet_ftp:ftpapir.obj
 0001:00021994       wFtpSetCurrentDirectory    10022994 f   wininet_ftp:ftpapir.obj
 0001:00021a04       wFtpGetCurrentDirectory    10022a04 f   wininet_ftp:ftpapir.obj
 0001:00021b10       wFtpCommand                10022b10 f   wininet_ftp:ftpapir.obj
 0001:00021b88       wFtpFindNextFile           10022b88 f   wininet_ftp:ftpapir.obj
 0001:00021c20       wFtpFindClose              10022c20 f   wininet_ftp:ftpapir.obj
 0001:00021c74       wFtpConnect                10022c74 f   wininet_ftp:ftpapir.obj
 0001:00021cb0       wFtpReadFile               10022cb0 f   wininet_ftp:ftpapir.obj
 0001:00021e74       wFtpWriteFile              10022e74 f   wininet_ftp:ftpapir.obj
 0001:00021f14       wFtpQueryDataAvailable     10022f14 f   wininet_ftp:ftpapir.obj
 0001:00022038       wFtpCloseFile              10023038 f   wininet_ftp:ftpapir.obj
 0001:00022128       wFtpDisconnect             10023128 f   wininet_ftp:ftpapir.obj
 0001:00022200       wFtpMakeConnection         10023200 f   wininet_ftp:ftpapir.obj
 0001:00022384       CreateFtpSession           10023384 f   wininet_ftp:session.obj
 0001:0002253c       ?DestroyFtpSession@@YAXPAUFTP_SESSION_INFO@@@Z 1002353c f   wininet_ftp:session.obj
 0001:00022620       FindFtpSession             10023620 f   wininet_ftp:session.obj
 0001:000226b4       CleanupFtpSessions         100236b4 f   wininet_ftp:session.obj
 0001:00022738       TerminateFtpSession        10023738 f   wininet_ftp:session.obj
 0001:0002278c       DereferenceFtpSession      1002378c f   wininet_ftp:session.obj
 0001:00022804       IsFilespecWild             10023804 f   wininet_ftp:dirlist.obj
 0001:0002284c       ClearFindList              1002384c f   wininet_ftp:dirlist.obj
 0001:00022890       ?GetToken@@YAHPADK0PAK@Z   10023890 f   wininet_ftp:dirlist.obj
 0001:00022934       ?IsUnixAttributeFormat@@YAHPADK@Z 10023934 f   wininet_ftp:dirlist.obj
 0001:000229b0       ?ReadUnixPermissions@@YAXPBDKPAK@Z 100239b0 f   wininet_ftp:dirlist.obj
 0001:00022a74       ?ExtractFileSize@@YAHPAPADPAKPAU_WIN32_FIND_DATAA@@@Z 10023a74 f   wininet_ftp:dirlist.obj
 0001:00022af0       ?_ExtractFilename@@YAHPAPADPAKPAU_WIN32_FIND_DATAA@@@Z 10023af0 f   wininet_ftp:dirlist.obj
 0001:00022b5c       ?ExtractOs2Attributes@@YAHPAPADPAKPAU_WIN32_FIND_DATAA@@@Z 10023b5c f   wininet_ftp:dirlist.obj
 0001:00022c0c       ?ParseWord@@YAHPAPADPAKGGPAG@Z 10023c0c f   wininet_ftp:dirlist.obj
 0001:00022c5c       ?IsNtDateFormat@@YAHPADK@Z 10023c5c f   wininet_ftp:dirlist.obj
 0001:00022d50       ?ParseMacDirectory@@YA?AW4PARSE_STATE@@PAPADPAKPAU_WIN32_FIND_DATAA@@@Z 10023d50 f   wininet_ftp:dirlist.obj
 0001:00022e08       ?ExtractNtDate@@YAHPAPADPAKPAU_WIN32_FIND_DATAA@@@Z 10023e08 f   wininet_ftp:dirlist.obj
 0001:00023078       ?ExtractUnixDate@@YAHPAPADPAKPAU_WIN32_FIND_DATAA@@@Z 10024078 f   wininet_ftp:dirlist.obj
 0001:000232c4       ?ParseNtDirectory@@YA?AW4PARSE_STATE@@PAPADPAKPAU_WIN32_FIND_DATAA@@@Z 100242c4 f   wininet_ftp:dirlist.obj
 0001:00023380       ?ParseUnixDirectory@@YA?AW4PARSE_STATE@@PAPADPAKPAU_WIN32_FIND_DATAA@@@Z 10024380 f   wininet_ftp:dirlist.obj
 0001:000234c8       ?ParseOs2Directory@@YA?AW4PARSE_STATE@@PAPADPAKPAU_WIN32_FIND_DATAA@@@Z 100244c8 f   wininet_ftp:dirlist.obj
 0001:000235e0       ?DetermineDirectoryFormat@@YAHPAPADPAKPAP6A?AW4PARSE_STATE@@01PAU_WIN32_FIND_DATAA@@@Z@Z 100245e0 f   wininet_ftp:dirlist.obj
 0001:0002385c       ParseDirList               1002485c f   wininet_ftp:dirlist.obj
 0001:00023a2c       ReceiveFtpResponse         10024a2c f   wininet_ftp:protocol.obj
 0001:00023d18       AbortTransfer              10024d18 f   wininet_ftp:protocol.obj
 0001:00023d58       ?I_SendCommand@@YAKPAVICSocket@@PBDPAD@Z 10024d58 f   wininet_ftp:protocol.obj
 0001:00023e30       ?I_AttemptDataNegotiation@@YAKPAUFTP_SESSION_INFO@@KPAUFTP_RESPONSE_CODE@@PBDPAD@Z 10024e30 f   wininet_ftp:protocol.obj
 0001:00023e8c       NegotiateDataConnection    10024e8c f   wininet_ftp:protocol.obj
 0001:00023eb4       GetReply                   10024eb4 f   wininet_ftp:protocol.obj
 0001:00023f54       ?SendCommand@@YAKPAVICSocket@@PBDZZ 10024f54 f   wininet_ftp:protocol.obj
 0001:00023f70       I_Command                  10024f70 f   wininet_ftp:protocol.obj
 0001:000240a4       Command                    100250a4 f   wininet_ftp:protocol.obj
 0001:000240d8       ?I_NegotiateDataConnection@@YAKPAUFTP_SESSION_INFO@@KPAUFTP_RESPONSE_CODE@@PBDPADH@Z 100250d8 f   wininet_ftp:protocol.obj
 0001:00024cec       FtpOpenServer              10025cec f   wininet_ftp:tcputil.obj
 0001:00024f10       ResetSocket                10025f10 f   wininet_ftp:tcputil.obj
 0001:00024f3c       ?MyFsRtlDoesNameContainWildCards@@YAEPBD@Z 10025f3c f   wininet_ftp:name.obj
 0001:00024fb0       ?MyFsRtlIsNameInExpressionPrivate@@YAEPAU_STRING@@0@Z 10025fb0 f   wininet_ftp:name.obj
 0001:00025440       MyFsRtlIsNameInExpression  10026440 f   wininet_ftp:name.obj
 0001:00025524       ?Initialize@RESOURCE_LOCK@@QAAXXZ 10026524 f i wininet_hndlobj:proxysup.obj
 0001:00025584       ?Uninitialize@RESOURCE_LOCK@@QAAXXZ 10026584 f i wininet_hndlobj:proxysup.obj
 0001:000255d0       ?IsEntryExpired@BAD_PROXY_LIST_ENTRY@@QAAHPAU_FILETIME@@@Z 100265d0 f i wininet_hndlobj:proxysup.obj
 0001:00025628       ?SetEntry@BAD_PROXY_LIST_ENTRY@@QAAKPADGU_FILETIME@@@Z 10026628 f i wininet_hndlobj:proxysup.obj
 0001:00025698       ?AddEntry@BAD_PROXY_LIST@@QAAKPADG@Z 10026698 f i wininet_hndlobj:proxysup.obj
 0001:00025808       ?IsBadProxyName@BAD_PROXY_LIST@@QAAHPADG@Z 10026808 f i wininet_hndlobj:proxysup.obj
 0001:00025898       ?WriteEntry@PROXY_SERVER_LIST_ENTRY@@QAAHPADPAK@Z 10026898 f   wininet_hndlobj:proxysup.obj
 0001:00025a80       ?Find@PROXY_SERVER_LIST@@QAAHW4INTERNET_SCHEME@@@Z 10026a80 f   wininet_hndlobj:proxysup.obj
 0001:00025ad8       ?ProxyScheme@PROXY_SERVER_LIST@@QAA?AW4INTERNET_SCHEME@@W42@@Z 10026ad8 f   wininet_hndlobj:proxysup.obj
 0001:00025b40       ?GetProxyHostName@PROXY_SERVER_LIST@@QAAHW4INTERNET_SCHEME@@PAW42@PAPADPAHPAKPAG@Z 10026b40 f   wininet_hndlobj:proxysup.obj
 0001:00025c50       ?GetList@PROXY_SERVER_LIST@@QAAXPAPADKPAK@Z 10026c50 f   wininet_hndlobj:proxysup.obj
 0001:00025d3c       ?WriteEntry@PROXY_BYPASS_LIST_ENTRY@@QAAHPADPAK@Z 10026d3c f   wininet_hndlobj:proxysup.obj
 0001:00025f18       ?Find@PROXY_BYPASS_LIST@@QAAHW4INTERNET_SCHEME@@PADKG@Z 10026f18 f   wininet_hndlobj:proxysup.obj
 0001:00025ffc       ?IsHostInBypassList@PROXY_BYPASS_LIST@@QAAHW4INTERNET_SCHEME@@PADKGH@Z 10026ffc f   wininet_hndlobj:proxysup.obj
 0001:00026244       ?GetList@PROXY_BYPASS_LIST@@QAAXPAPADKPAK@Z 10027244 f   wininet_hndlobj:proxysup.obj
 0001:00026330       ?InitializeProxySettings@PROXY_INFO@@UAAXXZ 10027330 f   wininet_hndlobj:proxysup.obj
 0001:00026370       ?GetProxySettings@PROXY_INFO@@UAAKPAUINTERNET_PROXY_INFO_EX@@H@Z 10027370 f   wininet_hndlobj:proxysup.obj
 0001:0002644c       ?RefreshProxySettings@PROXY_INFO@@UAAKH@Z 1002744c f   wininet_hndlobj:proxysup.obj
 0001:00026454       ?GetProxyStringInfo@PROXY_INFO@@QAAKPAXPAK@Z 10027454 f   wininet_hndlobj:proxysup.obj
 0001:00026540       ?RedoSendRequest@PROXY_INFO@@QAAHPAKPAVAUTO_PROXY_ASYNC_MSG@@HPAVCServerInfo@@2@Z 10027540 f   wininet_hndlobj:proxysup.obj
 0001:00026680       ?GetProxySettings@PROXY_INFO_GLOBAL@@UAAKPAUINTERNET_PROXY_INFO_EX@@H@Z 10027680 f   wininet_hndlobj:proxysup.obj
 0001:000266ec       ?RefreshProxySettings@PROXY_INFO_GLOBAL@@UAAKH@Z 100276ec f   wininet_hndlobj:proxysup.obj
 0001:00026720       ?ReleaseQueuedRefresh@PROXY_INFO_GLOBAL@@QAAXXZ 10027720 f   wininet_hndlobj:proxysup.obj
 0001:00026770       ?GetNextProxy@PROXY_STATE@@QAAHW4INTERNET_SCHEME@@AAVBAD_PROXY_LIST@@PAW42@PAPADPAHPAKPAG@Z 10027770 f   wininet_hndlobj:proxysup.obj
 0001:00026abc       ?GetNextProxy@AUTO_PROXY_ASYNC_MSG@@QAAKAAVBAD_PROXY_LIST@@@Z 10027abc f i wininet_hndlobj:proxysup.obj
 0001:00026b0c       ??0PROXY_BYPASS_LIST_ENTRY@@QAA@W4INTERNET_SCHEME@@PADKG@Z 10027b0c f i wininet_hndlobj:proxysup.obj
 0001:00026b9c       ??0PROXY_SERVER_LIST_ENTRY@@QAA@W4INTERNET_SCHEME@@0PADKG@Z 10027b9c f i wininet_hndlobj:proxysup.obj
 0001:00026bf8       ??1PROXY_SERVER_LIST@@QAA@XZ 10027bf8 f i wininet_hndlobj:proxysup.obj
 0001:00026c90       ?IsHostInBypassList@PROXY_INFO@@IAAHPADK@Z 10027c90 f i wininet_hndlobj:proxysup.obj
 0001:00026cd4       ?Add@PROXY_SERVER_LIST@@QAAKW4INTERNET_SCHEME@@0PADKG@Z 10027cd4 f   wininet_hndlobj:proxysup.obj
 0001:00026da8       ?Add@PROXY_BYPASS_LIST@@QAAKW4INTERNET_SCHEME@@PADKG@Z 10027da8 f   wininet_hndlobj:proxysup.obj
 0001:00026e74       ?IsBypassed@PROXY_BYPASS_LIST@@QAAHW4INTERNET_SCHEME@@PADKGHPAUsockaddr@@@Z 10027e74 f   wininet_hndlobj:proxysup.obj
 0001:00026f00       ?HostBypassesProxy@PROXY_INFO_GLOBAL@@QAAHW4INTERNET_SCHEME@@PADK@Z 10027f00 f   wininet_hndlobj:proxysup.obj
 0001:00026f64       IsHostInProxyBypassList    10027f64 f   wininet_hndlobj:proxysup.obj
 0001:00026fa4       ??1PROXY_BYPASS_LIST@@QAA@XZ 10027fa4 f i wininet_hndlobj:proxysup.obj
 0001:00027044       ?IsBypassed@PROXY_INFO@@IAAHW4INTERNET_SCHEME@@PADKG@Z 10028044 f i wininet_hndlobj:proxysup.obj
 0001:00027138       ?AddList@PROXY_SERVER_LIST@@QAAKPAD@Z 10028138 f   wininet_hndlobj:proxysup.obj
 0001:00027508       ?AddToBypassList@PROXY_SERVER_LIST@@QAAKPAVPROXY_BYPASS_LIST@@@Z 10028508 f   wininet_hndlobj:proxysup.obj
 0001:00027588       ?AddList@PROXY_BYPASS_LIST@@QAAKPAD@Z 10028588 f   wininet_hndlobj:proxysup.obj
 0001:00027884       ?QueryProxySettings@PROXY_INFO@@UAAKPAPAVAUTO_PROXY_ASYNC_MSG@@@Z 10028884 f   wininet_hndlobj:proxysup.obj
 0001:000279b0       ?QueryProxySettings@PROXY_INFO_GLOBAL@@UAAKPAPAVAUTO_PROXY_ASYNC_MSG@@@Z 100289b0 f   wininet_hndlobj:proxysup.obj
 0001:00027a98       ??0PROXY_BYPASS_LIST@@QAA@PBD@Z 10028a98 f i wininet_hndlobj:proxysup.obj
 0001:00027b14       ??0PROXY_SERVER_LIST@@QAA@PBD@Z 10028b14 f i wininet_hndlobj:proxysup.obj
 0001:00027b94       ?CleanOutLists@PROXY_INFO@@IAAXXZ 10028b94 f   wininet_hndlobj:proxysup.obj
 0001:00027be4       ?TerminateProxySettings@PROXY_INFO@@UAAXXZ 10028be4 f   wininet_hndlobj:proxysup.obj
 0001:00027c14       ?SetProxySettings@PROXY_INFO@@UAAKPAUINTERNET_PROXY_INFO_EX@@H@Z 10028c14 f   wininet_hndlobj:proxysup.obj
 0001:00027d44       ?TerminateProxySettings@PROXY_INFO_GLOBAL@@UAAXXZ 10028d44 f   wininet_hndlobj:proxysup.obj
 0001:00027d48       ?SetProxySettings@PROXY_INFO_GLOBAL@@UAAKPAUINTERNET_PROXY_INFO_EX@@H@Z 10028d48 f   wininet_hndlobj:proxysup.obj
 0001:00027ddc       RIsHandleLocal             10028ddc f   wininet_hndlobj:hutil.obj
 0001:00027e2c       RGetHandleType             10028e2c f   wininet_hndlobj:hutil.obj
 0001:00027e68       RSetHtmlHandleType         10028e68 f   wininet_hndlobj:hutil.obj
 0001:00027ed4       RSetHtmlState              10028ed4 f   wininet_hndlobj:hutil.obj
 0001:00027f0c       RGetHtmlState              10028f0c f   wininet_hndlobj:hutil.obj
 0001:00027f48       RSetUrl                    10028f48 f   wininet_hndlobj:hutil.obj
 0001:00027fc8       RGetUrl                    10028fc8 f   wininet_hndlobj:hutil.obj
 0001:00028004       RSetDirEntry               10029004 f   wininet_hndlobj:hutil.obj
 0001:00028080       RGetDirEntry               10029080 f   wininet_hndlobj:hutil.obj
 0001:000280bc       RSetParentHandle           100290bc f   wininet_hndlobj:hutil.obj
 0001:00028100       RGetContext                10029100 f   wininet_hndlobj:hutil.obj
 0001:00028128       RSetContext                10029128 f   wininet_hndlobj:hutil.obj
 0001:0002814c       RGetTimeout                1002914c f   wininet_hndlobj:hutil.obj
 0001:00028188       RSetTimeout                10029188 f   wininet_hndlobj:hutil.obj
 0001:000281c0       RGetBufferSize             100291c0 f   wininet_hndlobj:hutil.obj
 0001:00028210       RSetBufferSize             10029210 f   wininet_hndlobj:hutil.obj
 0001:00028254       RGetStatusCallback         10029254 f   wininet_hndlobj:hutil.obj
 0001:00028264       RExchangeStatusCallback    10029264 f   wininet_hndlobj:hutil.obj
 0001:00028298       RGetLocalHandle            10029298 f   wininet_hndlobj:hutil.obj
 0001:000282e0       ?CancelActiveSyncRequests@@YAXK@Z 100292e0 f   wininet_hndlobj:hinet.obj
 0001:0002837c       ?Reference@HANDLE_OBJECT@@QAAKXZ 1002937c f   wininet_hndlobj:hinet.obj
 0001:000283cc       ?Dereference@HANDLE_OBJECT@@QAAHXZ 100293cc f   wininet_hndlobj:hinet.obj
 0001:00028414       ?IsValid@HANDLE_OBJECT@@QAAKW4HINTERNET_HANDLE_TYPE@@@Z 10029414 f   wininet_hndlobj:hinet.obj
 0001:000284b8       ?GetInternetHandle@INTERNET_HANDLE_OBJECT@@UAAPAXXZ 100294b8 f   wininet_hndlobj:hinet.obj
 0001:000284c0       ?GetHandle@INTERNET_HANDLE_OBJECT@@UAAPAXXZ 100294c0 f   wininet_hndlobj:hinet.obj
 0001:000284c8       ?SetTimeout@INTERNET_HANDLE_OBJECT@@QAAXKK@Z 100294c8 f   wininet_hndlobj:hinet.obj
 0001:0002853c       ?GetTimeout@INTERNET_HANDLE_OBJECT@@QAAKK@Z 1002953c f   wininet_hndlobj:hinet.obj
 0001:000285e0       ?ExchangeStatusCallback@INTERNET_HANDLE_OBJECT@@QAAKPAP6AXPAXKK0K@ZH@Z 100295e0 f   wininet_hndlobj:hinet.obj
 0001:00028614       ?SetAbortHandle@INTERNET_HANDLE_OBJECT@@QAAXPAVICSocket@@@Z 10029614 f   wininet_hndlobj:hinet.obj
 0001:00028638       ?ResetAbortHandle@INTERNET_HANDLE_OBJECT@@QAAXXZ 10029638 f   wininet_hndlobj:hinet.obj
 0001:00028654       ?AbortSocket@INTERNET_HANDLE_OBJECT@@UAAHXZ 10029654 f   wininet_hndlobj:hinet.obj
 0001:00028694       ?Refresh@INTERNET_HANDLE_OBJECT@@QAAKK@Z 10029694 f   wininet_hndlobj:hinet.obj
 0001:000286d4       ?GetProxyStringInfo@INTERNET_HANDLE_OBJECT@@QAAKPAXPAK@Z 100296d4 f   wininet_hndlobj:hinet.obj
 0001:00028770       ?GetProxyInfo@INTERNET_HANDLE_OBJECT@@QAAKPAPAVAUTO_PROXY_ASYNC_MSG@@@Z 10029770 f   wininet_hndlobj:hinet.obj
 0001:00028840       ?RedoSendRequest@INTERNET_HANDLE_OBJECT@@QAAHPAKPAVAUTO_PROXY_ASYNC_MSG@@HPAVCServerInfo@@2@Z 10029840 f   wininet_hndlobj:hinet.obj
 0001:000288b0       ?UnicodeStatusCallbackWrapper@@YAXPAXKK0K@Z 100298b0 f   wininet_hndlobj:hinet.obj
 0001:00028a00       ??1RESOURCE_LOCK@@QAA@XZ   10029a00 f i wininet_hndlobj:hinet.obj
 0001:00028a5c       ?AddChild@HANDLE_OBJECT@@QAAXPAU_LIST_ENTRY@@@Z 10029a5c f i wininet_hndlobj:hinet.obj
 0001:00028aac       ?RemoveChild@HANDLE_OBJECT@@QAAXPAU_LIST_ENTRY@@@Z 10029aac f i wininet_hndlobj:hinet.obj
 0001:00028b08       ?SafeDeleteProxyInfo@INTERNET_HANDLE_OBJECT@@AAAXXZ 10029b08 f i wininet_hndlobj:hinet.obj
 0001:00028b60       ??0HANDLE_OBJECT@@QAA@PAV0@@Z 10029b60 f   wininet_hndlobj:hinet.obj
 0001:00028be0       ?GetInternetHandle@HANDLE_OBJECT@@UAAPAXXZ 10029be0 f i wininet_hndlobj:hinet.obj
 0001:00028be8       ?GetHandle@HANDLE_OBJECT@@UAAPAXXZ 10029be8 f i wininet_hndlobj:hinet.obj
 0001:00028bf0       ?GetHandleType@HANDLE_OBJECT@@UAA?AW4HINTERNET_HANDLE_TYPE@@XZ 10029bf0 f i wininet_hndlobj:hinet.obj
 0001:00028bfc       ?SetHtml@HANDLE_OBJECT@@UAAXXZ 10029bfc f i wininet_hndlobj:hinet.obj
 0001:00028c00       ?SetHtmlState@HANDLE_OBJECT@@UAAXW4HTML_STATE@@@Z 10029c00 f i wininet_hndlobj:hinet.obj
 0001:00028c04       ?GetHtmlState@HANDLE_OBJECT@@UAA?AW4HTML_STATE@@XZ 10029c04 f i wininet_hndlobj:hinet.obj
 0001:00028c0c       ?GetUrl@HANDLE_OBJECT@@UAAPADXZ 10029c0c f i wininet_hndlobj:hinet.obj
 0001:00028c14       ?SetUrl@HANDLE_OBJECT@@UAAXPAD@Z 10029c14 f i wininet_hndlobj:hinet.obj
 0001:00028c18       ?SetDirEntry@HANDLE_OBJECT@@UAAXPAD@Z 10029c18 f i wininet_hndlobj:hinet.obj
 0001:00028c1c       ?GetDirEntry@HANDLE_OBJECT@@UAAPADXZ 10029c1c f i wininet_hndlobj:hinet.obj
 0001:00028c24       ?AbortSocket@HANDLE_OBJECT@@UAAHXZ 10029c24 f i wininet_hndlobj:hinet.obj
 0001:00028c2c       ??1HANDLE_OBJECT@@UAA@XZ   10029c2c f   wininet_hndlobj:hinet.obj
 0001:00028d98       ?AddToLists@HANDLE_OBJECT@@QAAKXZ 10029d98 f   wininet_hndlobj:hinet.obj
 0001:00028e2c       ??0INTERNET_HANDLE_OBJECT@@QAA@PAV0@@Z 10029e2c f   wininet_hndlobj:hinet.obj
 0001:00028f68       ?GetHandleType@INTERNET_HANDLE_OBJECT@@UAA?AW4HINTERNET_HANDLE_TYPE@@XZ 10029f68 f i wininet_hndlobj:hinet.obj
 0001:00028f74       ?SetHtml@INTERNET_HANDLE_OBJECT@@UAAXXZ 10029f74 f i wininet_hndlobj:hinet.obj
 0001:00028f78       ?SetHtmlState@INTERNET_HANDLE_OBJECT@@UAAXW4HTML_STATE@@@Z 10029f78 f i wininet_hndlobj:hinet.obj
 0001:00028f7c       ?GetHtmlState@INTERNET_HANDLE_OBJECT@@UAA?AW4HTML_STATE@@XZ 10029f7c f i wininet_hndlobj:hinet.obj
 0001:00028f84       ?GetUrl@INTERNET_HANDLE_OBJECT@@UAAPADXZ 10029f84 f i wininet_hndlobj:hinet.obj
 0001:00028f8c       ?SetUrl@INTERNET_HANDLE_OBJECT@@UAAXPAD@Z 10029f8c f i wininet_hndlobj:hinet.obj
 0001:00028fa0       ?SetDirEntry@INTERNET_HANDLE_OBJECT@@UAAXPAD@Z 10029fa0 f i wininet_hndlobj:hinet.obj
 0001:00028fa4       ?GetDirEntry@INTERNET_HANDLE_OBJECT@@UAAPADXZ 10029fa4 f i wininet_hndlobj:hinet.obj
 0001:00028fac       ??1INTERNET_HANDLE_OBJECT@@UAA@XZ 10029fac f   wininet_hndlobj:hinet.obj
 0001:00029074       ??0PROXY_INFO@@QAA@XZ      1002a074 f i wininet_hndlobj:hinet.obj
 0001:000290cc       ?IsProxySettingsConfigured@PROXY_INFO@@UAAHXZ 1002a0cc f i wininet_hndlobj:hinet.obj
 0001:000290e0       ?ExpireAutoProxyUrl@PROXY_INFO@@UAAXXZ 1002a0e0 f i wininet_hndlobj:hinet.obj
 0001:000290e4       ??1PROXY_INFO@@UAA@XZ      1002a0e4 f i wininet_hndlobj:hinet.obj
 0001:0002913c       ??_EPROXY_INFO@@UAAPAXI@Z  1002a13c f i wininet_hndlobj:hinet.obj
 0001:0002913c       ??_GPROXY_INFO@@UAAPAXI@Z  1002a13c f i wininet_hndlobj:hinet.obj
 0001:00029160       ?SetProxySettings@PROXY_INFO_GLOBAL_WRAPPER@@UAAKPAUINTERNET_PROXY_INFO_EX@@H@Z 1002a160 f i wininet_hndlobj:hinet.obj
 0001:00029168       ?GetProxySettings@PROXY_INFO_GLOBAL_WRAPPER@@UAAKPAUINTERNET_PROXY_INFO_EX@@H@Z 1002a168 f i wininet_hndlobj:hinet.obj
 0001:00029170       ?RefreshProxySettings@PROXY_INFO_GLOBAL_WRAPPER@@UAAKH@Z 1002a170 f i wininet_hndlobj:hinet.obj
 0001:00029178       ?QueryProxySettings@PROXY_INFO_GLOBAL_WRAPPER@@UAAKPAPAVAUTO_PROXY_ASYNC_MSG@@@Z 1002a178 f i wininet_hndlobj:hinet.obj
 0001:00029184       ?IsProxySettingsConfigured@PROXY_INFO_GLOBAL_WRAPPER@@UAAHXZ 1002a184 f i wininet_hndlobj:hinet.obj
 0001:000291a0       ??_GPROXY_INFO_GLOBAL_WRAPPER@@UAAPAXI@Z 1002a1a0 f i wininet_hndlobj:hinet.obj
 0001:000291a0       ??_EPROXY_INFO_GLOBAL_WRAPPER@@UAAPAXI@Z 1002a1a0 f i wininet_hndlobj:hinet.obj
 0001:000291d0       ??_GHANDLE_OBJECT@@UAAPAXI@Z 1002a1d0 f i wininet_hndlobj:hinet.obj
 0001:000291d0       ??_EHANDLE_OBJECT@@UAAPAXI@Z 1002a1d0 f i wininet_hndlobj:hinet.obj
 0001:000291f4       ??_EINTERNET_HANDLE_OBJECT@@UAAPAXI@Z 1002a1f4 f i wininet_hndlobj:hinet.obj
 0001:000291f4       ??_GINTERNET_HANDLE_OBJECT@@UAAPAXI@Z 1002a1f4 f i wininet_hndlobj:hinet.obj
 0001:00029218       ?SetProxyInfo@INTERNET_HANDLE_OBJECT@@QAAKKPBD0@Z 1002a218 f   wininet_hndlobj:hinet.obj
 0001:000293d8       ??0INTERNET_HANDLE_OBJECT@@QAA@PBDKPAD1K@Z 1002a3d8 f   wininet_hndlobj:hinet.obj
 0001:0002960c       ?SetData@XSTRING@@QAAHPAD@Z 1002a60c f i wininet_hndlobj:connect.obj
 0001:0002964c       ?InitCacheVariables@INTERNET_CONNECT_HANDLE_OBJECT@@IAAXXZ 1002a64c f i wininet_hndlobj:connect.obj
 0001:000296b8       ?ExpireUrl@INTERNET_CONNECT_HANDLE_OBJECT@@QAAKPAD@Z 1002a6b8 f i wininet_hndlobj:connect.obj
 0001:00029704       ?GetUserOrPass@INTERNET_CONNECT_HANDLE_OBJECT@@QAAPADHH@Z 1002a704 f i wininet_hndlobj:connect.obj
 0001:00029794       ?SetUserOrPass@INTERNET_CONNECT_HANDLE_OBJECT@@QAAXPADHH@Z 1002a794 f i wininet_hndlobj:connect.obj
 0001:00029858       ?SetOriginalUrl@INTERNET_CONNECT_HANDLE_OBJECT@@QAAXPAD@Z 1002a858 f i wininet_hndlobj:connect.obj
 0001:00029898       FlushExistingConnectObjects 1002a898 f   wininet_hndlobj:connect.obj
 0001:00029998       ?SetHostName@INTERNET_CONNECT_HANDLE_OBJECT@@QAAXPAD@Z 1002a998 f   wininet_hndlobj:connect.obj
 0001:00029b04       ?SetURL@INTERNET_CONNECT_HANDLE_OBJECT@@QAAHPAD@Z 1002ab04 f   wininet_hndlobj:connect.obj
 0001:00029b90       ?SetURLPtr@INTERNET_CONNECT_HANDLE_OBJECT@@QAAHPAPAD@Z 1002ab90 f   wininet_hndlobj:connect.obj
 0001:00029c38       ?SetSecondaryCacheKey@INTERNET_CONNECT_HANDLE_OBJECT@@QAAHPAD@Z 1002ac38 f   wininet_hndlobj:connect.obj
 0001:00029cd0       ?FreeSecondaryCacheKey@INTERNET_CONNECT_HANDLE_OBJECT@@QAAXXZ 1002acd0 f   wininet_hndlobj:connect.obj
 0001:00029d2c       ?GetHandle@INTERNET_CONNECT_HANDLE_OBJECT@@UAAPAXXZ 1002ad2c f   wininet_hndlobj:connect.obj
 0001:00029d34       ?back_up@@YAPADPAD0@Z      1002ad34 f   wininet_hndlobj:connect.obj
 0001:00029d70       ?convert_macros@@YAPADPAD@Z 1002ad70 f   wininet_hndlobj:connect.obj
 0001:00029eb8       ?SetCurrentWorkingDirectory@INTERNET_CONNECT_HANDLE_OBJECT@@QAAKPAD@Z 1002aeb8 f   wininet_hndlobj:connect.obj
 0001:00029fcc       ?GetCurrentWorkingDirectory@INTERNET_CONNECT_HANDLE_OBJECT@@QAAKPADPAK@Z 1002afcc f   wininet_hndlobj:connect.obj
 0001:0002a05c       ?SetObjectName@INTERNET_CONNECT_HANDLE_OBJECT@@QAAKPAD0PAP6AKW4INTERNET_SCHEME@@0000KPAPADPAK@Z@Z 1002b05c f   wininet_hndlobj:connect.obj
 0001:0002a1a8       ?RecordCacheRetrieval@INTERNET_CONNECT_HANDLE_OBJECT@@QAAKPAU_INTERNET_CACHE_ENTRY_INFOA@@@Z 1002b1a8 f   wininet_hndlobj:connect.obj
 0001:0002a20c       ?ReadCache@INTERNET_CONNECT_HANDLE_OBJECT@@QAAKPAEKPAK@Z 1002b20c f   wininet_hndlobj:connect.obj
 0001:0002a268       ?EndCacheRetrieval@INTERNET_CONNECT_HANDLE_OBJECT@@QAAKXZ 1002b268 f   wininet_hndlobj:connect.obj
 0001:0002a2bc       ?GetCacheStream@INTERNET_CONNECT_HANDLE_OBJECT@@QAAKPAEK@Z 1002b2bc f   wininet_hndlobj:connect.obj
 0001:0002a304       ?BeginCacheWrite@INTERNET_CONNECT_HANDLE_OBJECT@@QAAKKPBD0@Z 1002b304 f   wininet_hndlobj:connect.obj
 0001:0002a458       ?WriteToDisk@INTERNET_CONNECT_HANDLE_OBJECT@@QAAKPAEKPAK@Z 1002b458 f   wininet_hndlobj:connect.obj
 0001:0002a4e0       ?EndCacheWrite@INTERNET_CONNECT_HANDLE_OBJECT@@QAAKPAU_FILETIME@@00KKPAD1H@Z 1002b4e0 f   wininet_hndlobj:connect.obj
 0001:0002a75c       ?GetCanonicalizedParentUrl@@YAHPAD0K@Z 1002b75c f   wininet_hndlobj:connect.obj
 0001:0002a860       ?AttachLastResponseInfo@INTERNET_CONNECT_HANDLE_OBJECT@@QAAXXZ 1002b860 f   wininet_hndlobj:connect.obj
 0001:0002a8f8       ?SetOriginServer@INTERNET_CONNECT_HANDLE_OBJECT@@QAAXPAVCServerInfo@@H@Z 1002b8f8 f   wininet_hndlobj:connect.obj
 0001:0002a934       ?SetServerInfo@INTERNET_CONNECT_HANDLE_OBJECT@@QAAKW4INTERNET_SCHEME@@HHPBG@Z 1002b934 f   wininet_hndlobj:connect.obj
 0001:0002a980       ?SetServerInfo@INTERNET_CONNECT_HANDLE_OBJECT@@QAAKPADKPBG@Z 1002b980 f   wininet_hndlobj:connect.obj
 0001:0002aa0c       ?GetUserAndPass@INTERNET_CONNECT_HANDLE_OBJECT@@QAAHHPAPAD0@Z 1002ba0c f   wininet_hndlobj:connect.obj
 0001:0002ab24       ?GetUserAndPassW@INTERNET_CONNECT_HANDLE_OBJECT@@QAAHHPAPAG0@Z 1002bb24 f   wininet_hndlobj:connect.obj
 0001:0002ac3c       FindExistingConnectObject  1002bc3c f   wininet_hndlobj:connect.obj
 0001:0002ae80       ??0INTERNET_CONNECT_HANDLE_OBJECT@@QAA@PAV0@@Z 1002be80 f   wininet_hndlobj:connect.obj
 0001:0002affc       ?GetHandleType@INTERNET_CONNECT_HANDLE_OBJECT@@UAA?AW4HINTERNET_HANDLE_TYPE@@XZ 1002bffc f i wininet_hndlobj:connect.obj
 0001:0002b004       ??0INTERNET_CONNECT_HANDLE_OBJECT@@QAA@PAVINTERNET_HANDLE_OBJECT@@PAXP6AH1K@ZPADG33KKK@Z 1002c004 f   wininet_hndlobj:connect.obj
 0001:0002b1d4       ??1INTERNET_CONNECT_HANDLE_OBJECT@@UAA@XZ 1002c1d4 f   wininet_hndlobj:connect.obj
 0001:0002b43c       ?BeginCacheRetrieval@INTERNET_CONNECT_HANDLE_OBJECT@@QAAKPAPAU_INTERNET_CACHE_ENTRY_INFOA@@@Z 1002c43c f   wininet_hndlobj:connect.obj
 0001:0002b548       ?WriteCache@INTERNET_CONNECT_HANDLE_OBJECT@@QAAKPAEK@Z 1002c548 f   wininet_hndlobj:connect.obj
 0001:0002b584       ?ExpireDependents@INTERNET_CONNECT_HANDLE_OBJECT@@QAAHXZ 1002c584 f   wininet_hndlobj:connect.obj
 0001:0002b5f0       RMakeInternetConnectObjectHandle 1002c5f0 f   wininet_hndlobj:connect.obj
 0001:0002b6c0       ??_EINTERNET_CONNECT_HANDLE_OBJECT@@UAAPAXI@Z 1002c6c0 f i wininet_hndlobj:connect.obj
 0001:0002b6c0       ??_GINTERNET_CONNECT_HANDLE_OBJECT@@UAAPAXI@Z 1002c6c0 f i wininet_hndlobj:connect.obj
 0001:0002b6e4       ??0FTP_FIND_HANDLE_OBJECT@@QAA@PAVINTERNET_CONNECT_HANDLE_OBJECT@@PAXP6AH1@ZK@Z 1002c6e4 f   wininet_hndlobj:ftp.obj
 0001:0002b754       ?GetHandleType@FTP_FIND_HANDLE_OBJECT@@UAA?AW4HINTERNET_HANDLE_TYPE@@XZ 1002c754 f i wininet_hndlobj:ftp.obj
 0001:0002b76c       ?SetHtml@FTP_FIND_HANDLE_OBJECT@@UAAXXZ 1002c76c f i wininet_hndlobj:ftp.obj
 0001:0002b784       ?SetHtmlState@FTP_FIND_HANDLE_OBJECT@@UAAXW4HTML_STATE@@@Z 1002c784 f i wininet_hndlobj:ftp.obj
 0001:0002b78c       ?GetHtmlState@FTP_FIND_HANDLE_OBJECT@@UAA?AW4HTML_STATE@@XZ 1002c78c f i wininet_hndlobj:ftp.obj
 0001:0002b794       ?GetUrl@FTP_FIND_HANDLE_OBJECT@@UAAPADXZ 1002c794 f i wininet_hndlobj:ftp.obj
 0001:0002b79c       ?SetUrl@FTP_FIND_HANDLE_OBJECT@@UAAXPAD@Z 1002c79c f i wininet_hndlobj:ftp.obj
 0001:0002b7a4       ?SetDirEntry@FTP_FIND_HANDLE_OBJECT@@UAAXPAD@Z 1002c7a4 f i wininet_hndlobj:ftp.obj
 0001:0002b7ac       ?GetDirEntry@FTP_FIND_HANDLE_OBJECT@@UAAPADXZ 1002c7ac f i wininet_hndlobj:ftp.obj
 0001:0002b7b4       ??1FTP_FIND_HANDLE_OBJECT@@UAA@XZ 1002c7b4 f   wininet_hndlobj:ftp.obj
 0001:0002b840       ?GetHandle@FTP_FIND_HANDLE_OBJECT@@UAAPAXXZ 1002c840 f   wininet_hndlobj:ftp.obj
 0001:0002b848       ?QueryHtmlDataAvailable@FTP_FIND_HANDLE_OBJECT@@QAAKPAK@Z 1002c848 f   wininet_hndlobj:ftp.obj
 0001:0002b8e4       ??0FTP_FILE_HANDLE_OBJECT@@QAA@PAVINTERNET_CONNECT_HANDLE_OBJECT@@PAXP6AH1@ZK@Z 1002c8e4 f   wininet_hndlobj:ftp.obj
 0001:0002b948       ?GetHandleType@FTP_FILE_HANDLE_OBJECT@@UAA?AW4HINTERNET_HANDLE_TYPE@@XZ 1002c948 f i wininet_hndlobj:ftp.obj
 0001:0002b960       ?SetHtml@FTP_FILE_HANDLE_OBJECT@@UAAXXZ 1002c960 f i wininet_hndlobj:ftp.obj
 0001:0002b970       ?SetHtmlState@FTP_FILE_HANDLE_OBJECT@@UAAXW4HTML_STATE@@@Z 1002c970 f i wininet_hndlobj:ftp.obj
 0001:0002b978       ?GetHtmlState@FTP_FILE_HANDLE_OBJECT@@UAA?AW4HTML_STATE@@XZ 1002c978 f i wininet_hndlobj:ftp.obj
 0001:0002b980       ?GetUrl@FTP_FILE_HANDLE_OBJECT@@UAAPADXZ 1002c980 f i wininet_hndlobj:ftp.obj
 0001:0002b988       ?SetUrl@FTP_FILE_HANDLE_OBJECT@@UAAXPAD@Z 1002c988 f i wininet_hndlobj:ftp.obj
 0001:0002b990       ?SetDirEntry@FTP_FILE_HANDLE_OBJECT@@UAAXPAD@Z 1002c990 f i wininet_hndlobj:ftp.obj
 0001:0002b998       ?GetDirEntry@FTP_FILE_HANDLE_OBJECT@@UAAPADXZ 1002c998 f i wininet_hndlobj:ftp.obj
 0001:0002b9a0       ??1FTP_FILE_HANDLE_OBJECT@@UAA@XZ 1002c9a0 f   wininet_hndlobj:ftp.obj
 0001:0002ba18       ?GetHandle@FTP_FILE_HANDLE_OBJECT@@UAAPAXXZ 1002ca18 f   wininet_hndlobj:ftp.obj
 0001:0002ba20       RMakeFtpFindObjectHandle   1002ca20 f   wininet_hndlobj:ftp.obj
 0001:0002bac0       RMakeFtpFileObjectHandle   1002cac0 f   wininet_hndlobj:ftp.obj
 0001:0002bb60       ??_EFTP_FIND_HANDLE_OBJECT@@UAAPAXI@Z 1002cb60 f i wininet_hndlobj:ftp.obj
 0001:0002bb60       ??_GFTP_FIND_HANDLE_OBJECT@@UAAPAXI@Z 1002cb60 f i wininet_hndlobj:ftp.obj
 0001:0002bb84       ??_EFTP_FILE_HANDLE_OBJECT@@UAAPAXI@Z 1002cb84 f i wininet_hndlobj:ftp.obj
 0001:0002bb84       ??_GFTP_FILE_HANDLE_OBJECT@@UAAPAXI@Z 1002cb84 f i wininet_hndlobj:ftp.obj
 0001:0002bba8       ?ClearBadProxyList@PROXY_INFO_GLOBAL@@QAAXXZ 1002cba8 f i wininet_hndlobj:autoprox.obj
 0001:0002bbf0       ?EnumerateNetChanges@NLA_NET_CHANGE@@AAAEXZ 1002cbf0 f   wininet_hndlobj:autoprox.obj
 0001:0002bd04       ??0AUTO_PROXY_ASYNC_MSG@@QAA@W4INTERNET_SCHEME@@PADK@Z 1002cd04 f   wininet_hndlobj:autoprox.obj
 0001:0002bd98       ??0AUTO_PROXY_ASYNC_MSG@@QAA@W4INTERNET_SCHEME@@PADK1KG@Z 1002cd98 f   wininet_hndlobj:autoprox.obj
 0001:0002be38       ?SetProxyMsg@AUTO_PROXY_ASYNC_MSG@@QAAXW4INTERNET_SCHEME@@PADK1KG@Z 1002ce38 f   wininet_hndlobj:autoprox.obj
 0001:0002be68       ??1NLA_NET_CHANGE@@QAA@XZ  1002ce68 f i wininet_hndlobj:autoprox.obj
 0001:0002bec4       ?IsNetChanged@NLA_NET_CHANGE@@QAAEH@Z 1002cec4 f i wininet_hndlobj:autoprox.obj
 0001:0002bfd8       ?Initialize@NLA_NET_CHANGE@@QAAEXZ 1002cfd8 f   wininet_hndlobj:autoprox.obj
 0001:0002c124       ??1AUTO_PROXY_ASYNC_MSG@@QAA@XZ 1002d124 f   wininet_hndlobj:autoprox.obj
 0001:0002c1b4       ?InitializeNetworkChangeObject@@YAKXZ 1002d1b4 f   wininet_hndlobj:autoprox.obj
 0001:0002c210       ?CheckForNetworkChange@@YAHHH@Z 1002d210 f   wininet_hndlobj:autoprox.obj
 0001:0002c2c8       ?CleanupNetworkChangeObject@@YAXXZ 1002d2c8 f   wininet_hndlobj:autoprox.obj
 0001:0002c2fc       wHttpAddRequestHeaders     1002d2fc f   wininet_http:add.obj
 0001:0002c484       HttpAddRequestHeadersA     1002d484 f   wininet_http:add.obj
 0001:0002c598       HttpAddRequestHeadersW     1002d598 f   wininet_http:add.obj
 0001:0002c63c       ??1CFsmWithProxy@@UAA@XZ   1002d63c f i wininet_http:sendapi.obj
 0001:0002c698       ??_GCFsmWithProxy@@UAAPAXI@Z 1002d698 f i wininet_http:sendapi.obj
 0001:0002c698       ??_ECFsmWithProxy@@UAAPAXI@Z 1002d698 f i wininet_http:sendapi.obj
 0001:0002c6bc       ??0CFsm_HttpSendRequest@@QAA@PAXKPAVHTTP_REQUEST_HANDLE_OBJECT@@W4AR_TYPE@@@Z 1002d6bc f i wininet_http:sendapi.obj
 0001:0002c788       ??_ECFsm_HttpSendRequest@@UAAPAXI@Z 1002d788 f i wininet_http:sendapi.obj
 0001:0002c788       ??_GCFsm_HttpSendRequest@@UAAPAXI@Z 1002d788 f i wininet_http:sendapi.obj
 0001:0002c7b8       ?HttpWrapSendRequest@@YAHPAXPBDK0KKW4AR_TYPE@@@Z 1002d7b8 f   wininet_http:sendapi.obj
 0001:0002c9d8       HttpSendRequestA           1002d9d8 f   wininet_http:sendapi.obj
 0001:0002ca04       HttpSendRequestW           1002da04 f   wininet_http:sendapi.obj
 0001:0002cac0       HttpSendRequestExA         1002dac0 f   wininet_http:sendapi.obj
 0001:0002cb40       HttpSendRequestExW         1002db40 f   wininet_http:sendapi.obj
 0001:0002cc34       HttpEndRequestA            1002dc34 f   wininet_http:sendapi.obj
 0001:0002cc84       HttpEndRequestW            1002dc84 f   wininet_http:sendapi.obj
 0001:0002ccec       ??1MEMORYPACKETTABLE@@QAA@XZ 1002dcec f i wininet_http:open.obj
 0001:0002cd44       ?SetUpFor@MEMORYPACKETTABLE@@QAAHG@Z 1002dd44 f i wininet_http:open.obj
 0001:0002cdec       IsInappropriateHTTPPort    1002ddec f   wininet_http:open.obj
 0001:0002ce40       ?ConcatAcceptTypes@@YAPADPAPBDPADI@Z 1002de40 f   wininet_http:open.obj
 0001:0002cec4       HttpOpenRequestA           1002dec4 f   wininet_http:open.obj
 0001:0002d3e0       HttpOpenRequestW           1002e3e0 f   wininet_http:open.obj
 0001:0002d99c       ?ParseHttpUrl_Fsm@@YAKPAVCFsm_ParseHttpUrl@@@Z 1002e99c f   wininet_http:open.obj
 0001:0002dca0       ??0CFsm_ParseHttpUrl@@QAA@PAPAXPADK1KKK@Z 1002eca0 f i wininet_http:open.obj
 0001:0002dd08       ??_ECFsm_ParseHttpUrl@@UAAPAXI@Z 1002ed08 f i wininet_http:open.obj
 0001:0002dd08       ??_GCFsm_ParseHttpUrl@@UAAPAXI@Z 1002ed08 f i wininet_http:open.obj
 0001:0002dd2c       ParseHttpUrl               1002ed2c f   wininet_http:open.obj
 0001:0002dd94       ?QueryRequestHeadersWithEcho@HTTP_REQUEST_HANDLE_OBJECT@@QAAKHPAXPAK@Z 1002ed94 f   wininet_http:query.obj
 0001:0002dff0       ?QueryInfo@HTTP_REQUEST_HANDLE_OBJECT@@QAAKKPAXPAK1@Z 1002eff0 f   wininet_http:query.obj
 0001:0002e37c       HttpQueryInfoA             1002f37c f   wininet_http:query.obj
 0001:0002e594       HttpQueryInfoW             1002f594 f   wininet_http:query.obj
 0001:0002e8bc       ?IsStringADomain@@YAHPBD@Z 1002f8bc f   wininet_http:cookieprompt.obj
 0001:0002e964       ?FindMinimizedCookieDomainInDomain@@YAPBDPBD@Z 1002f964 f   wininet_http:cookieprompt.obj
 0001:0002e9b4       ??0CCookiePromptHistory@@QAA@PBD_N@Z 1002f9b4 f   wininet_http:cookieprompt.obj
 0001:0002e9e8       ??1CCookiePromptHistory@@QAA@XZ 1002f9e8 f   wininet_http:cookieprompt.obj
 0001:0002ea10       ?OpenRootKey@CCookiePromptHistory@@AAAPAUHKEY__@@XZ 1002fa10 f   wininet_http:cookieprompt.obj
 0001:0002eac8       ?CloseRootKey@CCookiePromptHistory@@AAAHPAUHKEY__@@@Z 1002fac8 f   wininet_http:cookieprompt.obj
 0001:0002eafc       ?lookupSiteKey@CCookiePromptHistory@@AAAPAUHKEY__@@PAU2@PBD_N@Z 1002fafc f   wininet_http:cookieprompt.obj
 0001:0002eb84       ?clearAll@CCookiePromptHistory@@QAAHXZ 1002fb84 f   wininet_http:cookieprompt.obj
 0001:0002ec24       ?enumerateDecisions@CCookiePromptHistory@@QAAKPADPAK1K@Z 1002fc24 f   wininet_http:cookieprompt.obj
 0001:0002ece4       InternetEnumPerSiteCookieDecisionA 1002fce4 f   wininet_http:cookieprompt.obj
 0001:0002ed64       InternetEnumPerSiteCookieDecisionW 1002fd64 f   wininet_http:cookieprompt.obj
 0001:0002ee3c       InternetClearAllPerSiteCookieDecisions 1002fe3c f   wininet_http:cookieprompt.obj
 0001:0002ee48       ?DeletePersistentCookies@@YAHPBD@Z 1002fe48 f   wininet_http:cookieprompt.obj
 0001:0002efb8       ?lookupDecision@CCookiePromptHistory@@QAAHPBD0PAK@Z 1002ffb8 f   wininet_http:cookieprompt.obj
 0001:0002f0b8       ?saveDecision@CCookiePromptHistory@@QAAHPBD0K@Z 100300b8 f   wininet_http:cookieprompt.obj
 0001:0002f1ac       ?clearDecision@CCookiePromptHistory@@QAAHPBD0@Z 100301ac f   wininet_http:cookieprompt.obj
 0001:0002f24c       ?CloseCookieUIHistory@@YAXXZ 1003024c f   wininet_http:cookieprompt.obj
 0001:0002f274       InternetSetPerSiteCookieDecisionA 10030274 f   wininet_http:cookieprompt.obj
 0001:0002f300       InternetSetPerSiteCookieDecisionW 10030300 f   wininet_http:cookieprompt.obj
 0001:0002f37c       InternetGetPerSiteCookieDecisionA 1003037c f   wininet_http:cookieprompt.obj
 0001:0002f3b0       InternetGetPerSiteCookieDecisionW 100303b0 f   wininet_http:cookieprompt.obj
 0001:0002f438       ?GetSecurityZone@HTTP_REQUEST_HANDLE_OBJECT@@QAAKH@Z 10030438 f i wininet_http:cookie.obj
 0001:0002f490       ?IsCacheModified@@YAHXZ    10030490 f i wininet_http:cookie.obj
 0001:0002f958       ?LowerCaseString@@YAXPAD@Z 10030958 f   wininet_http:cookie.obj
 0001:0002fda0       ??2CCookieBase@@SAPAXII@Z  10030da0 f   wininet_http:cookie.obj
 0001:0002fdf0       ?SetValue@CCookie@@QAAHPBD@Z 10030df0 f   wininet_http:cookie.obj
 0001:0002fe7c       ?IsExpired@CCookie@@QAAHXZ 10030e7c f   wininet_http:cookie.obj
 0001:0002ff0c       ?CanSend@CCookie@@QAAHPAU_FILETIME@@H@Z 10030f0c f   wininet_http:cookie.obj
 0001:0002ffec       ?PurgePersistent@CCookie@@QAAHPAX@Z 10030fec f   wininet_http:cookie.obj
 0001:00030000       ?PurgeAll@CCookie@@QAAHPAX@Z 10031000 f   wininet_http:cookie.obj
 0001:00030008       ?PurgeByName@CCookie@@QAAHPAX@Z 10031008 f   wininet_http:cookie.obj
 0001:0003002c       ?PurgeThis@CCookie@@QAAHPAX@Z 1003102c f   wininet_http:cookie.obj
 0001:0003003c       ?PurgeExpired@CCookie@@QAAHPAX@Z 1003103c f   wininet_http:cookie.obj
 0001:00030108       ?WriteCacheFile@CCookie@@QAAHPAXPAD1@Z 10031108 f   wininet_http:cookie.obj
 0001:00030284       ?GetCacheURL@CCookieLocation@@QAAPADXZ 10031284 f   wininet_http:cookie.obj
 0001:00030364       ?WriteCacheFile@CCookieLocation@@QAAHXZ 10031364 f   wininet_http:cookie.obj
 0001:00030748       ?IsMatch@CCookieLocation@@QAAHPAD0@Z 10031748 f   wininet_http:cookie.obj
 0001:000307e4       ?GetBucket@CCookieJar@@QAAPAPAVCCookieLocation@@PBD@Z 100317e4 f   wininet_http:cookie.obj
 0001:00030d58       ?replaceControlChars@@YAXPADD@Z 10031d58 f   wininet_http:cookie.obj
 0001:00030f74       ?IsCookieIdentical@@YAHPAVCCookie@@PADKU_FILETIME@@@Z 10031f74 f   wininet_http:cookie.obj
 0001:00030fec       ?convertLegacyCookie@@YAXPAVCCookie@@PAVCCookieLocation@@@Z 10031fec f   wininet_http:cookie.obj
 0001:000310d4       ?extractP3PHeader@@YAKPAVHTTP_REQUEST_HANDLE_OBJECT@@PADPAK@Z 100320d4 f   wininet_http:cookie.obj
 0001:00031134       ?EvaluateCookiePolicy@@YAHPBDHHPAUP3PCookieState@@0@Z 10032134 f   wininet_http:cookie.obj
 0001:00031280       ?cacheFlagFromAction@@YAKK@Z 10032280 f   wininet_http:cookie.obj
 0001:000312c0       IsDomainLegalCookieDomainA 100322c0 f   wininet_http:cookie.obj
 0001:00031390       IsDomainLegalCookieDomainW 10032390 f   wininet_http:cookie.obj
 0001:00031468       ?Purge@CCookieLocation@@QAAHP8CCookie@@AAHPAX@Z0@Z 10032468 f   wininet_http:cookie.obj
 0001:000314f0       ?Purge@CCookieLocation@@QAAHPAU_FILETIME@@H@Z 100324f0 f   wininet_http:cookie.obj
 0001:00031594       ?Construct@CCookie@@SAPAV1@PBD@Z 10032594 f   wininet_http:cookie.obj
 0001:00031620       ?GetCookie@CCookieLocation@@QAAPAVCCookie@@PBDH@Z 10032620 f   wininet_http:cookie.obj
 0001:00031694       ?ReadCacheFile@CCookieLocation@@QAAHXZ 10032694 f   wininet_http:cookie.obj
 0001:00031938       ?EnforceCookieLimits@CCookieJar@@QAAXPAVCCookieLocation@@PADPAH@Z 10032938 f   wininet_http:cookie.obj
 0001:00031b18       ??1CCookieJar@@QAA@XZ      10032b18 f   wininet_http:cookie.obj
 0001:00031b6c       ?Purge@CCookieJar@@QAAXPAU_FILETIME@@H@Z 10032b6c f   wininet_http:cookie.obj
 0001:00031bec       ?CloseTheCookieJar@@YAXXZ  10032bec f   wininet_http:cookie.obj
 0001:00031c54       ?PurgeCookieJarOfStaleCookies@@YAXXZ 10032c54 f   wininet_http:cookie.obj
 0001:00031cb0       ?Construct@CCookieLocation@@SAPAV1@PBD0@Z 10032cb0 f   wininet_http:cookie.obj
 0001:00031db4       ?GetLocation@CCookieJar@@QAAPAVCCookieLocation@@PBD0H@Z 10032db4 f   wininet_http:cookie.obj
 0001:00031e68       ?SyncWithCache@CCookieJar@@QAAHXZ 10032e68 f   wininet_http:cookie.obj
 0001:00032124       ?CheckCookiePolicy@CCookieJar@@QAAKPAVHTTP_REQUEST_HANDLE_OBJECT@@PAUCookieInfo@1@K@Z 10033124 f   wininet_http:cookie.obj
 0001:000324b8       ?SetCookie@CCookieJar@@QAAKPAVHTTP_REQUEST_HANDLE_OBJECT@@PBDPADAAKPAUP3PCookieState@@PAK@Z 100334b8 f   wininet_http:cookie.obj
 0001:00032a88       ?OpenTheCookieJar@@YAHXZ   10033a88 f   wininet_http:cookie.obj
 0001:00032b04       InternetGetCookieExA       10033b04 f   wininet_http:cookie.obj
 0001:00032e8c       InternetGetCookieExW       10033e8c f   wininet_http:cookie.obj
 0001:00033044       InternetGetCookieA         10034044 f   wininet_http:cookie.obj
 0001:00033068       ?InternalInternetSetCookie@@YAHPBD00KPAX@Z 10034068 f   wininet_http:cookie.obj
 0001:0003348c       InternetSetCookieA         1003448c f   wininet_http:cookie.obj
 0001:000334b4       ?ExtractSetCookieHeaders@HTTP_REQUEST_HANDLE_OBJECT@@QAAKPAK@Z 100344b4 f   wininet_http:cookie.obj
 0001:000338ec       InternetSetCookieExW       100348ec f   wininet_http:cookie.obj
 0001:00033a94       InternetSetCookieExA       10034a94 f   wininet_http:cookie.obj
 0001:00033ab0       ?CreateCookieHeaderIfNeeded@HTTP_REQUEST_HANDLE_OBJECT@@QAAKPAH@Z 10034ab0 f   wininet_http:cookie.obj
 0001:00033ec8       InternetGetCookieW         10034ec8 f   wininet_http:cookie.obj
 0001:00033ee8       InternetSetCookieW         10034ee8 f   wininet_http:cookie.obj
 0001:00034028       ?MapDayMonthToDword@@YAKPBD@Z 10035028 f i wininet_http:httptime.obj
 0001:000341bc       ?FInternalParseHttpDate@@YAHPAU_FILETIME@@PAU_SYSTEMTIME@@PBD@Z 100351bc f   wininet_http:httptime.obj
 0001:00034528       FParseHttpDate             10035528 f   wininet_http:httptime.obj
 0001:00034534       FFileTimetoHttpDateTime    10035534 f   wininet_http:httptime.obj
 0001:000345f0       ?HttpDateToSystemTime@@YAHPADPAU_SYSTEMTIME@@@Z 100355f0 f   wininet_http:httptime.obj
 0001:000345fc       InternetTimeFromSystemTimeA 100355fc f   wininet_http:httptime.obj
 0001:000346f4       InternetTimeToSystemTimeA  100356f4 f   wininet_http:httptime.obj
 0001:00034738       InternetTimeFromSystemTimeW 10035738 f   wininet_http:httptime.obj
 0001:00034820       InternetTimeToSystemTimeW  10035820 f   wininet_http:httptime.obj
 0001:00034910       ?buildSymbolTable@@YA_NXZ  10035910 f   wininet_http:cookiepolicy.obj
 0001:000349b0       ?findSymbol@@YAHPBD@Z      100359b0 f   wininet_http:cookiepolicy.obj
 0001:00034a6c       ?mapCookieAction@@YAHD@Z   10035a6c f   wininet_http:cookiepolicy.obj
 0001:00034ac4       ?getNextToken@@YAPBDPBDPADH_NPAH@Z 10035ac4 f   wininet_http:cookiepolicy.obj
 0001:00034c14       ?extractCompactPolicy@CCookieSettings@@SA_NPBDPADPAK@Z 10035c14 f   wininet_http:cookiepolicy.obj
 0001:00034c9c       ?convertToASCII@CCookieSettings@@KAXPADH@Z 10035c9c f   wininet_http:cookiepolicy.obj
 0001:00034cd8       ?parseSpecialSymbol@CCookieSettings@@IAA_NPADH@Z 10035cd8 f   wininet_http:cookiepolicy.obj
 0001:00034d88       ??1CCookieSettings@@IAA@XZ 10035d88 f   wininet_http:cookiepolicy.obj
 0001:00034dd8       ?lookupCookieSettings@CP3PSettingsCache@@QAAPAVCCookieSettings@@KH@Z 10035dd8 f   wininet_http:cookiepolicy.obj
 0001:00034e3c       ?saveCookieSettings@CP3PSettingsCache@@QAAXKHPAVCCookieSettings@@@Z 10035e3c f   wininet_http:cookiepolicy.obj
 0001:00034e90       ??ICompactPolicy@@QBA?AU0@ABU0@@Z 10035e90 f   wininet_http:cookiepolicy.obj
 0001:00034edc       ??8CompactPolicy@@QBA_NABU0@@Z 10035edc f   wininet_http:cookiepolicy.obj
 0001:00034f30       ?addToken@CompactPolicy@@QAAXH@Z 10035f30 f   wininet_http:cookiepolicy.obj
 0001:00034fb8       ?IsSignaturePresent@@YAKPAEK@Z 10035fb8 f   wininet_http:cookiepolicy.obj
 0001:00035020       ?GetNextObsByte@@YAEPAU_obs@@@Z 10036020 f   wininet_http:cookiepolicy.obj
 0001:00035070       ?ObfuscateString@@YAXPAGH@Z 10036070 f   wininet_http:cookiepolicy.obj
 0001:000350d0       ?UnobfuscateString@@YAXPAEHPAGH@Z 100360d0 f   wininet_http:cookiepolicy.obj
 0001:00035154       ?IsAdvanced@@YAHXZ         10036154 f   wininet_http:cookiepolicy.obj
 0001:00035190       PrivacySetZonePreferenceW  10036190 f   wininet_http:cookiepolicy.obj
 0001:000353a0       PrivacyGetZonePreferenceW  100363a0 f   wininet_http:cookiepolicy.obj
 0001:00035618       ?EvaluatePolicy@CCookieSettings@@QAAHPAUP3PCookieState@@@Z 10036618 f   wininet_http:cookiepolicy.obj
 0001:00035830       ??0CCookieSettings@@IAA@PAEH@Z 10036830 f   wininet_http:cookiepolicy.obj
 0001:000359f8       ?GetSettings@CCookieSettings@@SA_NPAPAV1@KH@Z 100369f8 f   wininet_http:cookiepolicy.obj
 0001:00035b90       ?GetSettings@CCookieSettings@@SA_NPAPAV1@PBDHH@Z 10036b90 f   wininet_http:cookiepolicy.obj
 0001:00035bc0       ?Release@CCookieSettings@@QAAXXZ 10036bc0 f   wininet_http:cookiepolicy.obj
 0001:00035be8       ?evictAll@CP3PSettingsCache@@QAAXXZ 10036be8 f   wininet_http:cookiepolicy.obj
 0001:00035c9c       ?RefreshP3PSettings@CCookieSettings@@SAXXZ 10036c9c f   wininet_http:cookiepolicy.obj
 0001:00035cd0       ??1CP3PSettingsCache@@QAA@XZ 10036cd0 f   wininet_http:cookiepolicy.obj
 0001:00035d34       ?RefreshP3PSettings@@YAXXZ 10036d34 f   wininet_http:cookiepolicy.obj
 0001:00035d38       ?ResizeString@ICSTRING@@QAAXK@Z 10036d38 f i wininet_http:headers.obj
 0001:00035d94       ?HashStrnicmp@HEADER_STRING@@QAAHPAD0KK@Z 10036d94 f i wininet_http:headers.obj
 0001:00035e28       ?RemoveHeader@HTTP_HEADERS@@QAAXKKPAE@Z 10036e28 f i wininet_http:headers.obj
 0001:00035ea8       ?GetEmptyHeader@HTTP_HEADERS@@QBAPAVHEADER_STRING@@XZ 10036ea8 f i wininet_http:headers.obj
 0001:00035f00       ?CalculateHashNoCase@@YIKPADK@Z 10036f00 f   wininet_http:headers.obj
 0001:00035f48       ?FreeHeaders@HTTP_HEADERS@@QAAXXZ 10036f48 f   wininet_http:headers.obj
 0001:00036044       ?CopyHeaders@HTTP_HEADERS@@QAAXPAPADK@Z 10037044 f   wininet_http:headers.obj
 0001:00036218       ?CreateAlternateObject@HTTP_HEADERS@@QAAKPAVHTTP_REQUEST_HANDLE_OBJECT@@@Z 10037218 f   wininet_http:headers.obj
 0001:00036350       ?CreateAlternateHostHeader@HTTP_HEADERS@@QAAKPAVHTTP_REQUEST_HANDLE_OBJECT@@@Z 10037350 f   wininet_http:headers.obj
 0001:000364d4       ?ShrinkHeader@HTTP_HEADERS@@QAAXPAEKKKK@Z 100374d4 f   wininet_http:headers.obj
 0001:00036514       ?FastFind@HTTP_HEADERS@@QAAKKK@Z 10037514 f i wininet_http:headers.obj
 0001:00036558       ?FastNukeFind@HTTP_HEADERS@@QAAKKKPAPAE@Z 10037558 f i wininet_http:headers.obj
 0001:000365b4       ?RemoveAllByIndex@HTTP_HEADERS@@QAAXK@Z 100375b4 f   wininet_http:headers.obj
 0001:00036604       ?HeaderMatch@HTTP_HEADERS@@QAAHKPADKPAK@Z 10037604 f i wininet_http:headers.obj
 0001:00036684       ?FastFindHeader@HTTP_HEADERS@@QAAKPADKPAPAXPAKK@Z 10037684 f   wininet_http:headers.obj
 0001:00036760       ?QueryRawHeaders@HTTP_HEADERS@@QAAKPADHPAXPAK@Z 10037760 f   wininet_http:headers.obj
 0001:000368d8       ?SetRequestVersion@HTTP_HEADERS@@QAAKXZ 100378d8 f   wininet_http:headers.obj
 0001:00036990       ?QueryRequestVersion@HTTP_HEADERS@@QAAKPAXPAK@Z 10037990 f   wininet_http:headers.obj
 0001:00036a18       ?IsValidVerb@HTTP_HEADERS@@QAAKPBD@Z 10037a18 f   wininet_http:headers.obj
 0001:00036aa8       ?CleanseString@@YAKPBDPAK@Z 10037aa8 f   wininet_http:headers.obj
 0001:00036afc       ?QueryResponseVersion@HTTP_REQUEST_HANDLE_OBJECT@@QAAKPAXPAK@Z 10037afc f   wininet_http:headers.obj
 0001:00036bf4       ?QueryStatusCode@HTTP_REQUEST_HANDLE_OBJECT@@QAAKPAXPAKK@Z 10037bf4 f   wininet_http:headers.obj
 0001:00036cf0       ?QueryStatusText@HTTP_REQUEST_HANDLE_OBJECT@@QAAKPAXPAK@Z 10037cf0 f   wininet_http:headers.obj
 0001:00036e00       ?QueryRawResponseHeaders@HTTP_REQUEST_HANDLE_OBJECT@@QAAKHPAXPAK@Z 10037e00 f   wininet_http:headers.obj
 0001:00036e6c       ?RemoveAllRequestHeadersByName@HTTP_REQUEST_HANDLE_OBJECT@@QAAXK@Z 10037e6c f   wininet_http:headers.obj
 0001:00036eb0       ?RemoveToken@@YAKPADK0K@Z  10037eb0 f   wininet_http:headers.obj
 0001:00036fa8       ?CheckDecompression@HTTP_REQUEST_HANDLE_OBJECT@@AAAXXZ 10037fa8 f   wininet_http:headers.obj
 0001:00037354       ?MapHttpRequestMethod@@YA?AW4HTTP_METHOD_TYPE@@PBD@Z 10038354 f   wininet_http:headers.obj
 0001:000373c0       ?MapHttpMethodType@@YAKW4HTTP_METHOD_TYPE@@PAPBD@Z 100383c0 f   wininet_http:headers.obj
 0001:000373ec       ?FMatchList@@YAHPAPADKPAVHEADER_STRING@@PAD@Z 100383ec f   wininet_http:headers.obj
 0001:00037470       ??1HTTP_HEADERS@@QAA@XZ    10038470 f i wininet_http:headers.obj
 0001:000374b4       ?AllocateHeaders@HTTP_HEADERS@@AAAKK@Z 100384b4 f   wininet_http:headers.obj
 0001:000375a8       ?CreateAlternateReferrerHeader@HTTP_HEADERS@@QAAKPAVHTTP_REQUEST_HANDLE_OBJECT@@@Z 100385a8 f   wininet_http:headers.obj
 0001:0003779c       ?FindFreeSlot@HTTP_HEADERS@@QAIPAVHEADER_STRING@@PAK@Z 1003879c f   wininet_http:headers.obj
 0001:000378d0       ?SlowFind@HTTP_HEADERS@@QAAKPAD0KKKPAKPAPAE@Z 100388d0 f i wininet_http:headers.obj
 0001:00037a04       ?AddHeader@HTTP_HEADERS@@QAAKPADK0KKK@Z 10038a04 f   wininet_http:headers.obj
 0001:00037c80       ?AddHeader@HTTP_HEADERS@@QAAKKPADKKK@Z 10038c80 f   wininet_http:headers.obj
 0001:00037e6c       ?ReplaceHeader@HTTP_HEADERS@@QAAKPADK0KKK@Z 10038e6c f   wininet_http:headers.obj
 0001:00038018       ?ReplaceHeader@HTTP_HEADERS@@QAAKKPADKKK@Z 10039018 f   wininet_http:headers.obj
 0001:00038140       ?FindHeader@HTTP_HEADERS@@QAAKPAD0KKPAXPAK2@Z 10039140 f   wininet_http:headers.obj
 0001:00038374       ?FindHeader@HTTP_HEADERS@@QAAKPADKKPAXPAK2@Z 10039374 f   wininet_http:headers.obj
 0001:000384f0       ?QueryFilteredRawHeaders@HTTP_HEADERS@@QAAKPADPAPADKHHHPAXPAK@Z 100394f0 f   wininet_http:headers.obj
 0001:00038670       ?AddRequest@HTTP_HEADERS@@QAAKPAD00@Z 10039670 f   wininet_http:headers.obj
 0001:00038868       ?ModifyRequest@HTTP_HEADERS@@QAAKW4HTTP_METHOD_TYPE@@PADK1K@Z 10039868 f   wininet_http:headers.obj
 0001:00038ab4       ?QueryRequestHeader@HTTP_REQUEST_HANDLE_OBJECT@@QAAKPADKPAXPAKK2@Z 10039ab4 f   wininet_http:headers.obj
 0001:00038b38       ?QueryRequestHeader@HTTP_REQUEST_HANDLE_OBJECT@@QAAKKPAXPAKK1@Z 10039b38 f   wininet_http:headers.obj
 0001:00038bb0       ?AddInternalResponseHeader@HTTP_REQUEST_HANDLE_OBJECT@@QAAKKPADK@Z 10039bb0 f   wininet_http:headers.obj
 0001:00038ca4       ?CheckWellKnownHeaders@HTTP_REQUEST_HANDLE_OBJECT@@AAAKXZ 10039ca4 f   wininet_http:headers.obj
 0001:000391e4       ?ParseStatusLine@HTTP_HEADER_PARSER@@QAAHPADKHPAK111@Z 1003a1e4 f   wininet_http:headers.obj
 0001:00039424       ?ParseHeaders@HTTP_HEADER_PARSER@@QAAKPADKHPAKPAH2@Z 1003a424 f   wininet_http:headers.obj
 0001:000396f8       ?Initialize@HTTP_HEADERS@@QAAXXZ 1003a6f8 f i wininet_http:headers.obj
 0001:00039798       ?CreateAlternateHeaders@HTTP_HEADERS@@QAAKPAVHTTP_REQUEST_HANDLE_OBJECT@@@Z 1003a798 f   wininet_http:headers.obj
 0001:000397d0       ?CreateRequestBuffer@HTTP_REQUEST_HANDLE_OBJECT@@QAAPADPAKPAXKHKPAH@Z 1003a7d0 f   wininet_http:headers.obj
 0001:00039b4c       ?UpdateResponseHeaders@HTTP_REQUEST_HANDLE_OBJECT@@QAAKPAH@Z 1003ab4c f   wininet_http:headers.obj
 0001:00039f70       ?CreateResponseHeaders@HTTP_REQUEST_HANDLE_OBJECT@@QAAKPAPADK@Z 1003af70 f   wininet_http:headers.obj
 0001:0003a018       ??0HTTP_HEADERS@@QAA@XZ    1003b018 f i wininet_http:headers.obj
 0001:0003a054       ??0HTTP_HEADER_PARSER@@QAA@PADK@Z 1003b054 f   wininet_http:headers.obj
 0001:0003a0b4       ?SetCheckedConnCloseRequest@HTTP_REQUEST_HANDLE_OBJECT@@QAAXHH@Z 1003b0b4 f i wininet_http:sendreq.obj
 0001:0003a100       ??0CFsm_SendRequest@@QAA@PAXKPAVHTTP_REQUEST_HANDLE_OBJECT@@@Z 1003b100 f i wininet_http:sendreq.obj
 0001:0003a150       ??_ECFsm_SendRequest@@UAAPAXI@Z 1003b150 f i wininet_http:sendreq.obj
 0001:0003a150       ??_GCFsm_SendRequest@@UAAPAXI@Z 1003b150 f i wininet_http:sendreq.obj
 0001:0003a19c       ??0CFsm_ReceiveResponse@@QAA@PAVHTTP_REQUEST_HANDLE_OBJECT@@@Z 1003b19c f i wininet_http:sendreq.obj
 0001:0003a1e0       ?ReportResult@WiSqm@@AAAXXZ 1003b1e0 f i wininet_http:sendreq.obj
 0001:0003a238       ?CheckClientRequestHeaders@HTTP_REQUEST_HANDLE_OBJECT@@QAAXXZ 1003b238 f   wininet_http:sendreq.obj
 0001:0003a300       ?HttpSendRequest_Finish@HTTP_REQUEST_HANDLE_OBJECT@@QAAKPAVCFsm_HttpSendRequest@@@Z 1003b300 f   wininet_http:sendreq.obj
 0001:0003a3bc       ?BuildProxyMessage@HTTP_REQUEST_HANDLE_OBJECT@@QAAKPADPAVAUTO_PROXY_ASYNC_MSG@@PAUURL_COMPONENTSA@@@Z 1003b3bc f   wininet_http:sendreq.obj
 0001:0003a4c0       ?QueryProxySettings@HTTP_REQUEST_HANDLE_OBJECT@@QAAKPAVCFsmWithProxy@@PAVINTERNET_HANDLE_OBJECT@@PAUURL_COMPONENTSA@@@Z 1003b4c0 f   wininet_http:sendreq.obj
 0001:0003a538       ?ProcessProxySettings@HTTP_REQUEST_HANDLE_OBJECT@@QAAKPAVCFsmWithProxy@@PAVINTERNET_CONNECT_HANDLE_OBJECT@@PAUURL_COMPONENTSA@@PAPADPAK@Z 1003b538 f   wininet_http:sendreq.obj
 0001:0003a96c       ?FindConnCloseRequestHeader@HTTP_REQUEST_HANDLE_OBJECT@@QAAHK@Z 1003b96c f   wininet_http:sendreq.obj
 0001:0003aa6c       ?RemoveGzipDeflateEncHeader@HTTP_REQUEST_HANDLE_OBJECT@@QAAXXZ 1003ba6c f   wininet_http:sendreq.obj
 0001:0003ab1c       ??0AUTO_PROXY_ASYNC_MSG@@QAA@XZ 1003bb1c f i wininet_http:sendreq.obj
 0001:0003ab9c       ??_ECFsm_ReceiveResponse@@UAAPAXI@Z 1003bb9c f i wininet_http:sendreq.obj
 0001:0003ab9c       ??_GCFsm_ReceiveResponse@@UAAPAXI@Z 1003bb9c f i wininet_http:sendreq.obj
 0001:0003abc0       ?UpdateRequestInfo@HTTP_REQUEST_HANDLE_OBJECT@@QAAKPAVCFsmWithProxy@@PADKPAUURL_COMPONENTSA@@PAPAVCServerInfo@@@Z 1003bbc0 f   wininet_http:sendreq.obj
 0001:0003afc8       ?UpdateProxyInfo@HTTP_REQUEST_HANDLE_OBJECT@@QAAKPAVCFsmWithProxy@@H@Z 1003bfc8 f   wininet_http:sendreq.obj
 0001:0003b330       ?HttpSendRequest_Start@HTTP_REQUEST_HANDLE_OBJECT@@QAAKPAVCFsm_HttpSendRequest@@@Z 1003c330 f   wininet_http:sendreq.obj
 0001:0003c0d8       ?RunSM@CFsm_HttpSendRequest@@SAKPAVCFsm@@@Z 1003d0d8 f   wininet_http:sendreq.obj
 0001:0003c1b8       ??0?$auto_xxx@PAVCandidateEnumerator@@P6AXPAV1@@Z$1??$_delete@VCandidateEnumerator@@@ce@@YAX0@Z$0A@V?$_ref_counting_t@V?$singleton_allocator@V?$free_list@$0GE@Vallocator@ce@@@ce@@$03@ce@@@2@@ce@@QAA@ABV01@@Z 1003d1b8 f i wininet_http:sendreq.obj
 0001:0003c200       ??0WiSqm@@QAA@V?$smart_ptr@VCandidateEnumerator@@@ce@@KH@Z 1003d200 f i wininet_http:sendreq.obj
 0001:0003c2f8       ?InitBeginSendRequest@HTTP_REQUEST_HANDLE_OBJECT@@QAAKPBDKPAPAXPAKKPAH@Z 1003d2f8 f   wininet_http:sendreq.obj
 0001:0003c6b4       pHttpGetUrlString          1003d6b4 f   wininet_http:request.obj
 0001:0003c8d8       ??_ECPEvalRule@@UAAPAXI@Z  1003d8d8 f i wininet_http:cpevalrule.obj
 0001:0003c8d8       ??_GCPEvalRule@@UAAPAXI@Z  1003d8d8 f i wininet_http:cpevalrule.obj
 0001:0003c8fc       ?evaluate@IncludeExcludeRule@@UAAHABUCompactPolicy@@@Z 1003d8fc f i wininet_http:cpevalrule.obj
 0001:0003c9b0       ??_EIncludeExcludeRule@@UAAPAXI@Z 1003d9b0 f i wininet_http:cpevalrule.obj
 0001:0003c9b0       ??_GIncludeExcludeRule@@UAAPAXI@Z 1003d9b0 f i wininet_http:cpevalrule.obj
 0001:0003c9dc       ?parseEvalRule@@YAPAVCPEvalRule@@PBDPAPAD@Z 1003d9dc f   wininet_http:cpevalrule.obj
 0001:0003cb44       ?SendRequest_Fsm@HTTP_REQUEST_HANDLE_OBJECT@@QAAKPAVCFsm_SendRequest@@@Z 1003db44 f   wininet_http:send.obj
 0001:0003d050       ??_GCFsm_MakeConnection@@UAAPAXI@Z 1003e050 f i wininet_http:send.obj
 0001:0003d050       ??_ECFsm_MakeConnection@@UAAPAXI@Z 1003e050 f i wininet_http:send.obj
 0001:0003d074       ?RunSM@CFsm_SendRequest@@SAKPAVCFsm@@@Z 1003e074 f   wininet_http:send.obj
 0001:0003d0dc       ?ReceiveResponse_Fsm@HTTP_REQUEST_HANDLE_OBJECT@@QAAKPAVCFsm_ReceiveResponse@@@Z 1003e0dc f   wininet_http:response.obj
 0001:0003d8e0       ?RunSM@CFsm_ReceiveResponse@@SAKPAVCFsm@@@Z 1003e8e0 f   wininet_http:response.obj
 0001:0003d940       ?IsPragmaNoCacheHeaderPresent@HTTP_REQUEST_HANDLE_OBJECT@@QAAHXZ 1003e940 f   wininet_http:cache.obj
 0001:0003d9e8       ?CheckCacheControlHeaders@HTTP_REQUEST_HANDLE_OBJECT@@QAAXPAH00@Z 1003e9e8 f   wininet_http:cache.obj
 0001:0003db58       ?CheckVaryHeaders@HTTP_REQUEST_HANDLE_OBJECT@@QAAXPAH0@Z 1003eb58 f   wininet_http:cache.obj
 0001:0003dc2c       ?IsWebDAVTranslateHeaderPresent@HTTP_REQUEST_HANDLE_OBJECT@@QAAHXZ 1003ec2c f   wininet_http:cache.obj
 0001:0003dd38       ?FAddIfModifiedSinceHeader@HTTP_REQUEST_HANDLE_OBJECT@@QAAHPAU_INTERNET_CACHE_ENTRY_INFOA@@@Z 1003ed38 f   wininet_http:cache.obj
 0001:0003de5c       ?RelocateCacheFile@HTTP_REQUEST_HANDLE_OBJECT@@QAAKPBD@Z 1003ee5c f   wininet_http:cache.obj
 0001:0003e228       ?IsExpired@@YAHPAUCACHE_ENTRY_INFOEX@@KPAH@Z 1003f228 f   wininet_http:cache.obj
 0001:0003e454       ?ResumePartialDownload@HTTP_REQUEST_HANDLE_OBJECT@@QAAKXZ 1003f454 f   wininet_http:cache.obj
 0001:0003e7c0       ?AddTimeHeader@HTTP_REQUEST_HANDLE_OBJECT@@QAAKU_FILETIME@@K@Z 1003f7c0 f   wininet_http:cache.obj
 0001:0003e8b8       ?IsPartialResponseCacheable@HTTP_REQUEST_HANDLE_OBJECT@@QAAHXZ 1003f8b8 f   wininet_http:cache.obj
 0001:0003ea44       ?GetTimeStampsForCache@HTTP_REQUEST_HANDLE_OBJECT@@QAAXPAU_FILETIME@@00PAH11@Z 1003fa44 f   wininet_http:cache.obj
 0001:0003eea4       ?FilterHeaders@@YAXPADPAK@Z 1003fea4 f   wininet_http:cache.obj
 0001:0003efd8       ?FExcludedMimeType@@YAHPADK@Z 1003ffd8 f   wininet_http:cache.obj
 0001:0003f074       ?GetTrimmedFileName@@YAHPADKKPAPAD@Z 10040074 f   wininet_http:cache.obj
 0001:0003f138       ?IsMIMETypeCacheable@HTTP_REQUEST_HANDLE_OBJECT@@QAAHXZ 10040138 f   wininet_http:cache.obj
 0001:0003f198       ?AddHeaderIfEtagFound@HTTP_REQUEST_HANDLE_OBJECT@@QAAHPAU_INTERNET_CACHE_ENTRY_INFOA@@@Z 10040198 f   wininet_http:cache.obj
 0001:0003f29c       ?FHttpBeginCacheWrite@HTTP_REQUEST_HANDLE_OBJECT@@QAAHXZ 1004029c f   wininet_http:cache.obj
 0001:0003f6e0       ?AddTimestampsFromCacheToResponseHeaders@HTTP_REQUEST_HANDLE_OBJECT@@QAAKPAU_INTERNET_CACHE_ENTRY_INFOA@@@Z 100406e0 f   wininet_http:cache.obj
 0001:0003f754       ?LocalEndCacheWrite@HTTP_REQUEST_HANDLE_OBJECT@@QAAKH@Z 10040754 f   wininet_http:cache.obj
 0001:0003fbc8       ?FCanWriteToCache@HTTP_REQUEST_HANDLE_OBJECT@@QAAHXZ 10040bc8 f   wininet_http:cache.obj
 0001:0003ff54       ?IsVaryHeaderPresentinCachedResponse@HTTP_REQUEST_HANDLE_OBJECT@@QAAHPAU_INTERNET_CACHE_ENTRY_INFOA@@@Z 10040f54 f   wininet_http:cache.obj
 0001:00040018       ?FHttpBeginCacheRetrieval@HTTP_REQUEST_HANDLE_OBJECT@@QAAKHHH@Z 10041018 f   wininet_http:cache.obj
 0001:00040344       ?GetFromCachePreNetIO@HTTP_REQUEST_HANDLE_OBJECT@@QAAKXZ 10041344 f   wininet_http:cache.obj
 0001:00040670       ?GetFromCachePostNetIO@HTTP_REQUEST_HANDLE_OBJECT@@QAAKKH@Z 10041670 f   wininet_http:cache.obj
 0001:000407dc       ?NormalizeIPv6Literal@@YAKPBDPADPAKPAH@Z 100417dc f   wininet_http:redirect.obj
 0001:00040864       ?Redirect_Fsm@HTTP_REQUEST_HANDLE_OBJECT@@QAAKPAVCFsm_Redirect@@@Z 10041864 f   wininet_http:redirect.obj
 0001:00041588       ?RunSM@CFsm_Redirect@@SAKPAVCFsm@@@Z 10042588 f   wininet_http:redirect.obj
 0001:000415e8       ??_ECFsm_Redirect@@UAAPAXI@Z 100425e8 f i wininet_http:redirect.obj
 0001:000415e8       ??_GCFsm_Redirect@@UAAPAXI@Z 100425e8 f i wininet_http:redirect.obj
 0001:0004160c       ?Redirect@HTTP_REQUEST_HANDLE_OBJECT@@QAAKW4HTTP_METHOD_TYPE@@H@Z 1004260c f   wininet_http:redirect.obj
 0001:00041674       ?SetSecurityEntry@ICSecureSocket@@QAAXPAPAVSECURITY_CACHE_LIST_ENTRY@@@Z 10042674 f i wininet_http:socket.obj
 0001:000416bc       ??0CFsm_GetConnection@@QAA@KGKKPAPAVICSocket@@PAVCServerInfo@@PADPAUCM_SESSION_HANDLE__@@@Z 100426bc f i wininet_http:socket.obj
 0001:00041780       ??_GCFsm_GetConnection@@UAAPAXI@Z 10042780 f i wininet_http:socket.obj
 0001:00041780       ??_ECFsm_GetConnection@@UAAPAXI@Z 10042780 f i wininet_http:socket.obj
 0001:000417c4       ?ReleaseConnection@HTTP_REQUEST_HANDLE_OBJECT@@QAAXHHH@Z 100427c4 f   wininet_http:socket.obj
 0001:0004189c       ?CleanUp@CFsm_OpenProxyTunnel@@QAAXXZ 1004289c f   wininet_http:socket.obj
 0001:00041920       ?CloneResponseBuffer@HTTP_REQUEST_HANDLE_OBJECT@@QAAKPAV1@@Z 10042920 f   wininet_http:socket.obj
 0001:000419d8       ?OpenConnection_Fsm@HTTP_REQUEST_HANDLE_OBJECT@@QAAKPAVCFsm_OpenConnection@@@Z 100429d8 f   wininet_http:socket.obj
 0001:00041f88       ?CloseConnection@HTTP_REQUEST_HANDLE_OBJECT@@QAAKH@Z 10042f88 f   wininet_http:socket.obj
 0001:00042048       ?AbortConnection@HTTP_REQUEST_HANDLE_OBJECT@@QAAKH@Z 10043048 f   wininet_http:socket.obj
 0001:000420d4       ?RunSM@CFsm_OpenConnection@@SAKPAVCFsm@@@Z 100430d4 f   wininet_http:socket.obj
 0001:00042118       ??0CFsm_OpenConnection@@QAA@HPAVHTTP_REQUEST_HANDLE_OBJECT@@H@Z 10043118 f i wininet_http:socket.obj
 0001:00042170       ??_GCFsm_OpenConnection@@UAAPAXI@Z 10043170 f i wininet_http:socket.obj
 0001:00042170       ??_ECFsm_OpenConnection@@UAAPAXI@Z 10043170 f i wininet_http:socket.obj
 0001:00042194       ?OpenConnection@HTTP_REQUEST_HANDLE_OBJECT@@QAAKHH@Z 10043194 f   wininet_http:socket.obj
 0001:000421d8       ??4?$auto_xxx@PAVCandidateEnumerator@@P6AXPAV1@@Z$1??$_delete@VCandidateEnumerator@@@ce@@YAX0@Z$0A@V?$_ref_counting_t@V?$singleton_allocator@V?$free_list@$0GE@Vallocator@ce@@@ce@@$03@ce@@@2@@ce@@QAAAAV01@ABV01@@Z 100431d8 f i wininet_http:socket.obj
 0001:00042254       ?OpenProxyTunnel_Fsm@HTTP_REQUEST_HANDLE_OBJECT@@QAAKPAVCFsm_OpenProxyTunnel@@@Z 10043254 f   wininet_http:socket.obj
 0001:000427d4       ?RunSM@CFsm_OpenProxyTunnel@@SAKPAVCFsm@@@Z 100437d4 f   wininet_http:socket.obj
 0001:00042848       ??0CFsm_OpenProxyTunnel@@QAA@PAVHTTP_REQUEST_HANDLE_OBJECT@@@Z 10043848 f i wininet_http:socket.obj
 0001:00042890       ??_ECFsm_OpenProxyTunnel@@UAAPAXI@Z 10043890 f i wininet_http:socket.obj
 0001:00042890       ??_GCFsm_OpenProxyTunnel@@UAAPAXI@Z 10043890 f i wininet_http:socket.obj
 0001:000428b4       ?OpenProxyTunnel@HTTP_REQUEST_HANDLE_OBJECT@@QAAKXZ 100438b4 f   wininet_http:socket.obj
 0001:000428e8       ?CopyQueriedData@HTTP_REQUEST_HANDLE_OBJECT@@QAAKPAXK@Z 100438e8 f i wininet_http:read.obj
 0001:00042940       ?DrainResponse_Fsm@HTTP_REQUEST_HANDLE_OBJECT@@QAAKPAVCFsm_DrainResponse@@@Z 10043940 f   wininet_http:read.obj
 0001:00042c70       ?SetBadNSReceiveTimeout@HTTP_REQUEST_HANDLE_OBJECT@@QAAXXZ 10043c70 f   wininet_http:read.obj
 0001:00042ce0       ??_ECFsm_ReadLoop@@UAAPAXI@Z 10043ce0 f i wininet_http:read.obj
 0001:00042ce0       ??_GCFsm_ReadLoop@@UAAPAXI@Z 10043ce0 f i wininet_http:read.obj
 0001:00042d04       ?ReadData_Fsm@HTTP_REQUEST_HANDLE_OBJECT@@QAAKPAVCFsm_ReadData@@@Z 10043d04 f   wininet_http:read.obj
 0001:000433d4       ?QueryAvailable_Fsm@HTTP_REQUEST_HANDLE_OBJECT@@QAAKPAVCFsm_HttpQueryAvailable@@@Z 100443d4 f   wininet_http:read.obj
 0001:00043a84       ?RunSM@CFsm_DrainResponse@@SAKPAVCFsm@@@Z 10044a84 f   wininet_http:read.obj
 0001:00043ae4       ??0CFsm_DrainResponse@@QAA@PAHPAVHTTP_REQUEST_HANDLE_OBJECT@@@Z 10044ae4 f i wininet_http:read.obj
 0001:00043b28       ??_ECFsm_DrainResponse@@UAAPAXI@Z 10044b28 f i wininet_http:read.obj
 0001:00043b28       ??_GCFsm_DrainResponse@@UAAPAXI@Z 10044b28 f i wininet_http:read.obj
 0001:00043b4c       ?RunSM@CFsm_ReadData@@SAKPAVCFsm@@@Z 10044b4c f   wininet_http:read.obj
 0001:00043bac       ?RunSM@CFsm_HttpQueryAvailable@@SAKPAVCFsm@@@Z 10044bac f   wininet_http:read.obj
 0001:00043c0c       ?DrainResponse@HTTP_REQUEST_HANDLE_OBJECT@@QAAKPAH@Z 10044c0c f   wininet_http:read.obj
 0001:00043c48       ??0CFsm_ReadData@@QAA@PAXKPAKHKPAVHTTP_REQUEST_HANDLE_OBJECT@@@Z 10044c48 f i wininet_http:read.obj
 0001:00043cb0       ??_ECFsm_ReadData@@UAAPAXI@Z 10044cb0 f i wininet_http:read.obj
 0001:00043cb0       ??_GCFsm_ReadData@@UAAPAXI@Z 10044cb0 f i wininet_http:read.obj
 0001:00043cd4       ??_ECFsm_HttpQueryAvailable@@UAAPAXI@Z 10044cd4 f i wininet_http:read.obj
 0001:00043cd4       ??_GCFsm_HttpQueryAvailable@@UAAPAXI@Z 10044cd4 f i wininet_http:read.obj
 0001:00043cf8       ?ReadData@HTTP_REQUEST_HANDLE_OBJECT@@QAAKPAXKPAKHK@Z 10044cf8 f   wininet_http:read.obj
 0001:00043d58       ?QueryDataAvailable@HTTP_REQUEST_HANDLE_OBJECT@@QAAKPAK@Z 10044d58 f   wininet_http:read.obj
 0001:00043db8       ?HttpReadData_Fsm@HTTP_REQUEST_HANDLE_OBJECT@@QAAKPAVCFsm_HttpReadData@@@Z 10044db8 f   wininet_http:read.obj
 0001:0004403c       ?RunSM@CFsm_HttpReadData@@SAKPAVCFsm@@@Z 1004503c f   wininet_http:read.obj
 0001:0004409c       ??0CFsm_HttpReadData@@QAA@PAXKPAKKPAVHTTP_REQUEST_HANDLE_OBJECT@@@Z 1004509c f i wininet_http:read.obj
 0001:000440f8       ??_ECFsm_HttpReadData@@UAAPAXI@Z 100450f8 f i wininet_http:read.obj
 0001:000440f8       ??_GCFsm_HttpReadData@@UAAPAXI@Z 100450f8 f i wininet_http:read.obj
 0001:0004411c       HttpReadData               1004511c f   wininet_http:read.obj
 0001:000441f4       ?MakeConnection_Fsm@HTTP_REQUEST_HANDLE_OBJECT@@QAAKPAVCFsm_MakeConnection@@@Z 100451f4 f   wininet_http:makeconn.obj
 0001:00044460       ?RunSM@CFsm_MakeConnection@@SAKPAVCFsm@@@Z 10045460 f   wininet_http:makeconn.obj
 0001:000444c0       ?GetToken@CHUNK_TRANSFER@@QAA?AW4CHUNK_TOKEN@@PAPADPADPAKK2@Z 100454c0 f i wininet_http:chunk.obj
 0001:0004461c       ?ParseChunkInput@CHUNK_TRANSFER@@QAAKPADKPAPADPAK@Z 1004561c f   wininet_http:chunk.obj
 0001:00044964       ?RefreshProxy@OpenConnCmHelper@@AAAXXZ 10045964 f i wininet_http:socket_cm.obj
 0001:000449f4       ??0OpenConnCmHelper@@QAA@AAVHTTP_REQUEST_HANDLE_OBJECT@@H@Z 100459f4 f i wininet_http:socket_cm.obj
 0001:00044aa4       ?EnsureServerInfo@OpenConnCmHelper@@QAAKXZ 10045aa4 f i wininet_http:socket_cm.obj
 0001:00044b90       ?ConfigureSocket@OpenConnCmHelper@@QAAKXZ 10045b90 f i wininet_http:socket_cm.obj
 0001:00044c2c       ?UpdateProxyInfoCm@OpenConnCmHelper@@AAAKAAVCFsmWithProxy@@@Z 10045c2c f i wininet_http:socket_cm.obj
 0001:00044d84       ??1CFsm_OpenConnection@@UAA@XZ 10045d84 f   wininet_http:socket_cm.obj
 0001:00044dd0       ?EnsureCandidateNext@OpenConnCmHelper@@QAAKAAVCFsm_OpenConnection@@@Z 10045dd0 f i wininet_http:socket_cm.obj
 0001:00044e94       ?HandleSuccess@OpenConnCmHelper@@QAAXXZ 10045e94 f i wininet_http:socket_cm.obj
 0001:00044f8c       ?HandleFailure@OpenConnCmHelper@@QAAXPAHPAKK@Z 10045f8c f i wininet_http:socket_cm.obj
 0001:0004510c       ?EnsureAcquired@OpenConnCmHelper@@AAAKAAVICSocket@@@Z 1004610c f i wininet_http:socket_cm.obj
 0001:000452ac       ?GetConnection@OpenConnCmHelper@@QAAKHH@Z 100462ac f i wininet_http:socket_cm.obj
 0001:00045488       ?Connect@OpenConnCmHelper@@QAAKPAH@Z 10046488 f i wininet_http:socket_cm.obj
 0001:0004587c       ?OpenConnection_FsmCm@HTTP_REQUEST_HANDLE_OBJECT@@QAAKAAVCFsm_OpenConnection@@@Z 1004687c f   wininet_http:socket_cm.obj
 0001:00045c04       ?GetDownloadFileReadHandle@HTTP_REQUEST_HANDLE_OBJECT@@AAAPAXXZ 10046c04 f i wininet_http:prefetch.obj
 0001:00045c80       ?AttemptReadFromFile@HTTP_REQUEST_HANDLE_OBJECT@@QAAHPAXKPAK@Z 10046c80 f   wininet_http:prefetch.obj
 0001:00045da4       ?SetStreamPointer@HTTP_REQUEST_HANDLE_OBJECT@@QAAKJK@Z 10046da4 f   wininet_http:prefetch.obj
 0001:00045e90       ?WriteResponseBufferToCache@HTTP_REQUEST_HANDLE_OBJECT@@QAAKXZ 10046e90 f   wininet_http:prefetch.obj
 0001:00045ed4       ?WriteQueryBufferToCache@HTTP_REQUEST_HANDLE_OBJECT@@QAAKXZ 10046ed4 f   wininet_http:prefetch.obj
 0001:00045f20       ?ReadLoop_Fsm@HTTP_REQUEST_HANDLE_OBJECT@@QAAKPAVCFsm_ReadLoop@@@Z 10046f20 f   wininet_http:prefetch.obj
 0001:000461f4       ?RunSM@CFsm_ReadLoop@@SAKPAVCFsm@@@Z 100471f4 f   wininet_http:prefetch.obj
 0001:00046254       ?GlobalInit@DECOMPRESSOR@@SAKXZ 10047254 f   wininet_http:decompr.obj
 0001:000462c8       ?Init@DECOMPRESSOR@@QAAKH@Z 100472c8 f   wininet_http:decompr.obj
 0001:000462ec       ?Reset@DECOMPRESSOR@@QAAXXZ 100472ec f   wininet_http:decompr.obj
 0001:00046358       ??1DECOMPRESSOR@@QAA@XZ    10047358 f   wininet_http:decompr.obj
 0001:0004635c       ?GetDecompressedData@DECOMPRESSOR@@QAAKPAXKPAK@Z 1004735c f   wininet_http:decompr.obj
 0001:00046474       ?GetReadBuffer@DECOMPRESSOR@@QAAKKHPAPAXPAK@Z 10047474 f   wininet_http:decompr.obj
 0001:00046650       ?AddCompressedData@DECOMPRESSOR@@QAAKPAXK@Z 10047650 f   wininet_http:decompr.obj
 0001:00046828       ?GenerateDecompressedData@DECOMPRESSOR@@QAAKPAXKPAK@Z 10047828 f   wininet_http:decompr.obj
 0001:00046adc       ?Convert@UnicodeBuf@@QAAPAGPBD@Z 10047adc f i wininet_httpauth:urlzone.obj
 0001:00046b4c       ?UrlZonesAttach@@YAHXZ     10047b4c f   wininet_httpauth:urlzone.obj
 0001:00046c58       UrlZonesDetach             10047c58 f   wininet_httpauth:urlzone.obj
 0001:00046ce8       ?RefSecMgr@@YAPAUIInternetSecurityManager@@XZ 10047ce8 f i wininet_httpauth:urlzone.obj
 0001:00046d50       ?RefZoneMgr@@YAPAUIInternetZoneManager@@XZ 10047d50 f i wininet_httpauth:urlzone.obj
 0001:00046db8       ?RetryHeaderOnlyPostOnConnectionReset@@YAHXZ 10047db8 f   wininet_httpauth:urlzone.obj
 0001:00046dd8       ?IsCacheFileRenamingEnabled@@YAHXZ 10047dd8 f   wininet_httpauth:urlzone.obj
 0001:00046de0       DoesProcessDisableUserPswdForHttp 10047de0 f   wininet_httpauth:urlzone.obj
 0001:00046df0       ?CheckZoneElevationOnRedirect@@YAKPBD0@Z 10047df0 f   wininet_httpauth:urlzone.obj
 0001:00046fd0       ?GetCredPolicy@@YAKPAD@Z   10047fd0 f   wininet_httpauth:urlzone.obj
 0001:00047188       ?GetCookieMainSwitch@@YAKK@Z 10048188 f   wininet_httpauth:urlzone.obj
 0001:00047210       ?GetClientCertPromptPolicy@@YAKPBDH@Z 10048210 f   wininet_httpauth:urlzone.obj
 0001:00047308       ?IsNoCookies@@YAHK@Z       10048308 f   wininet_httpauth:urlzone.obj
 0001:00047388       ?SetNoCookies@@YAXKK@Z     10048388 f   wininet_httpauth:urlzone.obj
 0001:0004742c       GetZoneFromUrl             1004842c f   wininet_httpauth:urlzone.obj
 0001:000474cc       ?GetCookieMainSwitch@@YAKPBD@Z 100484cc f   wininet_httpauth:urlzone.obj
 0001:000474dc       ?GetContextPtr@HTTPFILT@@AAAPAPAXPAX@Z 100484dc f   wininet_httpauth:httpfilt.obj
 0001:000475b8       ?Open@HTTPFILT@@QAAHXZ     100485b8 f   wininet_httpauth:httpfilt.obj
 0001:00047718       ?Close@HTTPFILT@@QAAHXZ    10048718 f   wininet_httpauth:httpfilt.obj
 0001:000477e0       ?OnRequest@HTTPFILT@@QAAHPAX@Z 100487e0 f   wininet_httpauth:httpfilt.obj
 0001:00047874       ?OnResponse@HTTPFILT@@QAAHPAX@Z 10048874 f   wininet_httpauth:httpfilt.obj
 0001:0004791c       ?OnBlockingOps@HTTPFILT@@QAAHPAXPAUHWND__@@@Z 1004891c f   wininet_httpauth:httpfilt.obj
 0001:000479d0       ?OnTransactionComplete@HTTPFILT@@QAAHPAX@Z 100489d0 f   wininet_httpauth:httpfilt.obj
 0001:00047abc       ?HttpFiltOpen@@YAHXZ       10048abc f   wininet_httpauth:httpfilt.obj
 0001:00047bb0       ?HttpFiltClose@@YAHXZ      10048bb0 f   wininet_httpauth:httpfilt.obj
 0001:00047bf0       ?HttpFiltOnRequest@@YAHPAX@Z 10048bf0 f   wininet_httpauth:httpfilt.obj
 0001:00047c24       ?HttpFiltOnResponse@@YAHPAX@Z 10048c24 f   wininet_httpauth:httpfilt.obj
 0001:00047cfc       ?HttpFiltOnBlockingOps@@YAHPAX0PAUHWND__@@@Z 10048cfc f   wininet_httpauth:httpfilt.obj
 0001:00047d90       ?HttpFiltOnTransactionComplete@@YAHPAX@Z 10048d90 f   wininet_httpauth:httpfilt.obj
 0001:00047db8       ?GetChannelBindingToken@SECURITY_CACHE_LIST_ENTRY@@QAAXPAPAXPAK@Z 10048db8 f i wininet_httpauth:splugin.obj
 0001:00047e30       ?GetCredTimeStamp@INTERNET_CONNECT_HANDLE_OBJECT@@QAAPAU_SYSTEMTIME@@XZ 10048e30 f i wininet_httpauth:splugin.obj
 0001:00047e84       ?GetCredPolicy@HTTP_REQUEST_HANDLE_OBJECT@@QAAKXZ 10048e84 f i wininet_httpauth:splugin.obj
 0001:00047ec8       ?PWC_Free@@YAXPAUPWC@@@Z   10048ec8 f   wininet_httpauth:splugin.obj
 0001:00047f60       ?SetUser@PWC@@QAAKPBD@Z    10048f60 f   wininet_httpauth:splugin.obj
 0001:0004801c       ?SetUserW@PWC@@QAAKPBG@Z   1004901c f   wininet_httpauth:splugin.obj
 0001:000480c8       ?GetUser@PWC@@QAAPADXZ     100490c8 f   wininet_httpauth:splugin.obj
 0001:000480d0       ?GetUserW@PWC@@QAAPAGXZ    100490d0 f   wininet_httpauth:splugin.obj
 0001:000480d8       ?SetPassW@PWC@@QAAKPBG@Z   100490d8 f   wininet_httpauth:splugin.obj
 0001:00048190       ?GetPassW@PWC@@QAAPAGXZ    10049190 f   wininet_httpauth:splugin.obj
 0001:00048214       ?IsUserSet@PWC@@QAAHXZ     10049214 f   wininet_httpauth:splugin.obj
 0001:00048228       ?IsPassSet@PWC@@QAAHXZ     10049228 f   wininet_httpauth:splugin.obj
 0001:0004823c       ?FlushPwcList@@YAXPAPAUPWC@@@Z 1004923c f   wininet_httpauth:splugin.obj
 0001:0004828c       ?AuthOpen@@YAHXZ           1004928c f   wininet_httpauth:splugin.obj
 0001:00048298       ?AuthClose@@YAXXZ          10049298 f   wininet_httpauth:splugin.obj
 0001:000482c4       ?AuthLock@@YAXXZ           100492c4 f   wininet_httpauth:splugin.obj
 0001:000482d0       ?AuthUnlock@@YAXXZ         100492d0 f   wininet_httpauth:splugin.obj
 0001:000482ec       ?AuthInDialog@@YAHPAVAUTHCTX@@PAUINTERNET_AUTH_NOTIFY_DATA@@PAH@Z 100492ec f   wininet_httpauth:splugin.obj
 0001:00048418       ?AuthNotify@@YAXPAUPWC@@K@Z 10049418 f   wininet_httpauth:splugin.obj
 0001:000484f4       ?SspiFlush@@YAXPBD@Z       100494f4 f   wininet_httpauth:splugin.obj
 0001:0004854c       ?TemplateMatch@@YAHPAD0@Z  1004954c f   wininet_httpauth:splugin.obj
 0001:000485f0       ?MakeTemplate@@YAPADPAD@Z  100495f0 f   wininet_httpauth:splugin.obj
 0001:000486d0       ?ReadRegKey@@YAHPAEPAKPBD2K@Z 100496d0 f   wininet_httpauth:splugin.obj
 0001:00048768       ?TrimQuotes@@YAXPAPADPAK@Z 10049768 f   wininet_httpauth:splugin.obj
 0001:000487bc       ?TrimWhiteSpace@@YAXPAPADPAK@Z 100497bc f   wininet_httpauth:splugin.obj
 0001:0004882c       ?GetDelimitedToken@@YAHPAPADPAK01D@Z 1004982c f   wininet_httpauth:splugin.obj
 0001:00048920       ?GetKeyValuePair@@YAHPADKPAPADPAK12@Z 10049920 f   wininet_httpauth:splugin.obj
 0001:000489e0       ??0SPMData@AUTHCTX@@QAA@PADK@Z 100499e0 f   wininet_httpauth:splugin.obj
 0001:00048aec       ??0AUTHCTX@@QAA@PAVSPMData@0@PAUPWC@@@Z 10049aec f   wininet_httpauth:splugin.obj
 0001:00048b5c       ?InitCredUI@AUTHCTX@@QAAHXZ 10049b5c f   wininet_httpauth:splugin.obj
 0001:00048c08       ??1AUTHCTX@@UAA@XZ         10049c08 f   wininet_httpauth:splugin.obj
 0001:00048cac       ?Enumerate@AUTHCTX@@SAXXZ  10049cac f   wininet_httpauth:splugin.obj
 0001:00048d98       ?SearchPwcList@AUTHCTX@@SAPAUPWC@@PAU2@PADK11PAVSPMData@1@@Z 10049d98 f   wininet_httpauth:splugin.obj
 0001:00048e70       ?GetAuthHeaderData@AUTHCTX@@SAKPAVHTTP_REQUEST_HANDLE_OBJECT@@HPADPAPADPAKKK@Z 10049e70 f   wininet_httpauth:splugin.obj
 0001:000490cc       ?FindHdrIdxFromScheme@AUTHCTX@@QAAKPAK@Z 1004a0cc f   wininet_httpauth:splugin.obj
 0001:000491c4       ?GetScheme@AUTHCTX@@QAAPADXZ 1004a1c4 f   wininet_httpauth:splugin.obj
 0001:000491d0       ?GetFlags@AUTHCTX@@QAAKXZ  1004a1d0 f   wininet_httpauth:splugin.obj
 0001:00049204       ?GetState@AUTHCTX@@QAA?AW4SPMState@1@XZ 1004a204 f   wininet_httpauth:splugin.obj
 0001:00049210       ?GetSchemeType@AUTHCTX@@QAA?AW4SPMScheme@1@XZ 1004a210 f   wininet_httpauth:splugin.obj
 0001:00049244       ?GetSPN@AUTHCTX@@QAAPBDPBD@Z 1004a244 f   wininet_httpauth:splugin.obj
 0001:00049364       ?PWC_Create@@YAPAUPWC@@PADK00PAVSPMData@AUTHCTX@@@Z 1004a364 f   wininet_httpauth:splugin.obj
 0001:00049464       ?SetPass@PWC@@QAAKPBD@Z    1004a464 f   wininet_httpauth:splugin.obj
 0001:000494fc       ?GetPass@PWC@@QAAPADXZ     1004a4fc f   wininet_httpauth:splugin.obj
 0001:00049574       ?AddAuthorizationHeader@@YAXPAVHTTP_REQUEST_HANDLE_OBJECT@@PAVAUTHCTX@@@Z 1004a574 f   wininet_httpauth:splugin.obj
 0001:000496f8       ??_EAUTHCTX@@UAAPAXI@Z     1004a6f8 f i wininet_httpauth:splugin.obj
 0001:000496f8       ??_GAUTHCTX@@UAAPAXI@Z     1004a6f8 f i wininet_httpauth:splugin.obj
 0001:0004971c       ?UnloadAll@AUTHCTX@@SAXXZ  1004a71c f   wininet_httpauth:splugin.obj
 0001:0004979c       ?CreateAuthCtx@AUTHCTX@@SAPAV1@PAVHTTP_REQUEST_HANDLE_OBJECT@@HPBD@Z 1004a79c f   wininet_httpauth:splugin.obj
 0001:00049a24       ?CreateAuthCtx@AUTHCTX@@SAPAV1@PAVHTTP_REQUEST_HANDLE_OBJECT@@HPAUPWC@@@Z 1004aa24 f   wininet_httpauth:splugin.obj
 0001:00049b60       ?FindOrCreatePWC@AUTHCTX@@SAPAUPWC@@PAVHTTP_REQUEST_HANDLE_OBJECT@@HPAVSPMData@1@PAD@Z 1004ab60 f   wininet_httpauth:splugin.obj
 0001:00049d34       ?SetUserOrPassW@INTERNET_CONNECT_HANDLE_OBJECT@@QAAXPAGHH@Z 1004ad34 f i wininet_httpauth:splugin.obj
 0001:00049e18       ?AuthFlush@@YAXXZ          1004ae18 f   wininet_httpauth:splugin.obj
 0001:00049f0c       ?AuthUnload@@YAXXZ         1004af0c f   wininet_httpauth:splugin.obj
 0001:00049f48       ?AuthOnRequest@@YAKPAX@Z   1004af48 f   wininet_httpauth:splugin.obj
 0001:0004a794       ?CreateAuthCtx@AUTHCTX@@SAPAV1@PAVHTTP_REQUEST_HANDLE_OBJECT@@H@Z 1004b794 f   wininet_httpauth:splugin.obj
 0001:0004a914       ?ProcessResponseHeaders@@YAKPAXH@Z 1004b914 f   wininet_httpauth:splugin.obj
 0001:0004ac44       ?AuthOnResponse@@YAKPAX@Z  1004bc44 f   wininet_httpauth:splugin.obj
 0001:0004afa0       SpmAddSSPIPkg              1004bfa0 f   wininet_httpauth:sspspm.obj
 0001:0004b114       SpmFreePkgList             1004c114 f   wininet_httpauth:sspspm.obj
 0001:0004b164       SSPI_Unload                1004c164 f   wininet_httpauth:sspspm.obj
 0001:0004b1c0       SSPI_InitGlobals           1004c1c0 f   wininet_httpauth:sspspm.obj
 0001:0004b408       GetPkgId                   1004c408 f   wininet_httpauth:sspspm.obj
 0001:0004b48c       GetPkgCapabilities         1004c48c f   wininet_httpauth:sspspm.obj
 0001:0004b4c0       GetPkgMaxToken             1004c4c0 f   wininet_httpauth:sspspm.obj
 0001:0004b4f4       SSPI_InitScheme            1004c4f4 f   wininet_httpauth:sspspm.obj
 0001:0004b564       ??0BASIC_CTX@@QAA@PAVHTTP_REQUEST_HANDLE_OBJECT@@HPAVSPMData@AUTHCTX@@PAUPWC@@@Z 1004c564 f   wininet_httpauth:basic.obj
 0001:0004b59c       ?PreAuthUser@BASIC_CTX@@UAAKPADPAK@Z 1004c59c f   wininet_httpauth:basic.obj
 0001:0004b724       ?UpdateFromHeaders@BASIC_CTX@@UAAKPAVHTTP_REQUEST_HANDLE_OBJECT@@H@Z 1004c724 f   wininet_httpauth:basic.obj
 0001:0004b84c       ?PostAuthUser@BASIC_CTX@@UAAKXZ 1004c84c f   wininet_httpauth:basic.obj
 0001:0004b8bc       ??_EBASIC_CTX@@UAAPAXI@Z   1004c8bc f i wininet_httpauth:basic.obj
 0001:0004b8bc       ??_GBASIC_CTX@@UAAPAXI@Z   1004c8bc f i wininet_httpauth:basic.obj
 0001:0004b8ec       ?Load@PLUG_CTX@@QAAKXZ     1004c8ec f   wininet_httpauth:plug.obj
 0001:0004b928       ?ClearAuthUser@PLUG_CTX@@QAAKPAPAXPAD@Z 1004c928 f   wininet_httpauth:plug.obj
 0001:0004b9c0       ?wQueryHeadersAlloc@PLUG_CTX@@QAAKPAXKPAKPAPAD1@Z 1004c9c0 f   wininet_httpauth:plug.obj
 0001:0004ba84       ?CrackAuthenticationHeader@PLUG_CTX@@QAAKPAXHKPAPAD1PAK1@Z 1004ca84 f   wininet_httpauth:plug.obj
 0001:0004bb88       ?ResolveProtocol@PLUG_CTX@@QAAXXZ 1004cb88 f   wininet_httpauth:plug.obj
 0001:0004bc7c       ??0PLUG_CTX@@QAA@PAVHTTP_REQUEST_HANDLE_OBJECT@@HPAVSPMData@AUTHCTX@@PAUPWC@@PAXK@Z 1004cc7c f   wininet_httpauth:plug.obj
 0001:0004bd10       ??1PLUG_CTX@@UAA@XZ        1004cd10 f   wininet_httpauth:plug.obj
 0001:0004bd8c       ?PreAuthUser@PLUG_CTX@@UAAKPADPAK@Z 1004cd8c f   wininet_httpauth:plug.obj
 0001:0004c034       ?UpdateFromHeaders@PLUG_CTX@@UAAKPAVHTTP_REQUEST_HANDLE_OBJECT@@H@Z 1004d034 f   wininet_httpauth:plug.obj
 0001:0004c258       ?PostAuthUser@PLUG_CTX@@UAAKXZ 1004d258 f   wininet_httpauth:plug.obj
 0001:0004c5a0       ??_EPLUG_CTX@@UAAPAXI@Z    1004d5a0 f i wininet_httpauth:plug.obj
 0001:0004c5a0       ??_GPLUG_CTX@@UAAPAXI@Z    1004d5a0 f i wininet_httpauth:plug.obj
 0001:0004c5c4       UnloadAuthenticateUser     1004d5c4 f   wininet_httpauth:sspi.obj
 0001:0004c680       SaveServerName             1004d680 f   wininet_httpauth:sspi.obj
 0001:0004c720       BuildNTLMauthData          1004d720 f   wininet_httpauth:sspi.obj
 0001:0004c828       NewWinContext              1004d828 f   wininet_httpauth:sspi.obj
 0001:0004ca08       RedoNTLMAuth4User          1004da08 f   wininet_httpauth:sspi.obj
 0001:0004cca4       AuthenticateUser           1004dca4 f   wininet_httpauth:sspi.obj
 0001:0004cfe8       PreAuthenticateUser        1004dfe8 f   wininet_httpauth:sspi.obj
 0001:0004d240       HTUU_encode                1004e240 f   wininet_httpauth:htuu.obj
 0001:0004d3a8       HTUU_decode                1004e3a8 f   wininet_httpauth:htuu.obj
 0001:0004d578       GetSecAuthMsg              1004e578 f   wininet_httpauth:sspcalls.obj
 0001:0004dad8       ?FilepathWCharToChar@@YAKPBGKPAPADPAK@Z 1004ead8 f   wininet_urlcache:cacheapi.obj
 0001:0004dafc       ?FilepathCharToWChar@@YAKPBDKPAPAGPAK@Z 1004eafc f   wininet_urlcache:cacheapi.obj
 0001:0004db28       ?EntryInfoA2W@@YAKPAU_INTERNET_CACHE_ENTRY_INFOA@@KPAXPAK@Z 1004eb28 f   wininet_urlcache:cacheapi.obj
 0001:0004dc74       ?ContInfoA2W@@YAKPAU_INTERNET_CACHE_CONTAINER_INFOA@@KPAXPAK@Z 1004ec74 f   wininet_urlcache:cacheapi.obj
 0001:0004ddb0       ?ConfigInfoA2W@@YAKPAU_INTERNET_CACHE_CONFIG_INFOA@@PAU_INTERNET_CACHE_CONFIG_INFOW@@@Z 1004edb0 f   wininet_urlcache:cacheapi.obj
 0001:0004de68       ?ConfigInfoW2A@@YAKPAU_INTERNET_CACHE_CONFIG_INFOW@@PAU_INTERNET_CACHE_CONFIG_INFOA@@@Z 1004ee68 f   wininet_urlcache:cacheapi.obj
 0001:0004df18       ?AnyFindsInProgress@@YAHK@Z 1004ef18 f   wininet_urlcache:cacheapi.obj
 0001:0004df64       CreateUrlCacheContainerA   1004ef64 f   wininet_urlcache:cacheapi.obj
 0001:0004dfd8       CreateUrlCacheContainerW   1004efd8 f   wininet_urlcache:cacheapi.obj
 0001:0004e124       CreateUrlCacheEntryA       1004f124 f   wininet_urlcache:cacheapi.obj
 0001:0004e1c0       CreateUrlCacheEntryW       1004f1c0 f   wininet_urlcache:cacheapi.obj
 0001:0004e3c4       DeleteUrlCacheContainerA   1004f3c4 f   wininet_urlcache:cacheapi.obj
 0001:0004e410       DeleteUrlCacheContainerW   1004f410 f   wininet_urlcache:cacheapi.obj
 0001:0004e4a8       DeleteUrlCacheEntryA       1004f4a8 f   wininet_urlcache:cacheapi.obj
 0001:0004e4f8       DeleteUrlCacheEntryW       1004f4f8 f   wininet_urlcache:cacheapi.obj
 0001:0004e590       FindCloseUrlCache          1004f590 f   wininet_urlcache:cacheapi.obj
 0001:0004e5d8       FindFirstUrlCacheContainerA 1004f5d8 f   wininet_urlcache:cacheapi.obj
 0001:0004e670       FindFirstUrlCacheContainerW 1004f670 f   wininet_urlcache:cacheapi.obj
 0001:0004e75c       FindFirstUrlCacheEntryExA  1004f75c f   wininet_urlcache:cacheapi.obj
 0001:0004e848       FindFirstUrlCacheEntryExW  1004f848 f   wininet_urlcache:cacheapi.obj
 0001:0004ea00       FindNextUrlCacheContainerA 1004fa00 f   wininet_urlcache:cacheapi.obj
 0001:0004ea7c       FindNextUrlCacheContainerW 1004fa7c f   wininet_urlcache:cacheapi.obj
 0001:0004eb30       FindNextUrlCacheEntryExA   1004fb30 f   wininet_urlcache:cacheapi.obj
 0001:0004ec08       FindNextUrlCacheEntryExW   1004fc08 f   wininet_urlcache:cacheapi.obj
 0001:0004ed24       FreeUrlCacheSpaceA         1004fd24 f   wininet_urlcache:cacheapi.obj
 0001:0004ed7c       FreeUrlCacheSpaceW         1004fd7c f   wininet_urlcache:cacheapi.obj
 0001:0004ee28       GetCurrentSettingsVersion  1004fe28 f   wininet_urlcache:cacheapi.obj
 0001:0004ee68       GetUrlCacheHeaderData      1004fe68 f   wininet_urlcache:cacheapi.obj
 0001:0004eeac       GetUrlCacheConfigInfoA     1004feac f   wininet_urlcache:cacheapi.obj
 0001:0004ef08       GetUrlCacheConfigInfoW     1004ff08 f   wininet_urlcache:cacheapi.obj
 0001:0004ef98       GetUrlCacheEntryInfoA      1004ff98 f   wininet_urlcache:cacheapi.obj
 0001:0004f030       GetUrlCacheEntryInfoW      10050030 f   wininet_urlcache:cacheapi.obj
 0001:0004f1ac       GetUrlCacheEntryInfoExA    100501ac f   wininet_urlcache:cacheapi.obj
 0001:0004f26c       GetUrlCacheEntryInfoExW    1005026c f   wininet_urlcache:cacheapi.obj
 0001:0004f484       IncrementCurrentSettingsVersion 10050484 f   wininet_urlcache:cacheapi.obj
 0001:0004f4c4       IncrementUrlCacheHeaderData 100504c4 f   wininet_urlcache:cacheapi.obj
 0001:0004f508       IsProfilesEnabled          10050508 f   wininet_urlcache:cacheapi.obj
 0001:0004f510       IsUrlCacheEntryExpiredA    10050510 f   wininet_urlcache:cacheapi.obj
 0001:0004f600       IsUrlCacheEntryExpiredW    10050600 f   wininet_urlcache:cacheapi.obj
 0001:0004f7bc       LoadUrlCacheContent        100507bc f   wininet_urlcache:cacheapi.obj
 0001:0004f7d0       ReadUrlCacheEntryStream    100507d0 f   wininet_urlcache:cacheapi.obj
 0001:0004f898       RetrieveUrlCacheEntryFileA 10050898 f   wininet_urlcache:cacheapi.obj
 0001:0004f950       SetUrlCacheConfigInfoA     10050950 f   wininet_urlcache:cacheapi.obj
 0001:0004f9ac       SetUrlCacheConfigInfoW     100509ac f   wininet_urlcache:cacheapi.obj
 0001:0004fa24       SetUrlCacheEntryInfoA      10050a24 f   wininet_urlcache:cacheapi.obj
 0001:0004fa90       SetUrlCacheEntryInfoW      10050a90 f   wininet_urlcache:cacheapi.obj
 0001:0004fb4c       SetUrlCacheHeaderData      10050b4c f   wininet_urlcache:cacheapi.obj
 0001:0004fb90       UnlockUrlCacheEntryFileA   10050b90 f   wininet_urlcache:cacheapi.obj
 0001:0004fbec       UnlockUrlCacheEntryFileW   10050bec f   wininet_urlcache:cacheapi.obj
 0001:0004fc98       UnlockUrlCacheEntryStream  10050c98 f   wininet_urlcache:cacheapi.obj
 0001:0004fd5c       ?UrlCacheRetrieve@@YAKPADHPAPAXPAPAUCACHE_ENTRY_INFOEX@@@Z 10050d5c f   wininet_urlcache:cacheapi.obj
 0001:0004ffd8       ?UrlCacheFlush@@YAXXZ      10050fd8 f   wininet_urlcache:cacheapi.obj
 0001:00050014       ?UrlCacheCreateFile@@YAKPBDK0PADPAPAXH@Z 10051014 f   wininet_urlcache:cacheapi.obj
 0001:00050090       ?UrlCacheCommitFile@@YAKPAUAddUrlArg@@@Z 10051090 f   wininet_urlcache:cacheapi.obj
 0001:000500c0       ?UrlCacheAddLeakFile@@YAKPBD@Z 100510c0 f   wininet_urlcache:cacheapi.obj
 0001:000500f4       ?UrlCacheFlushAllMappings@@YAXXZ 100510f4 f   wininet_urlcache:cacheapi.obj
 0001:00050130       CommitUrlCacheEntryA       10051130 f   wininet_urlcache:cacheapi.obj
 0001:0005020c       CommitUrlCacheEntryW       1005120c f   wininet_urlcache:cacheapi.obj
 0001:0005043c       FindFirstUrlCacheEntryA    1005143c f   wininet_urlcache:cacheapi.obj
 0001:00050484       FindFirstUrlCacheEntryW    10051484 f   wininet_urlcache:cacheapi.obj
 0001:000504cc       FindNextUrlCacheEntryA     100514cc f   wininet_urlcache:cacheapi.obj
 0001:000504f0       FindNextUrlCacheEntryW     100514f0 f   wininet_urlcache:cacheapi.obj
 0001:00050514       RetrieveUrlCacheEntryFileW 10051514 f   wininet_urlcache:cacheapi.obj
 0001:00050664       RetrieveUrlCacheEntryStreamA 10051664 f   wininet_urlcache:cacheapi.obj
 0001:000508b4       RetrieveUrlCacheEntryStreamW 100518b4 f   wininet_urlcache:cacheapi.obj
 0001:00050bb4       ?GetCacheSize@MEMMAP_FILE@@QAA_JXZ 10051bb4 f i wininet_urlcache:contain.obj
 0001:00050c3c       ?GetCacheLimit@MEMMAP_FILE@@QAA_JXZ 10051c3c f i wininet_urlcache:contain.obj
 0001:00050cc4       ?GetExemptUsage@MEMMAP_FILE@@QAA_JXZ 10051cc4 f i wininet_urlcache:contain.obj
 0001:00050d4c       ?SetCacheLimit@MEMMAP_FILE@@QAAX_J@Z 10051d4c f i wininet_urlcache:contain.obj
 0001:00050da0       ?AdjustCacheSize@MEMMAP_FILE@@QAAX_J@Z 10051da0 f i wininet_urlcache:contain.obj
 0001:00050e44       ?AdjustExemptUsage@MEMMAP_FILE@@QAAX_J@Z 10051e44 f i wininet_urlcache:contain.obj
 0001:00050ee8       ?SetHeaderData@MEMMAP_FILE@@QAAHKK@Z 10051ee8 f i wininet_urlcache:contain.obj
 0001:00050f6c       ?GetHeaderData@MEMMAP_FILE@@QAAHKPAK@Z 10051f6c f i wininet_urlcache:contain.obj
 0001:00050ff4       ?AdjustGroupUsage@URL_CONTAINER@@AAAXPAUGROUP_ENTRY@@_J@Z 10051ff4 f i wininet_urlcache:contain.obj
 0001:00051088       ??0URL_CONTAINER@@QAA@PBD00K_JK@Z 10052088 f   wininet_urlcache:contain.obj
 0001:0005125c       ?GetOptions@URL_CONTAINER@@QAAKXZ 1005225c f   wininet_urlcache:contain.obj
 0001:00051264       ?GetLastReference@URL_CONTAINER@@QAAKXZ 10052264 f   wininet_urlcache:contain.obj
 0001:0005126c       ?IsVisible@URL_CONTAINER@@QAAHXZ 1005226c f   wininet_urlcache:contain.obj
 0001:00051288       ?Mark@URL_CONTAINER@@QAAXH@Z 10052288 f   wininet_urlcache:contain.obj
 0001:00051290       ?GetMarked@URL_CONTAINER@@QAAHXZ 10052290 f   wininet_urlcache:contain.obj
 0001:00051298       ?GetDeleted@URL_CONTAINER@@QAAHXZ 10052298 f   wininet_urlcache:contain.obj
 0001:000512a0       ?SetDeleted@URL_CONTAINER@@QAAXH@Z 100522a0 f   wininet_urlcache:contain.obj
 0001:000512b0       ?GetDeletePending@URL_CONTAINER@@QAAHXZ 100522b0 f   wininet_urlcache:contain.obj
 0001:000512b8       ?SetDeletePending@URL_CONTAINER@@QAAXH@Z 100522b8 f   wininet_urlcache:contain.obj
 0001:000512c0       ?AddRef@URL_CONTAINER@@QAAXXZ 100522c0 f   wininet_urlcache:contain.obj
 0001:000512d0       ?LockContainer@URL_CONTAINER@@QAAHPAH@Z 100522d0 f   wininet_urlcache:contain.obj
 0001:00051338       ?UnlockContainer@URL_CONTAINER@@QAAXXZ 10052338 f   wininet_urlcache:contain.obj
 0001:00051378       ?UpdateOfflineRedirect@URL_CONTAINER@@IAAHKPBDK0K@Z 10052378 f   wininet_urlcache:contain.obj
 0001:00051500       ?AddLeakFile@URL_CONTAINER@@QAAKPBD@Z 10052500 f   wininet_urlcache:contain.obj
 0001:0005175c       ?DeleteUrlEntry@URL_CONTAINER@@IAAKPAUIE6_URL_FILEMAP_ENTRY@@PAUHASH_ITEM@@K@Z 1005275c f   wininet_urlcache:contain.obj
 0001:0005197c       ?CreateUniqueFile@URL_CONTAINER@@QAAKPBDK0PADPAPAXHH@Z 1005297c f   wininet_urlcache:contain.obj
 0001:00051a68       ?UnlockItem@URL_CONTAINER@@IAAXPAUIE6_URL_FILEMAP_ENTRY@@PAUHASH_ITEM@@@Z 10052a68 f   wininet_urlcache:contain.obj
 0001:00051ac0       ?UnlockAllItems@URL_CONTAINER@@IAAXXZ 10052ac0 f   wininet_urlcache:contain.obj
 0001:00051b58       ?UpdateStickiness@URL_CONTAINER@@IAAKPAUIE6_URL_FILEMAP_ENTRY@@KK@Z 10052b58 f   wininet_urlcache:contain.obj
 0001:00051c48       ?FileTime2DosTime@@YAXU_FILETIME@@PAK@Z 10052c48 f   wininet_urlcache:contain.obj
 0001:00051c98       ?DosTime2FileTime@@YAXKPAU_FILETIME@@@Z 10052c98 f   wininet_urlcache:contain.obj
 0001:00051cf4       ?FlushMapping@URL_CONTAINER@@QAAXXZ 10052cf4 f   wininet_urlcache:contain.obj
 0001:00051d48       ?Init@URL_CONTAINER@@QAAKK@Z 10052d48 f   wininet_urlcache:contain.obj
 0001:000520a8       ?CloseContainerFile@URL_CONTAINER@@IAAXXZ 100530a8 f   wininet_urlcache:contain.obj
 0001:00052140       ?TryToUnmap@URL_CONTAINER@@QAAXK@Z 10053140 f   wininet_urlcache:contain.obj
 0001:00052254       ?Release@URL_CONTAINER@@QAAKH@Z 10053254 f   wininet_urlcache:contain.obj
 0001:000522b4       ?DeleteUrl@URL_CONTAINER@@QAAKPBD@Z 100532b4 f   wininet_urlcache:contain.obj
 0001:000523ac       ?UnlockUrl@URL_CONTAINER@@QAAKPBD@Z 100533ac f   wininet_urlcache:contain.obj
 0001:000524b0       ?SetExemptDelta@URL_CONTAINER@@IAAKPAUIE6_URL_FILEMAP_ENTRY@@KK@Z 100534b0 f   wininet_urlcache:contain.obj
 0001:00052518       ?SetUrlInfo@URL_CONTAINER@@QAAKPBDPAU_INTERNET_CACHE_ENTRY_INFOA@@K@Z 10053518 f   wininet_urlcache:contain.obj
 0001:00052744       ?CopyUrlInfo@URL_CONTAINER@@IAAKPAUIE6_URL_FILEMAP_ENTRY@@PAPAU_INTERNET_CACHE_ENTRY_INFOA@@PAKK@Z 10053744 f   wininet_urlcache:contain.obj
 0001:00052bd4       ??1URL_CONTAINER@@QAA@XZ   10053bd4 f   wininet_urlcache:contain.obj
 0001:00052cd4       ?AddUrl@URL_CONTAINER@@QAAKPAUAddUrlArg@@@Z 10053cd4 f   wininet_urlcache:contain.obj
 0001:000537a4       ?RetrieveUrl@URL_CONTAINER@@QAAKPBDPAPAU_INTERNET_CACHE_ENTRY_INFOA@@PAKKK@Z 100547a4 f   wininet_urlcache:contain.obj
 0001:00053a08       ?GetUrlInfo@URL_CONTAINER@@QAAKPBDPAPAU_INTERNET_CACHE_ENTRY_INFOA@@PAKKKK@Z 10054a08 f   wininet_urlcache:contain.obj
 0001:00053bd0       ?FindNextEntry@URL_CONTAINER@@QAAKPAKPAPAU_INTERNET_CACHE_ENTRY_INFOA@@0K_JKK@Z 10054bd0 f   wininet_urlcache:contain.obj
 0001:00053d4c       ?DLLUrlCacheEntry@@YAHK@Z  10054d4c f   wininet_urlcache:initglob.obj
 0001:00053dfc       InitGlobals                10054dfc f   wininet_urlcache:initglob.obj
 0001:00053fbc       SetCustomCachePath         10054fbc f   wininet_urlcache:initglob.obj
 0001:00054134       ?IncrementHeaderData@MEMMAP_FILE@@QAAHKPAK@Z 10055134 f i wininet_urlcache:conmgr.obj
 0001:000541cc       ?SetCacheLimit@URL_CONTAINER@@QAAX_J@Z 100551cc f i wininet_urlcache:conmgr.obj
 0001:00054218       ?GetCacheStartUpLimit@URL_CONTAINER@@QAA_JXZ 10055218 f i wininet_urlcache:conmgr.obj
 0001:00054264       ?GetInitialFindHandle@URL_CONTAINER@@QAAKXZ 10055264 f i wininet_urlcache:conmgr.obj
 0001:00054308       ?SetHeaderData@URL_CONTAINER@@QAAHKK@Z 10055308 f i wininet_urlcache:conmgr.obj
 0001:0005435c       ?GetHeaderData@URL_CONTAINER@@QAAHKPAK@Z 1005535c f i wininet_urlcache:conmgr.obj
 0001:000543b0       ?IncrementHeaderData@URL_CONTAINER@@QAAHKPAK@Z 100553b0 f i wininet_urlcache:conmgr.obj
 0001:00054404       ?ReadModifiedCount@CConMgr@@AAAKH@Z 10055404 f   wininet_urlcache:conmgr.obj
 0001:0005443c       ?InitFixedContainers@CConMgr@@AAAKXZ 1005543c f   wininet_urlcache:conmgr.obj
 0001:000545e4       ?FindNextContainer@CConMgr@@QAAHPAXPAPAU_INTERNET_CACHE_CONTAINER_INFOA@@PAKH@Z 100555e4 f   wininet_urlcache:conmgr.obj
 0001:00054808       ?FindExtensibleContainer@CConMgr@@AAAKPBD@Z 10055808 f   wininet_urlcache:conmgr.obj
 0001:000548a4       ?DeleteContainer@CConMgr@@QAAKPBDK@Z 100558a4 f   wininet_urlcache:conmgr.obj
 0001:000549dc       ?FindIndexFromPrefix@CConMgr@@AAAKPBD@Z 100559dc f   wininet_urlcache:conmgr.obj
 0001:00054b00       ?PathPrefixMatch@CConMgr@@AAAHPBD0@Z 10055b00 f   wininet_urlcache:conmgr.obj
 0001:00054b94       ??0CConMgr@@QAA@XZ         10055b94 f   wininet_urlcache:conmgr.obj
 0001:00054be4       ??1CConMgr@@QAA@XZ         10055be4 f   wininet_urlcache:conmgr.obj
 0001:00054c10       ?GetStatus@CConMgr@@QAAKXZ 10055c10 f   wininet_urlcache:conmgr.obj
 0001:00054c18       ?UnlockUrl@CConMgr@@QAAKPBD@Z 10055c18 f   wininet_urlcache:conmgr.obj
 0001:00054ca4       ?DeleteUrl@CConMgr@@QAAKPBD@Z 10055ca4 f   wininet_urlcache:conmgr.obj
 0001:00054d58       ?GetHeaderData@CConMgr@@QAAHKPAK@Z 10055d58 f   wininet_urlcache:conmgr.obj
 0001:00054d60       ?SetHeaderData@CConMgr@@QAAHKK@Z 10055d60 f   wininet_urlcache:conmgr.obj
 0001:00054d68       ?IncrementHeaderData@CConMgr@@QAAHKPAK@Z 10055d68 f   wininet_urlcache:conmgr.obj
 0001:00054d70       ?CreateUniqueFile@CConMgr@@QAAKPBDK0PADPAPAXH@Z 10055d70 f   wininet_urlcache:conmgr.obj
 0001:00054e40       ?AddUrl@CConMgr@@QAAKPAUAddUrlArg@@@Z 10055e40 f   wininet_urlcache:conmgr.obj
 0001:00054f20       ?RetrieveUrl@CConMgr@@QAAKPBDPAPAU_INTERNET_CACHE_ENTRY_INFOA@@PAKKK@Z 10055f20 f   wininet_urlcache:conmgr.obj
 0001:00054ffc       ?GetUrlInfo@CConMgr@@QAAKPBDPAPAU_INTERNET_CACHE_ENTRY_INFOA@@PAKKKK@Z 10055ffc f   wininet_urlcache:conmgr.obj
 0001:000550b8       ?GetUrlInfo@CConMgr@@QAAKPBDPAU_INTERNET_CACHE_ENTRY_INFOA@@PAKKK@Z 100560b8 f   wininet_urlcache:conmgr.obj
 0001:0005510c       ?SetUrlInfo@CConMgr@@QAAKPBDPAU_INTERNET_CACHE_ENTRY_INFOA@@K@Z 1005610c f   wininet_urlcache:conmgr.obj
 0001:000551a8       ?FreeFindHandle@CConMgr@@QAAKPAX@Z 100561a8 f   wininet_urlcache:conmgr.obj
 0001:00055258       ?FindNextEntry@CConMgr@@QAAKPAPAXPBDPAPAU_INTERNET_CACHE_ENTRY_INFOA@@PAKK_JKK@Z 10056258 f   wininet_urlcache:conmgr.obj
 0001:000554d4       ?FindNextEntry@CConMgr@@QAAKPAPAXPBDPAU_INTERNET_CACHE_ENTRY_INFOA@@PAKK_JK@Z 100564d4 f   wininet_urlcache:conmgr.obj
 0001:00055548       ?FindNextEntryBackup@CConMgr@@QAAKPAX@Z 10056548 f   wininet_urlcache:conmgr.obj
 0001:00055590       ?CleanupUrls@CConMgr@@QAAKPBDKK@Z 10056590 f   wininet_urlcache:conmgr.obj
 0001:000556a0       ?CreateDefaultGroups@CConMgr@@QAAKXZ 100566a0 f   wininet_urlcache:conmgr.obj
 0001:00055710       ?FlushMapping@CConMgr@@QAAXK@Z 10056710 f   wininet_urlcache:conmgr.obj
 0001:00055728       ?WasModified@CConMgr@@AAAHH@Z 10056728 f   wininet_urlcache:conmgr.obj
 0001:00055748       ?FindFirstContainer@CConMgr@@QAAPAXPAKPAPAU_INTERNET_CACHE_CONTAINER_INFOA@@0KH@Z 10056748 f   wininet_urlcache:conmgr.obj
 0001:00055a94       ?CreateContainer@CConMgr@@QAAKPBD00KK@Z 10056a94 f   wininet_urlcache:conmgr.obj
 0001:00055e10       ?DeleteFileIfNotRegistered@CConMgr@@QAAHPAVURL_CONTAINER@@@Z 10056e10 f   wininet_urlcache:conmgr.obj
 0001:0005605c       ?GetCacheLimit@URL_CONTAINER@@QAA_JXZ 1005705c f i wininet_urlcache:cachecfg.obj
 0001:000560a8       ?GetCacheSize@URL_CONTAINER@@QAA_JXZ 100570a8 f i wininet_urlcache:cachecfg.obj
 0001:000560f4       ?GetExemptUsage@URL_CONTAINER@@QAA_JXZ 100570f4 f i wininet_urlcache:cachecfg.obj
 0001:00056140       ?GetDefaultCacheLimit@@YAKPBDK@Z 10057140 f   wininet_urlcache:cachecfg.obj
 0001:000561d4       ?GetDefaultSubDir@@YAXKPAD@Z 100571d4 f   wininet_urlcache:cachecfg.obj
 0001:00056238       ?ValidatePath@IE5_REGISTRYSET@@IAAKPBD@Z 10057238 f i wininet_urlcache:cachecfg.obj
 0001:00056290       ??0IE5_REGISTRYSET@@QAA@XZ 10057290 f i wininet_urlcache:cachecfg.obj
 0001:000562e4       ?Initialize@IE5_REGISTRYSET@@QAAKXZ 100572e4 f i wininet_urlcache:cachecfg.obj
 0001:000563e0       ?GetPath@IE5_REGISTRYSET@@QAAKPAD@Z 100573e0 f i wininet_urlcache:cachecfg.obj
 0001:00056560       ?SetLimit@IE5_REGISTRYSET@@QAAKPBDPAK@Z 10057560 f i wininet_urlcache:cachecfg.obj
 0001:000565a4       ??1IE5_REGISTRYSET@@QAA@XZ 100575a4 f i wininet_urlcache:cachecfg.obj
 0001:000565fc       ?GetUrlCacheConfigInfoA@CConMgr@@QAAHPAU_INTERNET_CACHE_CONFIG_INFOA@@K@Z 100575fc f   wininet_urlcache:cachecfg.obj
 0001:000567d4       ?DetermineKeyPlacing@IE5_REGISTRYSET@@IAAHK@Z 100577d4 f i wininet_urlcache:cachecfg.obj
 0001:00056924       ?SetWorkingContainer@IE5_REGISTRYSET@@QAAKK@Z 10057924 f i wininet_urlcache:cachecfg.obj
 0001:00056990       ?GetPrefix@IE5_REGISTRYSET@@QAAKPAD@Z 10057990 f i wininet_urlcache:cachecfg.obj
 0001:00056a40       ?GetLimit@IE5_REGISTRYSET@@QAAKPBDPAK@Z 10057a40 f i wininet_urlcache:cachecfg.obj
 0001:00056a9c       ?IsFirstTimeFor@IE5_REGISTRYSET@@AAAHPAUHKEY__@@@Z 10057a9c f i wininet_urlcache:cachecfg.obj
 0001:00056be0       ?SetIfFirstTime@IE5_REGISTRYSET@@QAAXXZ 10057be0 f i wininet_urlcache:cachecfg.obj
 0001:00056d10       ?SetPerUserStatus@IE5_REGISTRYSET@@QAAXH@Z 10057d10 f i wininet_urlcache:cachecfg.obj
 0001:00056dc4       ?AttemptToUseSharedCache@IE5_REGISTRYSET@@QAAXXZ 10057dc4 f i wininet_urlcache:cachecfg.obj
 0001:00056ed4       ?GetOverridableCacheLimit@IE5_REGISTRYSET@@QAAKKPBDPAK@Z 10057ed4 f i wininet_urlcache:cachecfg.obj
 0001:00056fa8       ?GetCacheConfigInfo@CConMgr@@AAAKXZ 10057fa8 f   wininet_urlcache:cachecfg.obj
 0001:00057140       ?GetSysRootCacheConfigInfo@CConMgr@@AAAKXZ 10058140 f   wininet_urlcache:cachecfg.obj
 0001:0005742c       ?SetUrlCacheConfigInfoA@CConMgr@@QAAHPAU_INTERNET_CACHE_CONFIG_INFOA@@K@Z 1005842c f   wininet_urlcache:cachecfg.obj
 0001:00057654       ?CreateExtensiRegObj@CConMgr@@AAAPAVREGISTRY_OBJ@@PAUHKEY__@@@Z 10058654 f   wininet_urlcache:cachecfg.obj
 0001:000577ac       ?GetExtensibleCacheConfigInfo@CConMgr@@AAAKH@Z 100587ac f   wininet_urlcache:cachecfg.obj
 0001:00057cf8       ?ConfigureCache@CConMgr@@AAAKXZ 10058cf8 f   wininet_urlcache:cachecfg.obj
 0001:00057d8c       ?Destroy@HNDLMGR@@QAAXXZ   10058d8c f   wininet_urlcache:hndlmgr.obj
 0001:00057df4       ?IsValidOffset@HNDLMGR@@AAAHK@Z 10058df4 f   wininet_urlcache:hndlmgr.obj
 0001:00057e2c       ?Alloc@HNDLMGR@@QAAPAXK@Z  10058e2c f   wininet_urlcache:hndlmgr.obj
 0001:00057fa4       ?Map@HNDLMGR@@QAAPAXPAX@Z  10058fa4 f   wininet_urlcache:hndlmgr.obj
 0001:00057fdc       ?Free@HNDLMGR@@QAAHPAX@Z   10058fdc f   wininet_urlcache:hndlmgr.obj
 0001:00058044       ?ValidateAndCreatePath@@YAKPAD@Z 10059044 f   wininet_urlcache:filemap.obj
 0001:00058170       ?CloseMapping@MEMMAP_FILE@@AAAXXZ 10059170 f   wininet_urlcache:filemap.obj
 0001:000581d8       ?ValidateIndex@MEMMAP_FILE@@AAAKXZ 100591d8 f   wininet_urlcache:filemap.obj
 0001:000583bc       ?ResetFileSize@MEMMAP_FILE@@AAAKXZ 100593bc f   wininet_urlcache:filemap.obj
 0001:00058410       ?CheckNextNBits@MEMMAP_FILE@@AAAHAAK0K0@Z 10059410 f   wininet_urlcache:filemap.obj
 0001:000584a8       ?SetNextNBits@MEMMAP_FILE@@AAAHKKK@Z 100594a8 f   wininet_urlcache:filemap.obj
 0001:00058558       ?InitFile@MEMMAP_FILE@@AAAHXZ 10059558 f   wininet_urlcache:filemap.obj
 0001:00058600       ??1MEMMAP_FILE@@QAA@XZ     10059600 f   wininet_urlcache:filemap.obj
 0001:0005860c       ?FreeEntry@MEMMAP_FILE@@QAAHPAUFILEMAP_ENTRY@@H@Z 1005960c f   wininet_urlcache:filemap.obj
 0001:00058788       ?IsBadOffset@MEMMAP_FILE@@QAAHK@Z 10059788 f   wininet_urlcache:filemap.obj
 0001:000587c4       ?OffsetFromPointer@MEMMAP_FILE@@QAAKPAE@Z 100597c4 f   wininet_urlcache:filemap.obj
 0001:000587d0       ?PointerFromOffset@MEMMAP_FILE@@QAAPAEK@Z 100597d0 f   wininet_urlcache:filemap.obj
 0001:000587e4       ?ValidateUrlOffset@MEMMAP_FILE@@QAAPAUIE6_URL_FILEMAP_ENTRY@@K@Z 100597e4 f   wininet_urlcache:filemap.obj
 0001:00058890       ?IsBadGroupOffset@MEMMAP_FILE@@QAAHK@Z 10059890 f   wininet_urlcache:filemap.obj
 0001:000588b8       ?IsBitmapNearFull@MEMMAP_FILE@@QAAHXZ 100598b8 f   wininet_urlcache:filemap.obj
 0001:00058934       ?ValidateGroupOffset@MEMMAP_FILE@@QAAPAUGROUP_ENTRY@@KPAUHASH_ITEM@@@Z 10059934 f   wininet_urlcache:filemap.obj
 0001:00058a04       ?ValidateListGroupOffset@MEMMAP_FILE@@QAAPAU_LIST_GROUP_ENTRY@@K@Z 10059a04 f   wininet_urlcache:filemap.obj
 0001:00058aa8       ?FlushMapping@MEMMAP_FILE@@QAAHXZ 10059aa8 f   wininet_urlcache:filemap.obj
 0001:00058b80       ?OpenMapping@MEMMAP_FILE@@AAAKHH@Z 10059b80 f   wininet_urlcache:filemap.obj
 0001:00058f58       ?GetAndSetNextFreeEntry@MEMMAP_FILE@@AAAKK@Z 10059f58 f   wininet_urlcache:filemap.obj
 0001:00059098       ?ReInitFile@MEMMAP_FILE@@QAAHXZ 1005a098 f   wininet_urlcache:filemap.obj
 0001:000590c8       ?Init@MEMMAP_FILE@@QAAKKPBDKH@Z 1005a0c8 f   wininet_urlcache:filemap.obj
 0001:00059208       ?AllocateEntry@MEMMAP_FILE@@QAAPAUFILEMAP_ENTRY@@K@Z 1005a208 f   wininet_urlcache:filemap.obj
 0001:00059310       ?FindNextEntry@MEMMAP_FILE@@QAAPAUFILEMAP_ENTRY@@PAKK_JK@Z 1005a310 f   wininet_urlcache:filemap.obj
 0001:00059510       ?GetFileCount@MEMMAP_FILE@@QAAKK@Z 1005a510 f i wininet_urlcache:filemgr.obj
 0001:00059590       ?SetFileCount@MEMMAP_FILE@@QAAXKK@Z 1005a590 f i wininet_urlcache:filemgr.obj
 0001:000595f0       ?IncrementFileCount@MEMMAP_FILE@@QAAXK@Z 1005a5f0 f i wininet_urlcache:filemgr.obj
 0001:0005965c       ?DecrementFileCount@MEMMAP_FILE@@QAAXK@Z 1005a65c f i wininet_urlcache:filemgr.obj
 0001:000596c8       ?GetDirCount@MEMMAP_FILE@@QAAKXZ 1005a6c8 f i wininet_urlcache:filemgr.obj
 0001:00059738       ?SetDirCount@MEMMAP_FILE@@QAAXK@Z 1005a738 f i wininet_urlcache:filemgr.obj
 0001:00059788       ?IncrementDirCount@MEMMAP_FILE@@QAAXXZ 1005a788 f i wininet_urlcache:filemgr.obj
 0001:000597e4       ?SetDirName@MEMMAP_FILE@@QAAXKPBD@Z 1005a7e4 f i wininet_urlcache:filemgr.obj
 0001:00059854       ?GetDirName@MEMMAP_FILE@@QAAXKPAD@Z 1005a854 f i wininet_urlcache:filemgr.obj
 0001:000598ec       ?GetDirIndex@MEMMAP_FILE@@QAAKPBD@Z 1005a8ec f i wininet_urlcache:filemgr.obj
 0001:000599e0       ??0CFileMgr@@QAA@PAVMEMMAP_FILE@@K@Z 1005a9e0 f   wininet_urlcache:filemgr.obj
 0001:000599f8       ??1CFileMgr@@QAA@XZ        1005a9f8 f   wininet_urlcache:filemgr.obj
 0001:00059a08       ?Init@CFileMgr@@UAAHXZ     1005aa08 f   wininet_urlcache:filemgr.obj
 0001:00059a10       ?GetDirLen@CFileMgr@@UAAKK@Z 1005aa10 f   wininet_urlcache:filemgr.obj
 0001:00059a1c       ?NotifyCommit@CFileMgr@@UAAHK@Z 1005aa1c f   wininet_urlcache:filemgr.obj
 0001:00059a24       ?DeleteCache@CFileMgr@@SAHPBD@Z 1005aa24 f   wininet_urlcache:filemgr.obj
 0001:00059a7c       ?Cleanup@CFileMgr@@UAAHXZ  1005aa7c f   wininet_urlcache:filemgr.obj
 0001:00059a84       ?GetDirIndex@CFileMgr@@UAAHPBDPAK@Z 1005aa84 f   wininet_urlcache:filemgr.obj
 0001:00059a9c       ?GetFilePathFromEntry@CFileMgr@@UAAHPAUIE6_URL_FILEMAP_ENTRY@@PADPAK@Z 1005aa9c f   wininet_urlcache:filemgr.obj
 0001:00059c2c       ?DeleteOneCachedFile@CFileMgr@@UAAHPBDKK@Z 1005ac2c f   wininet_urlcache:filemgr.obj
 0001:00059c38       ?CreateBaseFileFromUrl@CFileMgr@@IAAHPBDKPADPAKKPAH@Z 1005ac38 f   wininet_urlcache:filemgr.obj
 0001:0005a010       ?ParseFileName@CFileMgr@@IAAHPADPAK0101@Z 1005b010 f   wininet_urlcache:filemgr.obj
 0001:0005a1b8       ?MakeRandomFileName@CFileMgr@@IAAKPADPAK@Z 1005b1b8 f   wininet_urlcache:filemgr.obj
 0001:0005a208       ?CreateUniqueFile@CFileMgr@@IAAKPBD0PADK0PAPAXHH@Z 1005b208 f   wininet_urlcache:filemgr.obj
 0001:0005a8dc       ?GetDirLen@CSecFileMgr@@UAAKK@Z 1005b8dc f   wininet_urlcache:filemgr.obj
 0001:0005a8f4       ?NotifyCommit@CSecFileMgr@@UAAHK@Z 1005b8f4 f   wininet_urlcache:filemgr.obj
 0001:0005a93c       ?Cleanup@CSecFileMgr@@UAAHXZ 1005b93c f   wininet_urlcache:filemgr.obj
 0001:0005aaa8       ?GetDirIndex@CSecFileMgr@@UAAHPBDPAK@Z 1005baa8 f   wininet_urlcache:filemgr.obj
 0001:0005ab00       ?GetFilePathFromEntry@CSecFileMgr@@UAAHPAUIE6_URL_FILEMAP_ENTRY@@PADPAK@Z 1005bb00 f   wininet_urlcache:filemgr.obj
 0001:0005ad18       ?DeleteOneCachedFile@CSecFileMgr@@UAAHPBDKK@Z 1005bd18 f   wininet_urlcache:filemgr.obj
 0001:0005ad5c       ?CreateSubDirectory@CSecFileMgr@@IAAKK@Z 1005bd5c f   wininet_urlcache:filemgr.obj
 0001:0005ae50       ?CreateUniqueFile@CFileMgr@@UAAKPBDPADK0PAPAXHH@Z 1005be50 f   wininet_urlcache:filemgr.obj
 0001:0005ae98       ?CreateAdditionalSubDirectories@CSecFileMgr@@IAAHK@Z 1005be98 f   wininet_urlcache:filemgr.obj
 0001:0005af24       ?FindMinFilesSubDir@CSecFileMgr@@IAAHAAK0@Z 1005bf24 f   wininet_urlcache:filemgr.obj
 0001:0005afc0       ?Init@CSecFileMgr@@UAAHXZ  1005bfc0 f   wininet_urlcache:filemgr.obj
 0001:0005aff8       ?CreateUniqueFile@CSecFileMgr@@UAAKPBDPADK0PAPAXHH@Z 1005bff8 f   wininet_urlcache:filemgr.obj
 0001:0005b118       ??0CSecFileMgr@@QAA@PAVMEMMAP_FILE@@K@Z 1005c118 f   wininet_urlcache:filemgr.obj
 0001:0005b158       ?DeleteIndex@URL_CONTAINER@@IAAHXZ 1005c158 f   wininet_urlcache:downsize.obj
 0001:0005b2f0       ?ScoreEntry@@YAKPAUIE6_URL_FILEMAP_ENTRY@@_J@Z 1005c2f0 f   wininet_urlcache:downsize.obj
 0001:0005b410       ?RemoveLeakListEntry@URL_CONTAINER@@AAAPAUIE6_URL_FILEMAP_ENTRY@@K@Z 1005c410 f   wininet_urlcache:downsize.obj
 0001:0005b560       ?WalkLeakList@URL_CONTAINER@@QAAHXZ 1005c560 f   wininet_urlcache:downsize.obj
 0001:0005b7c8       ?IsUrlEntryExemptFromScavenging@URL_CONTAINER@@AAAHPAUHASH_ITEM@@PAUIE6_URL_FILEMAP_ENTRY@@K_JPAVGroupMgr@@@Z 1005c7c8 f   wininet_urlcache:downsize.obj
 0001:0005b8b0       ?ScavengeItem@URL_CONTAINER@@AAAHPAUHASH_ITEM@@PAH@Z 1005c8b0 f   wininet_urlcache:downsize.obj
 0001:0005b970       ?FindMinOrMaxScoreItem@@YAPAUSCORE_ITEM@@PAU1@KK@Z 1005c970 f   wininet_urlcache:downsize.obj
 0001:0005b9b4       ?SortScoreItems@@YAXPAUSCORE_ITEM@@K@Z 1005c9b4 f   wininet_urlcache:downsize.obj
 0001:0005ba34       ?CleanupUrls@URL_CONTAINER@@QAAKKKH@Z 1005ca34 f   wininet_urlcache:downsize.obj
 0001:0005c10c       ?CacheScavenger@@YAXPAX@Z  1005d10c f   wininet_urlcache:downsize.obj
 0001:0005c19c       ?LaunchScavenger@@YAXXZ    1005d19c f   wininet_urlcache:downsize.obj
 0001:0005c250       ?AllocTable@@YAPAULIST_FILEMAP_ENTRY@@PAXPAPAEPAPAK@Z 1005d250 f   wininet_urlcache:hashutil.obj
 0001:0005c2cc       ?IsMatch@URL_CONTAINER@@AAAPAUHASH_ITEM@@PAU2@PBDK@Z 1005d2cc f   wininet_urlcache:hashutil.obj
 0001:0005c48c       ?HashFindItem@URL_CONTAINER@@AAAHPBDKPAPAUHASH_ITEM@@@Z 1005d48c f   wininet_urlcache:hashutil.obj
 0001:0005c76c       ?HashGetNextItem@@YAPAUHASH_ITEM@@PAXPAEPAKK@Z 1005d76c f   wininet_urlcache:hashutil.obj
 0001:0005c844       ??0GroupMgr@@QAA@XZ        1005d844 f   wininet_urlcache:group.obj
 0001:0005c850       ??1GroupMgr@@QAA@XZ        1005d850 f   wininet_urlcache:group.obj
 0001:0005c86c       ?Init@GroupMgr@@QAAHPAVURL_CONTAINER@@@Z 1005d86c f   wininet_urlcache:group.obj
 0001:0005c8a8       ?CreateNewPage@GroupMgr@@AAAKPAKH@Z 1005d8a8 f   wininet_urlcache:group.obj
 0001:0005c95c       ?NoMoreStickyEntryOnList@GroupMgr@@AAAHK@Z 1005d95c f   wininet_urlcache:group.obj
 0001:0005c9e0       ?AdjustUsageOnList@GroupMgr@@AAAXK_J@Z 1005d9e0 f   wininet_urlcache:group.obj
 0001:0005ca54       ?FindRootEntry@GroupMgr@@AAAKPAPAUGROUP_ENTRY@@H@Z 1005da54 f   wininet_urlcache:group.obj
 0001:0005cafc       ?FindEntry@GroupMgr@@AAAK_JPAPAUGROUP_ENTRY@@H@Z 1005dafc f   wininet_urlcache:group.obj
 0001:0005cc10       ?CreateDefaultGroups@GroupMgr@@QAAKXZ 1005dc10 f   wininet_urlcache:group.obj
 0001:0005cddc       ?GenRandomChars@@YAKPADK@Z 1005dddc f   wininet_urlcache:util_urlcache.obj
 0001:0005cec0       ?DeleteOneCachedFile@@YAHPBDK@Z 1005dec0 f   wininet_urlcache:util_urlcache.obj
 0001:0005cf44       ?NormalisePath@@YAHPBD0PADI@Z 1005df44 f   wininet_urlcache:util_urlcache.obj
 0001:0005cfe4       ?CompressPath@@YAXPAD@Z    1005dfe4 f   wininet_urlcache:util_urlcache.obj
 0001:0005d064       ?EnableCacheVu@@YAHPBDK@Z  1005e064 f   wininet_urlcache:util_urlcache.obj
 0001:0005d1c4       ?DisableCacheVu@@YAHPBD@Z  1005e1c4 f   wininet_urlcache:util_urlcache.obj
 0001:0005d258       ?IsValidCacheSubDir@@YAHPBD@Z 1005e258 f   wininet_urlcache:util_urlcache.obj
 0001:0005d3b8       ?StripTrailingWhiteSpace@@YAXPADPAK@Z 1005e3b8 f   wininet_urlcache:util_urlcache.obj
 0001:0005d40c       ?StripTrailingPeriods@@YAXPADPAK@Z 1005e40c f   wininet_urlcache:util_urlcache.obj
 0001:0005d460       ?hScanPastSeparator@@YAPADPAD@Z 1005e460 f   wininet_urlcache:util_urlcache.obj
 0001:0005d498       ?hConstructSubDirs@@YAHPBD@Z 1005e498 f   wininet_urlcache:util_urlcache.obj
 0001:0005d550       ?IsCorrectUserPrivate@@YAHPBDK@Z 1005e550 f   wininet_urlcache:util_urlcache.obj
 0001:0005d60c       ?IsCorrectUser@@YAHPBDK@Z  1005e60c f   wininet_urlcache:util_urlcache.obj
 0001:0005d668       GetDiskInfoA               1005e668 f   wininet_urlcache:util_urlcache.obj
 0001:0005d740       ??0MUTEX_HOLDER@@QAA@XZ    1005e740 f   wininet_urlcache:util_urlcache.obj
 0001:0005d754       ??1MUTEX_HOLDER@@QAA@XZ    1005e754 f   wininet_urlcache:util_urlcache.obj
 0001:0005d76c       ?Grab@MUTEX_HOLDER@@QAAXPAXK@Z 1005e76c f   wininet_urlcache:util_urlcache.obj
 0001:0005d790       ?Release@MUTEX_HOLDER@@QAAXXZ 1005e790 f   wininet_urlcache:util_urlcache.obj
 0001:0005d7d0       ?DeleteCachedFilesInDir@@YAKPBDK@Z 1005e7d0 f   wininet_urlcache:util_urlcache.obj
 0001:0005d958       ??0REGISTRY_OBJ@@QAA@PAUHKEY__@@K@Z 1005e958 f   wininet_urlcache:reg.obj
 0001:0005d974       ?Create@REGISTRY_OBJ@@QAAKPBDPAPAUHKEY__@@@Z 1005e974 f   wininet_urlcache:reg.obj
 0001:0005d9ec       ?GetValue@REGISTRY_OBJ@@QAAKPBDPAK@Z 1005e9ec f   wininet_urlcache:reg.obj
 0001:0005da38       ?GetValue@REGISTRY_OBJ@@QAAKPBDPADPAK@Z 1005ea38 f   wininet_urlcache:reg.obj
 0001:0005da80       ?SetValue@REGISTRY_OBJ@@QAAKPBDPAK@Z 1005ea80 f   wininet_urlcache:reg.obj
 0001:0005dab0       ?SetValue@REGISTRY_OBJ@@QAAKPBD0K@Z 1005eab0 f   wininet_urlcache:reg.obj
 0001:0005db28       ?FindNextKey@REGISTRY_OBJ@@QAAKPADK@Z 1005eb28 f   wininet_urlcache:reg.obj
 0001:0005db84       ?WorkWith@REGISTRY_OBJ@@QAAKPAUHKEY__@@PBDKK@Z 1005eb84 f   wininet_urlcache:reg.obj
 0001:0005dc5c       ?WorkWith@REGISTRY_OBJ@@QAAKPAV1@PBDK@Z 1005ec5c f   wininet_urlcache:reg.obj
 0001:0005dcf0       ?DeleteKey@REGISTRY_OBJ@@QAAKPBD@Z 1005ecf0 f   wininet_urlcache:reg.obj
 0001:0005ddf0       ?Seek@CConList@@AAAHK@Z    1005edf0 f   wininet_urlcache:conlist.obj
 0001:0005de94       ??0CConList@@QAA@XZ        1005ee94 f   wininet_urlcache:conlist.obj
 0001:0005deac       ??1CConList@@QAA@XZ        1005eeac f   wininet_urlcache:conlist.obj
 0001:0005deb0       ?Size@CConList@@QAAKXZ     1005eeb0 f   wininet_urlcache:conlist.obj
 0001:0005dec8       ?Get@CConList@@QAAPAVURL_CONTAINER@@K@Z 1005eec8 f   wininet_urlcache:conlist.obj
 0001:0005def8       ?Remove@CConList@@AAAHK@Z  1005eef8 f   wininet_urlcache:conlist.obj
 0001:0005dfac       ?Free@CConList@@QAAHXZ     1005efac f   wininet_urlcache:conlist.obj
 0001:0005e010       ?Add@CConList@@QAAHPAVURL_CONTAINER@@@Z 1005f010 f   wininet_urlcache:conlist.obj
 0001:0005e170       GetNetuiFunction           1005f170 f i wininet_inetui:ierrui.obj
 0001:0005e1dc       CallUGetUsernamePassword   1005f1dc f i wininet_inetui:ierrui.obj
 0001:0005e238       ?WaitForAPIReadyWrapper@@YAKKK@Z 1005f238 f i wininet_inetui:ierrui.obj
 0001:0005e2a8       ?CeCallUserProcWrapper@@YAHPBG0PAXK1KPAK@Z 1005f2a8 f i wininet_inetui:ierrui.obj
 0001:0005e34c       ?CallKGetUsernamePasswordEx@@YAHPAUHWND__@@PAU_NETUI_USERPWD@@PAPAU1@@Z 1005f34c f i wininet_inetui:ierrui.obj
 0001:0005e468       IsCeCallUserProcAvailable  1005f468 f i wininet_inetui:ierrui.obj
 0001:0005e4b0       CallGetUsernamePassword    1005f4b0 f i wininet_inetui:ierrui.obj
 0001:0005e500       ?ConvertIPT2Netui@NetuiWrapper@@CAXPAUtagInvalidPassType@@PAU_NETUI_USERPWD@@@Z 1005f500 f i wininet_inetui:ierrui.obj
 0001:0005e698       ?ConvertNetui2IPT@NetuiWrapper@@CAXPAU_NETUI_USERPWD@@PAUtagInvalidPassType@@@Z 1005f698 f i wininet_inetui:ierrui.obj
 0001:0005e750       ?ConfirmCookie@@YAKPAUHWND__@@PAVHTTP_REQUEST_HANDLE_OBJECT@@PAU_COOKIE_DLG_INFO@@@Z 1005f750 f   wininet_inetui:ierrui.obj
 0001:0005e870       ?GetUsernamePassword@NetuiWrapper@@SAHPAUHWND__@@PAUtagInvalidPassType@@@Z 1005f870 f i wininet_inetui:ierrui.obj
 0001:0005e920       ?wErrorUIInvalidPassword@@YAKPAUHWND__@@PAXKKPAPAX@Z 1005f920 f   wininet_inetui:ierrui.obj
 0001:0005eca0       InternetErrorDlg           1005fca0 f   wininet_inetui:ierrui.obj
 0001:0005f1f8       ?ConfirmZoneCrossing@@YAKPAUHWND__@@W4INTERNET_SCHEME@@1@Z 100601f8 f   wininet_inetui:ierrui.obj
 0001:0005f26c       InternetConfirmZoneCrossingA 1006026c f   wininet_inetui:ierrui.obj
 0001:0005f2d0       InternetConfirmZoneCrossingW 100602d0 f   wininet_inetui:ierrui.obj
 0001:0005f334       ?ReadLSARegistryDword@@YAHPADPAK@Z 10060334 f   wininet_inetui:persist.obj
 0001:0005f3c0       ?CryptEncryptPassword@@YAKPAGPAPAXPAK@Z 100603c0 f   wininet_inetui:persist.obj
 0001:0005f518       CreatePStore               10060518 f   wininet_inetui:persist.obj
 0001:0005f58c       ?CredManSetCachedCredentials@@YAKPBDKPAXKH@Z 1006058c f   wininet_inetui:persist.obj
 0001:0005f6a4       ?InetInitCredentialPersist@@YAKXZ 100606a4 f   wininet_inetui:persist.obj
 0001:0005f7c4       ?InetSetCachedCredentialsW@@YAKPBDI0PBG1@Z 100607c4 f   wininet_inetui:persist.obj
 0001:0005f938       ?DuplicateCertChain@SECURITY_CACHE_LIST_ENTRY@@QAAPBU_CERT_CHAIN_CONTEXT@@XZ 10060938 f i wininet_inetui:ierrdlg.obj
 0001:0005f984       ?DeInit@BaseCmWrapper@@UAAXXZ 10060984 f i wininet_inetui:ierrdlg.obj
 0001:0005f9ac       ?Init@NetuiWrapper@@UAAHXZ 100609ac f i wininet_inetui:ierrdlg.obj
 0001:0005fa50       ?PickCertificate@NetuiWrapper@@QAAHPAUHWND__@@PAVCERT_CONTEXT_ARRAY@@@Z 10060a50 f i wininet_inetui:ierrdlg.obj
 0001:0005fac0       ?GetNetUIFunction@@YAP6AHXZPBG@Z 10060ac0 f   wininet_inetui:ierrdlg.obj
 0001:0005fb04       ?MapWininetErrorToDlgId@@YAKKPAK0PAP6AHPAUHWND__@@IIJ@Z@Z 10060b04 f   wininet_inetui:ierrdlg.obj
 0001:0005fb7c       ?UpdateGlobalSecuritySettings@@YAXKK@Z 10060b7c f   wininet_inetui:ierrdlg.obj
 0001:0005fc34       ?SetCertDlgItem@@YAHPAUHWND__@@KKKH@Z 10060c34 f   wininet_inetui:ierrdlg.obj
 0001:0005fd1c       ?InitSecCertErrorsDlg@@YAHPAUHWND__@@PAUERRORINFODLGTYPE@@@Z 10060d1c f   wininet_inetui:ierrdlg.obj
 0001:0005fde8       ??_EBaseCmWrapper@@UAAPAXI@Z 10060de8 f i wininet_inetui:ierrdlg.obj
 0001:0005fde8       ??_GBaseCmWrapper@@UAAPAXI@Z 10060de8 f i wininet_inetui:ierrdlg.obj
 0001:0005fe30       ?GetSecurityInfo@HTTP_REQUEST_HANDLE_OBJECT@@QAAKPAUINTERNET_SECURITY_INFO@@@Z 10060e30 f i wininet_inetui:ierrdlg.obj
 0001:0005fe84       ??_GNetuiWrapper@@UAAPAXI@Z 10060e84 f i wininet_inetui:ierrdlg.obj
 0001:0005fe84       ??_ENetuiWrapper@@UAAPAXI@Z 10060e84 f i wininet_inetui:ierrdlg.obj
 0001:0005fecc       ?OkCancelDialogProc@@YAHPAUHWND__@@IIJ@Z 10060ecc f   wininet_inetui:ierrdlg.obj
 0001:000601cc       ?LaunchDlg@@YAKPAUHWND__@@KPAXKP6AH0IIJ@Z@Z 100611cc f   wininet_inetui:ierrdlg.obj
 0001:000603d8       ?Init@WininetuiWrapper@@UAAHXZ 100613d8 f i wininet_inetui:wininetui.obj
 0001:00060460       ??_GWininetuiWrapper@@UAAPAXI@Z 10061460 f i wininet_inetui:wininetui.obj
 0001:00060460       ??_EWininetuiWrapper@@UAAPAXI@Z 10061460 f i wininet_inetui:wininetui.obj
 0001:000604a8       IsDialogBoxHandled         100614a8 f   wininet_inetui:wininetui.obj
 0001:00060548       ResumeAfterUserInput       10061548 f   wininet_dll:thrdinfo.obj
 0001:000605c0       InternetCreateThreadInfo   100615c0 f   wininet_dll:thrdinfo.obj
 0001:00060694       InternetFreeThreadInfo     10061694 f   wininet_dll:thrdinfo.obj
 0001:00060704       InternetGetThreadInfo      10061704 f   wininet_dll:thrdinfo.obj
 0001:0006076c       InternetIndicateStatus     1006176c f   wininet_dll:thrdinfo.obj
 0001:000608b8       _InternetSetLastError      100618b8 f   wininet_dll:thrdinfo.obj
 0001:00060968       InternetLockErrorText      10061968 f   wininet_dll:thrdinfo.obj
 0001:00060990       InternetSetObjectHandle    10061990 f   wininet_dll:thrdinfo.obj
 0001:000609b0       InternetGetMappedObjectHandle 100619b0 f   wininet_dll:thrdinfo.obj
 0001:000609c8       ResumeSuspendedDownload    100619c8 f   wininet_dll:thrdinfo.obj
 0001:00060a50       ChangeUIBlockingState      10061a50 f   wininet_dll:thrdinfo.obj
 0001:00060c60       InternetIndicateStatusString 10061c60 f   wininet_dll:thrdinfo.obj
 0001:00060c94       InternetIndicateStatusNewHandle 10061c94 f   wininet_dll:thrdinfo.obj
 0001:00060cec       InternetSetLastError       10061cec f   wininet_dll:thrdinfo.obj
 0001:00060d38       ?CeInternetDestroyThreadInfo@@YAXKPAX@Z 10061d38 f   wininet_dll:thrdinfo.obj
 0001:00060d58       InternetInitializeThreadInfo 10061d58 f   wininet_dll:thrdinfo.obj
 0001:00060da8       InternetIndicateStatusAddress 10061da8 f   wininet_dll:thrdinfo.obj
 0001:00060ea8       ?RemoveEntriesFiltered@SVSLinkManager@@QAAXP6AHPAX0@Z0@Z 10061ea8 f i wininet_dll:dllentry.obj
 0001:00060f4c       ?WakeupAllWorkerThreads@SVSThreadPool@@IAAXXZ 10061f4c f i wininet_dll:dllentry.obj
 0001:00060fa4       ?PollForFastPathShutdown@SVSThreadPool@@IAAHXZ 10061fa4 f i wininet_dll:dllentry.obj
 0001:00060fec       ?IsThreadRunning@SVSThreadPool@@KAHPAX0@Z 10061fec f i wininet_dll:dllentry.obj
 0001:0006103c       ?WaitOnThreadExitShutdown@SVSThreadPool@@IAAXXZ 1006203c f i wininet_dll:dllentry.obj
 0001:00061090       ?Shutdown@SVSThreadPool@@QAAKH@Z 10062090 f i wininet_dll:dllentry.obj
 0001:00061108       LoadMUI                    10062108 f   wininet_dll:dllentry.obj
 0001:0006111c       LoadIconMUI                1006211c f   wininet_dll:dllentry.obj
 0001:00061164       ??1SVSThreadPool@@QAA@XZ   10062164 f i wininet_dll:dllentry.obj
 0001:00061210       ??1CUserName@@QAA@XZ       10062210 f i wininet_dll:dllentry.obj
 0001:00061264       ?WininetDllMain@@YAHPAXK0@Z 10062264 f   wininet_dll:dllentry.obj
 0001:0006143c       ?Load@FileOutputStream@@QAAHPBGH@Z 1006243c f i wininet_dll:cookexp.obj
 0001:000614d4       ?DumpStr@FileOutputStream@@QAAHPBDK@Z 100624d4 f i wininet_dll:cookexp.obj
 0001:00061534       ExportCookieFileW          10062534 f   wininet_dll:cookexp.obj
 0001:00061a9c       ExportCookieFileA          10062a9c f   wininet_dll:cookexp.obj
 0001:00061b3c       ?InternetTimeFromTime_tA@@YAHKPADK@Z 10062b3c f   wininet_dll:cookimp.obj
 0001:00061bc0       ?ReadFileToBuffer@@YAHPBDPAPAEPAKPAX@Z 10062bc0 f   wininet_dll:cookimp.obj
 0001:00061ccc       ?ReadFileToBufferW@@YAHPBGPAPAEPAK@Z 10062ccc f   wininet_dll:cookimp.obj
 0001:00061dc8       ImportCookieFileW          10062dc8 f   wininet_dll:cookimp.obj
 0001:00062298       ImportCookieFileA          10063298 f   wininet_dll:cookimp.obj
 0001:00062330       ?SetUnused@INTERNET_CONNECT_HANDLE_OBJECT@@QAAHXZ 10063330 f i wininet_dll:inetapia.obj
 0001:00062374       ?RunSM@CFsm_FtpConnect@@SAKPAVCFsm@@@Z 10063374 f i wininet_dll:inetapia.obj
 0001:000623e4       ??0CFsm_FtpConnect@@QAA@PBD00GKKK@Z 100633e4 f i wininet_dll:inetapia.obj
 0001:000624e4       ??1CFsm_FtpConnect@@UAA@XZ 100634e4 f i wininet_dll:inetapia.obj
 0001:0006254c       ??_ECFsm_FtpConnect@@UAAPAXI@Z 1006354c f i wininet_dll:inetapia.obj
 0001:0006254c       ??_GCFsm_FtpConnect@@UAAPAXI@Z 1006354c f i wininet_dll:inetapia.obj
 0001:00062570       ?RunSM@CFsm_InternetFindNextFile@@SAKPAVCFsm@@@Z 10063570 f i wininet_dll:inetapia.obj
 0001:000625a4       ??0CFsm_InternetFindNextFile@@QAA@PAX0@Z 100635a4 f i wininet_dll:inetapia.obj
 0001:000625fc       ?RunSM@CFsm_InternetQueryDataAvailable@@SAKPAVCFsm@@@Z 100635fc f i wininet_dll:inetapia.obj
 0001:00062644       ??0CFsm_InternetQueryDataAvailable@@QAA@PAXPAKKK@Z 10063644 f i wininet_dll:inetapia.obj
 0001:000626bc       ?RunSM@CFsm_InternetWriteFile@@SAKPAVCFsm@@@Z 100636bc f i wininet_dll:inetapia.obj
 0001:00062704       ??0CFsm_InternetWriteFile@@QAA@PAXPBXKPAK@Z 10063704 f i wininet_dll:inetapia.obj
 0001:0006277c       ?RunSM@CFsm_InternetReadFile@@SAKPAVCFsm@@@Z 1006377c f i wininet_dll:inetapia.obj
 0001:000627c4       ??0CFsm_InternetReadFile@@QAA@PAX0KPAK@Z 100637c4 f i wininet_dll:inetapia.obj
 0001:0006283c       ??0CFsm_ParseUrlForHttp@@QAA@PAPAXPAXPBD2KKK@Z 1006383c f i wininet_dll:inetapia.obj
 0001:00062938       ??1CFsm_ParseUrlForHttp@@UAA@XZ 10063938 f i wininet_dll:inetapia.obj
 0001:00062988       ??_ECFsm_ParseUrlForHttp@@UAAPAXI@Z 10063988 f i wininet_dll:inetapia.obj
 0001:00062988       ??_GCFsm_ParseUrlForHttp@@UAAPAXI@Z 10063988 f i wininet_dll:inetapia.obj
 0001:000629ac       ?_InternetCrackUrlA@@YAHPBDKKPAUURL_COMPONENTSA@@HHPAPAD@Z 100639ac f   wininet_dll:inetapia.obj
 0001:00063044       InternetCrackUrlA          10064044 f   wininet_dll:inetapia.obj
 0001:0006306c       _InternetCreateUrlA        1006406c f   wininet_dll:inetapia.obj
 0001:00063ab0       InternetCreateUrlA         10064ab0 f   wininet_dll:inetapia.obj
 0001:00063acc       ?ICUHrToWin32Error@@YAKJ@Z 10064acc f   wininet_dll:inetapia.obj
 0001:00063b14       InternetCanonicalizeUrlA   10064b14 f   wininet_dll:inetapia.obj
 0001:00063b74       InternetCombineUrlA        10064b74 f   wininet_dll:inetapia.obj
 0001:00063bdc       InternetOpenA              10064bdc f   wininet_dll:inetapia.obj
 0001:00063d18       _InternetCloseHandle       10064d18 f   wininet_dll:inetapia.obj
 0001:00063e44       InternetGetCertByURLA      10064e44 f   wininet_dll:inetapia.obj
 0001:00063e4c       ?FindCertEntryInCache@@YAHPADPAPAVSECURITY_CACHE_LIST_ENTRY@@@Z 10064e4c f   wininet_dll:inetapia.obj
 0001:00063f80       InternetGetSecurityInfoByURLA 10064f80 f   wininet_dll:inetapia.obj
 0001:00064030       InternetOpenUrlA           10065030 f   wininet_dll:inetapia.obj
 0001:000642c0       ?ReadFile_Fsm@@YAKPAVCFsm_ReadFile@@@Z 100652c0 f   wininet_dll:inetapia.obj
 0001:00064380       ?ReadFileEx_Fsm@@YAKPAVCFsm_ReadFileEx@@@Z 10065380 f   wininet_dll:inetapia.obj
 0001:00064478       InternetWriteFile          10065478 f   wininet_dll:inetapia.obj
 0001:0006475c       InternetWriteFileExA       1006575c f   wininet_dll:inetapia.obj
 0001:00064770       InternetSetFilePointer     10065770 f   wininet_dll:inetapia.obj
 0001:00064818       ?QueryAvailable_Fsm@@YAKPAVCFsm_QueryAvailable@@@Z 10065818 f   wininet_dll:inetapia.obj
 0001:00064874       InternetFindNextFileA      10065874 f   wininet_dll:inetapia.obj
 0001:00064a24       InternetGetLastResponseInfoA 10065a24 f   wininet_dll:inetapia.obj
 0001:00064b0c       InternetSetStatusCallbackCore 10065b0c f   wininet_dll:inetapia.obj
 0001:00064bb4       InternetSetStatusCallbackA 10065bb4 f   wininet_dll:inetapia.obj
 0001:00064bbc       ?wInternetCloseConnectA@@YAKPAXK@Z 10065bbc f   wininet_dll:inetapia.obj
 0001:00064be4       ?GetEmailNameAndPassword@@YAKPAPAD0PADK@Z 10065be4 f   wininet_dll:inetapia.obj
 0001:00064c88       InternetAttemptConnect     10065c88 f   wininet_dll:inetapia.obj
 0001:00064cc0       InternetLockRequestFile    10065cc0 f   wininet_dll:inetapia.obj
 0001:00064f68       InternetUnlockRequestFile  10065f68 f   wininet_dll:inetapia.obj
 0001:000650f8       ??_ECFsm_InternetFindNextFile@@UAAPAXI@Z 100660f8 f i wininet_dll:inetapia.obj
 0001:000650f8       ??_GCFsm_InternetFindNextFile@@UAAPAXI@Z 100660f8 f i wininet_dll:inetapia.obj
 0001:0006511c       ??_ECFsm_InternetQueryDataAvailable@@UAAPAXI@Z 1006611c f i wininet_dll:inetapia.obj
 0001:0006511c       ??_GCFsm_InternetQueryDataAvailable@@UAAPAXI@Z 1006611c f i wininet_dll:inetapia.obj
 0001:00065140       ??_ECFsm_InternetWriteFile@@UAAPAXI@Z 10066140 f i wininet_dll:inetapia.obj
 0001:00065140       ??_GCFsm_InternetWriteFile@@UAAPAXI@Z 10066140 f i wininet_dll:inetapia.obj
 0001:00065164       ??_ECFsm_InternetReadFile@@UAAPAXI@Z 10066164 f i wininet_dll:inetapia.obj
 0001:00065164       ??_GCFsm_InternetReadFile@@UAAPAXI@Z 10066164 f i wininet_dll:inetapia.obj
 0001:00065188       InternetCloseHandle        10066188 f   wininet_dll:inetapia.obj
 0001:00065394       InternetShowSecurityInfoByURLA 10066394 f   wininet_dll:inetapia.obj
 0001:0006549c       InternalInternetConnectA   1006649c f   wininet_dll:inetapia.obj
 0001:00065c4c       ?RunSM@CFsm_ReadFile@@SAKPAVCFsm@@@Z 10066c4c f   wininet_dll:inetapia.obj
 0001:00065ca4       ?RunSM@CFsm_ReadFileEx@@SAKPAVCFsm@@@Z 10066ca4 f   wininet_dll:inetapia.obj
 0001:00065cfc       ?RunSM@CFsm_QueryAvailable@@SAKPAVCFsm@@@Z 10066cfc f   wininet_dll:inetapia.obj
 0001:00065d54       ??0CFsm_ReadFile@@QAA@PAXKPAK@Z 10066d54 f i wininet_dll:inetapia.obj
 0001:00065db0       ??_GCFsm_ReadFile@@UAAPAXI@Z 10066db0 f i wininet_dll:inetapia.obj
 0001:00065db0       ??_ECFsm_ReadFile@@UAAPAXI@Z 10066db0 f i wininet_dll:inetapia.obj
 0001:00065dd4       ??0CFsm_ReadFileEx@@QAA@PAU_INTERNET_BUFFERSA@@KK@Z 10066dd4 f i wininet_dll:inetapia.obj
 0001:00065e30       ??_GCFsm_ReadFileEx@@UAAPAXI@Z 10066e30 f i wininet_dll:inetapia.obj
 0001:00065e30       ??_ECFsm_ReadFileEx@@UAAPAXI@Z 10066e30 f i wininet_dll:inetapia.obj
 0001:00065e54       ??0CFsm_QueryAvailable@@QAA@PAKKK@Z 10066e54 f i wininet_dll:inetapia.obj
 0001:00065eb0       ??_ECFsm_QueryAvailable@@UAAPAXI@Z 10066eb0 f i wininet_dll:inetapia.obj
 0001:00065eb0       ??_GCFsm_QueryAvailable@@UAAPAXI@Z 10066eb0 f i wininet_dll:inetapia.obj
 0001:00065ed4       InternetConnectA           10066ed4 f   wininet_dll:inetapia.obj
 0001:00065f10       InternetReadFile           10066f10 f   wininet_dll:inetapia.obj
 0001:00066478       InternetReadFileExA        10067478 f   wininet_dll:inetapia.obj
 0001:00066660       InternetQueryDataAvailable 10067660 f   wininet_dll:inetapia.obj
 0001:000668e8       InternetCheckConnectionA   100678e8 f   wininet_dll:inetapia.obj
 0001:00066e14       ?FixStrings@@YAHPADKAAPAGAAK0PBGI@Z 10067e14 f   wininet_dll:inetapiw.obj
 0001:00066ee0       InternetCrackUrlW          10067ee0 f   wininet_dll:inetapiw.obj
 0001:000674dc       InternetCreateUrlW         100684dc f   wininet_dll:inetapiw.obj
 0001:000682e4       InternetCanonicalizeUrlW   100692e4 f   wininet_dll:inetapiw.obj
 0001:0006834c       InternetCombineUrlW        1006934c f   wininet_dll:inetapiw.obj
 0001:000683b4       InternetOpenW              100693b4 f   wininet_dll:inetapiw.obj
 0001:0006881c       InternetConnectW           1006981c f   wininet_dll:inetapiw.obj
 0001:00068bc8       InternetOpenUrlW           10069bc8 f   wininet_dll:inetapiw.obj
 0001:00068cc8       InternetReadFileExW        10069cc8 f   wininet_dll:inetapiw.obj
 0001:00068d00       InternetWriteFileExW       10069d00 f   wininet_dll:inetapiw.obj
 0001:00068d1c       InternetFindNextFileW      10069d1c f   wininet_dll:inetapiw.obj
 0001:00068ddc       InternetGetLastResponseInfoW 10069ddc f   wininet_dll:inetapiw.obj
 0001:00068f3c       InternetCheckConnectionW   10069f3c f   wininet_dll:inetapiw.obj
 0001:00068fc0       InternetSetStatusCallbackW 10069fc0 f   wininet_dll:inetapiw.obj
 0001:00068fc8       InternetShowSecurityInfoByURLW 10069fc8 f   wininet_dll:inetapiw.obj
 0001:00069034       InternetGetSecurityInfoByURLW 1006a034 f   wininet_dll:inetapiw.obj
 0001:000690a8       ?IsGlobalOffline@@YAHXZ    1006a0a8 f   wininet_dll:autodial.obj
 0001:000690f4       ?InitAutodialModule@@YAKH@Z 1006a0f4 f   wininet_dll:autodial.obj
 0001:00069180       ?ExitAutodialModule@@YAXXZ 1006a180 f   wininet_dll:autodial.obj
 0001:000691b0       ?ResetAutodialModule@@YAXXZ 1006a1b0 f   wininet_dll:autodial.obj
 0001:000691cc       ?FixProxySettings@@YAKPAGHKH@Z 1006a1cc f   wininet_dll:autodial.obj
 0001:000693cc       ?FixProxySettingsForCurrentConnection@@YAHHH@Z 1006a3cc f   wininet_dll:autodial.obj
 0001:0006942c       InternetGetConnectedStateExW 1006a42c f   wininet_dll:autodial.obj
 0001:000694a8       InternetGetConnectedStateExA 1006a4a8 f   wininet_dll:autodial.obj
 0001:00069550       InternetGetConnectedState  1006a550 f   wininet_dll:autodial.obj
 0001:00069560       ?time@@YAKPAK@Z            1006a560 f   wininet_dll:portstub.obj
 0001:000695d0       ?MyDbcsSafeMbstok@@YAPAEPAEPBE@Z 1006a5d0 f   wininet_dll:portstub.obj
 0001:00069610       InternetGoOnlineW          1006a610 f   wininet_dll:portstub.obj
 0001:00069618       ?CheckForUpgrade@@YAXXZ    1006a618 f   wininet_dll:portstub.obj
 0001:0006961c       ShowSecurityInfo           1006a61c f   wininet_dll:portstub.obj
 0001:00069624       ?InternetAutodialIfNotLocalHost@@YAHPAD0@Z 1006a624 f   wininet_dll:portstub.obj
 0001:0006963c       ?AddCertContext@CERT_CONTEXT_ARRAY@@QAAKPBU_CERT_CONTEXT@@@Z 1006a63c f i wininet_dll:options.obj
 0001:000696d4       ?InitIPCOList@@YAXPAUINTERNET_PER_CONN_OPTION_LISTW@@PAUINTERNET_PER_CONN_OPTION_LISTA@@@Z 1006a6d4 f   wininet_dll:options.obj
 0001:00069714       ?FValidCacheHandleType@@YAHW4HINTERNET_HANDLE_TYPE@@@Z 1006a714 f   wininet_dll:options.obj
 0001:0006975c       InternetQueryOptionA       1006a75c f   wininet_dll:options.obj
 0001:0006a994       InternetQueryOptionW       1006b994 f   wininet_dll:options.obj
 0001:0006afdc       InternetSetOptionA         1006bfdc f   wininet_dll:options.obj
 0001:0006c384       InternetSetOptionW         1006d384 f   wininet_dll:options.obj
 0001:0006c960       InternetSetOptionExA       1006d960 f   wininet_dll:options.obj
 0001:0006c984       InternetSetOptionExW       1006d984 f   wininet_dll:options.obj
 0001:0006c9b4       ??0INTERNET_FILE_HANDLE_OBJECT@@QAA@PAVINTERNET_HANDLE_OBJECT@@PBDPAXKK@Z 1006d9b4 f i wininet_dll:parseurl.obj
 0001:0006ca20       ??1INTERNET_FILE_HANDLE_OBJECT@@UAA@XZ 1006da20 f i wininet_dll:parseurl.obj
 0001:0006ca74       ?GetHandleType@INTERNET_FILE_HANDLE_OBJECT@@UAA?AW4HINTERNET_HANDLE_TYPE@@XZ 1006da74 f i wininet_dll:parseurl.obj
 0001:0006ca80       ??_EINTERNET_FILE_HANDLE_OBJECT@@UAAPAXI@Z 1006da80 f i wininet_dll:parseurl.obj
 0001:0006ca80       ??_GINTERNET_FILE_HANDLE_OBJECT@@UAAPAXI@Z 1006da80 f i wininet_dll:parseurl.obj
 0001:0006caa4       ?ScanSchemes@@YAHPBDKPAK@Z 1006daa4 f   wininet_dll:parseurl.obj
 0001:0006cb08       ?ScanSchemesW@@YAHPBGKPAK@Z 1006db08 f   wininet_dll:parseurl.obj
 0001:0006cb74       IsValidHostNameA           1006db74 f   wininet_dll:parseurl.obj
 0001:0006cc64       IsValidHostNameW           1006dc64 f i wininet_dll:parseurl.obj
 0001:0006cd64       ?IsValidHostName@@YAHPBDK@Z 1006dd64 f   wininet_dll:parseurl.obj
 0001:0006cda0       ?HostContainsUserPswd@@YAHPBDKH@Z 1006dda0 f   wininet_dll:parseurl.obj
 0001:0006cdf4       DoesSchemeRequireSlashes   1006ddf4 f   wininet_dll:parseurl.obj
 0001:0006ce44       ?ParseFileUrl@@YAKPAPAXPADK1KKK@Z 1006de44 f   wininet_dll:parseurl.obj
 0001:0006cf58       ?ScanProxyUrl@CFsm_ParseUrlForHttp@@QAAKPAV1@@Z 1006df58 f   wininet_dll:parseurl.obj
 0001:0006d04c       ?QueryProxySettings@CFsm_ParseUrlForHttp@@QAAKPAV1@H@Z 1006e04c f   wininet_dll:parseurl.obj
 0001:0006d0b0       ?CompleteParseUrl@CFsm_ParseUrlForHttp@@QAAKPAV1@PAU_INTERNET_THREAD_INFO@@K@Z 1006e0b0 f   wininet_dll:parseurl.obj
 0001:0006d178       RequireHostNameInUrl       1006e178 f   wininet_dll:parseurl.obj
 0001:0006d198       CrackSchemeA               1006e198 f   wininet_dll:parseurl.obj
 0001:0006d208       CrackSchemeW               1006e208 f   wininet_dll:parseurl.obj
 0001:0006d27c       EncodeAuthorityComponent   1006e27c f   wininet_dll:parseurl.obj
 0001:0006d3c4       EncodeUrlPath              1006e3c4 f   wininet_dll:parseurl.obj
 0001:0006d4d8       EncodeUrlPathFromTail      1006e4d8 f   wininet_dll:parseurl.obj
 0001:0006d630       DecodeUrl                  1006e630 f   wininet_dll:parseurl.obj
 0001:0006d720       DecodeUrlInSitu            1006e720 f   wininet_dll:parseurl.obj
 0001:0006d75c       GetUrlAddressInfo          1006e75c f   wininet_dll:parseurl.obj
 0001:0006d934       GetUrlAddress              1006e934 f   wininet_dll:parseurl.obj
 0001:0006dd94       MapUrlSchemeName           1006ed94 f   wininet_dll:parseurl.obj
 0001:0006ddf4       MapUrlScheme               1006edf4 f   wininet_dll:parseurl.obj
 0001:0006de1c       CrackUrl                   1006ee1c f   wininet_dll:parseurl.obj
 0001:0006e234       ?BuildProxyMessage@CFsm_ParseUrlForHttp@@QAAKPAV1@@Z 1006f234 f   wininet_dll:parseurl.obj
 0001:0006e300       ?ParseUrlForHttp_Fsm@@YAKPAVCFsm_ParseUrlForHttp@@@Z 1006f300 f   wininet_dll:parseurl.obj
 0001:0006e64c       ?RunSM@CFsm_ParseUrlForHttp@@SAKPAVCFsm@@@Z 1006f64c f   wininet_dll:parseurl.obj
 0001:0006e6a4       ?Init@CmWrapper@@UAAHXZ    1006f6a4 f i wininet_dll:globals.obj
 0001:0006e980       ?DeInit@CmWrapper@@UAAXXZ  1006f980 f i wininet_dll:globals.obj
 0001:0006e9c0       CoInternetQueryFeatureDWORDDeprecated 1006f9c0 f   wininet_dll:globals.obj
 0001:0006eb10       SetUserOrPass              1006fb10 f   wininet_dll:globals.obj
 0001:0006eb88       TimeStampCreds             1006fb88 f   wininet_dll:globals.obj
 0001:0006eba8       GetCredTimeStamp           1006fba8 f   wininet_dll:globals.obj
 0001:0006ebc4       GetUserAndPassW            1006fbc4 f   wininet_dll:globals.obj
 0001:0006ec34       CoInternetQueryFeatureDWORD 1006fc34 f   wininet_dll:globals.obj
 0001:0006ee04       GlobalDllInitialize        1006fe04 f   wininet_dll:globals.obj
 0001:0006eef0       GlobalDllTerminate         1006fef0 f   wininet_dll:globals.obj
 0001:0006f060       GlobalDataReadWarningUIFlags 10070060 f   wininet_dll:globals.obj
 0001:0006f110       IsHttp1_1                  10070110 f   wininet_dll:globals.obj
 0001:0006f138       IsOffline                  10070138 f   wininet_dll:globals.obj
 0001:0006f154       SetOfflineUserState        10070154 f   wininet_dll:globals.obj
 0001:0006f1ac       FetchLocalStringsA         100701ac f   wininet_dll:globals.obj
 0001:0006f288       GetWininetUserName         10070288 f   wininet_dll:globals.obj
 0001:0006f35c       RefreshOfflineFromRegistry 1007035c f   wininet_dll:globals.obj
 0001:0006f3a0       PerformStartupProcessing   100703a0 f   wininet_dll:globals.obj
 0001:0006f404       EnsureRangeLimits          10070404 f i wininet_dll:globals.obj
 0001:0006f428       ??0CUserName@@QAA@XZ       10070428 f i wininet_dll:globals.obj
 0001:0006f470       ?Init@CmProxyWrapper@@UAAHXZ 10070470 f i wininet_dll:globals.obj
 0001:0006f584       ?DeInit@CmProxyWrapper@@UAAXXZ 10070584 f i wininet_dll:globals.obj
 0001:0006f5c4       GlobalDataTerminate        100705c4 f   wininet_dll:globals.obj
 0001:0006f708       ChangeGlobalSettings       10070708 f   wininet_dll:globals.obj
 0001:0006f854       ??_EPROXY_INFO_GLOBAL@@UAAPAXI@Z 10070854 f i wininet_dll:globals.obj
 0001:0006f854       ??_GPROXY_INFO_GLOBAL@@UAAPAXI@Z 10070854 f i wininet_dll:globals.obj
 0001:0006f884       ?GlobalDataInitializeCM@@YAXXZ 10070884 f   wininet_dll:globals.obj
 0001:0006f9c4       ??_ECmProxyWrapper@@UAAPAXI@Z 100709c4 f i wininet_dll:globals.obj
 0001:0006f9c4       ??_GCmProxyWrapper@@UAAPAXI@Z 100709c4 f i wininet_dll:globals.obj
 0001:0006fa14       GlobalDataInitialize       10070a14 f   wininet_dll:globals.obj
 0001:00070408       ?wrapGetFileAttributesExA@@YAHPBDW4_GET_FILEEX_INFO_LEVELS@@PAX@Z 10071408 f   wininet_dll:winineta.obj
 0001:00070498       ?wrapGetDiskFreeSpaceExA@@YAHPBDPAT_ULARGE_INTEGER@@11@Z 10071498 f   wininet_dll:winineta.obj
 0001:00070528       ?wrapGetDateFormatA@@YAHKKPBU_SYSTEMTIME@@PBDPADH@Z 10071528 f   wininet_dll:winineta.obj
 0001:00070670       ?wrapFormatMessageA@@YAKKPBXKKPADKPAPAD@Z 10071670 f   wininet_dll:winineta.obj
 0001:000707ac       ?Stricmp@ICSTRING@@QAAKPAD@Z 100717ac f i wininet_dll:certcach.obj
 0001:000707ec       ?AddRef@SECURITY_CACHE_LIST_ENTRY@@QAAJXZ 100717ec f   wininet_dll:certcach.obj
 0001:0007080c       ?Clear@SECURITY_CACHE_LIST_ENTRY@@QAAXXZ 1007180c f   wininet_dll:certcach.obj
 0001:000708dc       ?Find@SECURITY_CACHE_LIST@@QAAPAVSECURITY_CACHE_LIST_ENTRY@@PADG@Z 100718dc f   wininet_dll:certcach.obj
 0001:00070958       ??0SECURITY_CACHE_LIST_ENTRY@@QAA@PADG@Z 10071958 f   wininet_dll:certcach.obj
 0001:000709bc       ??1SECURITY_CACHE_LIST_ENTRY@@QAA@XZ 100719bc f   wininet_dll:certcach.obj
 0001:00070a08       ?ClearClientAuthCertChains@SECURITY_CACHE_LIST@@QAAXXZ 10071a08 f   wininet_dll:certcach.obj
 0001:00070a70       ?Release@SECURITY_CACHE_LIST_ENTRY@@QAAJXZ 10071a70 f   wininet_dll:certcach.obj
 0001:00070aac       ?ClearList@SECURITY_CACHE_LIST@@QAAXXZ 10071aac f   wininet_dll:certcach.obj
 0001:00070af8       ?Add@SECURITY_CACHE_LIST@@QAAKPAVSECURITY_CACHE_LIST_ENTRY@@@Z 10071af8 f   wininet_dll:certcach.obj
 0001:00070bc0       ?Remove@SECURITY_CACHE_LIST@@QAAXPAVSECURITY_CACHE_LIST_ENTRY@@@Z 10071bc0 f   wininet_dll:certcach.obj
 0001:00070c48       ?PrintIfCmError@CmUtil@@YAXPBDW4CM_RESULT@@@Z 10071c48 f   wininet_dll:CmMisc.obj
 0001:00070c4c       ?PrintWideStr@CmUtil@@YAXPADPBG@Z 10071c4c f   wininet_dll:CmMisc.obj
 0001:00070c50       ?GetConnInfo@CmUtil@@YA?AW4CM_RESULT@@PAUCM_CONNECTION_HANDLE__@@PAGKPAU_GUID@@@Z 10071c50 f   wininet_dll:CmMisc.obj
 0001:00070d88       ?GetErrorLevel@CmIterationHelper@@YAEK@Z 10071d88 f   wininet_dll:CmMisc.obj
 0001:00070dcc       ?ChooseFurtherError@CmIterationHelper@@YAKKK@Z 10071dcc f   wininet_dll:CmMisc.obj
 0001:00070df8       ?IsOkToTryNextConnection@CmIterationHelper@@YAHK@Z 10071df8 f   wininet_dll:CmMisc.obj
 0001:00070e30       ?Reset@ProxySvcComponent@CmIterationHelper@@AAAXXZ 10071e30 f   wininet_dll:CmMisc.obj
 0001:00070eb8       ?FetchPerConnProxy@ProxySvcComponent@CmIterationHelper@@QAAKPBG@Z 10071eb8 f   wininet_dll:CmMisc.obj
 0001:00071134       ??_ECmWrapper@@UAAPAXI@Z   10072134 f i wininet_dll:CmMisc.obj
 0001:00071134       ??_GCmWrapper@@UAAPAXI@Z   10072134 f i wininet_dll:CmMisc.obj
 0001:0007117c       ?CopyProxySettings@ProxySvcComponent@CmIterationHelper@@QAAKPAPAVAUTO_PROXY_ASYNC_MSG@@@Z 1007217c f   wininet_dll:CmMisc.obj
 0001:0007128c       CePerfOpenSession          1007228c f i wininet_dll:wininetperf.obj
 0001:00071384       CePerfCloseSession         10072384 f i wininet_dll:wininetperf.obj
 0001:00071420       CePerfRegisterBulk         10072420 f i wininet_dll:wininetperf.obj
 0001:00071494       CePerfBeginDuration        10072494 f i wininet_dll:wininetperf.obj
 0001:00071508       CePerfEndDuration          10072508 f i wininet_dll:wininetperf.obj
 0001:00071598       CePerfAddStatistic         10072598 f i wininet_dll:wininetperf.obj
 0001:0007160c       ?MDPGPerfOpenSession@@YAJPAPAXPBG@Z 1007260c f i wininet_dll:wininetperf.obj
 0001:00071698       ??0WininetPerf@@QAA@XZ     10072698 f   wininet_dll:wininetperf.obj
 0001:000716d4       ??1WininetPerf@@QAA@XZ     100726d4 f   wininet_dll:wininetperf.obj
 0001:000716e4       ?BeginDuration@WininetPerf@@QAAXW4PerfItem@@@Z 100726e4 f   wininet_dll:wininetperf.obj
 0001:000716f4       ?EndDuration@WininetPerf@@QAAXW4PerfItem@@@Z 100726f4 f   wininet_dll:wininetperf.obj
 0001:0007170c       ?AddStatistic@WininetPerf@@QAAXW4PerfItem@@K@Z 1007270c f   wininet_dll:wininetperf.obj
 0001:00071734       ?InvokeCmReleaseConnection@@YAXPAUCmConnWrapper@@@Z 10072734 f   wininet_dll:AcquiredConnSP.obj
 0001:0007176c       ?allocate@?$free_list@$0GE@Vallocator@ce@@@ce@@QBAPAXI@Z 1007276c f i wininet_dll:AcquiredConnSP.obj
 0001:000717dc       ?create@?$_ref_counting_t@V?$singleton_allocator@V?$free_list@$0GE@Vallocator@ce@@@ce@@$03@ce@@@ce@@IAA_NXZ 100727dc f i wininet_dll:AcquiredConnSP.obj
 0001:00071818       ??4AcquiredConnSP@@QAAAAV0@PAUCmConnWrapper@@@Z 10072818 f   wininet_dll:AcquiredConnSP.obj
 0001:00071854       ?TraceableClose@AcquiredConnSP@@QAAXXZ 10072854 f   wininet_dll:AcquiredConnSP.obj
 0001:00071884       ??0?$auto_xxx@PAUCmConnWrapper@@P6AXPAU1@@Z$1?InvokeCmReleaseConnection@@YAX0@Z$0A@V?$_ref_counting_t@V?$singleton_allocator@V?$free_list@$0GE@Vallocator@ce@@@ce@@$03@ce@@@ce@@@ce@@QAA@PAUCmConnWrapper@@@Z 10072884 f i wininet_dll:AcquiredConnSP.obj
 0001:000718d8       ??4?$auto_xxx@PAUCmConnWrapper@@P6AXPAU1@@Z$1?InvokeCmReleaseConnection@@YAX0@Z$0A@V?$_ref_counting_t@V?$singleton_allocator@V?$free_list@$0GE@Vallocator@ce@@@ce@@$03@ce@@@ce@@@ce@@QAAAAV01@ABV01@@Z 100728d8 f i wininet_dll:AcquiredConnSP.obj
 0001:00071940       ??0AcquiredConnSP@@QAA@XZ  10072940 f   wininet_dll:AcquiredConnSP.obj
 0001:0007197c       ??0AcquiredConnSP@@QAA@PAUCmConnWrapper@@@Z 1007297c f   wininet_dll:AcquiredConnSP.obj
 0001:000719a0       ??1AcquiredConnSP@@UAA@XZ  100729a0 f   wininet_dll:AcquiredConnSP.obj
 0001:000719d8       ??4AcquiredConnSP@@QAAAAV0@ABV0@@Z 100729d8 f   wininet_dll:AcquiredConnSP.obj
 0001:000719fc       ??1AddressEnumerator@@QAA@XZ 100729fc f   wininet_dll:AddressEnumerator.obj
 0001:00071a00       ?CloneCurrent@AddressEnumerator@@QAAKPBDPAPAUsockaddr_storage@@1PAPAD@Z 10072a00 f   wininet_dll:AddressEnumerator.obj
 0001:00071b04       ?PrintCurrent@AddressEnumerator@@QBAXXZ 10072b04 f   wininet_dll:AddressEnumerator.obj
 0001:00071bf8       ?MoveNext@AddressEnumerator@@QAAHXZ 10072bf8 f   wininet_dll:AddressEnumerator.obj
 0001:00071d48       ??0AddressEnumerator@@QAA@VAcquiredConnSP@@PBGG@Z 10072d48 f   wininet_dll:AddressEnumerator.obj
 0001:00071dc0       ?OpenInternetSettingsKey@@YAPAVCRefdKey@@XZ 10072dc0 f   wininet_dll:registry_dll.obj
 0001:00071e64       ?GetInternetSettingsKey@@YAPAVCRefdKey@@XZ 10072e64 f   wininet_dll:registry_dll.obj
 0001:00071ec8       ?ReadRegistryOemString@@YAKPAUHKEY__@@PBDPADPAK@Z 10072ec8 f   wininet_dll:registry_dll.obj
 0001:00071f38       ReadRegistryDword          10072f38 f   wininet_dll:registry_dll.obj
 0001:00071fac       GetFileExtensionFromMimeType 10072fac f   wininet_dll:registry_dll.obj
 0001:00072134       DestroyMimeExclusionTableForCache 10073134 f   wininet_dll:registry_dll.obj
 0001:00072194       DestroyHeaderExclusionTableForCache 10073194 f   wininet_dll:registry_dll.obj
 0001:000721e4       ?CreateStringArrayFromDelimitedList@@YAKPAD0PAPADPAK@Z 100731e4 f   wininet_dll:registry_dll.obj
 0001:000722c0       ?Release@CRefdKey@@QAAKXZ  100732c0 f i wininet_dll:registry_dll.obj
 0001:00072308       EnsureInternetSettingsKeyCached 10073308 f   wininet_dll:registry_dll.obj
 0001:0007231c       CloseInternetSettingsKey   1007331c f   wininet_dll:registry_dll.obj
 0001:00072368       InternetCacheReadRegistryDword 10073368 f   wininet_dll:registry_dll.obj
 0001:000723c8       InternetWriteRegistryDword 100733c8 f   wininet_dll:registry_dll.obj
 0001:0007242c       InternetReadRegistryDwordKey 1007342c f   wininet_dll:registry_dll.obj
 0001:000724e8       ?InternetReadRegistryStringKey@@YAKPAUHKEY__@@PBDPADPAK@Z 100734e8 f   wininet_dll:registry_dll.obj
 0001:000725c4       GetMyEmailName             100735c4 f   wininet_dll:registry_dll.obj
 0001:0007264c       InternetReadRegistryDword  1007364c f   wininet_dll:registry_dll.obj
 0001:0007265c       ?CreateTableFromRegistryList@@YAKPADPAPADPAPAPADPAPAKPAK@Z 1007365c f   wininet_dll:registry_dll.obj
 0001:00072808       CreateMimeExclusionTableForCache 10073808 f   wininet_dll:registry_dll.obj
 0001:00072848       CreateHeaderExclusionTableForCache 10073848 f   wininet_dll:registry_dll.obj
 0001:00072884       ?CopyQueriedData@FTP_FIND_HANDLE_OBJECT@@QAAKPAXK@Z 10073884 f i wininet_dll:readhtml.obj
 0001:000728dc       QueryHtmlDataAvailable     100738dc f   wininet_dll:readhtml.obj
 0001:00072930       ?GetEncodedUrl@@YAKPAD0K@Z 10073930 f   wininet_dll:readhtml.obj
 0001:000729d0       ?GetEncodedHtmlText@@YAKPBDPADI@Z 100739d0 f   wininet_dll:readhtml.obj
 0001:00072aec       ?MakeHtmlDirEntry@@YAKW4HINTERNET_HANDLE_TYPE@@PADPAXPAEPAKPAPAD@Z 10073aec f   wininet_dll:readhtml.obj
 0001:00072e0c       ReadHtmlUrlData            10073e0c f   wininet_dll:readhtml.obj
 0001:000738f0       ?Reset@CERT_CONTEXT_ARRAY@@QAAXXZ 100748f0 f   wininet_dll:cliauth.obj
 0001:000739b4       ?CliAuthSelectCredential@@YAKPAU_SecHandle@@PADPAVCERT_CONTEXT_ARRAY@@0@Z 100749b4 f   wininet_dll:cliauth.obj
 0001:00073b40       ??0CERT_CONTEXT_ARRAY@@QAA@XZ 10074b40 f   wininet_dll:cliauth.obj
 0001:00073bb8       ??1CERT_CONTEXT_ARRAY@@QAA@XZ 10074bb8 f   wininet_dll:cliauth.obj
 0001:00073c04       ?CliAuthAcquireCertContexts@@YAKPAU_SecHandle@@PADPAPAVCERT_CONTEXT_ARRAY@@@Z 10074c04 f   wininet_dll:cliauth.obj
 0001:00073f4c       ??0CandidateEnumerator@@QAA@XZ 10074f4c f   wininet_dll:CandidateEnumerator.obj
 0001:00073fcc       ?GetMasterSession@CandidateEnumerator@@QBAQAUCM_SESSION_HANDLE__@@XZ 10074fcc f   wininet_dll:CandidateEnumerator.obj
 0001:00073fd4       ?CopyCmSessionHandle@CandidateEnumerator@@QAAPAUCM_SESSION_HANDLE__@@XZ 10074fd4 f   wininet_dll:CandidateEnumerator.obj
 0001:00073ff0       ?GetCurrent@CandidateEnumerator@@QBAPAUCM_CONNECTION_HANDLE__@@XZ 10074ff0 f   wininet_dll:CandidateEnumerator.obj
 0001:00074014       ?GetCurrentName@CandidateEnumerator@@QBAPBGXZ 10075014 f   wininet_dll:CandidateEnumerator.obj
 0001:00074018       ?GetIterationCount@CandidateEnumerator@@QBAEXZ 10075018 f   wininet_dll:CandidateEnumerator.obj
 0001:00074020       ?IsConnType@CandidateEnumerator@@QBAHABU_GUID@@@Z 10075020 f   wininet_dll:CandidateEnumerator.obj
 0001:00074048       ?IsLoopback@CandidateEnumerator@@QBAHXZ 10075048 f   wininet_dll:CandidateEnumerator.obj
 0001:00074098       ?AcquireCurrent@CandidateEnumerator@@QAAHXZ 10075098 f   wininet_dll:CandidateEnumerator.obj
 0001:00074180       ?ReleaseAcquiredConnection@CandidateEnumerator@@QAAXXZ 10075180 f   wininet_dll:CandidateEnumerator.obj
 0001:00074198       ??1CandidateEnumerator@@QAA@XZ 10075198 f   wininet_dll:CandidateEnumerator.obj
 0001:000741dc       ?TransferAcquiredConnection@CandidateEnumerator@@QAAHVAcquiredConnSP@@@Z 100751dc f   wininet_dll:CandidateEnumerator.obj
 0001:0007423c       ?Reset@CandidateEnumerator@@QAAXXZ 1007523c f   wininet_dll:CandidateEnumerator.obj
 0001:00074284       ?MoveNext@CandidateEnumerator@@QAAKPBG@Z 10075284 f   wininet_dll:CandidateEnumerator.obj
 0001:000743f8       ?GetAcquiredConnection@CandidateEnumerator@@QBA?AVAcquiredConnSP@@XZ 100753f8 f   wininet_dll:CandidateEnumerator.obj
 0001:00074468       StrTokEx                   10075468 f   wininet_dll:strtokex.obj
 0001:000745c0       ?IsConnectionMatch@@YAHPBD0@Z 100755c0 f   wininet_dll:proxreg.obj
 0001:00074624       ?EnableAutodiscoverForDialup@@YAHXZ 10075624 f   wininet_dll:proxreg.obj
 0001:00074690       ?Init@CRegBlob@@QAAKPAUHKEY__@@PBD1@Z 10075690 f   wininet_dll:proxreg.obj
 0001:000747d8       ?Commit@CRegBlob@@QAAKXZ   100757d8 f   wininet_dll:proxreg.obj
 0001:00074858       ?WriteBytes@CRegBlob@@QAAKPBXK@Z 10075858 f   wininet_dll:proxreg.obj
 0001:00074910       ?ReadBytes@CRegBlob@@QAAKPAXK@Z 10075910 f   wininet_dll:proxreg.obj
 0001:00074970       ?CleanProxyStruct@@YAXPAUINTERNET_PROXY_INFO_EX@@@Z 10075970 f   wininet_dll:proxreg.obj
 0001:00074a04       ??1CRegBlob@@QAA@XZ        10075a04 f   wininet_dll:proxreg.obj
 0001:00074a34       ?WriteString@CRegBlob@@QAAKPBD@Z 10075a34 f   wininet_dll:proxreg.obj
 0001:00074a90       ?ReadString@CRegBlob@@QAAKPAPBD@Z 10075a90 f   wininet_dll:proxreg.obj
 0001:00074b24       ?FindBaseProxyKey@@YAPAVCRefdKey@@XZ 10075b24 f   wininet_dll:proxreg.obj
 0001:00074cf0       ?CloseCachedBaseProxyKey@@YAXXZ 10075cf0 f   wininet_dll:proxreg.obj
 0001:00074d10       ?WriteProxySettings@@YAKPAUINTERNET_PROXY_INFO_EX@@H@Z 10075d10 f   wininet_dll:proxreg.obj
 0001:00075048       ?WriteLegacyProxyInfo@@YAHPBDPAUINTERNET_PROXY_INFO_EX@@H@Z 10076048 f   wininet_dll:proxreg.obj
 0001:00075270       ?ReadProxySettings@@YAKPAUINTERNET_PROXY_INFO_EX@@@Z 10076270 f   wininet_dll:proxreg.obj
 0001:000755c4       ?SetPerConnOptions@@YAKPAXHPAUINTERNET_PER_CONN_OPTION_LISTA@@@Z 100765c4 f   wininet_dll:proxreg.obj
 0001:00075980       ?QueryPerConnOptions@@YAKPAXHPAUINTERNET_PER_CONN_OPTION_LISTA@@@Z 10076980 f   wininet_dll:proxreg.obj
 0001:00075bec       ?wInternetQueryDataAvailable@@YAHPAXPAKKK@Z 10076bec f   wininet_dll:inetapiu.obj
 0001:00075d80       InitCompression            10076d80 f   gzip:api.obj
 0001:00075d90       InitDecompression          10076d90 f   gzip:api.obj
 0001:00075da0       DestroyDecompression       10076da0 f   gzip:api.obj
 0001:00075da4       ResetDecompression         10076da4 f   gzip:api.obj
 0001:00075df4       CreateDecompression        10076df4 f   gzip:api.obj
 0001:000760e0       Decompress                 100770e0 f   gzip:inflate.obj
 0001:000762a8       inflateInit                100772a8 f   gzip:infinit.obj
 0001:00076374       deflateInit                10077374 f   gzip:definit.obj
 0001:0007654c       DecoderInitGzipVariables   1007754c f   gzip:gzip.obj
 0001:00076560       ReadGzipFooter             10077560 f   gzip:gzip.obj
 0001:000766c8       ReadGzipHeader             100776c8 f   gzip:gzip.obj
 0001:00076b28       GzipCRC32                  10077b28 f   gzip:gzip.obj
 0001:00076c24       makeTable                  10077c24 f   gzip:maketbl.obj
 0001:00076f2c       decodeUncompressedBlock    10077f2c f   gzip:infuncmp.obj
 0001:00077130       FastDecodeStaticBlock      10078130 f   gzip:infstatic.obj
 0001:0007740c       DecodeStaticBlock          1007840c f   gzip:infstatic.obj
 0001:000777e8       FastDecodeDynamicBlock     100787e8 f   gzip:infdyna.obj
 0001:00077b3c       DecodeDynamicBlock         10078b3c f   gzip:infdyna.obj
 0001:00077fa0       readDynamicBlockHeader     10078fa0 f   gzip:inftree.obj
 0001:00078514       dumpBits                   10079514 f   gzip:infinput.obj
 0001:00078534       getBits                    10079534 f   gzip:infinput.obj
 0001:00078568       ensureBitsContext          10079568 f   gzip:infinput.obj
 0001:000785fc       initBitBuffer              100795fc f   gzip:infinput.obj
 0001:00078658       InitStaticBlock            10079658 f   gzip:comninit.obj
 0001:000787ec       makeCode                   100797ec f   gzip:deftree.obj
 0001:00078890       makeTree                   10079890 f   gzip:deftree.obj
 0001:00078bc4       FastEncoderGenerateDynamicTreeEncoding 10079bc4 f   gzip:fstenc.obj
 0001:00078c74       outputBits                 10079c74 f   gzip:output.obj
 0001:00078ce0       InitBitBuffer              10079ce0 f   gzip:output.obj
 0001:00078cf8       outputTreeStructure        10079cf8 f   gzip:output.obj
 0001:00079104       ?FindFeatureEntry@CFeatureArray@@QAAJPAUFEATUREINDEX@@@Z 1007a104 f   ieshare:features.obj
 0001:000791b8       ??1CFeatureArray@@QAA@XZ   1007a1b8 f   ieshare:features.obj
 0001:00079420       LoadFeatureEntryFromRegistry 1007a420 f   ieshare:features.obj
 0001:00079800       ?GetEnabled@CFeatureArray@@QAAJJ@Z 1007a800 f i ieshare:features.obj
 0001:00079858       ?AppendEntry@CFeatureArray@@AAAPAUFEATUREENTRY@@PAJ@Z 1007a858 f   ieshare:features.obj
 0001:00079920       ?AddFeatureEntry@CFeatureArray@@QAAJPAUFEATUREINDEX@@@Z 1007a920 f   ieshare:features.obj
 0001:00079994       LoadFeatureEntry           1007a994 f   ieshare:features.obj
 0001:000799cc       CoInternetIsFeatureEnabledInternal 1007a9cc f   ieshare:features.obj
 0001:00079a28       ?IERegGetDWORDWithPoliciesExA@@YAKPBD00KPAH1@Z 1007aa28 f   ieshare:registry.obj
 0001:00079c8c       ?IERegGetDWORDWithPoliciesA@@YAKPBD00K@Z 1007ac8c f   ieshare:registry.obj
 0001:00079d9c       IERegReleaseKeys           1007ad9c f   ieshare:ierapi.obj
 0001:00079df0       ?IERegQueryInfoKey@@YAJPBGHPAK1@Z 1007adf0 f   ieshare:ierapi.obj
 0001:0007a038       IsPolicyKeyPresentW        1007b038 f   ieshare:ierapi.obj
 0001:0007a0e0       IsPolicyKeyPresentA        1007b0e0 f   ieshare:ierapi.obj
 0001:0007a16c       ?AtlThrowImpl@ATL@@YAXJ@Z  1007b16c f i cecommon:windowsa.obj
 0001:0007a198       ?AtlThrowLastWin32@ATL@@YAXXZ 1007b198 f i cecommon:windowsa.obj
 0001:0007a1c4       ?wrapLoadStringA@@YAHPAUHINSTANCE__@@IPADH@Z 1007b1c4 f   cecommon:windowsa.obj
 0001:0007a2ac       ??$AtlConvAllocMemory@G@ATL@@YAXPAPAGHPAGH@Z 1007b2ac f i cecommon:windowsa.obj
 0001:0007a368       ??$AtlConvAllocMemory@D@ATL@@YAXPAPADHPADH@Z 1007b368 f i cecommon:windowsa.obj
 0001:0007a424       ?Init@CA2W_WithLength@?A0xd6d83778@@AAAXPBDIH@Z 1007b424 f i cecommon:windowsa.obj
 0001:0007a514       ?Init@?$CA2WEX@$0IA@@ATL@@AAAXPBDI@Z 1007b514 f i cecommon:windowsa.obj
 0001:0007a5f8       ?Init@?$CW2AEX@$0IA@@ATL@@AAAXPBGI@Z 1007b5f8 f i cecommon:windowsa.obj
 0001:0007a700       ?wrapCompareStringA@@YAHKKPBDH0H@Z 1007b700 f   cecommon:windowsa.obj
 0001:0007a7c4       ?wrapLoadLibraryA@@YAPAUHINSTANCE__@@PBD@Z 1007b7c4 f   cecommon:windowsa.obj
 0001:0007a830       ?wrapCharLowerA@@YAPADPAD@Z 1007b830 f   cecommon:windowsa.obj
 0001:0007a918       ?wrapCharUpperA@@YAPADPAD@Z 1007b918 f   cecommon:windowsa.obj
 0001:0007aa00       ?wrapCreateEventA@@YAPAXPAU_SECURITY_ATTRIBUTES@@HHPBD@Z 1007ba00 f   cecommon:windowsa.obj
 0001:0007aa84       ?wrapCreateMutexA@@YAPAXPAU_SECURITY_ATTRIBUTES@@HPBD@Z 1007ba84 f   cecommon:windowsa.obj
 0001:0007ab00       ?wrapOpenMutexA@@YAPAXKHPBD@Z 1007bb00 f   cecommon:windowsa.obj
 0001:0007aba8       ?wrapGetTimeFormatA@@YAHKKPBU_SYSTEMTIME@@PBDPADH@Z 1007bba8 f   cecommon:windowsa.obj
 0001:0007ace0       ?GetUserNameA@@YAHPADPAK@Z 1007bce0 f   cecommon:getusername.obj
 0001:0007ae10       ?wrapGetModuleFileNameA@@YAKPAUHINSTANCE__@@PADK@Z 1007be10 f   cecommon:filesysa.obj
 0001:0007aef4       ?wrapDeleteFileA@@YAHPBD@Z 1007bef4 f   cecommon:filesysa.obj
 0001:0007af60       ?wrapCreateFileA@@YAPAXPBDKKPAU_SECURITY_ATTRIBUTES@@KKPAX@Z 1007bf60 f   cecommon:filesysa.obj
 0001:0007affc       ?wrapCreateDirectoryA@@YAHPBDPAU_SECURITY_ATTRIBUTES@@@Z 1007bffc f   cecommon:filesysa.obj
 0001:0007b0ac       ?wrapGetFileAttributesA@@YAKPBD@Z 1007c0ac f   cecommon:filesysa.obj
 0001:0007b1d8       ?wrapFindFirstFileA@@YAPAXPBDPAU_WIN32_FIND_DATAA@@@Z 1007c1d8 f   cecommon:filesysa.obj
 0001:0007b258       ?wrapFindNextFileA@@YAHPAXPAU_WIN32_FIND_DATAA@@@Z 1007c258 f   cecommon:filesysa.obj
 0001:0007b33c       ?wrapRemoveDirectoryA@@YAHPBD@Z 1007c33c f   cecommon:filesysa.obj
 0001:0007b3a8       ?wrapSetFileAttributesA@@YAHPBDK@Z 1007c3a8 f   cecommon:filesysa.obj
 0001:0007b41c       ?wrapCopyFileA@@YAHPBD0H@Z 1007c41c f   cecommon:filesysa.obj
 0001:0007b4c0       ?wrapGetModuleHandleA@@YAPAUHINSTANCE__@@PBD@Z 1007c4c0 f   cecommon:filesysa.obj
 0001:0007b52c       ?wrapCreateFileMappingA@@YAPAXPAXPAU_SECURITY_ATTRIBUTES@@KKKPBD@Z 1007c52c f   cecommon:filesysa.obj
 0001:0007b5bc       ?CharNextExA@@YAPADGPBDK@Z 1007c5bc f   cecommon:charnext.obj
 0001:0007b5e8       CharNextA                  1007c5e8 f   cecommon:charnext.obj
 0001:0007b618       ?GetWindowsDirectoryA@@YAIPADI@Z 1007c618 f   cecommon:filefunctions.obj
 0001:0007b648       ?GetFileSizeEx@@YAHPAXPAT_LARGE_INTEGER@@@Z 1007c648 f   cecommon:filefunctions.obj
 0001:0007b684       ?DosDateTimeToFileTime@@YAHGGPAU_FILETIME@@@Z 1007c684 f   cecommon:filefunctions.obj
 0001:0007b6f4       ?FileTimeToDosDateTime@@YAHPBU_FILETIME@@PAG1@Z 1007c6f4 f   cecommon:filefunctions.obj
 0001:0007b758       ?SHActivateContext@@YAHPAK@Z 1007c758 f   cecommon:shcontext.obj
 0001:0007b760       ?SHDeactivateContext@@YAXK@Z 1007c760 f   cecommon:shcontext.obj
 0001:0007b764       ?wrapLoadImageA@@YAPAXPAUHINSTANCE__@@PBDIHHI@Z 1007c764 f   cecommon:windowsa_ui.obj
 0001:0007b7a4       ?wrapLoadIconA@@YAPAUHICON__@@PAUHINSTANCE__@@PBD@Z 1007c7a4 f   cecommon:windowsa_ui.obj
 0001:0007b7c4       ?wrapSendDlgItemMessageA@@YAJPAUHWND__@@HIIJ@Z 1007c7c4 f   cecommon:windowsa_ui.obj
 0001:0007b7e0       RtlIpv6StringToAddressCopyA 1007c7e0 f   commonparse:str2adda.obj
 0001:0007bba8       RtlIpv6StringToAddressExCopyA 1007cba8 f   commonparse:str2adda.obj
 0001:0007be3c       RtlIpv4StringToAddressCopyA 1007ce3c f   commonparse:str2adda.obj
 0001:0007c0e4       RtlIpv4StringToAddressExCopyA 1007d0e4 f   commonparse:str2adda.obj
 0001:0007c294       RtlIpv6AddressToStringCopyA 1007d294 f   commonparse:add2stra.obj
 0001:0007c514       RtlIpv6AddressToStringExCopyA 1007d514 f   commonparse:add2stra.obj
 0001:0007c63c       RtlIpv6StringToAddressCopyW 1007d63c f   commonparse:str2addw.obj
 0001:0007c9f4       RtlIpv6StringToAddressExCopyW 1007d9f4 f   commonparse:str2addw.obj
 0001:0007cc70       RtlIpv4StringToAddressCopyW 1007dc70 f   commonparse:str2addw.obj
 0001:0007cf04       RtlIpv4StringToAddressExCopyW 1007df04 f   commonparse:str2addw.obj
 0001:0007d0a8       svsutil_Initialize         1007e0a8 f   ceosutil:utilmem.obj
 0001:0007d0ac       svsutil_DeInitialize       1007e0ac f   ceosutil:utilmem.obj
 0001:0007d0b0       svsutil_Alloc              1007e0b0 f   ceosutil:utilmem.obj
 0001:0007d0b4       svsutil_ReAlloc            1007e0b4 f   ceosutil:utilmem.obj
 0001:0007d0b8       svsutil_Free               1007e0b8 f   ceosutil:utilmem.obj
 0001:0007d0bc       svsutil_AllocFixedMemDescrSynch 1007e0bc f   ceosutil:utilmemf.obj
 0001:0007d124       svsutil_AllocFixedMemDescr 1007e124 f   ceosutil:utilmemf.obj
 0001:0007d12c       svsutil_GetFixed           1007e12c f   ceosutil:utilmemf.obj
 0001:0007d200       svsutil_FreeFixed          1007e200 f   ceosutil:utilmemf.obj
 0001:0007d23c       svsutil_ReleaseFixedNonEmpty 1007e23c f   ceosutil:utilmemf.obj
 0001:0007d2b0       svsutil_ReleaseFixedEmpty  1007e2b0 f   ceosutil:utilmemf.obj
 0001:0007d2e8       ?SLockAcquire@@YAHXZ       1007e2e8 f   sqmproxy:sqmproxy.obj
 0001:0007d354       ?Client_Attach@@YAHXZ      1007e354 f   sqmproxy:sqmproxy.obj
 0001:0007d7f0       SqmGetManagedSession       1007e7f0 f   sqmproxy:sqmproxy.obj
 0001:0007d864       SqmEndManagedSession       1007e864 f   sqmproxy:sqmproxy.obj
 0001:0007d8bc       SqmAddToStream             1007e8bc f   sqmproxy:sqmproxy.obj
 0001:0007d918       SqmProxyCleanup            1007e918 f   sqmproxy:sqmproxy.obj
 0001:0007d960       TlsCall                    1007e960 f   coredll:COREDLL.dll
 0001:0007d970       DeleteCriticalSection      1007e970 f   coredll:COREDLL.dll
 0001:0007d980       InitializeCriticalSection  1007e980 f   coredll:COREDLL.dll
 0001:0007d990       LocalAlloc                 1007e990 f   coredll:COREDLL.dll
 0001:0007d9a0       LocalFree                  1007e9a0 f   coredll:COREDLL.dll
 0001:0007d9b0       GetLastError               1007e9b0 f   coredll:COREDLL.dll
 0001:0007d9c0       MultiByteToWideChar        1007e9c0 f   coredll:COREDLL.dll
 0001:0007d9d0       WideCharToMultiByte        1007e9d0 f   coredll:COREDLL.dll
 0001:0007d9e0       IsDBCSLeadByteEx           1007e9e0 f   coredll:COREDLL.dll
 0001:0007d9f0       StringCchLengthA           1007e9f0 f   coredll:COREDLL.dll
 0001:0007da00       CompareStringW             1007ea00 f   coredll:COREDLL.dll
 0001:0007da10       StringCchLengthW           1007ea10 f   coredll:COREDLL.dll
 0001:0007da20       LocalReAlloc               1007ea20 f   coredll:COREDLL.dll
 0001:0007da30       GetTickCount               1007ea30 f   coredll:COREDLL.dll
 0001:0007da40       FreeLibrary                1007ea40 f   coredll:COREDLL.dll
 0001:0007da50       InterlockedDecrement       1007ea50 f   coredll:COREDLL.dll
 0001:0007da60       SystemTimeToFileTime       1007ea60 f   coredll:COREDLL.dll
 0001:0007da70       GetSystemTime              1007ea70 f   coredll:COREDLL.dll
 0001:0007da80       StringCchCopyNA            1007ea80 f   coredll:COREDLL.dll
 0001:0007da90       StringCchCatA              1007ea90 f   coredll:COREDLL.dll
 0001:0007daa0       FileTimeToSystemTime       1007eaa0 f   coredll:COREDLL.dll
 0001:0007dab0       SetLastError               1007eab0 f   coredll:COREDLL.dll
 0001:0007dac0       StringCchPrintfA           1007eac0 f   coredll:COREDLL.dll
 0001:0007dad0       CharLowerW                 1007ead0 f   coredll:COREDLL.dll
 0001:0007dae0       RegCloseKey                1007eae0 f   coredll:COREDLL.dll
 0001:0007daf0       InterlockedIncrement       1007eaf0 f   coredll:COREDLL.dll
 0001:0007db00       GetProcAddressA            1007eb00 f   coredll:COREDLL.dll
 0001:0007db10       StringCchCatNA             1007eb10 f   coredll:COREDLL.dll
 0001:0007db20       EventModify                1007eb20 f   coredll:COREDLL.dll
 0001:0007db30       __GetUserKData             1007eb30 f   coredll:COREDLL.dll
 0001:0007db40       EnterCriticalSection       1007eb40 f   coredll:COREDLL.dll
 0001:0007db50       LeaveCriticalSection       1007eb50 f   coredll:COREDLL.dll
 0001:0007db60       InterlockedExchange        1007eb60 f   coredll:COREDLL.dll
 0001:0007db70       StringCchCopyW             1007eb70 f   coredll:COREDLL.dll
 0001:0007db80       CloseHandle                1007eb80 f   coredll:COREDLL.dll
 0001:0007db90       WaitForSingleObject        1007eb90 f   coredll:COREDLL.dll
 0001:0007dba0       InterlockedCompareExchange 1007eba0 f   coredll:COREDLL.dll
 0001:0007dbb0       InterlockedExchangeAdd     1007ebb0 f   coredll:COREDLL.dll
 0001:0007dbc0       CeSetThreadPriority        1007ebc0 f   coredll:COREDLL.dll
 0001:0007dbd0       Sleep                      1007ebd0 f   coredll:COREDLL.dll
 0001:0007dbe0       CreateThread               1007ebe0 f   coredll:COREDLL.dll
 0001:0007dbf0       FreeLibraryAndExitThread   1007ebf0 f   coredll:COREDLL.dll
 0001:0007dc00       LoadLibraryW               1007ec00 f   coredll:COREDLL.dll
 0001:0007dc10       GetACP                     1007ec10 f   coredll:COREDLL.dll
 0001:0007dc20       CreateEventW               1007ec20 f   coredll:COREDLL.dll
 0001:0007dc30       StringCchCopyA             1007ec30 f   coredll:COREDLL.dll
 0001:0007dc40       DeleteFileW                1007ec40 f   coredll:COREDLL.dll
 0001:0007dc50       WriteFile                  1007ec50 f   coredll:COREDLL.dll
 0001:0007dc60       CreateFileW                1007ec60 f   coredll:COREDLL.dll
 0001:0007dc70       ReadFile                   1007ec70 f   coredll:COREDLL.dll
 0001:0007dc80       GetSystemTimeAsFileTime    1007ec80 f   coredll:COREDLL.dll
 0001:0007dc90       StringCchVPrintfA          1007ec90 f   coredll:COREDLL.dll
 0001:0007dca0       GetFileTime                1007eca0 f   coredll:COREDLL.dll
 0001:0007dcb0       StringCchPrintfExA         1007ecb0 f   coredll:COREDLL.dll
 0001:0007dcc0       ReleaseSemaphore           1007ecc0 f   coredll:COREDLL.dll
 0001:0007dcd0       CreateSemaphoreW           1007ecd0 f   coredll:COREDLL.dll
 0001:0007dce0       LocalFileTimeToFileTime    1007ece0 f   coredll:COREDLL.dll
 0001:0007dcf0       StringCchPrintfW           1007ecf0 f   coredll:COREDLL.dll
 0001:0007dd00       IsDBCSLeadByte             1007ed00 f   coredll:COREDLL.dll
 0001:0007dd10       SetFilePointer             1007ed10 f   coredll:COREDLL.dll
 0001:0007dd20       FindClose                  1007ed20 f   coredll:COREDLL.dll
 0001:0007dd30       lstrcmpW                   1007ed30 f   coredll:COREDLL.dll
 0001:0007dd40       CryptProtectData           1007ed40 f   coredll:COREDLL.dll
 0001:0007dd50       CryptUnprotectData         1007ed50 f   coredll:COREDLL.dll
 0001:0007dd60       GetVersionExW              1007ed60 f   coredll:COREDLL.dll
 0001:0007dd70       ReleaseMutex               1007ed70 f   coredll:COREDLL.dll
 0001:0007dd80       UnmapViewOfFile            1007ed80 f   coredll:COREDLL.dll
 0001:0007dd90       SetEndOfFile               1007ed90 f   coredll:COREDLL.dll
 0001:0007dda0       FlushViewOfFile            1007eda0 f   coredll:COREDLL.dll
 0001:0007ddb0       MapViewOfFile              1007edb0 f   coredll:COREDLL.dll
 0001:0007ddc0       GetFileSize                1007edc0 f   coredll:COREDLL.dll
 0001:0007ddd0       SetFileTime                1007edd0 f   coredll:COREDLL.dll
 0001:0007dde0       DeviceIoControl            1007ede0 f   coredll:COREDLL.dll
 0001:0007ddf0       StringCchCatNExA           1007edf0 f   coredll:COREDLL.dll
 0001:0007de00       CryptReleaseContext        1007ee00 f   coredll:COREDLL.dll
 0001:0007de10       CryptGenRandom             1007ee10 f   coredll:COREDLL.dll
 0001:0007de20       CryptAcquireContextW       1007ee20 f   coredll:COREDLL.dll
 0001:0007de30       WaitForAPIReady            1007ee30 f   coredll:COREDLL.dll
 0001:0007de40       GetProcAddressW            1007ee40 f   coredll:COREDLL.dll
 0001:0007de50       IsWindow                   1007ee50 f   coredll:COREDLL.dll
 0001:0007de60       GetDesktopWindow           1007ee60 f   coredll:COREDLL.dll
 0001:0007de70       SetDlgItemTextW            1007ee70 f   coredll:COREDLL.dll
 0001:0007de80       LoadStringW                1007ee80 f   coredll:COREDLL.dll
 0001:0007de90       DestroyIcon                1007ee90 f   coredll:COREDLL.dll
 0001:0007dea0       SetFocus                   1007eea0 f   coredll:COREDLL.dll
 0001:0007deb0       GetDlgItem                 1007eeb0 f   coredll:COREDLL.dll
 0001:0007dec0       SetForegroundWindow        1007eec0 f   coredll:COREDLL.dll
 0001:0007ded0       GetTimeFormatW             1007eed0 f   coredll:COREDLL.dll
 0001:0007dee0       GetDateFormatW             1007eee0 f   coredll:COREDLL.dll
 0001:0007def0       SetWindowLongW             1007eef0 f   coredll:COREDLL.dll
 0001:0007df00       EndDialog                  1007ef00 f   coredll:COREDLL.dll
 0001:0007df10       GetWindowLongW             1007ef10 f   coredll:COREDLL.dll
 0001:0007df20       CreateProcessW             1007ef20 f   coredll:COREDLL.dll
 0001:0007df30       DialogBoxIndirectParamW    1007ef30 f   coredll:COREDLL.dll
 0001:0007df40       LoadResource               1007ef40 f   coredll:COREDLL.dll
 0001:0007df50       FindResourceW              1007ef50 f   coredll:COREDLL.dll
 0001:0007df60       TlsSetValue                1007ef60 f   coredll:COREDLL.dll
 0001:0007df70       TlsGetValue                1007ef70 f   coredll:COREDLL.dll
 0001:0007df80       GetExitCodeThread          1007ef80 f   coredll:COREDLL.dll
 0001:0007df90       LoadImageW                 1007ef90 f   coredll:COREDLL.dll
 0001:0007dfa0       MessageBoxW                1007efa0 f   coredll:COREDLL.dll
 0001:0007dfb0       StringCchCopyNW            1007efb0 f   coredll:COREDLL.dll
 0001:0007dfc0       GetLocalTime               1007efc0 f   coredll:COREDLL.dll
 0001:0007dfd0       StringCbLengthA            1007efd0 f   coredll:COREDLL.dll
 0001:0007dfe0       IsValidCodePage            1007efe0 f   coredll:COREDLL.dll
 0001:0007dff0       RegOpenKeyExW              1007eff0 f   coredll:COREDLL.dll
 0001:0007e000       GetFileAttributesExW       1007f000 f   coredll:COREDLL.dll
 0001:0007e010       GetDiskFreeSpaceExW        1007f010 f   coredll:COREDLL.dll
 0001:0007e020       FormatMessageW             1007f020 f   coredll:COREDLL.dll
 0001:0007e030       CePerfDLLCleanup           1007f030 f   coredll:COREDLL.dll
 0001:0007e040       CePerfDLLSetup             1007f040 f   coredll:COREDLL.dll
 0001:0007e050       StringCchCopyExA           1007f050 f   coredll:COREDLL.dll
 0001:0007e060       GetModuleFileNameW         1007f060 f   coredll:COREDLL.dll
 0001:0007e070       RegQueryInfoKeyW           1007f070 f   coredll:COREDLL.dll
 0001:0007e080       RaiseException             1007f080 f   coredll:COREDLL.dll
 0001:0007e090       CharUpperW                 1007f090 f   coredll:COREDLL.dll
 0001:0007e0a0       CreateMutexW               1007f0a0 f   coredll:COREDLL.dll
 0001:0007e0b0       CreateDirectoryW           1007f0b0 f   coredll:COREDLL.dll
 0001:0007e0c0       GetFileAttributesW         1007f0c0 f   coredll:COREDLL.dll
 0001:0007e0d0       FindFirstFileW             1007f0d0 f   coredll:COREDLL.dll
 0001:0007e0e0       FindNextFileW              1007f0e0 f   coredll:COREDLL.dll
 0001:0007e0f0       RemoveDirectoryW           1007f0f0 f   coredll:COREDLL.dll
 0001:0007e100       SetFileAttributesW         1007f100 f   coredll:COREDLL.dll
 0001:0007e110       CopyFileW                  1007f110 f   coredll:COREDLL.dll
 0001:0007e120       GetModuleHandleW           1007f120 f   coredll:COREDLL.dll
 0001:0007e130       CreateFileMappingW         1007f130 f   coredll:COREDLL.dll
 0001:0007e140       LoadIconW                  1007f140 f   coredll:COREDLL.dll
 0001:0007e150       SendDlgItemMessageW        1007f150 f   coredll:COREDLL.dll
 0001:0007e160       StrCmpNCA                  1007f160 f   shlwapi:shlwapi.dll
 0001:0007e170       RegQueryValueExA           1007f170 f   shlwapi:shlwapi.dll
 0001:0007e180       RegOpenKeyExA              1007f180 f   shlwapi:shlwapi.dll
 0001:0007e190       StrStrIA                   1007f190 f   shlwapi:shlwapi.dll
 0001:0007e1a0       StrCmpNICA                 1007f1a0 f   shlwapi:shlwapi.dll
 0001:0007e1b0       StrStrA                    1007f1b0 f   shlwapi:shlwapi.dll
 0001:0007e1c0       StrToIntA                  1007f1c0 f   shlwapi:shlwapi.dll
 0001:0007e1d0       StrRChrA                   1007f1d0 f   shlwapi:shlwapi.dll
 0001:0007e1e0       StrChrA                    1007f1e0 f   shlwapi:shlwapi.dll
 0001:0007e1f0       RegCreateKeyExA            1007f1f0 f   shlwapi:shlwapi.dll
 0001:0007e200       SHDeleteKeyA               1007f200 f   shlwapi:shlwapi.dll
 0001:0007e210       RegEnumKeyExA              1007f210 f   shlwapi:shlwapi.dll
 0001:0007e220       UrlUnescapeA               1007f220 f   shlwapi:shlwapi.dll
 0001:0007e230       RegSetValueExA             1007f230 f   shlwapi:shlwapi.dll
 0001:0007e240       RegDeleteValueA            1007f240 f   shlwapi:shlwapi.dll
 0001:0007e250       StrCmpNIA                  1007f250 f   shlwapi:shlwapi.dll
 0001:0007e260       SHRegGetUSValueA           1007f260 f   shlwapi:shlwapi.dll
 0001:0007e270       StrCmpNIW                  1007f270 f   shlwapi:shlwapi.dll
 0001:0007e280       SHSetValueW                1007f280 f   shlwapi:shlwapi.dll
 0001:0007e290       SHGetValueW                1007f290 f   shlwapi:shlwapi.dll
 0001:0007e2a0       PathAddBackslashA          1007f2a0 f   shlwapi:shlwapi.dll
 0001:0007e2b0       StrCmpICA                  1007f2b0 f   shlwapi:shlwapi.dll
 0001:0007e2c0       PathAppendA                1007f2c0 f   shlwapi:shlwapi.dll
 0001:0007e2d0       PathRemoveBlanksA          1007f2d0 f   shlwapi:shlwapi.dll
 0001:0007e2e0       StrCmpCA                   1007f2e0 f   shlwapi:shlwapi.dll
 0001:0007e2f0       StrCmpNA                   1007f2f0 f   shlwapi:shlwapi.dll
 0001:0007e300       RegDeleteKeyA              1007f300 f   shlwapi:shlwapi.dll
 0001:0007e310       PathCreateFromUrlW         1007f310 f   shlwapi:shlwapi.dll
 0001:0007e320       UrlCanonicalizeA           1007f320 f   shlwapi:shlwapi.dll
 0001:0007e330       UrlCombineA                1007f330 f   shlwapi:shlwapi.dll
 0001:0007e340       UrlCanonicalizeW           1007f340 f   shlwapi:shlwapi.dll
 0001:0007e350       UrlCombineW                1007f350 f   shlwapi:shlwapi.dll
 0001:0007e360       SHUnicodeToAnsi            1007f360 f   shlwapi:shlwapi.dll
 0001:0007e370       StrCmpNICW                 1007f370 f   shlwapi:shlwapi.dll
 0001:0007e380       StrChrW                    1007f380 f   shlwapi:shlwapi.dll
 0001:0007e390       SHGetValueA                1007f390 f   shlwapi:shlwapi.dll
 0001:0007e3a0       IsOS                       1007f3a0 f   shlwapi:shlwapi.dll
 0001:0007e3b0       StrCmpICW                  1007f3b0 f   shlwapi:shlwapi.dll
 0001:0007e3c0       SHRegGetValueW             1007f3c0 f   shlwapi:shlwapi.dll
 0001:0007e3d0       PathFindFileNameW          1007f3d0 f   shlwapi:shlwapi.dll
 0001:0007e3e0       SHRegGetValueA             1007f3e0 f   shlwapi:shlwapi.dll
 0001:0007e3f0       CertNameToStrA             1007f3f0 f   crypt32:CRYPT32.dll
 0001:0007e400       CertDuplicateCertificateChain 1007f400 f   crypt32:CRYPT32.dll
 0001:0007e410       CertDuplicateCertificateContext 1007f410 f   crypt32:CRYPT32.dll
 0001:0007e420       CertFreeCertificateContext 1007f420 f   crypt32:CRYPT32.dll
 0001:0007e430       CertFreeCertificateChain   1007f430 f   crypt32:CRYPT32.dll
 0001:0007e440       CertCloseStore             1007f440 f   crypt32:CRYPT32.dll
 0001:0007e450       CertGetIntendedKeyUsage    1007f450 f   crypt32:CRYPT32.dll
 0001:0007e460       CertFindExtension          1007f460 f   crypt32:CRYPT32.dll
 0001:0007e470       CertDuplicateStore         1007f470 f   crypt32:CRYPT32.dll
 0001:0007e578       _DllMainCRTStartup         1007f578 f   corelib0:pegdmain.obj
 0001:0007e5ac       _onexit                    1007f5ac f   corelib0:onexit.obj
 0001:0007e730       atexit                     1007f730 f   corelib0:onexit.obj
 0001:0007e748       __GSHandlerCheckCommon     1007f748 f   corelib0:gshandler.obj
 0001:0007e784       __GSHandlerCheck           1007f784 f   corelib0:gshandler.obj
 0001:0007e7a4       __security_init_cookie     1007f7a4 f   corelib0:seccinit.obj
 0001:0007e7f0       __security_check_cookie    1007f7f0 f   corelib0:armsecgs.obj
 0001:0007e800       __gsfailure                1007f800     corelib0:armsecgs.obj
 0001:0007e844       __GSHandlerCheck_SEH       1007f844 f   corelib0:gshandlerseh.obj
 0001:0007e978       _cexit                     1007f978 f   corelib0:cexit.obj
 0001:0007e988       _initterm                  1007f988 f   corelib0:crt0dat.obj
 0001:0007e9b4       _cinit                     1007f9b4 f   corelib0:crt0dat.obj
 0001:0007ea14       __crt_ExitProcess          1007fa14 f   corelib0:exitproc_proxy.obj
 0001:0007ea20       wcslen                     1007fa20 f   corelib1:COREDLL.dll
 0001:0007ea30       strlen                     1007fa30 f   corelib1:COREDLL.dll
 0001:0007ea40       memset                     1007fa40 f   corelib1:COREDLL.dll
 0001:0007ea50       strcspn                    1007fa50 f   corelib1:COREDLL.dll
 0001:0007ea60       memcpy                     1007fa60 f   corelib1:COREDLL.dll
 0001:0007ea70       ??_U@YAPAXI@Z              1007fa70 f   corelib1:COREDLL.dll
 0001:0007ea80       ??_V@YAXPAX@Z              1007fa80 f   corelib1:COREDLL.dll
 0001:0007ea90       _isctype                   1007fa90 f   corelib1:COREDLL.dll
 0001:0007eaa0       __C_specific_handler       1007faa0 f   corelib1:COREDLL.dll
 0001:0007eab0       memcmp                     1007fab0 f   corelib1:COREDLL.dll
 0001:0007eac0       strtoul                    1007fac0 f   corelib1:COREDLL.dll
 0001:0007ead0       memchr                     1007fad0 f   corelib1:COREDLL.dll
 0001:0007eae0       _stricmp                   1007fae0 f   corelib1:COREDLL.dll
 0001:0007eaf0       memmove                    1007faf0 f   corelib1:COREDLL.dll
 0001:0007eb00       strcmp                     1007fb00 f   corelib1:COREDLL.dll
 0001:0007eb10       _purecall                  1007fb10 f   corelib1:COREDLL.dll
 0001:0007eb20       wcsstr                     1007fb20 f   corelib1:COREDLL.dll
 0001:0007eb30       strncmp                    1007fb30 f   corelib1:COREDLL.dll
 0001:0007eb40       wcschr                     1007fb40 f   corelib1:COREDLL.dll
 0001:0007eb50       strpbrk                    1007fb50 f   corelib1:COREDLL.dll
 0001:0007eb60       free                       1007fb60 f   corelib1:COREDLL.dll
 0001:0007eb70       malloc                     1007fb70 f   corelib1:COREDLL.dll
 0001:0007eb80       calloc                     1007fb80 f   corelib1:COREDLL.dll
 0001:0007eb90       _recalloc                  1007fb90 f   corelib1:COREDLL.dll
 0001:0007eba0       strtol                     1007fba0 f   corelib1:COREDLL.dll
 0001:0007ebb0       sprintf_s                  1007fbb0 f   corelib1:COREDLL.dll
 0001:0007ebc0       wcstol                     1007fbc0 f   corelib1:COREDLL.dll
 0001:0007ebd0       iswctype                   1007fbd0 f   corelib1:COREDLL.dll
 0001:0007ebe0       realloc                    1007fbe0 f   corelib1:COREDLL.dll
 0001:0007ebf0       _XcptFilter                1007fbf0 f   corelib1:COREDLL.dll
 0001:0007ec00       _msize                     1007fc00 f   corelib1:COREDLL.dll
 0001:0007ec10       __security_gen_cookie2     1007fc10 f   corelib1:COREDLL.dll
 0001:0007ec20       __report_gsfailure         1007fc20 f   corelib1:COREDLL.dll
 0001:0007ec30       ExtractWordWithLength      1007fc30 f   wininet_common:parsers.obj
 0001:0007eccc       ExtractDword               1007fccc f   wininet_common:parsers.obj
 0001:0007ed78       SkipWhitespace             1007fd78 f   wininet_common:parsers.obj
 0001:0007ede0       SkipSpaces                 1007fde0 f   wininet_common:parsers.obj
 0001:0007ee30       SkipLine                   1007fe30 f   wininet_common:parsers.obj
 0001:0007eec8       FindToken                  1007fec8 f   wininet_common:parsers.obj
 0001:0007ef70       NiceNum                    1007ff70 f   wininet_common:parsers.obj
 0001:0007f0a0       ?Acquire@RESOURCE_LOCK@@QAAHH@Z 100800a0 f   wininet_common:reslock.obj
 0001:0007f1b4       ?Release@RESOURCE_LOCK@@QAAXXZ 100801b4 f   wininet_common:reslock.obj
 0001:0007f234       SecurityInitialize         10080234 f   wininet_common:secinit.obj
 0001:0007f240       SecurityTerminate          10080240 f   wininet_common:secinit.obj
 0001:0007f274       UnloadSecurity             10080274 f   wininet_common:secinit.obj
 0001:0007f3b0       ReopenMyCertStore          100803b0 f   wininet_common:secinit.obj
 0001:0007f474       CloseMyCertStore           10080474 f   wininet_common:secinit.obj
 0001:0007f510       LoadSecurity               10080510 f   wininet_common:secinit.obj
 0001:0007f714       ?SetCertChain@SECURITY_CACHE_LIST_ENTRY@@QAAXPBU_CERT_CHAIN_CONTEXT@@@Z 10080714 f i wininet_common:ssocket.obj
 0001:0007f758       ?SetChannelBindingToken@SECURITY_CACHE_LIST_ENTRY@@QAAXPAU_SecPkgContext_Bindings@@@Z 10080758 f i wininet_common:ssocket.obj
 0001:0007f7d4       SecurityPkgInitialize      100807d4 f   wininet_common:ssocket.obj
 0001:0007fb24       QuerySecurityInfo          10080b24 f   wininet_common:ssocket.obj
 0001:0007fb94       WinVerifySecureChannel     10080b94 f   wininet_common:ssocket.obj
 0001:0007fc64       ??0ICSecureSocket@@QAA@KW4INTERNET_SCHEME@@@Z 10080c64 f   wininet_common:ssocket.obj
 0001:0007fcb4       ?MatchTunnelSemantics@ICSecureSocket@@UAAHKPAD@Z 10080cb4 f i wininet_common:ssocket.obj
 0001:0007fcf4       ?VerifyTrust@ICSecureSocket@@QAAKXZ 10080cf4 f   wininet_common:ssocket.obj
 0001:0008016c       ?SetHostName@ICSecureSocket@@QAAKPADG@Z 1008116c f   wininet_common:ssocket.obj
 0001:00080240       ?EncryptData@ICSecureSocket@@AAAKPAXKPAPAXPAK2@Z 10081240 f   wininet_common:ssocket.obj
 0001:000803e0       ?DecryptData@ICSecureSocket@@AAAKPAKPAE000@Z 100813e0 f   wininet_common:ssocket.obj
 0001:00080630       ?TerminateSecConnection@ICSecureSocket@@AAAXXZ 10081630 f   wininet_common:ssocket.obj
 0001:000806bc       ??1ICSecureSocket@@UAA@XZ  100816bc f   wininet_common:ssocket.obj
 0001:00080748       ?IsValidCacheEntry@ICSecureSocket@@AAAHXZ 10081748 f   wininet_common:ssocket.obj
 0001:000808c0       ?ReVerifyTrust@ICSecureSocket@@AAAKK@Z 100818c0 f   wininet_common:ssocket.obj
 0001:00080ae0       ?NegotiateLoop_Fsm@ICSecureSocket@@QAAKPAVCFsm_NegotiateLoop@@@Z 10081ae0 f   wininet_common:ssocket.obj
 0001:000810d8       ?Disconnect@ICSecureSocket@@UAAKK@Z 100820d8 f   wininet_common:ssocket.obj
 0001:00081138       ?Send_Fsm@ICSecureSocket@@QAAKPAVCFsm_SecureSend@@@Z 10082138 f   wininet_common:ssocket.obj
 0001:00081228       ??_GICSecureSocket@@UAAPAXI@Z 10082228 f i wininet_common:ssocket.obj
 0001:00081228       ??_EICSecureSocket@@UAAPAXI@Z 10082228 f i wininet_common:ssocket.obj
 0001:0008124c       ?RunSM@CFsm_NegotiateLoop@@SAKPAVCFsm@@@Z 1008224c f   wininet_common:ssocket.obj
 0001:000812ac       ?RunSM@CFsm_SecureSend@@SAKPAVCFsm@@@Z 100822ac f   wininet_common:ssocket.obj
 0001:0008130c       ??0CFsm_NegotiateLoop@@QAA@PAVDBLBUFFER@@KHHU_SecHandle@@PAVICSecureSocket@@@Z 1008230c f i wininet_common:ssocket.obj
 0001:000813a8       ??_ECFsm_NegotiateLoop@@UAAPAXI@Z 100823a8 f i wininet_common:ssocket.obj
 0001:000813a8       ??_GCFsm_NegotiateLoop@@UAAPAXI@Z 100823a8 f i wininet_common:ssocket.obj
 0001:000813ec       ??0CFsm_SecureSend@@QAA@PAXKKPAVICSecureSocket@@@Z 100823ec f i wininet_common:ssocket.obj
 0001:00081444       ??_ECFsm_SecureSend@@UAAPAXI@Z 10082444 f i wininet_common:ssocket.obj
 0001:00081444       ??_GCFsm_SecureSend@@UAAPAXI@Z 10082444 f i wininet_common:ssocket.obj
 0001:00081468       ?SSPINegotiateLoop@ICSecureSocket@@QAAKPAVDBLBUFFER@@KU_SecHandle@@HH@Z 10082468 f   wininet_common:ssocket.obj
 0001:000814d4       ?Send@ICSecureSocket@@UAAKPAXKK@Z 100824d4 f   wininet_common:ssocket.obj
 0001:00081554       ?Receive_Fsm@ICSecureSocket@@QAAKPAVCFsm_SecureReceive@@@Z 10082554 f   wininet_common:ssocket.obj
 0001:00081b04       ?SecureNegotiate_Fsm@ICSecureSocket@@QAAKPAVCFsm_SecureNegotiate@@@Z 10082b04 f   wininet_common:ssocket.obj
 0001:00081f84       ?RunSM@CFsm_SecureReceive@@SAKPAVCFsm@@@Z 10082f84 f   wininet_common:ssocket.obj
 0001:00081fe4       ??0CFsm_SecureReceive@@QAA@PAPAXPAK11KKPAHPAVICSecureSocket@@@Z 10082fe4 f i wininet_common:ssocket.obj
 0001:00082088       ??_GCFsm_SecureReceive@@UAAPAXI@Z 10083088 f i wininet_common:ssocket.obj
 0001:00082088       ??_ECFsm_SecureReceive@@UAAPAXI@Z 10083088 f i wininet_common:ssocket.obj
 0001:000820ac       ?RunSM@CFsm_SecureNegotiate@@SAKPAVCFsm@@@Z 100830ac f   wininet_common:ssocket.obj
 0001:0008210c       ?Receive@ICSecureSocket@@UAAKPAPAXPAK11KKPAH@Z 1008310c f   wininet_common:ssocket.obj
 0001:000821cc       ??0CFsm_SecureNegotiate@@QAA@KPAHPAVICSecureSocket@@@Z 100831cc f i wininet_common:ssocket.obj
 0001:00082220       ??1CFsm_SecureNegotiate@@UAA@XZ 10083220 f i wininet_common:ssocket.obj
 0001:00082264       ??_GCFsm_SecureNegotiate@@UAAPAXI@Z 10083264 f i wininet_common:ssocket.obj
 0001:00082264       ??_ECFsm_SecureNegotiate@@UAAPAXI@Z 10083264 f i wininet_common:ssocket.obj
 0001:00082288       ?NegotiateSecConnection@ICSecureSocket@@QAAKKPAH@Z 10083288 f   wininet_common:ssocket.obj
 0001:000822cc       ?SecureHandshake_Fsm@ICSecureSocket@@QAAKPAVCFsm_SecureHandshake@@@Z 100832cc f   wininet_common:ssocket.obj
 0001:0008260c       ?RunSM@CFsm_SecureHandshake@@SAKPAVCFsm@@@Z 1008360c f   wininet_common:ssocket.obj
 0001:0008266c       ??_ECFsm_SecureHandshake@@UAAPAXI@Z 1008366c f i wininet_common:ssocket.obj
 0001:0008266c       ??_GCFsm_SecureHandshake@@UAAPAXI@Z 1008366c f i wininet_common:ssocket.obj
 0001:00082690       ?SecureHandshakeWithServer@ICSecureSocket@@QAAKKPAH@Z 10083690 f   wininet_common:ssocket.obj
 0001:000826f8       ?Connect_Fsm@ICSecureSocket@@QAAKPAVCFsm_SecureConnect@@@Z 100836f8 f   wininet_common:ssocket.obj
 0001:00082820       ?RunSM@CFsm_SecureConnect@@SAKPAVCFsm@@@Z 10083820 f   wininet_common:ssocket.obj
 0001:00082880       ??0CFsm_SecureConnect@@QAA@JHKPAVICSecureSocket@@@Z 10083880 f i wininet_common:ssocket.obj
 0001:000828d4       ??_ECFsm_SecureConnect@@UAAPAXI@Z 100838d4 f i wininet_common:ssocket.obj
 0001:000828d4       ??_GCFsm_SecureConnect@@UAAPAXI@Z 100838d4 f i wininet_common:ssocket.obj
 0001:000828f8       ?Connect@ICSecureSocket@@UAAKJHK@Z 100838f8 f   wininet_common:ssocket.obj
 0001:00082978       ?InitBuffer@DBLBUFFER@@QAAHH@Z 10083978 f   wininet_common:buffer.obj
 0001:000829bc       ?CopyOut@DBLBUFFER@@QAAHPAEPAK11@Z 100839bc f   wininet_common:buffer.obj
 0001:00082a5c       ?CompressInputBufferUsage@DBLBUFFER@@QAAHXZ 10083a5c f   wininet_common:buffer.obj
 0001:00082a94       ?ConcatenateOutputBufferUsage@DBLBUFFER@@QAAHPAEK@Z 10083a94 f   wininet_common:buffer.obj
 0001:00082adc       ?SetOutputInputBuffer@DBLBUFFER@@QAAHPAEK0KH@Z 10083adc f   wininet_common:buffer.obj
 0001:00082b3c       ?GetInputBufferRemaining@DBLBUFFER@@QAAKXZ 10083b3c f   wininet_common:buffer.obj
 0001:00082b6c       ?ResizeBufferIfNeeded@DBLBUFFER@@QAAHK@Z 10083b6c f   wininet_common:buffer.obj
 0001:00082be8       ?CopyIn@DBLBUFFER@@QAAHPAEK@Z 10083be8 f   wininet_common:buffer.obj
 0001:00082c88       ??0_DWNLD_FILE_SEARCH_DATA@@QAA@XZ 10083c88 f i wininet_ftp:ftpapiu.obj
 0001:00082cec       _IsFileExtensionInUrlPath  10083cec f   wininet_ftp:ftpapiu.obj
 0001:00082d40       _RemoveBracketFromFileName 10083d40 f   wininet_ftp:ftpapiu.obj
 0001:00082d74       _FindSourceUrlFileName     10083d74 f   wininet_ftp:ftpapiu.obj
 0001:00082db8       _PathFindFileNameA         10083db8 f   wininet_ftp:ftpapiu.obj
 0001:00082e14       _FTP_DebugOutput           10083e14 f   wininet_ftp:ftpapiu.obj
 0001:00082e4c       _DeleteFileIfItExists      10083e4c f   wininet_ftp:ftpapiu.obj
 0001:00082fd4       _RemoveOldDirectoryAndChildren 10083fd4 f   wininet_ftp:ftpapiu.obj
 0001:00083360       _DumpCache                 10084360 f   wininet_ftp:ftpapiu.obj
 0001:00083430       _RemoveFileFromCache       10084430 f   wininet_ftp:ftpapiu.obj
 0001:0008377c       _DeleteDownLoadIfExists    1008477c f   wininet_ftp:ftpapiu.obj
 0001:000838b0       ParseFtpUrl                100848b0 f   wininet_ftp:ftpapiu.obj
 0001:00084058       FtpInitialize              10085058 f   wininet_ftp:ftpinit.obj
 0001:00084064       FtpTerminate               10085064 f   wininet_ftp:ftpinit.obj
 0001:00084094       ?GetHandle@HTTP_REQUEST_HANDLE_OBJECT@@UAAPAXXZ 10085094 f   wininet_hndlobj:http.obj
 0001:0008409c       ?SetProxyName@HTTP_REQUEST_HANDLE_OBJECT@@QAAXPBDKG@Z 1008509c f   wininet_hndlobj:http.obj
 0001:00084110       ?GetProxyName@HTTP_REQUEST_HANDLE_OBJECT@@QAAXPAPADPAKPAG@Z 10085110 f   wininet_hndlobj:http.obj
 0001:00084134       ?UrlCacheUnlock@HTTP_REQUEST_HANDLE_OBJECT@@QAAXH@Z 10085134 f   wininet_hndlobj:http.obj
 0001:0008421c       ?IsIISServer@HTTP_REQUEST_HANDLE_OBJECT@@QAAHPAK0@Z 1008521c f   wininet_hndlobj:http.obj
 0001:0008438c       ?ReuseObject@HTTP_REQUEST_HANDLE_OBJECT@@QAAXH@Z 1008538c f   wininet_hndlobj:http.obj
 0001:00084478       ?ResetObject@HTTP_REQUEST_HANDLE_OBJECT@@QAAKHH@Z 10085478 f   wininet_hndlobj:http.obj
 0001:000844b4       ?CopyCmSessionHandle@HTTP_REQUEST_HANDLE_OBJECT@@QAAPAUCM_SESSION_HANDLE__@@XZ 100854b4 f   wininet_hndlobj:http.obj
 0001:000844d4       ??4?$auto_xxx@PAVCandidateEnumerator@@P6AXPAV1@@Z$1??$_delete@VCandidateEnumerator@@@ce@@YAX0@Z$0A@V?$_ref_counting_t@V?$singleton_allocator@V?$free_list@$0GE@Vallocator@ce@@@ce@@$03@ce@@@2@@ce@@QAAAAV01@ABQAVCandidateEnumerator@@@Z 100854d4 f i wininet_hndlobj:http.obj
 0001:00084520       ??1HTTP_REQUEST_HANDLE_OBJECT@@UAA@XZ 10085520 f   wininet_hndlobj:http.obj
 0001:000846a4       ?GetHandleType@HTTP_REQUEST_HANDLE_OBJECT@@UAA?AW4HINTERNET_HANDLE_TYPE@@XZ 100856a4 f i wininet_hndlobj:http.obj
 0001:000846b0       ??0HTTP_REQUEST_HANDLE_OBJECT@@QAA@PAVINTERNET_CONNECT_HANDLE_OBJECT@@PAXP6AH1@ZKK@Z 100856b0 f   wininet_hndlobj:http.obj
 0001:00084a78       ??_GHTTP_REQUEST_HANDLE_OBJECT@@UAAPAXI@Z 10085a78 f i wininet_hndlobj:http.obj
 0001:00084a78       ??_EHTTP_REQUEST_HANDLE_OBJECT@@UAAPAXI@Z 10085a78 f i wininet_hndlobj:http.obj
 0001:00084a9c       RMakeHttpReqObjectHandle   10085a9c f   wininet_hndlobj:http.obj
 0001:00084b50       ?HttpWriteData_Fsm@HTTP_REQUEST_HANDLE_OBJECT@@QAAKPAVCFsm_HttpWriteData@@@Z 10085b50 f   wininet_http:write.obj
 0001:00084bd0       ?RunSM@CFsm_HttpWriteData@@SAKPAVCFsm@@@Z 10085bd0 f   wininet_http:write.obj
 0001:00084c3c       ??0CFsm_HttpWriteData@@QAA@PAXKPAKKPAVHTTP_REQUEST_HANDLE_OBJECT@@@Z 10085c3c f i wininet_http:write.obj
 0001:00084ca4       ??_GCFsm_HttpWriteData@@UAAPAXI@Z 10085ca4 f i wininet_http:write.obj
 0001:00084ca4       ??_ECFsm_HttpWriteData@@UAAPAXI@Z 10085ca4 f i wininet_http:write.obj
 0001:00084cc8       HttpWriteData              10085cc8 f   wininet_http:write.obj
 0001:00084d20       ?ValidateCertificateChain@@YAKPBU_WINTRUST_DATA@@@Z 10085d20 f   wininet_dll:portstub_wintrust.obj
 0001:00084da4       ?MyWinVerifyTrust@@YAJPAUHWND__@@PAU_GUID@@PAU_WINTRUST_DATA@@@Z 10085da4 f   wininet_dll:portstub_wintrust.obj
 0001:00084f18       ?ExtractCertChain@ICSecureSocket@@AAAPBU_CERT_CHAIN_CONTEXT@@AAU_WINTRUST_DATA@@@Z 10085f18 f   wininet_dll:portstub_wintrust.obj
 0001:00084f20       LoadWinTrust               10085f20 f   wininet_dll:portstub_wintrust.obj
 0001:00084f3c       TerminateProcess           10085f3c f   coredll:COREDLL.dll
 0001:00084f4c       PathFindExtensionA         10085f4c f   shlwapi:shlwapi.dll
 0001:00084f5c       CertOpenStore              10085f5c f   crypt32:CRYPT32.dll
 0001:00084f6c       CertControlStore           10085f6c f   crypt32:CRYPT32.dll
 0001:00084f7c       CertVerifyCertificateChainPolicy 10085f7c f   crypt32:CRYPT32.dll
 0001:00084f8c       CertGetCertificateChain    10085f8c f   crypt32:CRYPT32.dll
 0001:00085278       ??__Fcs@?1??get_lock@?$singleton@V?$free_list@$0GE@Vallocator@ce@@@ce@@$03V?$static_allocator@V?$free_list@$0GE@Vallocator@ce@@@ce@@$03@2@@ce@@KAAAVcritical_section@2@XZ@YAXXZ 10086278 f i dll_entry_point.obj
 0001:00085fc4       __IMPORT_DESCRIPTOR_COREDLL 10086fc4     coredll:COREDLL.dll
 0001:00085fd8       __IMPORT_DESCRIPTOR_shlwapi 10086fd8     shlwapi:shlwapi.dll
 0001:00085fec       __IMPORT_DESCRIPTOR_CRYPT32 10086fec     crypt32:CRYPT32.dll
 0001:00086000       __NULL_IMPORT_DESCRIPTOR   10087000     coredll:COREDLL.dll
 0002:00000000       __imp_TlsCall              10089000     coredll:COREDLL.dll
 0002:00000004       __imp_DeleteCriticalSection 10089004     coredll:COREDLL.dll
 0002:00000008       __imp_InitializeCriticalSection 10089008     coredll:COREDLL.dll
 0002:0000000c       __imp_LocalAlloc           1008900c     coredll:COREDLL.dll
 0002:00000010       __imp_LocalFree            10089010     coredll:COREDLL.dll
 0002:00000014       __imp_GetLastError         10089014     coredll:COREDLL.dll
 0002:00000018       __imp_MultiByteToWideChar  10089018     coredll:COREDLL.dll
 0002:0000001c       __imp_WideCharToMultiByte  1008901c     coredll:COREDLL.dll
 0002:00000020       __imp_IsDBCSLeadByteEx     10089020     coredll:COREDLL.dll
 0002:00000024       __imp_StringCchLengthA     10089024     coredll:COREDLL.dll
 0002:00000028       __imp_CompareStringW       10089028     coredll:COREDLL.dll
 0002:0000002c       __imp_StringCchLengthW     1008902c     coredll:COREDLL.dll
 0002:00000030       __imp_LocalReAlloc         10089030     coredll:COREDLL.dll
 0002:00000034       __imp_GetTickCount         10089034     coredll:COREDLL.dll
 0002:00000038       __imp_FreeLibrary          10089038     coredll:COREDLL.dll
 0002:0000003c       __imp_InterlockedDecrement 1008903c     coredll:COREDLL.dll
 0002:00000040       __imp_SystemTimeToFileTime 10089040     coredll:COREDLL.dll
 0002:00000044       __imp_GetSystemTime        10089044     coredll:COREDLL.dll
 0002:00000048       __imp_StringCchCopyNA      10089048     coredll:COREDLL.dll
 0002:0000004c       __imp_StringCchCatA        1008904c     coredll:COREDLL.dll
 0002:00000050       __imp_FileTimeToSystemTime 10089050     coredll:COREDLL.dll
 0002:00000054       __imp_SetLastError         10089054     coredll:COREDLL.dll
 0002:00000058       __imp_StringCchPrintfA     10089058     coredll:COREDLL.dll
 0002:0000005c       __imp_CharLowerW           1008905c     coredll:COREDLL.dll
 0002:00000060       __imp_RegCloseKey          10089060     coredll:COREDLL.dll
 0002:00000064       __imp_InterlockedIncrement 10089064     coredll:COREDLL.dll
 0002:00000068       __imp_GetProcAddressA      10089068     coredll:COREDLL.dll
 0002:0000006c       __imp_StringCchCatNA       1008906c     coredll:COREDLL.dll
 0002:00000070       __imp_EventModify          10089070     coredll:COREDLL.dll
 0002:00000074       __imp___GetUserKData       10089074     coredll:COREDLL.dll
 0002:00000078       __imp_EnterCriticalSection 10089078     coredll:COREDLL.dll
 0002:0000007c       __imp_LeaveCriticalSection 1008907c     coredll:COREDLL.dll
 0002:00000080       __imp_InterlockedExchange  10089080     coredll:COREDLL.dll
 0002:00000084       __imp_StringCchCopyW       10089084     coredll:COREDLL.dll
 0002:00000088       __imp_CloseHandle          10089088     coredll:COREDLL.dll
 0002:0000008c       __imp_WaitForSingleObject  1008908c     coredll:COREDLL.dll
 0002:00000090       __imp_InterlockedCompareExchange 10089090     coredll:COREDLL.dll
 0002:00000094       __imp_InterlockedExchangeAdd 10089094     coredll:COREDLL.dll
 0002:00000098       __imp_CeSetThreadPriority  10089098     coredll:COREDLL.dll
 0002:0000009c       __imp_Sleep                1008909c     coredll:COREDLL.dll
 0002:000000a0       __imp_CreateThread         100890a0     coredll:COREDLL.dll
 0002:000000a4       __imp_FreeLibraryAndExitThread 100890a4     coredll:COREDLL.dll
 0002:000000a8       __imp_LoadLibraryW         100890a8     coredll:COREDLL.dll
 0002:000000ac       __imp_GetACP               100890ac     coredll:COREDLL.dll
 0002:000000b0       __imp_CreateEventW         100890b0     coredll:COREDLL.dll
 0002:000000b4       __imp_StringCchCopyA       100890b4     coredll:COREDLL.dll
 0002:000000b8       __imp_DeleteFileW          100890b8     coredll:COREDLL.dll
 0002:000000bc       __imp_WriteFile            100890bc     coredll:COREDLL.dll
 0002:000000c0       __imp_CreateFileW          100890c0     coredll:COREDLL.dll
 0002:000000c4       __imp_ReadFile             100890c4     coredll:COREDLL.dll
 0002:000000c8       __imp_GetSystemTimeAsFileTime 100890c8     coredll:COREDLL.dll
 0002:000000cc       __imp_StringCchVPrintfA    100890cc     coredll:COREDLL.dll
 0002:000000d0       __imp_GetFileTime          100890d0     coredll:COREDLL.dll
 0002:000000d4       __imp_StringCchPrintfExA   100890d4     coredll:COREDLL.dll
 0002:000000d8       __imp_ReleaseSemaphore     100890d8     coredll:COREDLL.dll
 0002:000000dc       __imp_CreateSemaphoreW     100890dc     coredll:COREDLL.dll
 0002:000000e0       __imp_LocalFileTimeToFileTime 100890e0     coredll:COREDLL.dll
 0002:000000e4       __imp_StringCchPrintfW     100890e4     coredll:COREDLL.dll
 0002:000000e8       __imp_IsDBCSLeadByte       100890e8     coredll:COREDLL.dll
 0002:000000ec       __imp_SetFilePointer       100890ec     coredll:COREDLL.dll
 0002:000000f0       __imp_FindClose            100890f0     coredll:COREDLL.dll
 0002:000000f4       __imp_lstrcmpW             100890f4     coredll:COREDLL.dll
 0002:000000f8       __imp_CryptProtectData     100890f8     coredll:COREDLL.dll
 0002:000000fc       __imp_CryptUnprotectData   100890fc     coredll:COREDLL.dll
 0002:00000100       __imp_GetVersionExW        10089100     coredll:COREDLL.dll
 0002:00000104       __imp_ReleaseMutex         10089104     coredll:COREDLL.dll
 0002:00000108       __imp_UnmapViewOfFile      10089108     coredll:COREDLL.dll
 0002:0000010c       __imp_SetEndOfFile         1008910c     coredll:COREDLL.dll
 0002:00000110       __imp_FlushViewOfFile      10089110     coredll:COREDLL.dll
 0002:00000114       __imp_MapViewOfFile        10089114     coredll:COREDLL.dll
 0002:00000118       __imp_GetFileSize          10089118     coredll:COREDLL.dll
 0002:0000011c       __imp_SetFileTime          1008911c     coredll:COREDLL.dll
 0002:00000120       __imp_DeviceIoControl      10089120     coredll:COREDLL.dll
 0002:00000124       __imp_StringCchCatNExA     10089124     coredll:COREDLL.dll
 0002:00000128       __imp_CryptReleaseContext  10089128     coredll:COREDLL.dll
 0002:0000012c       __imp_CryptGenRandom       1008912c     coredll:COREDLL.dll
 0002:00000130       __imp_CryptAcquireContextW 10089130     coredll:COREDLL.dll
 0002:00000134       __imp_WaitForAPIReady      10089134     coredll:COREDLL.dll
 0002:00000138       __imp_GetProcAddressW      10089138     coredll:COREDLL.dll
 0002:0000013c       __imp_IsWindow             1008913c     coredll:COREDLL.dll
 0002:00000140       __imp_GetDesktopWindow     10089140     coredll:COREDLL.dll
 0002:00000144       __imp_SetDlgItemTextW      10089144     coredll:COREDLL.dll
 0002:00000148       __imp_LoadStringW          10089148     coredll:COREDLL.dll
 0002:0000014c       __imp_DestroyIcon          1008914c     coredll:COREDLL.dll
 0002:00000150       __imp_SetFocus             10089150     coredll:COREDLL.dll
 0002:00000154       __imp_GetDlgItem           10089154     coredll:COREDLL.dll
 0002:00000158       __imp_SetForegroundWindow  10089158     coredll:COREDLL.dll
 0002:0000015c       __imp_GetTimeFormatW       1008915c     coredll:COREDLL.dll
 0002:00000160       __imp_GetDateFormatW       10089160     coredll:COREDLL.dll
 0002:00000164       __imp_SetWindowLongW       10089164     coredll:COREDLL.dll
 0002:00000168       __imp_EndDialog            10089168     coredll:COREDLL.dll
 0002:0000016c       __imp_GetWindowLongW       1008916c     coredll:COREDLL.dll
 0002:00000170       __imp_CreateProcessW       10089170     coredll:COREDLL.dll
 0002:00000174       __imp_DialogBoxIndirectParamW 10089174     coredll:COREDLL.dll
 0002:00000178       __imp_LoadResource         10089178     coredll:COREDLL.dll
 0002:0000017c       __imp_FindResourceW        1008917c     coredll:COREDLL.dll
 0002:00000180       __imp_TlsSetValue          10089180     coredll:COREDLL.dll
 0002:00000184       __imp_TlsGetValue          10089184     coredll:COREDLL.dll
 0002:00000188       __imp_GetExitCodeThread    10089188     coredll:COREDLL.dll
 0002:0000018c       __imp_LoadImageW           1008918c     coredll:COREDLL.dll
 0002:00000190       __imp_MessageBoxW          10089190     coredll:COREDLL.dll
 0002:00000194       __imp_StringCchCopyNW      10089194     coredll:COREDLL.dll
 0002:00000198       __imp_GetLocalTime         10089198     coredll:COREDLL.dll
 0002:0000019c       __imp_StringCbLengthA      1008919c     coredll:COREDLL.dll
 0002:000001a0       __imp_IsValidCodePage      100891a0     coredll:COREDLL.dll
 0002:000001a4       __imp_RegOpenKeyExW        100891a4     coredll:COREDLL.dll
 0002:000001a8       __imp_GetFileAttributesExW 100891a8     coredll:COREDLL.dll
 0002:000001ac       __imp_GetDiskFreeSpaceExW  100891ac     coredll:COREDLL.dll
 0002:000001b0       __imp_FormatMessageW       100891b0     coredll:COREDLL.dll
 0002:000001b4       __imp_CePerfDLLCleanup     100891b4     coredll:COREDLL.dll
 0002:000001b8       __imp_CePerfDLLSetup       100891b8     coredll:COREDLL.dll
 0002:000001bc       __imp_StringCchCopyExA     100891bc     coredll:COREDLL.dll
 0002:000001c0       __imp_GetModuleFileNameW   100891c0     coredll:COREDLL.dll
 0002:000001c4       __imp_RegQueryInfoKeyW     100891c4     coredll:COREDLL.dll
 0002:000001c8       __imp_RaiseException       100891c8     coredll:COREDLL.dll
 0002:000001cc       __imp_CharUpperW           100891cc     coredll:COREDLL.dll
 0002:000001d0       __imp_CreateMutexW         100891d0     coredll:COREDLL.dll
 0002:000001d4       __imp_CreateDirectoryW     100891d4     coredll:COREDLL.dll
 0002:000001d8       __imp_GetFileAttributesW   100891d8     coredll:COREDLL.dll
 0002:000001dc       __imp_FindFirstFileW       100891dc     coredll:COREDLL.dll
 0002:000001e0       __imp_FindNextFileW        100891e0     coredll:COREDLL.dll
 0002:000001e4       __imp_RemoveDirectoryW     100891e4     coredll:COREDLL.dll
 0002:000001e8       __imp_SetFileAttributesW   100891e8     coredll:COREDLL.dll
 0002:000001ec       __imp_CopyFileW            100891ec     coredll:COREDLL.dll
 0002:000001f0       __imp_GetModuleHandleW     100891f0     coredll:COREDLL.dll
 0002:000001f4       __imp_CreateFileMappingW   100891f4     coredll:COREDLL.dll
 0002:000001f8       __imp_LoadIconW            100891f8     coredll:COREDLL.dll
 0002:000001fc       __imp_SendDlgItemMessageW  100891fc     coredll:COREDLL.dll
 0002:00000200       __imp_TerminateProcess     10089200     coredll:COREDLL.dll
 0002:00000204       __imp___report_gsfailure   10089204     corelib1:COREDLL.dll
 0002:00000208       __imp___security_gen_cookie2 10089208     corelib1:COREDLL.dll
 0002:0000020c       __imp__msize               1008920c     corelib1:COREDLL.dll
 0002:00000210       __imp__XcptFilter          10089210     corelib1:COREDLL.dll
 0002:00000214       __imp_realloc              10089214     corelib1:COREDLL.dll
 0002:00000218       __imp_iswctype             10089218     corelib1:COREDLL.dll
 0002:0000021c       __imp_wcstol               1008921c     corelib1:COREDLL.dll
 0002:00000220       __imp_sprintf_s            10089220     corelib1:COREDLL.dll
 0002:00000224       __imp_strtol               10089224     corelib1:COREDLL.dll
 0002:00000228       __imp__recalloc            10089228     corelib1:COREDLL.dll
 0002:0000022c       __imp_calloc               1008922c     corelib1:COREDLL.dll
 0002:00000230       __imp_malloc               10089230     corelib1:COREDLL.dll
 0002:00000234       __imp_free                 10089234     corelib1:COREDLL.dll
 0002:00000238       __imp_strpbrk              10089238     corelib1:COREDLL.dll
 0002:0000023c       __imp___rt_udiv64by64      1008923c     corelib1:COREDLL.dll
 0002:00000240       __imp_wcschr               10089240     corelib1:COREDLL.dll
 0002:00000244       __imp___rt_udiv            10089244     corelib1:COREDLL.dll
 0002:00000248       __imp___rt_sdiv64by64      10089248     corelib1:COREDLL.dll
 0002:0000024c       __imp_strncmp              1008924c     corelib1:COREDLL.dll
 0002:00000250       __imp_wcsstr               10089250     corelib1:COREDLL.dll
 0002:00000254       __imp__purecall            10089254     corelib1:COREDLL.dll
 0002:00000258       __imp_strcmp               10089258     corelib1:COREDLL.dll
 0002:0000025c       __imp_memmove              1008925c     corelib1:COREDLL.dll
 0002:00000260       __imp___rt_sdiv            10089260     corelib1:COREDLL.dll
 0002:00000264       __imp__stricmp             10089264     corelib1:COREDLL.dll
 0002:00000268       __imp_memchr               10089268     corelib1:COREDLL.dll
 0002:0000026c       __imp_strtoul              1008926c     corelib1:COREDLL.dll
 0002:00000270       __imp_memcmp               10089270     corelib1:COREDLL.dll
 0002:00000274       __imp___C_specific_handler 10089274     corelib1:COREDLL.dll
 0002:00000278       __imp__isctype             10089278     corelib1:COREDLL.dll
 0002:0000027c       __imp_??_V@YAXPAX@Z        1008927c     corelib1:COREDLL.dll
 0002:00000280       __imp_??_U@YAPAXI@Z        10089280     corelib1:COREDLL.dll
 0002:00000284       __imp_memcpy               10089284     corelib1:COREDLL.dll
 0002:00000288       __imp_strcspn              10089288     corelib1:COREDLL.dll
 0002:0000028c       __imp_memset               1008928c     corelib1:COREDLL.dll
 0002:00000290       __imp_strlen               10089290     corelib1:COREDLL.dll
 0002:00000294       __imp_wcslen               10089294     corelib1:COREDLL.dll
 0002:00000298       \177COREDLL_NULL_THUNK_DATA 10089298     coredll:COREDLL.dll
 0002:0000029c       __imp_CertGetCertificateChain 1008929c     crypt32:CRYPT32.dll
 0002:000002a0       __imp_CertControlStore     100892a0     crypt32:CRYPT32.dll
 0002:000002a4       __imp_CertOpenStore        100892a4     crypt32:CRYPT32.dll
 0002:000002a8       __imp_CertVerifyCertificateChainPolicy 100892a8     crypt32:CRYPT32.dll
 0002:000002ac       __imp_CertDuplicateStore   100892ac     crypt32:CRYPT32.dll
 0002:000002b0       __imp_CertFindExtension    100892b0     crypt32:CRYPT32.dll
 0002:000002b4       __imp_CertNameToStrA       100892b4     crypt32:CRYPT32.dll
 0002:000002b8       __imp_CertDuplicateCertificateChain 100892b8     crypt32:CRYPT32.dll
 0002:000002bc       __imp_CertDuplicateCertificateContext 100892bc     crypt32:CRYPT32.dll
 0002:000002c0       __imp_CertFreeCertificateContext 100892c0     crypt32:CRYPT32.dll
 0002:000002c4       __imp_CertFreeCertificateChain 100892c4     crypt32:CRYPT32.dll
 0002:000002c8       __imp_CertCloseStore       100892c8     crypt32:CRYPT32.dll
 0002:000002cc       __imp_CertGetIntendedKeyUsage 100892cc     crypt32:CRYPT32.dll
 0002:000002d0       \177CRYPT32_NULL_THUNK_DATA 100892d0     crypt32:CRYPT32.dll
 0002:000002d4       __imp_StrCmpICW            100892d4     shlwapi:shlwapi.dll
 0002:000002d8       __imp_IsOS                 100892d8     shlwapi:shlwapi.dll
 0002:000002dc       __imp_SHGetValueA          100892dc     shlwapi:shlwapi.dll
 0002:000002e0       __imp_StrChrW              100892e0     shlwapi:shlwapi.dll
 0002:000002e4       __imp_StrCmpNICW           100892e4     shlwapi:shlwapi.dll
 0002:000002e8       __imp_SHUnicodeToAnsi      100892e8     shlwapi:shlwapi.dll
 0002:000002ec       __imp_UrlCombineW          100892ec     shlwapi:shlwapi.dll
 0002:000002f0       __imp_UrlCanonicalizeW     100892f0     shlwapi:shlwapi.dll
 0002:000002f4       __imp_UrlCombineA          100892f4     shlwapi:shlwapi.dll
 0002:000002f8       __imp_UrlCanonicalizeA     100892f8     shlwapi:shlwapi.dll
 0002:000002fc       __imp_PathCreateFromUrlW   100892fc     shlwapi:shlwapi.dll
 0002:00000300       __imp_RegDeleteKeyA        10089300     shlwapi:shlwapi.dll
 0002:00000304       __imp_StrCmpNA             10089304     shlwapi:shlwapi.dll
 0002:00000308       __imp_SHRegGetValueA       10089308     shlwapi:shlwapi.dll
 0002:0000030c       __imp_PathRemoveBlanksA    1008930c     shlwapi:shlwapi.dll
 0002:00000310       __imp_PathAppendA          10089310     shlwapi:shlwapi.dll
 0002:00000314       __imp_StrCmpICA            10089314     shlwapi:shlwapi.dll
 0002:00000318       __imp_PathAddBackslashA    10089318     shlwapi:shlwapi.dll
 0002:0000031c       __imp_SHSetValueW          1008931c     shlwapi:shlwapi.dll
 0002:00000320       __imp_StrCmpNIW            10089320     shlwapi:shlwapi.dll
 0002:00000324       __imp_SHRegGetUSValueA     10089324     shlwapi:shlwapi.dll
 0002:00000328       __imp_StrCmpNIA            10089328     shlwapi:shlwapi.dll
 0002:0000032c       __imp_RegDeleteValueA      1008932c     shlwapi:shlwapi.dll
 0002:00000330       __imp_RegSetValueExA       10089330     shlwapi:shlwapi.dll
 0002:00000334       __imp_UrlUnescapeA         10089334     shlwapi:shlwapi.dll
 0002:00000338       __imp_RegEnumKeyExA        10089338     shlwapi:shlwapi.dll
 0002:0000033c       __imp_SHDeleteKeyA         1008933c     shlwapi:shlwapi.dll
 0002:00000340       __imp_RegCreateKeyExA      10089340     shlwapi:shlwapi.dll
 0002:00000344       __imp_StrChrA              10089344     shlwapi:shlwapi.dll
 0002:00000348       __imp_StrRChrA             10089348     shlwapi:shlwapi.dll
 0002:0000034c       __imp_StrToIntA            1008934c     shlwapi:shlwapi.dll
 0002:00000350       __imp_StrStrA              10089350     shlwapi:shlwapi.dll
 0002:00000354       __imp_StrCmpNICA           10089354     shlwapi:shlwapi.dll
 0002:00000358       __imp_StrStrIA             10089358     shlwapi:shlwapi.dll
 0002:0000035c       __imp_RegOpenKeyExA        1008935c     shlwapi:shlwapi.dll
 0002:00000360       __imp_RegQueryValueExA     10089360     shlwapi:shlwapi.dll
 0002:00000364       __imp_StrCmpNCA            10089364     shlwapi:shlwapi.dll
 0002:00000368       __imp_SHGetValueW          10089368     shlwapi:shlwapi.dll
 0002:0000036c       __imp_PathFindExtensionA   1008936c     shlwapi:shlwapi.dll
 0002:00000370       __imp_PathFindFileNameW    10089370     shlwapi:shlwapi.dll
 0002:00000374       __imp_StrCmpCA             10089374     shlwapi:shlwapi.dll
 0002:00000378       __imp_SHRegGetValueW       10089378     shlwapi:shlwapi.dll
 0002:0000037c       \177shlwapi_NULL_THUNK_DATA 1008937c     shlwapi:shlwapi.dll
 0002:00000388       SocketsFunctions           10089388     wininet_common:iwinsock.obj
 0002:000004c8       ?DnsCachingEnabled@@3HA    100894c8     wininet_common:rescache.obj
 0002:000004cc       ?DnsCacheTimeout@@3KA      100894cc     wininet_common:rescache.obj
 0002:000004d0       ?MaximumDnsCacheEntries@@3HA 100894d0     wininet_common:rescache.obj
 0002:000004d4       ?NextHandleMapBit@@3KA     100894d4     wininet_common:handle.obj
 0002:000004d8       ?NextHandleValue@@3KA      100894d8     wininet_common:handle.obj
 0002:00000578       MyFsRtlLegalAnsiCharacterArray 10089578     wininet_ftp:namep.obj
 0002:000005e8       ?guidCookieSettings@@3U_GUID@@A 100895e8     wininet_http:cookiepolicy.obj
 0002:000005f8       ?guid3rdPartySettings@@3U_GUID@@A 100895f8     wininet_http:cookiepolicy.obj
 0002:00000608       ?acronymSet@@3PAPBDA       10089608     wininet_http:cookiepolicy.obj
 0002:00000770       ?PrivacyTemplate@@3KA      10089770     wininet_http:cookiepolicy.obj
 0002:00000774       ?bCode@@3PAEA              10089774     wininet_http:cookiepolicy.obj
 0002:00000784       ?SettingTemplate@@3PAPBGA  10089784     wininet_http:cookiepolicy.obj
 0002:00000800       ?rgszExcludedMimeTypes@@3PAPBDA 10089800     wininet_http:cache.obj
 0002:00000808       ?rgszExcludeHeaders@@3PAPADA 10089808     wininet_http:cache.obj
 0002:00000834       ?g_IndexRETRY_HEADERONLYPOST_ONCONNECTIONRESET@@3UFEATUREINDEX@@A 10089834     wininet_httpauth:urlzone.obj
 0002:00000848       ?g_IndexFEATURE_MIME_HANDLING@@3UFEATUREINDEX@@A 10089848     wininet_httpauth:urlzone.obj
 0002:0000085c       ?g_IndexFEATURE_HTTP_USERNAME_PASSWORD_DISABLE@@3UFEATUREINDEX@@A 1008985c     wininet_httpauth:urlzone.obj
 0002:00000870       ?g_IndexFEATURE_IGNORE_MAPPINGS_FOR_CREDPOLICY@@3UFEATUREINDEX@@A 10089870     wininet_httpauth:urlzone.obj
 0002:00000898       g_fUUEncodeData            10089898     wininet_httpauth:sspcalls.obj
 0002:0000089c       GlobalScavengerRunning     1008989c     wininet_urlcache:initglob.obj
 0002:000008a0       ?g_szOldSubKey@@3PAPBDA    100898a0     wininet_urlcache:cachecfg.obj
 0002:000008c4       ?vszCLSIDEX@@3PBDB         100898c4     wininet_urlcache:util_urlcache.obj
 0002:000008c8       ?vszUICLSIDEX@@3PBDB       100898c8     wininet_urlcache:util_urlcache.obj
 0002:00000900       ?ErrorNHelpMap@@3PAUErrorNHelpMapEntry@@A 10089900     wininet_inetui:ierrdlg.obj
 0002:00000a80       InternetTlsIndex           10089a80     wininet_dll:thrdinfo.obj
 0002:00000a88       ?UrlSchemeList@@3PAUURL_SCHEME_INFO@@A 10089a88     wininet_dll:parseurl.obj
 0002:00000c08       ?GlobalDialogTimeOut@@3KA  10089c08     wininet_dll:globals.obj
 0002:00000c0c       GlobalDllState             10089c0c     wininet_dll:globals.obj
 0002:00000c10       GlobalConnectTimeout       10089c10     wininet_dll:globals.obj
 0002:00000c14       GlobalConnectRetries       10089c14     wininet_dll:globals.obj
 0002:00000c18       GlobalSendTimeout          10089c18     wininet_dll:globals.obj
 0002:00000c1c       GlobalReceiveTimeout       10089c1c     wininet_dll:globals.obj
 0002:00000c20       GlobalDataSendTimeout      10089c20     wininet_dll:globals.obj
 0002:00000c24       GlobalDataReceiveTimeout   10089c24     wininet_dll:globals.obj
 0002:00000c28       GlobalFromCacheTimeout     10089c28     wininet_dll:globals.obj
 0002:00000c2c       GlobalFtpAcceptTimeout     10089c2c     wininet_dll:globals.obj
 0002:00000c30       GlobalTransportPacketLength 10089c30     wininet_dll:globals.obj
 0002:00000c34       GlobalKeepAliveSocketTimeout 10089c34     wininet_dll:globals.obj
 0002:00000c38       GlobalMaxHttpRedirects     10089c38     wininet_dll:globals.obj
 0002:00000c3c       GlobalMaxConnectionsPerServer 10089c3c     wininet_dll:globals.obj
 0002:00000c40       GlobalMaxConnectionsPer1_0Server 10089c40     wininet_dll:globals.obj
 0002:00000c44       GlobalConnectionInactiveTimeout 10089c44     wininet_dll:globals.obj
 0002:00000c48       GlobalServerInfoTimeout    10089c48     wininet_dll:globals.obj
 0002:00000c4c       GlobalIdnEnabled           10089c4c     wininet_dll:globals.obj
 0002:00000c50       ?GlobalWorkerThreadTimeout@@3KA 10089c50     wininet_dll:globals.obj
 0002:00000c54       g_bDisableHibernation      10089c54     wininet_dll:globals.obj
 0002:00000c58       GlobalEnableProxyHttp1_1   10089c58     wininet_dll:globals.obj
 0002:00000c5c       GlobalReleaseSocketDuringAuth 10089c5c     wininet_dll:globals.obj
 0002:00000c60       GlobalReleaseSocketDuring401Auth 10089c60     wininet_dll:globals.obj
 0002:00000c64       GlobalWpadSearchAllDomains 10089c64     wininet_dll:globals.obj
 0002:00000c68       GlobalSecureProtocols      10089c68     wininet_dll:globals.obj
 0002:00000c6c       GlobalInternetOpenHandleCount 10089c6c     wininet_dll:globals.obj
 0002:00000c70       GlobalAutoProxyCacheEnable 10089c70     wininet_dll:globals.obj
 0002:00000c74       GlobalSendUTF8ServerToProxy 10089c74     wininet_dll:globals.obj
 0002:00000c78       GlobalMBCSAPIforCrack      10089c78     wininet_dll:globals.obj
 0002:00000c7c       GlobalSendExtraCRLF        10089c7c     wininet_dll:globals.obj
 0002:00000c80       dwdwHttpDefaultExpiryDelta 10089c80     wininet_dll:globals.obj
 0002:00000c88       dwdwFtpDefaultExpiryDelta  10089c88     wininet_dll:globals.obj
 0002:00000c90       GlobalUrlCacheSyncMode     10089c90     wininet_dll:globals.obj
 0002:00000c94       GlobalDiskUsageLowerBound  10089c94     wininet_dll:globals.obj
 0002:00000c98       GlobalScavengeFileLifeTime 10089c98     wininet_dll:globals.obj
 0002:00000c9c       GlobalBufferBreakingSize   10089c9c     wininet_dll:globals.obj
 0002:00000ca0       GlobalWarnOnBadCertRecving 10089ca0     wininet_dll:globals.obj
 0002:00000ca4       GlobalWarnOnPostRedirect   10089ca4     wininet_dll:globals.obj
 0002:00000ca8       GlobalWarnOnHTTPSToHTTPRedirect 10089ca8     wininet_dll:globals.obj
 0002:00000cac       GlobalEnableHttpTrace      10089cac     wininet_dll:globals.obj
 0002:00000cb0       vfPerUserCookies           10089cb0     wininet_dll:globals.obj
 0002:00000cb4       GlobalLeashLegacyCookies   10089cb4     wininet_dll:globals.obj
 0002:00000cb8       InternetVersionInfo        10089cb8     wininet_dll:globals.obj
 0002:00000cc0       HttpVersionInfo            10089cc0     wininet_dll:globals.obj
 0002:00000cc8       g_dwCredPersistAvail       10089cc8     wininet_dll:globals.obj
 0002:00000ccc       gszAt                      10089ccc     wininet_dll:globals.obj
 0002:00000cd0       gszBang                    10089cd0     wininet_dll:globals.obj
 0002:00000cd4       gszCRLF                    10089cd4     wininet_dll:globals.obj
 0002:00000cd8       ?GlobalClientAuthCertFilter@@3KA 10089cd8     wininet_dll:globals.obj
 0002:00000cdc       ?GlobalBadProxyExpiresTime@@3KA 10089cdc     wininet_dll:globals.obj
 0002:00000ce0       ?g_IndexFEATURE_PERMIT_CACHE_FOR_AUTHENTICATED_FTP_KB910274@@3UFEATUREINDEX@@A 10089ce0     wininet_dll:globals.obj
 0002:00000cf4       ?g_IndexFEATURE_USE_CNAME_FOR_SPN_KB911149@@3UFEATUREINDEX@@A 10089cf4     wininet_dll:globals.obj
 0002:00000d08       ?g_IndexFEATURE_DISABLE_UNICODE_HANDLE_CLOSING_CALLBACK@@3UFEATUREINDEX@@A 10089d08     wininet_dll:globals.obj
 0002:00000d1c       ?g_IndexFEATURE_DIGEST_NO_EXTRAS_IN_URI@@3UFEATUREINDEX@@A 10089d1c     wininet_dll:globals.obj
 0002:00000d30       ?g_IndexFEATURE_BUFFERBREAKING_818408@@3UFEATUREINDEX@@A 10089d30     wininet_dll:globals.obj
 0002:00000d44       ?g_IndexFEATURE_SKIP_POST_RETRY_ON_INTERNETWRITEFILE_KB895954@@3UFEATUREINDEX@@A 10089d44     wininet_dll:globals.obj
 0002:00000d58       ?g_cm@@3VCmWrapper@@A      10089d58     wininet_dll:CmMisc.obj
 0002:00000db8       ?g_rgPerfItems@?A0x35cfd8a0@@3PAU_CEPERF_BASIC_ITEM_DESCRIPTOR@@A 10089db8     wininet_dll:wininetperf.obj
 0002:00001138       ?gPerfSession@?A0x35cfd8a0@@3PAXA 1008a138     wininet_dll:wininetperf.obj
 0002:0000113c       ?vszDelimiters@@3PADA      1008a13c     wininet_dll:registry_dll.obj
 0002:00001178       ?g_IERegPolicyKeyCache@@3PAUIERegCacheEntry@@A 1008a178     ieshare:ierapi.obj
 0002:00001268       g_funcAlloc                1008a268     ceosutil:utilmem.obj
 0002:0000126c       g_funcFree                 1008a26c     ceosutil:utilmem.obj
 0002:00001270       g_funcRealloc              1008a270     ceosutil:utilmem.obj
 0002:00001274       g_ThreadPriority256        1008a274     ceosutil:regwait.obj
 0002:00001278       __security_cookie          1008a278     corelib0:seccinit.obj
 0002:0000127c       __security_cookie_complement 1008a27c     corelib0:seccinit.obj
 0002:00001280       SecProviders               1008a280     wininet_common:ssocket.obj
 0002:00001328       ?GlobalSecureProtocolsCopy@@3KA 1008a328     wininet_common:ssocket.obj
 0002:00001774       ?g_IndexFEATURE_INCLUDE_PORT_IN_SPN_KB908209@@3UFEATUREINDEX@@A 1008a774     wininet_hndlobj:http.obj
 0002:000017a0       ??_B?1??get_lock@?$singleton@V?$free_list@$0GE@Vallocator@ce@@@ce@@$03V?$static_allocator@V?$free_list@$0GE@Vallocator@ce@@@ce@@$03@2@@ce@@KAAAVcritical_section@2@XZ@51 1008a7a0     dll_entry_point.obj
 0002:000017a4       ?cs@?1??get_lock@?$singleton@V?$free_list@$0GE@Vallocator@ce@@@ce@@$03V?$static_allocator@V?$free_list@$0GE@Vallocator@ce@@@ce@@$03@2@@ce@@KAAAVcritical_section@3@XZ@4V43@A 1008a7a4     dll_entry_point.obj
 0002:000017b8       ?_factory@?$singleton@V?$free_list@$0GE@Vallocator@ce@@@ce@@$03V?$static_allocator@V?$free_list@$0GE@Vallocator@ce@@@ce@@$03@2@@ce@@1Ulock_factory@12@A 1008a7b8     dll_entry_point.obj
 0002:000017c0       ?memory@?1??allocate@?$static_allocator@V?$free_list@$0GE@Vallocator@ce@@@ce@@$03@ce@@SAPAXI@Z@4PADA 1008a7c0     wininet_common:servinfo.obj
 0002:0000196c       ?pInstance@?$singleton@V?$free_list@$0GE@Vallocator@ce@@@ce@@$03V?$static_allocator@V?$free_list@$0GE@Vallocator@ce@@@ce@@$03@2@@ce@@1RAV?$free_list@$0GE@Vallocator@ce@@@2@A 1008a96c     wininet_common:servinfo.obj
 0002:00001970       ?lRefCount@?$singleton@V?$free_list@$0GE@Vallocator@ce@@@ce@@$03V?$static_allocator@V?$free_list@$0GE@Vallocator@ce@@@ce@@$03@2@@ce@@1JA 1008a970     wininet_common:servinfo.obj
 0002:00001974       ?p_AsyncThread@@3PAVICAsyncThread@@A 1008a974     wininet_common:icasync.obj
 0002:0000197c       _I_WSAAddressToStringW     1008a97c     wininet_common:iwinsock.obj
 0002:00001980       _I_getsockopt              1008a980     wininet_common:iwinsock.obj
 0002:00001984       _I_WSAStringToAddressW     1008a984     wininet_common:iwinsock.obj
 0002:00001988       _I_accept                  1008a988     wininet_common:iwinsock.obj
 0002:0000198c       _I_bind                    1008a98c     wininet_common:iwinsock.obj
 0002:00001990       _I_closesocket             1008a990     wininet_common:iwinsock.obj
 0002:00001994       _I_connect                 1008a994     wininet_common:iwinsock.obj
 0002:00001998       _I_gethostname             1008a998     wininet_common:iwinsock.obj
 0002:0000199c       _I_gethostbyname           1008a99c     wininet_common:iwinsock.obj
 0002:000019a0       _I_getsockname             1008a9a0     wininet_common:iwinsock.obj
 0002:000019a4       _I_getpeername             1008a9a4     wininet_common:iwinsock.obj
 0002:000019a8       _I_ntohl                   1008a9a8     wininet_common:iwinsock.obj
 0002:000019ac       _I_htonl                   1008a9ac     wininet_common:iwinsock.obj
 0002:000019b0       _I_htons                   1008a9b0     wininet_common:iwinsock.obj
 0002:000019b4       _I_inet_addr               1008a9b4     wininet_common:iwinsock.obj
 0002:000019b8       _I_inet_ntoa               1008a9b8     wininet_common:iwinsock.obj
 0002:000019bc       _I_ioctlsocket             1008a9bc     wininet_common:iwinsock.obj
 0002:000019c0       _I_listen                  1008a9c0     wininet_common:iwinsock.obj
 0002:000019c4       _I_ntohs                   1008a9c4     wininet_common:iwinsock.obj
 0002:000019c8       _I_recv                    1008a9c8     wininet_common:iwinsock.obj
 0002:000019cc       _I_recvfrom                1008a9cc     wininet_common:iwinsock.obj
 0002:000019d0       _I_select                  1008a9d0     wininet_common:iwinsock.obj
 0002:000019d4       _I_send                    1008a9d4     wininet_common:iwinsock.obj
 0002:000019d8       _I_sendto                  1008a9d8     wininet_common:iwinsock.obj
 0002:000019dc       _I_setsockopt              1008a9dc     wininet_common:iwinsock.obj
 0002:000019e0       _I_shutdown                1008a9e0     wininet_common:iwinsock.obj
 0002:000019e4       _I_socket                  1008a9e4     wininet_common:iwinsock.obj
 0002:000019e8       _I_WSAIoctl                1008a9e8     wininet_common:iwinsock.obj
 0002:000019ec       _I_WSAStartup              1008a9ec     wininet_common:iwinsock.obj
 0002:000019f0       _I_WSACleanup              1008a9f0     wininet_common:iwinsock.obj
 0002:000019f4       _I_WSAGetLastError         1008a9f4     wininet_common:iwinsock.obj
 0002:000019f8       _I_WSASetLastError         1008a9f8     wininet_common:iwinsock.obj
 0002:000019fc       _I___WSAFDIsSet            1008a9fc     wininet_common:iwinsock.obj
 0002:00001a00       _I_getaddrinfo             1008aa00     wininet_common:iwinsock.obj
 0002:00001a04       _I_freeaddrinfo            1008aa04     wininet_common:iwinsock.obj
 0002:00001a08       _I_getnameinfo             1008aa08     wininet_common:iwinsock.obj
 0002:00001a0c       _I_WSALookupServiceBeginW  1008aa0c     wininet_common:iwinsock.obj
 0002:00001a10       _I_WSALookupServiceNextW   1008aa10     wininet_common:iwinsock.obj
 0002:00001a14       _I_WSALookupServiceEnd     1008aa14     wininet_common:iwinsock.obj
 0002:00001a18       _I_WSANSPIoctl             1008aa18     wininet_common:iwinsock.obj
 0002:00001a1c       hWinsock                   1008aa1c     wininet_common:iwinsock.obj
 0002:00001a20       WinsockLoadCount           1008aa20     wininet_common:iwinsock.obj
 0002:00001a24       InitializationLock         1008aa24     wininet_common:iwinsock.obj
 0002:00001a3c       ?ResolverCacheInitialized@@3HA 1008aa3c     wininet_common:rescache.obj
 0002:00001a40       ?CurrentDnsCacheEntries@@3HA 1008aa40     wininet_common:rescache.obj
 0002:00001a44       ?ResolverCache@@3USERIALIZED_LIST@@A 1008aa44     wininet_common:rescache.obj
 0002:00001a68       ?HandleMapLength@@3KA      1008aa68     wininet_common:handle.obj
 0002:00001a6c       ?HandleMap@@3PAKA          1008aa6c     wininet_common:handle.obj
 0002:00001a70       ?NextHandleMapDword@@3KA   1008aa70     wininet_common:handle.obj
 0002:00001a74       ?NextHandleMapBitIndex@@3KA 1008aa74     wininet_common:handle.obj
 0002:00001a78       ?NextHandleIndex@@3KA      1008aa78     wininet_common:handle.obj
 0002:00001a7c       ?Initialized@@3HA          1008aa7c     wininet_common:handle.obj
 0002:00001a80       ?MapArray@@3PAPAXA         1008aa80     wininet_common:handle.obj
 0002:00001a84       ?MapArrayLength@@3KA       1008aa84     wininet_common:handle.obj
 0002:00001a88       ?HandleMapCritSec@@3UCCritSec@@A 1008aa88     wininet_common:handle.obj
 0002:00001aa0       FtpSessionList             1008aaa0     wininet_ftp:session.obj
 0002:00001ac4       ?GlobalExistingConnectHandles@@3JA 1008aac4     wininet_hndlobj:connect.obj
 0002:00001ad8       ?cookieUIhistory@@3VCCookiePromptHistory@@A 1008aad8     wininet_http:cookie.obj
 0002:00001be4       ?s_csCookieJar@@3UCCritSec@@A 1008abe4     wininet_http:cookie.obj
 0002:00001c08       ?lookupArray@@3PAEA        1008ac08     wininet_http:cookiepolicy.obj
 0002:00001e28       ?symbolIndex@@3PAUP3PSymbol@@A 1008ae28     wininet_http:cookiepolicy.obj
 0002:00002260       ?cookiePrefsCache@CCookieSettings@@0VCP3PSettingsCache@@A 1008b260     wininet_http:cookiepolicy.obj
 0002:000022d4       ??_B?1??evaluate@IncludeExcludeRule@@UAAHABUCompactPolicy@@@Z@51 1008b2d4     wininet_http:cpevalrule.obj
 0002:000022d8       ?empty@?1??evaluate@IncludeExcludeRule@@UAAHABUCompactPolicy@@@Z@4U3@B 1008b2d8     wininet_http:cpevalrule.obj
 0002:000022e8       ?_GlobalInit@DECOMPRESSOR@@0HA 1008b2e8     wininet_http:decompr.obj
 0002:000022ec       ?g_pSecMgr@@3PAUIInternetSecurityManager@@A 1008b2ec     wininet_httpauth:urlzone.obj
 0002:000022f0       ?g_pZoneMgr@@3PAUIInternetZoneManager@@A 1008b2f0     wininet_httpauth:urlzone.obj
 0002:00002310       ?fOpen@@3HA                1008b310     wininet_httpauth:httpfilt.obj
 0002:00002314       ?pRPA@@3PAVHTTPFILT@@A     1008b314     wininet_httpauth:httpfilt.obj
 0002:00002318       ?httpfiltRPA@@3VHTTPFILT@@A 1008b318     wininet_httpauth:httpfilt.obj
 0002:00002358       ?g_eState@AUTHCTX@@2W4SPMState@1@A 1008b358     wininet_httpauth:splugin.obj
 0002:0000235c       ?g_pWaitList@@3PAUAUTH_WAIT_INFO@@A 1008b35c     wininet_httpauth:splugin.obj
 0002:00002360       ?g_cWaitList@@3KA          1008b360     wininet_httpauth:splugin.obj
 0002:00002364       ?g_cDlgThreads@@3KA        1008b364     wininet_httpauth:splugin.obj
 0002:00002368       ?g_fNotifyInProgress@@3HA  1008b368     wininet_httpauth:splugin.obj
 0002:0000236c       ?g_pSPMList@AUTHCTX@@2PAVSPMData@1@A 1008b36c     wininet_httpauth:splugin.obj
 0002:00002370       ?g_dwAuthCount@AUTHCTX@@2KA 1008b370     wininet_httpauth:splugin.obj
 0002:00002374       ?g_pwcRealm@@3PAUPWC@@A    1008b374     wininet_httpauth:splugin.obj
 0002:00002378       ?g_pwcOther@@3PAUPWC@@A    1008b378     wininet_httpauth:splugin.obj
 0002:0000237c       ?g_pwcProxy@@3PAUPWC@@A    1008b37c     wininet_httpauth:splugin.obj
 0002:00002380       ?g_crstAuth@@3UCCritSec@@A 1008b380     wininet_httpauth:splugin.obj
 0002:00002398       g_fIsWhistler              1008b398     wininet_httpauth:sspspm.obj
 0002:0000239c       g_fCanUseCredMgr           1008b39c     wininet_httpauth:sspspm.obj
 0002:000024a0       GlobalCacheInitialized     1008b4a0     wininet_urlcache:initglob.obj
 0002:000024a4       GlobalUrlContainers        1008b4a4     wininet_urlcache:initglob.obj
 0002:000024a8       GlobalRetrieveUrlCacheEntryFileCount 1008b4a8     wininet_urlcache:initglob.obj
 0002:000024ac       ?GlobalCustomCachePath@@3PADA 1008b4ac     wininet_urlcache:initglob.obj
 0002:000024b0       ?GlobalCustomCacheLimitContent@@3KA 1008b4b0     wininet_urlcache:initglob.obj
 0002:000024b4       ?GlobalCustomCacheLimitCookie@@3KA 1008b4b4     wininet_urlcache:initglob.obj
 0002:000024b8       ?GlobalCustomCacheLimitHistory@@3KA 1008b4b8     wininet_urlcache:initglob.obj
 0002:000024bc       GlobalCacheCritSect        1008b4bc     wininet_urlcache:initglob.obj
 0002:000024d4       HandleMgr                  1008b4d4     wininet_urlcache:initglob.obj
 0002:000024d8       ?g_scavengerOwnRef@@3PAUHINSTANCE__@@A 1008b4d8     wininet_urlcache:downsize.obj
 0002:000024dc       ?pfnPickCertificate@@3P6AHPAUHWND__@@PAU_NETUI_PICKCERT@@@ZA 1008b4dc     wininet_inetui:ierrui.obj
 0002:0000250c       ?g_hAygShellHandle@@3PAUHINSTANCE__@@A 1008b50c     wininet_inetui:ierrdlg.obj
 0002:00002510       ?pfnSHInitExtraControls@@3P6AHXZA 1008b510     wininet_inetui:ierrdlg.obj
 0002:00002514       ?pfnSHInitDialog@@3P6AHPAUtagSHINITDLGINFO@@@ZA 1008b514     wininet_inetui:ierrdlg.obj
 0002:00002518       ?g_hNetuiHandle@@3PAUHINSTANCE__@@A 1008b518     wininet_inetui:ierrdlg.obj
 0002:0000251c       ?ThreadInfoList@@3USERIALIZED_LIST@@A 1008b51c     wininet_dll:thrdinfo.obj
 0002:00002540       g_hinstMUI                 1008b540     wininet_dll:dllentry.obj
 0002:00002544       g_hinstMUIParent           1008b544     wininet_dll:dllentry.obj
 0002:00002548       ?g_pThreadPool@@3PAVSVSThreadPool@@A 1008b548     wininet_dll:dllentry.obj
 0002:0000254c       GeneralInitCritSec         1008b54c     wininet_dll:dllentry.obj
 0002:0000256c       ?g_fConnChecked@@3HA       1008b56c     wininet_dll:autodial.obj
 0002:00002570       ?g_hProxyRegMutex@@3PAXA   1008b570     wininet_dll:autodial.obj
 0002:00002574       ?g_fAutodialInitialized@@3HA 1008b574     wininet_dll:autodial.obj
 0002:000025a8       dwdwSessionStartTime       1008b5a8     wininet_dll:globals.obj
 0002:000025b0       ?g_fHasCredsTimestamp@@3HA 1008b5b0     wininet_dll:globals.obj
 0002:000025b4       ?g_TimeCredsEntered@@3U_SYSTEMTIME@@A 1008b5b4     wininet_dll:globals.obj
 0002:000025c4       ?g_sqmSession@@3KA         1008b5c4     wininet_dll:globals.obj
 0002:000025c8       ?g_pwcUserAndPassword@@3PAUPWC@@A 1008b5c8     wininet_dll:globals.obj
 0002:000025d0       vszCurrentUser             1008b5d0     wininet_dll:globals.obj
 0002:000026d4       GlobalDllHandle            1008b6d4     wininet_dll:globals.obj
 0002:000026d8       ?GlobalShowDialogFullScreen@@3HA 1008b6d8     wininet_dll:globals.obj
 0002:000026dc       ?GlobalTimeOutDialogs@@3HA 1008b6dc     wininet_dll:globals.obj
 0002:000026e0       ?GlobalCmSkipLoopback@@3HA 1008b6e0     wininet_dll:globals.obj
 0002:000026e4       GlobalDataInitialized      1008b6e4     wininet_dll:globals.obj
 0002:000026e8       GlobalTruncateFileName     1008b6e8     wininet_dll:globals.obj
 0002:000026ec       InternetBuildNumber        1008b6ec     wininet_dll:globals.obj
 0002:000026f0       GlobalHaveInternetOpened   1008b6f0     wininet_dll:globals.obj
 0002:000026f4       GlobalBypassEditedEntry    1008b6f4     wininet_dll:globals.obj
 0002:000026f8       GlobalCacheMode            1008b6f8     wininet_dll:globals.obj
 0002:000026fc       g_bHibernating             1008b6fc     wininet_dll:globals.obj
 0002:00002700       GlobalCertCacheNoValidate  1008b700     wininet_dll:globals.obj
 0002:00002704       InDllCleanup               1008b704     wininet_dll:globals.obj
 0002:00002708       GlobalPleaseQuitWhatYouAreDoing 1008b708     wininet_dll:globals.obj
 0002:0000270c       GlobalDynaUnload           1008b70c     wininet_dll:globals.obj
 0002:00002710       GlobalDisableKeepAlive     1008b710     wininet_dll:globals.obj
 0002:00002714       GlobalDisablePassport      1008b714     wininet_dll:globals.obj
 0002:00002718       GlobalEnableHttp1_1        1008b718     wininet_dll:globals.obj
 0002:0000271c       GlobalDisableReadRange     1008b71c     wininet_dll:globals.obj
 0002:00002720       GlobalUseCNameForSPN       1008b720     wininet_dll:globals.obj
 0002:00002724       GlobalIsProcessExplorer    1008b724     wininet_dll:globals.obj
 0002:00002728       GlobalEnableUtf8Encoding   1008b728     wininet_dll:globals.obj
 0002:0000272c       GlobalSafeToAssumeUTF8     1008b72c     wininet_dll:globals.obj
 0002:00002730       GlobalSslStateCount        1008b730     wininet_dll:globals.obj
 0002:00002734       GlobalProxyVersionCount    1008b734     wininet_dll:globals.obj
 0002:00002738       GlobalAutoProxyNeedsInit   1008b738     wininet_dll:globals.obj
 0002:0000273c       GlobalAutoProxyInInit      1008b73c     wininet_dll:globals.obj
 0002:00002740       GlobalDisplayScriptDownloadFailureUI 1008b740     wininet_dll:globals.obj
 0002:00002744       GlobalRetryHeaderOnlyPost  1008b744     wininet_dll:globals.obj
 0002:00002748       GlobalUseUTF8ServerForNameRes 1008b748     wininet_dll:globals.obj
 0002:0000274c       fDontUseDNSLoadBalancing   1008b74c     wininet_dll:globals.obj
 0002:00002750       GlobalDisableNT4RasCheck   1008b750     wininet_dll:globals.obj
 0002:00002754       GlobalUseLanSettings       1008b754     wininet_dll:globals.obj
 0002:00002758       GlobalBypassFtpTimeCheck   1008b758     wininet_dll:globals.obj
 0002:0000275c       GlobalEnableBufferBreaking 1008b75c     wininet_dll:globals.obj
 0002:00002760       dwdwSessionStartTimeDefaultDelta 1008b760     wininet_dll:globals.obj
 0002:00002768       GlobalSkipPostRetryIfWriteFile 1008b768     wininet_dll:globals.obj
 0002:0000276c       GlobalPermitCacheForAuthenticatedFTP 1008b76c     wininet_dll:globals.obj
 0002:00002770       GlobalDisableUnicodeHandleClosingCallback 1008b770     wininet_dll:globals.obj
 0002:00002774       GlobalDigestNoExtrasInURI  1008b774     wininet_dll:globals.obj
 0002:00002778       vszMimeExclusionList       1008b778     wininet_dll:globals.obj
 0002:0000277c       vszHeaderExclusionList     1008b77c     wininet_dll:globals.obj
 0002:00002780       lpvrgszMimeExclusionTable  1008b780     wininet_dll:globals.obj
 0002:00002784       lpvrgszHeaderExclusionTable 1008b784     wininet_dll:globals.obj
 0002:00002788       lpvrgdwMimeExclusionTableOfSizes 1008b788     wininet_dll:globals.obj
 0002:0000278c       vdwMimeExclusionTableCount 1008b78c     wininet_dll:globals.obj
 0002:00002790       vdwHeaderExclusionTableCount 1008b790     wininet_dll:globals.obj
 0002:00002794       GlobalWarnOnPost           1008b794     wininet_dll:globals.obj
 0002:00002798       GlobalWarnAlways           1008b798     wininet_dll:globals.obj
 0002:0000279c       GlobalWarnOnZoneCrossing   1008b79c     wininet_dll:globals.obj
 0002:000027a0       GlobalWarnOnBadCertSending 1008b7a0     wininet_dll:globals.obj
 0002:000027a4       GlobalDisableSslCaching    1008b7a4     wininet_dll:globals.obj
 0002:000027a8       GlobalAlwaysDrainOnRedirect 1008b7a8     wininet_dll:globals.obj
 0002:000027ac       GlobalBypassHTTPNoCacheCheck 1008b7ac     wininet_dll:globals.obj
 0002:000027b0       GlobalBypassSSLNoCacheCheck 1008b7b0     wininet_dll:globals.obj
 0002:000027b4       GlobalSettingsVersion      1008b7b4     wininet_dll:globals.obj
 0002:000027b8       GlobalSettingsLoaded       1008b7b8     wininet_dll:globals.obj
 0002:000027bc       GlobalDisableNTLMPreAuth   1008b7bc     wininet_dll:globals.obj
 0002:000027c0       GlobalDisableLegacyPreAuthAsServer 1008b7c0     wininet_dll:globals.obj
 0002:000027c4       vdwCurrentUserLen          1008b7c4     wininet_dll:globals.obj
 0002:000027c8       GlobalCookiePolicyChanged  1008b7c8     wininet_dll:globals.obj
 0002:000027cc       g_HMODSHFolder             1008b7cc     wininet_dll:globals.obj
 0002:000027d0       g_HMODShell32              1008b7d0     wininet_dll:globals.obj
 0002:000027d4       ?g_hAutodialMutex@@3PAXA   1008b7d4     wininet_dll:globals.obj
 0002:000027d8       ?g_pNetworkChange@@3PAVNLA_NET_CHANGE@@A 1008b7d8     wininet_dll:globals.obj
 0002:000027dc       GlobalSuppressCookiesPolicy 1008b7dc     wininet_dll:globals.obj
 0002:000027e0       ?GlobalSpecialDomains@@3PADA 1008b7e0     wininet_dll:globals.obj
 0002:000027e4       ?GlobalSDOffsets@@3PAPADA  1008b7e4     wininet_dll:globals.obj
 0002:000027e8       ?GlobalEnableNegotiate@@3KA 1008b7e8     wininet_dll:globals.obj
 0002:000027ec       ?GlobalDisableBasicOverClearChannel@@3KA 1008b7ec     wininet_dll:globals.obj
 0002:000027f0       GlobalIsProcessNtService   1008b7f0     wininet_dll:globals.obj
 0002:000027f4       IAPDCritSec                1008b7f4     wininet_dll:globals.obj
 0002:0000280c       ZoneMgrCritSec             1008b80c     wininet_dll:globals.obj
 0002:00002824       ?GlobalProxyInfo@@3VPROXY_INFO_GLOBAL@@A 1008b824     wininet_dll:globals.obj
 0002:00002a14       LockRequestFileCritSec     1008ba14     wininet_dll:globals.obj
 0002:00002a2c       GlobalUserName             1008ba2c     wininet_dll:globals.obj
 0002:00002a58       GlobalServerInfoList       1008ba58     wininet_dll:globals.obj
 0002:00002a7c       GlobalObjectList           1008ba7c     wininet_dll:globals.obj
 0002:00002aa0       g_csRasMutex               1008baa0     wininet_dll:globals.obj
 0002:00002ab8       GlobalEnableRevocation     1008bab8     wininet_dll:globals.obj
 0002:00002abc       GlobalCertCache            1008babc     wininet_dll:globals.obj
 0002:00003b6c       ?g_cmProxy@@3PAVCmProxyWrapper@@A 1008cb6c     wininet_dll:CmMisc.obj
 0002:00003b70       pCePerfInternal            1008cb70     wininet_dll:wininetperf.obj
 0002:00003b74       ?g_pPerf@@3PAVWininetPerf@@A 1008cb74     wininet_dll:wininetperf.obj
 0002:00003b78       ?g_prkInternetSettings@@3PAVCRefdKey@@A 1008cb78     wininet_dll:registry_dll.obj
 0002:00003b7c       ?szDir@@3PADA              1008cb7c     wininet_dll:readhtml.obj
 0002:00003b9c       ?szSearch@@3PADA           1008cb9c     wininet_dll:readhtml.obj
 0002:00003bbc       ?g_prkBase@@3PAVCRefdKey@@A 1008cbbc     wininet_dll:proxreg.obj
 0002:00003bc0       ?g_fGetHostByNameNULLFails@@3HA 1008cbc0     wininet_dll:proxreg.obj
 0002:00003bc4       ?BlockedRequestQueue@@3USERIALIZED_LIST@@A 1008cbc4     wininet_dll:blocklst.obj
 0002:00003be8       g_InitialisedStaticBlock   1008cbe8     gzip:api.obj
 0002:00003e00       ?g_FeatureArray@@3VCFeatureArray@@A 1008ce00     ieshare:features.obj
 0002:00003f34       g_pvAllocData              1008cf34     ceosutil:utilmem.obj
 0002:00003f38       g_pvFreeData               1008cf38     ceosutil:utilmem.obj
 0002:00003f3c       ?g_pWaitForEventsMgr@@3PAVCWaitForEventsManager@@A 1008cf3c     ceosutil:regwait.obj
 0002:00003f44       ?g_cTimerQueueCookie@@3KA  1008cf44     ceosutil:TimerQueue.obj
 0002:00003f48       ?g_pCeOsUtilThreadPool@@3PAVSVSThreadPool@@A 1008cf48     ceosutil:TimerQueue.obj
 0002:00003f4c       ?g_pDefaultTimer@@3PAVCTimerManager@@A 1008cf4c     ceosutil:TimerQueue.obj
 0002:00003f50       ?g_pTimerBlockList@@3PAVSVSLinkManager@@A 1008cf50     ceosutil:TimerQueue.obj
 0002:00003f54       ?g_pTimerManagerLock@@3PAVSVSSynch@@A 1008cf54     ceosutil:TimerQueue.obj
 0002:00003f58       ?g_pTimerManagerList@@3PAVSVSLinkManager@@A 1008cf58     ceosutil:TimerQueue.obj
 0002:0000401c       ?g_pcsLock@@3PAUCRITICAL_SECTION@@A 1008d01c     sqmproxy:sqmproxy.obj
 0002:00004020       _exitflag                  1008d020     corelib0:cexit.obj
 0002:00004024       pSslCrackCertificate       1008d024     wininet_common:secinit.obj
 0002:00004028       pWinVerifyTrust            1008d028     wininet_common:secinit.obj
 0002:0000402c       pSslFreeCertificate        1008d02c     wininet_common:secinit.obj
 0002:00004030       GlobalSecFuncTable         1008d030     wininet_common:secinit.obj
 0002:00004034       ?hSecurity@@3PAUHINSTANCE__@@A 1008d034     wininet_common:secinit.obj
 0002:00004038       ?hWinTrust@@3PAUHINSTANCE__@@A 1008d038     wininet_common:secinit.obj
 0002:0000403c       g_fDoSpecialMagicForSGCCerts 1008d03c     wininet_common:secinit.obj
 0002:00004040       g_hMyCertStore             1008d040     wininet_common:secinit.obj
 0002:00004044       g_bOpenMyCertStore         1008d044     wininet_common:secinit.obj
 0002:00004048       g_CryptInstallDefaultContext 1008d048     wininet_common:secinit.obj
 0002:0000404c       g_CryptUninstallDefaultContext 1008d04c     wininet_common:secinit.obj
 0002:00004050       g_CertFindChainInStore     1008d050     wininet_common:secinit.obj
 0002:00004054       g_CertFreeCertificateChain 1008d054     wininet_common:secinit.obj
 0002:00004058       InitializationSecLock      1008d058     wininet_common:secinit.obj
 0002:00004070       dwEncFlags                 1008d070     wininet_common:ssocket.obj
 0002:00004078       g_cSspiContexts            1008d078     <common>
 0002:0000407c       g_hSecLib                  1008d07c     <common>
 0002:00004080       g_pSspData                 1008d080     <common>
 0002:000040a0       g_StaticDistanceTreeTable  1008d0a0     <common>
 0002:000040e0       g_LengthLookup             1008d0e0     <common>
 0002:000041e0       g_FastEncoderTreeLength    1008d1e0     <common>
 0002:00004200       g_DistLookup               1008d200     <common>
 0002:00004400       g_StaticLiteralTreeLength  1008d400     <common>
 0002:00004520       g_StaticDistanceTreeCode   1008d520     <common>
 0002:00004560       g_StaticLiteralTreeTable   1008d560     <common>
 0002:00004960       g_FastEncoderPostTreeBitbuf 1008d960     <common>
 0002:00004964       g_FastEncoderPostTreeBitcount 1008d964     <common>
 0002:00004980       g_FastEncoderTreeStructureData 1008d980     <common>
 0002:00004b80       g_StaticLiteralTreeCode    1008db80     <common>
 0002:00004dc0       __onexitend                1008ddc0     <common>
 0002:00004dc4       __onexitbegin              1008ddc4     <common>
 0002:00004dc8       g_pcsExit                  1008ddc8     <common>
 0002:00004dcc       _pRawDllMain               1008ddcc     <common>

 entry point at        0001:0007e578

 Static symbols

 0001:0002f4ec       ?IsVerySpecialDomain@@YAHPBDHH@Z 100304ec f   wininet_http:cookie.obj
 0001:0002f724       ?IsDomainLegal@@YAHPBD0@Z  10030724 f   wininet_http:cookie.obj
 0001:0002f988       ?ReverseString@@YAXPAD@Z   10030988 f   wininet_http:cookie.obj
 0001:0002f9e4       ?PathAndRDomainFromURL@@YAHPBDPAPAD1PAHH@Z 100309e4 f   wininet_http:cookie.obj
 0001:000306e8       ?ScanNumber@@YAPADPADPAK@Z 100316e8 f   wininet_http:cookie.obj
 0001:00030834       ?ParseToken@@YAHPAUPARSE@@HH@Z 10031834 f   wininet_http:cookie.obj
 0001:00030990       ?ParseHeader@@YAXPADPAPAD111PAKPAU_FILETIME@@@Z 10031990 f   wininet_http:cookie.obj
 0001:00030d8c       ?DestroyInternetCookie@@YAXPAU_INTERNET_COOKIE@@@Z 10031d8c f   wininet_http:cookie.obj
 0001:00030e20       ?MakeInternetCookie@@YAPAU_INTERNET_COOKIE@@PBDPAD111KU_FILETIME@@0@Z 10031e20 f   wininet_http:cookie.obj
 0001:00075e40       decodeBlock                10076e40 f   gzip:inflate.obj
 0001:000786e0       countLen                   100796e0 f   gzip:deftree.obj
 0001:00078750       downHeap                   10079750 f   gzip:deftree.obj
 0001:00079204       ?_QueryFeatureControlPolicySetting@@YA_NPAUHKEY__@@PBG1HPAK@Z 1007a204 f   ieshare:features.obj
 0001:00079310       ?_QueryFeatureControlPreferenceSetting@@YA_NPAUHKEY__@@PBG1HPAK@Z 1007a310 f   ieshare:features.obj
 0001:00079cac       ?IERegInit@@YAXXZ          1007acac f   ieshare:ierapi.obj
 0001:0007b118       ?FindFileDataCopyW2A@@YAXPAU_WIN32_FIND_DATAA@@PAU_WIN32_FIND_DATAW@@@Z 1007c118 f   cecommon:filesysa.obj
 0001:0007e488       _DllMainCRTStartupHelper   1007f488 f   corelib0:pegdmain.obj
 0001:0007e890       doexit                     1007f890 f   corelib0:cexit.obj
 0001:00084f9c       ??__E?_factory@?$singleton@V?$free_list@$0GE@Vallocator@ce@@@ce@@$03V?$static_allocator@V?$free_list@$0GE@Vallocator@ce@@@ce@@$03@2@@ce@@1Ulock_factory@12@A@@YAXXZ 10085f9c f   dll_entry_point.obj
 0001:00084fa0       ??__EInitializationLock@@YAXXZ 10085fa0 f   wininet_common:iwinsock.obj
 0001:00084fac       ??__EResolverCache@@YAXXZ  10085fac f   wininet_common:rescache.obj
 0001:00084fd8       ??__EHandleMapCritSec@@YAXXZ 10085fd8 f   wininet_common:handle.obj
 0001:00084fe4       ??__EFtpSessionList@@YAXXZ 10085fe4 f   wininet_ftp:session.obj
 0001:00084ff0       ??__Es_csCookieJar@@YAXXZ  10085ff0 f   wininet_http:cookie.obj
 0001:00084ffc       ??__EcookieUIhistory@@YAXXZ 10085ffc f   wininet_http:cookie.obj
 0001:00085028       ??__E?cookiePrefsCache@CCookieSettings@@0VCP3PSettingsCache@@A@@YAXXZ 10086028 f   wininet_http:cookiepolicy.obj
 0001:00085064       ??__EhttpfiltRPA@@YAXXZ    10086064 f   wininet_httpauth:httpfilt.obj
 0001:00085070       ??__Eg_crstAuth@@YAXXZ     10086070 f   wininet_httpauth:splugin.obj
 0001:0008507c       ??__EGlobalCacheCritSect@@YAXXZ 1008607c f   wininet_urlcache:initglob.obj
 0001:00085088       ??__Es_provID@@YAXXZ       10086088 f   wininet_inetui:persist.obj
 0001:000850c0       ??__EThreadInfoList@@YAXXZ 100860c0 f   wininet_dll:thrdinfo.obj
 0001:000850cc       ??__EGeneralInitCritSec@@YAXXZ 100860cc f   wininet_dll:dllentry.obj
 0001:000850d8       ??__EGlobalEnableRevocation@@YAXXZ 100860d8 f   wininet_dll:globals.obj
 0001:00085104       ??__EGlobalObjectList@@YAXXZ 10086104 f   wininet_dll:globals.obj
 0001:00085130       ??__EGlobalServerInfoList@@YAXXZ 10086130 f   wininet_dll:globals.obj
 0001:0008515c       ??__EGlobalCertCache@@YAXXZ 1008615c f   wininet_dll:globals.obj
 0001:00085168       ??__ELockRequestFileCritSec@@YAXXZ 10086168 f   wininet_dll:globals.obj
 0001:00085174       ??__EZoneMgrCritSec@@YAXXZ 10086174 f   wininet_dll:globals.obj
 0001:00085180       ??__EIAPDCritSec@@YAXXZ    10086180 f   wininet_dll:globals.obj
 0001:0008518c       ??__Eg_csRasMutex@@YAXXZ   1008618c f   wininet_dll:globals.obj
 0001:00085198       ??__EGlobalUserName@@YAXXZ 10086198 f   wininet_dll:globals.obj
 0001:000851b8       ??__EGlobalProxyInfo@@YAXXZ 100861b8 f   wininet_dll:globals.obj
 0001:00085208       ??__Eg_cm@@YAXXZ           10086208 f   wininet_dll:CmMisc.obj
 0001:00085214       ??__EBlockedRequestQueue@@YAXXZ 10086214 f   wininet_dll:blocklst.obj
 0001:00085240       ??__Eg_FeatureArray@@YAXXZ 10086240 f   ieshare:features.obj
 0001:0008526c       ??__EInitializationSecLock@@YAXXZ 1008626c f   wininet_common:secinit.obj
 0001:00085284       ??__FInitializationLock@@YAXXZ 10086284 f   wininet_common:iwinsock.obj
 0001:000852b0       ??__FResolverCache@@YAXXZ  100862b0 f   wininet_common:rescache.obj
 0001:000852dc       ??__FHandleMapCritSec@@YAXXZ 100862dc f   wininet_common:handle.obj
 0001:00085308       ??__FFtpSessionList@@YAXXZ 10086308 f   wininet_ftp:session.obj
 0001:00085334       ??__FcookieUIhistory@@YAXXZ 10086334 f   wininet_http:cookie.obj
 0001:00085340       ??__Fs_csCookieJar@@YAXXZ  10086340 f   wininet_http:cookie.obj
 0001:0008536c       ??__FInvalidSettings@?1??GetSettings@CCookieSettings@@SA_NPAPAV1@KH@Z@YAXXZ 1008636c f   wininet_http:cookiepolicy.obj
 0001:00085378       ??__F?cookiePrefsCache@CCookieSettings@@0VCP3PSettingsCache@@A@@YAXXZ 10086378 f   wininet_http:cookiepolicy.obj
 0001:00085384       ??__FhttpfiltRPA@@YAXXZ    10086384 f   wininet_httpauth:httpfilt.obj
 0001:000853b0       ??__Fg_crstAuth@@YAXXZ     100863b0 f   wininet_httpauth:splugin.obj
 0001:000853dc       ??__FGlobalCacheCritSect@@YAXXZ 100863dc f   wininet_urlcache:initglob.obj
 0001:00085408       ??__FThreadInfoList@@YAXXZ 10086408 f   wininet_dll:thrdinfo.obj
 0001:00085434       ??__FGeneralInitCritSec@@YAXXZ 10086434 f   wininet_dll:dllentry.obj
 0001:00085460       ??__FGlobalObjectList@@YAXXZ 10086460 f   wininet_dll:globals.obj
 0001:0008548c       ??__FGlobalServerInfoList@@YAXXZ 1008648c f   wininet_dll:globals.obj
 0001:000854b8       ??__FLockRequestFileCritSec@@YAXXZ 100864b8 f   wininet_dll:globals.obj
 0001:000854e4       ??__FZoneMgrCritSec@@YAXXZ 100864e4 f   wininet_dll:globals.obj
 0001:00085510       ??__FIAPDCritSec@@YAXXZ    10086510 f   wininet_dll:globals.obj
 0001:0008553c       ??__Fg_csRasMutex@@YAXXZ   1008653c f   wininet_dll:globals.obj
 0001:00085568       ??__FGlobalUserName@@YAXXZ 10086568 f   wininet_dll:globals.obj
 0001:00085574       ??__FGlobalCertCache@@YAXXZ 10086574 f   wininet_dll:globals.obj
 0001:000855a0       ??__FGlobalProxyInfo@@YAXXZ 100865a0 f   wininet_dll:globals.obj
 0001:000855bc       ??__Fg_cm@@YAXXZ           100865bc f   wininet_dll:CmMisc.obj
 0001:000855f0       ??__FBlockedRequestQueue@@YAXXZ 100865f0 f   wininet_dll:blocklst.obj
 0001:0008561c       ??__Fg_FeatureArray@@YAXXZ 1008661c f   ieshare:features.obj
 0001:00085628       ??__FInitializationSecLock@@YAXXZ 10086628 f   wininet_common:secinit.obj
