 ws2instl

 Timestamp is 5ac64a23 (Thu Apr 05 09:09:07 2018)

 Preferred load address is 10000000

 Start         Length     Name                   Class
 0001:00000000 00000004H .CRT$XCA                CODE
 0001:00000004 00000004H .CRT$XCU                CODE
 0001:00000008 00000004H .CRT$XCZ                CODE
 0001:0000000c 00000004H .CRT$XIA                CODE
 0001:00000010 00000004H .CRT$XIZ                CODE
 0001:00000014 00000004H .CRT$XPA                CODE
 0001:00000018 00000004H .CRT$XPZ                CODE
 0001:0000001c 00000004H .CRT$XTA                CODE
 0001:00000020 00000004H .CRT$XTZ                CODE
 0001:00000030 000002e4H .rdata                  CODE
 0001:00000314 00000025H .rdata$debug            CODE
 0001:0000033c 00001520H .text                   CODE
 0001:0000185c 00000004H .text$yc                CODE
 0001:00001860 0000000cH .text$yd                CODE
 0001:0000186c 0000003cH .xdata                  CODE
 0001:000018a8 00000014H .idata$2                CODE
 0001:000018bc 00000014H .idata$3                CODE
 0001:000018d0 00000078H .idata$4                CODE
 0001:00001948 0000000cH .idata$6                CODE
 0001:00001960 00000075H .edata                  CODE
 0002:00000000 00000078H .idata$5                DATA
 0002:00000078 00000014H .data                   DATA
 0002:0000008c 0000003cH .bss                    DATA
 0003:00000000 00000148H .pdata                  DATA

  Address         Publics by Value              Rva+Base       Lib:Object

 0000:00000000       ___safe_se_handler_table   00000000     <absolute>
 0000:00000000       ___safe_se_handler_count   00000000     <absolute>
 0001:00000000       __xc_a                     10001000     corelib0:crt0init.obj
 0001:00000008       __xc_z                     10001008     corelib0:crt0init.obj
 0001:0000000c       __xi_a                     1000100c     corelib0:crt0init.obj
 0001:00000010       __xi_z                     10001010     corelib0:crt0init.obj
 0001:00000014       __xp_a                     10001014     corelib0:crt0init.obj
 0001:00000018       __xp_z                     10001018     corelib0:crt0init.obj
 0001:0000001c       __xt_a                     1000101c     corelib0:crt0init.obj
 0001:00000020       __xt_z                     10001020     corelib0:crt0init.obj
 0001:0000004c       ??_C@_1O@CJJKOKAI@?$AAS?$AAt?$AAa?$AAc?$AAk?$AAs?$AA?$AA@ 1000104c     ws2install.obj
 0001:0000005c       ??_C@_1BC@HJPGGHDH@?$AAC?$AAo?$AAm?$AAm?$AA?2?$AAA?$AAF?$AAD?$AA?$AA@ 1000105c     ws2install.obj
 0001:00000070       ??_C@_1BC@BBGNGNGO@?$AAw?$AAs?$AAp?$AAm?$AA?4?$AAd?$AAl?$AAl?$AA?$AA@ 10001070     ws2install.obj
 0001:00000084       ??_C@_1DA@LIPAMDNO@?$AAW?$AAi?$AAn?$AAd?$AAo?$AAw?$AAs?$AA?5?$AAC?$AAE?$AA?5?$AAM?$AAS?$AA?5?$AAB?$AAl?$AAu?$AAe?$AAt?$AAo?$AAo?$AAt?$AAh?$AA?$AA@ 10001084     ws2install.obj
 0001:000000b4       ??_C@_17CMOEKIND@?$AAb?$AAt?$AAd?$AA?$AA@ 100010b4     ws2install.obj
 0001:000000bc       ??_C@_1DK@NDBHCGJF@?$AAW?$AAi?$AAn?$AAd?$AAo?$AAw?$AAs?$AA?5?$AAC?$AAE?$AA?5?$AAM?$AAS?$AA?5?$AAT?$AAc?$AAp?$AAi?$AAp?$AA?5?$AA?$FL?$AAT?$AAC?$AAP?$AA?1?$AAI?$AAP?$AA?$FN?$AA?$AA@ 100010bc     ws2install.obj
 0001:000000f8       ??_C@_1DK@BILCBNME@?$AAW?$AAi?$AAn?$AAd?$AAo?$AAw?$AAs?$AA?5?$AAC?$AAE?$AA?5?$AAM?$AAS?$AA?5?$AAT?$AAc?$AAp?$AAi?$AAp?$AA?5?$AA?$FL?$AAU?$AAD?$AAP?$AA?1?$AAI?$AAP?$AA?$FN?$AA?$AA@ 100010f8     ws2install.obj
 0001:00000134       ??_C@_1DK@BFHAGCFD@?$AAW?$AAi?$AAn?$AAd?$AAo?$AAw?$AAs?$AA?5?$AAC?$AAE?$AA?5?$AAM?$AAS?$AA?5?$AAT?$AAc?$AAp?$AAi?$AAp?$AA?5?$AA?$FL?$AAR?$AAA?$AAW?$AA?1?$AAI?$AAP?$AA?$FN?$AA?$AA@ 10001134     ws2install.obj
 0001:00000170       ??_C@_1DO@ODFPGBPD@?$AAW?$AAi?$AAn?$AAd?$AAo?$AAw?$AAs?$AA?5?$AAC?$AAE?$AA?5?$AAM?$AAS?$AA?5?$AAT?$AAc?$AAp?$AAi?$AAp?$AA?5?$AA?$FL?$AAT?$AAC?$AAP?$AA?1?$AAI?$AAP?$AAv?$AA6?$AA?$FN?$AA?$AA@ 10001170     ws2install.obj
 0001:000001b0       ??_C@_1DO@GHBGFANB@?$AAW?$AAi?$AAn?$AAd?$AAo?$AAw?$AAs?$AA?5?$AAC?$AAE?$AA?5?$AAM?$AAS?$AA?5?$AAT?$AAc?$AAp?$AAi?$AAp?$AA?5?$AA?$FL?$AAU?$AAD?$AAP?$AA?1?$AAI?$AAP?$AAv?$AA6?$AA?$FN?$AA?$AA@ 100011b0     ws2install.obj
 0001:000001f0       ??_C@_1BC@MHMNCJJL@?$AAn?$AAs?$AAp?$AAm?$AA?4?$AAd?$AAl?$AAl?$AA?$AA@ 100011f0     ws2install.obj
 0001:00000208       ??_C@_1EE@DONELCPJ@?$AAW?$AAi?$AAn?$AAd?$AAo?$AAw?$AAs?$AA?5?$AAC?$AAE?$AA?5?$AAD?$AAN?$AAS?$AA?1?$AAW?$AAI?$AAN?$AAS?$AA?5?$AAN?$AAa?$AAm?$AAe?$AA?5?$AAR?$AAe?$AAs?$AAo?$AAl?$AAv?$AAe@ 10001208     ws2install.obj
 0001:0000024c       ??_C@_1BE@BNOOLHHG@?$AAb?$AAt?$AAd?$AAr?$AAt?$AA?4?$AAd?$AAl?$AAl?$AA?$AA@ 1000124c     ws2install.obj
 0001:00000260       ??_C@_1FC@JPCKAJCO@?$AAW?$AAi?$AAn?$AAd?$AAo?$AAw?$AAs?$AA?5?$AAC?$AAE?$AA?5?$AAB?$AAl?$AAu?$AAe?$AAt?$AAo?$AAo?$AAt?$AAh?$AA?5?$AAN?$AAa?$AAm?$AAe?$AA?5?$AAS?$AAp?$AAa?$AAc?$AAe?$AA?5@ 10001260     ws2install.obj
 0001:000002b4       ?defaultInstallFunction@?L@??Install@SPInstaller@@QAAXXZ@4QBGB 100012b4     install_lsp.obj
 0001:000002d8       ??_C@_1M@JLADBBAF@?$AAE?$AAn?$AAt?$AAr?$AAy?$AA?$AA@ 100012d8     install_lsp.obj
 0001:000002e4       ??_C@_17DJMMGLBL@?$AAD?$AAl?$AAl?$AA?$AA@ 100012e4     install_lsp.obj
 0001:000002ec       ??_C@_1M@PJMPBMAL@?$AAO?$AAr?$AAd?$AAe?$AAr?$AA?$AA@ 100012ec     install_lsp.obj
 0001:000002f8       ??_C@_1BM@MILMMKCA@?$AA?2?$AAC?$AAO?$AAM?$AAM?$AA?2?$AAW?$AAS?$AA2?$AA?2?$AAL?$AAS?$AAP?$AA?$AA@ 100012f8     install_lsp.obj
 0001:00000344       IsStackInstalled           10001344 f   ws2install.obj
 0001:00000460       Ws2Instl                   10001460 f   ws2install.obj
 0001:00000844       InstallNSPM                10001844 f   ws2install.obj
 0001:00000928       InstallNSBTH               10001928 f   ws2install.obj
 0001:000009f4       DllEntry                   100019f4 f   ws2install.obj
 0001:00000a24       ?EnumKey@CReg@@QAAHPAGK@Z  10001a24 f i install_lsp.obj
 0001:00000a90       ?ValueSZ@CReg@@QAAPBGPBG@Z 10001a90 f i install_lsp.obj
 0001:00000b74       ?ValueDW@CReg@@QAAKPBGK@Z  10001b74 f i install_lsp.obj
 0001:00000bc8       ?CallUnsafeFunction@SPInstaller@@QAAXP6AJXZ@Z 10001bc8 f i install_lsp.obj
 0001:00000bf0       ?_Buynode@?$list@VSPInstaller@@Vallocator@ce@@@ce@@IAAPAU?$_ListNode@VSPInstaller@@@list_impl@2@PAU342@@Z 10001bf0 f i install_lsp.obj
 0001:00000c3c       ?Open@CReg@@QAAHPAUHKEY__@@PBGK@Z 10001c3c f i install_lsp.obj
 0001:00000ca4       ?Install@SPInstaller@@QAAXXZ 10001ca4 f i install_lsp.obj
 0001:00000d1c       ?get_lock@?$singleton@V?$free_list@$0GE@Vallocator@ce@@@ce@@$03V?$static_allocator@V?$free_list@$0GE@Vallocator@ce@@@ce@@$03@2@@ce@@KAAAVcritical_section@2@XZ 10001d1c f i install_lsp.obj
 0001:00000d70       ??$for_each@V?$iterator@VSPInstaller@@@list_impl@ce@@V?$mem_fun_ref_t@XVSPInstaller@@@std@@@std@@YA?AV?$mem_fun_ref_t@XVSPInstaller@@@0@V?$iterator@VSPInstaller@@@list_impl@ce@@0V10@@Z 10001d70 f i install_lsp.obj
 0001:00000dc0       ??$_Advance@V?$iterator@VSPInstaller@@@list_impl@ce@@H@std@@YAXAAV?$iterator@VSPInstaller@@@list_impl@ce@@HUbidirectional_iterator_tag@0@@Z 10001dc0 f i install_lsp.obj
 0001:00000e08       ?erase@?$list@VSPInstaller@@Vallocator@ce@@@ce@@QAA?AV?$iterator@VSPInstaller@@@list_impl@2@V342@@Z 10001e08 f i install_lsp.obj
 0001:00000e88       ?erase@?$list@VSPInstaller@@Vallocator@ce@@@ce@@QAA?AV?$iterator@VSPInstaller@@@list_impl@2@V342@0@Z 10001e88 f i install_lsp.obj
 0001:00000ee0       ??$insert@I@?$list@VSPInstaller@@Vallocator@ce@@@ce@@QAA?AV?$iterator@VSPInstaller@@@list_impl@1@V231@ABI@Z 10001ee0 f i install_lsp.obj
 0001:00000f40       ??$_Upper_bound@V?$iterator@VSPInstaller@@@list_impl@ce@@IH@std@@YA?AV?$iterator@VSPInstaller@@@list_impl@ce@@V123@0ABIPAH@Z 10001f40 f i install_lsp.obj
 0001:00000fe8       InstallThirdPartyLSP       10001fe8 f   install_lsp.obj
 0001:00001204       FreeLibrary                10002204 f   coredll:COREDLL.dll
 0001:00001214       LoadLibraryW               10002214 f   coredll:COREDLL.dll
 0001:00001224       RegCloseKey                10002224 f   coredll:COREDLL.dll
 0001:00001234       RegQueryValueExW           10002234 f   coredll:COREDLL.dll
 0001:00001244       RegOpenKeyExW              10002244 f   coredll:COREDLL.dll
 0001:00001254       LocalFree                  10002254 f   coredll:COREDLL.dll
 0001:00001264       StringCchCopyW             10002264 f   coredll:COREDLL.dll
 0001:00001274       LocalAlloc                 10002274 f   coredll:COREDLL.dll
 0001:00001284       DisableThreadLibraryCalls  10002284 f   coredll:COREDLL.dll
 0001:00001294       InitializeCriticalSection  10002294 f   coredll:COREDLL.dll
 0001:000012a4       DeleteCriticalSection      100022a4 f   coredll:COREDLL.dll
 0001:000012b4       RegEnumKeyExW              100022b4 f   coredll:COREDLL.dll
 0001:000012c4       GetProcAddressW            100022c4 f   coredll:COREDLL.dll
 0001:000012d4       svsutil_Initialize         100022d4 f   ceosutil:utilmem.obj
 0001:000012d8       svsutil_DeInitialize       100022d8 f   ceosutil:utilmem.obj
 0001:000012dc       svsutil_Alloc              100022dc f   ceosutil:utilmem.obj
 0001:000012e0       svsutil_ReAlloc            100022e0 f   ceosutil:utilmem.obj
 0001:000012e4       svsutil_Free               100022e4 f   ceosutil:utilmem.obj
 0001:000012e8       _DllEntryCRTStartup        100022e8 f   corelib0:pegdentry.obj
 0001:0000132c       __GSHandlerCheckCommon     1000232c f   corelib0:gshandler.obj
 0001:00001368       __GSHandlerCheck           10002368 f   corelib0:gshandler.obj
 0001:00001388       __security_init_cookie     10002388 f   corelib0:seccinit.obj
 0001:000013d4       __security_check_cookie    100023d4 f   corelib0:armsecgs.obj
 0001:000013e4       __gsfailure                100023e4     corelib0:armsecgs.obj
 0001:00001430       _onexit                    10002430 f   corelib0:onexit.obj
 0001:000015b4       atexit                     100025b4 f   corelib0:onexit.obj
 0001:000016b4       _cexit                     100026b4 f   corelib0:cexit.obj
 0001:000016c4       _initterm                  100026c4 f   corelib0:crt0dat.obj
 0001:000016f0       _cinit                     100026f0 f   corelib0:crt0dat.obj
 0001:00001750       __crt_ExitProcess          10002750 f   corelib0:exitproc_proxy.obj
 0001:0000175c       _wcsicmp                   1000275c f   corelib1:COREDLL.dll
 0001:0000176c       memcpy                     1000276c f   corelib1:COREDLL.dll
 0001:0000177c       ??2@YAPAXI@Z               1000277c f   corelib1:COREDLL.dll
 0001:0000178c       ??3@YAXPAX@Z               1000278c f   corelib1:COREDLL.dll
 0001:0000179c       __C_specific_handler       1000279c f   corelib1:COREDLL.dll
 0001:000017ac       malloc                     100027ac f   corelib1:COREDLL.dll
 0001:000017bc       realloc                    100027bc f   corelib1:COREDLL.dll
 0001:000017cc       free                       100027cc f   corelib1:COREDLL.dll
 0001:000017dc       __security_gen_cookie2     100027dc f   corelib1:COREDLL.dll
 0001:000017ec       __report_gsfailure         100027ec f   corelib1:COREDLL.dll
 0001:000017fc       _msize                     100027fc f   corelib1:COREDLL.dll
 0001:0000180c       EnterCriticalSection       1000280c f   coredll:COREDLL.dll
 0001:0000181c       InterlockedCompareExchange 1000281c f   coredll:COREDLL.dll
 0001:0000182c       LeaveCriticalSection       1000282c f   coredll:COREDLL.dll
 0001:0000183c       InterlockedExchange        1000283c f   coredll:COREDLL.dll
 0001:0000184c       TerminateProcess           1000284c f   coredll:COREDLL.dll
 0001:00001860       ??__Fcs@?1??get_lock@?$singleton@V?$free_list@$0GE@Vallocator@ce@@@ce@@$03V?$static_allocator@V?$free_list@$0GE@Vallocator@ce@@@ce@@$03@2@@ce@@KAAAVcritical_section@2@XZ@YAXXZ 10002860 f i install_lsp.obj
 0001:000018a8       __IMPORT_DESCRIPTOR_COREDLL 100028a8     coredll:COREDLL.dll
 0001:000018bc       __NULL_IMPORT_DESCRIPTOR   100028bc     coredll:COREDLL.dll
 0002:00000000       __imp_FreeLibrary          10003000     coredll:COREDLL.dll
 0002:00000004       __imp_LoadLibraryW         10003004     coredll:COREDLL.dll
 0002:00000008       __imp_RegCloseKey          10003008     coredll:COREDLL.dll
 0002:0000000c       __imp_RegQueryValueExW     1000300c     coredll:COREDLL.dll
 0002:00000010       __imp_RegOpenKeyExW        10003010     coredll:COREDLL.dll
 0002:00000014       __imp_LocalFree            10003014     coredll:COREDLL.dll
 0002:00000018       __imp_StringCchCopyW       10003018     coredll:COREDLL.dll
 0002:0000001c       __imp_LocalAlloc           1000301c     coredll:COREDLL.dll
 0002:00000020       __imp_DisableThreadLibraryCalls 10003020     coredll:COREDLL.dll
 0002:00000024       __imp_InitializeCriticalSection 10003024     coredll:COREDLL.dll
 0002:00000028       __imp_DeleteCriticalSection 10003028     coredll:COREDLL.dll
 0002:0000002c       __imp_RegEnumKeyExW        1000302c     coredll:COREDLL.dll
 0002:00000030       __imp_GetProcAddressW      10003030     coredll:COREDLL.dll
 0002:00000034       __imp__wcsicmp             10003034     corelib1:COREDLL.dll
 0002:00000038       __imp_memcpy               10003038     corelib1:COREDLL.dll
 0002:0000003c       __imp_??2@YAPAXI@Z         1000303c     corelib1:COREDLL.dll
 0002:00000040       __imp_??3@YAXPAX@Z         10003040     corelib1:COREDLL.dll
 0002:00000044       __imp___C_specific_handler 10003044     corelib1:COREDLL.dll
 0002:00000048       __imp_malloc               10003048     corelib1:COREDLL.dll
 0002:0000004c       __imp_realloc              1000304c     corelib1:COREDLL.dll
 0002:00000050       __imp_free                 10003050     corelib1:COREDLL.dll
 0002:00000054       __imp___security_gen_cookie2 10003054     corelib1:COREDLL.dll
 0002:00000058       __imp___report_gsfailure   10003058     corelib1:COREDLL.dll
 0002:0000005c       __imp__msize               1000305c     corelib1:COREDLL.dll
 0002:00000060       __imp_EnterCriticalSection 10003060     coredll:COREDLL.dll
 0002:00000064       __imp_InterlockedCompareExchange 10003064     coredll:COREDLL.dll
 0002:00000068       __imp_LeaveCriticalSection 10003068     coredll:COREDLL.dll
 0002:0000006c       __imp_InterlockedExchange  1000306c     coredll:COREDLL.dll
 0002:00000070       __imp_TerminateProcess     10003070     coredll:COREDLL.dll
 0002:00000074       \177COREDLL_NULL_THUNK_DATA 10003074     coredll:COREDLL.dll
 0002:00000078       g_funcAlloc                10003078     ceosutil:utilmem.obj
 0002:0000007c       g_funcFree                 1000307c     ceosutil:utilmem.obj
 0002:00000080       g_funcRealloc              10003080     ceosutil:utilmem.obj
 0002:00000084       __security_cookie          10003084     corelib0:seccinit.obj
 0002:00000088       __security_cookie_complement 10003088     corelib0:seccinit.obj
 0002:0000008c       ??_B?1??get_lock@?$singleton@V?$free_list@$0GE@Vallocator@ce@@@ce@@$03V?$static_allocator@V?$free_list@$0GE@Vallocator@ce@@@ce@@$03@2@@ce@@KAAAVcritical_section@2@XZ@51 1000308c     install_lsp.obj
 0002:00000090       ?cs@?1??get_lock@?$singleton@V?$free_list@$0GE@Vallocator@ce@@@ce@@$03V?$static_allocator@V?$free_list@$0GE@Vallocator@ce@@@ce@@$03@2@@ce@@KAAAVcritical_section@3@XZ@4V43@A 10003090     install_lsp.obj
 0002:000000a4       ?_factory@?$singleton@V?$free_list@$0GE@Vallocator@ce@@@ce@@$03V?$static_allocator@V?$free_list@$0GE@Vallocator@ce@@@ce@@$03@2@@ce@@1Ulock_factory@12@A 100030a4     install_lsp.obj
 0002:000000a8       g_pvAllocData              100030a8     ceosutil:utilmem.obj
 0002:000000ac       g_pvFreeData               100030ac     ceosutil:utilmem.obj
 0002:000000b0       _exitflag                  100030b0     corelib0:cexit.obj
 0002:000000b4       pfnPMInstallNameSpace      100030b4     <common>
 0002:000000b8       pfnPMInstallProvider       100030b8     <common>
 0002:000000bc       __onexitend                100030bc     <common>
 0002:000000c0       __onexitbegin              100030c0     <common>
 0002:000000c4       g_pcsExit                  100030c4     <common>

 entry point at        0001:000012e8

 Static symbols

 0001:000015cc       doexit                     100025cc f   corelib0:cexit.obj
 0001:0000185c       ??__E?_factory@?$singleton@V?$free_list@$0GE@Vallocator@ce@@@ce@@$03V?$static_allocator@V?$free_list@$0GE@Vallocator@ce@@@ce@@$03@2@@ce@@1Ulock_factory@12@A@@YAXXZ 1000285c f   install_lsp.obj
